Archive member included to satisfy reference by file (symbol)

/root/ti-tools/part2/msp430-gcc-6.2.1.16_linux64/bin/../lib/gcc/msp430-elf/6.2.1/large/libgcc.a(lib2divSI.o)
                              build/obj/hal_spi_lld.o (__mspabi_divul)
/root/ti-tools/part2/msp430-gcc-6.2.1.16_linux64/bin/../lib/gcc/msp430-elf/6.2.1/large/libgcc.a(slli.o)
                              build/obj/hal_pal.o (__mspabi_slli)
/root/ti-tools/part2/msp430-gcc-6.2.1.16_linux64/bin/../lib/gcc/msp430-elf/6.2.1/large/libgcc.a(srai.o)
                              build/obj/hal_pal_lld.o (__mspabi_sral_4)
/root/ti-tools/part2/msp430-gcc-6.2.1.16_linux64/bin/../lib/gcc/msp430-elf/6.2.1/large/libgcc.a(srli.o)
                              build/obj/sx1278.o (__mspabi_srli_8)
/root/ti-tools/part2/msp430-gcc-6.2.1.16_linux64/bin/../lib/gcc/msp430-elf/6.2.1/large/libgcc.a(cmpsi2.o)
                              build/obj/rf.o (__ucmpsi2)
/root/ti-tools/part2/msp430-gcc-6.2.1.16_linux64/bin/../lib/gcc/msp430-elf/6.2.1/large/libgcc.a(_udivdi3.o)
                              /root/ti-tools/part2/msp430-gcc-6.2.1.16_linux64/bin/../lib/gcc/msp430-elf/6.2.1/large/libgcc.a(lib2divSI.o) (__mspabi_divull)
/root/ti-tools/part2/msp430-gcc-6.2.1.16_linux64/bin/../lib/gcc/msp430-elf/6.2.1/large/libgcc.a(_lshrdi3.o)
                              /root/ti-tools/part2/msp430-gcc-6.2.1.16_linux64/bin/../lib/gcc/msp430-elf/6.2.1/large/libgcc.a(_udivdi3.o) (__lshrdi3)
/root/ti-tools/part2/msp430-gcc-6.2.1.16_linux64/bin/../lib/gcc/msp430-elf/6.2.1/large/libgcc.a(_ashldi3.o)
                              /root/ti-tools/part2/msp430-gcc-6.2.1.16_linux64/bin/../lib/gcc/msp430-elf/6.2.1/large/libgcc.a(_udivdi3.o) (__ashldi3)
/root/ti-tools/part2/msp430-gcc-6.2.1.16_linux64/bin/../lib/gcc/msp430-elf/6.2.1/large/libgcc.a(_clzdi2.o)
                              /root/ti-tools/part2/msp430-gcc-6.2.1.16_linux64/bin/../lib/gcc/msp430-elf/6.2.1/large/libgcc.a(_udivdi3.o) (__clzdi2)
/root/ti-tools/part2/msp430-gcc-6.2.1.16_linux64/bin/../lib/gcc/msp430-elf/6.2.1/large/libgcc.a(_clz.o)
                              /root/ti-tools/part2/msp430-gcc-6.2.1.16_linux64/bin/../lib/gcc/msp430-elf/6.2.1/large/libgcc.a(_clzdi2.o) (__clz_tab)
/root/ti-tools/part2/msp430-gcc-6.2.1.16_linux64/bin/../lib/gcc/msp430-elf/6.2.1/large/libmul_f5.a(lib2hw_mul_f5.o)
                              build/obj/hal_buffers.o (__mulsi2_f5)
/root/ti-tools/part2/msp430-gcc-6.2.1.16_linux64/bin/../lib/gcc/msp430-elf/6.2.1/../../../../msp430-elf/lib/large/libc.a(lib_a-memcpy.o)
                              build/obj/hal_buffers.o (memcpy)
/root/ti-tools/part2/msp430-gcc-6.2.1.16_linux64/bin/../lib/gcc/msp430-elf/6.2.1/../../../../msp430-elf/lib/large/libc.a(lib_a-memset.o)
                              build/obj/cmds.o (memset)
/root/ti-tools/part2/msp430-gcc-6.2.1.16_linux64/bin/../lib/gcc/msp430-elf/6.2.1/large/libgcc.a(_muldi3.o)
                              /root/ti-tools/part2/msp430-gcc-6.2.1.16_linux64/bin/../lib/gcc/msp430-elf/6.2.1/large/libmul_f5.a(lib2hw_mul_f5.o) (__mspabi_mpyll)
/root/ti-tools/part2/msp430-gcc-6.2.1.16_linux64/bin/../lib/gcc/msp430-elf/6.2.1/../../../../msp430-elf/lib/large/libcrt.a(crt_bss.o)
                              build/obj/chmemcore.o (__crt0_init_bss)
/root/ti-tools/part2/msp430-gcc-6.2.1.16_linux64/bin/../lib/gcc/msp430-elf/6.2.1/../../../../msp430-elf/lib/large/libcrt.a(crt_high_bss.o)
                              build/obj/ch.o (__crt0_init_highbss)
/root/ti-tools/part2/msp430-gcc-6.2.1.16_linux64/bin/../lib/gcc/msp430-elf/6.2.1/../../../../msp430-elf/lib/large/libcrt.a(crt_move_highdata.o)
                              build/obj/main.o (__crt0_move_highdata)
/root/ti-tools/part2/msp430-gcc-6.2.1.16_linux64/bin/../lib/gcc/msp430-elf/6.2.1/../../../../msp430-elf/lib/large/libcrt.a(crt_main_minrt.o)
                              /root/ti-tools/part2/msp430-gcc-6.2.1.16_linux64/bin/../lib/gcc/msp430-elf/6.2.1/../../../../msp430-elf/lib/large/crt0-minrt.o (__crt0_call_just_main)
/root/ti-tools/part2/msp430-gcc-6.2.1.16_linux64/bin/../lib/gcc/msp430-elf/6.2.1/../../../../msp430-elf/lib/large/libc.a(lib_a-memmove.o)
                              /root/ti-tools/part2/msp430-gcc-6.2.1.16_linux64/bin/../lib/gcc/msp430-elf/6.2.1/../../../../msp430-elf/lib/large/libcrt.a(crt_move_highdata.o) (memmove)

Discarded input sections

 .text          0x0000000000000000        0x0 /root/ti-tools/part2/msp430-gcc-6.2.1.16_linux64/bin/../lib/gcc/msp430-elf/6.2.1/../../../../msp430-elf/lib/large/crt0-minrt.o
 .data          0x0000000000000000        0x0 /root/ti-tools/part2/msp430-gcc-6.2.1.16_linux64/bin/../lib/gcc/msp430-elf/6.2.1/../../../../msp430-elf/lib/large/crt0-minrt.o
 .bss           0x0000000000000000        0x0 /root/ti-tools/part2/msp430-gcc-6.2.1.16_linux64/bin/../lib/gcc/msp430-elf/6.2.1/../../../../msp430-elf/lib/large/crt0-minrt.o
 .resetvec      0x0000000000000000        0x2 /root/ti-tools/part2/msp430-gcc-6.2.1.16_linux64/bin/../lib/gcc/msp430-elf/6.2.1/../../../../msp430-elf/lib/large/crt0-minrt.o
 .text          0x0000000000000000        0x0 build/obj/bootloader.o
 .data          0x0000000000000000        0x0 build/obj/bootloader.o
 .bss           0x0000000000000000        0x0 build/obj/bootloader.o
 .text          0x0000000000000000        0x0 build/obj/ch.o
 .data          0x0000000000000000        0x0 build/obj/ch.o
 .bss           0x0000000000000000        0x0 build/obj/ch.o
 .text.chSysUnconditionalLock
                0x0000000000000000        0xe build/obj/ch.o
 .text.chSysUnconditionalUnlock
                0x0000000000000000        0xc build/obj/ch.o
 .text.chThdSleepUntil
                0x0000000000000000       0x20 build/obj/ch.o
 .text.chSemSignal
                0x0000000000000000       0x20 build/obj/ch.o
 .text.chSemReset
                0x0000000000000000       0x28 build/obj/ch.o
 .text.chSemResetI
                0x0000000000000000       0x8a build/obj/ch.o
 .text          0x0000000000000000        0x0 build/obj/chmboxes.o
 .data          0x0000000000000000        0x0 build/obj/chmboxes.o
 .bss           0x0000000000000000        0x0 build/obj/chmboxes.o
 .text.chMBObjectInit
                0x0000000000000000       0x6e build/obj/chmboxes.o
 .text.chMBResetI
                0x0000000000000000       0x56 build/obj/chmboxes.o
 .text.chMBReset
                0x0000000000000000       0x18 build/obj/chmboxes.o
 .text.chMBPostAheadS
                0x0000000000000000       0x6c build/obj/chmboxes.o
 .text.chMBPostAhead
                0x0000000000000000       0x14 build/obj/chmboxes.o
 .text.chMBPostAheadI
                0x0000000000000000       0x64 build/obj/chmboxes.o
 .text.chMBFetchI
                0x0000000000000000       0x66 build/obj/chmboxes.o
 .text          0x0000000000000000        0x0 build/obj/chmemcore.o
 .data          0x0000000000000000        0x0 build/obj/chmemcore.o
 .text._core_init
                0x0000000000000000       0x12 build/obj/chmemcore.o
 .text.chCoreGetStatusX
                0x0000000000000000        0xc build/obj/chmemcore.o
 .text          0x0000000000000000        0x0 build/obj/chheap.o
 .data          0x0000000000000000        0x0 build/obj/chheap.o
 .text.chHeapObjectInit
                0x0000000000000000       0x98 build/obj/chheap.o
 .text.chHeapAllocAligned
                0x0000000000000000      0x2a4 build/obj/chheap.o
 .text.chHeapFree
                0x0000000000000000      0x188 build/obj/chheap.o
 .text.chHeapStatus
                0x0000000000000000       0x94 build/obj/chheap.o
 .upper.rodata  0x0000000000000000       0x2f build/obj/chheap.o
 .text          0x0000000000000000        0x0 build/obj/chmempools.o
 .data          0x0000000000000000        0x0 build/obj/chmempools.o
 .bss           0x0000000000000000        0x0 build/obj/chmempools.o
 .text.chPoolObjectInit
                0x0000000000000000       0x58 build/obj/chmempools.o
 .text.chPoolLoadArray
                0x0000000000000000       0x4a build/obj/chmempools.o
 .text.chGuardedPoolObjectInit
                0x0000000000000000       0x16 build/obj/chmempools.o
 .text.chGuardedPoolAllocTimeoutS
                0x0000000000000000       0x22 build/obj/chmempools.o
 .text.chGuardedPoolAllocTimeout
                0x0000000000000000       0x14 build/obj/chmempools.o
 .text.chGuardedPoolFreeI
                0x0000000000000000       0x16 build/obj/chmempools.o
 .text.chGuardedPoolFree
                0x0000000000000000       0x18 build/obj/chmempools.o
 .text.chGuardedPoolLoadArray
                0x0000000000000000       0x4a build/obj/chmempools.o
 .text          0x0000000000000000        0x0 build/obj/chcore.o
 .data          0x0000000000000000        0x0 build/obj/chcore.o
 .bss           0x0000000000000000        0x0 build/obj/chcore.o
 .text          0x0000000000000000        0x0 build/obj/osal.o
 .data          0x0000000000000000        0x0 build/obj/osal.o
 .bss           0x0000000000000000        0x0 build/obj/osal.o
 .text.osalThreadDequeueAllI
                0x0000000000000000       0x52 build/obj/osal.o
 .text          0x0000000000000000        0x0 build/obj/hal.o
 .data          0x0000000000000000        0x0 build/obj/hal.o
 .bss           0x0000000000000000        0x0 build/obj/hal.o
 .text          0x0000000000000000        0x0 build/obj/hal_st.o
 .data          0x0000000000000000        0x0 build/obj/hal_st.o
 .bss           0x0000000000000000        0x0 build/obj/hal_st.o
 .text.stStartAlarm
                0x0000000000000000       0x2e build/obj/hal_st.o
 .text.stStopAlarm
                0x0000000000000000        0xa build/obj/hal_st.o
 .text.stSetAlarm
                0x0000000000000000       0x20 build/obj/hal_st.o
 .text.stGetAlarm
                0x0000000000000000       0x1a build/obj/hal_st.o
 .upper.rodata  0x0000000000000000       0x23 build/obj/hal_st.o
 .text          0x0000000000000000        0x0 build/obj/hal_buffers.o
 .data          0x0000000000000000        0x0 build/obj/hal_buffers.o
 .bss           0x0000000000000000        0x0 build/obj/hal_buffers.o
 .text.port_lock
                0x0000000000000000        0x8 build/obj/hal_buffers.o
 .text.port_unlock
                0x0000000000000000        0xa build/obj/hal_buffers.o
 .text.ibqObjectInit
                0x0000000000000000       0xde build/obj/hal_buffers.o
 .text.ibqResetI
                0x0000000000000000       0x30 build/obj/hal_buffers.o
 .text.ibqGetEmptyBufferI
                0x0000000000000000       0x24 build/obj/hal_buffers.o
 .text.ibqPostFullBufferI
                0x0000000000000000       0xa0 build/obj/hal_buffers.o
 .text.ibqGetFullBufferTimeoutS
                0x0000000000000000       0x60 build/obj/hal_buffers.o
 .text.ibqGetFullBufferTimeout
                0x0000000000000000       0x2a build/obj/hal_buffers.o
 .text.ibqReleaseEmptyBufferS
                0x0000000000000000       0x7a build/obj/hal_buffers.o
 .text.ibqReleaseEmptyBuffer
                0x0000000000000000       0x1c build/obj/hal_buffers.o
 .text.ibqGetTimeout
                0x0000000000000000       0x64 build/obj/hal_buffers.o
 .text.ibqReadTimeout
                0x0000000000000000       0xde build/obj/hal_buffers.o
 .text.obqObjectInit
                0x0000000000000000       0xe8 build/obj/hal_buffers.o
 .text.obqResetI
                0x0000000000000000       0x42 build/obj/hal_buffers.o
 .text.obqGetFullBufferI
                0x0000000000000000       0x2a build/obj/hal_buffers.o
 .text.obqReleaseEmptyBufferI
                0x0000000000000000       0x7c build/obj/hal_buffers.o
 .text.obqGetEmptyBufferTimeoutS
                0x0000000000000000       0x62 build/obj/hal_buffers.o
 .text.obqGetEmptyBufferTimeout
                0x0000000000000000       0x2a build/obj/hal_buffers.o
 .text.obqPostFullBufferS
                0x0000000000000000       0x9e build/obj/hal_buffers.o
 .text.obqPostFullBuffer
                0x0000000000000000       0x24 build/obj/hal_buffers.o
 .text.obqPutTimeout
                0x0000000000000000       0x6c build/obj/hal_buffers.o
 .text.obqWriteTimeout
                0x0000000000000000       0xe6 build/obj/hal_buffers.o
 .text.obqTryFlushI
                0x0000000000000000       0x8c build/obj/hal_buffers.o
 .text.obqFlush
                0x0000000000000000       0x3a build/obj/hal_buffers.o
 .upper.rodata  0x0000000000000000       0xc2 build/obj/hal_buffers.o
 .text          0x0000000000000000        0x0 build/obj/hal_queues.o
 .data          0x0000000000000000        0x0 build/obj/hal_queues.o
 .bss           0x0000000000000000        0x0 build/obj/hal_queues.o
 .text.port_lock
                0x0000000000000000        0x8 build/obj/hal_queues.o
 .text.port_unlock
                0x0000000000000000        0xa build/obj/hal_queues.o
 .text.iqObjectInit
                0x0000000000000000       0x34 build/obj/hal_queues.o
 .text.iqResetI
                0x0000000000000000       0x24 build/obj/hal_queues.o
 .text.iqPutI   0x0000000000000000       0x7e build/obj/hal_queues.o
 .text.iqGetTimeout
                0x0000000000000000       0x9a build/obj/hal_queues.o
 .text.iqReadTimeout
                0x0000000000000000       0xf4 build/obj/hal_queues.o
 .text.oqObjectInit
                0x0000000000000000       0x52 build/obj/hal_queues.o
 .text.oqResetI
                0x0000000000000000       0x46 build/obj/hal_queues.o
 .text.oqPutTimeout
                0x0000000000000000       0x9e build/obj/hal_queues.o
 .text.oqGetI   0x0000000000000000       0x7c build/obj/hal_queues.o
 .text.oqWriteTimeout
                0x0000000000000000       0xf4 build/obj/hal_queues.o
 .upper.rodata  0x0000000000000000       0x1d build/obj/hal_queues.o
 .text          0x0000000000000000        0x0 build/obj/hal_mmcsd.o
 .data          0x0000000000000000        0x0 build/obj/hal_mmcsd.o
 .bss           0x0000000000000000        0x0 build/obj/hal_mmcsd.o
 .text          0x0000000000000000        0x0 build/obj/hal_gpt.o
 .data          0x0000000000000000        0x0 build/obj/hal_gpt.o
 .bss           0x0000000000000000        0x0 build/obj/hal_gpt.o
 .text.gptStop  0x0000000000000000       0x40 build/obj/hal_gpt.o
 .text.gptChangeInterval
                0x0000000000000000       0x2e build/obj/hal_gpt.o
 .text.gptStartContinuousI
                0x0000000000000000       0x34 build/obj/hal_gpt.o
 .text.gptStartContinuous
                0x0000000000000000       0x24 build/obj/hal_gpt.o
 .text.gptStartOneShot
                0x0000000000000000       0x24 build/obj/hal_gpt.o
 .text.gptStopTimer
                0x0000000000000000       0x1c build/obj/hal_gpt.o
 .text.gptPolledDelay
                0x0000000000000000       0x32 build/obj/hal_gpt.o
 .text          0x0000000000000000        0x0 build/obj/hal_i2c.o
 .data          0x0000000000000000        0x0 build/obj/hal_i2c.o
 .bss           0x0000000000000000        0x0 build/obj/hal_i2c.o
 .text.i2cStop  0x0000000000000000       0x4e build/obj/hal_i2c.o
 .text.i2cGetErrors
                0x0000000000000000       0x1a build/obj/hal_i2c.o
 .text.i2cMasterTransmitTimeout
                0x0000000000000000       0xa8 build/obj/hal_i2c.o
 .text.i2cMasterReceiveTimeout
                0x0000000000000000       0x84 build/obj/hal_i2c.o
 .text          0x0000000000000000        0x0 build/obj/hal_pal.o
 .data          0x0000000000000000        0x0 build/obj/hal_pal.o
 .bss           0x0000000000000000        0x0 build/obj/hal_pal.o
 .text.palReadBus
                0x0000000000000000       0x30 build/obj/hal_pal.o
 .text.palWriteBus
                0x0000000000000000       0x4a build/obj/hal_pal.o
 .text.palSetBusMode
                0x0000000000000000       0x38 build/obj/hal_pal.o
 .upper.rodata  0x0000000000000000       0x25 build/obj/hal_pal.o
 .text          0x0000000000000000        0x0 build/obj/hal_spi.o
 .data          0x0000000000000000        0x0 build/obj/hal_spi.o
 .bss           0x0000000000000000        0x0 build/obj/hal_spi.o
 .text.osalThreadSuspendS
                0x0000000000000000        0x8 build/obj/hal_spi.o
 .text.spiStop  0x0000000000000000       0x40 build/obj/hal_spi.o
 .text.spiSelect
                0x0000000000000000       0x32 build/obj/hal_spi.o
 .text.spiUnselect
                0x0000000000000000       0x32 build/obj/hal_spi.o
 .text.spiStartIgnore
                0x0000000000000000       0x46 build/obj/hal_spi.o
 .text.spiStartExchange
                0x0000000000000000       0x62 build/obj/hal_spi.o
 .text.spiStartReceive
                0x0000000000000000       0x54 build/obj/hal_spi.o
 .text.spiIgnore
                0x0000000000000000       0x64 build/obj/hal_spi.o
 .text.spiExchange
                0x0000000000000000       0x80 build/obj/hal_spi.o
 .text.spiSend  0x0000000000000000       0x72 build/obj/hal_spi.o
 .text.spiReceive
                0x0000000000000000       0x72 build/obj/hal_spi.o
 .text.spiAcquireBus
                0x0000000000000000       0x22 build/obj/hal_spi.o
 .text.spiReleaseBus
                0x0000000000000000       0x20 build/obj/hal_spi.o
 .text          0x0000000000000000        0x0 build/obj/hal_uart.o
 .data          0x0000000000000000        0x0 build/obj/hal_uart.o
 .bss           0x0000000000000000        0x0 build/obj/hal_uart.o
 .text.uartStop
                0x0000000000000000       0x48 build/obj/hal_uart.o
 .text.uartStartSend
                0x0000000000000000       0x60 build/obj/hal_uart.o
 .text.uartStopSend
                0x0000000000000000       0x50 build/obj/hal_uart.o
 .text.uartStopSendI
                0x0000000000000000       0x3a build/obj/hal_uart.o
 .text.uartStartReceive
                0x0000000000000000       0x60 build/obj/hal_uart.o
 .text.uartStopReceive
                0x0000000000000000       0x50 build/obj/hal_uart.o
 .text.uartSendTimeout
                0x0000000000000000       0x84 build/obj/hal_uart.o
 .text.uartSendFullTimeout
                0x0000000000000000       0x84 build/obj/hal_uart.o
 .text.uartReceiveTimeout
                0x0000000000000000       0x80 build/obj/hal_uart.o
 .text          0x0000000000000000        0x0 build/obj/hal_lld.o
 .data          0x0000000000000000        0x0 build/obj/hal_lld.o
 .bss           0x0000000000000000        0x0 build/obj/hal_lld.o
 .text          0x0000000000000000        0x0 build/obj/hal_st_lld.o
 .data          0x0000000000000000        0x0 build/obj/hal_st_lld.o
 .bss           0x0000000000000000        0x0 build/obj/hal_st_lld.o
 .text          0x0000000000000000        0x0 build/obj/hal_serial_lld.o
 .data          0x0000000000000000        0x0 build/obj/hal_serial_lld.o
 .bss           0x0000000000000000        0x0 build/obj/hal_serial_lld.o
 .text          0x0000000000000000        0x0 build/obj/hal_pal_lld.o
 .data          0x0000000000000000        0x0 build/obj/hal_pal_lld.o
 .bss           0x0000000000000000        0x0 build/obj/hal_pal_lld.o
 .text          0x0000000000000000        0x0 build/obj/hal_dma_lld.o
 .data          0x0000000000000000        0x0 build/obj/hal_dma_lld.o
 .text.dmaAcquireTimeoutS
                0x0000000000000000       0x2e build/obj/hal_dma_lld.o
 .text.dmaTransfer
                0x0000000000000000       0x14 build/obj/hal_dma_lld.o
 .text          0x0000000000000000        0x0 build/obj/hal_spi_lld.o
 .data          0x0000000000000000        0x0 build/obj/hal_spi_lld.o
 .text.spi_lld_stop
                0x0000000000000000       0x10 build/obj/hal_spi_lld.o
 .text.spi_lld_ignore
                0x0000000000000000       0x26 build/obj/hal_spi_lld.o
 .text.spi_lld_exchange
                0x0000000000000000       0x28 build/obj/hal_spi_lld.o
 .text.spi_lld_receive
                0x0000000000000000       0x2a build/obj/hal_spi_lld.o
 .text          0x0000000000000000        0x0 build/obj/hal_i2c_lld.o
 .data          0x0000000000000000        0x0 build/obj/hal_i2c_lld.o
 .bss           0x0000000000000000        0x0 build/obj/hal_i2c_lld.o
 .text.rx_complete
                0x0000000000000000        0xe build/obj/hal_i2c_lld.o
 .text.i2c_lld_stop
                0x0000000000000000       0x40 build/obj/hal_i2c_lld.o
 .text.i2cMSP430XStartTransmitI
                0x0000000000000000       0xb6 build/obj/hal_i2c_lld.o
 .text.i2cMSP430XContinueTransmitMSBI
                0x0000000000000000       0xb2 build/obj/hal_i2c_lld.o
 .text.i2c_lld_master_receive_timeout
                0x0000000000000000       0xe0 build/obj/hal_i2c_lld.o
 .text.i2c_lld_master_transmit_timeout
                0x0000000000000000      0x176 build/obj/hal_i2c_lld.o
 .text          0x0000000000000000        0x0 build/obj/hal_uart_lld.o
 .data          0x0000000000000000        0x0 build/obj/hal_uart_lld.o
 .bss           0x0000000000000000        0x0 build/obj/hal_uart_lld.o
 .text.uart_lld_stop
                0x0000000000000000       0x2c build/obj/hal_uart_lld.o
 .text.uart_lld_stop_send
                0x0000000000000000       0x4e build/obj/hal_uart_lld.o
 .text          0x0000000000000000        0x0 build/obj/hal_gpt_lld.o
 .data          0x0000000000000000        0x0 build/obj/hal_gpt_lld.o
 .bss           0x0000000000000000        0x0 build/obj/hal_gpt_lld.o
 .text.gpt_lld_stop
                0x0000000000000000       0x14 build/obj/hal_gpt_lld.o
 .text.gpt_lld_polled_delay
                0x0000000000000000       0x1e build/obj/hal_gpt_lld.o
 .text          0x0000000000000000        0x0 build/obj/hal_adc_lld.o
 .data          0x0000000000000000        0x0 build/obj/hal_adc_lld.o
 .bss           0x0000000000000000        0x0 build/obj/hal_adc_lld.o
 .text          0x0000000000000000        0x0 build/obj/board.o
 .data          0x0000000000000000        0x0 build/obj/board.o
 .bss           0x0000000000000000        0x0 build/obj/board.o
 .text          0x0000000000000000        0x0 build/obj/sx1278.o
 .data          0x0000000000000000        0x0 build/obj/sx1278.o
 .bss           0x0000000000000000        0x8 build/obj/sx1278.o
 .text.blocking_callback
                0x0000000000000000        0xc build/obj/sx1278.o
 .text.sx1278ReadRegister
                0x0000000000000000       0x9a build/obj/sx1278.o
 .text.sx1278BlockTimeout
                0x0000000000000000      0x1b0 build/obj/sx1278.o
 .text.sx1278SetFilterParams
                0x0000000000000000       0x26 build/obj/sx1278.o
 .text.sx1278Stop
                0x0000000000000000       0x30 build/obj/sx1278.o
 .text.sx1278Sleep
                0x0000000000000000       0x10 build/obj/sx1278.o
 .text.sx1278Send
                0x0000000000000000      0x23e build/obj/sx1278.o
 .text          0x0000000000000000        0x0 build/obj/sx1212.o
 .data          0x0000000000000000        0x0 build/obj/sx1212.o
 .text.spi_end_cb
                0x0000000000000000       0x1a build/obj/sx1212.o
 .text.spi_mode_data
                0x0000000000000000       0x1c build/obj/sx1212.o
 .text.fifo_read_safe
                0x0000000000000000       0x3a build/obj/sx1212.o
 .text.sx122ObjectInit
                0x0000000000000000        0x2 build/obj/sx1212.o
 .text.sx1212Stop
                0x0000000000000000       0x2e build/obj/sx1212.o
 .text.sx1212FifoReadAsync
                0x0000000000000000       0x42 build/obj/sx1212.o
 .text.sx1212StopReceiveI
                0x0000000000000000        0x6 build/obj/sx1212.o
 .text.sx1212ReceiveTimeout
                0x0000000000000000      0x1e0 build/obj/sx1212.o
 .text.sx1212RSSI
                0x0000000000000000       0x16 build/obj/sx1212.o
 .text.sx1212CLKOUT
                0x0000000000000000       0x14 build/obj/sx1212.o
 .text.sx1212TUNE
                0x0000000000000000        0xa build/obj/sx1212.o
 .text          0x0000000000000000        0x0 build/obj/uart.o
 .data          0x0000000000000000        0x0 build/obj/uart.o
 .text.elyUARTCfgMarkDirtyI
                0x0000000000000000       0x20 build/obj/uart.o
 .text.elyUARTRxBufReadyI
                0x0000000000000000        0xe build/obj/uart.o
 .text          0x0000000000000000        0x0 build/obj/main.o
 .data          0x0000000000000000        0x0 build/obj/main.o
 .bss           0x0000000000000000        0x0 build/obj/main.o
 .text.elyFWGetBufferTimeoutS
                0x0000000000000000       0x3a build/obj/main.o
 .upper.rodata  0x0000000000000000       0x17 build/obj/main.o
 .text          0x0000000000000000        0x0 build/obj/mych.o
 .data          0x0000000000000000        0x0 build/obj/mych.o
 .bss           0x0000000000000000        0x0 build/obj/mych.o
 .text.chEvtWaitAnyTimeoutS
                0x0000000000000000       0x54 build/obj/mych.o
 .text          0x0000000000000000        0x0 build/obj/cmds.o
 .data          0x0000000000000000        0x0 build/obj/cmds.o
 .text.elyMainMBPostS
                0x0000000000000000        0xe build/obj/cmds.o
 .text.elyMainMBPostI
                0x0000000000000000        0xc build/obj/cmds.o
 .text          0x0000000000000000        0x0 build/obj/registers.o
 .data          0x0000000000000000        0x0 build/obj/registers.o
 .text          0x0000000000000000        0x0 build/obj/errors_stub.o
 .data          0x0000000000000000        0x0 build/obj/errors_stub.o
 .bss           0x0000000000000000        0x0 build/obj/errors_stub.o
 .text.elyErrorSignalI
                0x0000000000000000        0x2 build/obj/errors_stub.o
 .text          0x0000000000000000        0x0 build/obj/events_stub.o
 .data          0x0000000000000000        0x0 build/obj/events_stub.o
 .bss           0x0000000000000000        0x0 build/obj/events_stub.o
 .text.elyEventSignalI
                0x0000000000000000        0x2 build/obj/events_stub.o
 .text          0x0000000000000000        0x0 build/obj/channels_stub.o
 .data          0x0000000000000000        0x0 build/obj/channels_stub.o
 .bss           0x0000000000000000        0x0 build/obj/channels_stub.o
 .text          0x0000000000000000        0x0 build/obj/telem_stub.o
 .data          0x0000000000000000        0x0 build/obj/telem_stub.o
 .bss           0x0000000000000000        0x0 build/obj/telem_stub.o
 .text          0x0000000000000000        0x0 build/obj/slip_uart_dll.o
 .data          0x0000000000000000        0x0 build/obj/slip_uart_dll.o
 .text          0x0000000000000000        0x0 build/obj/crc_x25.o
 .data          0x0000000000000000        0x0 build/obj/crc_x25.o
 .text          0x0000000000000000        0x0 build/obj/crc_sdlp.o
 .data          0x0000000000000000        0x0 build/obj/crc_sdlp.o
 .bss           0x0000000000000000        0x0 build/obj/crc_sdlp.o
 .text.crcCheckSDLP
                0x0000000000000000       0x5e build/obj/crc_sdlp.o
 .text          0x0000000000000000        0x0 build/obj/sdlp.o
 .data          0x0000000000000000        0x0 build/obj/sdlp.o
 .text.packet_callback
                0x0000000000000000       0x7a build/obj/sdlp.o
 .text.header_callback
                0x0000000000000000       0x7e build/obj/sdlp.o
 .text          0x0000000000000000        0x0 build/obj/fram.o
 .data          0x0000000000000000        0x0 build/obj/fram.o
 .text.elyFramGetRequestI
                0x0000000000000000       0x44 build/obj/fram.o
 .text          0x0000000000000000        0x0 build/obj/rf.o
 .data          0x0000000000000000        0x0 build/obj/rf.o
 .text.elyRFCfgMarkDirtyI
                0x0000000000000000       0x36 build/obj/rf.o
 .text.elyRFChangeTxSyncS
                0x0000000000000000       0x48 build/obj/rf.o
 .text.rfic_pow_to_reg
                0x0000000000000000       0x1c build/obj/rf.o
 .text.elyRFChangeTxFilterParamsS
                0x0000000000000000       0x1c build/obj/rf.o
 .text          0x0000000000000000        0x0 build/obj/spp.o
 .data          0x0000000000000000        0x0 build/obj/spp.o
 .text.rf_pass_i
                0x0000000000000000        0x6 build/obj/spp.o
 .text.fw_i     0x0000000000000000        0x6 build/obj/spp.o
 .text.uart_pass_i
                0x0000000000000000        0x6 build/obj/spp.o
 .text.elyNLChangeMaxLengthS
                0x0000000000000000       0x74 build/obj/spp.o
 .text.elyNLRouteRFI
                0x0000000000000000       0x12 build/obj/spp.o
 .text.elyNLGetPayloadLength
                0x0000000000000000       0x1e build/obj/spp.o
 .text          0x0000000000000000        0x0 build/obj/msp_vectors.o
 .data          0x0000000000000000        0x0 build/obj/msp_vectors.o
 .bss           0x0000000000000000        0x0 build/obj/msp_vectors.o
 .text          0x0000000000000000        0x0 build/obj/init.o
 .data          0x0000000000000000        0x0 build/obj/init.o
 .bss           0x0000000000000000        0x0 build/obj/init.o
 .text          0x0000000000000000        0x4 /root/ti-tools/part2/msp430-gcc-6.2.1.16_linux64/bin/../lib/gcc/msp430-elf/6.2.1/large/libgcc.a(lib2divSI.o)
 .data          0x0000000000000000        0x0 /root/ti-tools/part2/msp430-gcc-6.2.1.16_linux64/bin/../lib/gcc/msp430-elf/6.2.1/large/libgcc.a(lib2divSI.o)
 .bss           0x0000000000000000        0x0 /root/ti-tools/part2/msp430-gcc-6.2.1.16_linux64/bin/../lib/gcc/msp430-elf/6.2.1/large/libgcc.a(lib2divSI.o)
 .text.__divsi3
                0x0000000000000000       0x8c /root/ti-tools/part2/msp430-gcc-6.2.1.16_linux64/bin/../lib/gcc/msp430-elf/6.2.1/large/libgcc.a(lib2divSI.o)
 .text.__modsi3
                0x0000000000000000       0x68 /root/ti-tools/part2/msp430-gcc-6.2.1.16_linux64/bin/../lib/gcc/msp430-elf/6.2.1/large/libgcc.a(lib2divSI.o)
 .text.__umodsi3
                0x0000000000000000       0x12 /root/ti-tools/part2/msp430-gcc-6.2.1.16_linux64/bin/../lib/gcc/msp430-elf/6.2.1/large/libgcc.a(lib2divSI.o)
 .data          0x0000000000000000        0x0 /root/ti-tools/part2/msp430-gcc-6.2.1.16_linux64/bin/../lib/gcc/msp430-elf/6.2.1/large/libgcc.a(slli.o)
 .bss           0x0000000000000000        0x0 /root/ti-tools/part2/msp430-gcc-6.2.1.16_linux64/bin/../lib/gcc/msp430-elf/6.2.1/large/libgcc.a(slli.o)
 .data          0x0000000000000000        0x0 /root/ti-tools/part2/msp430-gcc-6.2.1.16_linux64/bin/../lib/gcc/msp430-elf/6.2.1/large/libgcc.a(srai.o)
 .bss           0x0000000000000000        0x0 /root/ti-tools/part2/msp430-gcc-6.2.1.16_linux64/bin/../lib/gcc/msp430-elf/6.2.1/large/libgcc.a(srai.o)
 .data          0x0000000000000000        0x0 /root/ti-tools/part2/msp430-gcc-6.2.1.16_linux64/bin/../lib/gcc/msp430-elf/6.2.1/large/libgcc.a(srli.o)
 .bss           0x0000000000000000        0x0 /root/ti-tools/part2/msp430-gcc-6.2.1.16_linux64/bin/../lib/gcc/msp430-elf/6.2.1/large/libgcc.a(srli.o)
 .data          0x0000000000000000        0x0 /root/ti-tools/part2/msp430-gcc-6.2.1.16_linux64/bin/../lib/gcc/msp430-elf/6.2.1/large/libgcc.a(cmpsi2.o)
 .bss           0x0000000000000000        0x0 /root/ti-tools/part2/msp430-gcc-6.2.1.16_linux64/bin/../lib/gcc/msp430-elf/6.2.1/large/libgcc.a(cmpsi2.o)
 .text          0x0000000000000000        0x0 /root/ti-tools/part2/msp430-gcc-6.2.1.16_linux64/bin/../lib/gcc/msp430-elf/6.2.1/large/libgcc.a(_udivdi3.o)
 .data          0x0000000000000000        0x0 /root/ti-tools/part2/msp430-gcc-6.2.1.16_linux64/bin/../lib/gcc/msp430-elf/6.2.1/large/libgcc.a(_udivdi3.o)
 .bss           0x0000000000000000        0x0 /root/ti-tools/part2/msp430-gcc-6.2.1.16_linux64/bin/../lib/gcc/msp430-elf/6.2.1/large/libgcc.a(_udivdi3.o)
 .text.__udivdi3
                0x0000000000000000      0x3fe /root/ti-tools/part2/msp430-gcc-6.2.1.16_linux64/bin/../lib/gcc/msp430-elf/6.2.1/large/libgcc.a(_udivdi3.o)
 .text          0x0000000000000000        0x0 /root/ti-tools/part2/msp430-gcc-6.2.1.16_linux64/bin/../lib/gcc/msp430-elf/6.2.1/large/libgcc.a(_lshrdi3.o)
 .data          0x0000000000000000        0x0 /root/ti-tools/part2/msp430-gcc-6.2.1.16_linux64/bin/../lib/gcc/msp430-elf/6.2.1/large/libgcc.a(_lshrdi3.o)
 .bss           0x0000000000000000        0x0 /root/ti-tools/part2/msp430-gcc-6.2.1.16_linux64/bin/../lib/gcc/msp430-elf/6.2.1/large/libgcc.a(_lshrdi3.o)
 .text.__lshrdi3
                0x0000000000000000       0x92 /root/ti-tools/part2/msp430-gcc-6.2.1.16_linux64/bin/../lib/gcc/msp430-elf/6.2.1/large/libgcc.a(_lshrdi3.o)
 .text          0x0000000000000000        0x0 /root/ti-tools/part2/msp430-gcc-6.2.1.16_linux64/bin/../lib/gcc/msp430-elf/6.2.1/large/libgcc.a(_ashldi3.o)
 .data          0x0000000000000000        0x0 /root/ti-tools/part2/msp430-gcc-6.2.1.16_linux64/bin/../lib/gcc/msp430-elf/6.2.1/large/libgcc.a(_ashldi3.o)
 .bss           0x0000000000000000        0x0 /root/ti-tools/part2/msp430-gcc-6.2.1.16_linux64/bin/../lib/gcc/msp430-elf/6.2.1/large/libgcc.a(_ashldi3.o)
 .text.__ashldi3
                0x0000000000000000       0x9a /root/ti-tools/part2/msp430-gcc-6.2.1.16_linux64/bin/../lib/gcc/msp430-elf/6.2.1/large/libgcc.a(_ashldi3.o)
 .text          0x0000000000000000        0x0 /root/ti-tools/part2/msp430-gcc-6.2.1.16_linux64/bin/../lib/gcc/msp430-elf/6.2.1/large/libgcc.a(_clzdi2.o)
 .data          0x0000000000000000        0x0 /root/ti-tools/part2/msp430-gcc-6.2.1.16_linux64/bin/../lib/gcc/msp430-elf/6.2.1/large/libgcc.a(_clzdi2.o)
 .bss           0x0000000000000000        0x0 /root/ti-tools/part2/msp430-gcc-6.2.1.16_linux64/bin/../lib/gcc/msp430-elf/6.2.1/large/libgcc.a(_clzdi2.o)
 .text.__clzdi2
                0x0000000000000000       0x6a /root/ti-tools/part2/msp430-gcc-6.2.1.16_linux64/bin/../lib/gcc/msp430-elf/6.2.1/large/libgcc.a(_clzdi2.o)
 .text          0x0000000000000000        0x0 /root/ti-tools/part2/msp430-gcc-6.2.1.16_linux64/bin/../lib/gcc/msp430-elf/6.2.1/large/libgcc.a(_clz.o)
 .data          0x0000000000000000        0x0 /root/ti-tools/part2/msp430-gcc-6.2.1.16_linux64/bin/../lib/gcc/msp430-elf/6.2.1/large/libgcc.a(_clz.o)
 .bss           0x0000000000000000        0x0 /root/ti-tools/part2/msp430-gcc-6.2.1.16_linux64/bin/../lib/gcc/msp430-elf/6.2.1/large/libgcc.a(_clz.o)
 .rodata.__clz_tab
                0x0000000000000000      0x100 /root/ti-tools/part2/msp430-gcc-6.2.1.16_linux64/bin/../lib/gcc/msp430-elf/6.2.1/large/libgcc.a(_clz.o)
 .text          0x0000000000000000        0x0 /root/ti-tools/part2/msp430-gcc-6.2.1.16_linux64/bin/../lib/gcc/msp430-elf/6.2.1/large/libmul_f5.a(lib2hw_mul_f5.o)
 .data          0x0000000000000000        0x0 /root/ti-tools/part2/msp430-gcc-6.2.1.16_linux64/bin/../lib/gcc/msp430-elf/6.2.1/large/libmul_f5.a(lib2hw_mul_f5.o)
 .bss           0x0000000000000000        0x0 /root/ti-tools/part2/msp430-gcc-6.2.1.16_linux64/bin/../lib/gcc/msp430-elf/6.2.1/large/libmul_f5.a(lib2hw_mul_f5.o)
 .text.__mulhi2_f5
                0x0000000000000000       0x16 /root/ti-tools/part2/msp430-gcc-6.2.1.16_linux64/bin/../lib/gcc/msp430-elf/6.2.1/large/libmul_f5.a(lib2hw_mul_f5.o)
 .text.__mulsihi2
                0x0000000000000000       0x1a /root/ti-tools/part2/msp430-gcc-6.2.1.16_linux64/bin/../lib/gcc/msp430-elf/6.2.1/large/libmul_f5.a(lib2hw_mul_f5.o)
 .text.__umulsihi2
                0x0000000000000000       0x1a /root/ti-tools/part2/msp430-gcc-6.2.1.16_linux64/bin/../lib/gcc/msp430-elf/6.2.1/large/libmul_f5.a(lib2hw_mul_f5.o)
 .text.__muldisi2
                0x0000000000000000       0x2a /root/ti-tools/part2/msp430-gcc-6.2.1.16_linux64/bin/../lib/gcc/msp430-elf/6.2.1/large/libmul_f5.a(lib2hw_mul_f5.o)
 .text.__umuldisi2
                0x0000000000000000       0x2a /root/ti-tools/part2/msp430-gcc-6.2.1.16_linux64/bin/../lib/gcc/msp430-elf/6.2.1/large/libmul_f5.a(lib2hw_mul_f5.o)
 .text.__muldi3
                0x0000000000000000        0x4 /root/ti-tools/part2/msp430-gcc-6.2.1.16_linux64/bin/../lib/gcc/msp430-elf/6.2.1/large/libmul_f5.a(lib2hw_mul_f5.o)
 .text          0x0000000000000000        0x0 /root/ti-tools/part2/msp430-gcc-6.2.1.16_linux64/bin/../lib/gcc/msp430-elf/6.2.1/../../../../msp430-elf/lib/large/libc.a(lib_a-memcpy.o)
 .data          0x0000000000000000        0x0 /root/ti-tools/part2/msp430-gcc-6.2.1.16_linux64/bin/../lib/gcc/msp430-elf/6.2.1/../../../../msp430-elf/lib/large/libc.a(lib_a-memcpy.o)
 .bss           0x0000000000000000        0x0 /root/ti-tools/part2/msp430-gcc-6.2.1.16_linux64/bin/../lib/gcc/msp430-elf/6.2.1/../../../../msp430-elf/lib/large/libc.a(lib_a-memcpy.o)
 .text          0x0000000000000000        0x0 /root/ti-tools/part2/msp430-gcc-6.2.1.16_linux64/bin/../lib/gcc/msp430-elf/6.2.1/../../../../msp430-elf/lib/large/libc.a(lib_a-memset.o)
 .data          0x0000000000000000        0x0 /root/ti-tools/part2/msp430-gcc-6.2.1.16_linux64/bin/../lib/gcc/msp430-elf/6.2.1/../../../../msp430-elf/lib/large/libc.a(lib_a-memset.o)
 .bss           0x0000000000000000        0x0 /root/ti-tools/part2/msp430-gcc-6.2.1.16_linux64/bin/../lib/gcc/msp430-elf/6.2.1/../../../../msp430-elf/lib/large/libc.a(lib_a-memset.o)
 .text          0x0000000000000000        0x0 /root/ti-tools/part2/msp430-gcc-6.2.1.16_linux64/bin/../lib/gcc/msp430-elf/6.2.1/large/libgcc.a(_muldi3.o)
 .data          0x0000000000000000        0x0 /root/ti-tools/part2/msp430-gcc-6.2.1.16_linux64/bin/../lib/gcc/msp430-elf/6.2.1/large/libgcc.a(_muldi3.o)
 .bss           0x0000000000000000        0x0 /root/ti-tools/part2/msp430-gcc-6.2.1.16_linux64/bin/../lib/gcc/msp430-elf/6.2.1/large/libgcc.a(_muldi3.o)
 .text.__muldi3
                0x0000000000000000      0x142 /root/ti-tools/part2/msp430-gcc-6.2.1.16_linux64/bin/../lib/gcc/msp430-elf/6.2.1/large/libgcc.a(_muldi3.o)
 .text          0x0000000000000000        0x0 /root/ti-tools/part2/msp430-gcc-6.2.1.16_linux64/bin/../lib/gcc/msp430-elf/6.2.1/../../../../msp430-elf/lib/large/libcrt.a(crt_bss.o)
 .data          0x0000000000000000        0x0 /root/ti-tools/part2/msp430-gcc-6.2.1.16_linux64/bin/../lib/gcc/msp430-elf/6.2.1/../../../../msp430-elf/lib/large/libcrt.a(crt_bss.o)
 .bss           0x0000000000000000        0x0 /root/ti-tools/part2/msp430-gcc-6.2.1.16_linux64/bin/../lib/gcc/msp430-elf/6.2.1/../../../../msp430-elf/lib/large/libcrt.a(crt_bss.o)
 .text          0x0000000000000000        0x0 /root/ti-tools/part2/msp430-gcc-6.2.1.16_linux64/bin/../lib/gcc/msp430-elf/6.2.1/../../../../msp430-elf/lib/large/libcrt.a(crt_high_bss.o)
 .data          0x0000000000000000        0x0 /root/ti-tools/part2/msp430-gcc-6.2.1.16_linux64/bin/../lib/gcc/msp430-elf/6.2.1/../../../../msp430-elf/lib/large/libcrt.a(crt_high_bss.o)
 .bss           0x0000000000000000        0x0 /root/ti-tools/part2/msp430-gcc-6.2.1.16_linux64/bin/../lib/gcc/msp430-elf/6.2.1/../../../../msp430-elf/lib/large/libcrt.a(crt_high_bss.o)
 .text          0x0000000000000000        0x0 /root/ti-tools/part2/msp430-gcc-6.2.1.16_linux64/bin/../lib/gcc/msp430-elf/6.2.1/../../../../msp430-elf/lib/large/libcrt.a(crt_move_highdata.o)
 .data          0x0000000000000000        0x0 /root/ti-tools/part2/msp430-gcc-6.2.1.16_linux64/bin/../lib/gcc/msp430-elf/6.2.1/../../../../msp430-elf/lib/large/libcrt.a(crt_move_highdata.o)
 .bss           0x0000000000000000        0x0 /root/ti-tools/part2/msp430-gcc-6.2.1.16_linux64/bin/../lib/gcc/msp430-elf/6.2.1/../../../../msp430-elf/lib/large/libcrt.a(crt_move_highdata.o)
 .text          0x0000000000000000        0x0 /root/ti-tools/part2/msp430-gcc-6.2.1.16_linux64/bin/../lib/gcc/msp430-elf/6.2.1/../../../../msp430-elf/lib/large/libcrt.a(crt_main_minrt.o)
 .data          0x0000000000000000        0x0 /root/ti-tools/part2/msp430-gcc-6.2.1.16_linux64/bin/../lib/gcc/msp430-elf/6.2.1/../../../../msp430-elf/lib/large/libcrt.a(crt_main_minrt.o)
 .bss           0x0000000000000000        0x0 /root/ti-tools/part2/msp430-gcc-6.2.1.16_linux64/bin/../lib/gcc/msp430-elf/6.2.1/../../../../msp430-elf/lib/large/libcrt.a(crt_main_minrt.o)
 .text          0x0000000000000000        0x0 /root/ti-tools/part2/msp430-gcc-6.2.1.16_linux64/bin/../lib/gcc/msp430-elf/6.2.1/../../../../msp430-elf/lib/large/libc.a(lib_a-memmove.o)
 .data          0x0000000000000000        0x0 /root/ti-tools/part2/msp430-gcc-6.2.1.16_linux64/bin/../lib/gcc/msp430-elf/6.2.1/../../../../msp430-elf/lib/large/libc.a(lib_a-memmove.o)
 .bss           0x0000000000000000        0x0 /root/ti-tools/part2/msp430-gcc-6.2.1.16_linux64/bin/../lib/gcc/msp430-elf/6.2.1/../../../../msp430-elf/lib/large/libc.a(lib_a-memmove.o)
 .text          0x0000000000000000        0x0 /root/ti-tools/part2/msp430-gcc-6.2.1.16_linux64/bin/../lib/gcc/msp430-elf/6.2.1/../../../../msp430-elf/lib/large/crtn-minrt.o
 .data          0x0000000000000000        0x0 /root/ti-tools/part2/msp430-gcc-6.2.1.16_linux64/bin/../lib/gcc/msp430-elf/6.2.1/../../../../msp430-elf/lib/large/crtn-minrt.o
 .bss           0x0000000000000000        0x0 /root/ti-tools/part2/msp430-gcc-6.2.1.16_linux64/bin/../lib/gcc/msp430-elf/6.2.1/../../../../msp430-elf/lib/large/crtn-minrt.o

Memory Configuration

Name             Origin             Length             Attributes
SFR              0x0000000000000000 0x0000000000000010
BSL              0x0000000000001000 0x0000000000000800
PERIPHERAL_8BIT  0x0000000000000010 0x00000000000000f0
PERIPHERAL_16BIT 0x0000000000000100 0x0000000000000100
RAM              0x0000000000001c00 0x0000000000000800
INFOMEM          0x0000000000001800 0x0000000000000200
INFOA            0x0000000000001980 0x0000000000000080
INFOB            0x0000000000001900 0x0000000000000080
INFOC            0x0000000000001880 0x0000000000000080
INFOD            0x0000000000001800 0x0000000000000080
FRAM             0x0000000000004400 0x000000000000bb80 xrw
JTAGSIGNATURE    0x000000000000ff80 0x0000000000000004
BSLSIGNATURE     0x000000000000ff84 0x0000000000000004
IPESIGNATURE     0x000000000000ff88 0x0000000000000008
VECT1            0x000000000000ff90 0x0000000000000002
VECT2            0x000000000000ff92 0x0000000000000002
VECT3            0x000000000000ff94 0x0000000000000002
VECT4            0x000000000000ff96 0x0000000000000002
VECT5            0x000000000000ff98 0x0000000000000002
VECT6            0x000000000000ff9a 0x0000000000000002
VECT7            0x000000000000ff9c 0x0000000000000002
VECT8            0x000000000000ff9e 0x0000000000000002
VECT9            0x000000000000ffa0 0x0000000000000002
VECT10           0x000000000000ffa2 0x0000000000000002
VECT11           0x000000000000ffa4 0x0000000000000002
VECT12           0x000000000000ffa6 0x0000000000000002
VECT13           0x000000000000ffa8 0x0000000000000002
VECT14           0x000000000000ffaa 0x0000000000000002
VECT15           0x000000000000ffac 0x0000000000000002
VECT16           0x000000000000ffae 0x0000000000000002
VECT17           0x000000000000ffb0 0x0000000000000002
VECT18           0x000000000000ffb2 0x0000000000000002
VECT19           0x000000000000ffb4 0x0000000000000002
VECT20           0x000000000000ffb6 0x0000000000000002
VECT21           0x000000000000ffb8 0x0000000000000002
VECT22           0x000000000000ffba 0x0000000000000002
VECT23           0x000000000000ffbc 0x0000000000000002
VECT24           0x000000000000ffbe 0x0000000000000002
VECT25           0x000000000000ffc0 0x0000000000000002
VECT26           0x000000000000ffc2 0x0000000000000002
VECT27           0x000000000000ffc4 0x0000000000000002
VECT28           0x000000000000ffc6 0x0000000000000002
VECT29           0x000000000000ffc8 0x0000000000000002
VECT30           0x000000000000ffca 0x0000000000000002
VECT31           0x000000000000ffcc 0x0000000000000002
VECT32           0x000000000000ffce 0x0000000000000002
VECT33           0x000000000000ffd0 0x0000000000000002
VECT34           0x000000000000ffd2 0x0000000000000002
VECT35           0x000000000000ffd4 0x0000000000000002
VECT36           0x000000000000ffd6 0x0000000000000002
VECT37           0x000000000000ffd8 0x0000000000000002
VECT38           0x000000000000ffda 0x0000000000000002
VECT39           0x000000000000ffdc 0x0000000000000002
VECT40           0x000000000000ffde 0x0000000000000002
VECT41           0x000000000000ffe0 0x0000000000000002
VECT42           0x000000000000ffe2 0x0000000000000002
VECT43           0x000000000000ffe4 0x0000000000000002
VECT44           0x000000000000ffe6 0x0000000000000002
VECT45           0x000000000000ffe8 0x0000000000000002
VECT46           0x000000000000ffea 0x0000000000000002
VECT47           0x000000000000ffec 0x0000000000000002
VECT48           0x000000000000ffee 0x0000000000000002
VECT49           0x000000000000fff0 0x0000000000000002
VECT50           0x000000000000fff2 0x0000000000000002
VECT51           0x000000000000fff4 0x0000000000000002
VECT52           0x000000000000fff6 0x0000000000000002
VECT53           0x000000000000fff8 0x0000000000000002
VECT54           0x000000000000fffa 0x0000000000000002
VECT55           0x000000000000fffc 0x0000000000000002
RESETVEC         0x000000000000fffe 0x0000000000000002
HIFRAM           0x0000000000010000 0x0000000000003fff xrw
*default*        0x0000000000000000 0xffffffffffffffff

Linker script and memory map

LOAD /root/ti-tools/part2/msp430-gcc-6.2.1.16_linux64/bin/../lib/gcc/msp430-elf/6.2.1/../../../../msp430-elf/lib/large/crt0-minrt.o

.jtagsignature

.bslsignature

.ipe
 *(.ipesignature)
 *(.jtagpassword)

__interrupt_vector_1
                0x000000000000ff90        0x2
 *(__interrupt_vector_1)
 __interrupt_vector_1
                0x000000000000ff90        0x2 build/obj/msp_vectors.o

__interrupt_vector_2
                0x000000000000ff92        0x2
 *(__interrupt_vector_2)
 __interrupt_vector_2
                0x000000000000ff92        0x2 build/obj/msp_vectors.o

__interrupt_vector_3
                0x000000000000ff94        0x2
 *(__interrupt_vector_3)
 __interrupt_vector_3
                0x000000000000ff94        0x2 build/obj/msp_vectors.o

__interrupt_vector_4
                0x000000000000ff96        0x2
 *(__interrupt_vector_4)
 __interrupt_vector_4
                0x000000000000ff96        0x2 build/obj/msp_vectors.o

__interrupt_vector_5
                0x000000000000ff98        0x2
 *(__interrupt_vector_5)
 __interrupt_vector_5
                0x000000000000ff98        0x2 build/obj/msp_vectors.o

__interrupt_vector_6
                0x000000000000ff9a        0x2
 *(__interrupt_vector_6)
 __interrupt_vector_6
                0x000000000000ff9a        0x2 build/obj/msp_vectors.o

__interrupt_vector_7
                0x000000000000ff9c        0x2
 *(__interrupt_vector_7)
 __interrupt_vector_7
                0x000000000000ff9c        0x2 build/obj/msp_vectors.o

__interrupt_vector_8
                0x000000000000ff9e        0x2
 *(__interrupt_vector_8)
 __interrupt_vector_8
                0x000000000000ff9e        0x2 build/obj/msp_vectors.o

__interrupt_vector_9
                0x000000000000ffa0        0x2
 *(__interrupt_vector_9)
 __interrupt_vector_9
                0x000000000000ffa0        0x2 build/obj/msp_vectors.o

__interrupt_vector_10
                0x000000000000ffa2        0x2
 *(__interrupt_vector_10)
 __interrupt_vector_10
                0x000000000000ffa2        0x2 build/obj/msp_vectors.o

__interrupt_vector_11
                0x000000000000ffa4        0x2
 *(__interrupt_vector_11)
 __interrupt_vector_11
                0x000000000000ffa4        0x2 build/obj/msp_vectors.o

__interrupt_vector_12
                0x000000000000ffa6        0x2
 *(__interrupt_vector_12)
 __interrupt_vector_12
                0x000000000000ffa6        0x2 build/obj/msp_vectors.o

__interrupt_vector_13
                0x000000000000ffa8        0x2
 *(__interrupt_vector_13)
 __interrupt_vector_13
                0x000000000000ffa8        0x2 build/obj/msp_vectors.o

__interrupt_vector_14
                0x000000000000ffaa        0x2
 *(__interrupt_vector_14)
 __interrupt_vector_14
                0x000000000000ffaa        0x2 build/obj/msp_vectors.o

__interrupt_vector_15
                0x000000000000ffac        0x2
 *(__interrupt_vector_15)
 __interrupt_vector_15
                0x000000000000ffac        0x2 build/obj/msp_vectors.o

__interrupt_vector_16
                0x000000000000ffae        0x2
 *(__interrupt_vector_16)
 __interrupt_vector_16
                0x000000000000ffae        0x2 build/obj/msp_vectors.o

__interrupt_vector_17
                0x000000000000ffb0        0x2
 *(__interrupt_vector_17)
 __interrupt_vector_17
                0x000000000000ffb0        0x2 build/obj/msp_vectors.o

__interrupt_vector_18
                0x000000000000ffb2        0x2
 *(__interrupt_vector_18)
 __interrupt_vector_18
                0x000000000000ffb2        0x2 build/obj/msp_vectors.o

__interrupt_vector_19
                0x000000000000ffb4        0x2
 *(__interrupt_vector_19)
 __interrupt_vector_19
                0x000000000000ffb4        0x2 build/obj/msp_vectors.o

__interrupt_vector_20
                0x000000000000ffb6        0x2
 *(__interrupt_vector_20)
 __interrupt_vector_20
                0x000000000000ffb6        0x2 build/obj/msp_vectors.o

__interrupt_vector_21
                0x000000000000ffb8        0x2
 *(__interrupt_vector_21)
 __interrupt_vector_21
                0x000000000000ffb8        0x2 build/obj/msp_vectors.o

__interrupt_vector_22
                0x000000000000ffba        0x2
 *(__interrupt_vector_22)
 __interrupt_vector_22
                0x000000000000ffba        0x2 build/obj/msp_vectors.o

__interrupt_vector_23
                0x000000000000ffbc        0x2
 *(__interrupt_vector_23)
 __interrupt_vector_23
                0x000000000000ffbc        0x2 build/obj/msp_vectors.o

__interrupt_vector_24
                0x000000000000ffbe        0x2
 *(__interrupt_vector_24)
 __interrupt_vector_24
                0x000000000000ffbe        0x2 build/obj/msp_vectors.o

__interrupt_vector_25
                0x000000000000ffc0        0x2
 *(__interrupt_vector_25)
 __interrupt_vector_25
                0x000000000000ffc0        0x2 build/obj/msp_vectors.o

__interrupt_vector_26
                0x000000000000ffc2        0x2
 *(__interrupt_vector_26)
 __interrupt_vector_26
                0x000000000000ffc2        0x2 build/obj/msp_vectors.o

__interrupt_vector_27
                0x000000000000ffc4        0x2
 *(__interrupt_vector_27)
 __interrupt_vector_27
                0x000000000000ffc4        0x2 build/obj/msp_vectors.o

__interrupt_vector_28
                0x000000000000ffc6        0x2
 *(__interrupt_vector_28)
 __interrupt_vector_28
                0x000000000000ffc6        0x2 build/obj/msp_vectors.o

__interrupt_vector_29
                0x000000000000ffc8        0x2
 *(__interrupt_vector_29)
 __interrupt_vector_29
                0x000000000000ffc8        0x2 build/obj/msp_vectors.o

__interrupt_vector_30
                0x000000000000ffca        0x2
 *(__interrupt_vector_30)
 __interrupt_vector_30
                0x000000000000ffca        0x2 build/obj/msp_vectors.o

__interrupt_vector_31
                0x000000000000ffcc        0x2
 *(__interrupt_vector_31)
 __interrupt_vector_31
                0x000000000000ffcc        0x2 build/obj/msp_vectors.o
 *(__interrupt_vector_aes256)

__interrupt_vector_32
                0x000000000000ffce        0x2
 *(__interrupt_vector_32)
 __interrupt_vector_32
                0x000000000000ffce        0x2 build/obj/msp_vectors.o
 *(__interrupt_vector_rtc)

__interrupt_vector_33
                0x000000000000ffd0        0x2
 *(__interrupt_vector_33)
 __interrupt_vector_33
                0x000000000000ffd0        0x2 build/obj/hal_pal_lld.o
 *(__interrupt_vector_port4)

__interrupt_vector_34
                0x000000000000ffd2        0x2
 *(__interrupt_vector_34)
 __interrupt_vector_34
                0x000000000000ffd2        0x2 build/obj/hal_pal_lld.o
 *(__interrupt_vector_port3)

__interrupt_vector_35
                0x000000000000ffd4        0x2
 *(__interrupt_vector_35)
 __interrupt_vector_35
                0x000000000000ffd4        0x2 build/obj/msp_vectors.o
 *(__interrupt_vector_timer3_a1)

__interrupt_vector_36
                0x000000000000ffd6        0x2
 *(__interrupt_vector_36)
 __interrupt_vector_36
                0x000000000000ffd6        0x2 build/obj/msp_vectors.o
 *(__interrupt_vector_timer3_a0)

__interrupt_vector_37
                0x000000000000ffd8        0x2
 *(__interrupt_vector_37)
 __interrupt_vector_37
                0x000000000000ffd8        0x2 build/obj/hal_pal_lld.o
 *(__interrupt_vector_port2)

__interrupt_vector_38
                0x000000000000ffda        0x2
 *(__interrupt_vector_38)
 __interrupt_vector_38
                0x000000000000ffda        0x2 build/obj/msp_vectors.o
 *(__interrupt_vector_timer2_a1)

__interrupt_vector_39
                0x000000000000ffdc        0x2
 *(__interrupt_vector_39)
 __interrupt_vector_39
                0x000000000000ffdc        0x2 build/obj/msp_vectors.o
 *(__interrupt_vector_timer2_a0)

__interrupt_vector_40
                0x000000000000ffde        0x2
 *(__interrupt_vector_40)
 __interrupt_vector_40
                0x000000000000ffde        0x2 build/obj/hal_pal_lld.o
 *(__interrupt_vector_port1)

__interrupt_vector_41
                0x000000000000ffe0        0x2
 *(__interrupt_vector_41)
 __interrupt_vector_41
                0x000000000000ffe0        0x2 build/obj/hal_gpt_lld.o
 *(__interrupt_vector_timer1_a1)

__interrupt_vector_42
                0x000000000000ffe2        0x2
 *(__interrupt_vector_42)
 __interrupt_vector_42
                0x000000000000ffe2        0x2 build/obj/msp_vectors.o
 *(__interrupt_vector_timer1_a0)

__interrupt_vector_43
                0x000000000000ffe4        0x2
 *(__interrupt_vector_43)
 __interrupt_vector_43
                0x000000000000ffe4        0x2 build/obj/hal_dma_lld.o
 *(__interrupt_vector_dma)

__interrupt_vector_44
                0x000000000000ffe6        0x2
 *(__interrupt_vector_44)
 __interrupt_vector_44
                0x000000000000ffe6        0x2 build/obj/hal_uart_lld.o
 *(__interrupt_vector_usci_a1)

__interrupt_vector_45
                0x000000000000ffe8        0x2
 *(__interrupt_vector_45)
 __interrupt_vector_45
                0x000000000000ffe8        0x2 build/obj/msp_vectors.o
 *(__interrupt_vector_timer0_a1)

__interrupt_vector_46
                0x000000000000ffea        0x2
 *(__interrupt_vector_46)
 __interrupt_vector_46
                0x000000000000ffea        0x2 build/obj/msp_vectors.o
 *(__interrupt_vector_timer0_a0)

__interrupt_vector_47
                0x000000000000ffec        0x2
 *(__interrupt_vector_47)
 __interrupt_vector_47
                0x000000000000ffec        0x2 build/obj/msp_vectors.o
 *(__interrupt_vector_adc12)

__interrupt_vector_48
                0x000000000000ffee        0x2
 *(__interrupt_vector_48)
 __interrupt_vector_48
                0x000000000000ffee        0x2 build/obj/hal_i2c_lld.o
 *(__interrupt_vector_usci_b0)

__interrupt_vector_49
 *(__interrupt_vector_49)
 *(__interrupt_vector_usci_a0)

__interrupt_vector_50
                0x000000000000fff2        0x2
 *(__interrupt_vector_50)
 __interrupt_vector_50
                0x000000000000fff2        0x2 build/obj/msp_vectors.o
 *(__interrupt_vector_wdt)

__interrupt_vector_51
                0x000000000000fff4        0x2
 *(__interrupt_vector_51)
 __interrupt_vector_51
                0x000000000000fff4        0x2 build/obj/msp_vectors.o
 *(__interrupt_vector_timer0_b1)

__interrupt_vector_52
                0x000000000000fff6        0x2
 *(__interrupt_vector_52)
 __interrupt_vector_52
                0x000000000000fff6        0x2 build/obj/hal_st_lld.o
 *(__interrupt_vector_timer0_b0)

__interrupt_vector_53
                0x000000000000fff8        0x2
 *(__interrupt_vector_53)
 __interrupt_vector_53
                0x000000000000fff8        0x2 build/obj/msp_vectors.o
 *(__interrupt_vector_comp_e)

__interrupt_vector_54
                0x000000000000fffa        0x2
 *(__interrupt_vector_54)
 __interrupt_vector_54
                0x000000000000fffa        0x2 build/obj/msp_vectors.o
 *(__interrupt_vector_unmi)

__interrupt_vector_55
                0x000000000000fffc        0x2
 *(__interrupt_vector_55)
 __interrupt_vector_55
                0x000000000000fffc        0x2 build/obj/msp_vectors.o
 *(__interrupt_vector_sysnmi)

__reset_vector  0x000000000000fffe        0x2
 *(__interrupt_vector_56)
 *(__interrupt_vector_reset)
 *(.bootloader)
 .bootloader    0x000000000000fffe        0x2 build/obj/bootloader.o
                0x0000000000010000                _end = .
                [!provide]                        PROVIDE (end, .)

.text           0x0000000000004400     0x82e8
                0x0000000000004400                PROVIDE (_start, .)
                0x0000000000004400                . = ALIGN (0x2)
 *(SORT(.crt_*))
 .crt_0000start
                0x0000000000004400        0x4 /root/ti-tools/part2/msp430-gcc-6.2.1.16_linux64/bin/../lib/gcc/msp430-elf/6.2.1/../../../../msp430-elf/lib/large/crt0-minrt.o
                0x0000000000004400                __crt0_start
 .crt_0042disable_watchdog
                0x0000000000004404        0x8 build/obj/init.o
 .crt_0100init_bss
                0x000000000000440c       0x10 /root/ti-tools/part2/msp430-gcc-6.2.1.16_linux64/bin/../lib/gcc/msp430-elf/6.2.1/../../../../msp430-elf/lib/large/libcrt.a(crt_bss.o)
                0x000000000000440c                __crt0_init_bss
 .crt_0200init_highbss
                0x000000000000441c       0x12 /root/ti-tools/part2/msp430-gcc-6.2.1.16_linux64/bin/../lib/gcc/msp430-elf/6.2.1/../../../../msp430-elf/lib/large/libcrt.a(crt_high_bss.o)
                0x000000000000441c                __crt0_init_highbss
 .crt_0400move_highdata
                0x000000000000442e       0x30 /root/ti-tools/part2/msp430-gcc-6.2.1.16_linux64/bin/../lib/gcc/msp430-elf/6.2.1/../../../../msp430-elf/lib/large/libcrt.a(crt_move_highdata.o)
                0x000000000000442e                __crt0_move_highdata
 .crt_0600call_just_main
                0x000000000000445e        0x6 /root/ti-tools/part2/msp430-gcc-6.2.1.16_linux64/bin/../lib/gcc/msp430-elf/6.2.1/../../../../msp430-elf/lib/large/libcrt.a(crt_main_minrt.o)
                0x000000000000445e                __crt0_call_just_main
                0x0000000000004464                . = ALIGN (0x2)
 *(.lowtext)
 .lowtext       0x0000000000004464       0xb4 build/obj/msp_vectors.o
                0x0000000000004464                Vector1
                0x0000000000004468                Vector2
                0x000000000000446c                Vector3
                0x0000000000004470                Vector4
                0x0000000000004474                Vector5
                0x0000000000004478                Vector6
                0x000000000000447c                Vector7
                0x0000000000004480                Vector8
                0x0000000000004484                Vector9
                0x0000000000004488                Vector10
                0x000000000000448c                Vector11
                0x0000000000004490                Vector12
                0x0000000000004494                Vector13
                0x0000000000004498                Vector14
                0x000000000000449c                Vector15
                0x00000000000044a0                Vector16
                0x00000000000044a4                Vector17
                0x00000000000044a8                Vector18
                0x00000000000044ac                Vector19
                0x00000000000044b0                Vector20
                0x00000000000044b4                Vector21
                0x00000000000044b8                Vector22
                0x00000000000044bc                Vector23
                0x00000000000044c0                Vector24
                0x00000000000044c4                Vector25
                0x00000000000044c8                Vector26
                0x00000000000044cc                Vector27
                0x00000000000044d0                Vector28
                0x00000000000044d4                Vector29
                0x00000000000044d8                Vector30
                0x00000000000044dc                Vector31
                0x00000000000044e0                Vector32
                0x00000000000044e4                Vector35
                0x00000000000044e8                Vector36
                0x00000000000044ec                Vector38
                0x00000000000044f0                Vector39
                0x00000000000044f4                Vector42
                0x00000000000044f8                Vector45
                0x00000000000044fc                Vector46
                0x0000000000004500                Vector47
                0x0000000000004504                Vector50
                0x0000000000004508                Vector51
                0x000000000000450c                Vector53
                0x0000000000004510                Vector54
                0x0000000000004514                Vector55
                0x0000000000004518                . = ALIGN (0x2)
 *(.lower.text.* .lower.text)
                0x0000000000004518                . = ALIGN (0x2)
 *(.text .stub .text.* .gnu.linkonce.t.* .text:*)
 .text.port_init
                0x0000000000004518        0x8 build/obj/ch.o
 .text.port_unlock
                0x0000000000004520        0xa build/obj/ch.o
 .text.port_suspend
                0x000000000000452a        0x8 build/obj/ch.o
 .text.chSysInit
                0x0000000000004532      0x110 build/obj/ch.o
                0x0000000000004532                chSysInit
 .text.chSysHalt
                0x0000000000004642       0x10 build/obj/ch.o
                0x0000000000004642                chSysHalt
 .text.chSysTimerHandlerI
                0x0000000000004652       0x8c build/obj/ch.o
                0x0000000000004652                chSysTimerHandlerI
 .text.chSysGetStatusAndLockX
                0x00000000000046de       0x1c build/obj/ch.o
                0x00000000000046de                chSysGetStatusAndLockX
 .text.chSysRestoreStatusX
                0x00000000000046fa       0x18 build/obj/ch.o
                0x00000000000046fa                chSysRestoreStatusX
 .text.chSchReadyI
                0x0000000000004712       0x92 build/obj/ch.o
                0x0000000000004712                chSchReadyI
 .text.chSchIsPreemptionRequired
                0x00000000000047a4       0x10 build/obj/ch.o
                0x00000000000047a4                chSchIsPreemptionRequired
 .text.chSchDoReschedule
                0x00000000000047b4       0x14 build/obj/ch.o
                0x00000000000047b4                chSchDoReschedule
 .text.chSchRescheduleS
                0x00000000000047c8       0x10 build/obj/ch.o
                0x00000000000047c8                chSchRescheduleS
 .text.chSchGoSleepTimeoutS
                0x00000000000047d8       0x6a build/obj/ch.o
                0x00000000000047d8                chSchGoSleepTimeoutS
 .text.chThdSuspendTimeoutS
                0x0000000000004842       0x30 build/obj/ch.o
                0x0000000000004842                chThdSuspendTimeoutS
 .text.chThdResumeI
                0x0000000000004872       0x2c build/obj/ch.o
                0x0000000000004872                chThdResumeI
 .text.chThdSleep
                0x000000000000489e       0x18 build/obj/ch.o
                0x000000000000489e                chThdSleep
 .text.chSemWaitTimeout
                0x00000000000048b6       0x2a build/obj/ch.o
                0x00000000000048b6                chSemWaitTimeout
 .text.chSemWaitTimeoutS
                0x00000000000048e0       0x52 build/obj/ch.o
                0x00000000000048e0                chSemWaitTimeoutS
 .text.chSemSignalI
                0x0000000000004932       0x6c build/obj/ch.o
                0x0000000000004932                chSemSignalI
 .text.chEvtSignal
                0x000000000000499e       0x2c build/obj/ch.o
                0x000000000000499e                chEvtSignal
 .text.chEvtSignalI
                0x00000000000049ca       0x48 build/obj/ch.o
                0x00000000000049ca                chEvtSignalI
 .text.chEvtWaitAnyTimeout
                0x0000000000004a12       0x64 build/obj/ch.o
                0x0000000000004a12                chEvtWaitAnyTimeout
 .text.chMBPostS
                0x0000000000004a76       0x66 build/obj/chmboxes.o
                0x0000000000004a76                chMBPostS
 .text.chMBPost
                0x0000000000004adc       0x14 build/obj/chmboxes.o
                0x0000000000004adc                chMBPost
 .text.chMBPostI
                0x0000000000004af0       0x5e build/obj/chmboxes.o
                0x0000000000004af0                chMBPostI
 .text.chMBFetchS
                0x0000000000004b4e       0x6e build/obj/chmboxes.o
                0x0000000000004b4e                chMBFetchS
 .text.chMBFetch
                0x0000000000004bbc       0x14 build/obj/chmboxes.o
                0x0000000000004bbc                chMBFetch
 .text.chCoreAllocAlignedI
                0x0000000000004bd0       0x5e build/obj/chmemcore.o
                0x0000000000004bd0                chCoreAllocAlignedI
 .text.chCoreAllocAligned
                0x0000000000004c2e       0x14 build/obj/chmemcore.o
                0x0000000000004c2e                chCoreAllocAligned
 .text._heap_init
                0x0000000000004c42       0x22 build/obj/chheap.o
                0x0000000000004c42                _heap_init
 .text.chPoolAllocI
                0x0000000000004c64       0x3a build/obj/chmempools.o
                0x0000000000004c64                chPoolAllocI
 .text.chPoolAlloc
                0x0000000000004c9e       0x14 build/obj/chmempools.o
                0x0000000000004c9e                chPoolAlloc
 .text.chPoolFreeI
                0x0000000000004cb2       0x2c build/obj/chmempools.o
                0x0000000000004cb2                chPoolFreeI
 .text.chPoolFree
                0x0000000000004cde       0x14 build/obj/chmempools.o
                0x0000000000004cde                chPoolFree
 .text._port_switch
                0x0000000000004cf2        0xc build/obj/chcore.o
                0x0000000000004cf2                _port_switch
 .text._port_thread_start
                0x0000000000004cfe       0x14 build/obj/chcore.o
                0x0000000000004cfe                _port_thread_start
 .text.osalThreadDequeueNextI
                0x0000000000004d12       0x5a build/obj/osal.o
                0x0000000000004d12                osalThreadDequeueNextI
 .text.halInit  0x0000000000004d6c       0x26 build/obj/hal.o
                0x0000000000004d6c                halInit
 .text.stInit   0x0000000000004d92        0x6 build/obj/hal_st.o
                0x0000000000004d92                stInit
 .text.port_lock
                0x0000000000004d98        0x8 build/obj/hal_gpt.o
 .text.port_unlock
                0x0000000000004da0        0xa build/obj/hal_gpt.o
 .text.gptInit  0x0000000000004daa        0x6 build/obj/hal_gpt.o
                0x0000000000004daa                gptInit
 .text.gptObjectInit
                0x0000000000004db0        0xc build/obj/hal_gpt.o
                0x0000000000004db0                gptObjectInit
 .text.gptStart
                0x0000000000004dbc       0x4a build/obj/hal_gpt.o
                0x0000000000004dbc                gptStart
 .text.gptStartOneShotI
                0x0000000000004e06       0x46 build/obj/hal_gpt.o
                0x0000000000004e06                gptStartOneShotI
 .text.gptStopTimerI
                0x0000000000004e4c       0x34 build/obj/hal_gpt.o
                0x0000000000004e4c                gptStopTimerI
 .text.i2cInit  0x0000000000004e80        0x6 build/obj/hal_i2c.o
                0x0000000000004e80                i2cInit
 .text.i2cObjectInit
                0x0000000000004e86        0xc build/obj/hal_i2c.o
                0x0000000000004e86                i2cObjectInit
 .text.i2cStart
                0x0000000000004e92       0x58 build/obj/hal_i2c.o
                0x0000000000004e92                i2cStart
 .text.port_lock
                0x0000000000004eea        0x8 build/obj/hal_spi.o
 .text.port_unlock
                0x0000000000004ef2        0xa build/obj/hal_spi.o
 .text.spiInit  0x0000000000004efc        0x6 build/obj/hal_spi.o
                0x0000000000004efc                spiInit
 .text.spiObjectInit
                0x0000000000004f02       0x16 build/obj/hal_spi.o
                0x0000000000004f02                spiObjectInit
 .text.spiStart
                0x0000000000004f18       0x4a build/obj/hal_spi.o
                0x0000000000004f18                spiStart
 .text.spiStartSend
                0x0000000000004f62       0x54 build/obj/hal_spi.o
                0x0000000000004f62                spiStartSend
 .text.port_lock
                0x0000000000004fb6        0x8 build/obj/hal_uart.o
 .text.port_unlock
                0x0000000000004fbe        0xa build/obj/hal_uart.o
 .text.uartInit
                0x0000000000004fc8        0x6 build/obj/hal_uart.o
                0x0000000000004fc8                uartInit
 .text.uartObjectInit
                0x0000000000004fce       0x24 build/obj/hal_uart.o
                0x0000000000004fce                uartObjectInit
 .text.uartStart
                0x0000000000004ff2       0x4a build/obj/hal_uart.o
                0x0000000000004ff2                uartStart
 .text.uartStartSendI
                0x000000000000503c       0x58 build/obj/hal_uart.o
                0x000000000000503c                uartStartSendI
 .text.uartStartReceiveI
                0x0000000000005094       0x58 build/obj/hal_uart.o
                0x0000000000005094                uartStartReceiveI
 .text.uartStopReceiveI
                0x00000000000050ec       0x3a build/obj/hal_uart.o
                0x00000000000050ec                uartStopReceiveI
 .text.hal_lld_init
                0x0000000000005126       0x50 build/obj/hal_lld.o
                0x0000000000005126                hal_lld_init
 .text.st_lld_init
                0x0000000000005176       0x20 build/obj/hal_st_lld.o
                0x0000000000005176                st_lld_init
 .text._pal_lld_init
                0x0000000000005196       0x7e build/obj/hal_pal_lld.o
                0x0000000000005196                _pal_lld_init
 .text._pal_lld_setgroupmode
                0x0000000000005214       0xf0 build/obj/hal_pal_lld.o
                0x0000000000005214                _pal_lld_setgroupmode
 .text._pal_lld_enablepadevent
                0x0000000000005304       0xee build/obj/hal_pal_lld.o
                0x0000000000005304                _pal_lld_enablepadevent
 .text._pal_lld_disablepadevent
                0x00000000000053f2       0x1c build/obj/hal_pal_lld.o
                0x00000000000053f2                _pal_lld_disablepadevent
 .text.dma_trigger_set
                0x000000000000540e       0x3c build/obj/hal_dma_lld.o
 .text.dmaInit  0x000000000000544a        0x8 build/obj/hal_dma_lld.o
                0x000000000000544a                dmaInit
 .text.dmaAcquireI
                0x0000000000005452       0x6e build/obj/hal_dma_lld.o
                0x0000000000005452                dmaAcquireI
 .text.dmaClaimI
                0x00000000000054c0       0x58 build/obj/hal_dma_lld.o
                0x00000000000054c0                dmaClaimI
 .text.dmaTransferI
                0x0000000000005518       0x7c build/obj/hal_dma_lld.o
                0x0000000000005518                dmaTransferI
 .text.dmaReleaseX
                0x0000000000005594       0x46 build/obj/hal_dma_lld.o
                0x0000000000005594                dmaReleaseX
 .text.dmaCancelI
                0x00000000000055da       0x3e build/obj/hal_dma_lld.o
                0x00000000000055da                dmaCancelI
 .text.init_transfer
                0x0000000000005618       0x7c build/obj/hal_spi_lld.o
 .text.spi_lld_end_of_transfer
                0x0000000000005694       0x56 build/obj/hal_spi_lld.o
 .text.spi_lld_init
                0x00000000000056ea       0x68 build/obj/hal_spi_lld.o
                0x00000000000056ea                spi_lld_init
 .text.spi_lld_select
                0x0000000000005752       0x44 build/obj/hal_spi_lld.o
                0x0000000000005752                spi_lld_select
 .text.spi_lld_unselect
                0x0000000000005796       0x44 build/obj/hal_spi_lld.o
                0x0000000000005796                spi_lld_unselect
 .text.spi_lld_start
                0x00000000000057da       0x8e build/obj/hal_spi_lld.o
                0x00000000000057da                spi_lld_start
 .text.spi_lld_send
                0x0000000000005868       0x2a build/obj/hal_spi_lld.o
                0x0000000000005868                spi_lld_send
 .text.spi_lld_polled_exchange
                0x0000000000005892       0x36 build/obj/hal_spi_lld.o
                0x0000000000005892                spi_lld_polled_exchange
 .text.tx_complete
                0x00000000000058c8        0xa build/obj/hal_i2c_lld.o
                0x00000000000058c8                tx_complete
 .text.i2c_lld_init
                0x00000000000058d2       0x38 build/obj/hal_i2c_lld.o
                0x00000000000058d2                i2c_lld_init
 .text.i2c_lld_start
                0x000000000000590a       0xb2 build/obj/hal_i2c_lld.o
                0x000000000000590a                i2c_lld_start
 .text.i2cMSP430XStartReceiveToRegI
                0x00000000000059bc       0xe6 build/obj/hal_i2c_lld.o
                0x00000000000059bc                i2cMSP430XStartReceiveToRegI
 .text.i2cMSP430XStartReceiveI
                0x0000000000005aa2       0xe8 build/obj/hal_i2c_lld.o
                0x0000000000005aa2                i2cMSP430XStartReceiveI
 .text.i2cMSP430XStartTransmitMSBI
                0x0000000000005b8a       0xc4 build/obj/hal_i2c_lld.o
                0x0000000000005b8a                i2cMSP430XStartTransmitMSBI
 .text.i2cMSP430XContinueTransmitMemsetI
                0x0000000000005c4e       0xa6 build/obj/hal_i2c_lld.o
                0x0000000000005c4e                i2cMSP430XContinueTransmitMemsetI
 .text.i2cMSP430XContinueTransmitI
                0x0000000000005cf4       0xa8 build/obj/hal_i2c_lld.o
                0x0000000000005cf4                i2cMSP430XContinueTransmitI
 .text.i2cMSP430XEndTransferI
                0x0000000000005d9c       0x94 build/obj/hal_i2c_lld.o
                0x0000000000005d9c                i2cMSP430XEndTransferI
 .text.rx_async_callback
                0x0000000000005e30       0x28 build/obj/hal_i2c_lld.o
                0x0000000000005e30                rx_async_callback
 .text.UCBRS    0x0000000000005e58      0x22c build/obj/hal_uart_lld.o
 .text.rx_cb    0x0000000000006084       0x5c build/obj/hal_uart_lld.o
 .text.tx_cb    0x00000000000060e0       0x70 build/obj/hal_uart_lld.o
 .text.uart_lld_init
                0x0000000000006150       0x60 build/obj/hal_uart_lld.o
                0x0000000000006150                uart_lld_init
 .text.uart_lld_start
                0x00000000000061b0      0x204 build/obj/hal_uart_lld.o
                0x00000000000061b0                uart_lld_start
 .text.uart_lld_start_send
                0x00000000000063b4       0x54 build/obj/hal_uart_lld.o
                0x00000000000063b4                uart_lld_start_send
 .text.uart_lld_start_receive
                0x0000000000006408       0x58 build/obj/hal_uart_lld.o
                0x0000000000006408                uart_lld_start_receive
 .text.uart_lld_stop_receive
                0x0000000000006460       0x4c build/obj/hal_uart_lld.o
                0x0000000000006460                uart_lld_stop_receive
 .text.gpt_lld_init
                0x00000000000064ac       0x12 build/obj/hal_gpt_lld.o
                0x00000000000064ac                gpt_lld_init
 .text.gpt_lld_start
                0x00000000000064be       0xc2 build/obj/hal_gpt_lld.o
                0x00000000000064be                gpt_lld_start
 .text.gpt_lld_start_timer
                0x0000000000006580       0x24 build/obj/hal_gpt_lld.o
                0x0000000000006580                gpt_lld_start_timer
 .text.gpt_lld_stop_timer
                0x00000000000065a4        0xc build/obj/hal_gpt_lld.o
                0x00000000000065a4                gpt_lld_stop_timer
 .text.boardInit
                0x00000000000065b0        0x6 build/obj/board.o
                0x00000000000065b0                boardInit
 .text.spi_callback
                0x00000000000065b6       0x54 build/obj/sx1278.o
                0x00000000000065b6                spi_callback
 .text.sx1278Reset.isra.0
                0x000000000000660a       0xca build/obj/sx1278.o
 .text.sx1278SetRegister
                0x00000000000066d4       0xba build/obj/sx1278.o
                0x00000000000066d4                sx1278SetRegister
 .text.sx1278SetMode.constprop.3
                0x000000000000678e       0x1a build/obj/sx1278.o
 .text.sx1278SetBitrate
                0x00000000000067a8       0x66 build/obj/sx1278.o
                0x00000000000067a8                sx1278SetBitrate
 .text.sx1278SetDeviation
                0x000000000000680e       0x5e build/obj/sx1278.o
                0x000000000000680e                sx1278SetDeviation
 .text.sx1278SetFrequency
                0x000000000000686c       0xe2 build/obj/sx1278.o
                0x000000000000686c                sx1278SetFrequency
 .text.sx1278SetPower
                0x000000000000694e        0xc build/obj/sx1278.o
                0x000000000000694e                sx1278SetPower
 .text.sx1278SetSync
                0x000000000000695a       0x6a build/obj/sx1278.o
                0x000000000000695a                sx1278SetSync
 .text.sx1278ObjectInit
                0x00000000000069c4       0x10 build/obj/sx1278.o
                0x00000000000069c4                sx1278ObjectInit
 .text.sx1278Start
                0x00000000000069d4      0x188 build/obj/sx1278.o
                0x00000000000069d4                sx1278Start
 .text.sx1278FifoWriteAsync
                0x0000000000006b5c       0x7a build/obj/sx1278.o
                0x0000000000006b5c                sx1278FifoWriteAsync
 .text.sx1278FifoWriteAsyncS
                0x0000000000006bd6       0x80 build/obj/sx1278.o
                0x0000000000006bd6                sx1278FifoWriteAsyncS
 .text.sx1278StartTransmit
                0x0000000000006c56       0xe4 build/obj/sx1278.o
                0x0000000000006c56                sx1278StartTransmit
 .text.blockuntil_callback
                0x0000000000006d3a        0xc build/obj/sx1212.o
 .text.sx1212SetRegister.isra.0
                0x0000000000006d46       0x50 build/obj/sx1212.o
 .text.sx1212SetMode
                0x0000000000006d96       0x1c build/obj/sx1212.o
 .text.sx1212SetFifoThreshold
                0x0000000000006db2       0x32 build/obj/sx1212.o
 .text.sx1212Reset.isra.1
                0x0000000000006de4       0xde build/obj/sx1212.o
 .text.irq_block_with_timeout.isra.2
                0x0000000000006ec2       0x80 build/obj/sx1212.o
 .text.spi_mode_config
                0x0000000000006f42       0x1a build/obj/sx1212.o
                0x0000000000006f42                spi_mode_config
 .text.sx1212ReadRegister
                0x0000000000006f5c       0x48 build/obj/sx1212.o
                0x0000000000006f5c                sx1212ReadRegister
 .text.sx1212SetBitrate
                0x0000000000006fa4       0x3e build/obj/sx1212.o
                0x0000000000006fa4                sx1212SetBitrate
 .text.sx1212SetDeviation
                0x0000000000006fe2       0x56 build/obj/sx1212.o
                0x0000000000006fe2                sx1212SetDeviation
 .text.sx1212SetFrequency
                0x0000000000007038       0x46 build/obj/sx1212.o
                0x0000000000007038                sx1212SetFrequency
 .text.sx1212SetSync
                0x000000000000707e       0x3c build/obj/sx1212.o
                0x000000000000707e                sx1212SetSync
 .text.sx1212SetRxBw
                0x00000000000070ba       0x26 build/obj/sx1212.o
                0x00000000000070ba                sx1212SetRxBw
 .text.sx1212Start
                0x00000000000070e0      0x1a4 build/obj/sx1212.o
                0x00000000000070e0                sx1212Start
 .text.sx1212ReceiveI
                0x0000000000007284       0x3c build/obj/sx1212.o
                0x0000000000007284                sx1212ReceiveI
 .text.sx1212StartReceive
                0x00000000000072c0       0x96 build/obj/sx1212.o
                0x00000000000072c0                sx1212StartReceive
 .text.sx1212FifoRead
                0x0000000000007356       0xa4 build/obj/sx1212.o
                0x0000000000007356                sx1212FifoRead
 .text.sx1212StopReceive
                0x00000000000073fa       0x1c build/obj/sx1212.o
                0x00000000000073fa                sx1212StopReceive
 .text.send_complete_cb
                0x0000000000007416       0x3a build/obj/uart.o
                0x0000000000007416                send_complete_cb
 .text.elyUARTCfgMarkDirty
                0x0000000000007450       0x20 build/obj/uart.o
                0x0000000000007450                elyUARTCfgMarkDirty
 .text.elyUARTPostI
                0x0000000000007470       0x32 build/obj/uart.o
                0x0000000000007470                elyUARTPostI
 .text.elyUARTPost
                0x00000000000074a2       0x30 build/obj/uart.o
                0x00000000000074a2                elyUARTPost
 .text.UARTThd  0x00000000000074d2      0x190 build/obj/uart.o
                0x00000000000074d2                UARTThd
 .text.fw_allocator
                0x0000000000007662       0x26 build/obj/main.o
                0x0000000000007662                fw_allocator
 .text.elyFWGetBufferI
                0x0000000000007688       0x20 build/obj/main.o
                0x0000000000007688                elyFWGetBufferI
 .text.elyFWGetBuffer
                0x00000000000076a8       0x14 build/obj/main.o
                0x00000000000076a8                elyFWGetBuffer
 .text.elyFWFreeBufferI
                0x00000000000076bc       0x14 build/obj/main.o
                0x00000000000076bc                elyFWFreeBufferI
 .text.elyFWFreeBuffer
                0x00000000000076d0       0x18 build/obj/main.o
                0x00000000000076d0                elyFWFreeBuffer
 .text.port_lock
                0x00000000000076e8        0x8 build/obj/cmds.o
 .text.port_unlock
                0x00000000000076f0        0xa build/obj/cmds.o
 .text.reset    0x00000000000076fa       0x18 build/obj/cmds.o
 .text.write_failure
                0x0000000000007712       0x3e build/obj/cmds.o
 .text.store_telem
                0x0000000000007750       0xc8 build/obj/cmds.o
 .text.store_telem_noreply_cb
                0x0000000000007818        0xa build/obj/cmds.o
 .text.upload_fw_noreply_cb
                0x0000000000007822        0x6 build/obj/cmds.o
 .text.verify_fw
                0x0000000000007828       0xb4 build/obj/cmds.o
 .text.write_success
                0x00000000000078dc       0x44 build/obj/cmds.o
 .text.cancel_fw_eeprom_cb
                0x0000000000007920       0x16 build/obj/cmds.o
 .text.elyMainMBPost
                0x0000000000007936        0xe build/obj/cmds.o
                0x0000000000007936                elyMainMBPost
 .text.elyCmdParse
                0x0000000000007944       0x54 build/obj/cmds.o
                0x0000000000007944                elyCmdParse
 .text.elyCmdValidate
                0x0000000000007998      0x27a build/obj/cmds.o
                0x0000000000007998                elyCmdValidate
 .text.elyCmdDispatch
                0x0000000000007c12       0x4a build/obj/cmds.o
                0x0000000000007c12                elyCmdDispatch
 .text.elyCmdSendReplyI
                0x0000000000007c5c       0x5c build/obj/cmds.o
                0x0000000000007c5c                elyCmdSendReplyI
 .text.store_telem_reply_cb
                0x0000000000007cb8       0x20 build/obj/cmds.o
 .text.verify_fw_cb
                0x0000000000007cd8       0x44 build/obj/cmds.o
 .text.upload_fw_reply_cb
                0x0000000000007d1c       0x20 build/obj/cmds.o
 .text.elyCmdSendReply
                0x0000000000007d3c       0x24 build/obj/cmds.o
                0x0000000000007d3c                elyCmdSendReply
 .text.get_sx1212_reg
                0x0000000000007d60       0x8a build/obj/cmds.o
 .text.gen_success
                0x0000000000007dea       0x36 build/obj/cmds.o
 .text.get_telem
                0x0000000000007e20      0x182 build/obj/cmds.o
 .text.install_fw
                0x0000000000007fa2       0x54 build/obj/cmds.o
 .text.cancel_fw
                0x0000000000007ff6       0xb2 build/obj/cmds.o
 .text.reset_event
                0x00000000000080a8       0x3a build/obj/cmds.o
 .text.reset_chan
                0x00000000000080e2       0x3a build/obj/cmds.o
 .text.gen_failure
                0x000000000000811c       0x36 build/obj/cmds.o
 .text.upload_fw
                0x0000000000008152      0x1a2 build/obj/cmds.o
 .text.set_log  0x00000000000082f4       0x8a build/obj/cmds.o
 .text.set_err  0x000000000000837e       0x8a build/obj/cmds.o
 .text.unlog_event
                0x0000000000008408       0xba build/obj/cmds.o
 .text.log_event
                0x00000000000084c2       0xe4 build/obj/cmds.o
 .text.event_unsub
                0x00000000000085a6       0xba build/obj/cmds.o
 .text.event_sub
                0x0000000000008660      0x10a build/obj/cmds.o
 .text.unlog_chan
                0x000000000000876a       0xca build/obj/cmds.o
 .text.log_chan
                0x0000000000008834      0x17a build/obj/cmds.o
 .text.channel_unsub
                0x00000000000089ae       0xac build/obj/cmds.o
 .text.channel_sub
                0x0000000000008a5a      0x17a build/obj/cmds.o
 .text.reload_config
                0x0000000000008bd4       0xb0 build/obj/cmds.o
 .text.set_u32  0x0000000000008c84      0x11e build/obj/cmds.o
 .text.set_baud
                0x0000000000008da2       0x4a build/obj/cmds.o
 .text.set_rx_dev
                0x0000000000008dec       0x5a build/obj/cmds.o
 .text.set_tx_dev
                0x0000000000008e46       0x58 build/obj/cmds.o
 .text.set_rx_br
                0x0000000000008e9e       0x56 build/obj/cmds.o
 .text.set_tx_br
                0x0000000000008ef4       0x56 build/obj/cmds.o
 .text.set_rx_freq
                0x0000000000008f4a       0x58 build/obj/cmds.o
 .text.set_tx_freq
                0x0000000000008fa2       0x58 build/obj/cmds.o
 .text.set_tx_pow
                0x0000000000008ffa       0x8e build/obj/cmds.o
 .text.set_gpo  0x0000000000009088       0xa4 build/obj/cmds.o
 .text.get_log  0x000000000000912c       0x80 build/obj/cmds.o
 .text.get_err  0x00000000000091ac       0x7a build/obj/cmds.o
 .text.get_time
                0x0000000000009226       0x90 build/obj/cmds.o
 .text.set_time
                0x00000000000092b6       0xa0 build/obj/cmds.o
 .text.get_chan
                0x0000000000009356       0xdc build/obj/cmds.o
 .text.get_u32  0x0000000000009432      0x168 build/obj/cmds.o
 .text.get_baud
                0x000000000000959a       0x42 build/obj/cmds.o
 .text.get_rx_dev
                0x00000000000095dc       0x44 build/obj/cmds.o
 .text.get_tx_dev
                0x0000000000009620       0x42 build/obj/cmds.o
 .text.get_rx_br
                0x0000000000009662       0x42 build/obj/cmds.o
 .text.get_tx_br
                0x00000000000096a4       0x42 build/obj/cmds.o
 .text.get_rx_freq
                0x00000000000096e6       0x44 build/obj/cmds.o
 .text.get_tx_freq
                0x000000000000972a       0x44 build/obj/cmds.o
 .text.get_tx_pow
                0x000000000000976e       0x74 build/obj/cmds.o
 .text.set_block
                0x00000000000097e2      0x16c build/obj/cmds.o
 .text.get_block
                0x000000000000994e      0x126 build/obj/cmds.o
 .text.set_regs
                0x0000000000009a74      0x166 build/obj/cmds.o
 .text.get_regs
                0x0000000000009bda      0x152 build/obj/cmds.o
 .text.get_active_bank
                0x0000000000009d2c       0x6e build/obj/cmds.o
 .text.get_gpo  0x0000000000009d9a       0x6e build/obj/cmds.o
 .text.CmdThd   0x0000000000009e08       0x6e build/obj/cmds.o
                0x0000000000009e08                CmdThd
 .text.clamp    0x0000000000009e76       0x2e build/obj/registers.o
 .text.fram_reg_cb
                0x0000000000009ea4       0x28 build/obj/registers.o
                0x0000000000009ea4                fram_reg_cb
 .text.fram_block_cb
                0x0000000000009ecc       0x16 build/obj/registers.o
                0x0000000000009ecc                fram_block_cb
 .text.fram_reg
                0x0000000000009ee2       0x98 build/obj/registers.o
                0x0000000000009ee2                fram_reg
 .text.fram_block
                0x0000000000009f7a       0xd0 build/obj/registers.o
                0x0000000000009f7a                fram_block
 .text.elyClampReg
                0x000000000000a04a      0x1ec build/obj/registers.o
                0x000000000000a04a                elyClampReg
 .text.elyRegGet
                0x000000000000a236       0x5c build/obj/registers.o
                0x000000000000a236                elyRegGet
 .text.elyRegSet
                0x000000000000a292       0x6c build/obj/registers.o
                0x000000000000a292                elyRegSet
 .text.elyRegGetBlock
                0x000000000000a2fe       0x46 build/obj/registers.o
                0x000000000000a2fe                elyRegGetBlock
 .text.elyRegSetBlock
                0x000000000000a344       0x52 build/obj/registers.o
                0x000000000000a344                elyRegSetBlock
 .text.elyErrorSignal
                0x000000000000a396        0x2 build/obj/errors_stub.o
                0x000000000000a396                elyErrorSignal
 .text.elyErrorSetRptLvlS
                0x000000000000a398        0x2 build/obj/errors_stub.o
                0x000000000000a398                elyErrorSetRptLvlS
 .text.elyErrorSetLogLvlS
                0x000000000000a39a        0x2 build/obj/errors_stub.o
                0x000000000000a39a                elyErrorSetLogLvlS
 .text.elyEventSignal
                0x000000000000a39c        0x2 build/obj/events_stub.o
                0x000000000000a39c                elyEventSignal
 .text.elyEventSubscribe
                0x000000000000a39e        0x2 build/obj/events_stub.o
                0x000000000000a39e                elyEventSubscribe
 .text.elyEventUnsubscribe
                0x000000000000a3a0        0x2 build/obj/events_stub.o
                0x000000000000a3a0                elyEventUnsubscribe
 .text.elyEventLog
                0x000000000000a3a2        0x2 build/obj/events_stub.o
                0x000000000000a3a2                elyEventLog
 .text.elyEventUnlog
                0x000000000000a3a4        0x2 build/obj/events_stub.o
                0x000000000000a3a4                elyEventUnlog
 .text.elyEventReset
                0x000000000000a3a6        0x2 build/obj/events_stub.o
                0x000000000000a3a6                elyEventReset
 .text.elyChanSubscribe
                0x000000000000a3a8        0x2 build/obj/channels_stub.o
                0x000000000000a3a8                elyChanSubscribe
 .text.elyChanUnsubscribe
                0x000000000000a3aa        0x2 build/obj/channels_stub.o
                0x000000000000a3aa                elyChanUnsubscribe
 .text.elyChanLog
                0x000000000000a3ac        0x2 build/obj/channels_stub.o
                0x000000000000a3ac                elyChanLog
 .text.elyChanUnlog
                0x000000000000a3ae        0x2 build/obj/channels_stub.o
                0x000000000000a3ae                elyChanUnlog
 .text.elyChanGetValue
                0x000000000000a3b0        0x4 build/obj/channels_stub.o
                0x000000000000a3b0                elyChanGetValue
 .text.elyChanReset
                0x000000000000a3b4        0x2 build/obj/channels_stub.o
                0x000000000000a3b4                elyChanReset
 .text.elyTelemUpdateConfigS
                0x000000000000a3b6        0x2 build/obj/telem_stub.o
                0x000000000000a3b6                elyTelemUpdateConfigS
 .text.elyTelemPostBufferS
                0x000000000000a3b8       0x1c build/obj/telem_stub.o
                0x000000000000a3b8                elyTelemPostBufferS
 .text.calc_next_buff
                0x000000000000a3d4       0xd0 build/obj/slip_uart_dll.o
                0x000000000000a3d4                calc_next_buff
 .text.elyUARTDLLTxCB
                0x000000000000a4a4       0x62 build/obj/slip_uart_dll.o
                0x000000000000a4a4                elyUARTDLLTxCB
 .text.elyUARTDLLStartTx
                0x000000000000a506       0xae build/obj/slip_uart_dll.o
                0x000000000000a506                elyUARTDLLStartTx
 .text.elyUARTDLLRxInit
                0x000000000000a5b4        0xa build/obj/slip_uart_dll.o
                0x000000000000a5b4                elyUARTDLLRxInit
 .text.elyUARTDLLRxHandleBuffer
                0x000000000000a5be      0x1ae build/obj/slip_uart_dll.o
                0x000000000000a5be                elyUARTDLLRxHandleBuffer
 .text.elyUARTDLLTimeoutCB
                0x000000000000a76c       0x20 build/obj/slip_uart_dll.o
                0x000000000000a76c                elyUARTDLLTimeoutCB
 .text.elyUARTDLLRxCharCB
                0x000000000000a78c       0x4c build/obj/slip_uart_dll.o
                0x000000000000a78c                elyUARTDLLRxCharCB
 .text.elyUARTDLLRxCB
                0x000000000000a7d8       0x5e build/obj/slip_uart_dll.o
                0x000000000000a7d8                elyUARTDLLRxCB
 .text.crcGenX25
                0x000000000000a836       0x74 build/obj/crc_x25.o
                0x000000000000a836                crcGenX25
 .text.crcCheckX25
                0x000000000000a8aa       0x6a build/obj/crc_x25.o
                0x000000000000a8aa                crcCheckX25
 .text.crcStart
                0x000000000000a914       0x22 build/obj/crc_x25.o
                0x000000000000a914                crcStart
 .text.crcStop  0x000000000000a936       0x20 build/obj/crc_x25.o
                0x000000000000a936                crcStop
 .text.crcGenSDLP
                0x000000000000a956       0x5c build/obj/crc_sdlp.o
                0x000000000000a956                crcGenSDLP
 .text.rxfifothresh_callback
                0x000000000000a9b2       0x10 build/obj/sdlp.o
                0x000000000000a9b2                rxfifothresh_callback
 .text.txlvl_callback
                0x000000000000a9c2       0x10 build/obj/sdlp.o
                0x000000000000a9c2                txlvl_callback
 .text.write_cb
                0x000000000000a9d2       0x80 build/obj/sdlp.o
                0x000000000000a9d2                write_cb
 .text.elyRFChangeTxSyncS
                0x000000000000aa52       0x3c build/obj/sdlp.o
                0x000000000000aa52                elyRFChangeTxSyncS
 .text.elyRFDLLClampReg
                0x000000000000aa8e      0x158 build/obj/sdlp.o
                0x000000000000aa8e                elyRFDLLClampReg
 .text.elyRFDLLBuildFrame
                0x000000000000abe6      0x2b0 build/obj/sdlp.o
                0x000000000000abe6                elyRFDLLBuildFrame
 .text.elyRFDLLRxInit
                0x000000000000ae96       0x2e build/obj/sdlp.o
                0x000000000000ae96                elyRFDLLRxInit
 .text.elyRFDLLHandleRxFifo
                0x000000000000aec4      0x152 build/obj/sdlp.o
                0x000000000000aec4                elyRFDLLHandleRxFifo
 .text.elyRFDLLTxInit
                0x000000000000b016       0x50 build/obj/sdlp.o
                0x000000000000b016                elyRFDLLTxInit
 .text.elyRFDLLInitiateTransmit
                0x000000000000b066       0x32 build/obj/sdlp.o
                0x000000000000b066                elyRFDLLInitiateTransmit
 .text.elyRFDLLHandleTxFifo
                0x000000000000b098       0x46 build/obj/sdlp.o
                0x000000000000b098                elyRFDLLHandleTxFifo
 .text.fram_mpool_alloc
                0x000000000000b0de       0x26 build/obj/fram.o
                0x000000000000b0de                fram_mpool_alloc
 .text.addr_cb  0x000000000000b104      0x102 build/obj/fram.o
                0x000000000000b104                addr_cb
 .text.fram_handle_request
                0x000000000000b206       0x50 build/obj/fram.o
                0x000000000000b206                fram_handle_request
 .text.end_cb   0x000000000000b256       0x74 build/obj/fram.o
                0x000000000000b256                end_cb
 .text.elyFramPostRequestI
                0x000000000000b2ca       0x5c build/obj/fram.o
                0x000000000000b2ca                elyFramPostRequestI
 .text.elyFramPostRequestS
                0x000000000000b326       0x24 build/obj/fram.o
                0x000000000000b326                elyFramPostRequestS
 .text.elyFramGetRequestTimeoutS
                0x000000000000b34a       0x3e build/obj/fram.o
                0x000000000000b34a                elyFramGetRequestTimeoutS
 .text.elyFramInit
                0x000000000000b388        0xe build/obj/fram.o
                0x000000000000b388                elyFramInit
 .text.port_lock
                0x000000000000b396        0x8 build/obj/rf.o
 .text.port_unlock
                0x000000000000b39e        0xa build/obj/rf.o
 .text.elyRFPostI
                0x000000000000b3a8       0x28 build/obj/rf.o
                0x000000000000b3a8                elyRFPostI
 .text.elyRFPost
                0x000000000000b3d0       0x36 build/obj/rf.o
                0x000000000000b3d0                elyRFPost
 .text.elyRFCfgMarkDirty
                0x000000000000b406       0x36 build/obj/rf.o
                0x000000000000b406                elyRFCfgMarkDirty
 .text.elyRFChangeTxFreqS
                0x000000000000b43c      0x118 build/obj/rf.o
                0x000000000000b43c                elyRFChangeTxFreqS
 .text.elyRFChangeRxFreqS
                0x000000000000b554      0x11a build/obj/rf.o
                0x000000000000b554                elyRFChangeRxFreqS
 .text.elyRFChangeTxBRS
                0x000000000000b66e      0x10a build/obj/rf.o
                0x000000000000b66e                elyRFChangeTxBRS
 .text.elyRFChangeRxBRS
                0x000000000000b778      0x10a build/obj/rf.o
                0x000000000000b778                elyRFChangeRxBRS
 .text.elyRFChangeTxDevS
                0x000000000000b882      0x10e build/obj/rf.o
                0x000000000000b882                elyRFChangeTxDevS
 .text.elyRFChangeRxDevS
                0x000000000000b990      0x10e build/obj/rf.o
                0x000000000000b990                elyRFChangeRxDevS
 .text.elyRFChangeRxSyncS
                0x000000000000ba9e       0x48 build/obj/rf.o
                0x000000000000ba9e                elyRFChangeRxSyncS
 .text.elyRFChangeTxPowerS
                0x000000000000bae6       0x14 build/obj/rf.o
                0x000000000000bae6                elyRFChangeTxPowerS
 .text.elyRFChangeRxFilterParamsS
                0x000000000000bafa       0x22 build/obj/rf.o
                0x000000000000bafa                elyRFChangeRxFilterParamsS
 .text.RFThd    0x000000000000bb1c      0x438 build/obj/rf.o
                0x000000000000bb1c                RFThd
 .text.nl_allocator
                0x000000000000bf54       0x26 build/obj/spp.o
                0x000000000000bf54                nl_allocator
 .text.clamp    0x000000000000bf7a       0x2e build/obj/spp.o
 .text.uart_pass
                0x000000000000bfa8        0x8 build/obj/spp.o
 .text.fw       0x000000000000bfb0        0x8 build/obj/spp.o
 .text.rf_pass  0x000000000000bfb8        0x8 build/obj/spp.o
 .text.elyNLClampReg
                0x000000000000bfc0      0x110 build/obj/spp.o
                0x000000000000bfc0                elyNLClampReg
 .text.elyNLGetBuffer
                0x000000000000c0d0        0xa build/obj/spp.o
                0x000000000000c0d0                elyNLGetBuffer
 .text.elyNLFreeBuffer
                0x000000000000c0da        0xc build/obj/spp.o
                0x000000000000c0da                elyNLFreeBuffer
 .text.elyNLGetBufferI
                0x000000000000c0e6        0xa build/obj/spp.o
                0x000000000000c0e6                elyNLGetBufferI
 .text.elyNLFreeBufferI
                0x000000000000c0f0        0xc build/obj/spp.o
                0x000000000000c0f0                elyNLFreeBufferI
 .text.elyNLGetDest
                0x000000000000c0fc       0x1c build/obj/spp.o
                0x000000000000c0fc                elyNLGetDest
 .text.is_fw_buf
                0x000000000000c118       0x3c build/obj/spp.o
                0x000000000000c118                is_fw_buf
 .text.elyNLFreeBufferChecked
                0x000000000000c154       0x20 build/obj/spp.o
                0x000000000000c154                elyNLFreeBufferChecked
 .text.elyNLFreeBufferCheckedI
                0x000000000000c174       0x20 build/obj/spp.o
                0x000000000000c174                elyNLFreeBufferCheckedI
 .text.elyNLInit
                0x000000000000c194        0x8 build/obj/spp.o
                0x000000000000c194                elyNLInit
 .text.elyNLSetHeader
                0x000000000000c19c       0xee build/obj/spp.o
                0x000000000000c19c                elyNLSetHeader
 .text.elyNLGetLength
                0x000000000000c28a       0x18 build/obj/spp.o
                0x000000000000c28a                elyNLGetLength
 .text.elyNLValidate
                0x000000000000c2a2       0x5a build/obj/spp.o
                0x000000000000c2a2                elyNLValidate
 .text.nl_route
                0x000000000000c2fc       0x86 build/obj/spp.o
 .text.elyNLRouteUART
                0x000000000000c382       0x12 build/obj/spp.o
                0x000000000000c382                elyNLRouteUART
 .text.elyNLRouteRF
                0x000000000000c394       0x12 build/obj/spp.o
                0x000000000000c394                elyNLRouteRF
 .text.elyNLToFW
                0x000000000000c3a6        0xc build/obj/spp.o
                0x000000000000c3a6                elyNLToFW
 .text.elyNLFromFW
                0x000000000000c3b2        0xe build/obj/spp.o
                0x000000000000c3b2                elyNLFromFW
 .text.startup.main
                0x000000000000c3c0       0x1c build/obj/init.o
                0x000000000000c3c0                main
 .text.udivmodsi4
                0x000000000000c3dc       0x8a /root/ti-tools/part2/msp430-gcc-6.2.1.16_linux64/bin/../lib/gcc/msp430-elf/6.2.1/large/libgcc.a(lib2divSI.o)
                0x000000000000c3dc                udivmodsi4
 .text.__udivsi3
                0x000000000000c466       0x12 /root/ti-tools/part2/msp430-gcc-6.2.1.16_linux64/bin/../lib/gcc/msp430-elf/6.2.1/large/libgcc.a(lib2divSI.o)
                0x000000000000c466                __mspabi_divul
                0x000000000000c466                __mspabi_divlu
 .text          0x000000000000c478       0x74 /root/ti-tools/part2/msp430-gcc-6.2.1.16_linux64/bin/../lib/gcc/msp430-elf/6.2.1/large/libgcc.a(slli.o)
                0x000000000000c478                __mspabi_slli_15
                0x000000000000c47a                __mspabi_slli_14
                0x000000000000c47c                __mspabi_slli_13
                0x000000000000c47e                __mspabi_slli_12
                0x000000000000c480                __mspabi_slli_11
                0x000000000000c482                __mspabi_slli_10
                0x000000000000c484                __mspabi_slli_9
                0x000000000000c486                __mspabi_slli_8
                0x000000000000c488                __mspabi_slli_7
                0x000000000000c48a                __mspabi_slli_6
                0x000000000000c48c                __mspabi_slli_5
                0x000000000000c48e                __mspabi_slli_4
                0x000000000000c490                __mspabi_slli_3
                0x000000000000c492                __mspabi_slli_2
                0x000000000000c494                __mspabi_slli_1
                0x000000000000c49c                __mspabi_slli
                0x000000000000c4a2                __mspabi_slll_15
                0x000000000000c4a6                __mspabi_slll_14
                0x000000000000c4aa                __mspabi_slll_13
                0x000000000000c4ae                __mspabi_slll_12
                0x000000000000c4b2                __mspabi_slll_11
                0x000000000000c4b6                __mspabi_slll_10
                0x000000000000c4ba                __mspabi_slll_9
                0x000000000000c4be                __mspabi_slll_8
                0x000000000000c4c2                __mspabi_slll_7
                0x000000000000c4c6                __mspabi_slll_6
                0x000000000000c4ca                __mspabi_slll_5
                0x000000000000c4ce                __mspabi_slll_4
                0x000000000000c4d2                __mspabi_slll_3
                0x000000000000c4d6                __mspabi_slll_2
                0x000000000000c4da                __mspabi_slll_1
                0x000000000000c4e6                __mspabi_slll
 .text          0x000000000000c4ec       0x74 /root/ti-tools/part2/msp430-gcc-6.2.1.16_linux64/bin/../lib/gcc/msp430-elf/6.2.1/large/libgcc.a(srai.o)
                0x000000000000c4ec                __mspabi_srai_15
                0x000000000000c4ee                __mspabi_srai_14
                0x000000000000c4f0                __mspabi_srai_13
                0x000000000000c4f2                __mspabi_srai_12
                0x000000000000c4f4                __mspabi_srai_11
                0x000000000000c4f6                __mspabi_srai_10
                0x000000000000c4f8                __mspabi_srai_9
                0x000000000000c4fa                __mspabi_srai_8
                0x000000000000c4fc                __mspabi_srai_7
                0x000000000000c4fe                __mspabi_srai_6
                0x000000000000c500                __mspabi_srai_5
                0x000000000000c502                __mspabi_srai_4
                0x000000000000c504                __mspabi_srai_3
                0x000000000000c506                __mspabi_srai_2
                0x000000000000c508                __mspabi_srai_1
                0x000000000000c510                __mspabi_srai
                0x000000000000c516                __mspabi_sral_15
                0x000000000000c51a                __mspabi_sral_14
                0x000000000000c51e                __mspabi_sral_13
                0x000000000000c522                __mspabi_sral_12
                0x000000000000c526                __mspabi_sral_11
                0x000000000000c52a                __mspabi_sral_10
                0x000000000000c52e                __mspabi_sral_9
                0x000000000000c532                __mspabi_sral_8
                0x000000000000c536                __mspabi_sral_7
                0x000000000000c53a                __mspabi_sral_6
                0x000000000000c53e                __mspabi_sral_5
                0x000000000000c542                __mspabi_sral_4
                0x000000000000c546                __mspabi_sral_3
                0x000000000000c54a                __mspabi_sral_2
                0x000000000000c54e                __mspabi_sral_1
                0x000000000000c55a                __mspabi_sral
 .text          0x000000000000c560       0xb4 /root/ti-tools/part2/msp430-gcc-6.2.1.16_linux64/bin/../lib/gcc/msp430-elf/6.2.1/large/libgcc.a(srli.o)
                0x000000000000c560                __mspabi_srli_15
                0x000000000000c564                __mspabi_srli_14
                0x000000000000c568                __mspabi_srli_13
                0x000000000000c56c                __mspabi_srli_12
                0x000000000000c570                __mspabi_srli_11
                0x000000000000c574                __mspabi_srli_10
                0x000000000000c578                __mspabi_srli_9
                0x000000000000c57c                __mspabi_srli_8
                0x000000000000c580                __mspabi_srli_7
                0x000000000000c584                __mspabi_srli_6
                0x000000000000c588                __mspabi_srli_5
                0x000000000000c58c                __mspabi_srli_4
                0x000000000000c590                __mspabi_srli_3
                0x000000000000c594                __mspabi_srli_2
                0x000000000000c598                __mspabi_srli_1
                0x000000000000c5a4                __mspabi_srli
                0x000000000000c5aa                __mspabi_srll_15
                0x000000000000c5b0                __mspabi_srll_14
                0x000000000000c5b6                __mspabi_srll_13
                0x000000000000c5bc                __mspabi_srll_12
                0x000000000000c5c2                __mspabi_srll_11
                0x000000000000c5c8                __mspabi_srll_10
                0x000000000000c5ce                __mspabi_srll_9
                0x000000000000c5d4                __mspabi_srll_8
                0x000000000000c5da                __mspabi_srll_7
                0x000000000000c5e0                __mspabi_srll_6
                0x000000000000c5e6                __mspabi_srll_5
                0x000000000000c5ec                __mspabi_srll_4
                0x000000000000c5f2                __mspabi_srll_3
                0x000000000000c5f8                __mspabi_srll_2
                0x000000000000c5fe                __mspabi_srll_1
                0x000000000000c60e                __mspabi_srll
 .text          0x000000000000c614       0x28 /root/ti-tools/part2/msp430-gcc-6.2.1.16_linux64/bin/../lib/gcc/msp430-elf/6.2.1/large/libgcc.a(cmpsi2.o)
                0x000000000000c614                __cmpsi2
                0x000000000000c62c                __ucmpsi2
 .text.__mulsi2_f5
                0x000000000000c63c       0x22 /root/ti-tools/part2/msp430-gcc-6.2.1.16_linux64/bin/../lib/gcc/msp430-elf/6.2.1/large/libmul_f5.a(lib2hw_mul_f5.o)
                0x000000000000c63c                __mspabi_mpyl
                0x000000000000c63c                __mspabi_mpyl_f5hw
                0x000000000000c63c                __mulsi2_f5
 .text.memcpy   0x000000000000c65e       0x1e /root/ti-tools/part2/msp430-gcc-6.2.1.16_linux64/bin/../lib/gcc/msp430-elf/6.2.1/../../../../msp430-elf/lib/large/libc.a(lib_a-memcpy.o)
                0x000000000000c65e                memcpy
 .text.memset   0x000000000000c67c       0x1a /root/ti-tools/part2/msp430-gcc-6.2.1.16_linux64/bin/../lib/gcc/msp430-elf/6.2.1/../../../../msp430-elf/lib/large/libc.a(lib_a-memset.o)
                0x000000000000c67c                memset
 .text.memmove  0x000000000000c696       0x52 /root/ti-tools/part2/msp430-gcc-6.2.1.16_linux64/bin/../lib/gcc/msp430-elf/6.2.1/../../../../msp430-elf/lib/large/libc.a(lib_a-memmove.o)
                0x000000000000c696                memmove
 *(.text.*personality*)
 *(.gnu.warning)
 *(.interp .hash .dynsym .dynstr .gnu.version*)
                [!provide]                        PROVIDE (__etext, .)
                [!provide]                        PROVIDE (_etext, .)
                [!provide]                        PROVIDE (etext, .)
                0x000000000000c6e8                . = ALIGN (0x2)
 *(.init)
 *(.fini)
 *(.tm_clone_table)

.stack          0x000000000000c6e8      0x100
                0x000000000000c6e8                __main_thread_stack_end__ = .
 *(.stack)
                0x000000000000c7e8                . = (. + __idle_stack_size__)
 *fill*         0x000000000000c6e8      0x100 
                0x000000000000c7e8                PROVIDE (__stack, .)
                0x000000000000c7e8                . = ALIGN (0x2)
                0x000000000000c7e8                __main_thread_stack_base__ = .

.rodata         0x000000000000c7e8       0x23
                0x000000000000c7e8                . = ALIGN (0x2)
 *(.plt)
 *(.rodata .rodata.* .gnu.linkonce.r.* .const .const:*)
 .rodata        0x000000000000c7e8       0x23 build/obj/init.o
 *(.rodata1)
 *(.lower.rodata.* .lower.rodata)
 *(.gcc_except_table)
 *(.gcc_except_table.*)
                [!provide]                        PROVIDE (__preinit_array_start, .)
 *(.preinit_array)
                [!provide]                        PROVIDE (__preinit_array_end, .)
                [!provide]                        PROVIDE (__init_array_start, .)
 *(SORT(.init_array.*))
 *(.init_array)
                [!provide]                        PROVIDE (__init_array_end, .)
                [!provide]                        PROVIDE (__fini_array_start, .)
 *(.fini_array)
 *(SORT(.fini_array.*))
                [!provide]                        PROVIDE (__fini_array_end, .)

.rodata2        0x000000000000c80c       0x48
                0x000000000000c80c                . = ALIGN (0x2)
 *(.eh_frame_hdr)
 *(.eh_frame)
 .eh_frame      0x000000000000c80c       0x48 /root/ti-tools/part2/msp430-gcc-6.2.1.16_linux64/bin/../lib/gcc/msp430-elf/6.2.1/large/libgcc.a(_udivdi3.o)
 *crtbegin*.o(.ctors)
 *(EXCLUDE_FILE(*crtend*.o) .ctors)
 *(SORT(.ctors.*))
 *(.ctors)
 *crtbegin*.o(.dtors)
 *(EXCLUDE_FILE(*crtend*.o) .dtors)
 *(SORT(.dtors.*))
 *(.dtors)

.persistent     0x000000000000c854     0x2712
                0x000000000000c854                . = ALIGN (0x2)
                [!provide]                        PROVIDE (__persistent_start, .)
 *(.persistent)
 .persistent    0x000000000000c854       0x62 build/obj/uart.o
                0x000000000000c854                A1_cfg
 .persistent    0x000000000000c8b6      0x434 build/obj/main.o
 .persistent    0x000000000000ccea      0x100 build/obj/registers.o
 .persistent    0x000000000000cdea        0x4 build/obj/slip_uart_dll.o
 .persistent    0x000000000000cdee       0x2c build/obj/sdlp.o
                0x000000000000cdee                DLLRxPktCfg
                0x000000000000cdef                DLLTxPktCfg
                0x000000000000cdf7                b_frames
                0x000000000000cdf8                a_frames
                0x000000000000cdf9                double_frames
                0x000000000000cdfa                missed_frames
                0x000000000000cdfb                seq_no
                0x000000000000cdfc                fecf
                0x000000000000cdfd                fec
 .persistent    0x000000000000ce1a       0x6c build/obj/fram.o
 .persistent    0x000000000000ce86       0xc6 build/obj/rf.o
                0x000000000000cef8                rf_spi_cfg
                0x000000000000cf08                rf_mbox
 .persistent    0x000000000000cf4c     0x201a build/obj/spp.o
                0x000000000000cf5c                packets_relayed
                0x000000000000cf5e                packets_sent
                0x000000000000cf60                packets_received
                0x000000000000ef62                elyNLMaxLen
                0x000000000000ef66                . = ALIGN (0x2)
                [!provide]                        PROVIDE (__persistent_end, .)

.data           0x0000000000001c00        0x0 load address 0x000000000000ef66
                0x0000000000001c00                . = ALIGN (0x2)
                [!provide]                        PROVIDE (__datastart, .)
 *(.jcr)
 *(.data.rel.ro.local)
 *(.data.rel.ro*)
 *(.dynamic)
 *(.data .data.* .gnu.linkonce.d.*)
 *(.gnu.linkonce.d.*personality*)
 *(.data1)
 *(.got.plt)
 *(.got)
                0x0000000000001c00                . = ALIGN (0x2)
 *(.sdata .sdata.* .gnu.linkonce.s.* D_2 D_1)
                0x0000000000001c00                . = ALIGN (0x2)
 *(.lower.data.* .lower.data)
                0x0000000000001c00                . = ALIGN (0x2)
                0x0000000000001c00                _edata = .
                [!provide]                        PROVIDE (edata, .)
                [!provide]                        PROVIDE (__dataend, .)
                [!provide]                        PROVIDE (__romdatastart, LOADADDR (.data))
                [!provide]                        PROVIDE (__romdatacopysize, SIZEOF (.data))

.bss            0x000000000000ef66      0x2dc
                0x000000000000ef66                . = ALIGN (0x2)
                0x000000000000ef66                PROVIDE (__bssstart, .)
 *(.dynbss)
 *(.sbss .sbss.*)
 *(.bss .bss.* .gnu.linkonce.b.*)
 .bss           0x000000000000ef66        0x8 build/obj/chmemcore.o
 .bss           0x000000000000ef6e        0xe build/obj/chheap.o
 .bss           0x000000000000ef7c       0x1a build/obj/hal_dma_lld.o
 .bss           0x000000000000ef96        0x2 build/obj/hal_spi_lld.o
 .bss           0x000000000000ef98        0x4 build/obj/sx1212.o
 .bss           0x000000000000ef9c        0xa build/obj/uart.o
 .bss           0x000000000000efa6       0x46 build/obj/cmds.o
 .bss           0x000000000000efec        0x4 build/obj/registers.o
 .bss           0x000000000000eff0      0x22e build/obj/slip_uart_dll.o
 .bss           0x000000000000f21e        0x1 build/obj/crc_x25.o
 *fill*         0x000000000000f21f        0x1 
 .bss           0x000000000000f220       0x16 build/obj/sdlp.o
 .bss           0x000000000000f236        0x4 build/obj/fram.o
 .bss           0x000000000000f23a        0x4 build/obj/rf.o
 .bss           0x000000000000f23e        0x4 build/obj/spp.o
 *(.lower.bss.* .lower.bss)
                0x000000000000f242                . = ALIGN (0x2)
 *(COMMON)
                [!provide]                        PROVIDE (__bssend, .)
                0x00000000000002dc                PROVIDE (__bsssize, SIZEOF (.bss))

.noinit         0x000000000000f242        0x0
                0x000000000000f242                . = ALIGN (0x2)
                [!provide]                        PROVIDE (__noinit_start, .)
 *(.noinit)
                0x000000000000f242                . = ALIGN (0x2)
                [!provide]                        PROVIDE (__noinit_end, .)

.upper.rodata   0x0000000000010000      0xa3a
 *(.upper.rodata.* .upper.rodata)
 .upper.rodata  0x0000000000010000       0x8e build/obj/ch.o
 .upper.rodata  0x000000000001008e       0x62 build/obj/chmboxes.o
 .upper.rodata  0x00000000000100f0       0x14 build/obj/chmemcore.o
 .upper.rodata  0x0000000000010104       0x51 build/obj/chmempools.o
 .upper.rodata  0x0000000000010155       0x2d build/obj/osal.o
 .upper.rodata  0x0000000000010182       0x65 build/obj/hal_gpt.o
 .upper.rodata  0x00000000000101e7       0x4f build/obj/hal_i2c.o
 .upper.rodata  0x0000000000010236       0xa9 build/obj/hal_spi.o
 .upper.rodata  0x00000000000102df       0xc6 build/obj/hal_uart.o
 .upper.rodata  0x00000000000103a5       0x21 build/obj/hal_dma_lld.o
 .upper.rodata  0x00000000000103c6       0x1a build/obj/hal_spi_lld.o
 .upper.rodata  0x00000000000103e0      0x13d build/obj/hal_i2c_lld.o
 .upper.rodata  0x000000000001051d       0x22 build/obj/hal_uart_lld.o
 .upper.rodata  0x000000000001053f        0xe build/obj/hal_gpt_lld.o
 *fill*         0x000000000001054d        0x1 
 .upper.rodata  0x000000000001054e       0x1e build/obj/board.o
                0x000000000001054e                pal_default_config
 .upper.rodata  0x000000000001056c       0xd1 build/obj/sx1278.o
 .upper.rodata  0x000000000001063d       0xe0 build/obj/sx1212.o
 *fill*         0x000000000001071d        0x1 
 .upper.rodata  0x000000000001071e       0x3e build/obj/uart.o
 .upper.rodata  0x000000000001075c       0xe4 build/obj/cmds.o
 .upper.rodata  0x0000000000010840        0x8 build/obj/registers.o
                0x0000000000010840                bank0w
                0x0000000000010844                bank0p
 .upper.rodata  0x0000000000010848       0x48 build/obj/slip_uart_dll.o
 .upper.rodata  0x0000000000010890       0x27 build/obj/crc_x25.o
 .upper.rodata  0x00000000000108b7        0xb build/obj/crc_sdlp.o
 .upper.rodata  0x00000000000108c2       0x34 build/obj/sdlp.o
 .upper.rodata  0x00000000000108f6       0x55 build/obj/fram.o
 .upper.rodata  0x000000000001094b       0x87 build/obj/rf.o
 .upper.rodata  0x00000000000109d2       0x17 build/obj/spp.o
 *fill*         0x00000000000109e9        0x1 
 .upper.rodata  0x00000000000109ea       0x50 build/obj/init.o
                0x00000000000109ea                nil_thd_configs

.upper.data     0x0000000000010a3a      0x81e
                0x0000000000010a3a                __upper_data_init = LOADADDR (.upper.data)
                0x0000000000010a3a        0x2 SHORT 0x0
                0x0000000000010a3c                __high_datastart = .
 *(.upper.data.* .upper.data)
 .upper.data    0x0000000000010a3c        0x2 build/obj/main.o
 .upper.data    0x0000000000010a3e       0x14 build/obj/cmds.o
 .upper.data    0x0000000000010a52        0x1 build/obj/slip_uart_dll.o
 .upper.data    0x0000000000010a53      0x800 build/obj/sdlp.o
 *fill*         0x0000000000011253        0x1 
 .upper.data    0x0000000000011254        0x4 build/obj/fram.o
                0x0000000000011258                __high_dataend = .
                0x000000000000081c                __rom_highdatacopysize = (SIZEOF (.upper.data) - 0x2)

.upper.rom      0x0000000000011258      0x81c
                0x0000000000011258                __rom_highdatastart = .
                0x0000000000011a74                . = (. + __rom_highdatacopysize)
 *fill*         0x0000000000011258      0x81c 

.upper.bss      0x0000000000011a74      0x5ca
                0x0000000000011a74                . = ALIGN (0x2)
                0x0000000000011a74                __high_bssstart = .
 *(.upper.bss.* .upper.bss)
 .upper.bss     0x0000000000011a74       0x4e build/obj/ch.o
                0x0000000000011a74                nil
 .upper.bss     0x0000000000011ac2        0x1 build/obj/chcore.o
                0x0000000000011ac2                __msp430x_in_isr
 *fill*         0x0000000000011ac3        0x1 
 .upper.bss     0x0000000000011ac4       0x80 build/obj/hal_pal_lld.o
                0x0000000000011ac4                port_callback_map
 .upper.bss     0x0000000000011b44       0x5c build/obj/hal_spi_lld.o
                0x0000000000011b44                SPIDA0
 .upper.bss     0x0000000000011ba0       0x3e build/obj/hal_i2c_lld.o
                0x0000000000011ba0                I2CDB0
 .upper.bss     0x0000000000011bde       0x64 build/obj/hal_uart_lld.o
                0x0000000000011bde                UARTDA1
 .upper.bss     0x0000000000011c42        0xa build/obj/hal_gpt_lld.o
                0x0000000000011c42                GPTDA1
 .upper.bss     0x0000000000011c4c        0xc build/obj/sx1278.o
                0x0000000000011c4c                SX1278D1
 .upper.bss     0x0000000000011c58       0x22 build/obj/sx1212.o
                0x0000000000011c58                sending
                0x0000000000011c5a                tr
                0x0000000000011c5e                SX1212D1
 .upper.bss     0x0000000000011c7a      0x140 build/obj/uart.o
                0x0000000000011c7a                waUARTThd
 .upper.bss     0x0000000000011dba      0x140 build/obj/cmds.o
                0x0000000000011dba                waCmdThd
 .upper.bss     0x0000000000011efa      0x144 build/obj/rf.o
                0x0000000000011efa                waRFThd
                0x000000000001203a                rf_thd
                0x000000000001203e                . = ALIGN (0x2)
                0x000000000001203e                __high_bssend = .
                0x00000000000005ca                __high_bsssize = SIZEOF (.upper.bss)

.upper.text     0x000000000001203e        0x0
                0x000000000001203e                . = ALIGN (0x2)
 *(.upper.text.* .upper.text)

.info           0x0000000000001800       0xc8
                0x0000000000001800                . = ALIGN (0x2)
 *(.info)
 .info          0x0000000000001800       0xc8 build/obj/bootloader.o

.bootloader.flag
                0x00000000000019fc        0x2
                0x00000000000019fc                bootloader = .
                0x00000000000019fc        0x2 SHORT 0x0

.infoA

.infoB

.infoC

.infoD

.MP430.attributes
                0x0000000000000000      0x64a
 *(.MSP430.attributes)
 .MSP430.attributes
                0x0000000000000000       0x17 /root/ti-tools/part2/msp430-gcc-6.2.1.16_linux64/bin/../lib/gcc/msp430-elf/6.2.1/../../../../msp430-elf/lib/large/crt0-minrt.o
 .MSP430.attributes
                0x0000000000000017       0x17 build/obj/bootloader.o
 .MSP430.attributes
                0x000000000000002e       0x17 build/obj/ch.o
 .MSP430.attributes
                0x0000000000000045       0x17 build/obj/chmboxes.o
 .MSP430.attributes
                0x000000000000005c       0x17 build/obj/chmemcore.o
 .MSP430.attributes
                0x0000000000000073       0x17 build/obj/chheap.o
 .MSP430.attributes
                0x000000000000008a       0x17 build/obj/chmempools.o
 .MSP430.attributes
                0x00000000000000a1       0x17 build/obj/chcore.o
 .MSP430.attributes
                0x00000000000000b8       0x17 build/obj/osal.o
 .MSP430.attributes
                0x00000000000000cf       0x17 build/obj/hal.o
 .MSP430.attributes
                0x00000000000000e6       0x17 build/obj/hal_st.o
 .MSP430.attributes
                0x00000000000000fd       0x17 build/obj/hal_buffers.o
 .MSP430.attributes
                0x0000000000000114       0x17 build/obj/hal_queues.o
 .MSP430.attributes
                0x000000000000012b       0x17 build/obj/hal_mmcsd.o
 .MSP430.attributes
                0x0000000000000142       0x17 build/obj/hal_gpt.o
 .MSP430.attributes
                0x0000000000000159       0x17 build/obj/hal_i2c.o
 .MSP430.attributes
                0x0000000000000170       0x17 build/obj/hal_pal.o
 .MSP430.attributes
                0x0000000000000187       0x17 build/obj/hal_spi.o
 .MSP430.attributes
                0x000000000000019e       0x17 build/obj/hal_uart.o
 .MSP430.attributes
                0x00000000000001b5       0x17 build/obj/hal_lld.o
 .MSP430.attributes
                0x00000000000001cc       0x17 build/obj/hal_st_lld.o
 .MSP430.attributes
                0x00000000000001e3       0x17 build/obj/hal_serial_lld.o
 .MSP430.attributes
                0x00000000000001fa       0x17 build/obj/hal_pal_lld.o
 .MSP430.attributes
                0x0000000000000211       0x17 build/obj/hal_dma_lld.o
 .MSP430.attributes
                0x0000000000000228       0x17 build/obj/hal_spi_lld.o
 .MSP430.attributes
                0x000000000000023f       0x17 build/obj/hal_i2c_lld.o
 .MSP430.attributes
                0x0000000000000256       0x17 build/obj/hal_uart_lld.o
 .MSP430.attributes
                0x000000000000026d       0x17 build/obj/hal_gpt_lld.o
 .MSP430.attributes
                0x0000000000000284       0x17 build/obj/hal_adc_lld.o
 .MSP430.attributes
                0x000000000000029b       0x17 build/obj/board.o
 .MSP430.attributes
                0x00000000000002b2       0x17 build/obj/sx1278.o
 .MSP430.attributes
                0x00000000000002c9       0x17 build/obj/sx1212.o
 .MSP430.attributes
                0x00000000000002e0       0x17 build/obj/uart.o
 .MSP430.attributes
                0x00000000000002f7       0x17 build/obj/main.o
 .MSP430.attributes
                0x000000000000030e       0x17 build/obj/mych.o
 .MSP430.attributes
                0x0000000000000325       0x17 build/obj/cmds.o
 .MSP430.attributes
                0x000000000000033c       0x17 build/obj/registers.o
 .MSP430.attributes
                0x0000000000000353       0x17 build/obj/errors_stub.o
 .MSP430.attributes
                0x000000000000036a       0x17 build/obj/events_stub.o
 .MSP430.attributes
                0x0000000000000381       0x17 build/obj/channels_stub.o
 .MSP430.attributes
                0x0000000000000398       0x17 build/obj/telem_stub.o
 .MSP430.attributes
                0x00000000000003af       0x17 build/obj/slip_uart_dll.o
 .MSP430.attributes
                0x00000000000003c6       0x17 build/obj/crc_x25.o
 .MSP430.attributes
                0x00000000000003dd       0x17 build/obj/crc_sdlp.o
 .MSP430.attributes
                0x00000000000003f4       0x17 build/obj/sdlp.o
 .MSP430.attributes
                0x000000000000040b       0x17 build/obj/fram.o
 .MSP430.attributes
                0x0000000000000422       0x17 build/obj/rf.o
 .MSP430.attributes
                0x0000000000000439       0x17 build/obj/spp.o
 .MSP430.attributes
                0x0000000000000450       0x17 build/obj/msp_vectors.o
 .MSP430.attributes
                0x0000000000000467       0x17 build/obj/init.o
 .MSP430.attributes
                0x000000000000047e       0x17 /root/ti-tools/part2/msp430-gcc-6.2.1.16_linux64/bin/../lib/gcc/msp430-elf/6.2.1/large/libgcc.a(lib2divSI.o)
 .MSP430.attributes
                0x0000000000000495       0x17 /root/ti-tools/part2/msp430-gcc-6.2.1.16_linux64/bin/../lib/gcc/msp430-elf/6.2.1/large/libgcc.a(slli.o)
 .MSP430.attributes
                0x00000000000004ac       0x17 /root/ti-tools/part2/msp430-gcc-6.2.1.16_linux64/bin/../lib/gcc/msp430-elf/6.2.1/large/libgcc.a(srai.o)
 .MSP430.attributes
                0x00000000000004c3       0x17 /root/ti-tools/part2/msp430-gcc-6.2.1.16_linux64/bin/../lib/gcc/msp430-elf/6.2.1/large/libgcc.a(srli.o)
 .MSP430.attributes
                0x00000000000004da       0x17 /root/ti-tools/part2/msp430-gcc-6.2.1.16_linux64/bin/../lib/gcc/msp430-elf/6.2.1/large/libgcc.a(cmpsi2.o)
 .MSP430.attributes
                0x00000000000004f1       0x17 /root/ti-tools/part2/msp430-gcc-6.2.1.16_linux64/bin/../lib/gcc/msp430-elf/6.2.1/large/libgcc.a(_udivdi3.o)
 .MSP430.attributes
                0x0000000000000508       0x17 /root/ti-tools/part2/msp430-gcc-6.2.1.16_linux64/bin/../lib/gcc/msp430-elf/6.2.1/large/libgcc.a(_lshrdi3.o)
 .MSP430.attributes
                0x000000000000051f       0x17 /root/ti-tools/part2/msp430-gcc-6.2.1.16_linux64/bin/../lib/gcc/msp430-elf/6.2.1/large/libgcc.a(_ashldi3.o)
 .MSP430.attributes
                0x0000000000000536       0x17 /root/ti-tools/part2/msp430-gcc-6.2.1.16_linux64/bin/../lib/gcc/msp430-elf/6.2.1/large/libgcc.a(_clzdi2.o)
 .MSP430.attributes
                0x000000000000054d       0x17 /root/ti-tools/part2/msp430-gcc-6.2.1.16_linux64/bin/../lib/gcc/msp430-elf/6.2.1/large/libgcc.a(_clz.o)
 .MSP430.attributes
                0x0000000000000564       0x17 /root/ti-tools/part2/msp430-gcc-6.2.1.16_linux64/bin/../lib/gcc/msp430-elf/6.2.1/large/libmul_f5.a(lib2hw_mul_f5.o)
 .MSP430.attributes
                0x000000000000057b       0x17 /root/ti-tools/part2/msp430-gcc-6.2.1.16_linux64/bin/../lib/gcc/msp430-elf/6.2.1/../../../../msp430-elf/lib/large/libc.a(lib_a-memcpy.o)
 .MSP430.attributes
                0x0000000000000592       0x17 /root/ti-tools/part2/msp430-gcc-6.2.1.16_linux64/bin/../lib/gcc/msp430-elf/6.2.1/../../../../msp430-elf/lib/large/libc.a(lib_a-memset.o)
 .MSP430.attributes
                0x00000000000005a9       0x17 /root/ti-tools/part2/msp430-gcc-6.2.1.16_linux64/bin/../lib/gcc/msp430-elf/6.2.1/large/libgcc.a(_muldi3.o)
 .MSP430.attributes
                0x00000000000005c0       0x17 /root/ti-tools/part2/msp430-gcc-6.2.1.16_linux64/bin/../lib/gcc/msp430-elf/6.2.1/../../../../msp430-elf/lib/large/libcrt.a(crt_bss.o)
 .MSP430.attributes
                0x00000000000005d7       0x17 /root/ti-tools/part2/msp430-gcc-6.2.1.16_linux64/bin/../lib/gcc/msp430-elf/6.2.1/../../../../msp430-elf/lib/large/libcrt.a(crt_high_bss.o)
 .MSP430.attributes
                0x00000000000005ee       0x17 /root/ti-tools/part2/msp430-gcc-6.2.1.16_linux64/bin/../lib/gcc/msp430-elf/6.2.1/../../../../msp430-elf/lib/large/libcrt.a(crt_move_highdata.o)
 .MSP430.attributes
                0x0000000000000605       0x17 /root/ti-tools/part2/msp430-gcc-6.2.1.16_linux64/bin/../lib/gcc/msp430-elf/6.2.1/../../../../msp430-elf/lib/large/libcrt.a(crt_main_minrt.o)
 .MSP430.attributes
                0x000000000000061c       0x17 /root/ti-tools/part2/msp430-gcc-6.2.1.16_linux64/bin/../lib/gcc/msp430-elf/6.2.1/../../../../msp430-elf/lib/large/libc.a(lib_a-memmove.o)
 .MSP430.attributes
                0x0000000000000633       0x17 /root/ti-tools/part2/msp430-gcc-6.2.1.16_linux64/bin/../lib/gcc/msp430-elf/6.2.1/../../../../msp430-elf/lib/large/crtn-minrt.o
 *(.gnu.attributes)
 *(__TI_build_attributes)

.stab
 *(.stab)

.stabstr
 *(.stabstr)

.stab.excl
 *(.stab.excl)

.stab.exclstr
 *(.stab.exclstr)

.stab.index
 *(.stab.index)

.stab.indexstr
 *(.stab.indexstr)

.comment        0x0000000000000000       0x49
 *(.comment)
 .comment       0x0000000000000000       0x49 build/obj/ch.o
                                         0x4a (size before relaxing)
 .comment       0x0000000000000049       0x4a build/obj/chmboxes.o
 .comment       0x0000000000000049       0x4a build/obj/chmemcore.o
 .comment       0x0000000000000049       0x4a build/obj/chheap.o
 .comment       0x0000000000000049       0x4a build/obj/chmempools.o
 .comment       0x0000000000000049       0x4a build/obj/chcore.o
 .comment       0x0000000000000049       0x4a build/obj/osal.o
 .comment       0x0000000000000049       0x4a build/obj/hal.o
 .comment       0x0000000000000049       0x4a build/obj/hal_st.o
 .comment       0x0000000000000049       0x4a build/obj/hal_buffers.o
 .comment       0x0000000000000049       0x4a build/obj/hal_queues.o
 .comment       0x0000000000000049       0x4a build/obj/hal_mmcsd.o
 .comment       0x0000000000000049       0x4a build/obj/hal_gpt.o
 .comment       0x0000000000000049       0x4a build/obj/hal_i2c.o
 .comment       0x0000000000000049       0x4a build/obj/hal_pal.o
 .comment       0x0000000000000049       0x4a build/obj/hal_spi.o
 .comment       0x0000000000000049       0x4a build/obj/hal_uart.o
 .comment       0x0000000000000049       0x4a build/obj/hal_lld.o
 .comment       0x0000000000000049       0x4a build/obj/hal_st_lld.o
 .comment       0x0000000000000049       0x4a build/obj/hal_serial_lld.o
 .comment       0x0000000000000049       0x4a build/obj/hal_pal_lld.o
 .comment       0x0000000000000049       0x4a build/obj/hal_dma_lld.o
 .comment       0x0000000000000049       0x4a build/obj/hal_spi_lld.o
 .comment       0x0000000000000049       0x4a build/obj/hal_i2c_lld.o
 .comment       0x0000000000000049       0x4a build/obj/hal_uart_lld.o
 .comment       0x0000000000000049       0x4a build/obj/hal_gpt_lld.o
 .comment       0x0000000000000049       0x4a build/obj/hal_adc_lld.o
 .comment       0x0000000000000049       0x4a build/obj/board.o
 .comment       0x0000000000000049       0x4a build/obj/sx1278.o
 .comment       0x0000000000000049       0x4a build/obj/sx1212.o
 .comment       0x0000000000000049       0x4a build/obj/uart.o
 .comment       0x0000000000000049       0x4a build/obj/main.o
 .comment       0x0000000000000049       0x4a build/obj/mych.o
 .comment       0x0000000000000049       0x4a build/obj/cmds.o
 .comment       0x0000000000000049       0x4a build/obj/registers.o
 .comment       0x0000000000000049       0x4a build/obj/errors_stub.o
 .comment       0x0000000000000049       0x4a build/obj/events_stub.o
 .comment       0x0000000000000049       0x4a build/obj/channels_stub.o
 .comment       0x0000000000000049       0x4a build/obj/telem_stub.o
 .comment       0x0000000000000049       0x4a build/obj/slip_uart_dll.o
 .comment       0x0000000000000049       0x4a build/obj/crc_x25.o
 .comment       0x0000000000000049       0x4a build/obj/crc_sdlp.o
 .comment       0x0000000000000049       0x4a build/obj/sdlp.o
 .comment       0x0000000000000049       0x4a build/obj/fram.o
 .comment       0x0000000000000049       0x4a build/obj/rf.o
 .comment       0x0000000000000049       0x4a build/obj/spp.o
 .comment       0x0000000000000049       0x4a build/obj/msp_vectors.o
 .comment       0x0000000000000049       0x4a build/obj/init.o
 .comment       0x0000000000000049       0x4a /root/ti-tools/part2/msp430-gcc-6.2.1.16_linux64/bin/../lib/gcc/msp430-elf/6.2.1/large/libgcc.a(lib2divSI.o)
 .comment       0x0000000000000049       0x4a /root/ti-tools/part2/msp430-gcc-6.2.1.16_linux64/bin/../lib/gcc/msp430-elf/6.2.1/large/libgcc.a(_udivdi3.o)
 .comment       0x0000000000000049       0x4a /root/ti-tools/part2/msp430-gcc-6.2.1.16_linux64/bin/../lib/gcc/msp430-elf/6.2.1/large/libgcc.a(_lshrdi3.o)
 .comment       0x0000000000000049       0x4a /root/ti-tools/part2/msp430-gcc-6.2.1.16_linux64/bin/../lib/gcc/msp430-elf/6.2.1/large/libgcc.a(_ashldi3.o)
 .comment       0x0000000000000049       0x4a /root/ti-tools/part2/msp430-gcc-6.2.1.16_linux64/bin/../lib/gcc/msp430-elf/6.2.1/large/libgcc.a(_clzdi2.o)
 .comment       0x0000000000000049       0x4a /root/ti-tools/part2/msp430-gcc-6.2.1.16_linux64/bin/../lib/gcc/msp430-elf/6.2.1/large/libgcc.a(_clz.o)
 .comment       0x0000000000000049       0x4a /root/ti-tools/part2/msp430-gcc-6.2.1.16_linux64/bin/../lib/gcc/msp430-elf/6.2.1/../../../../msp430-elf/lib/large/libc.a(lib_a-memcpy.o)
 .comment       0x0000000000000049       0x4a /root/ti-tools/part2/msp430-gcc-6.2.1.16_linux64/bin/../lib/gcc/msp430-elf/6.2.1/../../../../msp430-elf/lib/large/libc.a(lib_a-memset.o)
 .comment       0x0000000000000049       0x4a /root/ti-tools/part2/msp430-gcc-6.2.1.16_linux64/bin/../lib/gcc/msp430-elf/6.2.1/large/libgcc.a(_muldi3.o)
 .comment       0x0000000000000049       0x4a /root/ti-tools/part2/msp430-gcc-6.2.1.16_linux64/bin/../lib/gcc/msp430-elf/6.2.1/../../../../msp430-elf/lib/large/libc.a(lib_a-memmove.o)

.debug
 *(.debug)

.line
 *(.line)

.debug_srcinfo
 *(.debug_srcinfo)

.debug_sfnames
 *(.debug_sfnames)

.debug_aranges
 *(.debug_aranges)

.debug_pubnames
 *(.debug_pubnames)

.debug_info
 *(.debug_info .gnu.linkonce.wi.*)

.debug_abbrev
 *(.debug_abbrev)

.debug_line
 *(.debug_line .debug_line.* .debug_line_end)

.debug_frame
 *(.debug_frame)

.debug_str
 *(.debug_str)

.debug_loc
 *(.debug_loc)

.debug_macinfo
 *(.debug_macinfo)

.debug_weaknames
 *(.debug_weaknames)

.debug_funcnames
 *(.debug_funcnames)

.debug_typenames
 *(.debug_typenames)

.debug_varnames
 *(.debug_varnames)

.debug_pubtypes
 *(.debug_pubtypes)

.debug_ranges
 *(.debug_ranges)

.debug_macro
 *(.debug_macro)

/DISCARD/
 *(.note.GNU-stack)
                [!provide]                        PROVIDE (ADC12CTL0, 0x800)
                [!provide]                        PROVIDE (ADC12CTL0_L, 0x800)
                [!provide]                        PROVIDE (ADC12CTL0_H, 0x801)
                [!provide]                        PROVIDE (ADC12CTL1, 0x802)
                [!provide]                        PROVIDE (ADC12CTL1_L, 0x802)
                [!provide]                        PROVIDE (ADC12CTL1_H, 0x803)
                [!provide]                        PROVIDE (ADC12CTL2, 0x804)
                [!provide]                        PROVIDE (ADC12CTL2_L, 0x804)
                [!provide]                        PROVIDE (ADC12CTL2_H, 0x805)
                [!provide]                        PROVIDE (ADC12CTL3, 0x806)
                [!provide]                        PROVIDE (ADC12CTL3_L, 0x806)
                [!provide]                        PROVIDE (ADC12CTL3_H, 0x807)
                [!provide]                        PROVIDE (ADC12LO, 0x808)
                [!provide]                        PROVIDE (ADC12LO_L, 0x808)
                [!provide]                        PROVIDE (ADC12LO_H, 0x809)
                [!provide]                        PROVIDE (ADC12HI, 0x80a)
                [!provide]                        PROVIDE (ADC12HI_L, 0x80a)
                [!provide]                        PROVIDE (ADC12HI_H, 0x80b)
                [!provide]                        PROVIDE (ADC12IFGR0, 0x80c)
                [!provide]                        PROVIDE (ADC12IFGR0_L, 0x80c)
                [!provide]                        PROVIDE (ADC12IFGR0_H, 0x80d)
                [!provide]                        PROVIDE (ADC12IFGR1, 0x80e)
                [!provide]                        PROVIDE (ADC12IFGR1_L, 0x80e)
                [!provide]                        PROVIDE (ADC12IFGR1_H, 0x80f)
                [!provide]                        PROVIDE (ADC12IFGR2, 0x810)
                [!provide]                        PROVIDE (ADC12IFGR2_L, 0x810)
                [!provide]                        PROVIDE (ADC12IFGR2_H, 0x811)
                [!provide]                        PROVIDE (ADC12IER0, 0x812)
                [!provide]                        PROVIDE (ADC12IER0_L, 0x812)
                [!provide]                        PROVIDE (ADC12IER0_H, 0x813)
                [!provide]                        PROVIDE (ADC12IER1, 0x814)
                [!provide]                        PROVIDE (ADC12IER1_L, 0x814)
                [!provide]                        PROVIDE (ADC12IER1_H, 0x815)
                [!provide]                        PROVIDE (ADC12IER2, 0x816)
                [!provide]                        PROVIDE (ADC12IER2_L, 0x816)
                [!provide]                        PROVIDE (ADC12IER2_H, 0x817)
                [!provide]                        PROVIDE (ADC12IV, 0x818)
                [!provide]                        PROVIDE (ADC12IV_L, 0x818)
                [!provide]                        PROVIDE (ADC12IV_H, 0x819)
                [!provide]                        PROVIDE (ADC12MCTL0, 0x820)
                [!provide]                        PROVIDE (ADC12MCTL0_L, 0x820)
                [!provide]                        PROVIDE (ADC12MCTL0_H, 0x821)
                [!provide]                        PROVIDE (ADC12MCTL1, 0x822)
                [!provide]                        PROVIDE (ADC12MCTL1_L, 0x822)
                [!provide]                        PROVIDE (ADC12MCTL1_H, 0x823)
                [!provide]                        PROVIDE (ADC12MCTL2, 0x824)
                [!provide]                        PROVIDE (ADC12MCTL2_L, 0x824)
                [!provide]                        PROVIDE (ADC12MCTL2_H, 0x825)
                [!provide]                        PROVIDE (ADC12MCTL3, 0x826)
                [!provide]                        PROVIDE (ADC12MCTL3_L, 0x826)
                [!provide]                        PROVIDE (ADC12MCTL3_H, 0x827)
                [!provide]                        PROVIDE (ADC12MCTL4, 0x828)
                [!provide]                        PROVIDE (ADC12MCTL4_L, 0x828)
                [!provide]                        PROVIDE (ADC12MCTL4_H, 0x829)
                [!provide]                        PROVIDE (ADC12MCTL5, 0x82a)
                [!provide]                        PROVIDE (ADC12MCTL5_L, 0x82a)
                [!provide]                        PROVIDE (ADC12MCTL5_H, 0x82b)
                [!provide]                        PROVIDE (ADC12MCTL6, 0x82c)
                [!provide]                        PROVIDE (ADC12MCTL6_L, 0x82c)
                [!provide]                        PROVIDE (ADC12MCTL6_H, 0x82d)
                [!provide]                        PROVIDE (ADC12MCTL7, 0x82e)
                [!provide]                        PROVIDE (ADC12MCTL7_L, 0x82e)
                [!provide]                        PROVIDE (ADC12MCTL7_H, 0x82f)
                [!provide]                        PROVIDE (ADC12MCTL8, 0x830)
                [!provide]                        PROVIDE (ADC12MCTL8_L, 0x830)
                [!provide]                        PROVIDE (ADC12MCTL8_H, 0x831)
                [!provide]                        PROVIDE (ADC12MCTL9, 0x832)
                [!provide]                        PROVIDE (ADC12MCTL9_L, 0x832)
                [!provide]                        PROVIDE (ADC12MCTL9_H, 0x833)
                [!provide]                        PROVIDE (ADC12MCTL10, 0x834)
                [!provide]                        PROVIDE (ADC12MCTL10_L, 0x834)
                [!provide]                        PROVIDE (ADC12MCTL10_H, 0x835)
                [!provide]                        PROVIDE (ADC12MCTL11, 0x836)
                [!provide]                        PROVIDE (ADC12MCTL11_L, 0x836)
                [!provide]                        PROVIDE (ADC12MCTL11_H, 0x837)
                [!provide]                        PROVIDE (ADC12MCTL12, 0x838)
                [!provide]                        PROVIDE (ADC12MCTL12_L, 0x838)
                [!provide]                        PROVIDE (ADC12MCTL12_H, 0x839)
                [!provide]                        PROVIDE (ADC12MCTL13, 0x83a)
                [!provide]                        PROVIDE (ADC12MCTL13_L, 0x83a)
                [!provide]                        PROVIDE (ADC12MCTL13_H, 0x83b)
                [!provide]                        PROVIDE (ADC12MCTL14, 0x83c)
                [!provide]                        PROVIDE (ADC12MCTL14_L, 0x83c)
                [!provide]                        PROVIDE (ADC12MCTL14_H, 0x83d)
                [!provide]                        PROVIDE (ADC12MCTL15, 0x83e)
                [!provide]                        PROVIDE (ADC12MCTL15_L, 0x83e)
                [!provide]                        PROVIDE (ADC12MCTL15_H, 0x83f)
                [!provide]                        PROVIDE (ADC12MCTL16, 0x840)
                [!provide]                        PROVIDE (ADC12MCTL16_L, 0x840)
                [!provide]                        PROVIDE (ADC12MCTL16_H, 0x841)
                [!provide]                        PROVIDE (ADC12MCTL17, 0x842)
                [!provide]                        PROVIDE (ADC12MCTL17_L, 0x842)
                [!provide]                        PROVIDE (ADC12MCTL17_H, 0x843)
                [!provide]                        PROVIDE (ADC12MCTL18, 0x844)
                [!provide]                        PROVIDE (ADC12MCTL18_L, 0x844)
                [!provide]                        PROVIDE (ADC12MCTL18_H, 0x845)
                [!provide]                        PROVIDE (ADC12MCTL19, 0x846)
                [!provide]                        PROVIDE (ADC12MCTL19_L, 0x846)
                [!provide]                        PROVIDE (ADC12MCTL19_H, 0x847)
                [!provide]                        PROVIDE (ADC12MCTL20, 0x848)
                [!provide]                        PROVIDE (ADC12MCTL20_L, 0x848)
                [!provide]                        PROVIDE (ADC12MCTL20_H, 0x849)
                [!provide]                        PROVIDE (ADC12MCTL21, 0x84a)
                [!provide]                        PROVIDE (ADC12MCTL21_L, 0x84a)
                [!provide]                        PROVIDE (ADC12MCTL21_H, 0x84b)
                [!provide]                        PROVIDE (ADC12MCTL22, 0x84c)
                [!provide]                        PROVIDE (ADC12MCTL22_L, 0x84c)
                [!provide]                        PROVIDE (ADC12MCTL22_H, 0x84d)
                [!provide]                        PROVIDE (ADC12MCTL23, 0x84e)
                [!provide]                        PROVIDE (ADC12MCTL23_L, 0x84e)
                [!provide]                        PROVIDE (ADC12MCTL23_H, 0x84f)
                [!provide]                        PROVIDE (ADC12MCTL24, 0x850)
                [!provide]                        PROVIDE (ADC12MCTL24_L, 0x850)
                [!provide]                        PROVIDE (ADC12MCTL24_H, 0x851)
                [!provide]                        PROVIDE (ADC12MCTL25, 0x852)
                [!provide]                        PROVIDE (ADC12MCTL25_L, 0x852)
                [!provide]                        PROVIDE (ADC12MCTL25_H, 0x853)
                [!provide]                        PROVIDE (ADC12MCTL26, 0x854)
                [!provide]                        PROVIDE (ADC12MCTL26_L, 0x854)
                [!provide]                        PROVIDE (ADC12MCTL26_H, 0x855)
                [!provide]                        PROVIDE (ADC12MCTL27, 0x856)
                [!provide]                        PROVIDE (ADC12MCTL27_L, 0x856)
                [!provide]                        PROVIDE (ADC12MCTL27_H, 0x857)
                [!provide]                        PROVIDE (ADC12MCTL28, 0x858)
                [!provide]                        PROVIDE (ADC12MCTL28_L, 0x858)
                [!provide]                        PROVIDE (ADC12MCTL28_H, 0x859)
                [!provide]                        PROVIDE (ADC12MCTL29, 0x85a)
                [!provide]                        PROVIDE (ADC12MCTL29_L, 0x85a)
                [!provide]                        PROVIDE (ADC12MCTL29_H, 0x85b)
                [!provide]                        PROVIDE (ADC12MCTL30, 0x85c)
                [!provide]                        PROVIDE (ADC12MCTL30_L, 0x85c)
                [!provide]                        PROVIDE (ADC12MCTL30_H, 0x85d)
                [!provide]                        PROVIDE (ADC12MCTL31, 0x85e)
                [!provide]                        PROVIDE (ADC12MCTL31_L, 0x85e)
                [!provide]                        PROVIDE (ADC12MCTL31_H, 0x85f)
                [!provide]                        PROVIDE (ADC12MEM0, 0x860)
                [!provide]                        PROVIDE (ADC12MEM0_L, 0x860)
                [!provide]                        PROVIDE (ADC12MEM0_H, 0x861)
                [!provide]                        PROVIDE (ADC12MEM1, 0x862)
                [!provide]                        PROVIDE (ADC12MEM1_L, 0x862)
                [!provide]                        PROVIDE (ADC12MEM1_H, 0x863)
                [!provide]                        PROVIDE (ADC12MEM2, 0x864)
                [!provide]                        PROVIDE (ADC12MEM2_L, 0x864)
                [!provide]                        PROVIDE (ADC12MEM2_H, 0x865)
                [!provide]                        PROVIDE (ADC12MEM3, 0x866)
                [!provide]                        PROVIDE (ADC12MEM3_L, 0x866)
                [!provide]                        PROVIDE (ADC12MEM3_H, 0x867)
                [!provide]                        PROVIDE (ADC12MEM4, 0x868)
                [!provide]                        PROVIDE (ADC12MEM4_L, 0x868)
                [!provide]                        PROVIDE (ADC12MEM4_H, 0x869)
                [!provide]                        PROVIDE (ADC12MEM5, 0x86a)
                [!provide]                        PROVIDE (ADC12MEM5_L, 0x86a)
                [!provide]                        PROVIDE (ADC12MEM5_H, 0x86b)
                [!provide]                        PROVIDE (ADC12MEM6, 0x86c)
                [!provide]                        PROVIDE (ADC12MEM6_L, 0x86c)
                [!provide]                        PROVIDE (ADC12MEM6_H, 0x86d)
                [!provide]                        PROVIDE (ADC12MEM7, 0x86e)
                [!provide]                        PROVIDE (ADC12MEM7_L, 0x86e)
                [!provide]                        PROVIDE (ADC12MEM7_H, 0x86f)
                [!provide]                        PROVIDE (ADC12MEM8, 0x870)
                [!provide]                        PROVIDE (ADC12MEM8_L, 0x870)
                [!provide]                        PROVIDE (ADC12MEM8_H, 0x871)
                [!provide]                        PROVIDE (ADC12MEM9, 0x872)
                [!provide]                        PROVIDE (ADC12MEM9_L, 0x872)
                [!provide]                        PROVIDE (ADC12MEM9_H, 0x873)
                [!provide]                        PROVIDE (ADC12MEM10, 0x874)
                [!provide]                        PROVIDE (ADC12MEM10_L, 0x874)
                [!provide]                        PROVIDE (ADC12MEM10_H, 0x875)
                [!provide]                        PROVIDE (ADC12MEM11, 0x876)
                [!provide]                        PROVIDE (ADC12MEM11_L, 0x876)
                [!provide]                        PROVIDE (ADC12MEM11_H, 0x877)
                [!provide]                        PROVIDE (ADC12MEM12, 0x878)
                [!provide]                        PROVIDE (ADC12MEM12_L, 0x878)
                [!provide]                        PROVIDE (ADC12MEM12_H, 0x879)
                [!provide]                        PROVIDE (ADC12MEM13, 0x87a)
                [!provide]                        PROVIDE (ADC12MEM13_L, 0x87a)
                [!provide]                        PROVIDE (ADC12MEM13_H, 0x87b)
                [!provide]                        PROVIDE (ADC12MEM14, 0x87c)
                [!provide]                        PROVIDE (ADC12MEM14_L, 0x87c)
                [!provide]                        PROVIDE (ADC12MEM14_H, 0x87d)
                [!provide]                        PROVIDE (ADC12MEM15, 0x87e)
                [!provide]                        PROVIDE (ADC12MEM15_L, 0x87e)
                [!provide]                        PROVIDE (ADC12MEM15_H, 0x87f)
                [!provide]                        PROVIDE (ADC12MEM16, 0x880)
                [!provide]                        PROVIDE (ADC12MEM16_L, 0x880)
                [!provide]                        PROVIDE (ADC12MEM16_H, 0x881)
                [!provide]                        PROVIDE (ADC12MEM17, 0x882)
                [!provide]                        PROVIDE (ADC12MEM17_L, 0x882)
                [!provide]                        PROVIDE (ADC12MEM17_H, 0x883)
                [!provide]                        PROVIDE (ADC12MEM18, 0x884)
                [!provide]                        PROVIDE (ADC12MEM18_L, 0x884)
                [!provide]                        PROVIDE (ADC12MEM18_H, 0x885)
                [!provide]                        PROVIDE (ADC12MEM19, 0x886)
                [!provide]                        PROVIDE (ADC12MEM19_L, 0x886)
                [!provide]                        PROVIDE (ADC12MEM19_H, 0x887)
                [!provide]                        PROVIDE (ADC12MEM20, 0x888)
                [!provide]                        PROVIDE (ADC12MEM20_L, 0x888)
                [!provide]                        PROVIDE (ADC12MEM20_H, 0x889)
                [!provide]                        PROVIDE (ADC12MEM21, 0x88a)
                [!provide]                        PROVIDE (ADC12MEM21_L, 0x88a)
                [!provide]                        PROVIDE (ADC12MEM21_H, 0x88b)
                [!provide]                        PROVIDE (ADC12MEM22, 0x88c)
                [!provide]                        PROVIDE (ADC12MEM22_L, 0x88c)
                [!provide]                        PROVIDE (ADC12MEM22_H, 0x88d)
                [!provide]                        PROVIDE (ADC12MEM23, 0x88e)
                [!provide]                        PROVIDE (ADC12MEM23_L, 0x88e)
                [!provide]                        PROVIDE (ADC12MEM23_H, 0x88f)
                [!provide]                        PROVIDE (ADC12MEM24, 0x890)
                [!provide]                        PROVIDE (ADC12MEM24_L, 0x890)
                [!provide]                        PROVIDE (ADC12MEM24_H, 0x891)
                [!provide]                        PROVIDE (ADC12MEM25, 0x892)
                [!provide]                        PROVIDE (ADC12MEM25_L, 0x892)
                [!provide]                        PROVIDE (ADC12MEM25_H, 0x893)
                [!provide]                        PROVIDE (ADC12MEM26, 0x894)
                [!provide]                        PROVIDE (ADC12MEM26_L, 0x894)
                [!provide]                        PROVIDE (ADC12MEM26_H, 0x895)
                [!provide]                        PROVIDE (ADC12MEM27, 0x896)
                [!provide]                        PROVIDE (ADC12MEM27_L, 0x896)
                [!provide]                        PROVIDE (ADC12MEM27_H, 0x897)
                [!provide]                        PROVIDE (ADC12MEM28, 0x898)
                [!provide]                        PROVIDE (ADC12MEM28_L, 0x898)
                [!provide]                        PROVIDE (ADC12MEM28_H, 0x899)
                [!provide]                        PROVIDE (ADC12MEM29, 0x89a)
                [!provide]                        PROVIDE (ADC12MEM29_L, 0x89a)
                [!provide]                        PROVIDE (ADC12MEM29_H, 0x89b)
                [!provide]                        PROVIDE (ADC12MEM30, 0x89c)
                [!provide]                        PROVIDE (ADC12MEM30_L, 0x89c)
                [!provide]                        PROVIDE (ADC12MEM30_H, 0x89d)
                [!provide]                        PROVIDE (ADC12MEM31, 0x89e)
                [!provide]                        PROVIDE (ADC12MEM31_L, 0x89e)
                [!provide]                        PROVIDE (ADC12MEM31_H, 0x89f)
                [!provide]                        PROVIDE (AESACTL0, 0x9c0)
                [!provide]                        PROVIDE (AESACTL0_L, 0x9c0)
                [!provide]                        PROVIDE (AESACTL0_H, 0x9c1)
                [!provide]                        PROVIDE (AESACTL1, 0x9c2)
                [!provide]                        PROVIDE (AESACTL1_L, 0x9c2)
                [!provide]                        PROVIDE (AESACTL1_H, 0x9c3)
                [!provide]                        PROVIDE (AESASTAT, 0x9c4)
                [!provide]                        PROVIDE (AESASTAT_L, 0x9c4)
                [!provide]                        PROVIDE (AESASTAT_H, 0x9c5)
                [!provide]                        PROVIDE (AESAKEY, 0x9c6)
                [!provide]                        PROVIDE (AESAKEY_L, 0x9c6)
                [!provide]                        PROVIDE (AESAKEY_H, 0x9c7)
                [!provide]                        PROVIDE (AESADIN, 0x9c8)
                [!provide]                        PROVIDE (AESADIN_L, 0x9c8)
                [!provide]                        PROVIDE (AESADIN_H, 0x9c9)
                [!provide]                        PROVIDE (AESADOUT, 0x9ca)
                [!provide]                        PROVIDE (AESADOUT_L, 0x9ca)
                [!provide]                        PROVIDE (AESADOUT_H, 0x9cb)
                [!provide]                        PROVIDE (AESAXDIN, 0x9cc)
                [!provide]                        PROVIDE (AESAXDIN_L, 0x9cc)
                [!provide]                        PROVIDE (AESAXDIN_H, 0x9cd)
                [!provide]                        PROVIDE (AESAXIN, 0x9ce)
                [!provide]                        PROVIDE (AESAXIN_L, 0x9ce)
                [!provide]                        PROVIDE (AESAXIN_H, 0x9cf)
                [!provide]                        PROVIDE (CAPTIO0CTL, 0x43e)
                [!provide]                        PROVIDE (CAPTIO0CTL_L, 0x43e)
                [!provide]                        PROVIDE (CAPTIO0CTL_H, 0x43f)
                [!provide]                        PROVIDE (CAPTIO1CTL, 0x47e)
                [!provide]                        PROVIDE (CAPTIO1CTL_L, 0x47e)
                [!provide]                        PROVIDE (CAPTIO1CTL_H, 0x47f)
                [!provide]                        PROVIDE (CECTL0, 0x8c0)
                [!provide]                        PROVIDE (CECTL0_L, 0x8c0)
                [!provide]                        PROVIDE (CECTL0_H, 0x8c1)
                [!provide]                        PROVIDE (CECTL1, 0x8c2)
                [!provide]                        PROVIDE (CECTL1_L, 0x8c2)
                [!provide]                        PROVIDE (CECTL1_H, 0x8c3)
                [!provide]                        PROVIDE (CECTL2, 0x8c4)
                [!provide]                        PROVIDE (CECTL2_L, 0x8c4)
                [!provide]                        PROVIDE (CECTL2_H, 0x8c5)
                [!provide]                        PROVIDE (CECTL3, 0x8c6)
                [!provide]                        PROVIDE (CECTL3_L, 0x8c6)
                [!provide]                        PROVIDE (CECTL3_H, 0x8c7)
                [!provide]                        PROVIDE (CEINT, 0x8cc)
                [!provide]                        PROVIDE (CEINT_L, 0x8cc)
                [!provide]                        PROVIDE (CEINT_H, 0x8cd)
                [!provide]                        PROVIDE (CEIV, 0x8ce)
                [!provide]                        PROVIDE (CEIV_L, 0x8ce)
                [!provide]                        PROVIDE (CEIV_H, 0x8cf)
                [!provide]                        PROVIDE (CRCDI, 0x150)
                0x0000000000000150                PROVIDE (CRCDI_L, 0x150)
                [!provide]                        PROVIDE (CRCDI_H, 0x151)
                [!provide]                        PROVIDE (CRCDIRB, 0x152)
                0x0000000000000152                PROVIDE (CRCDIRB_L, 0x152)
                [!provide]                        PROVIDE (CRCDIRB_H, 0x153)
                0x0000000000000154                PROVIDE (CRCINIRES, 0x154)
                0x0000000000000154                PROVIDE (CRCINIRES_L, 0x154)
                0x0000000000000155                PROVIDE (CRCINIRES_H, 0x155)
                0x0000000000000156                PROVIDE (CRCRESR, 0x156)
                0x0000000000000156                PROVIDE (CRCRESR_L, 0x156)
                0x0000000000000157                PROVIDE (CRCRESR_H, 0x157)
                0x0000000000000160                PROVIDE (CSCTL0, 0x160)
                [!provide]                        PROVIDE (CSCTL0_L, 0x160)
                0x0000000000000161                PROVIDE (CSCTL0_H, 0x161)
                0x0000000000000162                PROVIDE (CSCTL1, 0x162)
                [!provide]                        PROVIDE (CSCTL1_L, 0x162)
                [!provide]                        PROVIDE (CSCTL1_H, 0x163)
                0x0000000000000164                PROVIDE (CSCTL2, 0x164)
                [!provide]                        PROVIDE (CSCTL2_L, 0x164)
                [!provide]                        PROVIDE (CSCTL2_H, 0x165)
                0x0000000000000166                PROVIDE (CSCTL3, 0x166)
                [!provide]                        PROVIDE (CSCTL3_L, 0x166)
                [!provide]                        PROVIDE (CSCTL3_H, 0x167)
                0x0000000000000168                PROVIDE (CSCTL4, 0x168)
                [!provide]                        PROVIDE (CSCTL4_L, 0x168)
                [!provide]                        PROVIDE (CSCTL4_H, 0x169)
                [!provide]                        PROVIDE (CSCTL5, 0x16a)
                [!provide]                        PROVIDE (CSCTL5_L, 0x16a)
                [!provide]                        PROVIDE (CSCTL5_H, 0x16b)
                0x000000000000016c                PROVIDE (CSCTL6, 0x16c)
                [!provide]                        PROVIDE (CSCTL6_L, 0x16c)
                [!provide]                        PROVIDE (CSCTL6_H, 0x16d)
                0x0000000000000500                PROVIDE (DMACTL0, 0x500)
                [!provide]                        PROVIDE (DMACTL0_L, 0x500)
                [!provide]                        PROVIDE (DMACTL0_H, 0x501)
                [!provide]                        PROVIDE (DMACTL1, 0x502)
                [!provide]                        PROVIDE (DMACTL1_L, 0x502)
                [!provide]                        PROVIDE (DMACTL1_H, 0x503)
                [!provide]                        PROVIDE (DMACTL2, 0x504)
                [!provide]                        PROVIDE (DMACTL2_L, 0x504)
                [!provide]                        PROVIDE (DMACTL2_H, 0x505)
                [!provide]                        PROVIDE (DMACTL3, 0x506)
                [!provide]                        PROVIDE (DMACTL3_L, 0x506)
                [!provide]                        PROVIDE (DMACTL3_H, 0x507)
                [!provide]                        PROVIDE (DMACTL4, 0x508)
                [!provide]                        PROVIDE (DMACTL4_L, 0x508)
                [!provide]                        PROVIDE (DMACTL4_H, 0x509)
                0x000000000000050e                PROVIDE (DMAIV, 0x50e)
                [!provide]                        PROVIDE (DMAIV_L, 0x50e)
                [!provide]                        PROVIDE (DMAIV_H, 0x50f)
                0x0000000000000510                PROVIDE (DMA0CTL, 0x510)
                [!provide]                        PROVIDE (DMA0CTL_L, 0x510)
                [!provide]                        PROVIDE (DMA0CTL_H, 0x511)
                0x0000000000000512                PROVIDE (DMA0SA, 0x512)
                [!provide]                        PROVIDE (DMA0SAL, 0x512)
                0x0000000000000516                PROVIDE (DMA0DA, 0x516)
                [!provide]                        PROVIDE (DMA0DAL, 0x516)
                0x000000000000051a                PROVIDE (DMA0SZ, 0x51a)
                [!provide]                        PROVIDE (DMA1CTL, 0x520)
                [!provide]                        PROVIDE (DMA1CTL_L, 0x520)
                [!provide]                        PROVIDE (DMA1CTL_H, 0x521)
                [!provide]                        PROVIDE (DMA1SA, 0x522)
                [!provide]                        PROVIDE (DMA1SAL, 0x522)
                [!provide]                        PROVIDE (DMA1DA, 0x526)
                [!provide]                        PROVIDE (DMA1DAL, 0x526)
                [!provide]                        PROVIDE (DMA1SZ, 0x52a)
                [!provide]                        PROVIDE (DMA2CTL, 0x530)
                [!provide]                        PROVIDE (DMA2CTL_L, 0x530)
                [!provide]                        PROVIDE (DMA2CTL_H, 0x531)
                [!provide]                        PROVIDE (DMA2SA, 0x532)
                [!provide]                        PROVIDE (DMA2SAL, 0x532)
                [!provide]                        PROVIDE (DMA2DA, 0x536)
                [!provide]                        PROVIDE (DMA2DAL, 0x536)
                [!provide]                        PROVIDE (DMA2SZ, 0x53a)
                0x0000000000000140                PROVIDE (FRCTL0, 0x140)
                [!provide]                        PROVIDE (FRCTL0_L, 0x140)
                0x0000000000000141                PROVIDE (FRCTL0_H, 0x141)
                [!provide]                        PROVIDE (GCCTL0, 0x144)
                [!provide]                        PROVIDE (GCCTL0_L, 0x144)
                [!provide]                        PROVIDE (GCCTL0_H, 0x145)
                [!provide]                        PROVIDE (GCCTL1, 0x146)
                [!provide]                        PROVIDE (GCCTL1_L, 0x146)
                [!provide]                        PROVIDE (GCCTL1_H, 0x147)
                [!provide]                        PROVIDE (MPUCTL0, 0x5a0)
                [!provide]                        PROVIDE (MPUCTL0_L, 0x5a0)
                [!provide]                        PROVIDE (MPUCTL0_H, 0x5a1)
                [!provide]                        PROVIDE (MPUCTL1, 0x5a2)
                [!provide]                        PROVIDE (MPUCTL1_L, 0x5a2)
                [!provide]                        PROVIDE (MPUCTL1_H, 0x5a3)
                [!provide]                        PROVIDE (MPUSEGB2, 0x5a4)
                [!provide]                        PROVIDE (MPUSEGB2_L, 0x5a4)
                [!provide]                        PROVIDE (MPUSEGB2_H, 0x5a5)
                [!provide]                        PROVIDE (MPUSEGB1, 0x5a6)
                [!provide]                        PROVIDE (MPUSEGB1_L, 0x5a6)
                [!provide]                        PROVIDE (MPUSEGB1_H, 0x5a7)
                [!provide]                        PROVIDE (MPUSAM, 0x5a8)
                [!provide]                        PROVIDE (MPUSAM_L, 0x5a8)
                [!provide]                        PROVIDE (MPUSAM_H, 0x5a9)
                [!provide]                        PROVIDE (MPUIPC0, 0x5aa)
                [!provide]                        PROVIDE (MPUIPC0_L, 0x5aa)
                [!provide]                        PROVIDE (MPUIPC0_H, 0x5ab)
                [!provide]                        PROVIDE (MPUIPSEGB2, 0x5ac)
                [!provide]                        PROVIDE (MPUIPSEGB2_L, 0x5ac)
                [!provide]                        PROVIDE (MPUIPSEGB2_H, 0x5ad)
                [!provide]                        PROVIDE (MPUIPSEGB1, 0x5ae)
                [!provide]                        PROVIDE (MPUIPSEGB1_L, 0x5ae)
                [!provide]                        PROVIDE (MPUIPSEGB1_H, 0x5af)
                [!provide]                        PROVIDE (MPY, 0x4c0)
                [!provide]                        PROVIDE (MPY_L, 0x4c0)
                [!provide]                        PROVIDE (MPY_H, 0x4c1)
                [!provide]                        PROVIDE (MPYS, 0x4c2)
                [!provide]                        PROVIDE (MPYS_L, 0x4c2)
                [!provide]                        PROVIDE (MPYS_H, 0x4c3)
                [!provide]                        PROVIDE (MAC, 0x4c4)
                [!provide]                        PROVIDE (MAC_L, 0x4c4)
                [!provide]                        PROVIDE (MAC_H, 0x4c5)
                [!provide]                        PROVIDE (MACS, 0x4c6)
                [!provide]                        PROVIDE (MACS_L, 0x4c6)
                [!provide]                        PROVIDE (MACS_H, 0x4c7)
                [!provide]                        PROVIDE (OP2, 0x4c8)
                [!provide]                        PROVIDE (OP2_L, 0x4c8)
                [!provide]                        PROVIDE (OP2_H, 0x4c9)
                [!provide]                        PROVIDE (RESLO, 0x4ca)
                [!provide]                        PROVIDE (RESLO_L, 0x4ca)
                [!provide]                        PROVIDE (RESLO_H, 0x4cb)
                [!provide]                        PROVIDE (RESHI, 0x4cc)
                [!provide]                        PROVIDE (RESHI_L, 0x4cc)
                [!provide]                        PROVIDE (RESHI_H, 0x4cd)
                [!provide]                        PROVIDE (SUMEXT, 0x4ce)
                [!provide]                        PROVIDE (SUMEXT_L, 0x4ce)
                [!provide]                        PROVIDE (SUMEXT_H, 0x4cf)
                [!provide]                        PROVIDE (MPY32L, 0x4d0)
                [!provide]                        PROVIDE (MPY32L_L, 0x4d0)
                [!provide]                        PROVIDE (MPY32L_H, 0x4d1)
                [!provide]                        PROVIDE (MPY32H, 0x4d2)
                [!provide]                        PROVIDE (MPY32H_L, 0x4d2)
                [!provide]                        PROVIDE (MPY32H_H, 0x4d3)
                [!provide]                        PROVIDE (MPYS32L, 0x4d4)
                [!provide]                        PROVIDE (MPYS32L_L, 0x4d4)
                [!provide]                        PROVIDE (MPYS32L_H, 0x4d5)
                [!provide]                        PROVIDE (MPYS32H, 0x4d6)
                [!provide]                        PROVIDE (MPYS32H_L, 0x4d6)
                [!provide]                        PROVIDE (MPYS32H_H, 0x4d7)
                [!provide]                        PROVIDE (MAC32L, 0x4d8)
                [!provide]                        PROVIDE (MAC32L_L, 0x4d8)
                [!provide]                        PROVIDE (MAC32L_H, 0x4d9)
                [!provide]                        PROVIDE (MAC32H, 0x4da)
                [!provide]                        PROVIDE (MAC32H_L, 0x4da)
                [!provide]                        PROVIDE (MAC32H_H, 0x4db)
                [!provide]                        PROVIDE (MACS32L, 0x4dc)
                [!provide]                        PROVIDE (MACS32L_L, 0x4dc)
                [!provide]                        PROVIDE (MACS32L_H, 0x4dd)
                [!provide]                        PROVIDE (MACS32H, 0x4de)
                [!provide]                        PROVIDE (MACS32H_L, 0x4de)
                [!provide]                        PROVIDE (MACS32H_H, 0x4df)
                [!provide]                        PROVIDE (OP2L, 0x4e0)
                [!provide]                        PROVIDE (OP2L_L, 0x4e0)
                [!provide]                        PROVIDE (OP2L_H, 0x4e1)
                [!provide]                        PROVIDE (OP2H, 0x4e2)
                [!provide]                        PROVIDE (OP2H_L, 0x4e2)
                [!provide]                        PROVIDE (OP2H_H, 0x4e3)
                [!provide]                        PROVIDE (RES0, 0x4e4)
                [!provide]                        PROVIDE (RES0_L, 0x4e4)
                [!provide]                        PROVIDE (RES0_H, 0x4e5)
                [!provide]                        PROVIDE (RES1, 0x4e6)
                [!provide]                        PROVIDE (RES1_L, 0x4e6)
                [!provide]                        PROVIDE (RES1_H, 0x4e7)
                [!provide]                        PROVIDE (RES2, 0x4e8)
                [!provide]                        PROVIDE (RES2_L, 0x4e8)
                [!provide]                        PROVIDE (RES2_H, 0x4e9)
                [!provide]                        PROVIDE (RES3, 0x4ea)
                [!provide]                        PROVIDE (RES3_L, 0x4ea)
                [!provide]                        PROVIDE (RES3_H, 0x4eb)
                [!provide]                        PROVIDE (MPY32CTL0, 0x4ec)
                [!provide]                        PROVIDE (MPY32CTL0_L, 0x4ec)
                [!provide]                        PROVIDE (MPY32CTL0_H, 0x4ed)
                0x0000000000000120                PROVIDE (PMMCTL0, 0x120)
                [!provide]                        PROVIDE (PMMCTL0_L, 0x120)
                [!provide]                        PROVIDE (PMMCTL0_H, 0x121)
                [!provide]                        PROVIDE (PMMIFG, 0x12a)
                [!provide]                        PROVIDE (PMMIFG_L, 0x12a)
                [!provide]                        PROVIDE (PMMIFG_H, 0x12b)
                0x0000000000000130                PROVIDE (PM5CTL0, 0x130)
                [!provide]                        PROVIDE (PM5CTL0_L, 0x130)
                [!provide]                        PROVIDE (PM5CTL0_H, 0x131)
                [!provide]                        PROVIDE (PAIN, 0x200)
                [!provide]                        PROVIDE (PAIN_L, 0x200)
                [!provide]                        PROVIDE (PAIN_H, 0x201)
                0x0000000000000202                PROVIDE (PAOUT, 0x202)
                0x0000000000000202                PROVIDE (PAOUT_L, 0x202)
                [!provide]                        PROVIDE (PAOUT_H, 0x203)
                0x0000000000000204                PROVIDE (PADIR, 0x204)
                0x0000000000000204                PROVIDE (PADIR_L, 0x204)
                [!provide]                        PROVIDE (PADIR_H, 0x205)
                0x0000000000000206                PROVIDE (PAREN, 0x206)
                0x0000000000000206                PROVIDE (PAREN_L, 0x206)
                [!provide]                        PROVIDE (PAREN_H, 0x207)
                0x000000000000020a                PROVIDE (PASEL0, 0x20a)
                0x000000000000020a                PROVIDE (PASEL0_L, 0x20a)
                [!provide]                        PROVIDE (PASEL0_H, 0x20b)
                0x000000000000020c                PROVIDE (PASEL1, 0x20c)
                0x000000000000020c                PROVIDE (PASEL1_L, 0x20c)
                [!provide]                        PROVIDE (PASEL1_H, 0x20d)
                [!provide]                        PROVIDE (PASELC, 0x216)
                [!provide]                        PROVIDE (PASELC_L, 0x216)
                [!provide]                        PROVIDE (PASELC_H, 0x217)
                [!provide]                        PROVIDE (PAIES, 0x218)
                [!provide]                        PROVIDE (PAIES_L, 0x218)
                [!provide]                        PROVIDE (PAIES_H, 0x219)
                [!provide]                        PROVIDE (PAIE, 0x21a)
                [!provide]                        PROVIDE (PAIE_L, 0x21a)
                [!provide]                        PROVIDE (PAIE_H, 0x21b)
                [!provide]                        PROVIDE (PAIFG, 0x21c)
                [!provide]                        PROVIDE (PAIFG_L, 0x21c)
                [!provide]                        PROVIDE (PAIFG_H, 0x21d)
                0x000000000000020e                PROVIDE (P1IV, 0x20e)
                0x000000000000021e                PROVIDE (P2IV, 0x21e)
                [!provide]                        PROVIDE (PBIN, 0x220)
                [!provide]                        PROVIDE (PBIN_L, 0x220)
                [!provide]                        PROVIDE (PBIN_H, 0x221)
                0x0000000000000222                PROVIDE (PBOUT, 0x222)
                [!provide]                        PROVIDE (PBOUT_L, 0x222)
                [!provide]                        PROVIDE (PBOUT_H, 0x223)
                0x0000000000000224                PROVIDE (PBDIR, 0x224)
                [!provide]                        PROVIDE (PBDIR_L, 0x224)
                [!provide]                        PROVIDE (PBDIR_H, 0x225)
                0x0000000000000226                PROVIDE (PBREN, 0x226)
                [!provide]                        PROVIDE (PBREN_L, 0x226)
                [!provide]                        PROVIDE (PBREN_H, 0x227)
                0x000000000000022a                PROVIDE (PBSEL0, 0x22a)
                [!provide]                        PROVIDE (PBSEL0_L, 0x22a)
                [!provide]                        PROVIDE (PBSEL0_H, 0x22b)
                0x000000000000022c                PROVIDE (PBSEL1, 0x22c)
                [!provide]                        PROVIDE (PBSEL1_L, 0x22c)
                [!provide]                        PROVIDE (PBSEL1_H, 0x22d)
                [!provide]                        PROVIDE (PBSELC, 0x236)
                [!provide]                        PROVIDE (PBSELC_L, 0x236)
                [!provide]                        PROVIDE (PBSELC_H, 0x237)
                [!provide]                        PROVIDE (PBIES, 0x238)
                [!provide]                        PROVIDE (PBIES_L, 0x238)
                [!provide]                        PROVIDE (PBIES_H, 0x239)
                [!provide]                        PROVIDE (PBIE, 0x23a)
                [!provide]                        PROVIDE (PBIE_L, 0x23a)
                [!provide]                        PROVIDE (PBIE_H, 0x23b)
                [!provide]                        PROVIDE (PBIFG, 0x23c)
                [!provide]                        PROVIDE (PBIFG_L, 0x23c)
                [!provide]                        PROVIDE (PBIFG_H, 0x23d)
                0x000000000000022e                PROVIDE (P3IV, 0x22e)
                0x000000000000023e                PROVIDE (P4IV, 0x23e)
                [!provide]                        PROVIDE (PJIN, 0x320)
                [!provide]                        PROVIDE (PJIN_L, 0x320)
                [!provide]                        PROVIDE (PJIN_H, 0x321)
                0x0000000000000322                PROVIDE (PJOUT, 0x322)
                [!provide]                        PROVIDE (PJOUT_L, 0x322)
                [!provide]                        PROVIDE (PJOUT_H, 0x323)
                0x0000000000000324                PROVIDE (PJDIR, 0x324)
                [!provide]                        PROVIDE (PJDIR_L, 0x324)
                [!provide]                        PROVIDE (PJDIR_H, 0x325)
                0x0000000000000326                PROVIDE (PJREN, 0x326)
                [!provide]                        PROVIDE (PJREN_L, 0x326)
                [!provide]                        PROVIDE (PJREN_H, 0x327)
                0x000000000000032a                PROVIDE (PJSEL0, 0x32a)
                [!provide]                        PROVIDE (PJSEL0_L, 0x32a)
                [!provide]                        PROVIDE (PJSEL0_H, 0x32b)
                0x000000000000032c                PROVIDE (PJSEL1, 0x32c)
                [!provide]                        PROVIDE (PJSEL1_L, 0x32c)
                [!provide]                        PROVIDE (PJSEL1_H, 0x32d)
                [!provide]                        PROVIDE (PJSELC, 0x336)
                [!provide]                        PROVIDE (PJSELC_L, 0x336)
                [!provide]                        PROVIDE (PJSELC_H, 0x337)
                [!provide]                        PROVIDE (REFCTL0, 0x1b0)
                [!provide]                        PROVIDE (REFCTL0_L, 0x1b0)
                [!provide]                        PROVIDE (REFCTL0_H, 0x1b1)
                [!provide]                        PROVIDE (RTCCTL01, 0x4a0)
                [!provide]                        PROVIDE (RTCCTL01_L, 0x4a0)
                [!provide]                        PROVIDE (RTCCTL01_H, 0x4a1)
                [!provide]                        PROVIDE (RTCCTL23, 0x4a2)
                [!provide]                        PROVIDE (RTCCTL23_L, 0x4a2)
                [!provide]                        PROVIDE (RTCCTL23_H, 0x4a3)
                [!provide]                        PROVIDE (RTCPS0CTL, 0x4a8)
                [!provide]                        PROVIDE (RTCPS0CTL_L, 0x4a8)
                [!provide]                        PROVIDE (RTCPS0CTL_H, 0x4a9)
                [!provide]                        PROVIDE (RTCPS1CTL, 0x4aa)
                [!provide]                        PROVIDE (RTCPS1CTL_L, 0x4aa)
                [!provide]                        PROVIDE (RTCPS1CTL_H, 0x4ab)
                [!provide]                        PROVIDE (RTCPS, 0x4ac)
                [!provide]                        PROVIDE (RTCPS_L, 0x4ac)
                [!provide]                        PROVIDE (RTCPS_H, 0x4ad)
                [!provide]                        PROVIDE (RTCIV, 0x4ae)
                [!provide]                        PROVIDE (RTCTIM0, 0x4b0)
                [!provide]                        PROVIDE (RTCTIM0_L, 0x4b0)
                [!provide]                        PROVIDE (RTCTIM0_H, 0x4b1)
                [!provide]                        PROVIDE (RTCTIM1, 0x4b2)
                [!provide]                        PROVIDE (RTCTIM1_L, 0x4b2)
                [!provide]                        PROVIDE (RTCTIM1_H, 0x4b3)
                [!provide]                        PROVIDE (RTCDATE, 0x4b4)
                [!provide]                        PROVIDE (RTCDATE_L, 0x4b4)
                [!provide]                        PROVIDE (RTCDATE_H, 0x4b5)
                [!provide]                        PROVIDE (RTCYEAR, 0x4b6)
                [!provide]                        PROVIDE (RTCYEAR_L, 0x4b6)
                [!provide]                        PROVIDE (RTCYEAR_H, 0x4b7)
                [!provide]                        PROVIDE (RTCAMINHR, 0x4b8)
                [!provide]                        PROVIDE (RTCAMINHR_L, 0x4b8)
                [!provide]                        PROVIDE (RTCAMINHR_H, 0x4b9)
                [!provide]                        PROVIDE (RTCADOWDAY, 0x4ba)
                [!provide]                        PROVIDE (RTCADOWDAY_L, 0x4ba)
                [!provide]                        PROVIDE (RTCADOWDAY_H, 0x4bb)
                [!provide]                        PROVIDE (BIN2BCD, 0x4bc)
                [!provide]                        PROVIDE (BCD2BIN, 0x4be)
                [!provide]                        PROVIDE (SFRIE1, 0x100)
                [!provide]                        PROVIDE (SFRIE1_L, 0x100)
                [!provide]                        PROVIDE (SFRIE1_H, 0x101)
                [!provide]                        PROVIDE (SFRIFG1, 0x102)
                [!provide]                        PROVIDE (SFRIFG1_L, 0x102)
                [!provide]                        PROVIDE (SFRIFG1_H, 0x103)
                [!provide]                        PROVIDE (SFRRPCR, 0x104)
                [!provide]                        PROVIDE (SFRRPCR_L, 0x104)
                [!provide]                        PROVIDE (SFRRPCR_H, 0x105)
                [!provide]                        PROVIDE (SYSCTL, 0x180)
                [!provide]                        PROVIDE (SYSCTL_L, 0x180)
                [!provide]                        PROVIDE (SYSCTL_H, 0x181)
                [!provide]                        PROVIDE (SYSJMBC, 0x186)
                [!provide]                        PROVIDE (SYSJMBC_L, 0x186)
                [!provide]                        PROVIDE (SYSJMBC_H, 0x187)
                [!provide]                        PROVIDE (SYSJMBI0, 0x188)
                [!provide]                        PROVIDE (SYSJMBI0_L, 0x188)
                [!provide]                        PROVIDE (SYSJMBI0_H, 0x189)
                [!provide]                        PROVIDE (SYSJMBI1, 0x18a)
                [!provide]                        PROVIDE (SYSJMBI1_L, 0x18a)
                [!provide]                        PROVIDE (SYSJMBI1_H, 0x18b)
                [!provide]                        PROVIDE (SYSJMBO0, 0x18c)
                [!provide]                        PROVIDE (SYSJMBO0_L, 0x18c)
                [!provide]                        PROVIDE (SYSJMBO0_H, 0x18d)
                [!provide]                        PROVIDE (SYSJMBO1, 0x18e)
                [!provide]                        PROVIDE (SYSJMBO1_L, 0x18e)
                [!provide]                        PROVIDE (SYSJMBO1_H, 0x18f)
                [!provide]                        PROVIDE (SYSUNIV, 0x19a)
                [!provide]                        PROVIDE (SYSUNIV_L, 0x19a)
                [!provide]                        PROVIDE (SYSUNIV_H, 0x19b)
                [!provide]                        PROVIDE (SYSSNIV, 0x19c)
                [!provide]                        PROVIDE (SYSSNIV_L, 0x19c)
                [!provide]                        PROVIDE (SYSSNIV_H, 0x19d)
                [!provide]                        PROVIDE (SYSRSTIV, 0x19e)
                [!provide]                        PROVIDE (SYSRSTIV_L, 0x19e)
                [!provide]                        PROVIDE (SYSRSTIV_H, 0x19f)
                [!provide]                        PROVIDE (TA0CTL, 0x340)
                [!provide]                        PROVIDE (TA0CCTL0, 0x342)
                [!provide]                        PROVIDE (TA0CCTL1, 0x344)
                [!provide]                        PROVIDE (TA0CCTL2, 0x346)
                [!provide]                        PROVIDE (TA0R, 0x350)
                [!provide]                        PROVIDE (TA0CCR0, 0x352)
                [!provide]                        PROVIDE (TA0CCR1, 0x354)
                [!provide]                        PROVIDE (TA0CCR2, 0x356)
                [!provide]                        PROVIDE (TA0IV, 0x36e)
                [!provide]                        PROVIDE (TA0EX0, 0x360)
                0x0000000000000380                PROVIDE (TA1CTL, 0x380)
                [!provide]                        PROVIDE (TA1CCTL0, 0x382)
                [!provide]                        PROVIDE (TA1CCTL1, 0x384)
                [!provide]                        PROVIDE (TA1CCTL2, 0x386)
                [!provide]                        PROVIDE (TA1R, 0x390)
                [!provide]                        PROVIDE (TA1CCR0, 0x392)
                [!provide]                        PROVIDE (TA1CCR1, 0x394)
                [!provide]                        PROVIDE (TA1CCR2, 0x396)
                0x00000000000003ae                PROVIDE (TA1IV, 0x3ae)
                [!provide]                        PROVIDE (TA1EX0, 0x3a0)
                [!provide]                        PROVIDE (TA2CTL, 0x400)
                [!provide]                        PROVIDE (TA2CCTL0, 0x402)
                [!provide]                        PROVIDE (TA2CCTL1, 0x404)
                [!provide]                        PROVIDE (TA2R, 0x410)
                [!provide]                        PROVIDE (TA2CCR0, 0x412)
                [!provide]                        PROVIDE (TA2CCR1, 0x414)
                [!provide]                        PROVIDE (TA2IV, 0x42e)
                [!provide]                        PROVIDE (TA2EX0, 0x420)
                [!provide]                        PROVIDE (TA3CTL, 0x440)
                [!provide]                        PROVIDE (TA3CCTL0, 0x442)
                [!provide]                        PROVIDE (TA3CCTL1, 0x444)
                [!provide]                        PROVIDE (TA3R, 0x450)
                [!provide]                        PROVIDE (TA3CCR0, 0x452)
                [!provide]                        PROVIDE (TA3CCR1, 0x454)
                [!provide]                        PROVIDE (TA3IV, 0x46e)
                [!provide]                        PROVIDE (TA3EX0, 0x460)
                0x00000000000003c0                PROVIDE (TB0CTL, 0x3c0)
                0x00000000000003c2                PROVIDE (TB0CCTL0, 0x3c2)
                [!provide]                        PROVIDE (TB0CCTL1, 0x3c4)
                [!provide]                        PROVIDE (TB0CCTL2, 0x3c6)
                [!provide]                        PROVIDE (TB0CCTL3, 0x3c8)
                [!provide]                        PROVIDE (TB0CCTL4, 0x3ca)
                [!provide]                        PROVIDE (TB0CCTL5, 0x3cc)
                [!provide]                        PROVIDE (TB0CCTL6, 0x3ce)
                [!provide]                        PROVIDE (TB0R, 0x3d0)
                0x00000000000003d2                PROVIDE (TB0CCR0, 0x3d2)
                [!provide]                        PROVIDE (TB0CCR1, 0x3d4)
                [!provide]                        PROVIDE (TB0CCR2, 0x3d6)
                [!provide]                        PROVIDE (TB0CCR3, 0x3d8)
                [!provide]                        PROVIDE (TB0CCR4, 0x3da)
                [!provide]                        PROVIDE (TB0CCR5, 0x3dc)
                [!provide]                        PROVIDE (TB0CCR6, 0x3de)
                0x00000000000003e0                PROVIDE (TB0EX0, 0x3e0)
                [!provide]                        PROVIDE (TB0IV, 0x3ee)
                0x00000000000005c0                PROVIDE (UCA0CTLW0, 0x5c0)
                [!provide]                        PROVIDE (UCA0CTLW0_L, 0x5c0)
                [!provide]                        PROVIDE (UCA0CTLW0_H, 0x5c1)
                [!provide]                        PROVIDE (UCA0CTLW1, 0x5c2)
                [!provide]                        PROVIDE (UCA0CTLW1_L, 0x5c2)
                [!provide]                        PROVIDE (UCA0CTLW1_H, 0x5c3)
                [!provide]                        PROVIDE (UCA0BRW, 0x5c6)
                [!provide]                        PROVIDE (UCA0BRW_L, 0x5c6)
                [!provide]                        PROVIDE (UCA0BRW_H, 0x5c7)
                [!provide]                        PROVIDE (UCA0MCTLW, 0x5c8)
                [!provide]                        PROVIDE (UCA0MCTLW_L, 0x5c8)
                [!provide]                        PROVIDE (UCA0MCTLW_H, 0x5c9)
                [!provide]                        PROVIDE (UCA0STATW, 0x5ca)
                [!provide]                        PROVIDE (UCA0RXBUF, 0x5cc)
                [!provide]                        PROVIDE (UCA0RXBUF_L, 0x5cc)
                [!provide]                        PROVIDE (UCA0RXBUF_H, 0x5cd)
                [!provide]                        PROVIDE (UCA0TXBUF, 0x5ce)
                [!provide]                        PROVIDE (UCA0TXBUF_L, 0x5ce)
                [!provide]                        PROVIDE (UCA0TXBUF_H, 0x5cf)
                [!provide]                        PROVIDE (UCA0ABCTL, 0x5d0)
                [!provide]                        PROVIDE (UCA0IRCTL, 0x5d2)
                [!provide]                        PROVIDE (UCA0IRCTL_L, 0x5d2)
                [!provide]                        PROVIDE (UCA0IRCTL_H, 0x5d3)
                [!provide]                        PROVIDE (UCA0IE, 0x5da)
                [!provide]                        PROVIDE (UCA0IE_L, 0x5da)
                [!provide]                        PROVIDE (UCA0IE_H, 0x5db)
                0x00000000000005dc                PROVIDE (UCA0IFG, 0x5dc)
                [!provide]                        PROVIDE (UCA0IFG_L, 0x5dc)
                [!provide]                        PROVIDE (UCA0IFG_H, 0x5dd)
                [!provide]                        PROVIDE (UCA0IV, 0x5de)
                0x00000000000005e0                PROVIDE (UCA1CTLW0, 0x5e0)
                [!provide]                        PROVIDE (UCA1CTLW0_L, 0x5e0)
                [!provide]                        PROVIDE (UCA1CTLW0_H, 0x5e1)
                [!provide]                        PROVIDE (UCA1CTLW1, 0x5e2)
                [!provide]                        PROVIDE (UCA1CTLW1_L, 0x5e2)
                [!provide]                        PROVIDE (UCA1CTLW1_H, 0x5e3)
                [!provide]                        PROVIDE (UCA1BRW, 0x5e6)
                [!provide]                        PROVIDE (UCA1BRW_L, 0x5e6)
                [!provide]                        PROVIDE (UCA1BRW_H, 0x5e7)
                [!provide]                        PROVIDE (UCA1MCTLW, 0x5e8)
                [!provide]                        PROVIDE (UCA1MCTLW_L, 0x5e8)
                [!provide]                        PROVIDE (UCA1MCTLW_H, 0x5e9)
                0x00000000000005ea                PROVIDE (UCA1STATW, 0x5ea)
                0x00000000000005ec                PROVIDE (UCA1RXBUF, 0x5ec)
                [!provide]                        PROVIDE (UCA1RXBUF_L, 0x5ec)
                [!provide]                        PROVIDE (UCA1RXBUF_H, 0x5ed)
                0x00000000000005ee                PROVIDE (UCA1TXBUF, 0x5ee)
                [!provide]                        PROVIDE (UCA1TXBUF_L, 0x5ee)
                [!provide]                        PROVIDE (UCA1TXBUF_H, 0x5ef)
                [!provide]                        PROVIDE (UCA1ABCTL, 0x5f0)
                [!provide]                        PROVIDE (UCA1IRCTL, 0x5f2)
                [!provide]                        PROVIDE (UCA1IRCTL_L, 0x5f2)
                [!provide]                        PROVIDE (UCA1IRCTL_H, 0x5f3)
                0x00000000000005fa                PROVIDE (UCA1IE, 0x5fa)
                [!provide]                        PROVIDE (UCA1IE_L, 0x5fa)
                [!provide]                        PROVIDE (UCA1IE_H, 0x5fb)
                0x00000000000005fc                PROVIDE (UCA1IFG, 0x5fc)
                [!provide]                        PROVIDE (UCA1IFG_L, 0x5fc)
                [!provide]                        PROVIDE (UCA1IFG_H, 0x5fd)
                0x00000000000005fe                PROVIDE (UCA1IV, 0x5fe)
                0x0000000000000640                PROVIDE (UCB0CTLW0, 0x640)
                [!provide]                        PROVIDE (UCB0CTLW0_L, 0x640)
                [!provide]                        PROVIDE (UCB0CTLW0_H, 0x641)
                0x0000000000000642                PROVIDE (UCB0CTLW1, 0x642)
                [!provide]                        PROVIDE (UCB0CTLW1_L, 0x642)
                [!provide]                        PROVIDE (UCB0CTLW1_H, 0x643)
                0x0000000000000646                PROVIDE (UCB0BRW, 0x646)
                [!provide]                        PROVIDE (UCB0BRW_L, 0x646)
                [!provide]                        PROVIDE (UCB0BRW_H, 0x647)
                [!provide]                        PROVIDE (UCB0STATW, 0x648)
                [!provide]                        PROVIDE (UCB0STATW_L, 0x648)
                [!provide]                        PROVIDE (UCB0STATW_H, 0x649)
                [!provide]                        PROVIDE (UCB0TBCNT, 0x64a)
                [!provide]                        PROVIDE (UCB0TBCNT_L, 0x64a)
                [!provide]                        PROVIDE (UCB0TBCNT_H, 0x64b)
                0x000000000000064c                PROVIDE (UCB0RXBUF, 0x64c)
                0x000000000000064c                PROVIDE (UCB0RXBUF_L, 0x64c)
                [!provide]                        PROVIDE (UCB0RXBUF_H, 0x64d)
                0x000000000000064e                PROVIDE (UCB0TXBUF, 0x64e)
                [!provide]                        PROVIDE (UCB0TXBUF_L, 0x64e)
                [!provide]                        PROVIDE (UCB0TXBUF_H, 0x64f)
                [!provide]                        PROVIDE (UCB0I2COA0, 0x654)
                [!provide]                        PROVIDE (UCB0I2COA0_L, 0x654)
                [!provide]                        PROVIDE (UCB0I2COA0_H, 0x655)
                [!provide]                        PROVIDE (UCB0I2COA1, 0x656)
                [!provide]                        PROVIDE (UCB0I2COA1_L, 0x656)
                [!provide]                        PROVIDE (UCB0I2COA1_H, 0x657)
                [!provide]                        PROVIDE (UCB0I2COA2, 0x658)
                [!provide]                        PROVIDE (UCB0I2COA2_L, 0x658)
                [!provide]                        PROVIDE (UCB0I2COA2_H, 0x659)
                [!provide]                        PROVIDE (UCB0I2COA3, 0x65a)
                [!provide]                        PROVIDE (UCB0I2COA3_L, 0x65a)
                [!provide]                        PROVIDE (UCB0I2COA3_H, 0x65b)
                [!provide]                        PROVIDE (UCB0ADDRX, 0x65c)
                [!provide]                        PROVIDE (UCB0ADDRX_L, 0x65c)
                [!provide]                        PROVIDE (UCB0ADDRX_H, 0x65d)
                [!provide]                        PROVIDE (UCB0ADDMASK, 0x65e)
                [!provide]                        PROVIDE (UCB0ADDMASK_L, 0x65e)
                [!provide]                        PROVIDE (UCB0ADDMASK_H, 0x65f)
                0x0000000000000660                PROVIDE (UCB0I2CSA, 0x660)
                [!provide]                        PROVIDE (UCB0I2CSA_L, 0x660)
                [!provide]                        PROVIDE (UCB0I2CSA_H, 0x661)
                0x000000000000066a                PROVIDE (UCB0IE, 0x66a)
                [!provide]                        PROVIDE (UCB0IE_L, 0x66a)
                [!provide]                        PROVIDE (UCB0IE_H, 0x66b)
                0x000000000000066c                PROVIDE (UCB0IFG, 0x66c)
                [!provide]                        PROVIDE (UCB0IFG_L, 0x66c)
                [!provide]                        PROVIDE (UCB0IFG_H, 0x66d)
                0x000000000000066e                PROVIDE (UCB0IV, 0x66e)
                0x000000000000015c                PROVIDE (WDTCTL, 0x15c)
                [!provide]                        PROVIDE (WDTCTL_L, 0x15c)
                [!provide]                        PROVIDE (WDTCTL_H, 0x15d)
                0x0000000000000100                __idle_stack_size__ = 0x100
LOAD build/obj/bootloader.o
LOAD build/obj/ch.o
LOAD build/obj/chmboxes.o
LOAD build/obj/chmemcore.o
LOAD build/obj/chheap.o
LOAD build/obj/chmempools.o
LOAD build/obj/chcore.o
LOAD build/obj/osal.o
LOAD build/obj/hal.o
LOAD build/obj/hal_st.o
LOAD build/obj/hal_buffers.o
LOAD build/obj/hal_queues.o
LOAD build/obj/hal_mmcsd.o
LOAD build/obj/hal_gpt.o
LOAD build/obj/hal_i2c.o
LOAD build/obj/hal_pal.o
LOAD build/obj/hal_spi.o
LOAD build/obj/hal_uart.o
LOAD build/obj/hal_lld.o
LOAD build/obj/hal_st_lld.o
LOAD build/obj/hal_serial_lld.o
LOAD build/obj/hal_pal_lld.o
LOAD build/obj/hal_dma_lld.o
LOAD build/obj/hal_spi_lld.o
LOAD build/obj/hal_i2c_lld.o
LOAD build/obj/hal_uart_lld.o
LOAD build/obj/hal_gpt_lld.o
LOAD build/obj/hal_adc_lld.o
LOAD build/obj/board.o
LOAD build/obj/sx1278.o
LOAD build/obj/sx1212.o
LOAD build/obj/uart.o
LOAD build/obj/main.o
LOAD build/obj/mych.o
LOAD build/obj/cmds.o
LOAD build/obj/registers.o
LOAD build/obj/errors_stub.o
LOAD build/obj/events_stub.o
LOAD build/obj/channels_stub.o
LOAD build/obj/telem_stub.o
LOAD build/obj/slip_uart_dll.o
LOAD build/obj/crc_x25.o
LOAD build/obj/crc_sdlp.o
LOAD build/obj/sdlp.o
LOAD build/obj/fram.o
LOAD build/obj/rf.o
LOAD build/obj/spp.o
LOAD build/obj/msp_vectors.o
LOAD build/obj/init.o
LOAD /root/ti-tools/part2/msp430-gcc-6.2.1.16_linux64/bin/../lib/gcc/msp430-elf/6.2.1/large/libgcc.a
START GROUP
LOAD /root/ti-tools/part2/msp430-gcc-6.2.1.16_linux64/bin/../lib/gcc/msp430-elf/6.2.1/large/libmul_f5.a
LOAD /root/ti-tools/part2/msp430-gcc-6.2.1.16_linux64/bin/../lib/gcc/msp430-elf/6.2.1/../../../../msp430-elf/lib/large/libc.a
LOAD /root/ti-tools/part2/msp430-gcc-6.2.1.16_linux64/bin/../lib/gcc/msp430-elf/6.2.1/large/libgcc.a
LOAD /root/ti-tools/part2/msp430-gcc-6.2.1.16_linux64/bin/../lib/gcc/msp430-elf/6.2.1/../../../../msp430-elf/lib/large/libcrt.a
LOAD /root/ti-tools/part2/msp430-gcc-6.2.1.16_linux64/bin/../lib/gcc/msp430-elf/6.2.1/../../../../msp430-elf/lib/large/libnosys.a
END GROUP
LOAD /root/ti-tools/part2/msp430-gcc-6.2.1.16_linux64/bin/../lib/gcc/msp430-elf/6.2.1/large/libgcc.a
LOAD /root/ti-tools/part2/msp430-gcc-6.2.1.16_linux64/bin/../lib/gcc/msp430-elf/6.2.1/../../../../msp430-elf/lib/large/crtn-minrt.o
LOAD /root/ti-tools/part2/msp430-gcc-6.2.1.16_linux64/bin/../lib/gcc/msp430-elf/6.2.1/large/libgcc.a
OUTPUT(build/elysium.elf elf32-msp430)

.lower.lowtext  0x000000000000f242      0x55c
 .lower.lowtext
                0x000000000000f242       0x22 build/obj/hal_st_lld.o
                0x000000000000f242                ISR_MSP430X_ST_ISR
 .lower.lowtext
                0x000000000000f264      0x1a0 build/obj/hal_pal_lld.o
                0x000000000000f264                ISR_PORT1_VECTOR
                0x000000000000f2c0                ISR_PORT2_VECTOR
                0x000000000000f32c                ISR_PORT3_VECTOR
                0x000000000000f398                ISR_PORT4_VECTOR
 .lower.lowtext
                0x000000000000f404       0x92 build/obj/hal_dma_lld.o
                0x000000000000f404                ISR_DMA_VECTOR
 .lower.lowtext
                0x000000000000f496      0x19a build/obj/hal_i2c_lld.o
                0x000000000000f496                ISR_USCI_B0_VECTOR
 .lower.lowtext
                0x000000000000f630      0x10e build/obj/hal_uart_lld.o
                0x000000000000f630                ISR_USCI_A1_VECTOR
 .lower.lowtext
                0x000000000000f73e       0x60 build/obj/hal_gpt_lld.o
                0x000000000000f73e                ISR_TIMER1_A1_VECTOR

Cross Reference Table

Symbol                                            File
A1_cfg                                            build/obj/uart.o
CRCDIRB_L                                         build/obj/crc_sdlp.o
CRCDI_L                                           build/obj/crc_x25.o
CRCINIRES                                         build/obj/crc_sdlp.o
                                                  build/obj/crc_x25.o
CRCINIRES_H                                       build/obj/crc_sdlp.o
CRCINIRES_L                                       build/obj/crc_sdlp.o
CRCRESR                                           build/obj/crc_x25.o
CRCRESR_H                                         build/obj/crc_x25.o
CRCRESR_L                                         build/obj/crc_x25.o
CSCTL0                                            build/obj/hal_lld.o
                                                  build/obj/bootloader.o
CSCTL0_H                                          build/obj/hal_lld.o
                                                  build/obj/bootloader.o
CSCTL1                                            build/obj/hal_lld.o
                                                  build/obj/bootloader.o
CSCTL2                                            build/obj/hal_lld.o
                                                  build/obj/bootloader.o
CSCTL3                                            build/obj/hal_lld.o
                                                  build/obj/bootloader.o
CSCTL4                                            build/obj/hal_lld.o
CSCTL6                                            build/obj/hal_lld.o
CmdThd                                            build/obj/cmds.o
                                                  build/obj/init.o
DLLRxPktCfg                                       build/obj/sdlp.o
DLLTxPktCfg                                       build/obj/sdlp.o
                                                  build/obj/rf.o
DMA0CTL                                           build/obj/hal_dma_lld.o
                                                  build/obj/bootloader.o
DMA0DA                                            build/obj/bootloader.o
DMA0SA                                            build/obj/bootloader.o
DMA0SZ                                            build/obj/bootloader.o
DMACTL0                                           build/obj/hal_dma_lld.o
                                                  build/obj/bootloader.o
DMAIV                                             build/obj/hal_dma_lld.o
FRCTL0                                            build/obj/hal_lld.o
FRCTL0_H                                          build/obj/hal_lld.o
GPTDA1                                            build/obj/hal_gpt_lld.o
                                                  build/obj/slip_uart_dll.o
                                                  build/obj/uart.o
I2CDB0                                            build/obj/hal_i2c_lld.o
                                                  build/obj/fram.o
ISR_DMA_VECTOR                                    build/obj/hal_dma_lld.o
ISR_MSP430X_ST_ISR                                build/obj/hal_st_lld.o
ISR_PORT1_VECTOR                                  build/obj/hal_pal_lld.o
ISR_PORT2_VECTOR                                  build/obj/hal_pal_lld.o
ISR_PORT3_VECTOR                                  build/obj/hal_pal_lld.o
ISR_PORT4_VECTOR                                  build/obj/hal_pal_lld.o
ISR_TIMER1_A1_VECTOR                              build/obj/hal_gpt_lld.o
ISR_USCI_A1_VECTOR                                build/obj/hal_uart_lld.o
ISR_USCI_B0_VECTOR                                build/obj/hal_i2c_lld.o
P1IV                                              build/obj/hal_pal_lld.o
P2IV                                              build/obj/hal_pal_lld.o
P3IV                                              build/obj/hal_pal_lld.o
P4IV                                              build/obj/hal_pal_lld.o
PADIR                                             build/obj/hal_pal_lld.o
PADIR_L                                           build/obj/hal_i2c_lld.o
                                                  build/obj/bootloader.o
PAOUT                                             build/obj/hal_pal_lld.o
PAOUT_L                                           build/obj/hal_i2c_lld.o
                                                  build/obj/bootloader.o
PAREN                                             build/obj/hal_pal_lld.o
PAREN_L                                           build/obj/hal_i2c_lld.o
                                                  build/obj/bootloader.o
PASEL0                                            build/obj/hal_pal_lld.o
PASEL0_L                                          build/obj/bootloader.o
PASEL1                                            build/obj/hal_pal_lld.o
PASEL1_L                                          build/obj/hal_i2c_lld.o
                                                  build/obj/bootloader.o
PBDIR                                             build/obj/hal_pal_lld.o
PBOUT                                             build/obj/hal_pal_lld.o
PBREN                                             build/obj/hal_pal_lld.o
PBSEL0                                            build/obj/hal_pal_lld.o
PBSEL1                                            build/obj/hal_pal_lld.o
PJDIR                                             build/obj/hal_pal_lld.o
PJOUT                                             build/obj/hal_pal_lld.o
PJREN                                             build/obj/hal_pal_lld.o
PJSEL0                                            build/obj/hal_pal_lld.o
PJSEL1                                            build/obj/hal_pal_lld.o
PM5CTL0                                           build/obj/hal_pal_lld.o
                                                  build/obj/bootloader.o
PMMCTL0                                           build/obj/cmds.o
                                                  build/obj/bootloader.o
RFThd                                             build/obj/rf.o
                                                  build/obj/init.o
SPIDA0                                            build/obj/hal_spi_lld.o
                                                  build/obj/rf.o
SX1212D1                                          build/obj/sx1212.o
                                                  build/obj/rf.o
                                                  build/obj/cmds.o
SX1278D1                                          build/obj/sx1278.o
                                                  build/obj/rf.o
                                                  build/obj/sdlp.o
TA1CTL                                            build/obj/hal_gpt_lld.o
TA1IV                                             build/obj/hal_gpt_lld.o
TB0CCR0                                           build/obj/hal_st_lld.o
                                                  build/obj/hal_st.o
TB0CCTL0                                          build/obj/hal_st_lld.o
                                                  build/obj/hal_st.o
TB0CTL                                            build/obj/hal_st_lld.o
TB0EX0                                            build/obj/hal_st_lld.o
UARTDA1                                           build/obj/hal_uart_lld.o
                                                  build/obj/slip_uart_dll.o
                                                  build/obj/uart.o
UARTThd                                           build/obj/uart.o
                                                  build/obj/init.o
UCA0CTLW0                                         build/obj/hal_spi_lld.o
UCA0IFG                                           build/obj/hal_spi_lld.o
UCA1CTLW0                                         build/obj/hal_uart_lld.o
UCA1IE                                            build/obj/hal_uart_lld.o
UCA1IFG                                           build/obj/hal_uart_lld.o
UCA1IV                                            build/obj/hal_uart_lld.o
UCA1RXBUF                                         build/obj/hal_uart_lld.o
UCA1STATW                                         build/obj/hal_uart_lld.o
UCA1TXBUF                                         build/obj/hal_uart_lld.o
UCB0BRW                                           build/obj/hal_i2c_lld.o
                                                  build/obj/bootloader.o
UCB0CTLW0                                         build/obj/hal_i2c_lld.o
                                                  build/obj/bootloader.o
UCB0CTLW1                                         build/obj/hal_i2c_lld.o
UCB0I2CSA                                         build/obj/bootloader.o
UCB0IE                                            build/obj/hal_i2c_lld.o
UCB0IFG                                           build/obj/hal_i2c_lld.o
                                                  build/obj/bootloader.o
UCB0IV                                            build/obj/hal_i2c_lld.o
UCB0RXBUF                                         build/obj/hal_i2c_lld.o
UCB0RXBUF_L                                       build/obj/bootloader.o
UCB0TXBUF                                         build/obj/bootloader.o
Vector1                                           build/obj/msp_vectors.o
Vector10                                          build/obj/msp_vectors.o
Vector11                                          build/obj/msp_vectors.o
Vector12                                          build/obj/msp_vectors.o
Vector13                                          build/obj/msp_vectors.o
Vector14                                          build/obj/msp_vectors.o
Vector15                                          build/obj/msp_vectors.o
Vector16                                          build/obj/msp_vectors.o
Vector17                                          build/obj/msp_vectors.o
Vector18                                          build/obj/msp_vectors.o
Vector19                                          build/obj/msp_vectors.o
Vector2                                           build/obj/msp_vectors.o
Vector20                                          build/obj/msp_vectors.o
Vector21                                          build/obj/msp_vectors.o
Vector22                                          build/obj/msp_vectors.o
Vector23                                          build/obj/msp_vectors.o
Vector24                                          build/obj/msp_vectors.o
Vector25                                          build/obj/msp_vectors.o
Vector26                                          build/obj/msp_vectors.o
Vector27                                          build/obj/msp_vectors.o
Vector28                                          build/obj/msp_vectors.o
Vector29                                          build/obj/msp_vectors.o
Vector3                                           build/obj/msp_vectors.o
Vector30                                          build/obj/msp_vectors.o
Vector31                                          build/obj/msp_vectors.o
Vector32                                          build/obj/msp_vectors.o
Vector35                                          build/obj/msp_vectors.o
Vector36                                          build/obj/msp_vectors.o
Vector38                                          build/obj/msp_vectors.o
Vector39                                          build/obj/msp_vectors.o
Vector4                                           build/obj/msp_vectors.o
Vector42                                          build/obj/msp_vectors.o
Vector45                                          build/obj/msp_vectors.o
Vector46                                          build/obj/msp_vectors.o
Vector47                                          build/obj/msp_vectors.o
Vector5                                           build/obj/msp_vectors.o
Vector50                                          build/obj/msp_vectors.o
Vector51                                          build/obj/msp_vectors.o
Vector53                                          build/obj/msp_vectors.o
Vector54                                          build/obj/msp_vectors.o
Vector55                                          build/obj/msp_vectors.o
Vector6                                           build/obj/msp_vectors.o
Vector7                                           build/obj/msp_vectors.o
Vector8                                           build/obj/msp_vectors.o
Vector9                                           build/obj/msp_vectors.o
WDTCTL                                            build/obj/init.o
                                                  build/obj/hal_lld.o
                                                  build/obj/bootloader.o
__ashldi3                                         /root/ti-tools/part2/msp430-gcc-6.2.1.16_linux64/bin/../lib/gcc/msp430-elf/6.2.1/large/libgcc.a(_ashldi3.o)
                                                  /root/ti-tools/part2/msp430-gcc-6.2.1.16_linux64/bin/../lib/gcc/msp430-elf/6.2.1/large/libgcc.a(_udivdi3.o)
__bootloader_start                                build/obj/bootloader.o
__bsssize                                         /root/ti-tools/part2/msp430-gcc-6.2.1.16_linux64/bin/../lib/gcc/msp430-elf/6.2.1/../../../../msp430-elf/lib/large/libcrt.a(crt_bss.o)
__bssstart                                        /root/ti-tools/part2/msp430-gcc-6.2.1.16_linux64/bin/../lib/gcc/msp430-elf/6.2.1/../../../../msp430-elf/lib/large/libcrt.a(crt_bss.o)
__clz_tab                                         /root/ti-tools/part2/msp430-gcc-6.2.1.16_linux64/bin/../lib/gcc/msp430-elf/6.2.1/large/libgcc.a(_clz.o)
                                                  /root/ti-tools/part2/msp430-gcc-6.2.1.16_linux64/bin/../lib/gcc/msp430-elf/6.2.1/large/libgcc.a(_clzdi2.o)
__clzdi2                                          /root/ti-tools/part2/msp430-gcc-6.2.1.16_linux64/bin/../lib/gcc/msp430-elf/6.2.1/large/libgcc.a(_clzdi2.o)
                                                  /root/ti-tools/part2/msp430-gcc-6.2.1.16_linux64/bin/../lib/gcc/msp430-elf/6.2.1/large/libgcc.a(_udivdi3.o)
__cmpsi2                                          /root/ti-tools/part2/msp430-gcc-6.2.1.16_linux64/bin/../lib/gcc/msp430-elf/6.2.1/large/libgcc.a(cmpsi2.o)
__crt0_call_just_main                             /root/ti-tools/part2/msp430-gcc-6.2.1.16_linux64/bin/../lib/gcc/msp430-elf/6.2.1/../../../../msp430-elf/lib/large/libcrt.a(crt_main_minrt.o)
                                                  /root/ti-tools/part2/msp430-gcc-6.2.1.16_linux64/bin/../lib/gcc/msp430-elf/6.2.1/../../../../msp430-elf/lib/large/crt0-minrt.o
__crt0_init_bss                                   /root/ti-tools/part2/msp430-gcc-6.2.1.16_linux64/bin/../lib/gcc/msp430-elf/6.2.1/../../../../msp430-elf/lib/large/libcrt.a(crt_bss.o)
                                                  build/obj/spp.o
                                                  build/obj/rf.o
                                                  build/obj/fram.o
                                                  build/obj/sdlp.o
                                                  build/obj/crc_x25.o
                                                  build/obj/slip_uart_dll.o
                                                  build/obj/registers.o
                                                  build/obj/cmds.o
                                                  build/obj/uart.o
                                                  build/obj/sx1212.o
                                                  build/obj/sx1278.o
                                                  build/obj/hal_spi_lld.o
                                                  build/obj/hal_dma_lld.o
                                                  build/obj/chheap.o
                                                  build/obj/chmemcore.o
__crt0_init_highbss                               /root/ti-tools/part2/msp430-gcc-6.2.1.16_linux64/bin/../lib/gcc/msp430-elf/6.2.1/../../../../msp430-elf/lib/large/libcrt.a(crt_high_bss.o)
                                                  build/obj/rf.o
                                                  build/obj/cmds.o
                                                  build/obj/uart.o
                                                  build/obj/sx1212.o
                                                  build/obj/sx1278.o
                                                  build/obj/hal_gpt_lld.o
                                                  build/obj/hal_uart_lld.o
                                                  build/obj/hal_i2c_lld.o
                                                  build/obj/hal_spi_lld.o
                                                  build/obj/hal_pal_lld.o
                                                  build/obj/chcore.o
                                                  build/obj/ch.o
__crt0_move_highdata                              /root/ti-tools/part2/msp430-gcc-6.2.1.16_linux64/bin/../lib/gcc/msp430-elf/6.2.1/../../../../msp430-elf/lib/large/libcrt.a(crt_move_highdata.o)
                                                  build/obj/fram.o
                                                  build/obj/sdlp.o
                                                  build/obj/slip_uart_dll.o
                                                  build/obj/cmds.o
                                                  build/obj/main.o
__crt0_start                                      /root/ti-tools/part2/msp430-gcc-6.2.1.16_linux64/bin/../lib/gcc/msp430-elf/6.2.1/../../../../msp430-elf/lib/large/crt0-minrt.o
                                                  build/obj/bootloader.o
__heap_base__                                     build/obj/chmemcore.o
__heap_end__                                      build/obj/chmemcore.o
__high_bsssize                                    /root/ti-tools/part2/msp430-gcc-6.2.1.16_linux64/bin/../lib/gcc/msp430-elf/6.2.1/../../../../msp430-elf/lib/large/crt0-minrt.o
                                                  /root/ti-tools/part2/msp430-gcc-6.2.1.16_linux64/bin/../lib/gcc/msp430-elf/6.2.1/../../../../msp430-elf/lib/large/libcrt.a(crt_high_bss.o)
__high_bssstart                                   /root/ti-tools/part2/msp430-gcc-6.2.1.16_linux64/bin/../lib/gcc/msp430-elf/6.2.1/../../../../msp430-elf/lib/large/crt0-minrt.o
                                                  /root/ti-tools/part2/msp430-gcc-6.2.1.16_linux64/bin/../lib/gcc/msp430-elf/6.2.1/../../../../msp430-elf/lib/large/libcrt.a(crt_high_bss.o)
__high_datastart                                  /root/ti-tools/part2/msp430-gcc-6.2.1.16_linux64/bin/../lib/gcc/msp430-elf/6.2.1/../../../../msp430-elf/lib/large/crt0-minrt.o
                                                  /root/ti-tools/part2/msp430-gcc-6.2.1.16_linux64/bin/../lib/gcc/msp430-elf/6.2.1/../../../../msp430-elf/lib/large/libcrt.a(crt_move_highdata.o)
__lshrdi3                                         /root/ti-tools/part2/msp430-gcc-6.2.1.16_linux64/bin/../lib/gcc/msp430-elf/6.2.1/large/libgcc.a(_lshrdi3.o)
                                                  /root/ti-tools/part2/msp430-gcc-6.2.1.16_linux64/bin/../lib/gcc/msp430-elf/6.2.1/large/libgcc.a(_udivdi3.o)
__msp430x_in_isr                                  build/obj/chcore.o
                                                  build/obj/telem_stub.o
                                                  build/obj/hal_gpt_lld.o
                                                  build/obj/hal_uart_lld.o
                                                  build/obj/hal_i2c_lld.o
                                                  build/obj/hal_dma_lld.o
                                                  build/obj/hal_pal_lld.o
                                                  build/obj/hal_st_lld.o
                                                  build/obj/ch.o
__mspabi_divli                                    /root/ti-tools/part2/msp430-gcc-6.2.1.16_linux64/bin/../lib/gcc/msp430-elf/6.2.1/large/libgcc.a(lib2divSI.o)
__mspabi_divllu                                   /root/ti-tools/part2/msp430-gcc-6.2.1.16_linux64/bin/../lib/gcc/msp430-elf/6.2.1/large/libgcc.a(lib2divSI.o)
__mspabi_divlu                                    /root/ti-tools/part2/msp430-gcc-6.2.1.16_linux64/bin/../lib/gcc/msp430-elf/6.2.1/large/libgcc.a(lib2divSI.o)
__mspabi_divul                                    /root/ti-tools/part2/msp430-gcc-6.2.1.16_linux64/bin/../lib/gcc/msp430-elf/6.2.1/large/libgcc.a(lib2divSI.o)
                                                  build/obj/cmds.o
                                                  build/obj/sx1212.o
                                                  build/obj/sx1278.o
                                                  build/obj/hal_gpt_lld.o
                                                  build/obj/hal_uart_lld.o
                                                  build/obj/hal_i2c_lld.o
                                                  build/obj/hal_spi_lld.o
__mspabi_divull                                   /root/ti-tools/part2/msp430-gcc-6.2.1.16_linux64/bin/../lib/gcc/msp430-elf/6.2.1/large/libgcc.a(_udivdi3.o)
                                                  /root/ti-tools/part2/msp430-gcc-6.2.1.16_linux64/bin/../lib/gcc/msp430-elf/6.2.1/large/libgcc.a(lib2divSI.o)
__mspabi_mpyi                                     /root/ti-tools/part2/msp430-gcc-6.2.1.16_linux64/bin/../lib/gcc/msp430-elf/6.2.1/large/libmul_f5.a(lib2hw_mul_f5.o)
__mspabi_mpyi_f5hw                                /root/ti-tools/part2/msp430-gcc-6.2.1.16_linux64/bin/../lib/gcc/msp430-elf/6.2.1/large/libmul_f5.a(lib2hw_mul_f5.o)
__mspabi_mpyl                                     /root/ti-tools/part2/msp430-gcc-6.2.1.16_linux64/bin/../lib/gcc/msp430-elf/6.2.1/large/libmul_f5.a(lib2hw_mul_f5.o)
                                                  /root/ti-tools/part2/msp430-gcc-6.2.1.16_linux64/bin/../lib/gcc/msp430-elf/6.2.1/large/libgcc.a(_muldi3.o)
__mspabi_mpyl_f5hw                                /root/ti-tools/part2/msp430-gcc-6.2.1.16_linux64/bin/../lib/gcc/msp430-elf/6.2.1/large/libmul_f5.a(lib2hw_mul_f5.o)
__mspabi_mpyll                                    /root/ti-tools/part2/msp430-gcc-6.2.1.16_linux64/bin/../lib/gcc/msp430-elf/6.2.1/large/libgcc.a(_muldi3.o)
                                                  /root/ti-tools/part2/msp430-gcc-6.2.1.16_linux64/bin/../lib/gcc/msp430-elf/6.2.1/large/libmul_f5.a(lib2hw_mul_f5.o)
__mspabi_mpyll_f5hw                               /root/ti-tools/part2/msp430-gcc-6.2.1.16_linux64/bin/../lib/gcc/msp430-elf/6.2.1/large/libmul_f5.a(lib2hw_mul_f5.o)
__mspabi_mpysl                                    /root/ti-tools/part2/msp430-gcc-6.2.1.16_linux64/bin/../lib/gcc/msp430-elf/6.2.1/large/libmul_f5.a(lib2hw_mul_f5.o)
__mspabi_mpysl_f5hw                               /root/ti-tools/part2/msp430-gcc-6.2.1.16_linux64/bin/../lib/gcc/msp430-elf/6.2.1/large/libmul_f5.a(lib2hw_mul_f5.o)
__mspabi_mpysll                                   /root/ti-tools/part2/msp430-gcc-6.2.1.16_linux64/bin/../lib/gcc/msp430-elf/6.2.1/large/libmul_f5.a(lib2hw_mul_f5.o)
__mspabi_mpysll_f5hw                              /root/ti-tools/part2/msp430-gcc-6.2.1.16_linux64/bin/../lib/gcc/msp430-elf/6.2.1/large/libmul_f5.a(lib2hw_mul_f5.o)
__mspabi_mpyul                                    /root/ti-tools/part2/msp430-gcc-6.2.1.16_linux64/bin/../lib/gcc/msp430-elf/6.2.1/large/libmul_f5.a(lib2hw_mul_f5.o)
__mspabi_mpyull                                   /root/ti-tools/part2/msp430-gcc-6.2.1.16_linux64/bin/../lib/gcc/msp430-elf/6.2.1/large/libmul_f5.a(lib2hw_mul_f5.o)
__mspabi_mpyull_f5hw                              /root/ti-tools/part2/msp430-gcc-6.2.1.16_linux64/bin/../lib/gcc/msp430-elf/6.2.1/large/libmul_f5.a(lib2hw_mul_f5.o)
__mspabi_remli                                    /root/ti-tools/part2/msp430-gcc-6.2.1.16_linux64/bin/../lib/gcc/msp430-elf/6.2.1/large/libgcc.a(lib2divSI.o)
__mspabi_remul                                    /root/ti-tools/part2/msp430-gcc-6.2.1.16_linux64/bin/../lib/gcc/msp430-elf/6.2.1/large/libgcc.a(lib2divSI.o)
__mspabi_slli                                     /root/ti-tools/part2/msp430-gcc-6.2.1.16_linux64/bin/../lib/gcc/msp430-elf/6.2.1/large/libgcc.a(slli.o)
                                                  build/obj/sdlp.o
                                                  build/obj/cmds.o
                                                  build/obj/sx1212.o
                                                  build/obj/sx1278.o
                                                  build/obj/hal_spi_lld.o
                                                  build/obj/hal_dma_lld.o
                                                  build/obj/hal_pal_lld.o
                                                  build/obj/hal_pal.o
__mspabi_slli_1                                   /root/ti-tools/part2/msp430-gcc-6.2.1.16_linux64/bin/../lib/gcc/msp430-elf/6.2.1/large/libgcc.a(slli.o)
__mspabi_slli_10                                  /root/ti-tools/part2/msp430-gcc-6.2.1.16_linux64/bin/../lib/gcc/msp430-elf/6.2.1/large/libgcc.a(slli.o)
__mspabi_slli_11                                  /root/ti-tools/part2/msp430-gcc-6.2.1.16_linux64/bin/../lib/gcc/msp430-elf/6.2.1/large/libgcc.a(slli.o)
__mspabi_slli_12                                  /root/ti-tools/part2/msp430-gcc-6.2.1.16_linux64/bin/../lib/gcc/msp430-elf/6.2.1/large/libgcc.a(slli.o)
__mspabi_slli_13                                  /root/ti-tools/part2/msp430-gcc-6.2.1.16_linux64/bin/../lib/gcc/msp430-elf/6.2.1/large/libgcc.a(slli.o)
__mspabi_slli_14                                  /root/ti-tools/part2/msp430-gcc-6.2.1.16_linux64/bin/../lib/gcc/msp430-elf/6.2.1/large/libgcc.a(slli.o)
__mspabi_slli_15                                  /root/ti-tools/part2/msp430-gcc-6.2.1.16_linux64/bin/../lib/gcc/msp430-elf/6.2.1/large/libgcc.a(slli.o)
__mspabi_slli_2                                   /root/ti-tools/part2/msp430-gcc-6.2.1.16_linux64/bin/../lib/gcc/msp430-elf/6.2.1/large/libgcc.a(slli.o)
__mspabi_slli_3                                   /root/ti-tools/part2/msp430-gcc-6.2.1.16_linux64/bin/../lib/gcc/msp430-elf/6.2.1/large/libgcc.a(slli.o)
__mspabi_slli_4                                   /root/ti-tools/part2/msp430-gcc-6.2.1.16_linux64/bin/../lib/gcc/msp430-elf/6.2.1/large/libgcc.a(slli.o)
__mspabi_slli_5                                   /root/ti-tools/part2/msp430-gcc-6.2.1.16_linux64/bin/../lib/gcc/msp430-elf/6.2.1/large/libgcc.a(slli.o)
__mspabi_slli_6                                   /root/ti-tools/part2/msp430-gcc-6.2.1.16_linux64/bin/../lib/gcc/msp430-elf/6.2.1/large/libgcc.a(slli.o)
__mspabi_slli_7                                   /root/ti-tools/part2/msp430-gcc-6.2.1.16_linux64/bin/../lib/gcc/msp430-elf/6.2.1/large/libgcc.a(slli.o)
__mspabi_slli_8                                   /root/ti-tools/part2/msp430-gcc-6.2.1.16_linux64/bin/../lib/gcc/msp430-elf/6.2.1/large/libgcc.a(slli.o)
__mspabi_slli_9                                   /root/ti-tools/part2/msp430-gcc-6.2.1.16_linux64/bin/../lib/gcc/msp430-elf/6.2.1/large/libgcc.a(slli.o)
__mspabi_slll                                     /root/ti-tools/part2/msp430-gcc-6.2.1.16_linux64/bin/../lib/gcc/msp430-elf/6.2.1/large/libgcc.a(slli.o)
                                                  /root/ti-tools/part2/msp430-gcc-6.2.1.16_linux64/bin/../lib/gcc/msp430-elf/6.2.1/large/libgcc.a(_muldi3.o)
                                                  /root/ti-tools/part2/msp430-gcc-6.2.1.16_linux64/bin/../lib/gcc/msp430-elf/6.2.1/large/libgcc.a(_ashldi3.o)
                                                  /root/ti-tools/part2/msp430-gcc-6.2.1.16_linux64/bin/../lib/gcc/msp430-elf/6.2.1/large/libgcc.a(_lshrdi3.o)
                                                  build/obj/cmds.o
__mspabi_slll_1                                   /root/ti-tools/part2/msp430-gcc-6.2.1.16_linux64/bin/../lib/gcc/msp430-elf/6.2.1/large/libgcc.a(slli.o)
__mspabi_slll_10                                  /root/ti-tools/part2/msp430-gcc-6.2.1.16_linux64/bin/../lib/gcc/msp430-elf/6.2.1/large/libgcc.a(slli.o)
__mspabi_slll_11                                  /root/ti-tools/part2/msp430-gcc-6.2.1.16_linux64/bin/../lib/gcc/msp430-elf/6.2.1/large/libgcc.a(slli.o)
                                                  build/obj/sx1278.o
__mspabi_slll_12                                  /root/ti-tools/part2/msp430-gcc-6.2.1.16_linux64/bin/../lib/gcc/msp430-elf/6.2.1/large/libgcc.a(slli.o)
__mspabi_slll_13                                  /root/ti-tools/part2/msp430-gcc-6.2.1.16_linux64/bin/../lib/gcc/msp430-elf/6.2.1/large/libgcc.a(slli.o)
__mspabi_slll_14                                  /root/ti-tools/part2/msp430-gcc-6.2.1.16_linux64/bin/../lib/gcc/msp430-elf/6.2.1/large/libgcc.a(slli.o)
__mspabi_slll_15                                  /root/ti-tools/part2/msp430-gcc-6.2.1.16_linux64/bin/../lib/gcc/msp430-elf/6.2.1/large/libgcc.a(slli.o)
__mspabi_slll_2                                   /root/ti-tools/part2/msp430-gcc-6.2.1.16_linux64/bin/../lib/gcc/msp430-elf/6.2.1/large/libgcc.a(slli.o)
__mspabi_slll_3                                   /root/ti-tools/part2/msp430-gcc-6.2.1.16_linux64/bin/../lib/gcc/msp430-elf/6.2.1/large/libgcc.a(slli.o)
                                                  build/obj/hal_dma_lld.o
                                                  build/obj/hal_pal_lld.o
                                                  build/obj/chheap.o
__mspabi_slll_4                                   /root/ti-tools/part2/msp430-gcc-6.2.1.16_linux64/bin/../lib/gcc/msp430-elf/6.2.1/large/libgcc.a(slli.o)
                                                  build/obj/hal_dma_lld.o
__mspabi_slll_5                                   /root/ti-tools/part2/msp430-gcc-6.2.1.16_linux64/bin/../lib/gcc/msp430-elf/6.2.1/large/libgcc.a(slli.o)
                                                  build/obj/cmds.o
__mspabi_slll_6                                   /root/ti-tools/part2/msp430-gcc-6.2.1.16_linux64/bin/../lib/gcc/msp430-elf/6.2.1/large/libgcc.a(slli.o)
__mspabi_slll_7                                   /root/ti-tools/part2/msp430-gcc-6.2.1.16_linux64/bin/../lib/gcc/msp430-elf/6.2.1/large/libgcc.a(slli.o)
__mspabi_slll_8                                   /root/ti-tools/part2/msp430-gcc-6.2.1.16_linux64/bin/../lib/gcc/msp430-elf/6.2.1/large/libgcc.a(slli.o)
                                                  build/obj/slip_uart_dll.o
                                                  build/obj/sx1278.o
__mspabi_slll_9                                   /root/ti-tools/part2/msp430-gcc-6.2.1.16_linux64/bin/../lib/gcc/msp430-elf/6.2.1/large/libgcc.a(slli.o)
__mspabi_srai                                     /root/ti-tools/part2/msp430-gcc-6.2.1.16_linux64/bin/../lib/gcc/msp430-elf/6.2.1/large/libgcc.a(srai.o)
__mspabi_srai_1                                   /root/ti-tools/part2/msp430-gcc-6.2.1.16_linux64/bin/../lib/gcc/msp430-elf/6.2.1/large/libgcc.a(srai.o)
__mspabi_srai_10                                  /root/ti-tools/part2/msp430-gcc-6.2.1.16_linux64/bin/../lib/gcc/msp430-elf/6.2.1/large/libgcc.a(srai.o)
__mspabi_srai_11                                  /root/ti-tools/part2/msp430-gcc-6.2.1.16_linux64/bin/../lib/gcc/msp430-elf/6.2.1/large/libgcc.a(srai.o)
__mspabi_srai_12                                  /root/ti-tools/part2/msp430-gcc-6.2.1.16_linux64/bin/../lib/gcc/msp430-elf/6.2.1/large/libgcc.a(srai.o)
__mspabi_srai_13                                  /root/ti-tools/part2/msp430-gcc-6.2.1.16_linux64/bin/../lib/gcc/msp430-elf/6.2.1/large/libgcc.a(srai.o)
__mspabi_srai_14                                  /root/ti-tools/part2/msp430-gcc-6.2.1.16_linux64/bin/../lib/gcc/msp430-elf/6.2.1/large/libgcc.a(srai.o)
__mspabi_srai_15                                  /root/ti-tools/part2/msp430-gcc-6.2.1.16_linux64/bin/../lib/gcc/msp430-elf/6.2.1/large/libgcc.a(srai.o)
__mspabi_srai_2                                   /root/ti-tools/part2/msp430-gcc-6.2.1.16_linux64/bin/../lib/gcc/msp430-elf/6.2.1/large/libgcc.a(srai.o)
__mspabi_srai_3                                   /root/ti-tools/part2/msp430-gcc-6.2.1.16_linux64/bin/../lib/gcc/msp430-elf/6.2.1/large/libgcc.a(srai.o)
__mspabi_srai_4                                   /root/ti-tools/part2/msp430-gcc-6.2.1.16_linux64/bin/../lib/gcc/msp430-elf/6.2.1/large/libgcc.a(srai.o)
__mspabi_srai_5                                   /root/ti-tools/part2/msp430-gcc-6.2.1.16_linux64/bin/../lib/gcc/msp430-elf/6.2.1/large/libgcc.a(srai.o)
__mspabi_srai_6                                   /root/ti-tools/part2/msp430-gcc-6.2.1.16_linux64/bin/../lib/gcc/msp430-elf/6.2.1/large/libgcc.a(srai.o)
__mspabi_srai_7                                   /root/ti-tools/part2/msp430-gcc-6.2.1.16_linux64/bin/../lib/gcc/msp430-elf/6.2.1/large/libgcc.a(srai.o)
__mspabi_srai_8                                   /root/ti-tools/part2/msp430-gcc-6.2.1.16_linux64/bin/../lib/gcc/msp430-elf/6.2.1/large/libgcc.a(srai.o)
__mspabi_srai_9                                   /root/ti-tools/part2/msp430-gcc-6.2.1.16_linux64/bin/../lib/gcc/msp430-elf/6.2.1/large/libgcc.a(srai.o)
__mspabi_sral                                     /root/ti-tools/part2/msp430-gcc-6.2.1.16_linux64/bin/../lib/gcc/msp430-elf/6.2.1/large/libgcc.a(srai.o)
__mspabi_sral_1                                   /root/ti-tools/part2/msp430-gcc-6.2.1.16_linux64/bin/../lib/gcc/msp430-elf/6.2.1/large/libgcc.a(srai.o)
__mspabi_sral_10                                  /root/ti-tools/part2/msp430-gcc-6.2.1.16_linux64/bin/../lib/gcc/msp430-elf/6.2.1/large/libgcc.a(srai.o)
__mspabi_sral_11                                  /root/ti-tools/part2/msp430-gcc-6.2.1.16_linux64/bin/../lib/gcc/msp430-elf/6.2.1/large/libgcc.a(srai.o)
__mspabi_sral_12                                  /root/ti-tools/part2/msp430-gcc-6.2.1.16_linux64/bin/../lib/gcc/msp430-elf/6.2.1/large/libgcc.a(srai.o)
__mspabi_sral_13                                  /root/ti-tools/part2/msp430-gcc-6.2.1.16_linux64/bin/../lib/gcc/msp430-elf/6.2.1/large/libgcc.a(srai.o)
__mspabi_sral_14                                  /root/ti-tools/part2/msp430-gcc-6.2.1.16_linux64/bin/../lib/gcc/msp430-elf/6.2.1/large/libgcc.a(srai.o)
__mspabi_sral_15                                  /root/ti-tools/part2/msp430-gcc-6.2.1.16_linux64/bin/../lib/gcc/msp430-elf/6.2.1/large/libgcc.a(srai.o)
__mspabi_sral_2                                   /root/ti-tools/part2/msp430-gcc-6.2.1.16_linux64/bin/../lib/gcc/msp430-elf/6.2.1/large/libgcc.a(srai.o)
__mspabi_sral_3                                   /root/ti-tools/part2/msp430-gcc-6.2.1.16_linux64/bin/../lib/gcc/msp430-elf/6.2.1/large/libgcc.a(srai.o)
                                                  build/obj/chheap.o
__mspabi_sral_4                                   /root/ti-tools/part2/msp430-gcc-6.2.1.16_linux64/bin/../lib/gcc/msp430-elf/6.2.1/large/libgcc.a(srai.o)
                                                  build/obj/hal_pal_lld.o
__mspabi_sral_5                                   /root/ti-tools/part2/msp430-gcc-6.2.1.16_linux64/bin/../lib/gcc/msp430-elf/6.2.1/large/libgcc.a(srai.o)
__mspabi_sral_6                                   /root/ti-tools/part2/msp430-gcc-6.2.1.16_linux64/bin/../lib/gcc/msp430-elf/6.2.1/large/libgcc.a(srai.o)
__mspabi_sral_7                                   /root/ti-tools/part2/msp430-gcc-6.2.1.16_linux64/bin/../lib/gcc/msp430-elf/6.2.1/large/libgcc.a(srai.o)
__mspabi_sral_8                                   /root/ti-tools/part2/msp430-gcc-6.2.1.16_linux64/bin/../lib/gcc/msp430-elf/6.2.1/large/libgcc.a(srai.o)
__mspabi_sral_9                                   /root/ti-tools/part2/msp430-gcc-6.2.1.16_linux64/bin/../lib/gcc/msp430-elf/6.2.1/large/libgcc.a(srai.o)
__mspabi_srli                                     /root/ti-tools/part2/msp430-gcc-6.2.1.16_linux64/bin/../lib/gcc/msp430-elf/6.2.1/large/libgcc.a(srli.o)
                                                  build/obj/sx1212.o
                                                  build/obj/sx1278.o
                                                  build/obj/hal_dma_lld.o
                                                  build/obj/hal_pal.o
__mspabi_srli_1                                   /root/ti-tools/part2/msp430-gcc-6.2.1.16_linux64/bin/../lib/gcc/msp430-elf/6.2.1/large/libgcc.a(srli.o)
__mspabi_srli_10                                  /root/ti-tools/part2/msp430-gcc-6.2.1.16_linux64/bin/../lib/gcc/msp430-elf/6.2.1/large/libgcc.a(srli.o)
__mspabi_srli_11                                  /root/ti-tools/part2/msp430-gcc-6.2.1.16_linux64/bin/../lib/gcc/msp430-elf/6.2.1/large/libgcc.a(srli.o)
__mspabi_srli_12                                  /root/ti-tools/part2/msp430-gcc-6.2.1.16_linux64/bin/../lib/gcc/msp430-elf/6.2.1/large/libgcc.a(srli.o)
__mspabi_srli_13                                  /root/ti-tools/part2/msp430-gcc-6.2.1.16_linux64/bin/../lib/gcc/msp430-elf/6.2.1/large/libgcc.a(srli.o)
__mspabi_srli_14                                  /root/ti-tools/part2/msp430-gcc-6.2.1.16_linux64/bin/../lib/gcc/msp430-elf/6.2.1/large/libgcc.a(srli.o)
__mspabi_srli_15                                  /root/ti-tools/part2/msp430-gcc-6.2.1.16_linux64/bin/../lib/gcc/msp430-elf/6.2.1/large/libgcc.a(srli.o)
__mspabi_srli_2                                   /root/ti-tools/part2/msp430-gcc-6.2.1.16_linux64/bin/../lib/gcc/msp430-elf/6.2.1/large/libgcc.a(srli.o)
                                                  build/obj/fram.o
__mspabi_srli_3                                   /root/ti-tools/part2/msp430-gcc-6.2.1.16_linux64/bin/../lib/gcc/msp430-elf/6.2.1/large/libgcc.a(srli.o)
__mspabi_srli_4                                   /root/ti-tools/part2/msp430-gcc-6.2.1.16_linux64/bin/../lib/gcc/msp430-elf/6.2.1/large/libgcc.a(srli.o)
__mspabi_srli_5                                   /root/ti-tools/part2/msp430-gcc-6.2.1.16_linux64/bin/../lib/gcc/msp430-elf/6.2.1/large/libgcc.a(srli.o)
__mspabi_srli_6                                   /root/ti-tools/part2/msp430-gcc-6.2.1.16_linux64/bin/../lib/gcc/msp430-elf/6.2.1/large/libgcc.a(srli.o)
__mspabi_srli_7                                   /root/ti-tools/part2/msp430-gcc-6.2.1.16_linux64/bin/../lib/gcc/msp430-elf/6.2.1/large/libgcc.a(srli.o)
__mspabi_srli_8                                   /root/ti-tools/part2/msp430-gcc-6.2.1.16_linux64/bin/../lib/gcc/msp430-elf/6.2.1/large/libgcc.a(srli.o)
                                                  build/obj/sx1278.o
__mspabi_srli_9                                   /root/ti-tools/part2/msp430-gcc-6.2.1.16_linux64/bin/../lib/gcc/msp430-elf/6.2.1/large/libgcc.a(srli.o)
__mspabi_srll                                     /root/ti-tools/part2/msp430-gcc-6.2.1.16_linux64/bin/../lib/gcc/msp430-elf/6.2.1/large/libgcc.a(srli.o)
                                                  /root/ti-tools/part2/msp430-gcc-6.2.1.16_linux64/bin/../lib/gcc/msp430-elf/6.2.1/large/libgcc.a(_muldi3.o)
                                                  /root/ti-tools/part2/msp430-gcc-6.2.1.16_linux64/bin/../lib/gcc/msp430-elf/6.2.1/large/libgcc.a(_clzdi2.o)
                                                  /root/ti-tools/part2/msp430-gcc-6.2.1.16_linux64/bin/../lib/gcc/msp430-elf/6.2.1/large/libgcc.a(_ashldi3.o)
                                                  /root/ti-tools/part2/msp430-gcc-6.2.1.16_linux64/bin/../lib/gcc/msp430-elf/6.2.1/large/libgcc.a(_lshrdi3.o)
                                                  build/obj/rf.o
                                                  build/obj/fram.o
                                                  build/obj/cmds.o
                                                  build/obj/sx1212.o
                                                  build/obj/sx1278.o
__mspabi_srll_1                                   /root/ti-tools/part2/msp430-gcc-6.2.1.16_linux64/bin/../lib/gcc/msp430-elf/6.2.1/large/libgcc.a(srli.o)
__mspabi_srll_10                                  /root/ti-tools/part2/msp430-gcc-6.2.1.16_linux64/bin/../lib/gcc/msp430-elf/6.2.1/large/libgcc.a(srli.o)
__mspabi_srll_11                                  /root/ti-tools/part2/msp430-gcc-6.2.1.16_linux64/bin/../lib/gcc/msp430-elf/6.2.1/large/libgcc.a(srli.o)
__mspabi_srll_12                                  /root/ti-tools/part2/msp430-gcc-6.2.1.16_linux64/bin/../lib/gcc/msp430-elf/6.2.1/large/libgcc.a(srli.o)
                                                  build/obj/sdlp.o
                                                  build/obj/sx1212.o
                                                  build/obj/sx1278.o
                                                  build/obj/hal_spi_lld.o
__mspabi_srll_13                                  /root/ti-tools/part2/msp430-gcc-6.2.1.16_linux64/bin/../lib/gcc/msp430-elf/6.2.1/large/libgcc.a(srli.o)
__mspabi_srll_14                                  /root/ti-tools/part2/msp430-gcc-6.2.1.16_linux64/bin/../lib/gcc/msp430-elf/6.2.1/large/libgcc.a(srli.o)
__mspabi_srll_15                                  /root/ti-tools/part2/msp430-gcc-6.2.1.16_linux64/bin/../lib/gcc/msp430-elf/6.2.1/large/libgcc.a(srli.o)
__mspabi_srll_2                                   /root/ti-tools/part2/msp430-gcc-6.2.1.16_linux64/bin/../lib/gcc/msp430-elf/6.2.1/large/libgcc.a(srli.o)
__mspabi_srll_3                                   /root/ti-tools/part2/msp430-gcc-6.2.1.16_linux64/bin/../lib/gcc/msp430-elf/6.2.1/large/libgcc.a(srli.o)
                                                  build/obj/hal_gpt_lld.o
                                                  build/obj/chheap.o
__mspabi_srll_4                                   /root/ti-tools/part2/msp430-gcc-6.2.1.16_linux64/bin/../lib/gcc/msp430-elf/6.2.1/large/libgcc.a(srli.o)
                                                  build/obj/sx1278.o
__mspabi_srll_5                                   /root/ti-tools/part2/msp430-gcc-6.2.1.16_linux64/bin/../lib/gcc/msp430-elf/6.2.1/large/libgcc.a(srli.o)
__mspabi_srll_6                                   /root/ti-tools/part2/msp430-gcc-6.2.1.16_linux64/bin/../lib/gcc/msp430-elf/6.2.1/large/libgcc.a(srli.o)
__mspabi_srll_7                                   /root/ti-tools/part2/msp430-gcc-6.2.1.16_linux64/bin/../lib/gcc/msp430-elf/6.2.1/large/libgcc.a(srli.o)
__mspabi_srll_8                                   /root/ti-tools/part2/msp430-gcc-6.2.1.16_linux64/bin/../lib/gcc/msp430-elf/6.2.1/large/libgcc.a(srli.o)
                                                  build/obj/rf.o
                                                  build/obj/sdlp.o
                                                  build/obj/cmds.o
__mspabi_srll_9                                   /root/ti-tools/part2/msp430-gcc-6.2.1.16_linux64/bin/../lib/gcc/msp430-elf/6.2.1/large/libgcc.a(srli.o)
__muldi3                                          /root/ti-tools/part2/msp430-gcc-6.2.1.16_linux64/bin/../lib/gcc/msp430-elf/6.2.1/large/libmul_f5.a(lib2hw_mul_f5.o)
__muldisi2                                        /root/ti-tools/part2/msp430-gcc-6.2.1.16_linux64/bin/../lib/gcc/msp430-elf/6.2.1/large/libmul_f5.a(lib2hw_mul_f5.o)
__mulhi2_f5                                       /root/ti-tools/part2/msp430-gcc-6.2.1.16_linux64/bin/../lib/gcc/msp430-elf/6.2.1/large/libmul_f5.a(lib2hw_mul_f5.o)
__mulsi2_f5                                       /root/ti-tools/part2/msp430-gcc-6.2.1.16_linux64/bin/../lib/gcc/msp430-elf/6.2.1/large/libmul_f5.a(lib2hw_mul_f5.o)
                                                  build/obj/hal_uart_lld.o
                                                  build/obj/hal_buffers.o
__mulsihi2                                        /root/ti-tools/part2/msp430-gcc-6.2.1.16_linux64/bin/../lib/gcc/msp430-elf/6.2.1/large/libmul_f5.a(lib2hw_mul_f5.o)
__rom_highdatacopysize                            /root/ti-tools/part2/msp430-gcc-6.2.1.16_linux64/bin/../lib/gcc/msp430-elf/6.2.1/../../../../msp430-elf/lib/large/crt0-minrt.o
                                                  /root/ti-tools/part2/msp430-gcc-6.2.1.16_linux64/bin/../lib/gcc/msp430-elf/6.2.1/../../../../msp430-elf/lib/large/libcrt.a(crt_move_highdata.o)
__rom_highdatastart                               /root/ti-tools/part2/msp430-gcc-6.2.1.16_linux64/bin/../lib/gcc/msp430-elf/6.2.1/../../../../msp430-elf/lib/large/crt0-minrt.o
                                                  /root/ti-tools/part2/msp430-gcc-6.2.1.16_linux64/bin/../lib/gcc/msp430-elf/6.2.1/../../../../msp430-elf/lib/large/libcrt.a(crt_move_highdata.o)
__stack                                           /root/ti-tools/part2/msp430-gcc-6.2.1.16_linux64/bin/../lib/gcc/msp430-elf/6.2.1/../../../../msp430-elf/lib/large/crt0-minrt.o
__ucmpsi2                                         /root/ti-tools/part2/msp430-gcc-6.2.1.16_linux64/bin/../lib/gcc/msp430-elf/6.2.1/large/libgcc.a(cmpsi2.o)
                                                  build/obj/rf.o
__umuldisi2                                       /root/ti-tools/part2/msp430-gcc-6.2.1.16_linux64/bin/../lib/gcc/msp430-elf/6.2.1/large/libmul_f5.a(lib2hw_mul_f5.o)
__umulsihi2                                       /root/ti-tools/part2/msp430-gcc-6.2.1.16_linux64/bin/../lib/gcc/msp430-elf/6.2.1/large/libmul_f5.a(lib2hw_mul_f5.o)
__upper_data_init                                 /root/ti-tools/part2/msp430-gcc-6.2.1.16_linux64/bin/../lib/gcc/msp430-elf/6.2.1/../../../../msp430-elf/lib/large/crt0-minrt.o
                                                  /root/ti-tools/part2/msp430-gcc-6.2.1.16_linux64/bin/../lib/gcc/msp430-elf/6.2.1/../../../../msp430-elf/lib/large/libcrt.a(crt_move_highdata.o)
_core_init                                        build/obj/chmemcore.o
_heap_init                                        build/obj/chheap.o
                                                  build/obj/ch.o
_mspabi_mpyul_f5hw                                /root/ti-tools/part2/msp430-gcc-6.2.1.16_linux64/bin/../lib/gcc/msp430-elf/6.2.1/large/libmul_f5.a(lib2hw_mul_f5.o)
_pal_lld_disablepadevent                          build/obj/hal_pal_lld.o
                                                  build/obj/sdlp.o
                                                  build/obj/sx1212.o
                                                  build/obj/sx1278.o
_pal_lld_enablepadevent                           build/obj/hal_pal_lld.o
                                                  build/obj/sx1212.o
                                                  build/obj/sx1278.o
_pal_lld_init                                     build/obj/hal_pal_lld.o
                                                  build/obj/hal.o
_pal_lld_setgroupmode                             build/obj/hal_pal_lld.o
                                                  build/obj/sx1212.o
                                                  build/obj/sx1278.o
                                                  build/obj/hal_pal.o
_port_switch                                      build/obj/chcore.o
                                                  build/obj/ch.o
_port_thread_start                                build/obj/chcore.o
                                                  build/obj/ch.o
a_frames                                          build/obj/sdlp.o
addr_cb                                           build/obj/fram.o
b_frames                                          build/obj/sdlp.o
bank0p                                            build/obj/registers.o
                                                  build/obj/spp.o
                                                  build/obj/rf.o
                                                  build/obj/sdlp.o
                                                  build/obj/cmds.o
                                                  build/obj/uart.o
bank0w                                            build/obj/registers.o
                                                  build/obj/rf.o
                                                  build/obj/cmds.o
boardInit                                         build/obj/board.o
                                                  build/obj/hal.o
bootloader                                        build/obj/cmds.o
                                                  build/obj/bootloader.o
calc_next_buff                                    build/obj/slip_uart_dll.o
chCoreAllocAligned                                build/obj/chmemcore.o
                                                  build/obj/chheap.o
chCoreAllocAlignedI                               build/obj/chmemcore.o
chCoreGetStatusX                                  build/obj/chmemcore.o
chEvtSignal                                       build/obj/ch.o
                                                  build/obj/rf.o
                                                  build/obj/sdlp.o
                                                  build/obj/uart.o
chEvtSignalI                                      build/obj/ch.o
                                                  build/obj/rf.o
                                                  build/obj/sdlp.o
                                                  build/obj/slip_uart_dll.o
                                                  build/obj/uart.o
chEvtWaitAnyTimeout                               build/obj/ch.o
                                                  build/obj/rf.o
                                                  build/obj/sdlp.o
                                                  build/obj/uart.o
chEvtWaitAnyTimeoutS                              build/obj/mych.o
chGuardedPoolAllocTimeout                         build/obj/chmempools.o
chGuardedPoolAllocTimeoutS                        build/obj/chmempools.o
chGuardedPoolFree                                 build/obj/chmempools.o
chGuardedPoolFreeI                                build/obj/chmempools.o
chGuardedPoolLoadArray                            build/obj/chmempools.o
chGuardedPoolObjectInit                           build/obj/chmempools.o
chHeapAllocAligned                                build/obj/chheap.o
chHeapFree                                        build/obj/chheap.o
chHeapObjectInit                                  build/obj/chheap.o
chHeapStatus                                      build/obj/chheap.o
chMBFetch                                         build/obj/chmboxes.o
                                                  build/obj/sdlp.o
                                                  build/obj/cmds.o
chMBFetchI                                        build/obj/chmboxes.o
chMBFetchS                                        build/obj/chmboxes.o
                                                  build/obj/uart.o
chMBObjectInit                                    build/obj/chmboxes.o
chMBPost                                          build/obj/chmboxes.o
                                                  build/obj/cmds.o
chMBPostAhead                                     build/obj/chmboxes.o
chMBPostAheadI                                    build/obj/chmboxes.o
chMBPostAheadS                                    build/obj/chmboxes.o
chMBPostI                                         build/obj/chmboxes.o
                                                  build/obj/rf.o
                                                  build/obj/cmds.o
                                                  build/obj/uart.o
chMBPostS                                         build/obj/chmboxes.o
                                                  build/obj/rf.o
                                                  build/obj/cmds.o
                                                  build/obj/uart.o
chMBReset                                         build/obj/chmboxes.o
chMBResetI                                        build/obj/chmboxes.o
chPoolAlloc                                       build/obj/chmempools.o
                                                  build/obj/spp.o
chPoolAllocI                                      build/obj/chmempools.o
                                                  build/obj/spp.o
                                                  build/obj/fram.o
                                                  build/obj/main.o
chPoolFree                                        build/obj/chmempools.o
                                                  build/obj/spp.o
chPoolFreeI                                       build/obj/chmempools.o
                                                  build/obj/spp.o
                                                  build/obj/fram.o
                                                  build/obj/main.o
chPoolLoadArray                                   build/obj/chmempools.o
chPoolObjectInit                                  build/obj/chmempools.o
chSchDoReschedule                                 build/obj/ch.o
                                                  build/obj/telem_stub.o
                                                  build/obj/hal_gpt_lld.o
                                                  build/obj/hal_uart_lld.o
                                                  build/obj/hal_i2c_lld.o
                                                  build/obj/hal_dma_lld.o
                                                  build/obj/hal_pal_lld.o
                                                  build/obj/hal_st_lld.o
chSchGoSleepTimeoutS                              build/obj/ch.o
                                                  build/obj/mych.o
chSchIsPreemptionRequired                         build/obj/ch.o
                                                  build/obj/telem_stub.o
                                                  build/obj/hal_gpt_lld.o
                                                  build/obj/hal_uart_lld.o
                                                  build/obj/hal_i2c_lld.o
                                                  build/obj/hal_dma_lld.o
                                                  build/obj/hal_pal_lld.o
                                                  build/obj/hal_st_lld.o
chSchReadyI                                       build/obj/ch.o
                                                  build/obj/uart.o
                                                  build/obj/osal.o
chSchRescheduleS                                  build/obj/ch.o
                                                  build/obj/main.o
                                                  build/obj/chmempools.o
                                                  build/obj/chmboxes.o
chSemReset                                        build/obj/ch.o
chSemResetI                                       build/obj/ch.o
                                                  build/obj/chmboxes.o
chSemSignal                                       build/obj/ch.o
                                                  build/obj/hal_spi.o
                                                  build/obj/chheap.o
chSemSignalI                                      build/obj/ch.o
                                                  build/obj/fram.o
                                                  build/obj/registers.o
                                                  build/obj/cmds.o
                                                  build/obj/main.o
                                                  build/obj/chmempools.o
                                                  build/obj/chmboxes.o
chSemWaitTimeout                                  build/obj/ch.o
                                                  build/obj/registers.o
                                                  build/obj/cmds.o
                                                  build/obj/hal_spi.o
                                                  build/obj/chheap.o
chSemWaitTimeoutS                                 build/obj/ch.o
                                                  build/obj/fram.o
                                                  build/obj/main.o
                                                  build/obj/hal_dma_lld.o
                                                  build/obj/hal_queues.o
                                                  build/obj/hal_buffers.o
                                                  build/obj/chmempools.o
                                                  build/obj/chmboxes.o
chSysGetStatusAndLockX                            build/obj/ch.o
                                                  build/obj/hal_dma_lld.o
chSysHalt                                         build/obj/ch.o
                                                  build/obj/spp.o
                                                  build/obj/rf.o
                                                  build/obj/fram.o
                                                  build/obj/sdlp.o
                                                  build/obj/crc_sdlp.o
                                                  build/obj/crc_x25.o
                                                  build/obj/slip_uart_dll.o
                                                  build/obj/cmds.o
                                                  build/obj/main.o
                                                  build/obj/uart.o
                                                  build/obj/sx1212.o
                                                  build/obj/sx1278.o
                                                  build/obj/hal_gpt_lld.o
                                                  build/obj/hal_uart_lld.o
                                                  build/obj/hal_i2c_lld.o
                                                  build/obj/hal_spi_lld.o
                                                  build/obj/hal_dma_lld.o
                                                  build/obj/hal_uart.o
                                                  build/obj/hal_spi.o
                                                  build/obj/hal_pal.o
                                                  build/obj/hal_i2c.o
                                                  build/obj/hal_gpt.o
                                                  build/obj/hal_queues.o
                                                  build/obj/hal_buffers.o
                                                  build/obj/hal_st.o
                                                  build/obj/osal.o
                                                  build/obj/chcore.o
                                                  build/obj/chmempools.o
                                                  build/obj/chheap.o
                                                  build/obj/chmemcore.o
                                                  build/obj/chmboxes.o
chSysInit                                         build/obj/ch.o
                                                  build/obj/init.o
chSysRestoreStatusX                               build/obj/ch.o
                                                  build/obj/hal_dma_lld.o
chSysTimerHandlerI                                build/obj/ch.o
                                                  build/obj/hal_st_lld.o
chSysUnconditionalLock                            build/obj/ch.o
chSysUnconditionalUnlock                          build/obj/ch.o
chThdResumeI                                      build/obj/ch.o
                                                  build/obj/sx1212.o
                                                  build/obj/sx1278.o
                                                  build/obj/hal_uart_lld.o
                                                  build/obj/hal_i2c_lld.o
                                                  build/obj/hal_spi_lld.o
chThdSleep                                        build/obj/ch.o
                                                  build/obj/sx1212.o
                                                  build/obj/sx1278.o
chThdSleepUntil                                   build/obj/ch.o
chThdSuspendTimeoutS                              build/obj/ch.o
                                                  build/obj/sx1212.o
                                                  build/obj/sx1278.o
                                                  build/obj/hal_i2c_lld.o
                                                  build/obj/hal_uart.o
                                                  build/obj/hal_spi.o
crcCheckSDLP                                      build/obj/crc_sdlp.o
crcCheckX25                                       build/obj/crc_x25.o
                                                  build/obj/cmds.o
crcGenSDLP                                        build/obj/crc_sdlp.o
                                                  build/obj/sdlp.o
crcGenX25                                         build/obj/crc_x25.o
                                                  build/obj/cmds.o
crcStart                                          build/obj/crc_x25.o
                                                  build/obj/cmds.o
crcStop                                           build/obj/crc_x25.o
                                                  build/obj/cmds.o
dmaAcquireI                                       build/obj/hal_dma_lld.o
                                                  build/obj/hal_uart_lld.o
                                                  build/obj/hal_i2c_lld.o
                                                  build/obj/hal_spi_lld.o
dmaAcquireTimeoutS                                build/obj/hal_dma_lld.o
dmaCancelI                                        build/obj/hal_dma_lld.o
                                                  build/obj/hal_uart_lld.o
                                                  build/obj/hal_i2c_lld.o
dmaClaimI                                         build/obj/hal_dma_lld.o
                                                  build/obj/hal_uart_lld.o
dmaInit                                           build/obj/hal_dma_lld.o
                                                  build/obj/hal_lld.o
dmaReleaseX                                       build/obj/hal_dma_lld.o
                                                  build/obj/hal_uart_lld.o
                                                  build/obj/hal_i2c_lld.o
                                                  build/obj/hal_spi_lld.o
dmaTransfer                                       build/obj/hal_dma_lld.o
dmaTransferI                                      build/obj/hal_dma_lld.o
                                                  build/obj/hal_uart_lld.o
                                                  build/obj/hal_i2c_lld.o
                                                  build/obj/hal_spi_lld.o
double_frames                                     build/obj/sdlp.o
elyChanGetValue                                   build/obj/channels_stub.o
                                                  build/obj/cmds.o
elyChanLog                                        build/obj/channels_stub.o
                                                  build/obj/cmds.o
elyChanReset                                      build/obj/channels_stub.o
                                                  build/obj/cmds.o
elyChanSubscribe                                  build/obj/channels_stub.o
                                                  build/obj/cmds.o
elyChanUnlog                                      build/obj/channels_stub.o
                                                  build/obj/cmds.o
elyChanUnsubscribe                                build/obj/channels_stub.o
                                                  build/obj/cmds.o
elyClampReg                                       build/obj/registers.o
elyCmdDispatch                                    build/obj/cmds.o
elyCmdParse                                       build/obj/cmds.o
elyCmdSendReply                                   build/obj/cmds.o
elyCmdSendReplyI                                  build/obj/cmds.o
elyCmdValidate                                    build/obj/cmds.o
elyErrorSetLogLvlS                                build/obj/errors_stub.o
                                                  build/obj/cmds.o
elyErrorSetRptLvlS                                build/obj/errors_stub.o
                                                  build/obj/cmds.o
elyErrorSignal                                    build/obj/errors_stub.o
                                                  build/obj/spp.o
                                                  build/obj/sdlp.o
                                                  build/obj/registers.o
                                                  build/obj/cmds.o
elyErrorSignalI                                   build/obj/errors_stub.o
elyEventLog                                       build/obj/events_stub.o
                                                  build/obj/cmds.o
elyEventReset                                     build/obj/events_stub.o
                                                  build/obj/cmds.o
elyEventSignal                                    build/obj/events_stub.o
                                                  build/obj/cmds.o
elyEventSignalI                                   build/obj/events_stub.o
elyEventSubscribe                                 build/obj/events_stub.o
                                                  build/obj/cmds.o
elyEventUnlog                                     build/obj/events_stub.o
                                                  build/obj/cmds.o
elyEventUnsubscribe                               build/obj/events_stub.o
                                                  build/obj/cmds.o
elyFWFreeBuffer                                   build/obj/main.o
                                                  build/obj/spp.o
                                                  build/obj/cmds.o
elyFWFreeBufferI                                  build/obj/main.o
                                                  build/obj/spp.o
                                                  build/obj/cmds.o
elyFWGetBuffer                                    build/obj/main.o
                                                  build/obj/cmds.o
elyFWGetBufferI                                   build/obj/main.o
                                                  build/obj/cmds.o
elyFWGetBufferTimeoutS                            build/obj/main.o
elyFramGetRequestI                                build/obj/fram.o
elyFramGetRequestTimeoutS                         build/obj/fram.o
                                                  build/obj/registers.o
                                                  build/obj/cmds.o
elyFramInit                                       build/obj/fram.o
                                                  build/obj/init.o
elyFramPostRequestI                               build/obj/fram.o
elyFramPostRequestS                               build/obj/fram.o
                                                  build/obj/registers.o
                                                  build/obj/cmds.o
elyMainMBPost                                     build/obj/cmds.o
                                                  build/obj/spp.o
elyMainMBPostI                                    build/obj/cmds.o
                                                  build/obj/spp.o
elyMainMBPostS                                    build/obj/cmds.o
elyNLChangeMaxLengthS                             build/obj/spp.o
elyNLClampReg                                     build/obj/spp.o
                                                  build/obj/registers.o
elyNLFreeBuffer                                   build/obj/spp.o
                                                  build/obj/slip_uart_dll.o
                                                  build/obj/cmds.o
elyNLFreeBufferChecked                            build/obj/spp.o
                                                  build/obj/sdlp.o
                                                  build/obj/slip_uart_dll.o
elyNLFreeBufferCheckedI                           build/obj/spp.o
                                                  build/obj/slip_uart_dll.o
elyNLFreeBufferI                                  build/obj/spp.o
elyNLFromFW                                       build/obj/spp.o
                                                  build/obj/cmds.o
elyNLGetBuffer                                    build/obj/spp.o
                                                  build/obj/slip_uart_dll.o
elyNLGetBufferI                                   build/obj/spp.o
                                                  build/obj/sdlp.o
elyNLGetDest                                      build/obj/spp.o
                                                  build/obj/cmds.o
elyNLGetLength                                    build/obj/spp.o
                                                  build/obj/sdlp.o
                                                  build/obj/slip_uart_dll.o
elyNLGetPayloadLength                             build/obj/spp.o
elyNLInit                                         build/obj/spp.o
                                                  build/obj/init.o
elyNLMaxLen                                       build/obj/spp.o
                                                  build/obj/slip_uart_dll.o
elyNLRouteRF                                      build/obj/spp.o
                                                  build/obj/sdlp.o
elyNLRouteRFI                                     build/obj/spp.o
                                                  build/obj/sdlp.o
elyNLRouteUART                                    build/obj/spp.o
                                                  build/obj/slip_uart_dll.o
elyNLSetHeader                                    build/obj/spp.o
                                                  build/obj/cmds.o
elyNLToFW                                         build/obj/spp.o
                                                  build/obj/cmds.o
                                                  build/obj/main.o
elyNLValidate                                     build/obj/spp.o
                                                  build/obj/slip_uart_dll.o
elyRFCfgMarkDirty                                 build/obj/rf.o
                                                  build/obj/cmds.o
elyRFCfgMarkDirtyI                                build/obj/rf.o
elyRFChangeRxBRS                                  build/obj/rf.o
elyRFChangeRxDevS                                 build/obj/rf.o
elyRFChangeRxFilterParamsS                        build/obj/rf.o
elyRFChangeRxFreqS                                build/obj/rf.o
elyRFChangeRxSyncS                                build/obj/rf.o
elyRFChangeTxBRS                                  build/obj/rf.o
elyRFChangeTxDevS                                 build/obj/rf.o
elyRFChangeTxFilterParamsS                        build/obj/rf.o
elyRFChangeTxFreqS                                build/obj/rf.o
elyRFChangeTxPowerS                               build/obj/rf.o
elyRFChangeTxSyncS                                build/obj/sdlp.o
elyRFDLLBuildFrame                                build/obj/sdlp.o
                                                  build/obj/rf.o
elyRFDLLClampReg                                  build/obj/sdlp.o
                                                  build/obj/registers.o
elyRFDLLHandleRxFifo                              build/obj/sdlp.o
                                                  build/obj/rf.o
elyRFDLLHandleTxFifo                              build/obj/sdlp.o
                                                  build/obj/rf.o
elyRFDLLInitiateTransmit                          build/obj/sdlp.o
                                                  build/obj/rf.o
elyRFDLLRxInit                                    build/obj/sdlp.o
                                                  build/obj/rf.o
elyRFDLLTxInit                                    build/obj/sdlp.o
                                                  build/obj/rf.o
elyRFPost                                         build/obj/rf.o
                                                  build/obj/spp.o
elyRFPostI                                        build/obj/rf.o
                                                  build/obj/spp.o
                                                  build/obj/cmds.o
elyRegGet                                         build/obj/registers.o
                                                  build/obj/cmds.o
elyRegGetBlock                                    build/obj/registers.o
                                                  build/obj/cmds.o
elyRegSet                                         build/obj/registers.o
                                                  build/obj/cmds.o
elyRegSetBlock                                    build/obj/registers.o
                                                  build/obj/cmds.o
elyTelemPostBufferS                               build/obj/telem_stub.o
                                                  build/obj/cmds.o
elyTelemUpdateConfigS                             build/obj/telem_stub.o
                                                  build/obj/cmds.o
elyUARTCfgMarkDirty                               build/obj/uart.o
                                                  build/obj/cmds.o
elyUARTCfgMarkDirtyI                              build/obj/uart.o
elyUARTDLLRxCB                                    build/obj/slip_uart_dll.o
                                                  build/obj/uart.o
elyUARTDLLRxCharCB                                build/obj/slip_uart_dll.o
                                                  build/obj/uart.o
elyUARTDLLRxHandleBuffer                          build/obj/slip_uart_dll.o
                                                  build/obj/uart.o
elyUARTDLLRxInit                                  build/obj/slip_uart_dll.o
                                                  build/obj/uart.o
elyUARTDLLStartTx                                 build/obj/slip_uart_dll.o
                                                  build/obj/uart.o
elyUARTDLLTimeoutCB                               build/obj/slip_uart_dll.o
                                                  build/obj/uart.o
elyUARTDLLTxCB                                    build/obj/slip_uart_dll.o
                                                  build/obj/uart.o
elyUARTPost                                       build/obj/uart.o
                                                  build/obj/spp.o
elyUARTPostI                                      build/obj/uart.o
                                                  build/obj/spp.o
                                                  build/obj/cmds.o
elyUARTRxBufReadyI                                build/obj/uart.o
end_cb                                            build/obj/fram.o
fec                                               build/obj/sdlp.o
fecf                                              build/obj/sdlp.o
fram_block                                        build/obj/registers.o
fram_block_cb                                     build/obj/registers.o
fram_handle_request                               build/obj/fram.o
fram_mpool_alloc                                  build/obj/fram.o
fram_reg                                          build/obj/registers.o
fram_reg_cb                                       build/obj/registers.o
fw_allocator                                      build/obj/main.o
gptChangeInterval                                 build/obj/hal_gpt.o
gptInit                                           build/obj/hal_gpt.o
                                                  build/obj/hal.o
gptObjectInit                                     build/obj/hal_gpt.o
                                                  build/obj/hal_gpt_lld.o
gptPolledDelay                                    build/obj/hal_gpt.o
gptStart                                          build/obj/hal_gpt.o
                                                  build/obj/uart.o
gptStartContinuous                                build/obj/hal_gpt.o
gptStartContinuousI                               build/obj/hal_gpt.o
gptStartOneShot                                   build/obj/hal_gpt.o
gptStartOneShotI                                  build/obj/hal_gpt.o
                                                  build/obj/slip_uart_dll.o
gptStop                                           build/obj/hal_gpt.o
gptStopTimer                                      build/obj/hal_gpt.o
gptStopTimerI                                     build/obj/hal_gpt.o
                                                  build/obj/slip_uart_dll.o
gpt_lld_init                                      build/obj/hal_gpt_lld.o
                                                  build/obj/hal_gpt.o
gpt_lld_polled_delay                              build/obj/hal_gpt_lld.o
                                                  build/obj/hal_gpt.o
gpt_lld_start                                     build/obj/hal_gpt_lld.o
                                                  build/obj/hal_gpt.o
gpt_lld_start_timer                               build/obj/hal_gpt_lld.o
                                                  build/obj/hal_gpt.o
gpt_lld_stop                                      build/obj/hal_gpt_lld.o
                                                  build/obj/hal_gpt.o
gpt_lld_stop_timer                                build/obj/hal_gpt_lld.o
                                                  build/obj/hal_gpt.o
halInit                                           build/obj/hal.o
                                                  build/obj/init.o
hal_lld_init                                      build/obj/hal_lld.o
                                                  build/obj/hal.o
header_callback                                   build/obj/sdlp.o
i2cGetErrors                                      build/obj/hal_i2c.o
i2cInit                                           build/obj/hal_i2c.o
                                                  build/obj/hal.o
i2cMSP430XContinueTransmitI                       build/obj/hal_i2c_lld.o
                                                  build/obj/fram.o
i2cMSP430XContinueTransmitMSBI                    build/obj/hal_i2c_lld.o
i2cMSP430XContinueTransmitMemsetI                 build/obj/hal_i2c_lld.o
                                                  build/obj/fram.o
i2cMSP430XEndTransferI                            build/obj/hal_i2c_lld.o
                                                  build/obj/fram.o
i2cMSP430XStartReceiveI                           build/obj/hal_i2c_lld.o
                                                  build/obj/fram.o
i2cMSP430XStartReceiveToRegI                      build/obj/hal_i2c_lld.o
                                                  build/obj/fram.o
i2cMSP430XStartTransmitI                          build/obj/hal_i2c_lld.o
i2cMSP430XStartTransmitMSBI                       build/obj/hal_i2c_lld.o
                                                  build/obj/fram.o
i2cMasterReceiveTimeout                           build/obj/hal_i2c.o
i2cMasterTransmitTimeout                          build/obj/hal_i2c.o
i2cObjectInit                                     build/obj/hal_i2c.o
                                                  build/obj/hal_i2c_lld.o
i2cStart                                          build/obj/hal_i2c.o
                                                  build/obj/fram.o
i2cStop                                           build/obj/hal_i2c.o
i2c_lld_init                                      build/obj/hal_i2c_lld.o
                                                  build/obj/hal_i2c.o
i2c_lld_master_receive_timeout                    build/obj/hal_i2c_lld.o
                                                  build/obj/hal_i2c.o
i2c_lld_master_transmit_timeout                   build/obj/hal_i2c_lld.o
                                                  build/obj/hal_i2c.o
i2c_lld_start                                     build/obj/hal_i2c_lld.o
                                                  build/obj/hal_i2c.o
i2c_lld_stop                                      build/obj/hal_i2c_lld.o
                                                  build/obj/hal_i2c.o
ibqGetEmptyBufferI                                build/obj/hal_buffers.o
ibqGetFullBufferTimeout                           build/obj/hal_buffers.o
ibqGetFullBufferTimeoutS                          build/obj/hal_buffers.o
ibqGetTimeout                                     build/obj/hal_buffers.o
ibqObjectInit                                     build/obj/hal_buffers.o
ibqPostFullBufferI                                build/obj/hal_buffers.o
ibqReadTimeout                                    build/obj/hal_buffers.o
ibqReleaseEmptyBuffer                             build/obj/hal_buffers.o
ibqReleaseEmptyBufferS                            build/obj/hal_buffers.o
ibqResetI                                         build/obj/hal_buffers.o
iqGetTimeout                                      build/obj/hal_queues.o
iqObjectInit                                      build/obj/hal_queues.o
iqPutI                                            build/obj/hal_queues.o
iqReadTimeout                                     build/obj/hal_queues.o
iqResetI                                          build/obj/hal_queues.o
is_fw_buf                                         build/obj/spp.o
main                                              build/obj/init.o
                                                  /root/ti-tools/part2/msp430-gcc-6.2.1.16_linux64/bin/../lib/gcc/msp430-elf/6.2.1/../../../../msp430-elf/lib/large/libcrt.a(crt_main_minrt.o)
memcpy                                            /root/ti-tools/part2/msp430-gcc-6.2.1.16_linux64/bin/../lib/gcc/msp430-elf/6.2.1/../../../../msp430-elf/lib/large/libc.a(lib_a-memcpy.o)
                                                  build/obj/registers.o
                                                  build/obj/cmds.o
                                                  build/obj/hal_buffers.o
memmove                                           /root/ti-tools/part2/msp430-gcc-6.2.1.16_linux64/bin/../lib/gcc/msp430-elf/6.2.1/../../../../msp430-elf/lib/large/libc.a(lib_a-memmove.o)
                                                  /root/ti-tools/part2/msp430-gcc-6.2.1.16_linux64/bin/../lib/gcc/msp430-elf/6.2.1/../../../../msp430-elf/lib/large/libcrt.a(crt_move_highdata.o)
memset                                            /root/ti-tools/part2/msp430-gcc-6.2.1.16_linux64/bin/../lib/gcc/msp430-elf/6.2.1/../../../../msp430-elf/lib/large/libc.a(lib_a-memset.o)
                                                  /root/ti-tools/part2/msp430-gcc-6.2.1.16_linux64/bin/../lib/gcc/msp430-elf/6.2.1/../../../../msp430-elf/lib/large/libcrt.a(crt_high_bss.o)
                                                  /root/ti-tools/part2/msp430-gcc-6.2.1.16_linux64/bin/../lib/gcc/msp430-elf/6.2.1/../../../../msp430-elf/lib/large/libcrt.a(crt_bss.o)
                                                  build/obj/cmds.o
missed_frames                                     build/obj/sdlp.o
nil                                               build/obj/ch.o
                                                  build/obj/rf.o
                                                  build/obj/slip_uart_dll.o
                                                  build/obj/mych.o
                                                  build/obj/uart.o
                                                  build/obj/sx1278.o
                                                  build/obj/hal_i2c_lld.o
                                                  build/obj/hal_queues.o
                                                  build/obj/hal_buffers.o
                                                  build/obj/osal.o
nil_thd_configs                                   build/obj/init.o
                                                  build/obj/ch.o
nl_allocator                                      build/obj/spp.o
obqFlush                                          build/obj/hal_buffers.o
obqGetEmptyBufferTimeout                          build/obj/hal_buffers.o
obqGetEmptyBufferTimeoutS                         build/obj/hal_buffers.o
obqGetFullBufferI                                 build/obj/hal_buffers.o
obqObjectInit                                     build/obj/hal_buffers.o
obqPostFullBuffer                                 build/obj/hal_buffers.o
obqPostFullBufferS                                build/obj/hal_buffers.o
obqPutTimeout                                     build/obj/hal_buffers.o
obqReleaseEmptyBufferI                            build/obj/hal_buffers.o
obqResetI                                         build/obj/hal_buffers.o
obqTryFlushI                                      build/obj/hal_buffers.o
obqWriteTimeout                                   build/obj/hal_buffers.o
oqGetI                                            build/obj/hal_queues.o
oqObjectInit                                      build/obj/hal_queues.o
oqPutTimeout                                      build/obj/hal_queues.o
oqResetI                                          build/obj/hal_queues.o
oqWriteTimeout                                    build/obj/hal_queues.o
osalThreadDequeueAllI                             build/obj/osal.o
                                                  build/obj/hal_queues.o
                                                  build/obj/hal_buffers.o
osalThreadDequeueNextI                            build/obj/osal.o
                                                  build/obj/hal_dma_lld.o
                                                  build/obj/hal_queues.o
                                                  build/obj/hal_buffers.o
packet_callback                                   build/obj/sdlp.o
packets_received                                  build/obj/spp.o
packets_relayed                                   build/obj/spp.o
packets_sent                                      build/obj/spp.o
palReadBus                                        build/obj/hal_pal.o
palSetBusMode                                     build/obj/hal_pal.o
palWriteBus                                       build/obj/hal_pal.o
pal_default_config                                build/obj/board.o
                                                  build/obj/hal.o
port_callback_map                                 build/obj/hal_pal_lld.o
rf_mbox                                           build/obj/rf.o
                                                  build/obj/sdlp.o
rf_spi_cfg                                        build/obj/rf.o
rf_thd                                            build/obj/rf.o
                                                  build/obj/sdlp.o
rfic_pow_to_reg                                   build/obj/rf.o
rx_async_callback                                 build/obj/hal_i2c_lld.o
rx_complete                                       build/obj/hal_i2c_lld.o
rxfifothresh_callback                             build/obj/sdlp.o
send_complete_cb                                  build/obj/uart.o
sending                                           build/obj/sx1212.o
seq_no                                            build/obj/sdlp.o
spiAcquireBus                                     build/obj/hal_spi.o
spiExchange                                       build/obj/hal_spi.o
spiIgnore                                         build/obj/hal_spi.o
spiInit                                           build/obj/hal_spi.o
                                                  build/obj/hal.o
spiObjectInit                                     build/obj/hal_spi.o
                                                  build/obj/hal_spi_lld.o
spiReceive                                        build/obj/hal_spi.o
spiReleaseBus                                     build/obj/hal_spi.o
spiSelect                                         build/obj/hal_spi.o
spiSend                                           build/obj/hal_spi.o
                                                  build/obj/sx1278.o
spiStart                                          build/obj/hal_spi.o
                                                  build/obj/sx1212.o
                                                  build/obj/sx1278.o
spiStartExchange                                  build/obj/hal_spi.o
spiStartIgnore                                    build/obj/hal_spi.o
spiStartReceive                                   build/obj/hal_spi.o
                                                  build/obj/sx1212.o
spiStartSend                                      build/obj/hal_spi.o
                                                  build/obj/sx1278.o
spiStop                                           build/obj/hal_spi.o
                                                  build/obj/sx1212.o
                                                  build/obj/sx1278.o
spiUnselect                                       build/obj/hal_spi.o
spi_callback                                      build/obj/sx1278.o
spi_lld_exchange                                  build/obj/hal_spi_lld.o
                                                  build/obj/hal_spi.o
spi_lld_ignore                                    build/obj/hal_spi_lld.o
                                                  build/obj/hal_spi.o
spi_lld_init                                      build/obj/hal_spi_lld.o
                                                  build/obj/hal_spi.o
spi_lld_polled_exchange                           build/obj/hal_spi_lld.o
                                                  build/obj/sx1212.o
                                                  build/obj/sx1278.o
spi_lld_receive                                   build/obj/hal_spi_lld.o
                                                  build/obj/hal_spi.o
spi_lld_select                                    build/obj/hal_spi_lld.o
                                                  build/obj/sx1212.o
                                                  build/obj/hal_spi.o
spi_lld_send                                      build/obj/hal_spi_lld.o
                                                  build/obj/sx1278.o
                                                  build/obj/hal_spi.o
spi_lld_start                                     build/obj/hal_spi_lld.o
                                                  build/obj/hal_spi.o
spi_lld_stop                                      build/obj/hal_spi_lld.o
                                                  build/obj/hal_spi.o
spi_lld_unselect                                  build/obj/hal_spi_lld.o
                                                  build/obj/sx1212.o
                                                  build/obj/hal_spi.o
spi_mode_config                                   build/obj/sx1212.o
spi_mode_data                                     build/obj/sx1212.o
stGetAlarm                                        build/obj/hal_st.o
stInit                                            build/obj/hal_st.o
                                                  build/obj/hal.o
stSetAlarm                                        build/obj/hal_st.o
stStartAlarm                                      build/obj/hal_st.o
stStopAlarm                                       build/obj/hal_st.o
st_lld_init                                       build/obj/hal_st_lld.o
                                                  build/obj/hal_st.o
sx1212CLKOUT                                      build/obj/sx1212.o
sx1212FifoRead                                    build/obj/sx1212.o
                                                  build/obj/sdlp.o
sx1212FifoReadAsync                               build/obj/sx1212.o
sx1212RSSI                                        build/obj/sx1212.o
sx1212ReadRegister                                build/obj/sx1212.o
                                                  build/obj/cmds.o
sx1212ReceiveI                                    build/obj/sx1212.o
                                                  build/obj/sdlp.o
sx1212ReceiveTimeout                              build/obj/sx1212.o
sx1212SetBitrate                                  build/obj/sx1212.o
                                                  build/obj/rf.o
sx1212SetDeviation                                build/obj/sx1212.o
                                                  build/obj/rf.o
sx1212SetFrequency                                build/obj/sx1212.o
                                                  build/obj/rf.o
sx1212SetRxBw                                     build/obj/sx1212.o
                                                  build/obj/rf.o
sx1212SetSync                                     build/obj/sx1212.o
                                                  build/obj/rf.o
sx1212Start                                       build/obj/sx1212.o
                                                  build/obj/rf.o
sx1212StartReceive                                build/obj/sx1212.o
                                                  build/obj/sdlp.o
sx1212Stop                                        build/obj/sx1212.o
sx1212StopReceive                                 build/obj/sx1212.o
                                                  build/obj/sdlp.o
sx1212StopReceiveI                                build/obj/sx1212.o
                                                  build/obj/sdlp.o
sx1212TUNE                                        build/obj/sx1212.o
sx122ObjectInit                                   build/obj/sx1212.o
sx1278FifoWriteAsync                              build/obj/sx1278.o
sx1278FifoWriteAsyncS                             build/obj/sx1278.o
                                                  build/obj/sdlp.o
sx1278ObjectInit                                  build/obj/sx1278.o
                                                  build/obj/rf.o
sx1278ReadRegister                                build/obj/sx1278.o
sx1278Send                                        build/obj/sx1278.o
sx1278SetBitrate                                  build/obj/sx1278.o
                                                  build/obj/rf.o
sx1278SetDeviation                                build/obj/sx1278.o
                                                  build/obj/rf.o
sx1278SetFilterParams                             build/obj/sx1278.o
                                                  build/obj/rf.o
sx1278SetFrequency                                build/obj/sx1278.o
                                                  build/obj/rf.o
sx1278SetPower                                    build/obj/sx1278.o
                                                  build/obj/rf.o
sx1278SetRegister                                 build/obj/sx1278.o
sx1278SetSync                                     build/obj/sx1278.o
                                                  build/obj/rf.o
                                                  build/obj/sdlp.o
sx1278Sleep                                       build/obj/sx1278.o
sx1278Start                                       build/obj/sx1278.o
                                                  build/obj/rf.o
sx1278StartTransmit                               build/obj/sx1278.o
                                                  build/obj/sdlp.o
sx1278Stop                                        build/obj/sx1278.o
tr                                                build/obj/sx1212.o
tx_complete                                       build/obj/hal_i2c_lld.o
txlvl_callback                                    build/obj/sdlp.o
uartInit                                          build/obj/hal_uart.o
                                                  build/obj/hal.o
uartObjectInit                                    build/obj/hal_uart.o
                                                  build/obj/hal_uart_lld.o
uartReceiveTimeout                                build/obj/hal_uart.o
uartSendFullTimeout                               build/obj/hal_uart.o
uartSendTimeout                                   build/obj/hal_uart.o
uartStart                                         build/obj/hal_uart.o
                                                  build/obj/uart.o
uartStartReceive                                  build/obj/hal_uart.o
uartStartReceiveI                                 build/obj/hal_uart.o
                                                  build/obj/slip_uart_dll.o
uartStartSend                                     build/obj/hal_uart.o
uartStartSendI                                    build/obj/hal_uart.o
                                                  build/obj/slip_uart_dll.o
uartStop                                          build/obj/hal_uart.o
uartStopReceive                                   build/obj/hal_uart.o
uartStopReceiveI                                  build/obj/hal_uart.o
                                                  build/obj/slip_uart_dll.o
uartStopSend                                      build/obj/hal_uart.o
uartStopSendI                                     build/obj/hal_uart.o
uart_lld_init                                     build/obj/hal_uart_lld.o
                                                  build/obj/hal_uart.o
uart_lld_start                                    build/obj/hal_uart_lld.o
                                                  build/obj/hal_uart.o
uart_lld_start_receive                            build/obj/hal_uart_lld.o
                                                  build/obj/hal_uart.o
uart_lld_start_send                               build/obj/hal_uart_lld.o
                                                  build/obj/hal_uart.o
uart_lld_stop                                     build/obj/hal_uart_lld.o
                                                  build/obj/hal_uart.o
uart_lld_stop_receive                             build/obj/hal_uart_lld.o
                                                  build/obj/hal_uart.o
uart_lld_stop_send                                build/obj/hal_uart_lld.o
                                                  build/obj/hal_uart.o
udivmodsi4                                        /root/ti-tools/part2/msp430-gcc-6.2.1.16_linux64/bin/../lib/gcc/msp430-elf/6.2.1/large/libgcc.a(lib2divSI.o)
waCmdThd                                          build/obj/cmds.o
                                                  build/obj/init.o
waRFThd                                           build/obj/rf.o
                                                  build/obj/init.o
waUARTThd                                         build/obj/uart.o
                                                  build/obj/init.o
write_cb                                          build/obj/sdlp.o
