
build/elysium.elf:     file format elf32-msp430


Disassembly of section .text:

00004400 <__crt0_start>:
    4400:	81 00 22 b6 	mova	#46626,	r1	;0x0b622

00004404 <disable_watchdog>:
    4404:	40 18 b2 40 	movx.w	#23168,	&0x0015c;0x05a80
    4408:	80 5a 5c 01 

0000440c <__crt0_init_bss>:
    440c:	8c 00 9a dd 	mova	#56730,	r12	;0x0dd9a

00004410 <.Loc.74.1>:
    4410:	0d 43       	clr	r13		;

00004412 <.Loc.75.1>:
    4412:	3e 40 4c 04 	mov	#1100,	r14	;#0x044c

00004416 <.Loc.77.1>:
    4416:	0f 43       	clr	r15		;

00004418 <.Loc.79.1>:
    4418:	b0 13 b6 b4 	calla	#46262		;0x0b4b6

0000441c <__crt0_init_highbss>:
    441c:	8c 01 3e 16 	mova	#71230,	r12	;0x1163e

00004420 <.Loc.94.1>:
    4420:	0d 43       	clr	r13		;

00004422 <.Loc.95.1>:
    4422:	8e 01 7a 1a 	mova	#72314,	r14	;0x11a7a

00004426 <.Loc.98.1>:
    4426:	0e 93       	cmp	#0,	r14	;r3 As==00

00004428 <.Loc.99.1>:
    4428:	02 24       	jz	$+6      	;abs 0x442e

0000442a <.Loc.100.1>:
    442a:	b0 13 b6 b4 	calla	#46262		;0x0b4b6

0000442e <__crt0_move_highdata>:
    442e:	3e 40 1c 08 	mov	#2076,	r14	;#0x081c

00004432 <.Loc.146.1>:
    4432:	0e 93       	cmp	#0,	r14	;r3 As==00

00004434 <.Loc.147.1>:
    4434:	14 24       	jz	$+42     	;abs 0x445e

00004436 <.Loc.150.1>:
    4436:	41 18 82 93 	cmpx.w	#0,	&0x10604;r3 As==00
    443a:	04 06 

0000443c <.Loc.151.1>:
    443c:	05 24       	jz	$+12     	;abs 0x4448

0000443e <.Loc.153.1>:
    443e:	8c 01 06 06 	mova	#67078,	r12	;0x10606

00004442 <.Loc.154.1>:
    4442:	8d 01 22 0e 	mova	#69154,	r13	;0x10e22

00004446 <.Loc.155.1>:
    4446:	07 3c       	jmp	$+16     	;abs 0x4456

00004448 <.L11>:
    4448:	41 18 92 43 	movx.w	#1,	&0x10604;r3 As==01
    444c:	04 06 

0000444e <.Loc.159.1>:
    444e:	8c 01 22 0e 	mova	#69154,	r12	;0x10e22

00004452 <.Loc.160.1>:
    4452:	8d 01 06 06 	mova	#67078,	r13	;0x10606

00004456 <.L21>:
    4456:	3e 40 1c 08 	mov	#2076,	r14	;#0x081c

0000445a <.Loc.165.1>:
    445a:	b0 13 d0 b4 	calla	#46288		;0x0b4d0

0000445e <__crt0_call_just_main>:
    445e:	0c 43       	clr	r12		;

00004460 <.Loc.181.1>:
    4460:	b0 13 aa a4 	calla	#42154		;0x0a4aa

00004464 <RFThd>:
    4464:	6a 14       	pushm.a	#7,	r10	;20-bit words
    4466:	b1 00 0c 00 	suba	#12,	r1	;0x0000c
    446a:	81 18 d2 42 	movx.a	&0x11a2c,&0x11976;
    446e:	2c 1a 76 19 
    4472:	88 00 fe a1 	mova	#41470,	r8	;0x0a1fe
    4476:	48 13       	calla	r8		;
    4478:	8a 00 f2 b6 	mova	#46834,	r10	;0x0b6f2
    447c:	8c 00 8c dc 	mova	#56460,	r12	;0x0dc8c
    4480:	5e 4c 19 00 	mov.b	25(r12),r14	;0x00019
    4484:	47 18 0e 5e 	rpt #8 { rlax.w	r14		;
    4488:	5d 4c 1b 00 	mov.b	27(r12),r13	;0x0001b
    448c:	47 18 0d 5d 	rpt #8 { rlax.w	r13		;
    4490:	59 4c 1a 00 	mov.b	26(r12),r9	;0x0001a
    4494:	0d d9       	bis	r9,	r13	;
    4496:	5f 4c 18 00 	mov.b	24(r12),r15	;0x00018
    449a:	0f de       	bis	r14,	r15	;
    449c:	8a 4f 08 00 	mov	r15,	8(r10)	;
    44a0:	8a 4d 0a 00 	mov	r13,	10(r10)	; 0x000a
    44a4:	5e 4c 01 00 	mov.b	1(r12),	r14	;
    44a8:	47 18 0e 5e 	rpt #8 { rlax.w	r14		;
    44ac:	5d 4c 03 00 	mov.b	3(r12),	r13	;
    44b0:	47 18 0d 5d 	rpt #8 { rlax.w	r13		;
    44b4:	59 4c 02 00 	mov.b	2(r12),	r9	;
    44b8:	0d d9       	bis	r9,	r13	;
    44ba:	6f 4c       	mov.b	@r12,	r15	;
    44bc:	0f de       	bis	r14,	r15	;
    44be:	8a 4f 0c 00 	mov	r15,	12(r10)	; 0x000c
    44c2:	8a 4d 0e 00 	mov	r13,	14(r10)	; 0x000e
    44c6:	5e 4c 09 00 	mov.b	9(r12),	r14	;
    44ca:	47 18 0e 5e 	rpt #8 { rlax.w	r14		;
    44ce:	5d 4c 0b 00 	mov.b	11(r12),r13	;0x0000b
    44d2:	47 18 0d 5d 	rpt #8 { rlax.w	r13		;
    44d6:	59 4c 0a 00 	mov.b	10(r12),r9	;0x0000a
    44da:	0d d9       	bis	r9,	r13	;
    44dc:	5f 4c 08 00 	mov.b	8(r12),	r15	;
    44e0:	0f de       	bis	r14,	r15	;
    44e2:	8a 4f 10 00 	mov	r15,	16(r10)	; 0x0010
    44e6:	8a 4d 12 00 	mov	r13,	18(r10)	; 0x0012
    44ea:	5d 4c 20 00 	mov.b	32(r12),r13	;0x00020
    44ee:	5d 0f       	rrum	#4,	r13	;
    44f0:	7d f0 03 00 	and.b	#3,	r13	;
    44f4:	ca 4d 14 00 	mov.b	r13,	20(r10)	; 0x0014
    44f8:	5e 4c 21 00 	mov.b	33(r12),r14	;0x00021
    44fc:	0e 5e       	rla	r14		;
    44fe:	3e 50 60 ff 	add	#65376,	r14	;#0xff60
    4502:	0e 11       	rra	r14		;
    4504:	3e 50 15 00 	add	#21,	r14	;#0x0015
    4508:	4e 0e       	rlam.a	#4,	r14	;
    450a:	4e 0d       	rram.a	#4,	r14	;
    450c:	c0 18 da 4e 	movx.b	65692(r14),21(r10)	;0x1009c, 0x00015
    4510:	9c 00 15 00 
    4514:	5e 4c 11 00 	mov.b	17(r12),r14	;0x00011
    4518:	47 18 0e 5e 	rpt #8 { rlax.w	r14		;
    451c:	5d 4c 13 00 	mov.b	19(r12),r13	;0x00013
    4520:	47 18 0d 5d 	rpt #8 { rlax.w	r13		;
    4524:	59 4c 12 00 	mov.b	18(r12),r9	;0x00012
    4528:	0d d9       	bis	r9,	r13	;
    452a:	5c 4c 10 00 	mov.b	16(r12),r12	;0x00010
    452e:	0c de       	bis	r14,	r12	;
    4530:	8a 4c 18 00 	mov	r12,	24(r10)	; 0x0018
    4534:	8a 4d 1a 00 	mov	r13,	26(r10)	; 0x001a
    4538:	b0 13 f4 a1 	calla	#41460		;0x0a1f4
    453c:	41 18 f2 40 	movx.b	#9,	&0x11a1b;
    4540:	09 00 1b 1a 
    4544:	41 18 c2 43 	movx.b	#0,	&0x11a1c;r3 As==00
    4548:	1c 1a 
    454a:	41 18 d2 43 	movx.b	#1,	&0x11a1a;r3 As==01
    454e:	1a 1a 
    4550:	61 0a 16 1a 	mova	r10,	&72214	; 0x11a16
    4554:	3c 0a 1e 00 	mova	30(r10),r12	;0x0001e
    4558:	c7 08       	mova	r8,	r7	;
    455a:	9c 00 00 00 	cmpa	#0,	r12	;
    455e:	08 20       	jnz	$+18     	;abs 0x4570
    4560:	b0 13 fe a1 	calla	#41470		;0x0a1fe
    4564:	81 18 f2 40 	movx.a	#65573,	&0x11a36;0x10025
    4568:	25 00 36 1a 

0000456c <.L3>:
    456c:	80 00 6c 45 	mova	#17772,	r0	;0x0456c

00004570 <.L2>:
    4570:	ca 0c       	mova	r12,	r10	;
    4572:	00 18 7a f0 	andx.a	#4095,	r10	;0x00fff
    4576:	ff 0f 
    4578:	0c 14       	pushm.a	#1,	r12	;20-bit words
    457a:	40 18 3c 41 	popx.w	r12		;
    457e:	40 18 3d 41 	popx.w	r13		;
    4582:	b0 13 e0 b3 	calla	#46048		;0x0b3e0
    4586:	0d 12       	push	r13		;
    4588:	0c 12       	push	r12		;
    458a:	08 16       	popm.a	#1,	r8	;20-bit words
    458c:	40 18 08 48 	movx.w	r8,	r8	;
    4590:	5c 43       	mov.b	#1,	r12	;r3 As==01
    4592:	0d 48       	mov	r8,	r13	;
    4594:	b0 13 34 b3 	calla	#45876		;0x0b334
    4598:	8a dc 04 00 	bis	r12,	4(r10)	;
    459c:	1c ba 0a 00 	bit	10(r10),r12	;0x0000a
    45a0:	91 24       	jz	$+292    	;abs 0x46c4
    45a2:	1c ba 0c 00 	bit	12(r10),r12	;0x0000c
    45a6:	8e 24       	jz	$+286    	;abs 0x46c4
    45a8:	8a 4c 16 00 	mov	r12,	22(r10)	; 0x0016

000045ac <.L5>:
    45ac:	19 4a 02 00 	mov	2(r10),	r9	;
    45b0:	5c 43       	mov.b	#1,	r12	;r3 As==01
    45b2:	0d 48       	mov	r8,	r13	;
    45b4:	b0 13 34 b3 	calla	#45876		;0x0b334
    45b8:	09 cc       	bic	r12,	r9	;
    45ba:	8a 49 02 00 	mov	r9,	2(r10)	;
    45be:	89 00 5e 97 	mova	#38750,	r9	;0x0975e
    45c2:	5c 43       	mov.b	#1,	r12	;r3 As==01
    45c4:	49 13       	calla	r9		;
    45c6:	86 01 16 1a 	mova	#72214,	r6	;0x11a16
    45ca:	0c 06       	mova	@r6,	r12	;
    45cc:	3c 0c 1e 00 	mova	30(r12),r12	;0x0001e
    45d0:	ca 0c       	mova	r12,	r10	;
    45d2:	00 18 7a f0 	andx.a	#4095,	r10	;0x00fff
    45d6:	ff 0f 
    45d8:	18 4a 02 00 	mov	2(r10),	r8	;
    45dc:	0c 14       	pushm.a	#1,	r12	;20-bit words
    45de:	40 18 3c 41 	popx.w	r12		;
    45e2:	40 18 3d 41 	popx.w	r13		;
    45e6:	b0 13 e0 b3 	calla	#46048		;0x0b3e0
    45ea:	0d 12       	push	r13		;
    45ec:	0c 12       	push	r12		;
    45ee:	0c 16       	popm.a	#1,	r12	;20-bit words
    45f0:	40 18 0d 4c 	movx.w	r12,	r13	;
    45f4:	5c 43       	mov.b	#1,	r12	;r3 As==01
    45f6:	b0 13 34 b3 	calla	#45876		;0x0b334
    45fa:	0c d8       	bis	r8,	r12	;
    45fc:	8a 4c 02 00 	mov	r12,	2(r10)	;
    4600:	7c 40 05 00 	mov.b	#5,	r12	;
    4604:	49 13       	calla	r9		;
    4606:	8a 00 f2 b6 	mova	#46834,	r10	;0x0b6f2
    460a:	3d 0a 04 00 	mova	4(r10),	r13	;
    460e:	00 18 fd 40 	movx.a	#35168,	0(r13)	;0x08960
    4612:	60 89 00 00 
    4616:	0c 0a       	mova	@r10,	r12	;
    4618:	b0 13 20 93 	calla	#37664		;0x09320
    461c:	5d 46 05 00 	mov.b	5(r6),	r13	;
    4620:	7d f0 f8 ff 	and.b	#65528,	r13	;#0xfff8
    4624:	c6 4d 05 00 	mov.b	r13,	5(r6)	;
    4628:	88 00 ea a8 	mova	#43242,	r8	;0x0a8ea
    462c:	5c 43       	mov.b	#1,	r12	;r3 As==01
    462e:	48 13       	calla	r8		;
    4630:	1c 4a 0c 00 	mov	12(r10),r12	;0x0000c
    4634:	1d 4a 0e 00 	mov	14(r10),r13	;0x0000e
    4638:	b0 13 6e aa 	calla	#43630		;0x0aa6e
    463c:	1c 4a 10 00 	mov	16(r10),r12	;0x00010
    4640:	1d 4a 12 00 	mov	18(r10),r13	;0x00012
    4644:	b0 13 18 aa 	calla	#43544		;0x0aa18
    4648:	1c 4a 08 00 	mov	8(r10),	r12	;
    464c:	1d 4a 0a 00 	mov	10(r10),r13	;0x0000a
    4650:	b0 13 b6 a9 	calla	#43446		;0x0a9b6
    4654:	5d 4a 15 00 	mov.b	21(r10),r13	;0x00015
    4658:	7c 40 09 00 	mov.b	#9,	r12	;
    465c:	48 13       	calla	r8		;
    465e:	14 4a 16 00 	mov	22(r10),r4	;0x00016
    4662:	0d 44       	mov	r4,	r13	;
    4664:	5d 0f       	rrum	#4,	r13	;
    4666:	5d 0f       	rrum	#4,	r13	;
    4668:	7c 40 25 00 	mov.b	#37,	r12	;#0x0025
    466c:	48 13       	calla	r8		;
    466e:	4d 44       	mov.b	r4,	r13	;
    4670:	7c 40 26 00 	mov.b	#38,	r12	;#0x0026
    4674:	48 13       	calla	r8		;
    4676:	1c 4a 18 00 	mov	24(r10),r12	;0x00018
    467a:	1d 4a 1a 00 	mov	26(r10),r13	;0x0001a
    467e:	b0 13 5c ab 	calla	#43868		;0x0ab5c
    4682:	41 18 f2 40 	movx.b	#24,	&0x11a1c;0x00018
    4686:	18 00 1c 1a 
    468a:	7d 40 18 00 	mov.b	#24,	r13	;#0x0018
    468e:	7c 40 36 00 	mov.b	#54,	r12	;#0x0036
    4692:	48 13       	calla	r8		;
    4694:	0c 06       	mova	@r6,	r12	;
    4696:	34 0c 26 00 	mova	38(r12),r4	;0x00026
    469a:	6e 44       	mov.b	@r4,	r14	;
    469c:	4c 4e       	mov.b	r14,	r12	;
    469e:	7c f0 03 00 	and.b	#3,	r12	;
    46a2:	5c 93       	cmp.b	#1,	r12	;r3 As==01
    46a4:	16 24       	jz	$+46     	;abs 0x46d2
    46a6:	4f 43       	clr.b	r15		;

000046a8 <.L6>:
    46a8:	4c 4e       	mov.b	r14,	r12	;
    46aa:	7c f0 0c 00 	and.b	#12,	r12	;#0x000c
    46ae:	7c 90 0c 00 	cmp.b	#12,	r12	;#0x000c
    46b2:	13 20       	jnz	$+40     	;abs 0x46da
    46b4:	b0 13 fe a1 	calla	#41470		;0x0a1fe
    46b8:	81 18 f2 40 	movx.a	#65550,	&0x11a36;0x1000e
    46bc:	0e 00 36 1a 

000046c0 <.L8>:
    46c0:	80 00 c0 46 	mova	#18112,	r0	;0x046c0

000046c4 <.L4>:
    46c4:	3c e3       	inv	r12		;
    46c6:	8a fc 0a 00 	and	r12,	10(r10)	; 0x000a
    46ca:	8a fc 0c 00 	and	r12,	12(r10)	; 0x000c
    46ce:	80 00 ac 45 	mova	#17836,	r0	;0x045ac

000046d2 <.L148>:
    46d2:	7f 40 80 00 	mov.b	#128,	r15	;#0x0080
    46d6:	80 00 a8 46 	mova	#18088,	r0	;0x046a8

000046da <.L7>:
    46da:	0d 4e       	mov	r14,	r13	;
    46dc:	43 18 0d 5d 	rpt #4 { rlax.w	r13		;
    46e0:	7d f0 40 00 	and.b	#64,	r13	;#0x0040
    46e4:	0c 4e       	mov	r14,	r12	;
    46e6:	41 18 0c 5c 	rpt #2 { rlax.w	r12		;
    46ea:	7c f0 20 00 	and.b	#32,	r12	;#0x0020
    46ee:	4d dc       	bis.b	r12,	r13	;
    46f0:	7e f0 10 00 	and.b	#16,	r14	;#0x0010
    46f4:	4d de       	bis.b	r14,	r13	;
    46f6:	8a 00 ea a8 	mova	#43242,	r10	;0x0a8ea
    46fa:	4d df       	bis.b	r15,	r13	;
    46fc:	7c 40 30 00 	mov.b	#48,	r12	;#0x0030
    4700:	4a 13       	calla	r10		;
    4702:	6c 44       	mov.b	@r4,	r12	;
    4704:	7c f0 03 00 	and.b	#3,	r12	;
    4708:	4c 93       	cmp.b	#0,	r12	;r3 As==00
    470a:	2a 20       	jnz	$+86     	;abs 0x4760
    470c:	0c 06       	mova	@r6,	r12	;
    470e:	1c 4c 2c 00 	mov	44(r12),r12	;0x0002c
    4712:	b0 13 a0 b3 	calla	#45984		;0x0b3a0
    4716:	4d 4c       	mov.b	r12,	r13	;
    4718:	7d d0 40 00 	bis.b	#64,	r13	;#0x0040
    471c:	7c 40 31 00 	mov.b	#49,	r12	;#0x0031
    4720:	4a 13       	calla	r10		;
    4722:	0c 06       	mova	@r6,	r12	;
    4724:	5d 4c 2c 00 	mov.b	44(r12),r13	;0x0002c

00004728 <.L213>:
    4728:	7c 40 32 00 	mov.b	#50,	r12	;#0x0032
    472c:	4a 13       	calla	r10		;
    472e:	0c 06       	mova	@r6,	r12	;
    4730:	5d 4c 1c 00 	mov.b	28(r12),r13	;0x0001c
    4734:	7e 40 05 00 	mov.b	#5,	r14	;
    4738:	4e 9d       	cmp.b	r13,	r14	;
    473a:	02 28       	jnc	$+6      	;abs 0x4740
    473c:	0d 93       	cmp	#0,	r13	;r3 As==00
    473e:	18 20       	jnz	$+50     	;abs 0x4770

00004740 <.L11>:
    4740:	5c 4c 1d 00 	mov.b	29(r12),r12	;0x0001d
    4744:	7f 40 05 00 	mov.b	#5,	r15	;
    4748:	4f 9c       	cmp.b	r12,	r15	;
    474a:	1a 28       	jnc	$+54     	;abs 0x4780
    474c:	1c 93       	cmp	#1,	r12	;r3 As==01
    474e:	18 24       	jz	$+50     	;abs 0x4780
    4750:	b0 13 fe a1 	calla	#41470		;0x0a1fe
    4754:	81 18 f2 40 	movx.a	#65536,	&0x11a36;0x10000
    4758:	00 00 36 1a 

0000475c <.L16>:
    475c:	80 00 5c 47 	mova	#18268,	r0	;0x0475c

00004760 <.L9>:
    4760:	7d 40 40 00 	mov.b	#64,	r13	;#0x0040
    4764:	7c 40 31 00 	mov.b	#49,	r12	;#0x0031
    4768:	4a 13       	calla	r10		;
    476a:	4d 43       	clr.b	r13		;
    476c:	80 00 28 47 	mova	#18216,	r0	;0x04728

00004770 <.L12>:
    4770:	b0 13 fe a1 	calla	#41470		;0x0a1fe
    4774:	81 18 f2 40 	movx.a	#65536,	&0x11a36;0x10000
    4778:	00 00 36 1a 

0000477c <.L15>:
    477c:	80 00 7c 47 	mova	#18300,	r0	;0x0477c

00004780 <.L13>:
    4780:	4d 43       	clr.b	r13		;
    4782:	7c 40 40 00 	mov.b	#64,	r12	;#0x0040
    4786:	48 13       	calla	r8		;
    4788:	7d 40 40 00 	mov.b	#64,	r13	;#0x0040
    478c:	7c 40 41 00 	mov.b	#65,	r12	;#0x0041
    4790:	48 13       	calla	r8		;
    4792:	41 18 e2 43 	movx.b	#2,	&0x11a1a;r3 As==10
    4796:	1a 1a 
    4798:	b0 13 fe a1 	calla	#41470		;0x0a1fe
    479c:	88 00 8c dc 	mova	#56460,	r8	;0x0dc8c
    47a0:	5c 48 c1 00 	mov.b	193(r8),r12	;0x000c1
    47a4:	47 18 0c 5c 	rpt #8 { rlax.w	r12		;
    47a8:	5d 48 c0 00 	mov.b	192(r8),r13	;0x000c0
    47ac:	0c dd       	bis	r13,	r12	;
    47ae:	40 18 82 4c 	movx.w	r12,	&0x0b6b4;
    47b2:	b4 b6 
    47b4:	5d 48 c4 00 	mov.b	196(r8),r13	;0x000c4
    47b8:	40 18 3d b0 	bitx.w	#32,	r13	;0x00020
    47bc:	20 00 
    47be:	02 24       	jz	$+6      	;abs 0x47c4
    47c0:	3c 50 fc ff 	add	#65532,	r12	;#0xfffc

000047c4 <.L17>:
    47c4:	00 18 c2 4c 	movx.a	r12,	&0x0b6be;
    47c8:	be b6 
    47ca:	40 18 2d b2 	bitx.w	#4,	r13	;r2 As==10
    47ce:	06 24       	jz	$+14     	;abs 0x47dc
    47d0:	3c 40 1d fc 	mov	#64541,	r12	;#0xfc1d
    47d4:	3d 40 cf 1a 	mov	#6863,	r13	;#0x1acf
    47d8:	b0 13 5c ab 	calla	#43868		;0x0ab5c

000047dc <.L19>:
    47dc:	b0 13 f4 a1 	calla	#41460		;0x0a1f4
    47e0:	47 13       	calla	r7		;
    47e2:	8a 00 c6 b6 	mova	#46790,	r10	;0x0b6c6
    47e6:	5d 48 1d 00 	mov.b	29(r8),	r13	;0x0001d
    47ea:	47 18 0d 5d 	rpt #8 { rlax.w	r13		;
    47ee:	5c 48 1f 00 	mov.b	31(r8),	r12	;0x0001f
    47f2:	47 18 0c 5c 	rpt #8 { rlax.w	r12		;
    47f6:	5e 48 1e 00 	mov.b	30(r8),	r14	;0x0001e
    47fa:	0c de       	bis	r14,	r12	;
    47fc:	5f 48 1c 00 	mov.b	28(r8),	r15	;0x0001c
    4800:	0f dd       	bis	r13,	r15	;
    4802:	8a 4f 0c 00 	mov	r15,	12(r10)	; 0x000c
    4806:	8a 4c 0e 00 	mov	r12,	14(r10)	; 0x000e
    480a:	5d 48 05 00 	mov.b	5(r8),	r13	;
    480e:	47 18 0d 5d 	rpt #8 { rlax.w	r13		;
    4812:	5c 48 07 00 	mov.b	7(r8),	r12	;
    4816:	47 18 0c 5c 	rpt #8 { rlax.w	r12		;
    481a:	5e 48 06 00 	mov.b	6(r8),	r14	;
    481e:	0c de       	bis	r14,	r12	;
    4820:	5f 48 04 00 	mov.b	4(r8),	r15	;
    4824:	0f dd       	bis	r13,	r15	;
    4826:	8a 4f 10 00 	mov	r15,	16(r10)	; 0x0010
    482a:	8a 4c 12 00 	mov	r12,	18(r10)	; 0x0012
    482e:	5d 48 0d 00 	mov.b	13(r8),	r13	;0x0000d
    4832:	47 18 0d 5d 	rpt #8 { rlax.w	r13		;
    4836:	5c 48 0f 00 	mov.b	15(r8),	r12	;0x0000f
    483a:	47 18 0c 5c 	rpt #8 { rlax.w	r12		;
    483e:	5e 48 0e 00 	mov.b	14(r8),	r14	;0x0000e
    4842:	0c de       	bis	r14,	r12	;
    4844:	5f 48 0c 00 	mov.b	12(r8),	r15	;0x0000c
    4848:	0f dd       	bis	r13,	r15	;
    484a:	8a 4f 14 00 	mov	r15,	20(r10)	; 0x0014
    484e:	8a 4c 16 00 	mov	r12,	22(r10)	; 0x0016
    4852:	5c 48 20 00 	mov.b	32(r8),	r12	;0x00020
    4856:	7c f0 0f 00 	and.b	#15,	r12	;#0x000f
    485a:	4d 4c       	mov.b	r12,	r13	;
    485c:	0e 43       	clr	r14		;
    485e:	8a 4d 18 00 	mov	r13,	24(r10)	; 0x0018
    4862:	8a 4e 1a 00 	mov	r14,	26(r10)	; 0x001a
    4866:	5d 48 15 00 	mov.b	21(r8),	r13	;0x00015
    486a:	47 18 0d 5d 	rpt #8 { rlax.w	r13		;
    486e:	5c 48 17 00 	mov.b	23(r8),	r12	;0x00017
    4872:	47 18 0c 5c 	rpt #8 { rlax.w	r12		;
    4876:	5e 48 16 00 	mov.b	22(r8),	r14	;0x00016
    487a:	0c de       	bis	r14,	r12	;
    487c:	58 48 14 00 	mov.b	20(r8),	r8	;0x00014
    4880:	08 dd       	bis	r13,	r8	;
    4882:	8a 48 1c 00 	mov	r8,	28(r10)	; 0x001c
    4886:	8a 4c 1e 00 	mov	r12,	30(r10)	; 0x001e
    488a:	b0 13 f4 a1 	calla	#41460		;0x0a1f4
    488e:	88 01 fa 19 	mova	#72186,	r8	;0x119fa
    4892:	78 0a 00 00 	mova	r10,	0(r8)	;
    4896:	3c 0a 22 00 	mova	34(r10),r12	;0x00022
    489a:	9c 00 00 00 	cmpa	#0,	r12	;
    489e:	08 20       	jnz	$+18     	;abs 0x48b0
    48a0:	b0 13 fe a1 	calla	#41470		;0x0a1fe
    48a4:	81 18 f2 40 	movx.a	#65608,	&0x11a36;0x10048
    48a8:	48 00 36 1a 

000048ac <.L21>:
    48ac:	80 00 ac 48 	mova	#18604,	r0	;0x048ac

000048b0 <.L20>:
    48b0:	c6 0c       	mova	r12,	r6	;
    48b2:	00 18 76 f0 	andx.a	#4095,	r6	;0x00fff
    48b6:	ff 0f 
    48b8:	0c 14       	pushm.a	#1,	r12	;20-bit words
    48ba:	40 18 3c 41 	popx.w	r12		;
    48be:	40 18 3d 41 	popx.w	r13		;
    48c2:	b0 13 e0 b3 	calla	#46048		;0x0b3e0
    48c6:	0d 12       	push	r13		;
    48c8:	0c 12       	push	r12		;
    48ca:	0c 16       	popm.a	#1,	r12	;20-bit words
    48cc:	40 18 0d 4c 	movx.w	r12,	r13	;
    48d0:	5c 43       	mov.b	#1,	r12	;r3 As==01
    48d2:	b0 13 34 b3 	calla	#45876		;0x0b334
    48d6:	86 dc 04 00 	bis	r12,	4(r6)	;
    48da:	1c b6 0a 00 	bit	10(r6),	r12	;0x0000a
    48de:	92 24       	jz	$+294    	;abs 0x4a04
    48e0:	1c b6 0c 00 	bit	12(r6),	r12	;0x0000c
    48e4:	8f 24       	jz	$+288    	;abs 0x4a04
    48e6:	86 4c 16 00 	mov	r12,	22(r6)	; 0x0016

000048ea <.L23>:
    48ea:	86 dc 02 00 	bis	r12,	2(r6)	;
    48ee:	5c 43       	mov.b	#1,	r12	;r3 As==01
    48f0:	49 13       	calla	r9		;
    48f2:	0c 08       	mova	@r8,	r12	;
    48f4:	3c 0c 22 00 	mova	34(r12),r12	;0x00022
    48f8:	c6 0c       	mova	r12,	r6	;
    48fa:	00 18 76 f0 	andx.a	#4095,	r6	;0x00fff
    48fe:	ff 0f 
    4900:	18 46 02 00 	mov	2(r6),	r8	;
    4904:	0c 14       	pushm.a	#1,	r12	;20-bit words
    4906:	40 18 3c 41 	popx.w	r12		;
    490a:	40 18 3d 41 	popx.w	r13		;
    490e:	b0 13 e0 b3 	calla	#46048		;0x0b3e0
    4912:	0d 12       	push	r13		;
    4914:	0c 12       	push	r12		;
    4916:	04 16       	popm.a	#1,	r4	;20-bit words
    4918:	40 18 04 44 	movx.w	r4,	r4	;
    491c:	5c 43       	mov.b	#1,	r12	;r3 As==01
    491e:	0d 44       	mov	r4,	r13	;
    4920:	b0 13 34 b3 	calla	#45876		;0x0b334
    4924:	08 cc       	bic	r12,	r8	;
    4926:	86 48 02 00 	mov	r8,	2(r6)	;
    492a:	5c 43       	mov.b	#1,	r12	;r3 As==01
    492c:	0d 44       	mov	r4,	r13	;
    492e:	b0 13 34 b3 	calla	#45876		;0x0b334
    4932:	0d 4c       	mov	r12,	r13	;
    4934:	3d e3       	inv	r13		;
    4936:	86 fd 04 00 	and	r13,	4(r6)	;
    493a:	86 dc 08 00 	bis	r12,	8(r6)	;
    493e:	86 fd 02 00 	and	r13,	2(r6)	;
    4942:	1c b6 0a 00 	bit	10(r6),	r12	;0x0000a
    4946:	66 24       	jz	$+206    	;abs 0x4a14
    4948:	1c b6 0c 00 	bit	12(r6),	r12	;0x0000c
    494c:	63 24       	jz	$+200    	;abs 0x4a14
    494e:	86 4c 16 00 	mov	r12,	22(r6)	; 0x0016

00004952 <.L25>:
    4952:	7c 40 05 00 	mov.b	#5,	r12	;
    4956:	49 13       	calla	r9		;
    4958:	88 01 fa 19 	mova	#72186,	r8	;0x119fa
    495c:	41 18 f2 40 	movx.b	#48,	&0x119fe;0x00030
    4960:	30 00 fe 19 
    4964:	41 18 f2 40 	movx.b	#15,	&0x119ff;0x0000f
    4968:	0f 00 ff 19 
    496c:	3d 0a 04 00 	mova	4(r10),	r13	;
    4970:	0c 0a       	mova	@r10,	r12	;
    4972:	b0 13 20 93 	calla	#37664		;0x09320
    4976:	0e 08       	mova	@r8,	r14	;
    4978:	3c 0e 04 00 	mova	4(r14),	r12	;
    497c:	00 18 cc 43 	movx.a	#0,	0(r12)	;r3 As==00
    4980:	00 00 
    4982:	0c 0e       	mova	@r14,	r12	;
    4984:	3c 0c 0c 00 	mova	12(r12),r12	;0x0000c
    4988:	bc f0 ff fb 	and	#64511,	0(r12)	;#0xfbff
    498c:	00 00 
    498e:	4c 43       	clr.b	r12		;
    4990:	b0 13 64 ac 	calla	#44132		;0x0ac64
    4994:	1c 4a 10 00 	mov	16(r10),r12	;0x00010
    4998:	1d 4a 12 00 	mov	18(r10),r13	;0x00012
    499c:	b0 13 04 ae 	calla	#44548		;0x0ae04
    49a0:	1c 4a 14 00 	mov	20(r10),r12	;0x00014
    49a4:	1d 4a 16 00 	mov	22(r10),r13	;0x00016
    49a8:	b0 13 b0 ad 	calla	#44464		;0x0adb0
    49ac:	1c 4a 0c 00 	mov	12(r10),r12	;0x0000c
    49b0:	1d 4a 0e 00 	mov	14(r10),r13	;0x0000e
    49b4:	b0 13 b6 ac 	calla	#44214		;0x0acb6
    49b8:	5c 4a 18 00 	mov.b	24(r10),r12	;0x00018
    49bc:	b0 13 00 b1 	calla	#45312		;0x0b100
    49c0:	1c 4a 1c 00 	mov	28(r10),r12	;0x0001c
    49c4:	1d 4a 1e 00 	mov	30(r10),r13	;0x0001e
    49c8:	b0 13 7e ac 	calla	#44158		;0x0ac7e
    49cc:	c4 08       	mova	r8,	r4	;
    49ce:	8a 00 c6 ab 	mova	#43974,	r10	;0x0abc6
    49d2:	00 18 c2 93 	cmpx.a	#0,	&0x0b6ec;r3 As==00
    49d6:	ec b6 
    49d8:	88 24       	jz	$+274    	;abs 0x4aea
    49da:	0c 08       	mova	@r8,	r12	;
    49dc:	36 0c 26 00 	mova	38(r12),r6	;0x00026
    49e0:	7d 40 a4 ff 	mov.b	#65444,	r13	;#0xffa4
    49e4:	5c 43       	mov.b	#1,	r12	;r3 As==01
    49e6:	4a 13       	calla	r10		;
    49e8:	6c 46       	mov.b	@r6,	r12	;
    49ea:	7c f0 06 00 	and.b	#6,	r12	;
    49ee:	7c 90 06 00 	cmp.b	#6,	r12	;
    49f2:	16 20       	jnz	$+46     	;abs 0x4a20
    49f4:	b0 13 fe a1 	calla	#41470		;0x0a1fe
    49f8:	81 18 f2 40 	movx.a	#65585,	&0x11a36;0x10031
    49fc:	31 00 36 1a 

00004a00 <.L28>:
    4a00:	80 00 00 4a 	mova	#18944,	r0	;0x04a00

00004a04 <.L22>:
    4a04:	0d 4c       	mov	r12,	r13	;
    4a06:	3d e3       	inv	r13		;
    4a08:	86 fd 0a 00 	and	r13,	10(r6)	; 0x000a
    4a0c:	86 fd 0c 00 	and	r13,	12(r6)	; 0x000c
    4a10:	80 00 ea 48 	mova	#18666,	r0	;0x048ea

00004a14 <.L24>:
    4a14:	86 fd 0a 00 	and	r13,	10(r6)	; 0x000a
    4a18:	86 fd 0c 00 	and	r13,	12(r6)	; 0x000c
    4a1c:	80 00 52 49 	mova	#18770,	r0	;0x04952

00004a20 <.L27>:
    4a20:	0c 08       	mova	@r8,	r12	;
    4a22:	5c 4c 2b 00 	mov.b	43(r12),r12	;0x0002b
    4a26:	40 18 8c 11 	sxtx.w	r12		;
    4a2a:	4c 93       	cmp.b	#0,	r12	;r3 As==00
    4a2c:	08 34       	jge	$+18     	;abs 0x4a3e
    4a2e:	b0 13 fe a1 	calla	#41470		;0x0a1fe
    4a32:	81 18 f2 40 	movx.a	#65585,	&0x11a36;0x10031
    4a36:	31 00 36 1a 

00004a3a <.L30>:
    4a3a:	80 00 3a 4a 	mova	#19002,	r0	;0x04a3a

00004a3e <.L29>:
    4a3e:	6d 46       	mov.b	@r6,	r13	;
    4a40:	44 18 0d 5d 	rpt #5 { rlax.w	r13		;
    4a44:	7d f0 80 00 	and.b	#128,	r13	;#0x0080
    4a48:	4d dc       	bis.b	r12,	r13	;
    4a4a:	7c 40 1c 00 	mov.b	#28,	r12	;#0x001c
    4a4e:	4a 13       	calla	r10		;
    4a50:	f6 b0 60 00 	bit.b	#96,	0(r6)	;#0x0060
    4a54:	00 00 
    4a56:	0b 20       	jnz	$+24     	;abs 0x4a6e
    4a58:	6d 46       	mov.b	@r6,	r13	;
    4a5a:	0c 4d       	mov	r13,	r12	;
    4a5c:	5c 0f       	rrum	#4,	r12	;
    4a5e:	5c f3       	and.b	#1,	r12	;r3 As==01
    4a60:	44 18 0c 5c 	rpt #5 { rlax.w	r12		;
    4a64:	7d f0 9f ff 	and.b	#65439,	r13	;#0xff9f
    4a68:	4d dc       	bis.b	r12,	r13	;
    4a6a:	c6 4d 00 00 	mov.b	r13,	0(r6)	;

00004a6e <.L31>:
    4a6e:	f6 b0 60 00 	bit.b	#96,	0(r6)	;#0x0060
    4a72:	00 00 
    4a74:	06 24       	jz	$+14     	;abs 0x4a82
    4a76:	0c 04       	mova	@r4,	r12	;
    4a78:	5d 4c 2a 00 	mov.b	42(r12),r13	;0x0002a
    4a7c:	7c 40 1d 00 	mov.b	#29,	r12	;#0x001d
    4a80:	4a 13       	calla	r10		;

00004a82 <.L32>:
    4a82:	40 18 d6 b3 	bitx.b	#1,	0(r6)	;r3 As==01
    4a86:	00 00 
    4a88:	2d 24       	jz	$+92     	;abs 0x4ae4
    4a8a:	3f 40 80 ff 	mov	#65408,	r15	;#0xff80

00004a8e <.L33>:
    4a8e:	6e 46       	mov.b	@r6,	r14	;
    4a90:	0c 4e       	mov	r14,	r12	;
    4a92:	42 18 0c 5c 	rpt #3 { rlax.w	r12		;
    4a96:	7c f0 10 00 	and.b	#16,	r12	;#0x0010
    4a9a:	0d 4e       	mov	r14,	r13	;
    4a9c:	7d f2       	and.b	#8,	r13	;r2 As==11
    4a9e:	4c dd       	bis.b	r13,	r12	;
    4aa0:	5e 0f       	rrum	#4,	r14	;
    4aa2:	7e f0 06 00 	and.b	#6,	r14	;
    4aa6:	4d 4c       	mov.b	r12,	r13	;
    4aa8:	4d de       	bis.b	r14,	r13	;
    4aaa:	4d df       	bis.b	r15,	r13	;
    4aac:	7c 40 1e 00 	mov.b	#30,	r12	;#0x001e
    4ab0:	4a 13       	calla	r10		;
    4ab2:	6d 46       	mov.b	@r6,	r13	;
    4ab4:	3d e0 80 00 	xor	#128,	r13	;#0x0080
    4ab8:	7d f0 80 ff 	and.b	#65408,	r13	;#0xff80
    4abc:	7c 40 1f 00 	mov.b	#31,	r12	;#0x001f

00004ac0 <.L214>:
    4ac0:	4a 13       	calla	r10		;
    4ac2:	40 18 5d 42 	movx.b	&0x0b6e6,r13	;
    4ac6:	e6 b6 
    4ac8:	7f 40 03 00 	mov.b	#3,	r15	;
    4acc:	40 18 5f 92 	cmpx.b	&0x0b6e6,r15	;
    4ad0:	e6 b6 
    4ad2:	10 2c       	jc	$+34     	;abs 0x4af4
    4ad4:	b0 13 fe a1 	calla	#41470		;0x0a1fe
    4ad8:	81 18 f2 40 	movx.a	#65620,	&0x11a36;0x10054
    4adc:	54 00 36 1a 

00004ae0 <.L37>:
    4ae0:	80 00 e0 4a 	mova	#19168,	r0	;0x04ae0

00004ae4 <.L149>:
    4ae4:	4f 43       	clr.b	r15		;
    4ae6:	80 00 8e 4a 	mova	#19086,	r0	;0x04a8e

00004aea <.L26>:
    4aea:	7d 40 64 00 	mov.b	#100,	r13	;#0x0064
    4aee:	5c 43       	mov.b	#1,	r12	;r3 As==01
    4af0:	80 00 c0 4a 	mova	#19136,	r0	;0x04ac0

00004af4 <.L36>:
    4af4:	0d 5d       	rla	r13		;
    4af6:	7d d0 38 00 	bis.b	#56,	r13	;#0x0038
    4afa:	7c 40 12 00 	mov.b	#18,	r12	;#0x0012
    4afe:	4a 13       	calla	r10		;
    4b00:	7d 40 51 00 	mov.b	#81,	r13	;#0x0051
    4b04:	7c 40 0e 00 	mov.b	#14,	r12	;#0x000e
    4b08:	4a 13       	calla	r10		;
    4b0a:	7d 40 c0 ff 	mov.b	#65472,	r13	;#0xffc0
    4b0e:	7c 40 0c 00 	mov.b	#12,	r12	;#0x000c
    4b12:	4a 13       	calla	r10		;
    4b14:	c1 1f f2 40 	movx.b	#-64,	&0x119ff;0xfffc0
    4b18:	c0 ff ff 19 
    4b1c:	b0 13 0a a3 	calla	#41738		;0x0a30a
    4b20:	40 18 b2 40 	movx.w	#8192,	&0x0ddb2;0x02000
    4b24:	00 20 b2 dd 
    4b28:	40 18 92 43 	movx.w	#1,	&0x0ddb4;r3 As==01
    4b2c:	b4 dd 
    4b2e:	47 13       	calla	r7		;
    4b30:	40 18 1c 42 	movx.w	&0x0dc7a,r12	;
    4b34:	7a dc 
    4b36:	48 43       	clr.b	r8		;
    4b38:	08 9c       	cmp	r12,	r8	;
    4b3a:	07 34       	jge	$+16     	;abs 0x4b4a
    4b3c:	40 18 b2 d0 	bisx.w	#1024,	&0x0ddb2;0x00400
    4b40:	00 04 b2 dd 
    4b44:	40 18 82 d8 	bisx.w	r8,	&0x0ddb4;
    4b48:	b4 dd 

00004b4a <.L38>:
    4b4a:	b0 13 f4 a1 	calla	#41460		;0x0a1f4
    4b4e:	85 00 7a dc 	mova	#56442,	r5	;0x0dc7a

00004b52 <.L121>:
    4b52:	40 18 1c 42 	movx.w	&0x0ddb2,r12	;
    4b56:	b2 dd 
    4b58:	3c f0 00 30 	and	#12288,	r12	;#0x3000
    4b5c:	3c 90 00 30 	cmp	#12288,	r12	;#0x3000
    4b60:	18 20       	jnz	$+50     	;abs 0x4b92
    4b62:	40 18 c2 93 	cmpx.b	#0,	&0x0dc8a;r3 As==00
    4b66:	8a dc 
    4b68:	09 21       	jnz	$+532    	;abs 0x4d7c
    4b6a:	8a 00 ac b6 	mova	#46764,	r10	;0x0b6ac
    4b6e:	cd 0a       	mova	r10,	r13	;
    4b70:	7c 40 05 00 	mov.b	#5,	r12	;
    4b74:	b0 13 c8 a7 	calla	#42952		;0x0a7c8
    4b78:	6c 4a       	mov.b	@r10,	r12	;
    4b7a:	7c b0 cc ff 	bit.b	#65484,	r12	;#0xffcc
    4b7e:	b4 24       	jz	$+362    	;abs 0x4ce8

00004b80 <.L43>:
    4b80:	b0 13 0a a3 	calla	#41738		;0x0a30a

00004b84 <.L42>:
    4b84:	c0 1f b2 f0 	andx.w	#-12289,&0x0ddb2;0xfcfff
    4b88:	ff cf b2 dd 
    4b8c:	40 18 82 c3 	bicx.w	#0,	&0x0ddb4;r3 As==00
    4b90:	b4 dd 

00004b92 <.L39>:
    4b92:	40 18 1d 42 	movx.w	&0x0ddb2,r13	;
    4b96:	b2 dd 
    4b98:	3d f0 00 28 	and	#10240,	r13	;#0x2800
    4b9c:	40 18 1c 42 	movx.w	&0x0ddb4,r12	;
    4ba0:	b4 dd 
    4ba2:	5c f3       	and.b	#1,	r12	;r3 As==01
    4ba4:	3d 90 00 28 	cmp	#10240,	r13	;#0x2800
    4ba8:	67 21       	jnz	$+720    	;abs 0x4e78
    4baa:	1c 93       	cmp	#1,	r12	;r3 As==01
    4bac:	65 21       	jnz	$+716    	;abs 0x4e78
    4bae:	40 18 b2 d0 	bisx.w	#4096,	&0x00222;0x01000
    4bb2:	00 10 22 02 
    4bb6:	40 18 1d 42 	movx.w	&0x0b6b4,r13	;
    4bba:	b4 b6 
    4bbc:	40 18 04 4d 	movx.w	r13,	r4	;
    4bc0:	78 40 18 00 	mov.b	#24,	r8	;#0x0018
    4bc4:	d8 04       	cmpa	r4,	r8	;
    4bc6:	22 29       	jnc	$+582    	;abs 0x4e0c
    4bc8:	7d 53       	add.b	#-1,	r13	;r3 As==11
    4bca:	3d f0 ff 00 	and	#255,	r13	;#0x00ff

00004bce <.L48>:
    4bce:	88 00 ea a8 	mova	#43242,	r8	;0x0a8ea
    4bd2:	7c 40 35 00 	mov.b	#53,	r12	;#0x0035
    4bd6:	48 13       	calla	r8		;
    4bd8:	8a 01 16 1a 	mova	#72214,	r10	;0x11a16
    4bdc:	5d 4a 06 00 	mov.b	6(r10),	r13	;
    4be0:	7d f0 7f 00 	and.b	#127,	r13	;#0x007f
    4be4:	ca 4d 06 00 	mov.b	r13,	6(r10)	;
    4be8:	7d d0 40 00 	bis.b	#64,	r13	;#0x0040
    4bec:	7c 40 36 00 	mov.b	#54,	r12	;#0x0036
    4bf0:	48 13       	calla	r8		;
    4bf2:	5d 4a 06 00 	mov.b	6(r10),	r13	;
    4bf6:	7d d0 80 ff 	bis.b	#65408,	r13	;#0xff80
    4bfa:	ca 4d 06 00 	mov.b	r13,	6(r10)	;
    4bfe:	7c 40 36 00 	mov.b	#54,	r12	;#0x0036
    4c02:	48 13       	calla	r8		;
    4c04:	b0 13 fe a1 	calla	#41470		;0x0a1fe
    4c08:	0c 0a       	mova	@r10,	r12	;
    4c0a:	5e 4c 1d 00 	mov.b	29(r12),r14	;0x0001d
    4c0e:	0f 43       	clr	r15		;
    4c10:	08 4e       	mov	r14,	r8	;
    4c12:	09 4f       	mov	r15,	r9	;
    4c14:	08 58       	rla	r8		;
    4c16:	09 69       	rlc	r9		;
    4c18:	08 58       	rla	r8		;
    4c1a:	09 69       	rlc	r9		;
    4c1c:	81 48 08 00 	mov	r8,	8(r1)	;
    4c20:	81 49 0a 00 	mov	r9,	10(r1)	; 0x000a
    4c24:	00 18 5c 51 	addx.a	8(r1),	r12	;
    4c28:	08 00 
    4c2a:	3c 0c 2e 00 	mova	46(r12),r12	;0x0002e
    4c2e:	c8 0c       	mova	r12,	r8	;
    4c30:	00 18 78 f0 	andx.a	#4095,	r8	;0x00fff
    4c34:	ff 0f 
    4c36:	19 48 18 00 	mov	24(r8),	r9	;0x00018
    4c3a:	0c 14       	pushm.a	#1,	r12	;20-bit words
    4c3c:	40 18 3c 41 	popx.w	r12		;
    4c40:	40 18 3d 41 	popx.w	r13		;
    4c44:	b0 13 e0 b3 	calla	#46048		;0x0b3e0
    4c48:	0d 12       	push	r13		;
    4c4a:	0c 12       	push	r12		;
    4c4c:	0c 16       	popm.a	#1,	r12	;20-bit words
    4c4e:	40 18 0d 4c 	movx.w	r12,	r13	;
    4c52:	5c 43       	mov.b	#1,	r12	;r3 As==01
    4c54:	b0 13 34 b3 	calla	#45876		;0x0b334
    4c58:	09 dc       	bis	r12,	r9	;
    4c5a:	88 49 18 00 	mov	r9,	24(r8)	; 0x0018
    4c5e:	88 cc 1c 00 	bic	r12,	28(r8)	; 0x001c
    4c62:	88 dc 1a 00 	bis	r12,	26(r8)	; 0x001a
    4c66:	b0 13 f4 a1 	calla	#41460		;0x0a1f4
    4c6a:	79 40 2f 00 	mov.b	#47,	r9	;#0x002f
    4c6e:	d9 04       	cmpa	r4,	r9	;
    4c70:	01 2c       	jc	$+4      	;abs 0x4c74
    4c72:	c4 09       	mova	r9,	r4	;

00004c74 <.L49>:
    4c74:	01 18 f2 40 	movx.a	#38812,	&0x11a1e;0x0979c
    4c78:	9c 97 1e 1a 
    4c7c:	08 0a       	mova	@r10,	r8	;
    4c7e:	3c 08 22 00 	mova	34(r8),	r12	;0x00022
    4c82:	c6 0c       	mova	r12,	r6	;
    4c84:	00 18 76 f0 	andx.a	#4095,	r6	;0x00fff
    4c88:	ff 0f 
    4c8a:	19 46 02 00 	mov	2(r6),	r9	;
    4c8e:	0c 14       	pushm.a	#1,	r12	;20-bit words
    4c90:	40 18 3c 41 	popx.w	r12		;
    4c94:	40 18 3d 41 	popx.w	r13		;
    4c98:	b0 13 e0 b3 	calla	#46048		;0x0b3e0
    4c9c:	0d 12       	push	r13		;
    4c9e:	0c 12       	push	r12		;
    4ca0:	0c 16       	popm.a	#1,	r12	;20-bit words
    4ca2:	40 18 0d 4c 	movx.w	r12,	r13	;
    4ca6:	5c 43       	mov.b	#1,	r12	;r3 As==01
    4ca8:	b0 13 34 b3 	calla	#45876		;0x0b334
    4cac:	09 cc       	bic	r12,	r9	;
    4cae:	86 49 02 00 	mov	r9,	2(r6)	;
    4cb2:	7d 40 80 ff 	mov.b	#65408,	r13	;#0xff80
    4cb6:	0c 08       	mova	@r8,	r12	;
    4cb8:	b0 13 a6 8e 	calla	#36518		;0x08ea6
    4cbc:	0e 0a       	mova	@r10,	r14	;
    4cbe:	3c 0e 04 00 	mova	4(r14),	r12	;
    4cc2:	00 18 fc 40 	movx.a	#35168,	0(r12)	;0x08960
    4cc6:	60 89 00 00 
    4cca:	0a 0e       	mova	@r14,	r10	;
    4ccc:	9a 00 00 00 	cmpa	#0,	r10	;
    4cd0:	03 24       	jz	$+8      	;abs 0x4cd8
    4cd2:	94 00 00 00 	cmpa	#0,	r4	;
    4cd6:	9e 20       	jnz	$+318    	;abs 0x4e14

00004cd8 <.L50>:
    4cd8:	b0 13 fe a1 	calla	#41470		;0x0a1fe
    4cdc:	81 18 f2 40 	movx.a	#65632,	&0x11a36;0x10060
    4ce0:	60 00 36 1a 

00004ce4 <.L52>:
    4ce4:	80 00 e4 4c 	mova	#19684,	r0	;0x04ce4

00004ce8 <.L41>:
    4ce8:	40 18 5d 42 	movx.b	&0x0dd56,r13	;
    4cec:	56 dd 
    4cee:	4c ed       	xor.b	r13,	r12	;
    4cf0:	3c b0 03 00 	bit	#3,	r12	;
    4cf4:	45 23       	jnz	$-372    	;abs 0x4b80
    4cf6:	40 18 d2 92 	cmpx.b	&0x0dd55,&0x0b6ad;
    4cfa:	55 dd ad b6 
    4cfe:	40 23       	jnz	$-382    	;abs 0x4b80
    4d00:	5c 4a 02 00 	mov.b	2(r10),	r12	;
    4d04:	4d ec       	xor.b	r12,	r13	;
    4d06:	7d b0 fc ff 	bit.b	#65532,	r13	;#0xfffc
    4d0a:	3a 23       	jnz	$-394    	;abs 0x4b80
    4d0c:	47 18 0c 5c 	rpt #8 { rlax.w	r12		;
    4d10:	3c f0 00 03 	and	#768,	r12	;#0x0300
    4d14:	5a 4a 03 00 	mov.b	3(r10),	r10	;
    4d18:	0c da       	bis	r10,	r12	;
    4d1a:	3c 50 fc ff 	add	#65532,	r12	;#0xfffc
    4d1e:	40 18 82 4c 	movx.w	r12,	&0x0b6aa;
    4d22:	aa b6 
    4d24:	b0 13 fe a1 	calla	#41470		;0x0a1fe
    4d28:	8c 00 7e dc 	mova	#56446,	r12	;0x0dc7e
    4d2c:	b0 13 aa 90 	calla	#37034		;0x090aa
    4d30:	60 0c a6 b6 	mova	r12,	&46758	; 0x0b6a6
    4d34:	9c 00 00 00 	cmpa	#0,	r12	;
    4d38:	23 27       	jz	$-440    	;abs 0x4b80
    4d3a:	40 18 1c 42 	movx.w	&0x0b6aa,r12	;
    4d3e:	aa b6 
    4d40:	79 40 3f 00 	mov.b	#63,	r9	;#0x003f
    4d44:	09 9c       	cmp	r12,	r9	;
    4d46:	02 2c       	jc	$+6      	;abs 0x4d4c
    4d48:	7c 40 20 00 	mov.b	#32,	r12	;#0x0020

00004d4c <.L44>:
    4d4c:	40 18 c2 4c 	movx.b	r12,	&0x0b6a4;
    4d50:	a4 b6 
    4d52:	40 18 82 43 	movx.w	#0,	&0x0b6a2;r3 As==00
    4d56:	a2 b6 
    4d58:	40 18 0c 4c 	movx.w	r12,	r12	;
    4d5c:	b0 13 38 b1 	calla	#45368		;0x0b138
    4d60:	3d 40 00 20 	mov	#8192,	r13	;#0x2000
    4d64:	4e 43       	clr.b	r14		;
    4d66:	2c 01 76 19 	mova	&72054,	r12	;0x11976
    4d6a:	b0 13 3a 92 	calla	#37434		;0x0923a
    4d6e:	40 18 d2 43 	movx.b	#1,	&0x0dc8a;r3 As==01
    4d72:	8a dc 

00004d74 <.L215>:
    4d74:	b0 13 f4 a1 	calla	#41460		;0x0a1f4
    4d78:	80 00 84 4b 	mova	#19332,	r0	;0x04b84

00004d7c <.L40>:
    4d7c:	40 18 1c 42 	movx.w	&0x0b6a2,r12	;
    4d80:	a2 b6 
    4d82:	2d 00 a6 b6 	mova	&46758,	r13	;0x0b6a6
    4d86:	ed 0c       	adda	r12,	r13	;
    4d88:	40 18 5e 42 	movx.b	&0x0b6a4,r14	;
    4d8c:	a4 b6 
    4d8e:	40 18 0c 4e 	movx.w	r14,	r12	;
    4d92:	b0 13 c8 a7 	calla	#42952		;0x0a7c8
    4d96:	40 18 5c 42 	movx.b	&0x0b6a4,r12	;
    4d9a:	a4 b6 
    4d9c:	40 18 1c 52 	addx.w	&0x0b6a2,r12	;
    4da0:	a2 b6 
    4da2:	40 18 82 4c 	movx.w	r12,	&0x0b6a2;
    4da6:	a2 b6 
    4da8:	40 18 1c 92 	cmpx.w	&0x0b6aa,r12	;
    4dac:	aa b6 
    4dae:	1b 2c       	jc	$+56     	;abs 0x4de6
    4db0:	b0 13 fe a1 	calla	#41470		;0x0a1fe
    4db4:	40 18 1c 42 	movx.w	&0x0b6aa,r12	;
    4db8:	aa b6 
    4dba:	7f 40 3f 00 	mov.b	#63,	r15	;#0x003f
    4dbe:	0f 9c       	cmp	r12,	r15	;
    4dc0:	02 2c       	jc	$+6      	;abs 0x4dc6
    4dc2:	7c 40 30 00 	mov.b	#48,	r12	;#0x0030

00004dc6 <.L46>:
    4dc6:	40 18 c2 4c 	movx.b	r12,	&0x0b6a4;
    4dca:	a4 b6 
    4dcc:	40 18 0c 4c 	movx.w	r12,	r12	;
    4dd0:	b0 13 38 b1 	calla	#45368		;0x0b138
    4dd4:	3d 40 00 20 	mov	#8192,	r13	;#0x2000
    4dd8:	4e 43       	clr.b	r14		;
    4dda:	2c 01 76 19 	mova	&72054,	r12	;0x11976
    4dde:	b0 13 3a 92 	calla	#37434		;0x0923a
    4de2:	80 00 74 4d 	mova	#19828,	r0	;0x04d74

00004de6 <.L45>:
    4de6:	8e 00 5a a2 	mova	#41562,	r14	;0x0a25a
    4dea:	8d 00 9a a2 	mova	#41626,	r13	;0x0a29a
    4dee:	2c 00 a6 b6 	mova	&46758,	r12	;0x0b6a6
    4df2:	b0 13 84 b1 	calla	#45444		;0x0b184
    4df6:	b0 13 0a a3 	calla	#41738		;0x0a30a
    4dfa:	3d 40 00 20 	mov	#8192,	r13	;#0x2000
    4dfe:	4e 43       	clr.b	r14		;
    4e00:	2c 01 76 19 	mova	&72054,	r12	;0x11976
    4e04:	b0 13 32 97 	calla	#38706		;0x09732
    4e08:	80 00 84 4b 	mova	#19332,	r0	;0x04b84

00004e0c <.L153>:
    4e0c:	7d 40 17 00 	mov.b	#23,	r13	;#0x0017
    4e10:	80 00 ce 4b 	mova	#19406,	r0	;0x04bce

00004e14 <.L51>:
    4e14:	b0 13 fe a1 	calla	#41470		;0x0a1fe
    4e18:	ea 93 00 00 	cmp.b	#2,	0(r10)	;r3 As==10
    4e1c:	08 24       	jz	$+18     	;abs 0x4e2e
    4e1e:	b0 13 fe a1 	calla	#41470		;0x0a1fe
    4e22:	81 18 f2 40 	movx.a	#65632,	&0x11a36;0x10060
    4e26:	60 00 36 1a 

00004e2a <.L54>:
    4e2a:	80 00 2a 4e 	mova	#20010,	r0	;0x04e2a

00004e2e <.L53>:
    4e2e:	fa 40 03 00 	mov.b	#3,	0(r10)	;
    4e32:	00 00 
    4e34:	80 18 fa 40 	movx.a	#67078,	20(r10)	;0x10606, 0x00014
    4e38:	06 06 14 00 
    4e3c:	40 18 04 44 	movx.w	r4,	r4	;
    4e40:	8a 44 1c 00 	mov	r4,	28(r10)	; 0x001c
    4e44:	ba 40 00 03 	mov	#768,	30(r10)	;#0x0300, 0x001e
    4e48:	1e 00 
    4e4a:	00 18 fa 40 	movx.a	#56730,	50(r10)	;0x0dd9a, 0x00032
    4e4e:	9a dd 32 00 
    4e52:	8a 44 36 00 	mov	r4,	54(r10)	; 0x0036
    4e56:	8a 43 38 00 	mov	#0,	56(r10)	;r3 As==00, 0x0038
    4e5a:	cc 0a       	mova	r10,	r12	;
    4e5c:	b0 13 44 8d 	calla	#36164		;0x08d44
    4e60:	b0 13 f4 a1 	calla	#41460		;0x0a1f4
    4e64:	40 18 82 44 	movx.w	r4,	&0x0b6b2;
    4e68:	b2 b6 
    4e6a:	c0 1f b2 f0 	andx.w	#-10241,&0x0ddb2;0xfd7ff
    4e6e:	ff d7 b2 dd 
    4e72:	40 18 92 c3 	bicx.w	#1,	&0x0ddb4;r3 As==01
    4e76:	b4 dd 

00004e78 <.L47>:
    4e78:	40 18 1c 42 	movx.w	&0x0ddb2,r12	;
    4e7c:	b2 dd 
    4e7e:	3c f0 00 a0 	and	#40960,	r12	;#0xa000
    4e82:	3c 90 00 a0 	cmp	#40960,	r12	;#0xa000
    4e86:	61 20       	jnz	$+196    	;abs 0x4f4a
    4e88:	40 18 14 42 	movx.w	&0x0b6b4,r4	;
    4e8c:	b4 b6 
    4e8e:	40 18 14 82 	subx.w	&0x0b6b2,r4	;
    4e92:	b2 b6 
    4e94:	7c 40 1f 00 	mov.b	#31,	r12	;#0x001f
    4e98:	0c 94       	cmp	r4,	r12	;
    4e9a:	01 2c       	jc	$+4      	;abs 0x4e9e
    4e9c:	04 4c       	mov	r12,	r4	;

00004e9e <.L56>:
    4e9e:	b0 13 fe a1 	calla	#41470		;0x0a1fe
    4ea2:	40 18 1c 42 	movx.w	&0x0b6b2,r12	;
    4ea6:	b2 b6 
    4ea8:	c7 0c       	mova	r12,	r7	;
    4eaa:	a7 01 06 06 	adda	#67078,	r7	;0x10606
    4eae:	8a 01 16 1a 	mova	#72214,	r10	;0x11a16
    4eb2:	01 18 f2 40 	movx.a	#38812,	&0x11a1e;0x0979c
    4eb6:	9c 97 1e 1a 
    4eba:	08 0a       	mova	@r10,	r8	;
    4ebc:	3c 08 22 00 	mova	34(r8),	r12	;0x00022
    4ec0:	c6 0c       	mova	r12,	r6	;
    4ec2:	00 18 76 f0 	andx.a	#4095,	r6	;0x00fff
    4ec6:	ff 0f 
    4ec8:	19 46 02 00 	mov	2(r6),	r9	;
    4ecc:	0c 14       	pushm.a	#1,	r12	;20-bit words
    4ece:	40 18 3c 41 	popx.w	r12		;
    4ed2:	40 18 3d 41 	popx.w	r13		;
    4ed6:	b0 13 e0 b3 	calla	#46048		;0x0b3e0
    4eda:	0d 12       	push	r13		;
    4edc:	0c 12       	push	r12		;
    4ede:	0c 16       	popm.a	#1,	r12	;20-bit words
    4ee0:	40 18 0d 4c 	movx.w	r12,	r13	;
    4ee4:	5c 43       	mov.b	#1,	r12	;r3 As==01
    4ee6:	b0 13 34 b3 	calla	#45876		;0x0b334
    4eea:	09 cc       	bic	r12,	r9	;
    4eec:	86 49 02 00 	mov	r9,	2(r6)	;
    4ef0:	7d 40 80 ff 	mov.b	#65408,	r13	;#0xff80
    4ef4:	0c 08       	mova	@r8,	r12	;
    4ef6:	b0 13 a6 8e 	calla	#36518		;0x08ea6
    4efa:	0e 0a       	mova	@r10,	r14	;
    4efc:	3c 0e 04 00 	mova	4(r14),	r12	;
    4f00:	00 18 fc 40 	movx.a	#35168,	0(r12)	;0x08960
    4f04:	60 89 00 00 
    4f08:	0c 0e       	mova	@r14,	r12	;
    4f0a:	fc 40 03 00 	mov.b	#3,	0(r12)	;
    4f0e:	00 00 
    4f10:	7c 07 14 00 	mova	r7,	20(r12)	; 0x00014
    4f14:	8c 44 1c 00 	mov	r4,	28(r12)	; 0x001c
    4f18:	bc 40 00 03 	mov	#768,	30(r12)	;#0x0300, 0x001e
    4f1c:	1e 00 
    4f1e:	00 18 fc 40 	movx.a	#56730,	50(r12)	;0x0dd9a, 0x00032
    4f22:	9a dd 32 00 
    4f26:	8c 44 36 00 	mov	r4,	54(r12)	; 0x0036
    4f2a:	8c 43 38 00 	mov	#0,	56(r12)	;r3 As==00, 0x0038
    4f2e:	b0 13 44 8d 	calla	#36164		;0x08d44
    4f32:	40 18 82 54 	addx.w	r4,	&0x0b6b2;
    4f36:	b2 b6 
    4f38:	b0 13 f4 a1 	calla	#41460		;0x0a1f4
    4f3c:	40 18 b2 f0 	andx.w	#24575,	&0x0ddb2;0x05fff
    4f40:	ff 5f b2 dd 
    4f44:	40 18 82 c3 	bicx.w	#0,	&0x0ddb4;r3 As==00
    4f48:	b4 dd 

00004f4a <.L55>:
    4f4a:	40 18 1a 42 	movx.w	&0x0ddb2,r10	;
    4f4e:	b2 dd 
    4f50:	40 18 1c 42 	movx.w	&0x0ddb4,r12	;
    4f54:	b4 dd 
    4f56:	5c f3       	and.b	#1,	r12	;r3 As==01
    4f58:	40 18 3a b0 	bitx.w	#1024,	r10	;0x00400
    4f5c:	00 04 
    4f5e:	cf 25       	jz	$+928    	;abs 0x52fe
    4f60:	1c 93       	cmp	#1,	r12	;r3 As==01
    4f62:	cd 21       	jnz	$+924    	;abs 0x52fe
    4f64:	3a f0 00 08 	and	#2048,	r10	;#0x0800
    4f68:	0a 93       	cmp	#0,	r10	;r3 As==00
    4f6a:	c9 21       	jnz	$+916    	;abs 0x52fe
    4f6c:	3d 40 00 04 	mov	#1024,	r13	;#0x0400
    4f70:	4e 43       	clr.b	r14		;
    4f72:	2c 01 76 19 	mova	&72054,	r12	;0x11976
    4f76:	b0 13 32 97 	calla	#38706		;0x09732
    4f7a:	8e 00 8c dc 	mova	#56460,	r14	;0x0dc8c
    4f7e:	5c 4e ca 00 	mov.b	202(r14),r12	;0x000ca
    4f82:	5d 4e c9 00 	mov.b	201(r14),r13	;0x000c9
    4f86:	86 01 06 06 	mova	#67078,	r6	;0x10606
    4f8a:	0f 4d       	mov	r13,	r15	;
    4f8c:	5f 0f       	rrum	#4,	r15	;
    4f8e:	6f d6       	bis.b	@r6,	r15	;
    4f90:	0e 4c       	mov	r12,	r14	;
    4f92:	43 18 0e 5e 	rpt #4 { rlax.w	r14		;
    4f96:	7e f0 30 00 	and.b	#48,	r14	;#0x0030
    4f9a:	4f de       	bis.b	r14,	r15	;
    4f9c:	c6 4f 00 00 	mov.b	r15,	0(r6)	;
    4fa0:	43 18 0d 5d 	rpt #4 { rlax.w	r13		;
    4fa4:	5d d6 01 00 	bis.b	1(r6),	r13	;
    4fa8:	0c 11       	rra	r12		;
    4faa:	7c f0 0e 00 	and.b	#14,	r12	;#0x000e
    4fae:	4d dc       	bis.b	r12,	r13	;
    4fb0:	c6 4d 01 00 	mov.b	r13,	1(r6)	;
    4fb4:	40 18 5e 42 	movx.b	&0x0b6c4,r14	;
    4fb8:	c4 b6 
    4fba:	c6 4e 02 00 	mov.b	r14,	2(r6)	;
    4fbe:	8c 00 c2 b6 	mova	#46786,	r12	;0x0b6c2
    4fc2:	6d 4c       	mov.b	@r12,	r13	;
    4fc4:	c6 4d 03 00 	mov.b	r13,	3(r6)	;
    4fc8:	5e 53       	inc.b	r14		;
    4fca:	40 18 c2 4e 	movx.b	r14,	&0x0b6c4;
    4fce:	c4 b6 
    4fd0:	5d 53       	inc.b	r13		;
    4fd2:	cc 4d 00 00 	mov.b	r13,	0(r12)	;
    4fd6:	5c 46 04 00 	mov.b	4(r6),	r12	;
    4fda:	7c f0 bf ff 	and.b	#65471,	r12	;#0xffbf
    4fde:	7c d0 07 00 	bis.b	#7,	r12	;
    4fe2:	c6 4c 04 00 	mov.b	r12,	4(r6)	;
    4fe6:	41 18 f2 43 	movx.b	#-1,	&0x1060b;r3 As==11
    4fea:	0b 06 
    4fec:	40 18 c2 93 	cmpx.b	#0,	&0x0ddb0;r3 As==00
    4ff0:	b0 dd 
    4ff2:	4d 20       	jnz	$+156    	;abs 0x508e
    4ff4:	b0 13 fe a1 	calla	#41470		;0x0a1fe
    4ff8:	3d 43       	mov	#-1,	r13	;r3 As==11
    4ffa:	cc 05       	mova	r5,	r12	;
    4ffc:	b0 13 56 91 	calla	#37206		;0x09156
    5000:	ca 0c       	mova	r12,	r10	;
    5002:	9c 00 00 00 	cmpa	#0,	r12	;
    5006:	19 20       	jnz	$+52     	;abs 0x503a
    5008:	8c 00 6a dc 	mova	#56426,	r12	;0x0dc6a
    500c:	38 0c 0c 00 	mova	12(r12),r8	;0x0000c
    5010:	ce 08       	mova	r8,	r14	;
    5012:	ae 00 04 00 	adda	#4,	r14	;
    5016:	7c 0e 0c 00 	mova	r14,	12(r12)	; 0x0000c
    501a:	00 18 e2 48 	movx.a	@r8,	&0x0ddac;
    501e:	ac dd 
    5020:	00 18 5e 92 	cmpx.a	&0x0dc6e,r14	;
    5024:	6e dc 
    5026:	03 28       	jnc	$+8      	;abs 0x502e
    5028:	00 18 ec 4c 	movx.a	@r12,	12(r12)	; 0x0000c
    502c:	0c 00 

0000502e <.L60>:
    502e:	8c 00 7c dc 	mova	#56444,	r12	;0x0dc7c
    5032:	b0 13 82 92 	calla	#37506		;0x09282
    5036:	b0 13 d4 8d 	calla	#36308		;0x08dd4

0000503a <.L59>:
    503a:	b0 13 f4 a1 	calla	#41460		;0x0a1f4
    503e:	9a 00 00 00 	cmpa	#0,	r10	;
    5042:	08 24       	jz	$+18     	;abs 0x5054
    5044:	b0 13 fe a1 	calla	#41470		;0x0a1fe
    5048:	81 18 f2 40 	movx.a	#65667,	&0x11a36;0x10083
    504c:	83 00 36 1a 

00005050 <.L62>:
    5050:	80 00 50 50 	mova	#20560,	r0	;0x05050

00005054 <.L61>:
    5054:	2c 00 ac dd 	mova	&56748,	r12	;0x0ddac
    5058:	5d 4c 04 00 	mov.b	4(r12),	r13	;
    505c:	47 18 0d 5d 	rpt #8 { rlax.w	r13		;
    5060:	5c 4c 05 00 	mov.b	5(r12),	r12	;
    5064:	0d dc       	bis	r12,	r13	;
    5066:	3d 50 07 00 	add	#7,	r13	;
    506a:	0e 4d       	mov	r13,	r14	;
    506c:	4e 0e       	rlam.a	#4,	r14	;
    506e:	4e 0d       	rram.a	#4,	r14	;
    5070:	60 0e a8 dd 	mova	r14,	&56744	; 0x0dda8
    5074:	f6 f0 f8 ff 	and.b	#65528,	4(r6)	;#0xfff8
    5078:	04 00 
    507a:	41 18 c2 43 	movx.b	#0,	&0x1060b;r3 As==00
    507e:	0b 06 
    5080:	60 0a a4 dd 	mova	r10,	&56740	; 0x0dda4
    5084:	60 0a a0 dd 	mova	r10,	&56736	; 0x0dda0
    5088:	60 0a 9c dd 	mova	r10,	&56732	; 0x0dd9c
    508c:	5a 43       	mov.b	#1,	r10	;r3 As==01

0000508e <.L58>:
    508e:	40 18 d2 43 	movx.b	#1,	&0x0ddb0;r3 As==01
    5092:	b0 dd 
    5094:	74 40 06 00 	mov.b	#6,	r4	;
    5098:	89 01 06 06 	mova	#67078,	r9	;0x10606

0000509c <.L63>:
    509c:	26 00 be b6 	mova	&46782,	r6	;0x0b6be
    50a0:	d4 06       	cmpa	r6,	r4	;
    50a2:	12 20       	jnz	$+38     	;abs 0x50c8
    50a4:	40 18 c2 93 	cmpx.b	#0,	&0x0dd4e;r3 As==00
    50a8:	4e dd 
    50aa:	18 35       	jge	$+562    	;abs 0x52dc
    50ac:	40 18 1e 42 	movx.w	&0x0b6b4,r14	;
    50b0:	b4 b6 
    50b2:	59 43       	mov.b	#1,	r9	;r3 As==01
    50b4:	d9 0e       	cmpa	r14,	r9	;
    50b6:	01 29       	jnc	$+516    	;abs 0x52ba
    50b8:	b0 13 fe a1 	calla	#41470		;0x0a1fe
    50bc:	81 18 f2 40 	movx.a	#65656,	&0x11a36;0x10078
    50c0:	78 00 36 1a 

000050c4 <.L84>:
    50c4:	80 00 c4 50 	mova	#20676,	r0	;0x050c4

000050c8 <.L81>:
    50c8:	40 18 5c 42 	movx.b	&0x0ddb0,r12	;
    50cc:	b0 dd 
    50ce:	6c 93       	cmp.b	#2,	r12	;r3 As==10
    50d0:	14 24       	jz	$+42     	;abs 0x50fa
    50d2:	7c 90 03 00 	cmp.b	#3,	r12	;
    50d6:	ae 24       	jz	$+350    	;abs 0x5234
    50d8:	5c 93       	cmp.b	#1,	r12	;r3 As==01
    50da:	e7 20       	jnz	$+464    	;abs 0x52aa
    50dc:	00 18 c2 93 	cmpx.a	#0,	&0x0dda4;r3 As==00
    50e0:	a4 dd 
    50e2:	06 24       	jz	$+14     	;abs 0x50f0
    50e4:	40 18 f2 40 	movx.b	#3,	&0x0ddb0;
    50e8:	03 00 b0 dd 
    50ec:	80 00 9c 50 	mova	#20636,	r0	;0x0509c

000050f0 <.L68>:
    50f0:	40 18 e2 43 	movx.b	#2,	&0x0ddb0;r3 As==10
    50f4:	b0 dd 
    50f6:	80 00 9c 50 	mova	#20636,	r0	;0x0509c

000050fa <.L65>:
    50fa:	00 18 d2 92 	cmpx.a	&0x0dda8,&0x0dd9c;
    50fe:	a8 dd 9c dd 
    5102:	87 20       	jnz	$+272    	;abs 0x5212
    5104:	00 18 c2 43 	movx.a	#0,	&0x0dd9c;r3 As==00
    5108:	9c dd 
    510a:	2c 00 ac dd 	mova	&56748,	r12	;0x0ddac
    510e:	b0 13 8a a4 	calla	#42122		;0x0a48a
    5112:	0a 93       	cmp	#0,	r10	;r3 As==00
    5114:	14 20       	jnz	$+42     	;abs 0x513e
    5116:	cc 04       	mova	r4,	r12	;
    5118:	ac 0f fa ff 	adda	#1048570,r12	;0xffffa
    511c:	0c 14       	pushm.a	#1,	r12	;20-bit words
    511e:	40 18 3c 41 	popx.w	r12		;
    5122:	40 18 3d 41 	popx.w	r13		;
    5126:	b0 13 f8 b3 	calla	#46072		;0x0b3f8
    512a:	0d 12       	push	r13		;
    512c:	0c 12       	push	r12		;
    512e:	0c 16       	popm.a	#1,	r12	;20-bit words
    5130:	c9 dc 04 00 	bis.b	r12,	4(r9)	;
    5134:	4c 44       	mov.b	r4,	r12	;
    5136:	7c 50 fa ff 	add.b	#65530,	r12	;#0xfffa
    513a:	c9 4c 05 00 	mov.b	r12,	5(r9)	;

0000513e <.L71>:
    513e:	b0 13 fe a1 	calla	#41470		;0x0a1fe
    5142:	7d 40 64 00 	mov.b	#100,	r13	;#0x0064
    5146:	cc 05       	mova	r5,	r12	;
    5148:	b0 13 56 91 	calla	#37206		;0x09156
    514c:	ca 0c       	mova	r12,	r10	;
    514e:	9c 00 00 00 	cmpa	#0,	r12	;
    5152:	19 20       	jnz	$+52     	;abs 0x5186
    5154:	8c 00 6a dc 	mova	#56426,	r12	;0x0dc6a
    5158:	38 0c 0c 00 	mova	12(r12),r8	;0x0000c
    515c:	ce 08       	mova	r8,	r14	;
    515e:	ae 00 04 00 	adda	#4,	r14	;
    5162:	7c 0e 0c 00 	mova	r14,	12(r12)	; 0x0000c
    5166:	00 18 e2 48 	movx.a	@r8,	&0x0ddac;
    516a:	ac dd 
    516c:	00 18 5e 92 	cmpx.a	&0x0dc6e,r14	;
    5170:	6e dc 
    5172:	03 28       	jnc	$+8      	;abs 0x517a
    5174:	00 18 ec 4c 	movx.a	@r12,	12(r12)	; 0x0000c
    5178:	0c 00 

0000517a <.L73>:
    517a:	8c 00 7c dc 	mova	#56444,	r12	;0x0dc7c
    517e:	b0 13 82 92 	calla	#37506		;0x09282
    5182:	b0 13 d4 8d 	calla	#36308		;0x08dd4

00005186 <.L72>:
    5186:	b0 13 f4 a1 	calla	#41460		;0x0a1f4
    518a:	9a 00 00 00 	cmpa	#0,	r10	;
    518e:	30 24       	jz	$+98     	;abs 0x51f0
    5190:	2e 00 be b6 	mova	&46782,	r14	;0x0b6be
    5194:	00 18 4c 4e 	movx.a	r14,	r12	;
    5198:	00 18 4c 84 	subx.a	r4,	r12	;
    519c:	60 0c a4 dd 	mova	r12,	&56740	; 0x0dda4
    51a0:	78 40 06 00 	mov.b	#6,	r8	;
    51a4:	d8 0c       	cmpa	r12,	r8	;
    51a6:	03 28       	jnc	$+8      	;abs 0x51ae
    51a8:	ee 0c       	adda	r12,	r14	;
    51aa:	60 0e a4 dd 	mova	r14,	&56740	; 0x0dda4

000051ae <.L75>:
    51ae:	2a 00 a4 dd 	mova	&56740,	r10	;0x0dda4
    51b2:	88 00 b6 b6 	mova	#46774,	r8	;0x0b6b6
    51b6:	cc 0a       	mova	r10,	r12	;
    51b8:	ac 0f f9 ff 	adda	#1048569,r12	;0xffff9
    51bc:	0c 14       	pushm.a	#1,	r12	;20-bit words
    51be:	40 18 3c 41 	popx.w	r12		;
    51c2:	40 18 3d 41 	popx.w	r13		;
    51c6:	b0 13 f8 b3 	calla	#46072		;0x0b3f8
    51ca:	0d 12       	push	r13		;
    51cc:	0c 12       	push	r12		;
    51ce:	0c 16       	popm.a	#1,	r12	;20-bit words
    51d0:	c8 4c 04 00 	mov.b	r12,	4(r8)	;
    51d4:	7a 50 f9 ff 	add.b	#65529,	r10	;#0xfff9
    51d8:	c8 4a 05 00 	mov.b	r10,	5(r8)	;
    51dc:	00 18 c2 43 	movx.a	#0,	&0x0dda0;r3 As==00
    51e0:	a0 dd 
    51e2:	40 18 f2 40 	movx.b	#3,	&0x0ddb0;
    51e6:	03 00 b0 dd 
    51ea:	5a 43       	mov.b	#1,	r10	;r3 As==01
    51ec:	80 00 9c 50 	mova	#20636,	r0	;0x0509c

000051f0 <.L74>:
    51f0:	2c 00 ac dd 	mova	&56748,	r12	;0x0ddac
    51f4:	5d 4c 04 00 	mov.b	4(r12),	r13	;
    51f8:	47 18 0d 5d 	rpt #8 { rlax.w	r13		;
    51fc:	5c 4c 05 00 	mov.b	5(r12),	r12	;
    5200:	0d dc       	bis	r12,	r13	;
    5202:	3d 50 07 00 	add	#7,	r13	;
    5206:	0c 4d       	mov	r13,	r12	;
    5208:	4c 0e       	rlam.a	#4,	r12	;
    520a:	4c 0d       	rram.a	#4,	r12	;
    520c:	60 0c a8 dd 	mova	r12,	&56744	; 0x0dda8
    5210:	5a 43       	mov.b	#1,	r10	;r3 As==01

00005212 <.L70>:
    5212:	2c 00 9c dd 	mova	&56732,	r12	;0x0dd9c
    5216:	cd 0c       	mova	r12,	r13	;
    5218:	ad 00 01 00 	adda	#1,	r13	;
    521c:	60 0d 9c dd 	mova	r13,	&56732	; 0x0dd9c
    5220:	00 18 5c 52 	addx.a	&0x0ddac,r12	;
    5224:	ac dd 
    5226:	41 18 e4 4c 	movx.b	@r12,	67078(r4); 0x10606
    522a:	06 06 
    522c:	a4 00 01 00 	adda	#1,	r4	;
    5230:	80 00 9c 50 	mova	#20636,	r0	;0x0509c

00005234 <.L66>:
    5234:	2c 00 a0 dd 	mova	&56736,	r12	;0x0dda0
    5238:	ce 04       	mova	r4,	r14	;
    523a:	ae 00 01 00 	adda	#1,	r14	;
    523e:	a4 01 06 06 	adda	#67078,	r4	;0x10606
    5242:	7f 40 05 00 	mov.b	#5,	r15	;
    5246:	df 0c       	cmpa	r12,	r15	;
    5248:	19 28       	jnc	$+52     	;abs 0x527c
    524a:	c8 0c       	mova	r12,	r8	;
    524c:	a8 00 01 00 	adda	#1,	r8	;
    5250:	60 08 a0 dd 	mova	r8,	&56736	; 0x0dda0
    5254:	40 18 d4 4c 	movx.b	46774(r12),0(r4)	;0x0b6b6
    5258:	b6 b6 00 00 

0000525c <.L216>:
    525c:	c4 0e       	mova	r14,	r4	;
    525e:	00 18 d2 92 	cmpx.a	&0x0dda4,&0x0dda0;
    5262:	a4 dd a0 dd 
    5266:	1a 23       	jnz	$-458    	;abs 0x509c
    5268:	de 06       	cmpa	r6,	r14	;
    526a:	11 24       	jz	$+36     	;abs 0x528e
    526c:	b0 13 fe a1 	calla	#41470		;0x0a1fe
    5270:	81 18 f2 40 	movx.a	#65667,	&0x11a36;0x10083
    5274:	83 00 36 1a 

00005278 <.L79>:
    5278:	80 00 78 52 	mova	#21112,	r0	;0x05278

0000527c <.L76>:
    527c:	f4 40 aa ff 	mov.b	#65450,	0(r4)	;#0xffaa
    5280:	00 00 
    5282:	ac 00 01 00 	adda	#1,	r12	;
    5286:	60 0c a0 dd 	mova	r12,	&56736	; 0x0dda0
    528a:	80 00 5c 52 	mova	#21084,	r0	;0x0525c

0000528e <.L78>:
    528e:	00 18 c2 43 	movx.a	#0,	&0x0dda4;r3 As==00
    5292:	a4 dd 
    5294:	3e 43       	mov	#-1,	r14	;r3 As==11
    5296:	3c 40 00 04 	mov	#1024,	r12	;#0x0400
    529a:	4d 43       	clr.b	r13		;
    529c:	b0 13 ce 96 	calla	#38606		;0x096ce
    52a0:	40 18 c2 43 	movx.b	#0,	&0x0ddb0;r3 As==00
    52a4:	b0 dd 
    52a6:	80 00 9c 50 	mova	#20636,	r0	;0x0509c

000052aa <.L201>:
    52aa:	b0 13 fe a1 	calla	#41470		;0x0a1fe
    52ae:	81 18 f2 40 	movx.a	#65667,	&0x11a36;0x10083
    52b2:	83 00 36 1a 

000052b6 <.L80>:
    52b6:	80 00 b6 52 	mova	#21174,	r0	;0x052b6

000052ba <.L83>:
    52ba:	40 18 b2 43 	movx.w	#-1,	&0x00154;r3 As==11
    52be:	54 01 
    52c0:	4c 43       	clr.b	r12		;
    52c2:	ca 0e       	mova	r14,	r10	;
    52c4:	aa 0f fe ff 	adda	#1048574,r10	;0xffffe

000052c8 <.L85>:
    52c8:	dc 0a       	cmpa	r10,	r12	;
    52ca:	41 28       	jnc	$+132    	;abs 0x534e
    52cc:	41 18 da 42 	movx.b	&0x00155,67078(r10); 0x10606
    52d0:	55 01 06 06 
    52d4:	41 18 de 42 	movx.b	&0x00154,67077(r14); 0x10605
    52d8:	54 01 05 06 

000052dc <.L82>:
    52dc:	3d 40 00 08 	mov	#2048,	r13	;#0x0800
    52e0:	4e 43       	clr.b	r14		;
    52e2:	2c 01 76 19 	mova	&72054,	r12	;0x11976
    52e6:	b0 13 32 97 	calla	#38706		;0x09732
    52ea:	40 18 1c 42 	movx.w	&0x0ddb2,r12	;
    52ee:	b2 dd 
    52f0:	3c f0 ff fb 	and	#64511,	r12	;#0xfbff
    52f4:	3c d0 00 08 	bis	#2048,	r12	;#0x0800
    52f8:	40 18 82 4c 	movx.w	r12,	&0x0ddb2;
    52fc:	b2 dd 

000052fe <.L57>:
    52fe:	40 18 1c 42 	movx.w	&0x0ddb2,r12	;
    5302:	b2 dd 
    5304:	40 18 1d 42 	movx.w	&0x0ddb4,r13	;
    5308:	b4 dd 
    530a:	5d f3       	and.b	#1,	r13	;r3 As==01
    530c:	40 18 3c b0 	bitx.w	#8192,	r12	;0x02000
    5310:	00 20 
    5312:	02 24       	jz	$+6      	;abs 0x5318
    5314:	1d 93       	cmp	#1,	r13	;r3 As==01
    5316:	23 24       	jz	$+72     	;abs 0x535e

00005318 <.L93>:
    5318:	40 18 1c 42 	movx.w	&0x0ddb2,r12	;
    531c:	b2 dd 
    531e:	0d 4c       	mov	r12,	r13	;
    5320:	3d f0 00 60 	and	#24576,	r13	;#0x6000
    5324:	3d 90 00 60 	cmp	#24576,	r13	;#0x6000
    5328:	05 20       	jnz	$+12     	;abs 0x5334
    532a:	3c b0 aa 00 	bit	#170,	r12	;#0x00aa
    532e:	02 24       	jz	$+6      	;abs 0x5334
    5330:	80 00 aa 59 	mova	#22954,	r0	;0x059aa

00005334 <.L91>:
    5334:	4e 43       	clr.b	r14		;
    5336:	3c 43       	mov	#-1,	r12	;r3 As==11
    5338:	5d 43       	mov.b	#1,	r13	;r3 As==01
    533a:	b0 13 ce 96 	calla	#38606		;0x096ce
    533e:	40 18 82 dc 	bisx.w	r12,	&0x0ddb2;
    5342:	b2 dd 
    5344:	40 18 82 dd 	bisx.w	r13,	&0x0ddb4;
    5348:	b4 dd 
    534a:	80 00 52 4b 	mova	#19282,	r0	;0x04b52

0000534e <.L86>:
    534e:	c0 18 d2 4c 	movx.b	67078(r12),&0x00152;0x10606
    5352:	06 06 52 01 
    5356:	ac 00 01 00 	adda	#1,	r12	;
    535a:	80 00 c8 52 	mova	#21192,	r0	;0x052c8

0000535e <.L202>:
    535e:	3c b0 55 01 	bit	#341,	r12	;#0x0155
    5362:	da 27       	jz	$-74     	;abs 0x5318
    5364:	46 43       	clr.b	r6		;
    5366:	47 43       	clr.b	r7		;
    5368:	8a 00 50 b4 	mova	#46160,	r10	;0x0b450
    536c:	88 01 9c 00 	mova	#65692,	r8	;0x1009c
    5370:	80 00 ae 54 	mova	#21678,	r0	;0x054ae

00005374 <.L96>:
    5374:	7e 40 10 00 	mov.b	#16,	r14	;#0x0010
    5378:	4f 43       	clr.b	r15		;
    537a:	0c 49       	mov	r9,	r12	;
    537c:	4d 43       	clr.b	r13		;
    537e:	4a 13       	calla	r10		;
    5380:	5d 43       	mov.b	#1,	r13	;r3 As==01
    5382:	0d 9c       	cmp	r12,	r13	;
    5384:	0c 28       	jnc	$+26     	;abs 0x539e
    5386:	09 9d       	cmp	r13,	r9	;
    5388:	26 24       	jz	$+78     	;abs 0x53d6
    538a:	29 92       	cmp	#4,	r9	;r2 As==10
    538c:	0b 25       	jz	$+536    	;abs 0x55a4

0000538e <.L94>:
    538e:	b0 13 fe a1 	calla	#41470		;0x0a1fe
    5392:	81 18 f2 40 	movx.a	#65686,	&0x11a36;0x10096
    5396:	96 00 36 1a 

0000539a <.L119>:
    539a:	80 00 9a 53 	mova	#21402,	r0	;0x0539a

0000539e <.L97>:
    539e:	39 90 40 00 	cmp	#64,	r9	;#0x0040
    53a2:	5e 25       	jz	$+702    	;abs 0x5660
    53a4:	39 90 00 01 	cmp	#256,	r9	;#0x0100
    53a8:	f2 23       	jnz	$-26     	;abs 0x538e

000053aa <.L104>:
    53aa:	40 18 5c 42 	movx.b	&0x0dcad,r12	;
    53ae:	ad dc 
    53b0:	0c 5c       	rla	r12		;
    53b2:	3c 50 60 ff 	add	#65376,	r12	;#0xff60
    53b6:	0c 11       	rra	r12		;
    53b8:	3c 50 15 00 	add	#21,	r12	;#0x0015
    53bc:	4c 0e       	rlam.a	#4,	r12	;
    53be:	4c 0d       	rram.a	#4,	r12	;
    53c0:	ec 08       	adda	r8,	r12	;
    53c2:	6d 4c       	mov.b	@r12,	r13	;
    53c4:	40 18 c2 4d 	movx.b	r13,	&0x0b707;
    53c8:	07 b7 
    53ca:	7c 40 09 00 	mov.b	#9,	r12	;
    53ce:	b0 13 ea a8 	calla	#43242		;0x0a8ea
    53d2:	80 00 a8 54 	mova	#21672,	r0	;0x054a8

000053d6 <.L204>:
    53d6:	b0 13 fe a1 	calla	#41470		;0x0a1fe
    53da:	8c 00 8c dc 	mova	#56460,	r12	;0x0dc8c
    53de:	5d 4c 01 00 	mov.b	1(r12),	r13	;
    53e2:	47 18 0d 5d 	rpt #8 { rlax.w	r13		;
    53e6:	6e 4c       	mov.b	@r12,	r14	;
    53e8:	0d de       	bis	r14,	r13	;
    53ea:	5e 4c 03 00 	mov.b	3(r12),	r14	;
    53ee:	47 18 0e 5e 	rpt #8 { rlax.w	r14		;
    53f2:	5c 4c 02 00 	mov.b	2(r12),	r12	;
    53f6:	0c de       	bis	r14,	r12	;
    53f8:	84 00 f2 b6 	mova	#46834,	r4	;0x0b6f2
    53fc:	84 4d 0c 00 	mov	r13,	12(r4)	; 0x000c
    5400:	84 4c 0e 00 	mov	r12,	14(r4)	; 0x000e
    5404:	3f 40 ec 38 	mov	#14572,	r15	;#0x38ec
    5408:	0f 9c       	cmp	r12,	r15	;
    540a:	06 28       	jnc	$+14     	;abs 0x5418
    540c:	0c 9f       	cmp	r15,	r12	;
    540e:	1c 20       	jnz	$+58     	;abs 0x5448
    5410:	3c 40 c0 24 	mov	#9408,	r12	;#0x24c0
    5414:	0c 9d       	cmp	r13,	r12	;
    5416:	18 2c       	jc	$+50     	;abs 0x5448

00005418 <.L155>:
    5418:	40 18 b2 40 	movx.w	#9408,	&0x0b6fe;0x024c0
    541c:	c0 24 fe b6 
    5420:	40 18 b2 40 	movx.w	#14572,	&0x0b700;0x038ec
    5424:	ec 38 00 b7 
    5428:	c0 1f f2 40 	movx.b	#-64,	&0x0dc8c;0xfffc0
    542c:	c0 ff 8c dc 
    5430:	40 18 f2 40 	movx.b	#36,	&0x0dc8d;0x00024
    5434:	24 00 8d dc 
    5438:	c0 1f f2 40 	movx.b	#-20,	&0x0dc8e;0xfffec
    543c:	ec ff 8e dc 
    5440:	40 18 f2 40 	movx.b	#56,	&0x0dc8f;0x00038
    5444:	38 00 8f dc 

00005448 <.L106>:
    5448:	3d 40 8e 33 	mov	#13198,	r13	;#0x338e
    544c:	40 18 1d 92 	cmpx.w	&0x0b700,r13	;
    5450:	00 b7 
    5452:	22 28       	jnc	$+70     	;abs 0x5498
    5454:	40 18 82 9d 	cmpx.w	r13,	&0x0b700;
    5458:	00 b7 
    545a:	06 20       	jnz	$+14     	;abs 0x5468
    545c:	3e 40 3f da 	mov	#55871,	r14	;#0xda3f
    5460:	40 18 1e 92 	cmpx.w	&0x0b6fe,r14	;
    5464:	fe b6 
    5466:	18 28       	jnc	$+50     	;abs 0x5498

00005468 <.L156>:
    5468:	c0 1f b2 40 	movx.w	#-9664,	&0x0b6fe;0xfda40
    546c:	40 da fe b6 
    5470:	40 18 b2 40 	movx.w	#13198,	&0x0b700;0x0338e
    5474:	8e 33 00 b7 
    5478:	40 18 f2 40 	movx.b	#64,	&0x0dc8c;0x00040
    547c:	40 00 8c dc 
    5480:	c0 1f f2 40 	movx.b	#-38,	&0x0dc8d;0xfffda
    5484:	da ff 8d dc 
    5488:	c0 1f f2 40 	movx.b	#-114,	&0x0dc8e;0xfff8e
    548c:	8e ff 8e dc 
    5490:	40 18 f2 40 	movx.b	#51,	&0x0dc8f;0x00033
    5494:	33 00 8f dc 

00005498 <.L108>:
    5498:	b0 13 f4 a1 	calla	#41460		;0x0a1f4
    549c:	1c 44 0c 00 	mov	12(r4),	r12	;0x0000c
    54a0:	1d 44 0e 00 	mov	14(r4),	r13	;0x0000e
    54a4:	b0 13 6e aa 	calla	#43630		;0x0aa6e

000054a8 <.L110>:
    54a8:	40 18 82 c9 	bicx.w	r9,	&0x0ddb2;
    54ac:	b2 dd 

000054ae <.L207>:
    54ae:	40 18 1e 42 	movx.w	&0x0ddb2,r14	;
    54b2:	b2 dd 
    54b4:	3e f0 55 01 	and	#341,	r14	;#0x0155
    54b8:	81 4e 04 00 	mov	r14,	4(r1)	;
    54bc:	81 43 06 00 	mov	#0,	6(r1)	;r3 As==00
    54c0:	0e 93       	cmp	#0,	r14	;r3 As==00
    54c2:	2a 27       	jz	$-426    	;abs 0x5318
    54c4:	0c 46       	mov	r6,	r12	;
    54c6:	0d 47       	mov	r7,	r13	;
    54c8:	40 18 1c 81 	subx.w	4(r1),	r12	;
    54cc:	04 00 
    54ce:	40 18 1d 71 	subcx.w	6(r1),	r13	;
    54d2:	06 00 
    54d4:	09 4c       	mov	r12,	r9	;
    54d6:	19 f1 04 00 	and	4(r1),	r9	;
    54da:	39 90 10 00 	cmp	#16,	r9	;#0x0010
    54de:	4a 23       	jnz	$-362    	;abs 0x5374
    54e0:	b0 13 fe a1 	calla	#41470		;0x0a1fe
    54e4:	8c 00 8c dc 	mova	#56460,	r12	;0x0dc8c
    54e8:	5d 4c 09 00 	mov.b	9(r12),	r13	;
    54ec:	47 18 0d 5d 	rpt #8 { rlax.w	r13		;
    54f0:	5e 4c 08 00 	mov.b	8(r12),	r14	;
    54f4:	0d de       	bis	r14,	r13	;
    54f6:	5e 4c 0b 00 	mov.b	11(r12),r14	;0x0000b
    54fa:	47 18 0e 5e 	rpt #8 { rlax.w	r14		;
    54fe:	5c 4c 0a 00 	mov.b	10(r12),r12	;0x0000a
    5502:	0c de       	bis	r14,	r12	;
    5504:	84 00 f2 b6 	mova	#46834,	r4	;0x0b6f2
    5508:	84 4d 10 00 	mov	r13,	16(r4)	; 0x0010
    550c:	84 4c 12 00 	mov	r12,	18(r4)	; 0x0012
    5510:	7f 40 03 00 	mov.b	#3,	r15	;
    5514:	0f 9c       	cmp	r12,	r15	;
    5516:	07 28       	jnc	$+16     	;abs 0x5526
    5518:	3c 90 03 00 	cmp	#3,	r12	;
    551c:	1b 20       	jnz	$+56     	;abs 0x5554
    551e:	3e 40 40 0d 	mov	#3392,	r14	;#0x0d40
    5522:	0e 9d       	cmp	r13,	r14	;
    5524:	17 2c       	jc	$+48     	;abs 0x5554

00005526 <.L159>:
    5526:	40 18 b2 40 	movx.w	#3392,	&0x0b702;0x00d40
    552a:	40 0d 02 b7 
    552e:	40 18 b2 40 	movx.w	#3,	&0x0b704;
    5532:	03 00 04 b7 
    5536:	40 18 f2 40 	movx.b	#64,	&0x0dc94;0x00040
    553a:	40 00 94 dc 
    553e:	40 18 f2 40 	movx.b	#13,	&0x0dc95;0x0000d
    5542:	0d 00 95 dc 
    5546:	40 18 f2 40 	movx.b	#3,	&0x0dc96;
    554a:	03 00 96 dc 
    554e:	40 18 c2 43 	movx.b	#0,	&0x0dc97;r3 As==00
    5552:	97 dc 

00005554 <.L115>:
    5554:	40 18 82 93 	cmpx.w	#0,	&0x0b704;r3 As==00
    5558:	04 b7 
    555a:	1a 20       	jnz	$+54     	;abs 0x5590
    555c:	3f 40 57 02 	mov	#599,	r15	;#0x0257
    5560:	40 18 1f 92 	cmpx.w	&0x0b702,r15	;
    5564:	02 b7 
    5566:	14 28       	jnc	$+42     	;abs 0x5590
    5568:	40 18 b2 40 	movx.w	#600,	&0x0b702;0x00258
    556c:	58 02 02 b7 
    5570:	40 18 82 43 	movx.w	#0,	&0x0b704;r3 As==00
    5574:	04 b7 
    5576:	40 18 f2 40 	movx.b	#88,	&0x0dc94;0x00058
    557a:	58 00 94 dc 
    557e:	40 18 e2 43 	movx.b	#2,	&0x0dc95;r3 As==10
    5582:	95 dc 
    5584:	40 18 c2 43 	movx.b	#0,	&0x0dc96;r3 As==00
    5588:	96 dc 
    558a:	40 18 c2 43 	movx.b	#0,	&0x0dc97;r3 As==00
    558e:	97 dc 

00005590 <.L117>:
    5590:	b0 13 f4 a1 	calla	#41460		;0x0a1f4
    5594:	1c 44 10 00 	mov	16(r4),	r12	;0x00010
    5598:	1d 44 12 00 	mov	18(r4),	r13	;0x00012
    559c:	b0 13 18 aa 	calla	#43544		;0x0aa18
    55a0:	80 00 a8 54 	mova	#21672,	r0	;0x054a8

000055a4 <.L205>:
    55a4:	b0 13 fe a1 	calla	#41470		;0x0a1fe
    55a8:	8c 00 8c dc 	mova	#56460,	r12	;0x0dc8c
    55ac:	5d 4c 19 00 	mov.b	25(r12),r13	;0x00019
    55b0:	47 18 0d 5d 	rpt #8 { rlax.w	r13		;
    55b4:	5f 4c 18 00 	mov.b	24(r12),r15	;0x00018
    55b8:	0d df       	bis	r15,	r13	;
    55ba:	5e 4c 1b 00 	mov.b	27(r12),r14	;0x0001b
    55be:	47 18 0e 5e 	rpt #8 { rlax.w	r14		;
    55c2:	5c 4c 1a 00 	mov.b	26(r12),r12	;0x0001a
    55c6:	0c de       	bis	r14,	r12	;
    55c8:	84 00 f2 b6 	mova	#46834,	r4	;0x0b6f2
    55cc:	84 4d 08 00 	mov	r13,	8(r4)	;
    55d0:	84 4c 0a 00 	mov	r12,	10(r4)	; 0x000a
    55d4:	6e 42       	mov.b	#4,	r14	;r2 As==10
    55d6:	0e 9c       	cmp	r12,	r14	;
    55d8:	06 28       	jnc	$+14     	;abs 0x55e6
    55da:	0c 9e       	cmp	r14,	r12	;
    55dc:	19 20       	jnz	$+52     	;abs 0x5610
    55de:	3f 40 e0 93 	mov	#37856,	r15	;#0x93e0
    55e2:	0f 9d       	cmp	r13,	r15	;
    55e4:	15 2c       	jc	$+44     	;abs 0x5610

000055e6 <.L157>:
    55e6:	c0 1f b2 40 	movx.w	#-27680,&0x0b6fa;0xf93e0
    55ea:	e0 93 fa b6 
    55ee:	40 18 a2 42 	movx.w	#4,	&0x0b6fc;r2 As==10
    55f2:	fc b6 
    55f4:	c0 1f f2 40 	movx.b	#-32,	&0x0dca4;0xfffe0
    55f8:	e0 ff a4 dc 
    55fc:	c0 1f f2 40 	movx.b	#-109,	&0x0dca5;0xfff93
    5600:	93 ff a5 dc 
    5604:	40 18 e2 42 	movx.b	#4,	&0x0dca6;r2 As==10
    5608:	a6 dc 
    560a:	40 18 c2 43 	movx.b	#0,	&0x0dca7;r3 As==00
    560e:	a7 dc 

00005610 <.L111>:
    5610:	40 18 82 93 	cmpx.w	#0,	&0x0b6fc;r3 As==00
    5614:	fc b6 
    5616:	1a 20       	jnz	$+54     	;abs 0x564c
    5618:	3c 40 af 04 	mov	#1199,	r12	;#0x04af
    561c:	40 18 1c 92 	cmpx.w	&0x0b6fa,r12	;
    5620:	fa b6 
    5622:	14 28       	jnc	$+42     	;abs 0x564c
    5624:	40 18 b2 40 	movx.w	#1200,	&0x0b6fa;0x004b0
    5628:	b0 04 fa b6 
    562c:	40 18 82 43 	movx.w	#0,	&0x0b6fc;r3 As==00
    5630:	fc b6 
    5632:	c0 1f f2 40 	movx.b	#-80,	&0x0dca4;0xfffb0
    5636:	b0 ff a4 dc 
    563a:	40 18 e2 42 	movx.b	#4,	&0x0dca5;r2 As==10
    563e:	a5 dc 
    5640:	40 18 c2 43 	movx.b	#0,	&0x0dca6;r3 As==00
    5644:	a6 dc 
    5646:	40 18 c2 43 	movx.b	#0,	&0x0dca7;r3 As==00
    564a:	a7 dc 

0000564c <.L113>:
    564c:	b0 13 f4 a1 	calla	#41460		;0x0a1f4
    5650:	1c 44 08 00 	mov	8(r4),	r12	;
    5654:	1d 44 0a 00 	mov	10(r4),	r13	;0x0000a
    5658:	b0 13 b6 a9 	calla	#43446		;0x0a9b6
    565c:	80 00 a8 54 	mova	#21672,	r0	;0x054a8

00005660 <.L206>:
    5660:	8e 00 8c dc 	mova	#56460,	r14	;0x0dc8c
    5664:	ee b2 c4 00 	bit.b	#4,	196(r14);r2 As==10, 0x00c4
    5668:	a0 22       	jnz	$-702    	;abs 0x53aa
    566a:	5c 4e 11 00 	mov.b	17(r14),r12	;0x00011
    566e:	47 18 0c 5c 	rpt #8 { rlax.w	r12		;
    5672:	5d 4e 10 00 	mov.b	16(r14),r13	;0x00010
    5676:	0c dd       	bis	r13,	r12	;
    5678:	5d 4e 13 00 	mov.b	19(r14),r13	;0x00013
    567c:	47 18 0d 5d 	rpt #8 { rlax.w	r13		;
    5680:	5e 4e 12 00 	mov.b	18(r14),r14	;0x00012
    5684:	0d de       	bis	r14,	r13	;
    5686:	8e 00 f2 b6 	mova	#46834,	r14	;0x0b6f2
    568a:	8e 4c 18 00 	mov	r12,	24(r14)	; 0x0018
    568e:	8e 4d 1a 00 	mov	r13,	26(r14)	; 0x001a
    5692:	b0 13 5c ab 	calla	#43868		;0x0ab5c
    5696:	80 00 aa 53 	mova	#21418,	r0	;0x053aa

0000569a <.L125>:
    569a:	7e 42       	mov.b	#8,	r14	;r2 As==11
    569c:	4f 43       	clr.b	r15		;
    569e:	0c 49       	mov	r9,	r12	;
    56a0:	4d 43       	clr.b	r13		;
    56a2:	48 13       	calla	r8		;
    56a4:	5f 43       	mov.b	#1,	r15	;r3 As==01
    56a6:	0f 9c       	cmp	r12,	r15	;
    56a8:	0a 28       	jnc	$+22     	;abs 0x56be
    56aa:	29 93       	cmp	#2,	r9	;r3 As==10
    56ac:	3b 24       	jz	$+120    	;abs 0x5724

000056ae <.L123>:
    56ae:	b0 13 fe a1 	calla	#41470		;0x0a1fe
    56b2:	81 18 f2 40 	movx.a	#65686,	&0x11a36;0x10096
    56b6:	96 00 36 1a 

000056ba <.L146>:
    56ba:	80 00 ba 56 	mova	#22202,	r0	;0x056ba

000056be <.L126>:
    56be:	39 90 20 00 	cmp	#32,	r9	;#0x0020
    56c2:	12 25       	jz	$+550    	;abs 0x58e8
    56c4:	39 90 80 00 	cmp	#128,	r9	;#0x0080
    56c8:	f2 23       	jnz	$-26     	;abs 0x56ae
    56ca:	4a 13       	calla	r10		;
    56cc:	86 00 c6 b6 	mova	#46790,	r6	;0x0b6c6
    56d0:	84 00 8c dc 	mova	#56460,	r4	;0x0dc8c
    56d4:	5d 44 15 00 	mov.b	21(r4),	r13	;0x00015
    56d8:	47 18 0d 5d 	rpt #8 { rlax.w	r13		;
    56dc:	5c 44 17 00 	mov.b	23(r4),	r12	;0x00017
    56e0:	47 18 0c 5c 	rpt #8 { rlax.w	r12		;
    56e4:	5e 44 16 00 	mov.b	22(r4),	r14	;0x00016
    56e8:	0c de       	bis	r14,	r12	;
    56ea:	5f 44 14 00 	mov.b	20(r4),	r15	;0x00014
    56ee:	0f dd       	bis	r13,	r15	;
    56f0:	86 4f 1c 00 	mov	r15,	28(r6)	; 0x001c
    56f4:	86 4c 1e 00 	mov	r12,	30(r6)	; 0x001e
    56f8:	b0 13 f4 a1 	calla	#41460		;0x0a1f4
    56fc:	1c 46 1c 00 	mov	28(r6),	r12	;0x0001c
    5700:	1d 46 1e 00 	mov	30(r6),	r13	;0x0001e
    5704:	b0 13 7e ac 	calla	#44158		;0x0ac7e
    5708:	5c 44 20 00 	mov.b	32(r4),	r12	;0x00020
    570c:	7c f0 0f 00 	and.b	#15,	r12	;#0x000f
    5710:	4d 4c       	mov.b	r12,	r13	;
    5712:	0e 43       	clr	r14		;
    5714:	86 4d 18 00 	mov	r13,	24(r6)	; 0x0018
    5718:	86 4e 1a 00 	mov	r14,	26(r6)	; 0x001a
    571c:	b0 13 00 b1 	calla	#45312		;0x0b100
    5720:	80 00 f6 57 	mova	#22518,	r0	;0x057f6

00005724 <.L209>:
    5724:	4a 13       	calla	r10		;
    5726:	8c 00 8c dc 	mova	#56460,	r12	;0x0dc8c
    572a:	5d 4c 05 00 	mov.b	5(r12),	r13	;
    572e:	47 18 0d 5d 	rpt #8 { rlax.w	r13		;
    5732:	5e 4c 04 00 	mov.b	4(r12),	r14	;
    5736:	0d de       	bis	r14,	r13	;
    5738:	5e 4c 07 00 	mov.b	7(r12),	r14	;
    573c:	47 18 0e 5e 	rpt #8 { rlax.w	r14		;
    5740:	5c 4c 06 00 	mov.b	6(r12),	r12	;
    5744:	0c de       	bis	r14,	r12	;
    5746:	86 00 c6 b6 	mova	#46790,	r6	;0x0b6c6
    574a:	86 4d 10 00 	mov	r13,	16(r6)	; 0x0010
    574e:	86 4c 12 00 	mov	r12,	18(r6)	; 0x0012
    5752:	3f 40 12 1c 	mov	#7186,	r15	;#0x1c12
    5756:	0f 9c       	cmp	r12,	r15	;
    5758:	06 28       	jnc	$+14     	;abs 0x5766
    575a:	0c 9f       	cmp	r15,	r12	;
    575c:	1c 20       	jnz	$+58     	;abs 0x5796
    575e:	3c 40 c0 e3 	mov	#58304,	r12	;#0xe3c0
    5762:	0c 9d       	cmp	r13,	r12	;
    5764:	18 2c       	jc	$+50     	;abs 0x5796

00005766 <.L161>:
    5766:	c0 1f b2 40 	movx.w	#-7232,	&0x0b6d6;0xfe3c0
    576a:	c0 e3 d6 b6 
    576e:	40 18 b2 40 	movx.w	#7186,	&0x0b6d8;0x01c12
    5772:	12 1c d8 b6 
    5776:	c0 1f f2 40 	movx.b	#-64,	&0x0dc90;0xfffc0
    577a:	c0 ff 90 dc 
    577e:	c0 1f f2 40 	movx.b	#-29,	&0x0dc91;0xfffe3
    5782:	e3 ff 91 dc 
    5786:	40 18 f2 40 	movx.b	#18,	&0x0dc92;0x00012
    578a:	12 00 92 dc 
    578e:	40 18 f2 40 	movx.b	#28,	&0x0dc93;0x0001c
    5792:	1c 00 93 dc 

00005796 <.L133>:
    5796:	3d 40 3d 1b 	mov	#6973,	r13	;#0x1b3d
    579a:	40 18 1d 92 	cmpx.w	&0x0b6d8,r13	;
    579e:	d8 b6 
    57a0:	22 28       	jnc	$+70     	;abs 0x57e6
    57a2:	40 18 82 9d 	cmpx.w	r13,	&0x0b6d8;
    57a6:	d8 b6 
    57a8:	06 20       	jnz	$+14     	;abs 0x57b6
    57aa:	3e 40 3f 44 	mov	#17471,	r14	;#0x443f
    57ae:	40 18 1e 92 	cmpx.w	&0x0b6d6,r14	;
    57b2:	d6 b6 
    57b4:	18 28       	jnc	$+50     	;abs 0x57e6

000057b6 <.L162>:
    57b6:	40 18 b2 40 	movx.w	#17472,	&0x0b6d6;0x04440
    57ba:	40 44 d6 b6 
    57be:	40 18 b2 40 	movx.w	#6973,	&0x0b6d8;0x01b3d
    57c2:	3d 1b d8 b6 
    57c6:	40 18 f2 40 	movx.b	#64,	&0x0dc90;0x00040
    57ca:	40 00 90 dc 
    57ce:	40 18 f2 40 	movx.b	#68,	&0x0dc91;0x00044
    57d2:	44 00 91 dc 
    57d6:	40 18 f2 40 	movx.b	#61,	&0x0dc92;0x0003d
    57da:	3d 00 92 dc 
    57de:	40 18 f2 40 	movx.b	#27,	&0x0dc93;0x0001b
    57e2:	1b 00 93 dc 

000057e6 <.L135>:
    57e6:	b0 13 f4 a1 	calla	#41460		;0x0a1f4
    57ea:	1c 46 10 00 	mov	16(r6),	r12	;0x00010
    57ee:	1d 46 12 00 	mov	18(r6),	r13	;0x00012
    57f2:	b0 13 04 ae 	calla	#44548		;0x0ae04

000057f6 <.L137>:
    57f6:	40 18 82 c9 	bicx.w	r9,	&0x0ddb2;
    57fa:	b2 dd 

000057fc <.L212>:
    57fc:	40 18 1e 42 	movx.w	&0x0ddb2,r14	;
    5800:	b2 dd 
    5802:	7e f0 aa 00 	and.b	#170,	r14	;#0x00aa
    5806:	81 4e 00 00 	mov	r14,	0(r1)	;
    580a:	81 43 02 00 	mov	#0,	2(r1)	;r3 As==00
    580e:	0e 93       	cmp	#0,	r14	;r3 As==00
    5810:	02 20       	jnz	$+6      	;abs 0x5816
    5812:	80 00 34 53 	mova	#21300,	r0	;0x05334
    5816:	4c 43       	clr.b	r12		;
    5818:	4d 43       	clr.b	r13		;
    581a:	40 18 2c 81 	subx.w	@r1,	r12	;
    581e:	40 18 1d 71 	subcx.w	2(r1),	r13	;
    5822:	02 00 
    5824:	09 4c       	mov	r12,	r9	;
    5826:	29 f1       	and	@r1,	r9	;
    5828:	39 92       	cmp	#8,	r9	;r2 As==11
    582a:	37 23       	jnz	$-400    	;abs 0x569a
    582c:	4a 13       	calla	r10		;
    582e:	8c 00 8c dc 	mova	#56460,	r12	;0x0dc8c
    5832:	5d 4c 1d 00 	mov.b	29(r12),r13	;0x0001d
    5836:	47 18 0d 5d 	rpt #8 { rlax.w	r13		;
    583a:	5f 4c 1c 00 	mov.b	28(r12),r15	;0x0001c
    583e:	0d df       	bis	r15,	r13	;
    5840:	5e 4c 1f 00 	mov.b	31(r12),r14	;0x0001f
    5844:	47 18 0e 5e 	rpt #8 { rlax.w	r14		;
    5848:	5c 4c 1e 00 	mov.b	30(r12),r12	;0x0001e
    584c:	0c de       	bis	r14,	r12	;
    584e:	86 00 c6 b6 	mova	#46790,	r6	;0x0b6c6
    5852:	86 4d 0c 00 	mov	r13,	12(r6)	; 0x000c
    5856:	86 4c 0e 00 	mov	r12,	14(r6)	; 0x000e
    585a:	6e 43       	mov.b	#2,	r14	;r3 As==10
    585c:	0e 9c       	cmp	r12,	r14	;
    585e:	06 28       	jnc	$+14     	;abs 0x586c
    5860:	2c 93       	cmp	#2,	r12	;r3 As==10
    5862:	19 20       	jnz	$+52     	;abs 0x5896
    5864:	3f 40 f0 49 	mov	#18928,	r15	;#0x49f0
    5868:	0f 9d       	cmp	r13,	r15	;
    586a:	15 2c       	jc	$+44     	;abs 0x5896

0000586c <.L163>:
    586c:	40 18 b2 40 	movx.w	#18928,	&0x0b6d2;0x049f0
    5870:	f0 49 d2 b6 
    5874:	40 18 a2 43 	movx.w	#2,	&0x0b6d4;r3 As==10
    5878:	d4 b6 
    587a:	c0 1f f2 40 	movx.b	#-16,	&0x0dca8;0xffff0
    587e:	f0 ff a8 dc 
    5882:	40 18 f2 40 	movx.b	#73,	&0x0dca9;0x00049
    5886:	49 00 a9 dc 
    588a:	40 18 e2 43 	movx.b	#2,	&0x0dcaa;r3 As==10
    588e:	aa dc 
    5890:	40 18 c2 43 	movx.b	#0,	&0x0dcab;r3 As==00
    5894:	ab dc 

00005896 <.L138>:
    5896:	40 18 82 93 	cmpx.w	#0,	&0x0b6d4;r3 As==00
    589a:	d4 b6 
    589c:	1b 20       	jnz	$+56     	;abs 0x58d4
    589e:	3c 40 0b 03 	mov	#779,	r12	;#0x030b
    58a2:	40 18 1c 92 	cmpx.w	&0x0b6d2,r12	;
    58a6:	d2 b6 
    58a8:	15 28       	jnc	$+44     	;abs 0x58d4
    58aa:	40 18 b2 40 	movx.w	#780,	&0x0b6d2;0x0030c
    58ae:	0c 03 d2 b6 
    58b2:	40 18 82 43 	movx.w	#0,	&0x0b6d4;r3 As==00
    58b6:	d4 b6 
    58b8:	40 18 f2 40 	movx.b	#12,	&0x0dca8;0x0000c
    58bc:	0c 00 a8 dc 
    58c0:	40 18 f2 40 	movx.b	#3,	&0x0dca9;
    58c4:	03 00 a9 dc 
    58c8:	40 18 c2 43 	movx.b	#0,	&0x0dcaa;r3 As==00
    58cc:	aa dc 
    58ce:	40 18 c2 43 	movx.b	#0,	&0x0dcab;r3 As==00
    58d2:	ab dc 

000058d4 <.L140>:
    58d4:	b0 13 f4 a1 	calla	#41460		;0x0a1f4
    58d8:	1c 46 0c 00 	mov	12(r6),	r12	;0x0000c
    58dc:	1d 46 0e 00 	mov	14(r6),	r13	;0x0000e
    58e0:	b0 13 b6 ac 	calla	#44214		;0x0acb6
    58e4:	80 00 f6 57 	mova	#22518,	r0	;0x057f6

000058e8 <.L210>:
    58e8:	4a 13       	calla	r10		;
    58ea:	8c 00 8c dc 	mova	#56460,	r12	;0x0dc8c
    58ee:	5d 4c 0d 00 	mov.b	13(r12),r13	;0x0000d
    58f2:	47 18 0d 5d 	rpt #8 { rlax.w	r13		;
    58f6:	5e 4c 0c 00 	mov.b	12(r12),r14	;0x0000c
    58fa:	0d de       	bis	r14,	r13	;
    58fc:	5e 4c 0f 00 	mov.b	15(r12),r14	;0x0000f
    5900:	47 18 0e 5e 	rpt #8 { rlax.w	r14		;
    5904:	5c 4c 0e 00 	mov.b	14(r12),r12	;0x0000e
    5908:	0c de       	bis	r14,	r12	;
    590a:	86 00 c6 b6 	mova	#46790,	r6	;0x0b6c6
    590e:	86 4d 14 00 	mov	r13,	20(r6)	; 0x0014
    5912:	86 4c 16 00 	mov	r12,	22(r6)	; 0x0016
    5916:	7f 40 03 00 	mov.b	#3,	r15	;
    591a:	0f 9c       	cmp	r12,	r15	;
    591c:	06 28       	jnc	$+14     	;abs 0x592a
    591e:	0c 9f       	cmp	r15,	r12	;
    5920:	1b 20       	jnz	$+56     	;abs 0x5958
    5922:	3c 40 40 0d 	mov	#3392,	r12	;#0x0d40
    5926:	0c 9d       	cmp	r13,	r12	;
    5928:	17 2c       	jc	$+48     	;abs 0x5958

0000592a <.L165>:
    592a:	40 18 b2 40 	movx.w	#3392,	&0x0b6da;0x00d40
    592e:	40 0d da b6 
    5932:	40 18 b2 40 	movx.w	#3,	&0x0b6dc;
    5936:	03 00 dc b6 
    593a:	40 18 f2 40 	movx.b	#64,	&0x0dc98;0x00040
    593e:	40 00 98 dc 
    5942:	40 18 f2 40 	movx.b	#13,	&0x0dc99;0x0000d
    5946:	0d 00 99 dc 
    594a:	40 18 f2 40 	movx.b	#3,	&0x0dc9a;
    594e:	03 00 9a dc 
    5952:	40 18 c2 43 	movx.b	#0,	&0x0dc9b;r3 As==00
    5956:	9b dc 

00005958 <.L142>:
    5958:	40 18 82 93 	cmpx.w	#0,	&0x0b6dc;r3 As==00
    595c:	dc b6 
    595e:	1b 20       	jnz	$+56     	;abs 0x5996
    5960:	3d 40 e7 80 	mov	#32999,	r13	;#0x80e7
    5964:	40 18 1d 92 	cmpx.w	&0x0b6da,r13	;
    5968:	da b6 
    596a:	15 28       	jnc	$+44     	;abs 0x5996
    596c:	c0 1f b2 40 	movx.w	#-32536,&0x0b6da;0xf80e8
    5970:	e8 80 da b6 
    5974:	40 18 82 43 	movx.w	#0,	&0x0b6dc;r3 As==00
    5978:	dc b6 
    597a:	c0 1f f2 40 	movx.b	#-24,	&0x0dc98;0xfffe8
    597e:	e8 ff 98 dc 
    5982:	c0 1f f2 40 	movx.b	#-128,	&0x0dc99;0xfff80
    5986:	80 ff 99 dc 
    598a:	40 18 c2 43 	movx.b	#0,	&0x0dc9a;r3 As==00
    598e:	9a dc 
    5990:	40 18 c2 43 	movx.b	#0,	&0x0dc9b;r3 As==00
    5994:	9b dc 

00005996 <.L144>:
    5996:	b0 13 f4 a1 	calla	#41460		;0x0a1f4
    599a:	1c 46 14 00 	mov	20(r6),	r12	;0x00014
    599e:	1d 46 16 00 	mov	22(r6),	r13	;0x00016
    59a2:	b0 13 b0 ad 	calla	#44464		;0x0adb0
    59a6:	80 00 f6 57 	mova	#22518,	r0	;0x057f6

000059aa <.L122>:
    59aa:	88 00 50 b4 	mova	#46160,	r8	;0x0b450
    59ae:	8a 00 fe a1 	mova	#41470,	r10	;0x0a1fe
    59b2:	80 00 fc 57 	mova	#22524,	r0	;0x057fc

000059b6 <fw_allocator>:
    59b6:	0a 14       	pushm.a	#1,	r10	;20-bit words
    59b8:	2e 00 82 bb 	mova	&48002,	r14	;0x0bb82
    59bc:	ca 0e       	mova	r14,	r10	;
    59be:	ea 0c       	adda	r12,	r10	;
    59c0:	3c 40 24 04 	mov	#1060,	r12	;#0x0424
    59c4:	dc 0a       	cmpa	r10,	r12	;
    59c6:	07 28       	jnc	$+16     	;abs 0x59d6
    59c8:	cc 0e       	mova	r14,	r12	;
    59ca:	ac 00 5e b7 	adda	#46942,	r12	;0x0b75e
    59ce:	60 0a 82 bb 	mova	r10,	&48002	; 0x0bb82

000059d2 <.L1>:
    59d2:	0a 16       	popm.a	#1,	r10	;20-bit words
    59d4:	10 01       	reta			;

000059d6 <.L3>:
    59d6:	4c 43       	clr.b	r12		;
    59d8:	80 00 d2 59 	mova	#22994,	r0	;0x059d2

000059dc <reset.lto_priv.182>:
    59dc:	8e 0f fa ff 	mova	#-6,	r14	;0xfffffffa
    59e0:	80 18 5e 82 	subx.a	&0x11930,r14	;
    59e4:	30 19 
    59e6:	ec 0e       	adda	r14,	r12	;
    59e8:	b0 13 56 a4 	calla	#42070		;0x0a456
    59ec:	01 18 c2 43 	movx.a	#0,	&0x11640;r3 As==00
    59f0:	40 16 
    59f2:	c0 1f b2 40 	movx.w	#-23224,&0x00120;0xfa548
    59f6:	48 a5 20 01 
    59fa:	10 01       	reta			;

000059fc <send_complete_cb>:
    59fc:	00 18 c2 43 	movx.a	#0,	&0x0b75a;r3 As==00
    5a00:	5a b7 
    5a02:	40 18 f2 d0 	bisx.b	#3,	&0x0ddc6;
    5a06:	03 00 c6 dd 
    5a0a:	40 18 1c 42 	movx.w	&0x0dc66,r12	;
    5a0e:	66 dc 
    5a10:	4d 43       	clr.b	r13		;
    5a12:	0d 9c       	cmp	r12,	r13	;
    5a14:	06 34       	jge	$+14     	;abs 0x5a22
    5a16:	40 18 a2 d3 	bisx.w	#2,	&0x0ddc2;r3 As==10
    5a1a:	c2 dd 
    5a1c:	40 18 82 dd 	bisx.w	r13,	&0x0ddc4;
    5a20:	c4 dd 

00005a22 <.L6>:
    5a22:	2c 01 6a 18 	mova	&71786,	r12	;0x1186a
    5a26:	cc 93 04 00 	cmp.b	#0,	4(r12)	;r3 As==00
    5a2a:	04 24       	jz	$+10     	;abs 0x5a34
    5a2c:	8d 0f fe ff 	mova	#-2,	r13	;0xfffffffe
    5a30:	b0 13 a8 91 	calla	#37288		;0x091a8

00005a34 <.L5>:
    5a34:	10 01       	reta			;

00005a36 <write_failure.lto_priv.242>:
    5a36:	2d 4d       	mov	@r13,	r13	;
    5a38:	0e 4d       	mov	r13,	r14	;
    5a3a:	5e 07       	rrum	#2,	r14	;
    5a3c:	7e f0 3f 00 	and.b	#63,	r14	;#0x003f
    5a40:	cc 4e 00 00 	mov.b	r14,	0(r12)	;
    5a44:	5d f3       	and.b	#1,	r13	;r3 As==01
    5a46:	0d 93       	cmp	#0,	r13	;r3 As==00
    5a48:	12 24       	jz	$+38     	;abs 0x5a6e
    5a4a:	6e 43       	mov.b	#2,	r14	;r3 As==10

00005a4c <.L10>:
    5a4c:	cc 4e 01 00 	mov.b	r14,	1(r12)	;
    5a50:	8e 00 8c dc 	mova	#56460,	r14	;0x0dc8c
    5a54:	dc 4e 51 00 	mov.b	81(r14),2(r12)	;0x00051
    5a58:	02 00 
    5a5a:	dc 4e 50 00 	mov.b	80(r14),3(r12)	;0x00050
    5a5e:	03 00 
    5a60:	0d 93       	cmp	#0,	r13	;r3 As==00
    5a62:	04 24       	jz	$+10     	;abs 0x5a6c
    5a64:	7d 40 06 00 	mov.b	#6,	r13	;
    5a68:	b0 13 d8 9d 	calla	#40408		;0x09dd8

00005a6c <.L9>:
    5a6c:	10 01       	reta			;

00005a6e <.L12>:
    5a6e:	0e 4d       	mov	r13,	r14	;
    5a70:	80 00 4c 5a 	mova	#23116,	r0	;0x05a4c

00005a74 <write_success.lto_priv.240>:
    5a74:	0a 14       	pushm.a	#1,	r10	;20-bit words
    5a76:	2d 4d       	mov	@r13,	r13	;
    5a78:	0f 4d       	mov	r13,	r15	;
    5a7a:	5f 07       	rrum	#2,	r15	;
    5a7c:	7f f0 3f 00 	and.b	#63,	r15	;#0x003f
    5a80:	cc 4f 00 00 	mov.b	r15,	0(r12)	;
    5a84:	8a 00 8c dc 	mova	#56460,	r10	;0x0dc8c
    5a88:	dc 4a 51 00 	mov.b	81(r10),2(r12)	;0x00051
    5a8c:	02 00 
    5a8e:	dc 4a 50 00 	mov.b	80(r10),3(r12)	;0x00050
    5a92:	03 00 
    5a94:	dc 43 04 00 	mov.b	#1,	4(r12)	;r3 As==01
    5a98:	40 18 1d b3 	bitx.w	#1,	r13	;r3 As==01
    5a9c:	09 24       	jz	$+20     	;abs 0x5ab0
    5a9e:	fc 40 03 00 	mov.b	#3,	1(r12)	;
    5aa2:	01 00 
    5aa4:	7d 40 07 00 	mov.b	#7,	r13	;
    5aa8:	b0 13 d8 9d 	calla	#40408		;0x09dd8

00005aac <.L16>:
    5aac:	0a 16       	popm.a	#1,	r10	;20-bit words
    5aae:	10 01       	reta			;

00005ab0 <.L17>:
    5ab0:	dc 43 01 00 	mov.b	#1,	1(r12)	;r3 As==01
    5ab4:	80 00 ac 5a 	mova	#23212,	r0	;0x05aac

00005ab8 <elyFWGetBufferI>:
    5ab8:	8c 00 86 bb 	mova	#48006,	r12	;0x0bb86
    5abc:	b0 13 aa 90 	calla	#37034		;0x090aa
    5ac0:	9c 00 00 00 	cmpa	#0,	r12	;
    5ac4:	08 24       	jz	$+18     	;abs 0x5ad6
    5ac6:	41 18 b2 53 	addx.w	#-1,	&0x10e06;r3 As==11
    5aca:	06 0e 
    5acc:	2e 01 30 19 	mova	&71984,	r14	;0x11930
    5ad0:	ae 00 06 00 	adda	#6,	r14	;
    5ad4:	ec 0e       	adda	r14,	r12	;

00005ad6 <.L19>:
    5ad6:	10 01       	reta			;

00005ad8 <elyFWGetBuffer>:
    5ad8:	b1 00 04 00 	suba	#4,	r1	;
    5adc:	b0 13 fe a1 	calla	#41470		;0x0a1fe
    5ae0:	b0 13 b8 5a 	calla	#23224		;0x05ab8
    5ae4:	71 0c 00 00 	mova	r12,	0(r1)	;
    5ae8:	b0 13 f4 a1 	calla	#41460		;0x0a1f4
    5aec:	0c 01       	mova	@r1,	r12	;
    5aee:	a1 00 04 00 	adda	#4,	r1	;
    5af2:	10 01       	reta			;

00005af4 <get_active_bank.lto_priv.185>:
    5af4:	4a 14       	pushm.a	#5,	r10	;20-bit words
    5af6:	29 4d       	mov	@r13,	r9	;
    5af8:	17 4d 02 00 	mov	2(r13),	r7	;
    5afc:	48 49       	mov.b	r9,	r8	;
    5afe:	58 f3       	and.b	#1,	r8	;r3 As==01
    5b00:	06 49       	mov	r9,	r6	;
    5b02:	56 07       	rrum	#2,	r6	;
    5b04:	76 f0 3f 00 	and.b	#63,	r6	;#0x003f
    5b08:	8e 0f fa ff 	mova	#-6,	r14	;0xfffffffa
    5b0c:	80 18 5e 82 	subx.a	&0x11930,r14	;
    5b10:	30 19 
    5b12:	ec 0e       	adda	r14,	r12	;
    5b14:	b0 13 56 a4 	calla	#42070		;0x0a456
    5b18:	39 f0 ff 00 	and	#255,	r9	;#0x00ff
    5b1c:	40 18 29 b3 	bitx.w	#2,	r9	;r3 As==10
    5b20:	22 24       	jz	$+70     	;abs 0x5b66
    5b22:	b0 13 d8 5a 	calla	#23256		;0x05ad8
    5b26:	ca 0c       	mova	r12,	r10	;
    5b28:	9c 00 00 00 	cmpa	#0,	r12	;
    5b2c:	1c 24       	jz	$+58     	;abs 0x5b66
    5b2e:	cc 46 00 00 	mov.b	r6,	0(r12)	;
    5b32:	48 58       	rla.b	r8		;
    5b34:	58 53       	inc.b	r8		;
    5b36:	cc 48 01 00 	mov.b	r8,	1(r12)	;
    5b3a:	8e 00 8c dc 	mova	#56460,	r14	;0x0dc8c
    5b3e:	dc 4e 51 00 	mov.b	81(r14),2(r12)	;0x00051
    5b42:	02 00 
    5b44:	dc 4e 50 00 	mov.b	80(r14),3(r12)	;0x00050
    5b48:	03 00 
    5b4a:	dc 4e 69 00 	mov.b	105(r14),4(r12)	;0x00069
    5b4e:	04 00 
    5b50:	40 18 19 b3 	bitx.w	#1,	r9	;r3 As==01
    5b54:	04 24       	jz	$+10     	;abs 0x5b5e
    5b56:	7d 40 07 00 	mov.b	#7,	r13	;
    5b5a:	b0 13 d8 9d 	calla	#40408		;0x09dd8

00005b5e <.L29>:
    5b5e:	0d 47       	mov	r7,	r13	;
    5b60:	cc 0a       	mova	r10,	r12	;
    5b62:	b0 13 74 7c 	calla	#31860		;0x07c74

00005b66 <.L25>:
    5b66:	46 16       	popm.a	#5,	r10	;20-bit words
    5b68:	10 01       	reta			;

00005b6a <get_gpo.lto_priv.183>:
    5b6a:	4a 14       	pushm.a	#5,	r10	;20-bit words
    5b6c:	29 4d       	mov	@r13,	r9	;
    5b6e:	17 4d 02 00 	mov	2(r13),	r7	;
    5b72:	48 49       	mov.b	r9,	r8	;
    5b74:	58 f3       	and.b	#1,	r8	;r3 As==01
    5b76:	06 49       	mov	r9,	r6	;
    5b78:	56 07       	rrum	#2,	r6	;
    5b7a:	76 f0 3f 00 	and.b	#63,	r6	;#0x003f
    5b7e:	8e 0f fa ff 	mova	#-6,	r14	;0xfffffffa
    5b82:	80 18 5e 82 	subx.a	&0x11930,r14	;
    5b86:	30 19 
    5b88:	ec 0e       	adda	r14,	r12	;
    5b8a:	b0 13 56 a4 	calla	#42070		;0x0a456
    5b8e:	39 f0 ff 00 	and	#255,	r9	;#0x00ff
    5b92:	40 18 29 b3 	bitx.w	#2,	r9	;r3 As==10
    5b96:	22 24       	jz	$+70     	;abs 0x5bdc
    5b98:	b0 13 d8 5a 	calla	#23256		;0x05ad8
    5b9c:	ca 0c       	mova	r12,	r10	;
    5b9e:	9c 00 00 00 	cmpa	#0,	r12	;
    5ba2:	1c 24       	jz	$+58     	;abs 0x5bdc
    5ba4:	cc 46 00 00 	mov.b	r6,	0(r12)	;
    5ba8:	48 58       	rla.b	r8		;
    5baa:	58 53       	inc.b	r8		;
    5bac:	cc 48 01 00 	mov.b	r8,	1(r12)	;
    5bb0:	8e 00 8c dc 	mova	#56460,	r14	;0x0dc8c
    5bb4:	dc 4e 51 00 	mov.b	81(r14),2(r12)	;0x00051
    5bb8:	02 00 
    5bba:	dc 4e 50 00 	mov.b	80(r14),3(r12)	;0x00050
    5bbe:	03 00 
    5bc0:	dc 4e 61 00 	mov.b	97(r14),4(r12)	;0x00061
    5bc4:	04 00 
    5bc6:	40 18 19 b3 	bitx.w	#1,	r9	;r3 As==01
    5bca:	04 24       	jz	$+10     	;abs 0x5bd4
    5bcc:	7d 40 07 00 	mov.b	#7,	r13	;
    5bd0:	b0 13 d8 9d 	calla	#40408		;0x09dd8

00005bd4 <.L40>:
    5bd4:	0d 47       	mov	r7,	r13	;
    5bd6:	cc 0a       	mova	r10,	r12	;
    5bd8:	b0 13 74 7c 	calla	#31860		;0x07c74

00005bdc <.L36>:
    5bdc:	46 16       	popm.a	#5,	r10	;20-bit words
    5bde:	10 01       	reta			;

00005be0 <get_u32.lto_priv.247>:
    5be0:	6a 14       	pushm.a	#7,	r10	;20-bit words
    5be2:	b1 00 0c 00 	suba	#12,	r1	;0x0000c
    5be6:	46 4c       	mov.b	r12,	r6	;
    5be8:	2c 4d       	mov	@r13,	r12	;
    5bea:	91 4d 02 00 	mov	2(r13),	10(r1)	; 0x000a
    5bee:	0a 00 
    5bf0:	81 4e 04 00 	mov	r14,	4(r1)	;
    5bf4:	05 4f       	mov	r15,	r5	;
    5bf6:	91 41 2c 00 	mov	44(r1),	6(r1)	;0x0002c
    5bfa:	06 00 
    5bfc:	17 41 2e 00 	mov	46(r1),	r7	;0x0002e
    5c00:	08 4c       	mov	r12,	r8	;
    5c02:	58 07       	rrum	#2,	r8	;
    5c04:	78 f0 3f 00 	and.b	#63,	r8	;#0x003f
    5c08:	3c f0 ff 00 	and	#255,	r12	;#0x00ff
    5c0c:	81 4c 08 00 	mov	r12,	8(r1)	;
    5c10:	40 18 2c b3 	bitx.w	#2,	r12	;r3 As==10
    5c14:	6d 24       	jz	$+220    	;abs 0x5cf0
    5c16:	b0 13 d8 5a 	calla	#23256		;0x05ad8
    5c1a:	ca 0c       	mova	r12,	r10	;
    5c1c:	9c 00 00 00 	cmpa	#0,	r12	;
    5c20:	67 24       	jz	$+208    	;abs 0x5cf0
    5c22:	cc 48 00 00 	mov.b	r8,	0(r12)	;
    5c26:	8c 00 8c dc 	mova	#56460,	r12	;0x0dc8c
    5c2a:	da 4c 51 00 	mov.b	81(r12),2(r10)	;0x00051
    5c2e:	02 00 
    5c30:	da 4c 50 00 	mov.b	80(r12),3(r10)	;0x00050
    5c34:	03 00 
    5c36:	40 18 06 46 	movx.w	r6,	r6	;
    5c3a:	e6 0c       	adda	r12,	r6	;
    5c3c:	cb 06       	mova	r6,	r11	;
    5c3e:	44 43       	clr.b	r4		;
    5c40:	09 44       	mov	r4,	r9	;
    5c42:	08 44       	mov	r4,	r8	;

00005c44 <.L51>:
    5c44:	6c 4b       	mov.b	@r11,	r12	;
    5c46:	0d 43       	clr	r13		;
    5c48:	0e 44       	mov	r4,	r14	;
    5c4a:	0f 43       	clr	r15		;
    5c4c:	71 0b 00 00 	mova	r11,	0(r1)	;
    5c50:	b0 13 7e b3 	calla	#45950		;0x0b37e
    5c54:	0c d9       	bis	r9,	r12	;
    5c56:	0d d8       	bis	r8,	r13	;
    5c58:	09 4c       	mov	r12,	r9	;
    5c5a:	08 4d       	mov	r13,	r8	;
    5c5c:	0b 01       	mova	@r1,	r11	;
    5c5e:	ab 00 01 00 	adda	#1,	r11	;
    5c62:	34 52       	add	#8,	r4	;r2 As==11
    5c64:	34 90 20 00 	cmp	#32,	r4	;#0x0020
    5c68:	ed 23       	jnz	$-36     	;abs 0x5c44
    5c6a:	05 9d       	cmp	r13,	r5	;
    5c6c:	05 28       	jnc	$+12     	;abs 0x5c78
    5c6e:	0d 95       	cmp	r5,	r13	;
    5c70:	43 20       	jnz	$+136    	;abs 0x5cf8
    5c72:	81 9c 04 00 	cmp	r12,	4(r1)	;
    5c76:	40 2c       	jc	$+130    	;abs 0x5cf8

00005c78 <.L60>:
    5c78:	49 43       	clr.b	r9		;

00005c7a <.L54>:
    5c7a:	1c 41 04 00 	mov	4(r1),	r12	;
    5c7e:	0d 45       	mov	r5,	r13	;
    5c80:	0e 49       	mov	r9,	r14	;
    5c82:	0f 43       	clr	r15		;
    5c84:	b0 13 32 b4 	calla	#46130		;0x0b432
    5c88:	c6 4c 00 00 	mov.b	r12,	0(r6)	;
    5c8c:	39 52       	add	#8,	r9	;r2 As==11
    5c8e:	a6 00 01 00 	adda	#1,	r6	;
    5c92:	39 90 20 00 	cmp	#32,	r9	;#0x0020
    5c96:	f1 23       	jnz	$-28     	;abs 0x5c7a
    5c98:	19 41 04 00 	mov	4(r1),	r9	;
    5c9c:	08 45       	mov	r5,	r8	;

00005c9e <.L55>:
    5c9e:	0c 49       	mov	r9,	r12	;
    5ca0:	0d 48       	mov	r8,	r13	;
    5ca2:	7e 40 18 00 	mov.b	#24,	r14	;#0x0018
    5ca6:	b0 13 32 b4 	calla	#46130		;0x0b432
    5caa:	ca 4c 04 00 	mov.b	r12,	4(r10)	;
    5cae:	0c 49       	mov	r9,	r12	;
    5cb0:	0d 48       	mov	r8,	r13	;
    5cb2:	7e 40 10 00 	mov.b	#16,	r14	;#0x0010
    5cb6:	b0 13 32 b4 	calla	#46130		;0x0b432
    5cba:	ca 4c 05 00 	mov.b	r12,	5(r10)	;
    5cbe:	0c 49       	mov	r9,	r12	;
    5cc0:	0d 48       	mov	r8,	r13	;
    5cc2:	b0 13 f8 b3 	calla	#46072		;0x0b3f8
    5cc6:	ca 4c 06 00 	mov.b	r12,	6(r10)	;
    5cca:	ca 49 07 00 	mov.b	r9,	7(r10)	;
    5cce:	40 18 91 b3 	bitx.w	#1,	8(r1)	;r3 As==01
    5cd2:	08 00 
    5cd4:	2d 24       	jz	$+92     	;abs 0x5d30
    5cd6:	fa 40 06 00 	mov.b	#6,	1(r10)	;
    5cda:	01 00 
    5cdc:	7d 40 0a 00 	mov.b	#10,	r13	;#0x000a
    5ce0:	cc 0a       	mova	r10,	r12	;
    5ce2:	b0 13 d8 9d 	calla	#40408		;0x09dd8

00005ce6 <.L59>:
    5ce6:	1d 41 0a 00 	mov	10(r1),	r13	;0x0000a
    5cea:	cc 0a       	mova	r10,	r12	;
    5cec:	b0 13 74 7c 	calla	#31860		;0x07c74

00005cf0 <.L47>:
    5cf0:	a1 00 0c 00 	adda	#12,	r1	;0x0000c
    5cf4:	64 16       	popm.a	#7,	r10	;20-bit words
    5cf6:	10 01       	reta			;

00005cf8 <.L52>:
    5cf8:	0d 97       	cmp	r7,	r13	;
    5cfa:	05 28       	jnc	$+12     	;abs 0x5d06
    5cfc:	07 9d       	cmp	r13,	r7	;
    5cfe:	cf 23       	jnz	$-96     	;abs 0x5c9e
    5d00:	1c 91 06 00 	cmp	6(r1),	r12	;
    5d04:	cc 2f       	jc	$-102    	;abs 0x5c9e

00005d06 <.L61>:
    5d06:	49 43       	clr.b	r9		;

00005d08 <.L57>:
    5d08:	1c 41 06 00 	mov	6(r1),	r12	;
    5d0c:	0d 47       	mov	r7,	r13	;
    5d0e:	0e 49       	mov	r9,	r14	;
    5d10:	0f 43       	clr	r15		;
    5d12:	b0 13 32 b4 	calla	#46130		;0x0b432
    5d16:	c6 4c 00 00 	mov.b	r12,	0(r6)	;
    5d1a:	39 52       	add	#8,	r9	;r2 As==11
    5d1c:	a6 00 01 00 	adda	#1,	r6	;
    5d20:	39 90 20 00 	cmp	#32,	r9	;#0x0020
    5d24:	f1 23       	jnz	$-28     	;abs 0x5d08
    5d26:	19 41 06 00 	mov	6(r1),	r9	;
    5d2a:	08 47       	mov	r7,	r8	;
    5d2c:	80 00 9e 5c 	mova	#23710,	r0	;0x05c9e

00005d30 <.L58>:
    5d30:	ea 42 01 00 	mov.b	#4,	1(r10)	;r2 As==10
    5d34:	80 00 e6 5c 	mova	#23782,	r0	;0x05ce6

00005d38 <gen_failure.lto_priv.243>:
    5d38:	2a 14       	pushm.a	#3,	r10	;20-bit words
    5d3a:	b1 00 04 00 	suba	#4,	r1	;
    5d3e:	28 4c       	mov	@r12,	r8	;
    5d40:	19 4c 02 00 	mov	2(r12),	r9	;
    5d44:	b0 13 d8 5a 	calla	#23256		;0x05ad8
    5d48:	ca 0c       	mova	r12,	r10	;
    5d4a:	9c 00 00 00 	cmpa	#0,	r12	;
    5d4e:	0b 24       	jz	$+24     	;abs 0x5d66
    5d50:	81 48 00 00 	mov	r8,	0(r1)	;
    5d54:	81 49 02 00 	mov	r9,	2(r1)	;
    5d58:	cd 01       	mova	r1,	r13	;
    5d5a:	b0 13 36 5a 	calla	#23094		;0x05a36
    5d5e:	0d 49       	mov	r9,	r13	;
    5d60:	cc 0a       	mova	r10,	r12	;
    5d62:	b0 13 74 7c 	calla	#31860		;0x07c74

00005d66 <.L68>:
    5d66:	a1 00 04 00 	adda	#4,	r1	;
    5d6a:	28 16       	popm.a	#3,	r10	;20-bit words
    5d6c:	10 01       	reta			;

00005d6e <gen_success.lto_priv.239>:
    5d6e:	2a 14       	pushm.a	#3,	r10	;20-bit words
    5d70:	b1 00 04 00 	suba	#4,	r1	;
    5d74:	28 4c       	mov	@r12,	r8	;
    5d76:	19 4c 02 00 	mov	2(r12),	r9	;
    5d7a:	b0 13 d8 5a 	calla	#23256		;0x05ad8
    5d7e:	ca 0c       	mova	r12,	r10	;
    5d80:	9c 00 00 00 	cmpa	#0,	r12	;
    5d84:	0b 24       	jz	$+24     	;abs 0x5d9c
    5d86:	81 48 00 00 	mov	r8,	0(r1)	;
    5d8a:	81 49 02 00 	mov	r9,	2(r1)	;
    5d8e:	cd 01       	mova	r1,	r13	;
    5d90:	b0 13 74 5a 	calla	#23156		;0x05a74
    5d94:	0d 49       	mov	r9,	r13	;
    5d96:	cc 0a       	mova	r10,	r12	;
    5d98:	b0 13 74 7c 	calla	#31860		;0x07c74

00005d9c <.L73>:
    5d9c:	a1 00 04 00 	adda	#4,	r1	;
    5da0:	28 16       	popm.a	#3,	r10	;20-bit words
    5da2:	10 01       	reta			;

00005da4 <set_gpo.lto_priv.184>:
    5da4:	3a 14       	pushm.a	#4,	r10	;20-bit words
    5da6:	b1 00 04 00 	suba	#4,	r1	;
    5daa:	2a 4d       	mov	@r13,	r10	;
    5dac:	18 4d 02 00 	mov	2(r13),	r8	;
    5db0:	49 4a       	mov.b	r10,	r9	;
    5db2:	69 f3       	and.b	#2,	r9	;r3 As==10
    5db4:	39 f0 ff 00 	and	#255,	r9	;#0x00ff
    5db8:	09 93       	cmp	#0,	r9	;r3 As==00
    5dba:	1b 20       	jnz	$+56     	;abs 0x5df2
    5dbc:	6e 43       	mov.b	#2,	r14	;r3 As==10

00005dbe <.L79>:
    5dbe:	ee 0c       	adda	r12,	r14	;
    5dc0:	67 4e       	mov.b	@r14,	r7	;
    5dc2:	8e 0f fa ff 	mova	#-6,	r14	;0xfffffffa
    5dc6:	80 18 5e 82 	subx.a	&0x11930,r14	;
    5dca:	30 19 
    5dcc:	ec 0e       	adda	r14,	r12	;
    5dce:	b0 13 56 a4 	calla	#42070		;0x0a456
    5dd2:	5c 43       	mov.b	#1,	r12	;r3 As==01
    5dd4:	4c 97       	cmp.b	r7,	r12	;
    5dd6:	10 2c       	jc	$+34     	;abs 0x5df8
    5dd8:	09 93       	cmp	#0,	r9	;r3 As==00
    5dda:	07 24       	jz	$+16     	;abs 0x5dea
    5ddc:	81 4a 00 00 	mov	r10,	0(r1)	;
    5de0:	81 48 02 00 	mov	r8,	2(r1)	;
    5de4:	cc 01       	mova	r1,	r12	;
    5de6:	b0 13 38 5d 	calla	#23864		;0x05d38

00005dea <.L78>:
    5dea:	a1 00 04 00 	adda	#4,	r1	;
    5dee:	37 16       	popm.a	#4,	r10	;20-bit words
    5df0:	10 01       	reta			;

00005df2 <.L85>:
    5df2:	6e 42       	mov.b	#4,	r14	;r2 As==10
    5df4:	80 00 be 5d 	mova	#23998,	r0	;0x05dbe

00005df8 <.L80>:
    5df8:	40 18 c2 97 	cmpx.b	r7,	&0x0dced;
    5dfc:	ed dc 
    5dfe:	11 24       	jz	$+36     	;abs 0x5e22
    5e00:	0c 47       	mov	r7,	r12	;
    5e02:	4c 18 0c 5c 	rpt #13 { rlax.w	r12		;
    5e06:	3c f0 00 20 	and	#8192,	r12	;#0x2000
    5e0a:	40 18 1d 42 	movx.w	&0x00222,r13	;
    5e0e:	22 02 
    5e10:	3d f0 ff df 	and	#57343,	r13	;#0xdfff
    5e14:	0c dd       	bis	r13,	r12	;
    5e16:	40 18 82 4c 	movx.w	r12,	&0x00222;
    5e1a:	22 02 
    5e1c:	40 18 c2 47 	movx.b	r7,	&0x0dced;
    5e20:	ed dc 

00005e22 <.L83>:
    5e22:	09 93       	cmp	#0,	r9	;r3 As==00
    5e24:	e2 27       	jz	$-58     	;abs 0x5dea
    5e26:	81 4a 00 00 	mov	r10,	0(r1)	;
    5e2a:	81 48 02 00 	mov	r8,	2(r1)	;
    5e2e:	cc 01       	mova	r1,	r12	;
    5e30:	b0 13 6e 5d 	calla	#23918		;0x05d6e
    5e34:	80 00 ea 5d 	mova	#24042,	r0	;0x05dea

00005e38 <set_u32.lto_priv.246>:
    5e38:	b1 00 02 00 	suba	#2,	r1	;
    5e3c:	00 18 d1 41 	movx.a	2(r1),	0(r1)	;
    5e40:	02 00 00 00 
    5e44:	6a 14       	pushm.a	#7,	r10	;20-bit words
    5e46:	b1 00 14 00 	suba	#20,	r1	;0x00014
    5e4a:	3c f0 ff 00 	and	#255,	r12	;#0x00ff
    5e4e:	81 4c 0a 00 	mov	r12,	10(r1)	; 0x000a
    5e52:	2a 4e       	mov	@r14,	r10	;
    5e54:	1c 4e 02 00 	mov	2(r14),	r12	;
    5e58:	81 4f 34 00 	mov	r15,	52(r1)	; 0x0034
    5e5c:	81 4f 0c 00 	mov	r15,	12(r1)	; 0x000c
    5e60:	1b 41 36 00 	mov	54(r1),	r11	;0x00036
    5e64:	91 41 38 00 	mov	56(r1),	14(r1)	;0x00038, 0x000e
    5e68:	0e 00 
    5e6a:	15 41 3a 00 	mov	58(r1),	r5	;0x0003a
    5e6e:	81 4c 08 00 	mov	r12,	8(r1)	;
    5e72:	49 4a       	mov.b	r10,	r9	;
    5e74:	69 f3       	and.b	#2,	r9	;r3 As==10
    5e76:	39 f0 ff 00 	and	#255,	r9	;#0x00ff
    5e7a:	09 93       	cmp	#0,	r9	;r3 As==00
    5e7c:	44 20       	jnz	$+138    	;abs 0x5f06
    5e7e:	6c 43       	mov.b	#2,	r12	;r3 As==10

00005e80 <.L90>:
    5e80:	40 18 04 4c 	movx.w	r12,	r4	;
    5e84:	e4 0d       	adda	r13,	r4	;
    5e86:	71 04 04 00 	mova	r4,	4(r1)	;
    5e8a:	76 40 18 00 	mov.b	#24,	r6	;#0x0018
    5e8e:	48 43       	clr.b	r8		;
    5e90:	07 48       	mov	r8,	r7	;

00005e92 <.L91>:
    5e92:	3e 01 04 00 	mova	4(r1),	r14	;
    5e96:	6c 4e       	mov.b	@r14,	r12	;
    5e98:	0d 43       	clr	r13		;
    5e9a:	0e 46       	mov	r6,	r14	;
    5e9c:	0f 43       	clr	r15		;
    5e9e:	71 0b 00 00 	mova	r11,	0(r1)	;
    5ea2:	b0 13 7e b3 	calla	#45950		;0x0b37e
    5ea6:	0c d8       	bis	r8,	r12	;
    5ea8:	0d d7       	bis	r7,	r13	;
    5eaa:	08 4c       	mov	r12,	r8	;
    5eac:	07 4d       	mov	r13,	r7	;
    5eae:	00 18 d1 53 	incx.a	4(r1)		;
    5eb2:	04 00 
    5eb4:	36 50 f8 ff 	add	#65528,	r6	;#0xfff8
    5eb8:	0b 01       	mova	@r1,	r11	;
    5eba:	36 90 f8 ff 	cmp	#65528,	r6	;#0xfff8
    5ebe:	e9 23       	jnz	$-44     	;abs 0x5e92
    5ec0:	0b 9d       	cmp	r13,	r11	;
    5ec2:	0c 28       	jnc	$+26     	;abs 0x5edc
    5ec4:	0d 9b       	cmp	r11,	r13	;
    5ec6:	03 20       	jnz	$+8      	;abs 0x5ece
    5ec8:	81 9c 0c 00 	cmp	r12,	12(r1)	; 0x000c
    5ecc:	07 28       	jnc	$+16     	;abs 0x5edc

00005ece <.L100>:
    5ece:	0d 95       	cmp	r5,	r13	;
    5ed0:	05 28       	jnc	$+12     	;abs 0x5edc
    5ed2:	05 9d       	cmp	r13,	r5	;
    5ed4:	1b 20       	jnz	$+56     	;abs 0x5f0c
    5ed6:	1c 91 0e 00 	cmp	14(r1),	r12	;0x0000e
    5eda:	18 2c       	jc	$+50     	;abs 0x5f0c

00005edc <.L92>:
    5edc:	09 93       	cmp	#0,	r9	;r3 As==00
    5ede:	0a 24       	jz	$+22     	;abs 0x5ef4
    5ee0:	81 4a 10 00 	mov	r10,	16(r1)	; 0x0010
    5ee4:	91 41 08 00 	mov	8(r1),	18(r1)	; 0x0012
    5ee8:	12 00 
    5eea:	cc 01       	mova	r1,	r12	;
    5eec:	ac 00 10 00 	adda	#16,	r12	;0x00010
    5ef0:	b0 13 38 5d 	calla	#23864		;0x05d38

00005ef4 <.L89>:
    5ef4:	a1 00 14 00 	adda	#20,	r1	;0x00014
    5ef8:	64 16       	popm.a	#7,	r10	;20-bit words
    5efa:	00 18 e1 41 	movx.a	@r1,	2(r1)	;
    5efe:	02 00 
    5f00:	a1 00 02 00 	adda	#2,	r1	;
    5f04:	10 01       	reta			;

00005f06 <.L99>:
    5f06:	6c 42       	mov.b	#4,	r12	;r2 As==10
    5f08:	80 00 80 5e 	mova	#24192,	r0	;0x05e80

00005f0c <.L94>:
    5f0c:	40 18 1c 41 	movx.w	10(r1),	r12	;0x0000a
    5f10:	0a 00 
    5f12:	40 18 ec 44 	movx.b	@r4,	-9073(r12); 0xfdc8f
    5f16:	8f dc 
    5f18:	40 18 dc 44 	movx.b	1(r4),	-9074(r12); 0xfdc8e
    5f1c:	01 00 8e dc 
    5f20:	40 18 dc 44 	movx.b	2(r4),	-9075(r12); 0xfdc8d
    5f24:	02 00 8d dc 
    5f28:	40 18 dc 44 	movx.b	3(r4),	-9076(r12); 0xfdc8c
    5f2c:	03 00 8c dc 
    5f30:	09 93       	cmp	#0,	r9	;r3 As==00
    5f32:	e0 27       	jz	$-62     	;abs 0x5ef4
    5f34:	81 4a 10 00 	mov	r10,	16(r1)	; 0x0010
    5f38:	91 41 08 00 	mov	8(r1),	18(r1)	; 0x0012
    5f3c:	12 00 
    5f3e:	cc 01       	mova	r1,	r12	;
    5f40:	ac 00 10 00 	adda	#16,	r12	;0x00010
    5f44:	b0 13 6e 5d 	calla	#23918		;0x05d6e
    5f48:	80 00 f4 5e 	mova	#24308,	r0	;0x05ef4

00005f4c <elyFWFreeBufferI>:
    5f4c:	9c 00 00 00 	cmpa	#0,	r12	;
    5f50:	08 20       	jnz	$+18     	;abs 0x5f62
    5f52:	b0 13 fe a1 	calla	#41470		;0x0a1fe
    5f56:	81 18 f2 40 	movx.a	#66769,	&0x11a36;0x104d1
    5f5a:	d1 04 36 1a 

00005f5e <.L107>:
    5f5e:	80 00 5e 5f 	mova	#24414,	r0	;0x05f5e

00005f62 <.L106>:
    5f62:	8e 00 86 bb 	mova	#48006,	r14	;0x0bb86
    5f66:	00 18 ec 4e 	movx.a	@r14,	0(r12)	;
    5f6a:	00 00 
    5f6c:	7e 0c 00 00 	mova	r12,	0(r14)	;
    5f70:	8c 01 06 0e 	mova	#69126,	r12	;0x10e06
    5f74:	b0 13 82 92 	calla	#37506		;0x09282
    5f78:	10 01       	reta			;

00005f7a <elyFWFreeBuffer>:
    5f7a:	b1 00 04 00 	suba	#4,	r1	;
    5f7e:	71 0c 00 00 	mova	r12,	0(r1)	;
    5f82:	b0 13 fe a1 	calla	#41470		;0x0a1fe
    5f86:	0c 01       	mova	@r1,	r12	;
    5f88:	b0 13 4c 5f 	calla	#24396		;0x05f4c
    5f8c:	b0 13 d4 8d 	calla	#36308		;0x08dd4
    5f90:	b0 13 f4 a1 	calla	#41460		;0x0a1f4
    5f94:	a1 00 04 00 	adda	#4,	r1	;
    5f98:	10 01       	reta			;

00005f9a <UARTThd>:
    5f9a:	6a 14       	pushm.a	#7,	r10	;20-bit words
    5f9c:	b1 00 0c 00 	suba	#12,	r1	;0x0000c
    5fa0:	8a 01 2c 1a 	mova	#72236,	r10	;0x11a2c
    5fa4:	01 18 e2 4a 	movx.a	@r10,	&0x1186a;
    5fa8:	6a 18 
    5faa:	40 18 f2 40 	movx.b	#7,	&0x0ddc6;
    5fae:	07 00 c6 dd 
    5fb2:	88 00 fe a1 	mova	#41470,	r8	;0x0a1fe
    5fb6:	48 13       	calla	r8		;
    5fb8:	00 18 c2 93 	cmpx.a	#0,	&0x0b75a;r3 As==00
    5fbc:	5a b7 
    5fbe:	06 20       	jnz	$+14     	;abs 0x5fcc
    5fc0:	40 18 1c 42 	movx.w	&0x0dc66,r12	;
    5fc4:	66 dc 
    5fc6:	48 43       	clr.b	r8		;
    5fc8:	08 9c       	cmp	r12,	r8	;
    5fca:	06 34       	jge	$+14     	;abs 0x5fd8

00005fcc <.L110>:
    5fcc:	40 18 a2 d3 	bisx.w	#2,	&0x0ddc2;r3 As==10
    5fd0:	c2 dd 
    5fd2:	40 18 82 d3 	bisx.w	#0,	&0x0ddc4;r3 As==00
    5fd6:	c4 dd 

00005fd8 <.L111>:
    5fd8:	b0 13 f4 a1 	calla	#41460		;0x0a1f4
    5fdc:	40 18 92 d3 	bisx.w	#1,	&0x0ddc2;r3 As==01
    5fe0:	c2 dd 
    5fe2:	40 18 82 d3 	bisx.w	#0,	&0x0ddc4;r3 As==00
    5fe6:	c4 dd 
    5fe8:	b0 13 fe a1 	calla	#41470		;0x0a1fe
    5fec:	8c 01 22 1a 	mova	#72226,	r12	;0x11a22
    5ff0:	6d 4c       	mov.b	@r12,	r13	;
    5ff2:	7d 53       	add.b	#-1,	r13	;r3 As==11
    5ff4:	59 43       	mov.b	#1,	r9	;r3 As==01
    5ff6:	49 9d       	cmp.b	r13,	r9	;
    5ff8:	08 2c       	jc	$+18     	;abs 0x600a
    5ffa:	b0 13 fe a1 	calla	#41470		;0x0a1fe
    5ffe:	81 18 f2 40 	movx.a	#65784,	&0x11a36;0x100f8
    6002:	f8 00 36 1a 

00006006 <.L113>:
    6006:	80 00 06 60 	mova	#24582,	r0	;0x06006

0000600a <.L112>:
    600a:	81 18 f2 40 	movx.a	#65852,	&0x11a24;0x1013c
    600e:	3c 01 24 1a 
    6012:	3c 0c 06 00 	mova	6(r12),	r12	;
    6016:	bc 40 44 01 	mov	#324,	0(r12)	;#0x0144
    601a:	00 00 
    601c:	ac 42 20 00 	mov	#4,	32(r12)	;r2 As==10, 0x0020
    6020:	41 18 e2 43 	movx.b	#2,	&0x11a22;r3 As==10
    6024:	22 1a 
    6026:	b0 13 f4 a1 	calla	#41460		;0x0a1f4
    602a:	01 18 e2 4a 	movx.a	@r10,	&0x1165c;
    602e:	5c 16 

00006030 <.L114>:
    6030:	40 18 d2 b3 	bitx.b	#1,	&0x0ddc2;r3 As==01
    6034:	c2 dd 
    6036:	41 25       	jz	$+644    	;abs 0x62ba
    6038:	b0 13 fe a1 	calla	#41470		;0x0a1fe
    603c:	8e 00 8c dc 	mova	#56460,	r14	;0x0dc8c
    6040:	5c 4e 26 00 	mov.b	38(r14),r12	;0x00026
    6044:	4a 4c       	mov.b	r12,	r10	;
    6046:	7a f0 03 00 	and.b	#3,	r10	;
    604a:	88 00 58 b7 	mova	#46936,	r8	;0x0b758
    604e:	6d 48       	mov.b	@r8,	r13	;
    6050:	7d f0 ec ff 	and.b	#65516,	r13	;#0xffec
    6054:	0f 4c       	mov	r12,	r15	;
    6056:	5f 07       	rrum	#2,	r15	;
    6058:	5f f3       	and.b	#1,	r15	;r3 As==01
    605a:	43 18 0f 5f 	rpt #4 { rlax.w	r15		;
    605e:	4d da       	bis.b	r10,	r13	;
    6060:	4f dd       	bis.b	r13,	r15	;
    6062:	5c 0b       	rrum	#3,	r12	;
    6064:	5c f3       	and.b	#1,	r12	;r3 As==01
    6066:	44 18 0c 5c 	rpt #5 { rlax.w	r12		;
    606a:	7f f0 df ff 	and.b	#65503,	r15	;#0xffdf
    606e:	4f dc       	bis.b	r12,	r15	;
    6070:	c8 4f 00 00 	mov.b	r15,	0(r8)	;
    6074:	8a 00 40 b7 	mova	#46912,	r10	;0x0b740
    6078:	5d 4e 23 00 	mov.b	35(r14),r13	;0x00023
    607c:	47 18 0d 5d 	rpt #8 { rlax.w	r13		;
    6080:	5c 4e 25 00 	mov.b	37(r14),r12	;0x00025
    6084:	47 18 0c 5c 	rpt #8 { rlax.w	r12		;
    6088:	59 4e 24 00 	mov.b	36(r14),r9	;0x00024
    608c:	0c d9       	bis	r9,	r12	;
    608e:	5e 4e 22 00 	mov.b	34(r14),r14	;0x00022
    6092:	0e dd       	bis	r13,	r14	;
    6094:	8a 4e 14 00 	mov	r14,	20(r10)	; 0x0014
    6098:	8a 4c 16 00 	mov	r12,	22(r10)	; 0x0016
    609c:	b0 13 f4 a1 	calla	#41460		;0x0a1f4
    60a0:	b0 13 fe a1 	calla	#41470		;0x0a1fe
    60a4:	86 01 cc 18 	mova	#71884,	r6	;0x118cc
    60a8:	6c 46       	mov.b	@r6,	r12	;
    60aa:	4d 4c       	mov.b	r12,	r13	;
    60ac:	7d 53       	add.b	#-1,	r13	;r3 As==11
    60ae:	5e 43       	mov.b	#1,	r14	;r3 As==01
    60b0:	4e 9d       	cmp.b	r13,	r14	;
    60b2:	08 2c       	jc	$+18     	;abs 0x60c4
    60b4:	b0 13 fe a1 	calla	#41470		;0x0a1fe
    60b8:	81 18 f2 40 	movx.a	#65808,	&0x11a36;0x10110
    60bc:	10 01 36 1a 

000060c0 <.L118>:
    60c0:	80 00 c0 60 	mova	#24768,	r0	;0x060c0

000060c4 <.L117>:
    60c4:	76 0a 04 00 	mova	r10,	4(r6)	;
    60c8:	1c 93       	cmp	#1,	r12	;r3 As==01
    60ca:	16 24       	jz	$+46     	;abs 0x60f8
    60cc:	3c 06 16 00 	mova	22(r6),	r12	;0x00016

000060d0 <.L121>:
    60d0:	40 18 ac b3 	bitx.w	#2,	28(r12)	;r3 As==10, 0x0001c
    60d4:	1c 00 
    60d6:	fc 27       	jz	$-6      	;abs 0x60d0
    60d8:	41 18 c2 93 	cmpx.b	#0,	&0x1192e;r3 As==00
    60dc:	2e 19 
    60de:	04 24       	jz	$+10     	;abs 0x60e8
    60e0:	8c 01 1a 19 	mova	#71962,	r12	;0x1191a
    60e4:	b0 13 fc 94 	calla	#38140		;0x094fc

000060e8 <.L122>:
    60e8:	41 18 c2 93 	cmpx.b	#0,	&0x1192f;r3 As==00
    60ec:	2f 19 
    60ee:	04 24       	jz	$+10     	;abs 0x60f8
    60f0:	8c 01 24 19 	mova	#71972,	r12	;0x11924
    60f4:	b0 13 fc 94 	calla	#38140		;0x094fc

000060f8 <.L120>:
    60f8:	34 06 16 00 	mova	22(r6),	r4	;0x00016
    60fc:	94 d3 00 00 	bis	#1,	0(r4)	;r3 As==01
    6100:	91 46 12 00 	mov	18(r6),	8(r1)	;0x00012
    6104:	08 00 
    6106:	91 46 14 00 	mov	20(r6),	10(r1)	;0x00014, 0x000a
    610a:	0a 00 
    610c:	3a 06 04 00 	mova	4(r6),	r10	;
    6110:	91 4a 14 00 	mov	20(r10),0(r1)	;0x00014
    6114:	00 00 
    6116:	91 4a 16 00 	mov	22(r10),2(r1)	;0x00016
    611a:	02 00 
    611c:	8b 00 fe b2 	mova	#45822,	r11	;0x0b2fe
    6120:	2e 41       	mov	@r1,	r14	;
    6122:	1f 41 02 00 	mov	2(r1),	r15	;
    6126:	1c 41 08 00 	mov	8(r1),	r12	;
    612a:	1d 41 0a 00 	mov	10(r1),	r13	;0x0000a
    612e:	71 0b 04 00 	mova	r11,	4(r1)	;
    6132:	4b 13       	calla	r11		;
    6134:	05 4c       	mov	r12,	r5	;
    6136:	07 4c       	mov	r12,	r7	;
    6138:	2e 41       	mov	@r1,	r14	;
    613a:	1f 41 02 00 	mov	2(r1),	r15	;
    613e:	4d 43       	clr.b	r13		;
    6140:	b0 13 76 b4 	calla	#46198		;0x0b476
    6144:	3e 40 10 27 	mov	#10000,	r14	;#0x2710
    6148:	4f 43       	clr.b	r15		;
    614a:	18 41 08 00 	mov	8(r1),	r8	;
    614e:	19 41 0a 00 	mov	10(r1),	r9	;0x0000a
    6152:	40 18 08 8c 	subx.w	r12,	r8	;
    6156:	40 18 09 7d 	subcx.w	r13,	r9	;
    615a:	0c 48       	mov	r8,	r12	;
    615c:	0d 49       	mov	r9,	r13	;
    615e:	b0 13 76 b4 	calla	#46198		;0x0b476
    6162:	2e 41       	mov	@r1,	r14	;
    6164:	1f 41 02 00 	mov	2(r1),	r15	;
    6168:	3b 01 04 00 	mova	4(r1),	r11	;
    616c:	4b 13       	calla	r11		;
    616e:	8e 00 da 89 	mova	#35290,	r14	;0x089da
    6172:	79 40 10 00 	mov.b	#16,	r9	;#0x0010
    6176:	09 95       	cmp	r5,	r9	;
    6178:	2e 2c       	jc	$+94     	;abs 0x61d6
    617a:	0d 45       	mov	r5,	r13	;
    617c:	5d 0f       	rrum	#4,	r13	;
    617e:	84 4d 06 00 	mov	r13,	6(r4)	;
    6182:	4e 13       	calla	r14		;
    6184:	43 18 07 57 	rpt #4 { rlax.w	r7		;
    6188:	77 f0 ff 00 	and.b	#255,	r7	;#0x00ff
    618c:	17 d3       	bis	#1,	r7	;r3 As==01
    618e:	47 18 0c 5c 	rpt #8 { rlax.w	r12		;
    6192:	07 dc       	bis	r12,	r7	;
    6194:	84 47 08 00 	mov	r7,	8(r4)	;

00006198 <.L125>:
    6198:	5c 4a 18 00 	mov.b	24(r10),r12	;0x00018
    619c:	5c 0f       	rrum	#4,	r12	;
    619e:	5c 03       	rrum	#1,	r12	;
    61a0:	5c f3       	and.b	#1,	r12	;r3 As==01
    61a2:	3c d0 30 00 	bis	#48,	r12	;#0x0030
    61a6:	84 4c 10 00 	mov	r12,	16(r4)	; 0x0010
    61aa:	5d 4a 19 00 	mov.b	25(r10),r13	;0x00019
    61ae:	7d f0 0f 00 	and.b	#15,	r13	;#0x000f
    61b2:	6c 43       	mov.b	#2,	r12	;r3 As==10
    61b4:	0c 9d       	cmp	r13,	r12	;
    61b6:	32 38       	jl	$+102    	;abs 0x621c
    61b8:	8c 01 1a 19 	mova	#71962,	r12	;0x1191a
    61bc:	b0 13 e0 8e 	calla	#36576		;0x08ee0
    61c0:	9c 00 00 00 	cmpa	#0,	r12	;
    61c4:	11 24       	jz	$+36     	;abs 0x61e8
    61c6:	b0 13 fe a1 	calla	#41470		;0x0a1fe
    61ca:	81 18 f2 40 	movx.a	#65793,	&0x11a36;0x10101
    61ce:	01 01 36 1a 

000061d2 <.L128>:
    61d2:	80 00 d2 61 	mova	#25042,	r0	;0x061d2

000061d6 <.L124>:
    61d6:	84 45 06 00 	mov	r5,	6(r4)	;
    61da:	4e 13       	calla	r14		;
    61dc:	47 18 0c 5c 	rpt #8 { rlax.w	r12		;
    61e0:	84 4c 08 00 	mov	r12,	8(r4)	;
    61e4:	80 00 98 61 	mova	#24984,	r0	;0x06198

000061e8 <.L127>:
    61e8:	41 18 d2 43 	movx.b	#1,	&0x1192e;r3 As==01
    61ec:	2e 19 

000061ee <.L129>:
    61ee:	2c 01 d0 18 	mova	&71888,	r12	;0x118d0
    61f2:	5d 4c 19 00 	mov.b	25(r12),r13	;0x00019
    61f6:	5d 0f       	rrum	#4,	r13	;
    61f8:	6e 43       	mov.b	#2,	r14	;r3 As==10
    61fa:	0e 9d       	cmp	r13,	r14	;
    61fc:	aa 38       	jl	$+342    	;abs 0x6352
    61fe:	8c 01 24 19 	mova	#71972,	r12	;0x11924
    6202:	b0 13 e0 8e 	calla	#36576		;0x08ee0
    6206:	9c 00 00 00 	cmpa	#0,	r12	;
    620a:	0d 24       	jz	$+28     	;abs 0x6226
    620c:	b0 13 fe a1 	calla	#41470		;0x0a1fe
    6210:	81 18 f2 40 	movx.a	#65793,	&0x11a36;0x10101
    6214:	01 01 36 1a 

00006218 <.L132>:
    6218:	80 00 18 62 	mova	#25112,	r0	;0x06218

0000621c <.L126>:
    621c:	41 18 c2 43 	movx.b	#0,	&0x1192e;r3 As==00
    6220:	2e 19 
    6222:	80 00 ee 61 	mova	#25070,	r0	;0x061ee

00006226 <.L131>:
    6226:	41 18 d2 43 	movx.b	#1,	&0x1192f;r3 As==01
    622a:	2f 19 

0000622c <.L133>:
    622c:	01 18 f2 40 	movx.a	#38412,	&0x118f8;0x0960c
    6230:	0c 96 f8 18 
    6234:	80 18 f6 40 	movx.a	#71884,	48(r6)	;0x118cc, 0x00030
    6238:	cc 18 30 00 
    623c:	01 18 f2 40 	movx.a	#38322,	&0x11912;0x095b2
    6240:	b2 95 12 19 
    6244:	80 18 f6 40 	movx.a	#71884,	74(r6)	;0x118cc, 0x0004a
    6248:	cc 18 4a 00 
    624c:	3c 06 16 00 	mova	22(r6),	r12	;0x00016
    6250:	3e 06 04 00 	mova	4(r6),	r14	;
    6254:	5d 4e 18 00 	mov.b	24(r14),r13	;0x00018
    6258:	0f 4d       	mov	r13,	r15	;
    625a:	5f 0f       	rrum	#4,	r15	;
    625c:	5f 03       	rrum	#1,	r15	;
    625e:	5f f3       	and.b	#1,	r15	;r3 As==01
    6260:	0a 4d       	mov	r13,	r10	;
    6262:	4d 18 0a 5a 	rpt #14 { rlax.w	r10		;
    6266:	0e 4d       	mov	r13,	r14	;
    6268:	4a 18 0e 5e 	rpt #11 { rlax.w	r14		;
    626c:	3e f0 00 20 	and	#8192,	r14	;#0x2000
    6270:	0a de       	bis	r14,	r10	;
    6272:	3a d0 b0 00 	bis	#176,	r10	;#0x00b0
    6276:	0e 4d       	mov	r13,	r14	;
    6278:	48 18 0e 5e 	rpt #9 { rlax.w	r14		;
    627c:	3e f0 00 10 	and	#4096,	r14	;#0x1000
    6280:	0e da       	bis	r10,	r14	;
    6282:	46 18 0d 5d 	rpt #7 { rlax.w	r13		;
    6286:	0a 4d       	mov	r13,	r10	;
    6288:	3a f0 00 08 	and	#2048,	r10	;#0x0800
    628c:	0a de       	bis	r14,	r10	;
    628e:	0e 4f       	mov	r15,	r14	;
    6290:	49 18 0e 5e 	rpt #10 { rlax.w	r14		;
    6294:	0a de       	bis	r14,	r10	;
    6296:	48 18 0f 5f 	rpt #9 { rlax.w	r15		;
    629a:	0a df       	bis	r15,	r10	;
    629c:	8c 4a 00 00 	mov	r10,	0(r12)	;
    62a0:	9c d3 1a 00 	bis	#1,	26(r12)	;r3 As==01, 0x001a
    62a4:	41 18 e2 43 	movx.b	#2,	&0x118cc;r3 As==10
    62a8:	cc 18 
    62aa:	b0 13 f4 a1 	calla	#41460		;0x0a1f4
    62ae:	40 18 92 c3 	bicx.w	#1,	&0x0ddc2;r3 As==01
    62b2:	c2 dd 
    62b4:	40 18 82 c3 	bicx.w	#0,	&0x0ddc4;r3 As==00
    62b8:	c4 dd 

000062ba <.L115>:
    62ba:	40 18 e2 b3 	bitx.b	#2,	&0x0ddc2;r3 As==10
    62be:	c2 dd 
    62c0:	83 24       	jz	$+264    	;abs 0x63c8
    62c2:	00 18 c2 93 	cmpx.a	#0,	&0x0b75a;r3 As==00
    62c6:	5a b7 
    62c8:	26 20       	jnz	$+78     	;abs 0x6316
    62ca:	b0 13 fe a1 	calla	#41470		;0x0a1fe
    62ce:	3d 43       	mov	#-1,	r13	;r3 As==11
    62d0:	8c 00 66 dc 	mova	#56422,	r12	;0x0dc66
    62d4:	b0 13 56 91 	calla	#37206		;0x09156
    62d8:	8a 00 f4 a1 	mova	#41460,	r10	;0x0a1f4
    62dc:	9c 00 00 00 	cmpa	#0,	r12	;
    62e0:	7c 21       	jnz	$+762    	;abs 0x65da
    62e2:	8c 00 56 dc 	mova	#56406,	r12	;0x0dc56
    62e6:	38 0c 0c 00 	mova	12(r12),r8	;0x0000c
    62ea:	ce 08       	mova	r8,	r14	;
    62ec:	ae 00 04 00 	adda	#4,	r14	;
    62f0:	7c 0e 0c 00 	mova	r14,	12(r12)	; 0x0000c
    62f4:	00 18 e2 48 	movx.a	@r8,	&0x0b75a;
    62f8:	5a b7 
    62fa:	00 18 5e 92 	cmpx.a	&0x0dc5a,r14	;
    62fe:	5a dc 
    6300:	03 28       	jnc	$+8      	;abs 0x6308
    6302:	00 18 ec 4c 	movx.a	@r12,	12(r12)	; 0x0000c
    6306:	0c 00 

00006308 <.L138>:
    6308:	8c 00 68 dc 	mova	#56424,	r12	;0x0dc68
    630c:	b0 13 82 92 	calla	#37506		;0x09282
    6310:	b0 13 d4 8d 	calla	#36308		;0x08dd4
    6314:	4a 13       	calla	r10		;

00006316 <.L136>:
    6316:	2e 00 5a b7 	mova	&46938,	r14	;0x0b75a
    631a:	5c 4e 04 00 	mov.b	4(r14),	r12	;
    631e:	47 18 0c 5c 	rpt #8 { rlax.w	r12		;
    6322:	5f 4e 05 00 	mov.b	5(r14),	r15	;
    6326:	0c df       	bis	r15,	r12	;
    6328:	3c 50 07 00 	add	#7,	r12	;
    632c:	4c 0e       	rlam.a	#4,	r12	;
    632e:	4c 0d       	rram.a	#4,	r12	;
    6330:	61 0c 50 16 	mova	r12,	&71248	; 0x11650
    6334:	9c 00 00 00 	cmpa	#0,	r12	;
    6338:	04 24       	jz	$+10     	;abs 0x6342
    633a:	00 18 c2 9c 	cmpx.a	r12,	&0x0b738;
    633e:	38 b7 
    6340:	0d 2c       	jc	$+28     	;abs 0x635c

00006342 <.L139>:
    6342:	b0 13 fe a1 	calla	#41470		;0x0a1fe
    6346:	81 18 f2 40 	movx.a	#65819,	&0x11a36;0x1011b
    634a:	1b 01 36 1a 

0000634e <.L141>:
    634e:	80 00 4e 63 	mova	#25422,	r0	;0x0634e

00006352 <.L130>:
    6352:	41 18 c2 43 	movx.b	#0,	&0x1192f;r3 As==00
    6356:	2f 19 
    6358:	80 00 2c 62 	mova	#25132,	r0	;0x0622c

0000635c <.L140>:
    635c:	61 0e 48 16 	mova	r14,	&71240	; 0x11648
    6360:	61 0e 4c 16 	mova	r14,	&71244	; 0x1164c
    6364:	41 18 e2 43 	movx.b	#2,	&0x10e08;r3 As==10
    6368:	08 0e 
    636a:	88 00 b8 9f 	mova	#40888,	r8	;0x09fb8
    636e:	48 13       	calla	r8		;
    6370:	b0 13 fe a1 	calla	#41470		;0x0a1fe
    6374:	2e 01 54 16 	mova	&71252,	r14	;0x11654
    6378:	2d 01 58 16 	mova	&71256,	r13	;0x11658
    637c:	8c 01 cc 18 	mova	#71884,	r12	;0x118cc
    6380:	b0 13 ec 8f 	calla	#36844		;0x08fec
    6384:	2c 01 50 16 	mova	&71248,	r12	;0x11650
    6388:	80 18 5c 82 	subx.a	&0x11658,r12	;
    638c:	58 16 
    638e:	61 0c 50 16 	mova	r12,	&71248	; 0x11650
    6392:	8a 00 f4 a1 	mova	#41460,	r10	;0x0a1f4
    6396:	9c 00 00 00 	cmpa	#0,	r12	;
    639a:	60 20       	jnz	$+194    	;abs 0x645c
    639c:	2c 01 4c 16 	mova	&71244,	r12	;0x1164c
    63a0:	b0 13 18 a4 	calla	#42008		;0x0a418
    63a4:	81 18 f2 40 	movx.a	#65818,	&0x11654;0x1011a
    63a8:	1a 01 54 16 
    63ac:	01 18 d2 43 	movx.a	#1,	&0x11658;r3 As==01
    63b0:	58 16 

000063b2 <.L192>:
    63b2:	4a 13       	calla	r10		;
    63b4:	c0 1f f2 f0 	andx.b	#-4,	&0x0ddc6;0xffffc
    63b8:	fc ff c6 dd 
    63bc:	40 18 a2 c3 	bicx.w	#2,	&0x0ddc2;r3 As==10
    63c0:	c2 dd 
    63c2:	40 18 82 c3 	bicx.w	#0,	&0x0ddc4;r3 As==00
    63c6:	c4 dd 

000063c8 <.L134>:
    63c8:	40 18 e2 b2 	bitx.b	#4,	&0x0ddc2;r2 As==10
    63cc:	c2 dd 
    63ce:	38 24       	jz	$+114    	;abs 0x6440
    63d0:	28 01 60 16 	mova	&71264,	r8	;0x11660
    63d4:	8e 01 64 16 	mova	#71268,	r14	;0x11664
    63d8:	1c 4e 02 02 	mov	514(r14),r12	;0x00202
    63dc:	09 4c       	mov	r12,	r9	;
    63de:	19 53       	inc	r9		;
    63e0:	8e 49 02 02 	mov	r9,	514(r14); 0x0202
    63e4:	5c f3       	and.b	#1,	r12	;r3 As==01
    63e6:	0d 43       	clr	r13		;
    63e8:	b0 13 56 b3 	calla	#45910		;0x0b356
    63ec:	0d 12       	push	r13		;
    63ee:	0c 12       	push	r12		;
    63f0:	0a 16       	popm.a	#1,	r10	;20-bit words
    63f2:	aa 01 64 16 	adda	#71268,	r10	;0x11664
    63f6:	cf 0a       	mova	r10,	r15	;
    63f8:	ef 08       	adda	r8,	r15	;
    63fa:	71 0f 08 00 	mova	r15,	8(r1)	;
    63fe:	85 00 fe a1 	mova	#41470,	r5	;0x0a1fe
    6402:	87 00 aa 90 	mova	#37034,	r7	;0x090aa
    6406:	84 00 f4 a1 	mova	#41460,	r4	;0x0a1f4

0000640a <.L146>:
    640a:	00 18 5a 91 	cmpx.a	8(r1),	r10	;
    640e:	08 00 
    6410:	28 28       	jnc	$+82     	;abs 0x6462
    6412:	79 40 ff 00 	mov.b	#255,	r9	;#0x00ff
    6416:	d9 08       	cmpa	r8,	r9	;
    6418:	0d 28       	jnc	$+28     	;abs 0x6434
    641a:	2c 00 3c b7 	mova	&46908,	r12	;0x0b73c
    641e:	9c 00 00 00 	cmpa	#0,	r12	;
    6422:	05 24       	jz	$+12     	;abs 0x642e
    6424:	b0 13 56 a4 	calla	#42070		;0x0a456
    6428:	00 18 c2 43 	movx.a	#0,	&0x0b73c;r3 As==00
    642c:	3c b7 

0000642e <.L170>:
    642e:	40 18 c2 43 	movx.b	#0,	&0x0ddc0;r3 As==00
    6432:	c0 dd 

00006434 <.L150>:
    6434:	40 18 a2 c2 	bicx.w	#4,	&0x0ddc2;r2 As==10
    6438:	c2 dd 
    643a:	40 18 82 c3 	bicx.w	#0,	&0x0ddc4;r3 As==00
    643e:	c4 dd 

00006440 <.L144>:
    6440:	4e 43       	clr.b	r14		;
    6442:	5c 42 c6 dd 	mov.b	&0xddc6,r12	;0xddc6
    6446:	0d 43       	clr	r13		;
    6448:	b0 13 ce 96 	calla	#38606		;0x096ce
    644c:	40 18 82 dc 	bisx.w	r12,	&0x0ddc2;
    6450:	c2 dd 
    6452:	40 18 82 dd 	bisx.w	r13,	&0x0ddc4;
    6456:	c4 dd 
    6458:	80 00 30 60 	mova	#24624,	r0	;0x06030

0000645c <.L142>:
    645c:	48 13       	calla	r8		;
    645e:	80 00 b2 63 	mova	#25522,	r0	;0x063b2

00006462 <.L168>:
    6462:	69 4a       	mov.b	@r10,	r9	;
    6464:	40 18 c2 93 	cmpx.b	#0,	&0x0ddc0;r3 As==00
    6468:	c0 dd 
    646a:	1d 20       	jnz	$+60     	;abs 0x64a6
    646c:	00 18 c2 93 	cmpx.a	#0,	&0x0b73c;r3 As==00
    6470:	3c b7 
    6472:	08 20       	jnz	$+18     	;abs 0x6484
    6474:	45 13       	calla	r5		;
    6476:	8c 00 7e dc 	mova	#56446,	r12	;0x0dc7e
    647a:	47 13       	calla	r7		;
    647c:	c6 0c       	mova	r12,	r6	;
    647e:	44 13       	calla	r4		;
    6480:	60 06 3c b7 	mova	r6,	&46908	; 0x0b73c

00006484 <.L148>:
    6484:	2c 00 3c b7 	mova	&46908,	r12	;0x0b73c
    6488:	9c 00 00 00 	cmpa	#0,	r12	;
    648c:	d3 27       	jz	$-88     	;abs 0x6434
    648e:	60 0c bc dd 	mova	r12,	&56764	; 0x0ddbc
    6492:	00 18 f2 40 	movx.a	#6,	&0x0ddb8;
    6496:	06 00 b8 dd 
    649a:	40 18 e2 43 	movx.b	#2,	&0x0ddc0;r3 As==10
    649e:	c0 dd 
    64a0:	40 18 d2 43 	movx.b	#1,	&0x0ddb6;r3 As==01
    64a4:	b6 dd 

000064a6 <.L147>:
    64a6:	40 18 5c 42 	movx.b	&0x0ddc0,r12	;
    64aa:	c0 dd 
    64ac:	5c 93       	cmp.b	#1,	r12	;r3 As==01
    64ae:	0a 24       	jz	$+22     	;abs 0x64c4
    64b0:	6c 93       	cmp.b	#2,	r12	;r3 As==10
    64b2:	55 24       	jz	$+172    	;abs 0x655e
    64b4:	b0 13 fe a1 	calla	#41470		;0x0a1fe
    64b8:	81 18 f2 40 	movx.a	#65837,	&0x11a36;0x1012d
    64bc:	2d 01 36 1a 

000064c0 <.L166>:
    64c0:	80 00 c0 64 	mova	#25792,	r0	;0x064c0

000064c4 <.L152>:
    64c4:	79 90 dc ff 	cmp.b	#65500,	r9	;#0xffdc
    64c8:	08 24       	jz	$+18     	;abs 0x64da
    64ca:	79 90 dd ff 	cmp.b	#65501,	r9	;#0xffdd
    64ce:	3b 24       	jz	$+120    	;abs 0x6546

000064d0 <.L194>:
    64d0:	40 18 c2 43 	movx.b	#0,	&0x0ddc0;r3 As==00
    64d4:	c0 dd 
    64d6:	80 00 0a 64 	mova	#25610,	r0	;0x0640a

000064da <.L155>:
    64da:	2c 00 bc dd 	mova	&56764,	r12	;0x0ddbc
    64de:	c9 0c       	mova	r12,	r9	;
    64e0:	a9 00 01 00 	adda	#1,	r9	;
    64e4:	60 09 bc dd 	mova	r9,	&56764	; 0x0ddbc
    64e8:	fc 40 c0 ff 	mov.b	#65472,	0(r12)	;#0xffc0
    64ec:	00 00 

000064ee <.L157>:
    64ee:	00 18 f2 53 	addx.a	#-1,	&0x0ddb8;r3 As==11
    64f2:	b8 dd 
    64f4:	40 18 e2 43 	movx.b	#2,	&0x0ddc0;r3 As==10
    64f8:	c0 dd 

000064fa <.L193>:
    64fa:	aa 00 01 00 	adda	#1,	r10	;
    64fe:	00 18 c2 93 	cmpx.a	#0,	&0x0ddb8;r3 As==00
    6502:	b8 dd 
    6504:	82 23       	jnz	$-250    	;abs 0x640a
    6506:	40 18 c2 93 	cmpx.b	#0,	&0x0ddb6;r3 As==00
    650a:	b6 dd 
    650c:	7e 27       	jz	$-258    	;abs 0x640a
    650e:	2c 00 3c b7 	mova	&46908,	r12	;0x0b73c
    6512:	b0 13 06 a2 	calla	#41478		;0x0a206
    6516:	4c 93       	cmp.b	#0,	r12	;r3 As==00
    6518:	5b 24       	jz	$+184    	;abs 0x65d0
    651a:	2e 00 3c b7 	mova	&46908,	r14	;0x0b73c
    651e:	5c 4e 04 00 	mov.b	4(r14),	r12	;
    6522:	47 18 0c 5c 	rpt #8 { rlax.w	r12		;
    6526:	5e 4e 05 00 	mov.b	5(r14),	r14	;
    652a:	0c de       	bis	r14,	r12	;
    652c:	3c 50 07 00 	add	#7,	r12	;
    6530:	4c 0e       	rlam.a	#4,	r12	;
    6532:	4c 0d       	rram.a	#4,	r12	;
    6534:	ac 0f fa ff 	adda	#1048570,r12	;0xffffa
    6538:	60 0c b8 dd 	mova	r12,	&56760	; 0x0ddb8
    653c:	40 18 c2 43 	movx.b	#0,	&0x0ddb6;r3 As==00
    6540:	b6 dd 
    6542:	80 00 0a 64 	mova	#25610,	r0	;0x0640a

00006546 <.L156>:
    6546:	2c 00 bc dd 	mova	&56764,	r12	;0x0ddbc
    654a:	cd 0c       	mova	r12,	r13	;
    654c:	ad 00 01 00 	adda	#1,	r13	;
    6550:	60 0d bc dd 	mova	r13,	&56764	; 0x0ddbc
    6554:	fc 40 db ff 	mov.b	#65499,	0(r12)	;#0xffdb
    6558:	00 00 
    655a:	80 00 ee 64 	mova	#25838,	r0	;0x064ee

0000655e <.L153>:
    655e:	79 90 c0 ff 	cmp.b	#65472,	r9	;#0xffc0
    6562:	0c 24       	jz	$+26     	;abs 0x657c
    6564:	79 90 db ff 	cmp.b	#65499,	r9	;#0xffdb
    6568:	1f 20       	jnz	$+64     	;abs 0x65a8
    656a:	00 18 c2 93 	cmpx.a	#0,	&0x0ddb8;r3 As==00
    656e:	b8 dd 
    6570:	af 27       	jz	$-160    	;abs 0x64d0
    6572:	40 18 d2 43 	movx.b	#1,	&0x0ddc0;r3 As==01
    6576:	c0 dd 
    6578:	80 00 fa 64 	mova	#25850,	r0	;0x064fa

0000657c <.L161>:
    657c:	00 18 c2 93 	cmpx.a	#0,	&0x0ddb8;r3 As==00
    6580:	b8 dd 
    6582:	0b 20       	jnz	$+24     	;abs 0x659a
    6584:	8e 00 9a a2 	mova	#41626,	r14	;0x0a29a
    6588:	8d 00 5a a2 	mova	#41562,	r13	;0x0a25a
    658c:	2c 00 3c b7 	mova	&46908,	r12	;0x0b73c
    6590:	b0 13 84 b1 	calla	#45444		;0x0b184
    6594:	00 18 c2 43 	movx.a	#0,	&0x0b73c;r3 As==00
    6598:	3c b7 

0000659a <.L164>:
    659a:	40 18 c2 43 	movx.b	#0,	&0x0ddc0;r3 As==00
    659e:	c0 dd 
    65a0:	aa 00 01 00 	adda	#1,	r10	;
    65a4:	80 00 0a 64 	mova	#25610,	r0	;0x0640a

000065a8 <.L191>:
    65a8:	2c 00 b8 dd 	mova	&56760,	r12	;0x0ddb8
    65ac:	9c 00 00 00 	cmpa	#0,	r12	;
    65b0:	8f 27       	jz	$-224    	;abs 0x64d0
    65b2:	2e 00 bc dd 	mova	&56764,	r14	;0x0ddbc
    65b6:	cf 0e       	mova	r14,	r15	;
    65b8:	af 00 01 00 	adda	#1,	r15	;
    65bc:	60 0f bc dd 	mova	r15,	&56764	; 0x0ddbc
    65c0:	ce 49 00 00 	mov.b	r9,	0(r14)	;
    65c4:	ac 0f ff ff 	adda	#1048575,r12	;0xfffff
    65c8:	60 0c b8 dd 	mova	r12,	&56760	; 0x0ddb8
    65cc:	80 00 fa 64 	mova	#25850,	r0	;0x064fa

000065d0 <.L167>:
    65d0:	40 18 c2 4c 	movx.b	r12,	&0x0ddc0;
    65d4:	c0 dd 
    65d6:	80 00 0a 64 	mova	#25610,	r0	;0x0640a

000065da <.L137>:
    65da:	40 18 a2 c3 	bicx.w	#2,	&0x0ddc2;r3 As==10
    65de:	c2 dd 
    65e0:	40 18 82 c3 	bicx.w	#0,	&0x0ddc4;r3 As==00
    65e4:	c4 dd 
    65e6:	4a 13       	calla	r10		;
    65e8:	80 00 30 60 	mova	#24624,	r0	;0x06030

000065ec <get_regs.lto_priv.186>:
    65ec:	6a 14       	pushm.a	#7,	r10	;20-bit words
    65ee:	b1 00 0a 00 	suba	#10,	r1	;0x0000a
    65f2:	c8 0c       	mova	r12,	r8	;
    65f4:	27 4d       	mov	@r13,	r7	;
    65f6:	91 4d 02 00 	mov	2(r13),	2(r1)	;
    65fa:	02 00 
    65fc:	05 47       	mov	r7,	r5	;
    65fe:	55 07       	rrum	#2,	r5	;
    6600:	75 f0 3f 00 	and.b	#63,	r5	;#0x003f
    6604:	0a 47       	mov	r7,	r10	;
    6606:	5a 0f       	rrum	#4,	r10	;
    6608:	5a 0f       	rrum	#4,	r10	;
    660a:	44 47       	mov.b	r7,	r4	;
    660c:	40 18 24 b3 	bitx.w	#2,	r4	;r3 As==10
    6610:	06 24       	jz	$+14     	;abs 0x661e
    6612:	b0 13 d8 5a 	calla	#23256		;0x05ad8
    6616:	c6 0c       	mova	r12,	r6	;
    6618:	9c 00 00 00 	cmpa	#0,	r12	;
    661c:	0a 20       	jnz	$+22     	;abs 0x6632

0000661e <.L196>:
    661e:	8c 0f fa ff 	mova	#-6,	r12	;0xfffffffa
    6622:	80 18 5c 82 	subx.a	&0x11930,r12	;
    6626:	30 19 
    6628:	ec 08       	adda	r8,	r12	;
    662a:	b0 13 56 a4 	calla	#42070		;0x0a456
    662e:	80 00 e6 66 	mova	#26342,	r0	;0x066e6

00006632 <.L197>:
    6632:	59 48 04 00 	mov.b	4(r8),	r9	;
    6636:	40 18 14 b3 	bitx.w	#1,	r4	;r3 As==01
    663a:	59 24       	jz	$+180    	;abs 0x66ee
    663c:	6c 43       	mov.b	#2,	r12	;r3 As==10

0000663e <.L199>:
    663e:	4a 8c       	sub.b	r12,	r10	;
    6640:	c1 4a 05 00 	mov.b	r10,	5(r1)	;
    6644:	5b 41 05 00 	mov.b	5(r1),	r11	;
    6648:	7b 50 fd ff 	add.b	#65533,	r11	;#0xfffd
    664c:	c1 4b 04 00 	mov.b	r11,	4(r1)	;
    6650:	3b f0 ff 00 	and	#255,	r11	;#0x00ff
    6654:	81 4b 00 00 	mov	r11,	0(r1)	;
    6658:	ca 06       	mova	r6,	r10	;
    665a:	aa 00 04 00 	adda	#4,	r10	;
    665e:	cf 08       	mova	r8,	r15	;
    6660:	af 00 05 00 	adda	#5,	r15	;
    6664:	c4 0a       	mova	r10,	r4	;
    6666:	4d 43       	clr.b	r13		;

00006668 <.L200>:
    6668:	2d 91       	cmp	@r1,	r13	;
    666a:	44 38       	jl	$+138    	;abs 0x66f4
    666c:	8c 0f fa ff 	mova	#-6,	r12	;0xfffffffa
    6670:	80 18 5c 82 	subx.a	&0x11930,r12	;
    6674:	30 19 
    6676:	ec 08       	adda	r8,	r12	;
    6678:	b0 13 56 a4 	calla	#42070		;0x0a456
    667c:	c6 45 00 00 	mov.b	r5,	0(r6)	;
    6680:	8c 00 8c dc 	mova	#56460,	r12	;0x0dc8c
    6684:	d6 4c 51 00 	mov.b	81(r12),2(r6)	;0x00051
    6688:	02 00 
    668a:	d6 4c 50 00 	mov.b	80(r12),3(r6)	;0x00050
    668e:	03 00 
    6690:	41 18 d2 41 	movx.b	4(r1),	&0x11644;
    6694:	04 00 44 16 
    6698:	09 93       	cmp	#0,	r9	;r3 As==00
    669a:	75 24       	jz	$+236    	;abs 0x6786
    669c:	44 43       	clr.b	r4		;
    669e:	88 00 e0 76 	mova	#30432,	r8	;0x076e0
    66a2:	55 43       	mov.b	#1,	r5	;r3 As==01

000066a4 <.L205>:
    66a4:	81 94 00 00 	cmp	r4,	0(r1)	;
    66a8:	5a 20       	jnz	$+182    	;abs 0x675e
    66aa:	b0 13 fe a1 	calla	#41470		;0x0a1fe
    66ae:	4d 43       	clr.b	r13		;
    66b0:	8c 01 46 16 	mova	#71238,	r12	;0x11646
    66b4:	b0 13 56 91 	calla	#37206		;0x09156
    66b8:	b0 13 f4 a1 	calla	#41460		;0x0a1f4

000066bc <.L207>:
    66bc:	40 18 17 b3 	bitx.w	#1,	r7	;r3 As==01
    66c0:	67 24       	jz	$+208    	;abs 0x6790
    66c2:	5b 41 05 00 	mov.b	5(r1),	r11	;
    66c6:	7b 53       	add.b	#-1,	r11	;r3 As==11
    66c8:	c6 4b 01 00 	mov.b	r11,	1(r6)	;
    66cc:	2d 41       	mov	@r1,	r13	;
    66ce:	3d 50 06 00 	add	#6,	r13	;
    66d2:	4d 0e       	rlam.a	#4,	r13	;
    66d4:	4d 0d       	rram.a	#4,	r13	;
    66d6:	cc 06       	mova	r6,	r12	;
    66d8:	b0 13 d8 9d 	calla	#40408		;0x09dd8

000066dc <.L210>:
    66dc:	1d 41 02 00 	mov	2(r1),	r13	;
    66e0:	cc 06       	mova	r6,	r12	;
    66e2:	b0 13 74 7c 	calla	#31860		;0x07c74

000066e6 <.L195>:
    66e6:	a1 00 0a 00 	adda	#10,	r1	;0x0000a
    66ea:	64 16       	popm.a	#7,	r10	;20-bit words
    66ec:	10 01       	reta			;

000066ee <.L211>:
    66ee:	4c 43       	clr.b	r12		;
    66f0:	80 00 3e 66 	mova	#26174,	r0	;0x0663e

000066f4 <.L203>:
    66f4:	6c 4f       	mov.b	@r15,	r12	;
    66f6:	6e 42       	mov.b	#4,	r14	;r2 As==10
    66f8:	4e 99       	cmp.b	r9,	r14	;
    66fa:	18 28       	jnc	$+50     	;abs 0x672c
    66fc:	4e 4c       	mov.b	r12,	r14	;
    66fe:	7e 50 aa ff 	add.b	#65450,	r14	;#0xffaa
    6702:	7b 40 09 00 	mov.b	#9,	r11	;
    6706:	4b 9e       	cmp.b	r14,	r11	;
    6708:	11 2c       	jc	$+36     	;abs 0x672c
    670a:	7e 50 df ff 	add.b	#65503,	r14	;#0xffdf
    670e:	7b 42       	mov.b	#8,	r11	;r2 As==11
    6710:	4b 9e       	cmp.b	r14,	r11	;
    6712:	0c 2c       	jc	$+26     	;abs 0x672c
    6714:	7e 50 ed ff 	add.b	#65517,	r14	;#0xffed
    6718:	7b 40 35 00 	mov.b	#53,	r11	;#0x0035
    671c:	4b 9e       	cmp.b	r14,	r11	;
    671e:	06 2c       	jc	$+14     	;abs 0x672c
    6720:	af 00 01 00 	adda	#1,	r15	;
    6724:	7e 40 d4 ff 	mov.b	#65492,	r14	;#0xffd4
    6728:	4e 9c       	cmp.b	r12,	r14	;
    672a:	12 2c       	jc	$+38     	;abs 0x6750

0000672c <.L201>:
    672c:	81 47 06 00 	mov	r7,	6(r1)	;
    6730:	91 41 02 00 	mov	2(r1),	8(r1)	;
    6734:	08 00 
    6736:	cd 01       	mova	r1,	r13	;
    6738:	ad 00 06 00 	adda	#6,	r13	;
    673c:	cc 06       	mova	r6,	r12	;
    673e:	b0 13 36 5a 	calla	#23094		;0x05a36
    6742:	1d 41 02 00 	mov	2(r1),	r13	;
    6746:	cc 06       	mova	r6,	r12	;
    6748:	b0 13 74 7c 	calla	#31860		;0x07c74
    674c:	80 00 1e 66 	mova	#26142,	r0	;0x0661e

00006750 <.L202>:
    6750:	c4 4c 00 00 	mov.b	r12,	0(r4)	;
    6754:	1d 53       	inc	r13		;
    6756:	a4 00 01 00 	adda	#1,	r4	;
    675a:	80 00 68 66 	mova	#26216,	r0	;0x06668

0000675e <.L206>:
    675e:	cf 0a       	mova	r10,	r15	;
    6760:	6e 4a       	mov.b	@r10,	r14	;
    6762:	4d 49       	mov.b	r9,	r13	;
    6764:	4c 45       	mov.b	r5,	r12	;
    6766:	48 13       	calla	r8		;
    6768:	14 53       	inc	r4		;
    676a:	aa 00 01 00 	adda	#1,	r10	;
    676e:	80 00 a4 66 	mova	#26276,	r0	;0x066a4

00006772 <.L208>:
    6772:	6b 4a       	mov.b	@r10,	r11	;
    6774:	40 18 0c 4b 	movx.w	r11,	r12	;
    6778:	40 18 da 4c 	movx.b	56460(r12),0(r10)	;0x0dc8c
    677c:	8c dc 00 00 
    6780:	19 53       	inc	r9		;
    6782:	aa 00 01 00 	adda	#1,	r10	;

00006786 <.L204>:
    6786:	81 99 00 00 	cmp	r9,	0(r1)	;
    678a:	f3 23       	jnz	$-24     	;abs 0x6772
    678c:	80 00 bc 66 	mova	#26300,	r0	;0x066bc

00006790 <.L209>:
    6790:	d6 41 04 00 	mov.b	4(r1),	1(r6)	;
    6794:	01 00 
    6796:	80 00 dc 66 	mova	#26332,	r0	;0x066dc

0000679a <install_fw.lto_priv.227>:
    679a:	4a 14       	pushm.a	#5,	r10	;20-bit words
    679c:	b1 00 04 00 	suba	#4,	r1	;
    67a0:	c6 0c       	mova	r12,	r6	;
    67a2:	27 4d       	mov	@r13,	r7	;
    67a4:	1a 4d 02 00 	mov	2(r13),	r10	;
    67a8:	09 47       	mov	r7,	r9	;
    67aa:	8c 0f fa ff 	mova	#-6,	r12	;0xfffffffa
    67ae:	80 18 5c 82 	subx.a	&0x11930,r12	;
    67b2:	30 19 
    67b4:	88 00 56 a4 	mova	#42070,	r8	;0x0a456
    67b8:	ec 06       	adda	r6,	r12	;
    67ba:	48 13       	calla	r8		;
    67bc:	40 18 27 b3 	bitx.w	#2,	r7	;r3 As==10
    67c0:	12 24       	jz	$+38     	;abs 0x67e6
    67c2:	81 47 00 00 	mov	r7,	0(r1)	;
    67c6:	81 4a 02 00 	mov	r10,	2(r1)	;
    67ca:	cc 01       	mova	r1,	r12	;
    67cc:	b0 13 6e 5d 	calla	#23918		;0x05d6e

000067d0 <.L3>:
    67d0:	40 18 d2 43 	movx.b	#1,	&0x019fc;r3 As==01
    67d4:	fc 19 
    67d6:	c0 1f b2 40 	movx.w	#-23224,&0x00120;0xfa548
    67da:	48 a5 20 01 
    67de:	a1 00 04 00 	adda	#4,	r1	;
    67e2:	46 16       	popm.a	#5,	r10	;20-bit words
    67e4:	10 01       	reta			;

000067e6 <.L2>:
    67e6:	8c 0f fa ff 	mova	#-6,	r12	;0xfffffffa
    67ea:	80 18 5c 82 	subx.a	&0x11930,r12	;
    67ee:	30 19 
    67f0:	ec 06       	adda	r6,	r12	;
    67f2:	48 13       	calla	r8		;
    67f4:	80 00 d0 67 	mova	#26576,	r0	;0x067d0

000067f8 <reset_event.lto_priv.217>:
    67f8:	0a 14       	pushm.a	#1,	r10	;20-bit words
    67fa:	b1 00 04 00 	suba	#4,	r1	;
    67fe:	ca 0c       	mova	r12,	r10	;
    6800:	2e 4d       	mov	@r13,	r14	;
    6802:	1c 4d 02 00 	mov	2(r13),	r12	;
    6806:	40 18 2e b3 	bitx.w	#2,	r14	;r3 As==10
    680a:	07 24       	jz	$+16     	;abs 0x681a
    680c:	81 4e 00 00 	mov	r14,	0(r1)	;
    6810:	81 4c 02 00 	mov	r12,	2(r1)	;
    6814:	cc 01       	mova	r1,	r12	;
    6816:	b0 13 6e 5d 	calla	#23918		;0x05d6e

0000681a <.L5>:
    681a:	8c 0f fa ff 	mova	#-6,	r12	;0xfffffffa
    681e:	80 18 5c 82 	subx.a	&0x11930,r12	;
    6822:	30 19 
    6824:	ec 0a       	adda	r10,	r12	;
    6826:	b0 13 56 a4 	calla	#42070		;0x0a456
    682a:	a1 00 04 00 	adda	#4,	r1	;
    682e:	0a 16       	popm.a	#1,	r10	;20-bit words
    6830:	10 01       	reta			;

00006832 <reset_chan.lto_priv.212>:
    6832:	b0 13 f8 67 	calla	#26616		;0x067f8
    6836:	10 01       	reta			;

00006838 <store_telem_reply_cb>:
    6838:	0a 14       	pushm.a	#1,	r10	;20-bit words
    683a:	08 14       	pushm.a	#1,	r8	;20-bit words
    683c:	c8 0c       	mova	r12,	r8	;
    683e:	8a 00 d6 dd 	mova	#56790,	r10	;0x0ddd6
    6842:	cd 0a       	mova	r10,	r13	;
    6844:	b0 13 74 5a 	calla	#23156		;0x05a74
    6848:	1d 4a 02 00 	mov	2(r10),	r13	;
    684c:	cc 08       	mova	r8,	r12	;
    684e:	b0 13 be 7a 	calla	#31422		;0x07abe
    6852:	08 16       	popm.a	#1,	r8	;20-bit words
    6854:	0a 16       	popm.a	#1,	r10	;20-bit words
    6856:	10 01       	reta			;

00006858 <upload_fw_reply_cb>:
    6858:	0a 14       	pushm.a	#1,	r10	;20-bit words
    685a:	08 14       	pushm.a	#1,	r8	;20-bit words
    685c:	c8 0c       	mova	r12,	r8	;
    685e:	8a 00 c8 dd 	mova	#56776,	r10	;0x0ddc8
    6862:	cd 0a       	mova	r10,	r13	;
    6864:	b0 13 74 5a 	calla	#23156		;0x05a74
    6868:	1d 4a 02 00 	mov	2(r10),	r13	;
    686c:	cc 08       	mova	r8,	r12	;
    686e:	b0 13 be 7a 	calla	#31422		;0x07abe
    6872:	08 16       	popm.a	#1,	r8	;20-bit words
    6874:	0a 16       	popm.a	#1,	r10	;20-bit words
    6876:	10 01       	reta			;

00006878 <store_telem_noreply_cb>:
    6878:	8e 0f fa ff 	mova	#-6,	r14	;0xfffffffa
    687c:	80 18 5e 82 	subx.a	&0x11930,r14	;
    6880:	30 19 
    6882:	ec 0e       	adda	r14,	r12	;
    6884:	b0 13 4c 5f 	calla	#24396		;0x05f4c
    6888:	10 01       	reta			;

0000688a <upload_fw_noreply_cb>:
    688a:	b0 13 78 68 	calla	#26744		;0x06878
    688e:	10 01       	reta			;

00006890 <cancel_fw_eeprom_cb>:
    6890:	8c 00 d2 dd 	mova	#56786,	r12	;0x0ddd2
    6894:	b0 13 7e 73 	calla	#29566		;0x0737e
    6898:	10 01       	reta			;

0000689a <unlog_event.lto_priv.216>:
    689a:	2a 14       	pushm.a	#3,	r10	;20-bit words
    689c:	b1 00 04 00 	suba	#4,	r1	;
    68a0:	ca 0c       	mova	r12,	r10	;
    68a2:	2f 4d       	mov	@r13,	r15	;
    68a4:	1b 4d 02 00 	mov	2(r13),	r11	;
    68a8:	0c 4f       	mov	r15,	r12	;
    68aa:	5c 0f       	rrum	#4,	r12	;
    68ac:	5c 0f       	rrum	#4,	r12	;
    68ae:	4e 4f       	mov.b	r15,	r14	;
    68b0:	40 18 1e b3 	bitx.w	#1,	r14	;r3 As==01
    68b4:	1b 24       	jz	$+56     	;abs 0x68ec
    68b6:	69 43       	mov.b	#2,	r9	;r3 As==10

000068b8 <.L16>:
    68b8:	6e f3       	and.b	#2,	r14	;r3 As==10
    68ba:	4d 4e       	mov.b	r14,	r13	;
    68bc:	4c 8e       	sub.b	r14,	r12	;
    68be:	4c 89       	sub.b	r9,	r12	;
    68c0:	3c f0 ff 00 	and	#255,	r12	;#0x00ff
    68c4:	0d 93       	cmp	#0,	r13	;r3 As==00
    68c6:	15 24       	jz	$+44     	;abs 0x68f2
    68c8:	69 42       	mov.b	#4,	r9	;r2 As==10

000068ca <.L17>:
    68ca:	40 18 0e 49 	movx.w	r9,	r14	;
    68ce:	ee 0a       	adda	r10,	r14	;
    68d0:	0c 59       	add	r9,	r12	;

000068d2 <.L18>:
    68d2:	09 9c       	cmp	r12,	r9	;
    68d4:	11 38       	jl	$+36     	;abs 0x68f8
    68d6:	0d 93       	cmp	#0,	r13	;r3 As==00
    68d8:	1f 24       	jz	$+64     	;abs 0x6918
    68da:	81 4f 00 00 	mov	r15,	0(r1)	;
    68de:	81 4b 02 00 	mov	r11,	2(r1)	;
    68e2:	cc 01       	mova	r1,	r12	;
    68e4:	b0 13 6e 5d 	calla	#23918		;0x05d6e
    68e8:	80 00 18 69 	mova	#26904,	r0	;0x06918

000068ec <.L24>:
    68ec:	49 43       	clr.b	r9		;
    68ee:	80 00 b8 68 	mova	#26808,	r0	;0x068b8

000068f2 <.L25>:
    68f2:	69 43       	mov.b	#2,	r9	;r3 As==10
    68f4:	80 00 ca 68 	mova	#26826,	r0	;0x068ca

000068f8 <.L22>:
    68f8:	ae 00 01 00 	adda	#1,	r14	;
    68fc:	78 40 bf ff 	mov.b	#65471,	r8	;#0xffbf
    6900:	58 9e ff ff 	cmp.b	-1(r14),r8	;
    6904:	15 28       	jnc	$+44     	;abs 0x6930
    6906:	0d 93       	cmp	#0,	r13	;r3 As==00
    6908:	07 24       	jz	$+16     	;abs 0x6918
    690a:	81 4f 00 00 	mov	r15,	0(r1)	;
    690e:	81 4b 02 00 	mov	r11,	2(r1)	;
    6912:	cc 01       	mova	r1,	r12	;
    6914:	b0 13 38 5d 	calla	#23864		;0x05d38

00006918 <.L23>:
    6918:	8c 0f fa ff 	mova	#-6,	r12	;0xfffffffa
    691c:	80 18 5c 82 	subx.a	&0x11930,r12	;
    6920:	30 19 
    6922:	ec 0a       	adda	r10,	r12	;
    6924:	b0 13 56 a4 	calla	#42070		;0x0a456
    6928:	a1 00 04 00 	adda	#4,	r1	;
    692c:	28 16       	popm.a	#3,	r10	;20-bit words
    692e:	10 01       	reta			;

00006930 <.L19>:
    6930:	19 53       	inc	r9		;
    6932:	80 00 d2 68 	mova	#26834,	r0	;0x068d2

00006936 <event_unsub.lto_priv.214>:
    6936:	b0 13 9a 68 	calla	#26778		;0x0689a
    693a:	10 01       	reta			;

0000693c <log_event.lto_priv.215>:
    693c:	4a 14       	pushm.a	#5,	r10	;20-bit words
    693e:	b1 00 04 00 	suba	#4,	r1	;
    6942:	ca 0c       	mova	r12,	r10	;
    6944:	2f 4d       	mov	@r13,	r15	;
    6946:	1b 4d 02 00 	mov	2(r13),	r11	;
    694a:	0c 4f       	mov	r15,	r12	;
    694c:	5c 0f       	rrum	#4,	r12	;
    694e:	5c 0f       	rrum	#4,	r12	;
    6950:	4e 4f       	mov.b	r15,	r14	;
    6952:	40 18 1e b3 	bitx.w	#1,	r14	;r3 As==01
    6956:	1b 24       	jz	$+56     	;abs 0x698e
    6958:	69 43       	mov.b	#2,	r9	;r3 As==10

0000695a <.L34>:
    695a:	6e f3       	and.b	#2,	r14	;r3 As==10
    695c:	4d 4e       	mov.b	r14,	r13	;
    695e:	4c 8e       	sub.b	r14,	r12	;
    6960:	4c 89       	sub.b	r9,	r12	;
    6962:	3c f0 ff 00 	and	#255,	r12	;#0x00ff
    6966:	0d 93       	cmp	#0,	r13	;r3 As==00
    6968:	15 24       	jz	$+44     	;abs 0x6994
    696a:	69 42       	mov.b	#4,	r9	;r2 As==10

0000696c <.L35>:
    696c:	40 18 0e 49 	movx.w	r9,	r14	;
    6970:	ee 0a       	adda	r10,	r14	;
    6972:	0c 59       	add	r9,	r12	;

00006974 <.L36>:
    6974:	09 9c       	cmp	r12,	r9	;
    6976:	11 38       	jl	$+36     	;abs 0x699a
    6978:	0d 93       	cmp	#0,	r13	;r3 As==00
    697a:	2c 24       	jz	$+90     	;abs 0x69d4
    697c:	81 4f 00 00 	mov	r15,	0(r1)	;
    6980:	81 4b 02 00 	mov	r11,	2(r1)	;
    6984:	cc 01       	mova	r1,	r12	;
    6986:	b0 13 6e 5d 	calla	#23918		;0x05d6e
    698a:	80 00 d4 69 	mova	#27092,	r0	;0x069d4

0000698e <.L43>:
    698e:	49 43       	clr.b	r9		;
    6990:	80 00 5a 69 	mova	#26970,	r0	;0x0695a

00006994 <.L44>:
    6994:	69 43       	mov.b	#2,	r9	;r3 As==10
    6996:	80 00 6c 69 	mova	#26988,	r0	;0x0696c

0000699a <.L41>:
    699a:	68 4e       	mov.b	@r14,	r8	;
    699c:	47 48       	mov.b	r8,	r7	;
    699e:	77 50 40 00 	add.b	#64,	r7	;#0x0040
    69a2:	76 40 32 00 	mov.b	#50,	r6	;#0x0032
    69a6:	46 97       	cmp.b	r7,	r6	;
    69a8:	0c 28       	jnc	$+26     	;abs 0x69c2
    69aa:	77 50 ed ff 	add.b	#65517,	r7	;#0xffed
    69ae:	76 40 0c 00 	mov.b	#12,	r6	;#0x000c
    69b2:	46 97       	cmp.b	r7,	r6	;
    69b4:	06 2c       	jc	$+14     	;abs 0x69c2
    69b6:	ae 00 01 00 	adda	#1,	r14	;
    69ba:	78 50 1d 00 	add.b	#29,	r8	;#0x001d
    69be:	46 98       	cmp.b	r8,	r6	;
    69c0:	15 28       	jnc	$+44     	;abs 0x69ec

000069c2 <.L37>:
    69c2:	0d 93       	cmp	#0,	r13	;r3 As==00
    69c4:	07 24       	jz	$+16     	;abs 0x69d4
    69c6:	81 4f 00 00 	mov	r15,	0(r1)	;
    69ca:	81 4b 02 00 	mov	r11,	2(r1)	;
    69ce:	cc 01       	mova	r1,	r12	;
    69d0:	b0 13 38 5d 	calla	#23864		;0x05d38

000069d4 <.L42>:
    69d4:	8c 0f fa ff 	mova	#-6,	r12	;0xfffffffa
    69d8:	80 18 5c 82 	subx.a	&0x11930,r12	;
    69dc:	30 19 
    69de:	ec 0a       	adda	r10,	r12	;
    69e0:	b0 13 56 a4 	calla	#42070		;0x0a456
    69e4:	a1 00 04 00 	adda	#4,	r1	;
    69e8:	46 16       	popm.a	#5,	r10	;20-bit words
    69ea:	10 01       	reta			;

000069ec <.L38>:
    69ec:	19 53       	inc	r9		;
    69ee:	80 00 74 69 	mova	#26996,	r0	;0x06974

000069f2 <event_sub.lto_priv.213>:
    69f2:	4a 14       	pushm.a	#5,	r10	;20-bit words
    69f4:	b1 00 04 00 	suba	#4,	r1	;
    69f8:	ca 0c       	mova	r12,	r10	;
    69fa:	2f 4d       	mov	@r13,	r15	;
    69fc:	1b 4d 02 00 	mov	2(r13),	r11	;
    6a00:	0c 4f       	mov	r15,	r12	;
    6a02:	5c 0f       	rrum	#4,	r12	;
    6a04:	5c 0f       	rrum	#4,	r12	;
    6a06:	4e 4f       	mov.b	r15,	r14	;
    6a08:	40 18 1e b3 	bitx.w	#1,	r14	;r3 As==01
    6a0c:	1b 24       	jz	$+56     	;abs 0x6a44
    6a0e:	69 43       	mov.b	#2,	r9	;r3 As==10

00006a10 <.L52>:
    6a10:	6e f3       	and.b	#2,	r14	;r3 As==10
    6a12:	4d 4e       	mov.b	r14,	r13	;
    6a14:	4c 8e       	sub.b	r14,	r12	;
    6a16:	4c 89       	sub.b	r9,	r12	;
    6a18:	3c f0 ff 00 	and	#255,	r12	;#0x00ff
    6a1c:	0d 93       	cmp	#0,	r13	;r3 As==00
    6a1e:	15 24       	jz	$+44     	;abs 0x6a4a
    6a20:	69 42       	mov.b	#4,	r9	;r2 As==10

00006a22 <.L53>:
    6a22:	40 18 0e 49 	movx.w	r9,	r14	;
    6a26:	ee 0a       	adda	r10,	r14	;
    6a28:	0c 59       	add	r9,	r12	;

00006a2a <.L54>:
    6a2a:	09 9c       	cmp	r12,	r9	;
    6a2c:	11 38       	jl	$+36     	;abs 0x6a50
    6a2e:	0d 93       	cmp	#0,	r13	;r3 As==00
    6a30:	2c 24       	jz	$+90     	;abs 0x6a8a
    6a32:	81 4f 00 00 	mov	r15,	0(r1)	;
    6a36:	81 4b 02 00 	mov	r11,	2(r1)	;
    6a3a:	cc 01       	mova	r1,	r12	;
    6a3c:	b0 13 6e 5d 	calla	#23918		;0x05d6e
    6a40:	80 00 8a 6a 	mova	#27274,	r0	;0x06a8a

00006a44 <.L61>:
    6a44:	49 43       	clr.b	r9		;
    6a46:	80 00 10 6a 	mova	#27152,	r0	;0x06a10

00006a4a <.L62>:
    6a4a:	69 43       	mov.b	#2,	r9	;r3 As==10
    6a4c:	80 00 22 6a 	mova	#27170,	r0	;0x06a22

00006a50 <.L59>:
    6a50:	68 4e       	mov.b	@r14,	r8	;
    6a52:	47 48       	mov.b	r8,	r7	;
    6a54:	77 50 40 00 	add.b	#64,	r7	;#0x0040
    6a58:	76 40 32 00 	mov.b	#50,	r6	;#0x0032
    6a5c:	46 97       	cmp.b	r7,	r6	;
    6a5e:	0c 28       	jnc	$+26     	;abs 0x6a78
    6a60:	77 50 ed ff 	add.b	#65517,	r7	;#0xffed
    6a64:	76 40 0c 00 	mov.b	#12,	r6	;#0x000c
    6a68:	46 97       	cmp.b	r7,	r6	;
    6a6a:	06 2c       	jc	$+14     	;abs 0x6a78
    6a6c:	ae 00 01 00 	adda	#1,	r14	;
    6a70:	78 50 1d 00 	add.b	#29,	r8	;#0x001d
    6a74:	46 98       	cmp.b	r8,	r6	;
    6a76:	15 28       	jnc	$+44     	;abs 0x6aa2

00006a78 <.L55>:
    6a78:	0d 93       	cmp	#0,	r13	;r3 As==00
    6a7a:	07 24       	jz	$+16     	;abs 0x6a8a
    6a7c:	81 4f 00 00 	mov	r15,	0(r1)	;
    6a80:	81 4b 02 00 	mov	r11,	2(r1)	;
    6a84:	cc 01       	mova	r1,	r12	;
    6a86:	b0 13 38 5d 	calla	#23864		;0x05d38

00006a8a <.L60>:
    6a8a:	8c 0f fa ff 	mova	#-6,	r12	;0xfffffffa
    6a8e:	80 18 5c 82 	subx.a	&0x11930,r12	;
    6a92:	30 19 
    6a94:	ec 0a       	adda	r10,	r12	;
    6a96:	b0 13 56 a4 	calla	#42070		;0x0a456
    6a9a:	a1 00 04 00 	adda	#4,	r1	;
    6a9e:	46 16       	popm.a	#5,	r10	;20-bit words
    6aa0:	10 01       	reta			;

00006aa2 <.L56>:
    6aa2:	19 53       	inc	r9		;
    6aa4:	80 00 2a 6a 	mova	#27178,	r0	;0x06a2a

00006aa8 <get_log.lto_priv.222>:
    6aa8:	4a 14       	pushm.a	#5,	r10	;20-bit words
    6aaa:	04 14       	pushm.a	#1,	r4	;20-bit words
    6aac:	c6 0c       	mova	r12,	r6	;
    6aae:	27 4d       	mov	@r13,	r7	;
    6ab0:	19 4d 02 00 	mov	2(r13),	r9	;
    6ab4:	0a 47       	mov	r7,	r10	;
    6ab6:	5a 07       	rrum	#2,	r10	;
    6ab8:	7a f0 3f 00 	and.b	#63,	r10	;#0x003f
    6abc:	8c 0f fa ff 	mova	#-6,	r12	;0xfffffffa
    6ac0:	80 18 5c 82 	subx.a	&0x11930,r12	;
    6ac4:	30 19 
    6ac6:	88 00 56 a4 	mova	#42070,	r8	;0x0a456
    6aca:	ec 06       	adda	r6,	r12	;
    6acc:	48 13       	calla	r8		;
    6ace:	37 f0 ff 00 	and	#255,	r7	;#0x00ff
    6ad2:	40 18 27 b3 	bitx.w	#2,	r7	;r3 As==10
    6ad6:	0d 24       	jz	$+28     	;abs 0x6af2
    6ad8:	b0 13 d8 5a 	calla	#23256		;0x05ad8
    6adc:	c4 0c       	mova	r12,	r4	;
    6ade:	9c 00 00 00 	cmpa	#0,	r12	;
    6ae2:	0a 20       	jnz	$+22     	;abs 0x6af8
    6ae4:	8c 0f fa ff 	mova	#-6,	r12	;0xfffffffa
    6ae8:	80 18 5c 82 	subx.a	&0x11930,r12	;
    6aec:	30 19 
    6aee:	ec 06       	adda	r6,	r12	;
    6af0:	48 13       	calla	r8		;

00006af2 <.L69>:
    6af2:	04 16       	popm.a	#1,	r4	;20-bit words
    6af4:	46 16       	popm.a	#5,	r10	;20-bit words
    6af6:	10 01       	reta			;

00006af8 <.L71>:
    6af8:	cc 4a 00 00 	mov.b	r10,	0(r12)	;
    6afc:	8e 00 8c dc 	mova	#56460,	r14	;0x0dc8c
    6b00:	dc 4e 51 00 	mov.b	81(r14),2(r12)	;0x00051
    6b04:	02 00 
    6b06:	dc 4e 50 00 	mov.b	80(r14),3(r12)	;0x00050
    6b0a:	03 00 
    6b0c:	dc 4e 4d 00 	mov.b	77(r14),4(r12)	;0x0004d
    6b10:	04 00 
    6b12:	40 18 17 b3 	bitx.w	#1,	r7	;r3 As==01
    6b16:	0d 24       	jz	$+28     	;abs 0x6b32
    6b18:	fc 40 03 00 	mov.b	#3,	1(r12)	;
    6b1c:	01 00 
    6b1e:	7d 40 07 00 	mov.b	#7,	r13	;
    6b22:	b0 13 d8 9d 	calla	#40408		;0x09dd8

00006b26 <.L73>:
    6b26:	0d 49       	mov	r9,	r13	;
    6b28:	cc 04       	mova	r4,	r12	;
    6b2a:	b0 13 74 7c 	calla	#31860		;0x07c74
    6b2e:	80 00 f2 6a 	mova	#27378,	r0	;0x06af2

00006b32 <.L72>:
    6b32:	dc 43 01 00 	mov.b	#1,	1(r12)	;r3 As==01
    6b36:	80 00 26 6b 	mova	#27430,	r0	;0x06b26

00006b3a <get_err.lto_priv.220>:
    6b3a:	5a 14       	pushm.a	#6,	r10	;20-bit words
    6b3c:	c8 0c       	mova	r12,	r8	;
    6b3e:	25 4d       	mov	@r13,	r5	;
    6b40:	19 4d 02 00 	mov	2(r13),	r9	;
    6b44:	07 45       	mov	r5,	r7	;
    6b46:	57 07       	rrum	#2,	r7	;
    6b48:	77 f0 3f 00 	and.b	#63,	r7	;#0x003f
    6b4c:	35 f0 ff 00 	and	#255,	r5	;#0x00ff
    6b50:	86 00 56 a4 	mova	#42070,	r6	;0x0a456
    6b54:	40 18 25 b3 	bitx.w	#2,	r5	;r3 As==10
    6b58:	06 24       	jz	$+14     	;abs 0x6b66
    6b5a:	b0 13 d8 5a 	calla	#23256		;0x05ad8
    6b5e:	ca 0c       	mova	r12,	r10	;
    6b60:	9c 00 00 00 	cmpa	#0,	r12	;
    6b64:	09 20       	jnz	$+20     	;abs 0x6b78

00006b66 <.L78>:
    6b66:	8c 0f fa ff 	mova	#-6,	r12	;0xfffffffa
    6b6a:	80 18 5c 82 	subx.a	&0x11930,r12	;
    6b6e:	30 19 
    6b70:	ec 08       	adda	r8,	r12	;
    6b72:	46 13       	calla	r6		;
    6b74:	55 16       	popm.a	#6,	r10	;20-bit words
    6b76:	10 01       	reta			;

00006b78 <.L79>:
    6b78:	cc 47 00 00 	mov.b	r7,	0(r12)	;
    6b7c:	8e 00 8c dc 	mova	#56460,	r14	;0x0dc8c
    6b80:	dc 4e 51 00 	mov.b	81(r14),2(r12)	;0x00051
    6b84:	02 00 
    6b86:	dc 4e 50 00 	mov.b	80(r14),3(r12)	;0x00050
    6b8a:	03 00 
    6b8c:	dc 4e 4c 00 	mov.b	76(r14),4(r12)	;0x0004c
    6b90:	04 00 
    6b92:	40 18 15 b3 	bitx.w	#1,	r5	;r3 As==01
    6b96:	0d 24       	jz	$+28     	;abs 0x6bb2
    6b98:	fc 40 03 00 	mov.b	#3,	1(r12)	;
    6b9c:	01 00 
    6b9e:	7d 40 07 00 	mov.b	#7,	r13	;
    6ba2:	b0 13 d8 9d 	calla	#40408		;0x09dd8

00006ba6 <.L82>:
    6ba6:	0d 49       	mov	r9,	r13	;
    6ba8:	cc 0a       	mova	r10,	r12	;
    6baa:	b0 13 74 7c 	calla	#31860		;0x07c74
    6bae:	80 00 66 6b 	mova	#27494,	r0	;0x06b66

00006bb2 <.L81>:
    6bb2:	dc 43 01 00 	mov.b	#1,	1(r12)	;r3 As==01
    6bb6:	80 00 a6 6b 	mova	#27558,	r0	;0x06ba6

00006bba <get_time.lto_priv.219>:
    6bba:	4a 14       	pushm.a	#5,	r10	;20-bit words
    6bbc:	29 4d       	mov	@r13,	r9	;
    6bbe:	17 4d 02 00 	mov	2(r13),	r7	;
    6bc2:	06 49       	mov	r9,	r6	;
    6bc4:	56 07       	rrum	#2,	r6	;
    6bc6:	76 f0 3f 00 	and.b	#63,	r6	;#0x003f
    6bca:	08 49       	mov	r9,	r8	;
    6bcc:	58 0f       	rrum	#4,	r8	;
    6bce:	58 0f       	rrum	#4,	r8	;
    6bd0:	8e 0f fa ff 	mova	#-6,	r14	;0xfffffffa
    6bd4:	80 18 5e 82 	subx.a	&0x11930,r14	;
    6bd8:	30 19 
    6bda:	ec 0e       	adda	r14,	r12	;
    6bdc:	b0 13 56 a4 	calla	#42070		;0x0a456
    6be0:	39 f0 ff 00 	and	#255,	r9	;#0x00ff
    6be4:	40 18 29 b3 	bitx.w	#2,	r9	;r3 As==10
    6be8:	2c 24       	jz	$+90     	;abs 0x6c42
    6bea:	b0 13 d8 5a 	calla	#23256		;0x05ad8
    6bee:	ca 0c       	mova	r12,	r10	;
    6bf0:	9c 00 00 00 	cmpa	#0,	r12	;
    6bf4:	26 24       	jz	$+78     	;abs 0x6c42
    6bf6:	cc 46 00 00 	mov.b	r6,	0(r12)	;
    6bfa:	8e 00 8c dc 	mova	#56460,	r14	;0x0dc8c
    6bfe:	dc 4e 51 00 	mov.b	81(r14),2(r12)	;0x00051
    6c02:	02 00 
    6c04:	dc 4e 50 00 	mov.b	80(r14),3(r12)	;0x00050
    6c08:	03 00 
    6c0a:	68 53       	incd.b	r8		;
    6c0c:	4d 48       	mov.b	r8,	r13	;
    6c0e:	cc 48 01 00 	mov.b	r8,	1(r12)	;
    6c12:	dc 4e 76 00 	mov.b	118(r14),4(r12)	;0x00076
    6c16:	04 00 
    6c18:	dc 4e 75 00 	mov.b	117(r14),5(r12)	;0x00075
    6c1c:	05 00 
    6c1e:	dc 4e 74 00 	mov.b	116(r14),6(r12)	;0x00074
    6c22:	06 00 
    6c24:	dc 4e 73 00 	mov.b	115(r14),7(r12)	;0x00073
    6c28:	07 00 
    6c2a:	40 18 19 b3 	bitx.w	#1,	r9	;r3 As==01
    6c2e:	05 24       	jz	$+12     	;abs 0x6c3a
    6c30:	2d 52       	add	#4,	r13	;r2 As==10
    6c32:	4d 0e       	rlam.a	#4,	r13	;
    6c34:	4d 0d       	rram.a	#4,	r13	;
    6c36:	b0 13 d8 9d 	calla	#40408		;0x09dd8

00006c3a <.L90>:
    6c3a:	0d 47       	mov	r7,	r13	;
    6c3c:	cc 0a       	mova	r10,	r12	;
    6c3e:	b0 13 74 7c 	calla	#31860		;0x07c74

00006c42 <.L86>:
    6c42:	46 16       	popm.a	#5,	r10	;20-bit words
    6c44:	10 01       	reta			;

00006c46 <set_time.lto_priv.218>:
    6c46:	5a 14       	pushm.a	#6,	r10	;20-bit words
    6c48:	2a 4d       	mov	@r13,	r10	;
    6c4a:	19 4d 02 00 	mov	2(r13),	r9	;
    6c4e:	05 4a       	mov	r10,	r5	;
    6c50:	55 07       	rrum	#2,	r5	;
    6c52:	75 f0 3f 00 	and.b	#63,	r5	;#0x003f
    6c56:	07 4a       	mov	r10,	r7	;
    6c58:	57 0f       	rrum	#4,	r7	;
    6c5a:	57 0f       	rrum	#4,	r7	;
    6c5c:	3a f0 ff 00 	and	#255,	r10	;#0x00ff
    6c60:	46 4a       	mov.b	r10,	r6	;
    6c62:	66 f3       	and.b	#2,	r6	;r3 As==10
    6c64:	36 f0 ff 00 	and	#255,	r6	;#0x00ff
    6c68:	06 93       	cmp	#0,	r6	;r3 As==00
    6c6a:	3c 24       	jz	$+122    	;abs 0x6ce4
    6c6c:	6e 42       	mov.b	#4,	r14	;r2 As==10

00006c6e <.L98>:
    6c6e:	40 18 0e 4e 	movx.w	r14,	r14	;
    6c72:	ee 0c       	adda	r12,	r14	;
    6c74:	88 00 8c dc 	mova	#56460,	r8	;0x0dc8c
    6c78:	e8 4e 76 00 	mov.b	@r14,	118(r8)	; 0x0076
    6c7c:	d8 4e 01 00 	mov.b	1(r14),	117(r8)	; 0x0075
    6c80:	75 00 
    6c82:	d8 4e 02 00 	mov.b	2(r14),	116(r8)	; 0x0074
    6c86:	74 00 
    6c88:	d8 4e 03 00 	mov.b	3(r14),	115(r8)	; 0x0073
    6c8c:	73 00 
    6c8e:	8e 0f fa ff 	mova	#-6,	r14	;0xfffffffa
    6c92:	80 18 5e 82 	subx.a	&0x11930,r14	;
    6c96:	30 19 
    6c98:	ec 0e       	adda	r14,	r12	;
    6c9a:	b0 13 56 a4 	calla	#42070		;0x0a456
    6c9e:	06 93       	cmp	#0,	r6	;r3 As==00
    6ca0:	1f 24       	jz	$+64     	;abs 0x6ce0
    6ca2:	b0 13 d8 5a 	calla	#23256		;0x05ad8
    6ca6:	c6 0c       	mova	r12,	r6	;
    6ca8:	9c 00 00 00 	cmpa	#0,	r12	;
    6cac:	19 24       	jz	$+52     	;abs 0x6ce0
    6cae:	cc 45 00 00 	mov.b	r5,	0(r12)	;
    6cb2:	dc 48 51 00 	mov.b	81(r8),	2(r12)	;0x00051
    6cb6:	02 00 
    6cb8:	dc 48 50 00 	mov.b	80(r8),	3(r12)	;0x00050
    6cbc:	03 00 
    6cbe:	77 50 fe ff 	add.b	#65534,	r7	;#0xfffe
    6cc2:	4d 47       	mov.b	r7,	r13	;
    6cc4:	cc 47 01 00 	mov.b	r7,	1(r12)	;
    6cc8:	40 18 1a b3 	bitx.w	#1,	r10	;r3 As==01
    6ccc:	05 24       	jz	$+12     	;abs 0x6cd8
    6cce:	2d 52       	add	#4,	r13	;r2 As==10
    6cd0:	4d 0e       	rlam.a	#4,	r13	;
    6cd2:	4d 0d       	rram.a	#4,	r13	;
    6cd4:	b0 13 d8 9d 	calla	#40408		;0x09dd8

00006cd8 <.L102>:
    6cd8:	0d 49       	mov	r9,	r13	;
    6cda:	cc 06       	mova	r6,	r12	;
    6cdc:	b0 13 74 7c 	calla	#31860		;0x07c74

00006ce0 <.L97>:
    6ce0:	55 16       	popm.a	#6,	r10	;20-bit words
    6ce2:	10 01       	reta			;

00006ce4 <.L103>:
    6ce4:	6e 43       	mov.b	#2,	r14	;r3 As==10
    6ce6:	80 00 6e 6c 	mova	#27758,	r0	;0x06c6e

00006cea <get_chan.lto_priv.211>:
    6cea:	4a 14       	pushm.a	#5,	r10	;20-bit words
    6cec:	04 14       	pushm.a	#1,	r4	;20-bit words
    6cee:	b1 00 04 00 	suba	#4,	r1	;
    6cf2:	ca 0c       	mova	r12,	r10	;
    6cf4:	2e 4d       	mov	@r13,	r14	;
    6cf6:	17 4d 02 00 	mov	2(r13),	r7	;
    6cfa:	09 4e       	mov	r14,	r9	;
    6cfc:	59 07       	rrum	#2,	r9	;
    6cfe:	79 f0 3f 00 	and.b	#63,	r9	;#0x003f
    6d02:	46 4e       	mov.b	r14,	r6	;
    6d04:	88 00 56 a4 	mova	#42070,	r8	;0x0a456
    6d08:	40 18 26 b3 	bitx.w	#2,	r6	;r3 As==10
    6d0c:	1c 24       	jz	$+58     	;abs 0x6d46
    6d0e:	5c 4c 04 00 	mov.b	4(r12),	r12	;
    6d12:	4d 4c       	mov.b	r12,	r13	;
    6d14:	7d 50 c0 ff 	add.b	#65472,	r13	;#0xffc0
    6d18:	7f 40 36 00 	mov.b	#54,	r15	;#0x0036
    6d1c:	4f 9d       	cmp.b	r13,	r15	;
    6d1e:	0c 28       	jnc	$+26     	;abs 0x6d38
    6d20:	7d 50 ef ff 	add.b	#65519,	r13	;#0xffef
    6d24:	7f 40 0e 00 	mov.b	#14,	r15	;#0x000e
    6d28:	4f 9d       	cmp.b	r13,	r15	;
    6d2a:	06 2c       	jc	$+14     	;abs 0x6d38
    6d2c:	7c 50 9d ff 	add.b	#65437,	r12	;#0xff9d
    6d30:	7d 40 0c 00 	mov.b	#12,	r13	;#0x000c
    6d34:	4d 9c       	cmp.b	r12,	r13	;
    6d36:	10 28       	jnc	$+34     	;abs 0x6d58

00006d38 <.L112>:
    6d38:	81 4e 00 00 	mov	r14,	0(r1)	;
    6d3c:	81 47 02 00 	mov	r7,	2(r1)	;
    6d40:	cc 01       	mova	r1,	r12	;
    6d42:	b0 13 38 5d 	calla	#23864		;0x05d38

00006d46 <.L111>:
    6d46:	8c 0f fa ff 	mova	#-6,	r12	;0xfffffffa
    6d4a:	80 18 5c 82 	subx.a	&0x11930,r12	;
    6d4e:	30 19 
    6d50:	ec 0a       	adda	r10,	r12	;
    6d52:	48 13       	calla	r8		;
    6d54:	80 00 a4 6d 	mova	#28068,	r0	;0x06da4

00006d58 <.L113>:
    6d58:	b0 13 d8 5a 	calla	#23256		;0x05ad8
    6d5c:	c4 0c       	mova	r12,	r4	;
    6d5e:	9c 00 00 00 	cmpa	#0,	r12	;
    6d62:	f1 27       	jz	$-28     	;abs 0x6d46
    6d64:	cc 49 00 00 	mov.b	r9,	0(r12)	;
    6d68:	8c 00 8c dc 	mova	#56460,	r12	;0x0dc8c
    6d6c:	d4 4c 51 00 	mov.b	81(r12),2(r4)	;0x00051
    6d70:	02 00 
    6d72:	d4 4c 50 00 	mov.b	80(r12),3(r4)	;0x00050
    6d76:	03 00 
    6d78:	8c 0f fa ff 	mova	#-6,	r12	;0xfffffffa
    6d7c:	80 18 5c 82 	subx.a	&0x11930,r12	;
    6d80:	30 19 
    6d82:	ec 0a       	adda	r10,	r12	;
    6d84:	48 13       	calla	r8		;
    6d86:	40 18 16 b3 	bitx.w	#1,	r6	;r3 As==01
    6d8a:	11 24       	jz	$+36     	;abs 0x6dae
    6d8c:	f4 40 07 00 	mov.b	#7,	1(r4)	;
    6d90:	01 00 
    6d92:	7d 40 0b 00 	mov.b	#11,	r13	;#0x000b
    6d96:	cc 04       	mova	r4,	r12	;
    6d98:	b0 13 d8 9d 	calla	#40408		;0x09dd8

00006d9c <.L117>:
    6d9c:	0d 47       	mov	r7,	r13	;
    6d9e:	cc 04       	mova	r4,	r12	;
    6da0:	b0 13 74 7c 	calla	#31860		;0x07c74

00006da4 <.L110>:
    6da4:	a1 00 04 00 	adda	#4,	r1	;
    6da8:	04 16       	popm.a	#1,	r4	;20-bit words
    6daa:	46 16       	popm.a	#5,	r10	;20-bit words
    6dac:	10 01       	reta			;

00006dae <.L116>:
    6dae:	f4 40 05 00 	mov.b	#5,	1(r4)	;
    6db2:	01 00 
    6db4:	80 00 9c 6d 	mova	#28060,	r0	;0x06d9c

00006db8 <get_telem.lto_priv.229>:
    6db8:	2a 14       	pushm.a	#3,	r10	;20-bit words
    6dba:	b1 00 04 00 	suba	#4,	r1	;
    6dbe:	28 4d       	mov	@r13,	r8	;
    6dc0:	19 4d 02 00 	mov	2(r13),	r9	;
    6dc4:	0a 48       	mov	r8,	r10	;
    6dc6:	6a f3       	and.b	#2,	r10	;r3 As==10
    6dc8:	3a f0 ff 00 	and	#255,	r10	;#0x00ff
    6dcc:	8e 0f fa ff 	mova	#-6,	r14	;0xfffffffa
    6dd0:	80 18 5e 82 	subx.a	&0x11930,r14	;
    6dd4:	30 19 
    6dd6:	ec 0e       	adda	r14,	r12	;
    6dd8:	b0 13 56 a4 	calla	#42070		;0x0a456
    6ddc:	b0 13 fe a1 	calla	#41470		;0x0a1fe
    6de0:	b0 13 f4 a1 	calla	#41460		;0x0a1f4
    6de4:	0a 93       	cmp	#0,	r10	;r3 As==00
    6de6:	07 24       	jz	$+16     	;abs 0x6df6
    6de8:	81 48 00 00 	mov	r8,	0(r1)	;
    6dec:	81 49 02 00 	mov	r9,	2(r1)	;
    6df0:	cc 01       	mova	r1,	r12	;
    6df2:	b0 13 6e 5d 	calla	#23918		;0x05d6e

00006df6 <.L118>:
    6df6:	a1 00 04 00 	adda	#4,	r1	;
    6dfa:	28 16       	popm.a	#3,	r10	;20-bit words
    6dfc:	10 01       	reta			;

00006dfe <store_telem.lto_priv.228>:
    6dfe:	6a 14       	pushm.a	#7,	r10	;20-bit words
    6e00:	b1 00 02 00 	suba	#2,	r1	;
    6e04:	c4 0c       	mova	r12,	r4	;
    6e06:	29 4d       	mov	@r13,	r9	;
    6e08:	91 4d 02 00 	mov	2(r13),	0(r1)	;
    6e0c:	00 00 
    6e0e:	05 49       	mov	r9,	r5	;
    6e10:	55 0f       	rrum	#4,	r5	;
    6e12:	55 0f       	rrum	#4,	r5	;
    6e14:	4c 49       	mov.b	r9,	r12	;
    6e16:	4e 4c       	mov.b	r12,	r14	;
    6e18:	6e f3       	and.b	#2,	r14	;r3 As==10
    6e1a:	48 4e       	mov.b	r14,	r8	;
    6e1c:	08 93       	cmp	#0,	r8	;r3 As==00
    6e1e:	1a 24       	jz	$+54     	;abs 0x6e54
    6e20:	67 42       	mov.b	#4,	r7	;r2 As==10

00006e22 <.L124>:
    6e22:	40 18 1c b3 	bitx.w	#1,	r12	;r3 As==01
    6e26:	19 24       	jz	$+52     	;abs 0x6e5a
    6e28:	6c 43       	mov.b	#2,	r12	;r3 As==10

00006e2a <.L125>:
    6e2a:	45 8e       	sub.b	r14,	r5	;
    6e2c:	45 8c       	sub.b	r12,	r5	;
    6e2e:	46 45       	mov.b	r5,	r6	;
    6e30:	b0 13 d8 5a 	calla	#23256		;0x05ad8
    6e34:	ca 0c       	mova	r12,	r10	;
    6e36:	9c 00 00 00 	cmpa	#0,	r12	;
    6e3a:	12 20       	jnz	$+38     	;abs 0x6e60
    6e3c:	8c 0f fa ff 	mova	#-6,	r12	;0xfffffffa
    6e40:	80 18 5c 82 	subx.a	&0x11930,r12	;
    6e44:	30 19 
    6e46:	ec 04       	adda	r4,	r12	;
    6e48:	b0 13 56 a4 	calla	#42070		;0x0a456

00006e4c <.L123>:
    6e4c:	a1 00 02 00 	adda	#2,	r1	;
    6e50:	64 16       	popm.a	#7,	r10	;20-bit words
    6e52:	10 01       	reta			;

00006e54 <.L130>:
    6e54:	67 43       	mov.b	#2,	r7	;r3 As==10
    6e56:	80 00 22 6e 	mova	#28194,	r0	;0x06e22

00006e5a <.L131>:
    6e5a:	4c 43       	clr.b	r12		;
    6e5c:	80 00 2a 6e 	mova	#28202,	r0	;0x06e2a

00006e60 <.L126>:
    6e60:	40 18 05 45 	movx.w	r5,	r5	;
    6e64:	40 18 0d 47 	movx.w	r7,	r13	;
    6e68:	ce 05       	mova	r5,	r14	;
    6e6a:	ed 04       	adda	r4,	r13	;
    6e6c:	ac 00 05 00 	adda	#5,	r12	;
    6e70:	b0 13 98 b4 	calla	#46232		;0x0b498
    6e74:	40 18 3e 40 	movx.w	#251,	r14	;0x000fb
    6e78:	fb 00 
    6e7a:	40 18 0e 86 	subx.w	r6,	r14	;
    6e7e:	4e 0e       	rlam.a	#4,	r14	;
    6e80:	4e 0d       	rram.a	#4,	r14	;
    6e82:	cc 05       	mova	r5,	r12	;
    6e84:	ac 00 05 00 	adda	#5,	r12	;
    6e88:	4d 43       	clr.b	r13		;
    6e8a:	ec 0a       	adda	r10,	r12	;
    6e8c:	b0 13 b6 b4 	calla	#46262		;0x0b4b6
    6e90:	40 18 82 49 	movx.w	r9,	&0x0ddd6;
    6e94:	d6 dd 
    6e96:	40 18 a2 41 	movx.w	@r1,	&0x0ddd8;
    6e9a:	d8 dd 
    6e9c:	8c 0f fa ff 	mova	#-6,	r12	;0xfffffffa
    6ea0:	80 18 5c 82 	subx.a	&0x11930,r12	;
    6ea4:	30 19 
    6ea6:	ec 04       	adda	r4,	r12	;
    6ea8:	b0 13 56 a4 	calla	#42070		;0x0a456
    6eac:	b0 13 fe a1 	calla	#41470		;0x0a1fe
    6eb0:	08 93       	cmp	#0,	r8	;r3 As==00
    6eb2:	15 24       	jz	$+44     	;abs 0x6ede
    6eb4:	8e 00 38 68 	mova	#26680,	r14	;0x06838

00006eb8 <.L128>:
    6eb8:	41 18 d2 43 	movx.b	#1,	&0x1163e;r3 As==01
    6ebc:	3e 16 
    6ebe:	cc 0a       	mova	r10,	r12	;
    6ec0:	4e 13       	calla	r14		;
    6ec2:	41 18 c2 43 	movx.b	#0,	&0x1163e;r3 As==00
    6ec6:	3e 16 
    6ec8:	81 18 d2 92 	cmpx.a	&0x11a30,&0x11a2c;
    6ecc:	30 1a 2c 1a 
    6ed0:	02 24       	jz	$+6      	;abs 0x6ed6
    6ed2:	b0 13 c0 8d 	calla	#36288		;0x08dc0

00006ed6 <.L129>:
    6ed6:	b0 13 f4 a1 	calla	#41460		;0x0a1f4
    6eda:	80 00 4c 6e 	mova	#28236,	r0	;0x06e4c

00006ede <.L132>:
    6ede:	8e 00 78 68 	mova	#26744,	r14	;0x06878
    6ee2:	80 00 b8 6e 	mova	#28344,	r0	;0x06eb8

00006ee6 <upload_fw.lto_priv.224>:
    6ee6:	6a 14       	pushm.a	#7,	r10	;20-bit words
    6ee8:	b1 00 14 00 	suba	#20,	r1	;0x00014
    6eec:	ca 0c       	mova	r12,	r10	;
    6eee:	26 4d       	mov	@r13,	r6	;
    6ef0:	91 4d 02 00 	mov	2(r13),	10(r1)	; 0x000a
    6ef4:	0a 00 
    6ef6:	09 46       	mov	r6,	r9	;
    6ef8:	59 0f       	rrum	#4,	r9	;
    6efa:	59 0f       	rrum	#4,	r9	;
    6efc:	81 49 00 00 	mov	r9,	0(r1)	;
    6f00:	45 46       	mov.b	r6,	r5	;
    6f02:	44 45       	mov.b	r5,	r4	;
    6f04:	64 f3       	and.b	#2,	r4	;r3 As==10
    6f06:	34 f0 ff 00 	and	#255,	r4	;#0x00ff
    6f0a:	04 93       	cmp	#0,	r4	;r3 As==00
    6f0c:	41 24       	jz	$+132    	;abs 0x6f90
    6f0e:	6d 42       	mov.b	#4,	r13	;r2 As==10

00006f10 <.L134>:
    6f10:	00 18 c1 4d 	movx.a	r13,	6(r1)	;
    6f14:	06 00 
    6f16:	38 01 06 00 	mova	6(r1),	r8	;
    6f1a:	e8 0a       	adda	r10,	r8	;
    6f1c:	79 40 18 00 	mov.b	#24,	r9	;#0x0018
    6f20:	81 43 04 00 	mov	#0,	4(r1)	;r3 As==00
    6f24:	47 43       	clr.b	r7		;

00006f26 <.L135>:
    6f26:	6c 48       	mov.b	@r8,	r12	;
    6f28:	0d 43       	clr	r13		;
    6f2a:	0e 49       	mov	r9,	r14	;
    6f2c:	0f 43       	clr	r15		;
    6f2e:	b0 13 7e b3 	calla	#45950		;0x0b37e
    6f32:	1c d1 04 00 	bis	4(r1),	r12	;
    6f36:	0d d7       	bis	r7,	r13	;
    6f38:	81 4c 04 00 	mov	r12,	4(r1)	;
    6f3c:	07 4d       	mov	r13,	r7	;
    6f3e:	a8 00 01 00 	adda	#1,	r8	;
    6f42:	39 50 f8 ff 	add	#65528,	r9	;#0xfff8
    6f46:	39 90 f8 ff 	cmp	#65528,	r9	;#0xfff8
    6f4a:	ed 23       	jnz	$-36     	;abs 0x6f26
    6f4c:	3c 50 00 bc 	add	#48128,	r12	;#0xbc00
    6f50:	09 4d       	mov	r13,	r9	;
    6f52:	39 63       	addc	#-1,	r9	;r3 As==11
    6f54:	09 93       	cmp	#0,	r9	;r3 As==00
    6f56:	04 20       	jnz	$+10     	;abs 0x6f60
    6f58:	3d 40 ff fb 	mov	#64511,	r13	;#0xfbff
    6f5c:	0d 9c       	cmp	r12,	r13	;
    6f5e:	1b 2c       	jc	$+56     	;abs 0x6f96

00006f60 <.L147>:
    6f60:	04 93       	cmp	#0,	r4	;r3 As==00
    6f62:	0a 24       	jz	$+22     	;abs 0x6f78
    6f64:	81 46 0c 00 	mov	r6,	12(r1)	; 0x000c
    6f68:	91 41 0a 00 	mov	10(r1),	14(r1)	;0x0000a, 0x000e
    6f6c:	0e 00 
    6f6e:	cc 01       	mova	r1,	r12	;
    6f70:	ac 00 0c 00 	adda	#12,	r12	;0x0000c
    6f74:	b0 13 38 5d 	calla	#23864		;0x05d38

00006f78 <.L153>:
    6f78:	8c 0f fa ff 	mova	#-6,	r12	;0xfffffffa
    6f7c:	80 18 5c 82 	subx.a	&0x11930,r12	;
    6f80:	30 19 
    6f82:	ec 0a       	adda	r10,	r12	;
    6f84:	b0 13 56 a4 	calla	#42070		;0x0a456

00006f88 <.L133>:
    6f88:	a1 00 14 00 	adda	#20,	r1	;0x00014
    6f8c:	64 16       	popm.a	#7,	r10	;20-bit words
    6f8e:	10 01       	reta			;

00006f90 <.L144>:
    6f90:	6d 43       	mov.b	#2,	r13	;r3 As==10
    6f92:	80 00 10 6f 	mova	#28432,	r0	;0x06f10

00006f96 <.L152>:
    6f96:	b0 13 d8 5a 	calla	#23256		;0x05ad8
    6f9a:	c8 0c       	mova	r12,	r8	;
    6f9c:	9c 00 00 00 	cmpa	#0,	r12	;
    6fa0:	eb 27       	jz	$-40     	;abs 0x6f78
    6fa2:	b0 13 fe a1 	calla	#41470		;0x0a1fe
    6fa6:	cc 01       	mova	r1,	r12	;
    6fa8:	ac 00 10 00 	adda	#16,	r12	;0x00010
    6fac:	b0 13 2e b2 	calla	#45614		;0x0b22e
    6fb0:	b0 13 f4 a1 	calla	#41460		;0x0a1f4
    6fb4:	3e 01 10 00 	mova	16(r1),	r14	;0x00010
    6fb8:	2c 41       	mov	@r1,	r12	;
    6fba:	0c 84       	sub	r4,	r12	;
    6fbc:	40 18 15 b3 	bitx.w	#1,	r5	;r3 As==01
    6fc0:	01 24       	jz	$+4      	;abs 0x6fc4
    6fc2:	69 43       	mov.b	#2,	r9	;r3 As==10

00006fc4 <.L141>:
    6fc4:	0c 89       	sub	r9,	r12	;
    6fc6:	3c 50 fc ff 	add	#65532,	r12	;#0xfffc
    6fca:	09 4c       	mov	r12,	r9	;
    6fcc:	49 0e       	rlam.a	#4,	r9	;
    6fce:	49 0d       	rram.a	#4,	r9	;
    6fd0:	80 18 79 f0 	andx.a	#131071,r9	;0x1ffff
    6fd4:	ff ff 
    6fd6:	71 09 00 00 	mova	r9,	0(r1)	;
    6fda:	0c 49       	mov	r9,	r12	;
    6fdc:	41 18 0c 5c 	rpt #2 { rlax.w	r12		;
    6fe0:	1d 4e 04 00 	mov	4(r14),	r13	;
    6fe4:	7d f0 03 00 	and.b	#3,	r13	;
    6fe8:	0d dc       	bis	r12,	r13	;
    6fea:	8e 4d 04 00 	mov	r13,	4(r14)	;
    6fee:	0f 49       	mov	r9,	r15	;
    6ff0:	5f 03       	rrum	#1,	r15	;
    6ff2:	4c 18 0f 11 	rpt #13 { rrax.w	r15		;
    6ff6:	5d 4e 06 00 	mov.b	6(r14),	r13	;
    6ffa:	7d f0 f8 ff 	and.b	#65528,	r13	;#0xfff8
    6ffe:	09 01       	mova	@r1,	r9	;
    7000:	09 14       	pushm.a	#1,	r9	;20-bit words
    7002:	0c 17       	popm	#1,	r12	;16-bit words
    7004:	0c 17       	popm	#1,	r12	;16-bit words
    7006:	5c f3       	and.b	#1,	r12	;r3 As==01
    7008:	41 18 0c 5c 	rpt #2 { rlax.w	r12		;
    700c:	4d df       	bis.b	r15,	r13	;
    700e:	4d dc       	bis.b	r12,	r13	;
    7010:	ce 4d 06 00 	mov.b	r13,	6(r14)	;
    7014:	3d 01 06 00 	mova	6(r1),	r13	;
    7018:	ad 00 04 00 	adda	#4,	r13	;
    701c:	ce 09       	mova	r9,	r14	;
    701e:	ed 0a       	adda	r10,	r13	;
    7020:	cc 08       	mova	r8,	r12	;
    7022:	b0 13 98 b4 	calla	#46232		;0x0b498
    7026:	8c 0f fa ff 	mova	#-6,	r12	;0xfffffffa
    702a:	80 18 5c 82 	subx.a	&0x11930,r12	;
    702e:	30 19 
    7030:	ec 0a       	adda	r10,	r12	;
    7032:	b0 13 56 a4 	calla	#42070		;0x0a456
    7036:	40 18 82 46 	movx.w	r6,	&0x0ddc8;
    703a:	c8 dd 
    703c:	40 18 92 41 	movx.w	10(r1),	&0x0ddca;0x0000a
    7040:	0a 00 ca dd 
    7044:	3c 01 10 00 	mova	16(r1),	r12	;0x00010
    7048:	19 41 04 00 	mov	4(r1),	r9	;
    704c:	39 50 00 c0 	add	#49152,	r9	;#0xc000
    7050:	8c 49 00 00 	mov	r9,	0(r12)	;
    7054:	07 63       	adc	r7		;
    7056:	8c 47 02 00 	mov	r7,	2(r12)	;
    705a:	ec c3 04 00 	bic.b	#2,	4(r12)	;r3 As==10
    705e:	7c 08 08 00 	mova	r8,	8(r12)	;
    7062:	04 93       	cmp	#0,	r4	;r3 As==00
    7064:	0e 24       	jz	$+30     	;abs 0x7082
    7066:	8e 00 58 68 	mova	#26712,	r14	;0x06858

0000706a <.L142>:
    706a:	7c 0e 0c 00 	mova	r14,	12(r12)	; 0x0000c
    706e:	b0 13 fe a1 	calla	#41470		;0x0a1fe
    7072:	3c 01 10 00 	mova	16(r1),	r12	;0x00010
    7076:	b0 13 98 99 	calla	#39320		;0x09998
    707a:	b0 13 f4 a1 	calla	#41460		;0x0a1f4
    707e:	80 00 88 6f 	mova	#28552,	r0	;0x06f88

00007082 <.L146>:
    7082:	8e 00 8a 68 	mova	#26762,	r14	;0x0688a
    7086:	80 00 6a 70 	mova	#28778,	r0	;0x0706a

0000708a <set_log.lto_priv.223>:
    708a:	3a 14       	pushm.a	#4,	r10	;20-bit words
    708c:	b1 00 04 00 	suba	#4,	r1	;
    7090:	2a 4d       	mov	@r13,	r10	;
    7092:	18 4d 02 00 	mov	2(r13),	r8	;
    7096:	49 4a       	mov.b	r10,	r9	;
    7098:	69 f3       	and.b	#2,	r9	;r3 As==10
    709a:	39 f0 ff 00 	and	#255,	r9	;#0x00ff
    709e:	09 93       	cmp	#0,	r9	;r3 As==00
    70a0:	1e 20       	jnz	$+62     	;abs 0x70de
    70a2:	6e 43       	mov.b	#2,	r14	;r3 As==10

000070a4 <.L155>:
    70a4:	40 18 0e 4e 	movx.w	r14,	r14	;
    70a8:	ee 0c       	adda	r12,	r14	;
    70aa:	67 4e       	mov.b	@r14,	r7	;
    70ac:	8e 0f fa ff 	mova	#-6,	r14	;0xfffffffa
    70b0:	80 18 5e 82 	subx.a	&0x11930,r14	;
    70b4:	30 19 
    70b6:	ec 0e       	adda	r14,	r12	;
    70b8:	b0 13 56 a4 	calla	#42070		;0x0a456
    70bc:	7c 40 1f 00 	mov.b	#31,	r12	;#0x001f
    70c0:	4c 97       	cmp.b	r7,	r12	;
    70c2:	10 2c       	jc	$+34     	;abs 0x70e4
    70c4:	09 93       	cmp	#0,	r9	;r3 As==00
    70c6:	07 24       	jz	$+16     	;abs 0x70d6
    70c8:	81 4a 00 00 	mov	r10,	0(r1)	;
    70cc:	81 48 02 00 	mov	r8,	2(r1)	;
    70d0:	cc 01       	mova	r1,	r12	;
    70d2:	b0 13 38 5d 	calla	#23864		;0x05d38

000070d6 <.L154>:
    70d6:	a1 00 04 00 	adda	#4,	r1	;
    70da:	37 16       	popm.a	#4,	r10	;20-bit words
    70dc:	10 01       	reta			;

000070de <.L160>:
    70de:	6e 42       	mov.b	#4,	r14	;r2 As==10
    70e0:	80 00 a4 70 	mova	#28836,	r0	;0x070a4

000070e4 <.L156>:
    70e4:	40 18 c2 47 	movx.b	r7,	&0x0dcd9;
    70e8:	d9 dc 
    70ea:	b0 13 fe a1 	calla	#41470		;0x0a1fe
    70ee:	b0 13 f4 a1 	calla	#41460		;0x0a1f4
    70f2:	09 93       	cmp	#0,	r9	;r3 As==00
    70f4:	f0 27       	jz	$-30     	;abs 0x70d6
    70f6:	81 4a 00 00 	mov	r10,	0(r1)	;
    70fa:	81 48 02 00 	mov	r8,	2(r1)	;
    70fe:	cc 01       	mova	r1,	r12	;
    7100:	b0 13 6e 5d 	calla	#23918		;0x05d6e
    7104:	80 00 d6 70 	mova	#28886,	r0	;0x070d6

00007108 <set_err.lto_priv.221>:
    7108:	3a 14       	pushm.a	#4,	r10	;20-bit words
    710a:	b1 00 04 00 	suba	#4,	r1	;
    710e:	2a 4d       	mov	@r13,	r10	;
    7110:	18 4d 02 00 	mov	2(r13),	r8	;
    7114:	49 4a       	mov.b	r10,	r9	;
    7116:	69 f3       	and.b	#2,	r9	;r3 As==10
    7118:	39 f0 ff 00 	and	#255,	r9	;#0x00ff
    711c:	09 93       	cmp	#0,	r9	;r3 As==00
    711e:	1e 20       	jnz	$+62     	;abs 0x715c
    7120:	6e 43       	mov.b	#2,	r14	;r3 As==10

00007122 <.L165>:
    7122:	40 18 0e 4e 	movx.w	r14,	r14	;
    7126:	ee 0c       	adda	r12,	r14	;
    7128:	67 4e       	mov.b	@r14,	r7	;
    712a:	8e 0f fa ff 	mova	#-6,	r14	;0xfffffffa
    712e:	80 18 5e 82 	subx.a	&0x11930,r14	;
    7132:	30 19 
    7134:	ec 0e       	adda	r14,	r12	;
    7136:	b0 13 56 a4 	calla	#42070		;0x0a456
    713a:	7c 40 1f 00 	mov.b	#31,	r12	;#0x001f
    713e:	4c 97       	cmp.b	r7,	r12	;
    7140:	10 2c       	jc	$+34     	;abs 0x7162
    7142:	09 93       	cmp	#0,	r9	;r3 As==00
    7144:	07 24       	jz	$+16     	;abs 0x7154
    7146:	81 4a 00 00 	mov	r10,	0(r1)	;
    714a:	81 48 02 00 	mov	r8,	2(r1)	;
    714e:	cc 01       	mova	r1,	r12	;
    7150:	b0 13 38 5d 	calla	#23864		;0x05d38

00007154 <.L164>:
    7154:	a1 00 04 00 	adda	#4,	r1	;
    7158:	37 16       	popm.a	#4,	r10	;20-bit words
    715a:	10 01       	reta			;

0000715c <.L170>:
    715c:	6e 42       	mov.b	#4,	r14	;r2 As==10
    715e:	80 00 22 71 	mova	#28962,	r0	;0x07122

00007162 <.L166>:
    7162:	40 18 c2 47 	movx.b	r7,	&0x0dcd8;
    7166:	d8 dc 
    7168:	b0 13 fe a1 	calla	#41470		;0x0a1fe
    716c:	b0 13 f4 a1 	calla	#41460		;0x0a1f4
    7170:	09 93       	cmp	#0,	r9	;r3 As==00
    7172:	f0 27       	jz	$-30     	;abs 0x7154
    7174:	81 4a 00 00 	mov	r10,	0(r1)	;
    7178:	81 48 02 00 	mov	r8,	2(r1)	;
    717c:	cc 01       	mova	r1,	r12	;
    717e:	b0 13 6e 5d 	calla	#23918		;0x05d6e
    7182:	80 00 54 71 	mova	#29012,	r0	;0x07154

00007186 <verify_fw.lto_priv.225>:
    7186:	2a 14       	pushm.a	#3,	r10	;20-bit words
    7188:	b1 00 04 00 	suba	#4,	r1	;
    718c:	29 4d       	mov	@r13,	r9	;
    718e:	1a 4d 02 00 	mov	2(r13),	r10	;
    7192:	88 0f fa ff 	mova	#-6,	r8	;0xfffffffa
    7196:	80 18 58 82 	subx.a	&0x11930,r8	;
    719a:	30 19 
    719c:	8e 00 56 a4 	mova	#42070,	r14	;0x0a456
    71a0:	40 18 29 b3 	bitx.w	#2,	r9	;r3 As==10
    71a4:	56 24       	jz	$+174    	;abs 0x7252
    71a6:	5d 4c 04 00 	mov.b	4(r12),	r13	;
    71aa:	47 18 0d 5d 	rpt #8 { rlax.w	r13		;
    71ae:	5f 4c 05 00 	mov.b	5(r12),	r15	;
    71b2:	0f dd       	bis	r13,	r15	;
    71b4:	40 18 82 4f 	movx.w	r15,	&0x0ddd0;
    71b8:	d0 dd 
    71ba:	ec 08       	adda	r8,	r12	;
    71bc:	4e 13       	calla	r14		;
    71be:	41 18 c2 93 	cmpx.b	#0,	&0x11868;r3 As==00
    71c2:	68 18 
    71c4:	08 24       	jz	$+18     	;abs 0x71d6
    71c6:	b0 13 fe a1 	calla	#41470		;0x0a1fe
    71ca:	81 18 f2 40 	movx.a	#65868,	&0x11a36;0x1014c
    71ce:	4c 01 36 1a 

000071d2 <.L177>:
    71d2:	80 00 d2 71 	mova	#29138,	r0	;0x071d2

000071d6 <.L176>:
    71d6:	40 18 b2 43 	movx.w	#-1,	&0x00154;r3 As==11
    71da:	54 01 
    71dc:	41 18 d2 43 	movx.b	#1,	&0x11868;r3 As==01
    71e0:	68 18 
    71e2:	40 18 82 49 	movx.w	r9,	&0x0ddcc;
    71e6:	cc dd 
    71e8:	40 18 82 4a 	movx.w	r10,	&0x0ddce;
    71ec:	ce dd 
    71ee:	88 00 fe a1 	mova	#41470,	r8	;0x0a1fe
    71f2:	48 13       	calla	r8		;
    71f4:	cc 01       	mova	r1,	r12	;
    71f6:	b0 13 2e b2 	calla	#45614		;0x0b22e
    71fa:	8a 00 f4 a1 	mova	#41460,	r10	;0x0a1f4
    71fe:	4a 13       	calla	r10		;
    7200:	0c 01       	mova	@r1,	r12	;
    7202:	bc 40 00 04 	mov	#1024,	0(r12)	;#0x0400
    7206:	00 00 
    7208:	9c 43 02 00 	mov	#1,	2(r12)	;r3 As==01
    720c:	fc d0 03 00 	bis.b	#3,	4(r12)	;
    7210:	04 00 
    7212:	1d 4c 04 00 	mov	4(r12),	r13	;
    7216:	7d f0 03 00 	and.b	#3,	r13	;
    721a:	3d d0 00 f0 	bis	#61440,	r13	;#0xf000
    721e:	8c 4d 04 00 	mov	r13,	4(r12)	;
    7222:	5d 4c 06 00 	mov.b	6(r12),	r13	;
    7226:	7d d0 03 00 	bis.b	#3,	r13	;
    722a:	6d c2       	bic.b	#4,	r13	;r2 As==10
    722c:	cc 4d 06 00 	mov.b	r13,	6(r12)	;
    7230:	00 18 fc 40 	movx.a	#336,	8(r12)	;0x00150
    7234:	50 01 08 00 
    7238:	00 18 fc 40 	movx.a	#29274,	12(r12)	;0x0725a, 0x0000c
    723c:	5a 72 0c 00 
    7240:	48 13       	calla	r8		;
    7242:	0c 01       	mova	@r1,	r12	;
    7244:	b0 13 98 99 	calla	#39320		;0x09998
    7248:	4a 13       	calla	r10		;

0000724a <.L174>:
    724a:	a1 00 04 00 	adda	#4,	r1	;
    724e:	28 16       	popm.a	#3,	r10	;20-bit words
    7250:	10 01       	reta			;

00007252 <.L175>:
    7252:	ec 08       	adda	r8,	r12	;
    7254:	4e 13       	calla	r14		;
    7256:	80 00 4a 72 	mova	#29258,	r0	;0x0724a

0000725a <verify_fw_cb>:
    725a:	2a 14       	pushm.a	#3,	r10	;20-bit words
    725c:	06 14       	pushm.a	#1,	r6	;20-bit words
    725e:	41 18 d2 93 	cmpx.b	#1,	&0x11868;r3 As==01
    7262:	68 18 
    7264:	08 24       	jz	$+18     	;abs 0x7276
    7266:	b0 13 fe a1 	calla	#41470		;0x0a1fe
    726a:	81 18 f2 40 	movx.a	#65860,	&0x11a36;0x10144
    726e:	44 01 36 1a 

00007272 <.L181>:
    7272:	80 00 72 72 	mova	#29298,	r0	;0x07272

00007276 <.L180>:
    7276:	41 18 c2 43 	movx.b	#0,	&0x11868;r3 As==00
    727a:	68 18 
    727c:	40 18 19 42 	movx.w	&0x00156,r9	;
    7280:	56 01 
    7282:	39 e3       	inv	r9		;
    7284:	b0 13 b8 5a 	calla	#23224		;0x05ab8
    7288:	c6 0c       	mova	r12,	r6	;
    728a:	9c 00 00 00 	cmpa	#0,	r12	;
    728e:	10 24       	jz	$+34     	;abs 0x72b0
    7290:	88 00 c8 dd 	mova	#56776,	r8	;0x0ddc8
    7294:	8a 00 be 7a 	mova	#31422,	r10	;0x07abe
    7298:	8d 00 cc dd 	mova	#56780,	r13	;0x0ddcc
    729c:	40 18 82 99 	cmpx.w	r9,	&0x0ddd0;
    72a0:	d0 dd 
    72a2:	09 20       	jnz	$+20     	;abs 0x72b6
    72a4:	b0 13 74 5a 	calla	#23156		;0x05a74

000072a8 <.L187>:
    72a8:	1d 48 02 00 	mov	2(r8),	r13	;
    72ac:	cc 06       	mova	r6,	r12	;
    72ae:	4a 13       	calla	r10		;

000072b0 <.L179>:
    72b0:	06 16       	popm.a	#1,	r6	;20-bit words
    72b2:	28 16       	popm.a	#3,	r10	;20-bit words
    72b4:	10 01       	reta			;

000072b6 <.L183>:
    72b6:	b0 13 36 5a 	calla	#23094		;0x05a36
    72ba:	80 00 a8 72 	mova	#29352,	r0	;0x072a8

000072be <cancel_fw.lto_priv.226>:
    72be:	6a 14       	pushm.a	#7,	r10	;20-bit words
    72c0:	b1 00 08 00 	suba	#8,	r1	;
    72c4:	2a 4d       	mov	@r13,	r10	;
    72c6:	17 4d 02 00 	mov	2(r13),	r7	;
    72ca:	8e 0f fa ff 	mova	#-6,	r14	;0xfffffffa
    72ce:	80 18 5e 82 	subx.a	&0x11930,r14	;
    72d2:	30 19 
    72d4:	ec 0e       	adda	r14,	r12	;
    72d6:	b0 13 56 a4 	calla	#42070		;0x0a456
    72da:	38 40 00 04 	mov	#1024,	r8	;#0x0400
    72de:	59 43       	mov.b	#1,	r9	;r3 As==01
    72e0:	84 00 fe a1 	mova	#41470,	r4	;0x0a1fe
    72e4:	85 00 2e b2 	mova	#45614,	r5	;0x0b22e

000072e8 <.L193>:
    72e8:	44 13       	calla	r4		;
    72ea:	cc 01       	mova	r1,	r12	;
    72ec:	ac 00 04 00 	adda	#4,	r12	;
    72f0:	45 13       	calla	r5		;
    72f2:	86 00 f4 a1 	mova	#41460,	r6	;0x0a1f4
    72f6:	46 13       	calla	r6		;
    72f8:	3c 01 04 00 	mova	4(r1),	r12	;
    72fc:	8c 48 00 00 	mov	r8,	0(r12)	;
    7300:	8c 49 02 00 	mov	r9,	2(r12)	;
    7304:	5d 4c 04 00 	mov.b	4(r12),	r13	;
    7308:	6d c3       	bic.b	#2,	r13	;r3 As==10
    730a:	5d d3       	bis.b	#1,	r13	;r3 As==01
    730c:	cc 4d 04 00 	mov.b	r13,	4(r12)	;
    7310:	1d 4c 04 00 	mov	4(r12),	r13	;
    7314:	7d f0 03 00 	and.b	#3,	r13	;
    7318:	3d d0 00 02 	bis	#512,	r13	;#0x0200
    731c:	8c 4d 04 00 	mov	r13,	4(r12)	;
    7320:	fc f0 f8 ff 	and.b	#65528,	6(r12)	;#0xfff8
    7324:	06 00 
    7326:	00 18 fc 40 	movx.a	#56788,	8(r12)	;0x0ddd4
    732a:	d4 dd 08 00 
    732e:	00 18 fc 40 	movx.a	#26768,	12(r12)	;0x06890, 0x0000c
    7332:	90 68 0c 00 
    7336:	44 13       	calla	r4		;
    7338:	3c 01 04 00 	mova	4(r1),	r12	;
    733c:	b0 13 98 99 	calla	#39320		;0x09998
    7340:	46 13       	calla	r6		;
    7342:	b0 13 fe a1 	calla	#41470		;0x0a1fe
    7346:	4d 43       	clr.b	r13		;
    7348:	8c 00 d2 dd 	mova	#56786,	r12	;0x0ddd2
    734c:	b0 13 56 91 	calla	#37206		;0x09156
    7350:	b0 13 f4 a1 	calla	#41460		;0x0a1f4
    7354:	38 50 80 00 	add	#128,	r8	;#0x0080
    7358:	09 63       	adc	r9		;
    735a:	08 93       	cmp	#0,	r8	;r3 As==00
    735c:	c5 23       	jnz	$-116    	;abs 0x72e8
    735e:	29 93       	cmp	#2,	r9	;r3 As==10
    7360:	c3 23       	jnz	$-120    	;abs 0x72e8
    7362:	40 18 2a b3 	bitx.w	#2,	r10	;r3 As==10
    7366:	07 24       	jz	$+16     	;abs 0x7376
    7368:	81 4a 00 00 	mov	r10,	0(r1)	;
    736c:	81 47 02 00 	mov	r7,	2(r1)	;
    7370:	cc 01       	mova	r1,	r12	;
    7372:	b0 13 6e 5d 	calla	#23918		;0x05d6e

00007376 <.L188>:
    7376:	a1 00 08 00 	adda	#8,	r1	;
    737a:	64 16       	popm.a	#7,	r10	;20-bit words
    737c:	10 01       	reta			;

0000737e <chBSemSignalI.lto_priv.174.lto_priv.241>:
    737e:	2d 4c       	mov	@r12,	r13	;
    7380:	4e 43       	clr.b	r14		;
    7382:	0e 9d       	cmp	r13,	r14	;
    7384:	02 38       	jl	$+6      	;abs 0x738a
    7386:	b0 13 82 92 	calla	#37506		;0x09282

0000738a <.L1>:
    738a:	10 01       	reta			;

0000738c <fram_block_cb>:
    738c:	8c 01 46 16 	mova	#71238,	r12	;0x11646
    7390:	b0 13 7e 73 	calla	#29566		;0x0737e
    7394:	10 01       	reta			;

00007396 <fram_reg_cb>:
    7396:	c0 18 5c 42 	movx.b	&0x11644,r12	;
    739a:	44 16 
    739c:	7c 53       	add.b	#-1,	r12	;r3 As==11
    739e:	41 18 c2 4c 	movx.b	r12,	&0x11644;
    73a2:	44 16 
    73a4:	4c 93       	cmp.b	#0,	r12	;r3 As==00
    73a6:	04 20       	jnz	$+10     	;abs 0x73b0
    73a8:	8c 01 46 16 	mova	#71238,	r12	;0x11646
    73ac:	b0 13 7e 73 	calla	#29566		;0x0737e

000073b0 <.L4>:
    73b0:	10 01       	reta			;

000073b2 <elyClampReg>:
    73b2:	4e 4c       	mov.b	r12,	r14	;
    73b4:	4c 4d       	mov.b	r13,	r12	;
    73b6:	7e 90 24 00 	cmp.b	#36,	r14	;#0x0024
    73ba:	a3 24       	jz	$+328    	;abs 0x7502
    73bc:	7f 40 24 00 	mov.b	#36,	r15	;#0x0024
    73c0:	4f 9e       	cmp.b	r14,	r15	;
    73c2:	40 28       	jnc	$+130    	;abs 0x7444
    73c4:	7e 90 0f 00 	cmp.b	#15,	r14	;#0x000f
    73c8:	4e 24       	jz	$+158    	;abs 0x7466
    73ca:	7f 40 0f 00 	mov.b	#15,	r15	;#0x000f
    73ce:	4f 9e       	cmp.b	r14,	r15	;
    73d0:	10 28       	jnc	$+34     	;abs 0x73f2
    73d2:	7e 90 07 00 	cmp.b	#7,	r14	;
    73d6:	79 24       	jz	$+244    	;abs 0x74ca
    73d8:	7e 90 0b 00 	cmp.b	#11,	r14	;#0x000b
    73dc:	44 24       	jz	$+138    	;abs 0x7466
    73de:	7e 90 03 00 	cmp.b	#3,	r14	;
    73e2:	11 20       	jnz	$+36     	;abs 0x7406
    73e4:	7d 40 38 00 	mov.b	#56,	r13	;#0x0038
    73e8:	4d 9c       	cmp.b	r12,	r13	;
    73ea:	66 2c       	jc	$+206    	;abs 0x74b8

000073ec <.L91>:
    73ec:	4c 4d       	mov.b	r13,	r12	;
    73ee:	80 00 c2 74 	mova	#29890,	r0	;0x074c2

000073f2 <.L11>:
    73f2:	7e 90 1f 00 	cmp.b	#31,	r14	;#0x001f
    73f6:	37 24       	jz	$+112    	;abs 0x7466
    73f8:	7f 40 1f 00 	mov.b	#31,	r15	;#0x001f
    73fc:	4f 9e       	cmp.b	r14,	r15	;
    73fe:	17 28       	jnc	$+48     	;abs 0x742e
    7400:	7e 90 1b 00 	cmp.b	#27,	r14	;#0x001b
    7404:	30 24       	jz	$+98     	;abs 0x7466

00007406 <.L7>:
    7406:	4d 4e       	mov.b	r14,	r13	;
    7408:	7d 50 7f 00 	add.b	#127,	r13	;#0x007f
    740c:	7f 40 3d 00 	mov.b	#61,	r15	;#0x003d
    7410:	4f 9d       	cmp.b	r13,	r15	;
    7412:	ab 28       	jnc	$+344    	;abs 0x756a
    7414:	5d 53       	inc.b	r13		;
    7416:	7f 40 09 00 	mov.b	#9,	r15	;
    741a:	4f 9d       	cmp.b	r13,	r15	;
    741c:	81 2c       	jc	$+260    	;abs 0x7520
    741e:	b0 13 fe a1 	calla	#41470		;0x0a1fe
    7422:	81 18 f2 40 	movx.a	#66112,	&0x11a36;0x10240
    7426:	40 02 36 1a 

0000742a <.L33>:
    742a:	80 00 2a 74 	mova	#29738,	r0	;0x0742a

0000742e <.L14>:
    742e:	7e 90 21 00 	cmp.b	#33,	r14	;#0x0021
    7432:	59 24       	jz	$+180    	;abs 0x74e6
    7434:	7e 90 22 00 	cmp.b	#34,	r14	;#0x0022
    7438:	e6 23       	jnz	$-50     	;abs 0x7406

0000743a <.L16>:
    743a:	0c 93       	cmp	#0,	r12	;r3 As==00
    743c:	7e 20       	jnz	$+254    	;abs 0x753a
    743e:	5c 43       	mov.b	#1,	r12	;r3 As==01
    7440:	80 00 3a 75 	mova	#30010,	r0	;0x0753a

00007444 <.L9>:
    7444:	7e 90 3a 00 	cmp.b	#58,	r14	;#0x003a
    7448:	5c 24       	jz	$+186    	;abs 0x7502
    744a:	7f 40 3a 00 	mov.b	#58,	r15	;#0x003a
    744e:	4f 9e       	cmp.b	r14,	r15	;
    7450:	12 28       	jnc	$+38     	;abs 0x7476
    7452:	7f 40 33 00 	mov.b	#51,	r15	;#0x0033
    7456:	4f 9e       	cmp.b	r14,	r15	;
    7458:	09 28       	jnc	$+20     	;abs 0x746c
    745a:	7e 90 2a 00 	cmp.b	#42,	r14	;#0x002a
    745e:	57 2c       	jc	$+176    	;abs 0x750e
    7460:	7e 90 25 00 	cmp.b	#37,	r14	;#0x0025
    7464:	d0 23       	jnz	$-94     	;abs 0x7406

00007466 <.L52>:
    7466:	4c 43       	clr.b	r12		;
    7468:	80 00 3a 75 	mova	#30010,	r0	;0x0753a

0000746c <.L18>:
    746c:	7e 90 38 00 	cmp.b	#56,	r14	;#0x0038
    7470:	e4 27       	jz	$-54     	;abs 0x743a
    7472:	80 00 06 74 	mova	#29702,	r0	;0x07406

00007476 <.L17>:
    7476:	7e 90 40 00 	cmp.b	#64,	r14	;#0x0040
    747a:	4d 24       	jz	$+156    	;abs 0x7516
    747c:	7f 40 40 00 	mov.b	#64,	r15	;#0x0040
    7480:	4f 9e       	cmp.b	r14,	r15	;
    7482:	05 28       	jnc	$+12     	;abs 0x748e
    7484:	7e 90 3b 00 	cmp.b	#59,	r14	;#0x003b
    7488:	ee 27       	jz	$-34     	;abs 0x7466
    748a:	80 00 06 74 	mova	#29702,	r0	;0x07406

0000748e <.L21>:
    748e:	4d 4e       	mov.b	r14,	r13	;
    7490:	7d 50 ba ff 	add.b	#65466,	r13	;#0xffba
    7494:	7f 40 05 00 	mov.b	#5,	r15	;
    7498:	4f 9d       	cmp.b	r13,	r15	;
    749a:	b5 2b       	jnc	$-148    	;abs 0x7406
    749c:	4d 4c       	mov.b	r12,	r13	;
    749e:	40 18 8d 11 	sxtx.w	r13		;
    74a2:	7d 90 b0 ff 	cmp.b	#65456,	r13	;#0xffb0
    74a6:	b2 38       	jl	$+358    	;abs 0x760c
    74a8:	7f 40 7d 00 	mov.b	#125,	r15	;#0x007d
    74ac:	4f 9d       	cmp.b	r13,	r15	;
    74ae:	45 34       	jge	$+140    	;abs 0x753a
    74b0:	7c 40 7d 00 	mov.b	#125,	r12	;#0x007d
    74b4:	80 00 3a 75 	mova	#30010,	r0	;0x0753a

000074b8 <.L23>:
    74b8:	7c 90 33 00 	cmp.b	#51,	r12	;#0x0033
    74bc:	02 2c       	jc	$+6      	;abs 0x74c2
    74be:	7c 40 33 00 	mov.b	#51,	r12	;#0x0033

000074c2 <.L89>:
    74c2:	3c f0 ff 00 	and	#255,	r12	;#0x00ff
    74c6:	80 00 3a 75 	mova	#30010,	r0	;0x0753a

000074ca <.L12>:
    74ca:	7e 40 1c 00 	mov.b	#28,	r14	;#0x001c
    74ce:	4e 9c       	cmp.b	r12,	r14	;
    74d0:	03 2c       	jc	$+8      	;abs 0x74d8

000074d2 <.L90>:
    74d2:	4c 4e       	mov.b	r14,	r12	;
    74d4:	80 00 c2 74 	mova	#29890,	r0	;0x074c2

000074d8 <.L25>:
    74d8:	7c 90 1b 00 	cmp.b	#27,	r12	;#0x001b
    74dc:	f2 2f       	jc	$-26     	;abs 0x74c2
    74de:	7c 40 1b 00 	mov.b	#27,	r12	;#0x001b
    74e2:	80 00 c2 74 	mova	#29890,	r0	;0x074c2

000074e6 <.L15>:
    74e6:	7f 40 82 ff 	mov.b	#65410,	r15	;#0xff82
    74ea:	4f 9c       	cmp.b	r12,	r15	;
    74ec:	03 2c       	jc	$+8      	;abs 0x74f4

000074ee <.L94>:
    74ee:	4c 4f       	mov.b	r15,	r12	;
    74f0:	80 00 c2 74 	mova	#29890,	r0	;0x074c2

000074f4 <.L27>:
    74f4:	7c 90 3b 00 	cmp.b	#59,	r12	;#0x003b
    74f8:	e4 2f       	jc	$-54     	;abs 0x74c2
    74fa:	7c 40 3b 00 	mov.b	#59,	r12	;#0x003b
    74fe:	80 00 c2 74 	mova	#29890,	r0	;0x074c2

00007502 <.L8>:
    7502:	7d 40 0f 00 	mov.b	#15,	r13	;#0x000f

00007506 <.L93>:
    7506:	4d 9c       	cmp.b	r12,	r13	;
    7508:	dc 2f       	jc	$-70     	;abs 0x74c2
    750a:	80 00 ec 73 	mova	#29676,	r0	;0x073ec

0000750e <.L19>:
    750e:	b0 13 90 a1 	calla	#41360		;0x0a190
    7512:	80 00 c2 74 	mova	#29890,	r0	;0x074c2

00007516 <.L20>:
    7516:	6e 42       	mov.b	#4,	r14	;r2 As==10

00007518 <.L92>:
    7518:	4e 9c       	cmp.b	r12,	r14	;
    751a:	d3 2f       	jc	$-88     	;abs 0x74c2
    751c:	80 00 d2 74 	mova	#29906,	r0	;0x074d2

00007520 <.L32>:
    7520:	7e 90 85 ff 	cmp.b	#65413,	r14	;#0xff85
    7524:	1e 24       	jz	$+62     	;abs 0x7562
    7526:	7f 40 85 ff 	mov.b	#65413,	r15	;#0xff85
    752a:	4f 9e       	cmp.b	r14,	r15	;
    752c:	07 28       	jnc	$+16     	;abs 0x753c
    752e:	7e 90 81 ff 	cmp.b	#65409,	r14	;#0xff81
    7532:	0d 24       	jz	$+28     	;abs 0x754e
    7534:	7e 90 83 ff 	cmp.b	#65411,	r14	;#0xff83
    7538:	0e 24       	jz	$+30     	;abs 0x7556

0000753a <.L10>:
    753a:	10 01       	reta			;

0000753c <.L35>:
    753c:	7e 50 79 00 	add.b	#121,	r14	;#0x0079
    7540:	5d 43       	mov.b	#1,	r13	;r3 As==01
    7542:	4d 9e       	cmp.b	r14,	r13	;
    7544:	fa 2b       	jnc	$-10     	;abs 0x753a
    7546:	b0 13 90 a1 	calla	#41360		;0x0a190
    754a:	80 00 c2 74 	mova	#29890,	r0	;0x074c2

0000754e <.L36>:
    754e:	7e 40 10 00 	mov.b	#16,	r14	;#0x0010
    7552:	80 00 18 75 	mova	#29976,	r0	;0x07518

00007556 <.L37>:
    7556:	7f 40 07 00 	mov.b	#7,	r15	;
    755a:	4f 9c       	cmp.b	r12,	r15	;
    755c:	b2 2f       	jc	$-154    	;abs 0x74c2
    755e:	80 00 ee 74 	mova	#29934,	r0	;0x074ee

00007562 <.L34>:
    7562:	7d 40 3f 00 	mov.b	#63,	r13	;#0x003f
    7566:	80 00 06 75 	mova	#29958,	r0	;0x07506

0000756a <.L31>:
    756a:	7f 40 c0 ff 	mov.b	#65472,	r15	;#0xffc0
    756e:	4f 9e       	cmp.b	r14,	r15	;
    7570:	e4 2f       	jc	$-54     	;abs 0x753a
    7572:	4d 4e       	mov.b	r14,	r13	;
    7574:	7d 50 40 00 	add.b	#64,	r13	;#0x0040
    7578:	7f 40 14 00 	mov.b	#20,	r15	;#0x0014
    757c:	4f 9d       	cmp.b	r13,	r15	;
    757e:	08 2c       	jc	$+18     	;abs 0x7590
    7580:	b0 13 fe a1 	calla	#41470		;0x0a1fe
    7584:	81 18 f2 40 	movx.a	#66126,	&0x11a36;0x1024e
    7588:	4e 02 36 1a 

0000758c <.L43>:
    758c:	80 00 8c 75 	mova	#30092,	r0	;0x0758c

00007590 <.L42>:
    7590:	7e 90 c3 ff 	cmp.b	#65475,	r14	;#0xffc3
    7594:	31 24       	jz	$+100    	;abs 0x75f8
    7596:	7f 40 c3 ff 	mov.b	#65475,	r15	;#0xffc3
    759a:	4f 9e       	cmp.b	r14,	r15	;
    759c:	1a 28       	jnc	$+54     	;abs 0x75d2
    759e:	7e 90 c1 ff 	cmp.b	#65473,	r14	;#0xffc1
    75a2:	26 24       	jz	$+78     	;abs 0x75f0
    75a4:	7e 90 c2 ff 	cmp.b	#65474,	r14	;#0xffc2
    75a8:	c8 23       	jnz	$-110    	;abs 0x753a
    75aa:	4d 4c       	mov.b	r12,	r13	;
    75ac:	7d f0 38 00 	and.b	#56,	r13	;#0x0038
    75b0:	7d 90 38 00 	cmp.b	#56,	r13	;#0x0038
    75b4:	02 20       	jnz	$+6      	;abs 0x75ba
    75b6:	7c f0 f7 00 	and.b	#247,	r12	;#0x00f7

000075ba <.L51>:
    75ba:	4d 4c       	mov.b	r12,	r13	;
    75bc:	7d f0 07 00 	and.b	#7,	r13	;
    75c0:	7f 40 05 00 	mov.b	#5,	r15	;
    75c4:	4f 9d       	cmp.b	r13,	r15	;
    75c6:	b9 2f       	jc	$-140    	;abs 0x753a
    75c8:	7c f0 fc 00 	and.b	#252,	r12	;#0x00fc
    75cc:	1c d3       	bis	#1,	r12	;r3 As==01
    75ce:	80 00 3a 75 	mova	#30010,	r0	;0x0753a

000075d2 <.L45>:
    75d2:	7e 90 c7 ff 	cmp.b	#65479,	r14	;#0xffc7
    75d6:	16 24       	jz	$+46     	;abs 0x7604
    75d8:	7e 90 c7 ff 	cmp.b	#65479,	r14	;#0xffc7
    75dc:	ae 2b       	jnc	$-162    	;abs 0x753a
    75de:	7e 50 35 00 	add.b	#53,	r14	;#0x0035
    75e2:	7d 42       	mov.b	#8,	r13	;r2 As==11
    75e4:	4d 9e       	cmp.b	r14,	r13	;
    75e6:	a9 2b       	jnc	$-172    	;abs 0x753a
    75e8:	b0 13 90 a1 	calla	#41360		;0x0a190
    75ec:	80 00 c2 74 	mova	#29890,	r0	;0x074c2

000075f0 <.L46>:
    75f0:	7e 40 40 00 	mov.b	#64,	r14	;#0x0040
    75f4:	80 00 18 75 	mova	#29976,	r0	;0x07518

000075f8 <.L44>:
    75f8:	4d 4c       	mov.b	r12,	r13	;
    75fa:	7d f0 03 00 	and.b	#3,	r13	;
    75fe:	7d 90 03 00 	cmp.b	#3,	r13	;
    7602:	9b 23       	jnz	$-200    	;abs 0x753a

00007604 <.L48>:
    7604:	7c f0 fe 00 	and.b	#254,	r12	;#0x00fe
    7608:	80 00 3a 75 	mova	#30010,	r0	;0x0753a

0000760c <.L54>:
    760c:	7c 40 b0 00 	mov.b	#176,	r12	;#0x00b0
    7610:	80 00 3a 75 	mova	#30010,	r0	;0x0753a

00007614 <fram_block>:
    7614:	6a 14       	pushm.a	#7,	r10	;20-bit words
    7616:	b1 00 0c 00 	suba	#12,	r1	;0x0000c
    761a:	4a 4c       	mov.b	r12,	r10	;
    761c:	47 4d       	mov.b	r13,	r7	;
    761e:	49 4e       	mov.b	r14,	r9	;
    7620:	88 00 fe a1 	mova	#41470,	r8	;0x0a1fe
    7624:	71 0f 00 00 	mova	r15,	0(r1)	;
    7628:	48 13       	calla	r8		;
    762a:	cc 01       	mova	r1,	r12	;
    762c:	ac 00 08 00 	adda	#8,	r12	;
    7630:	b0 13 2e b2 	calla	#45614		;0x0b22e
    7634:	86 00 f4 a1 	mova	#41460,	r6	;0x0a1f4
    7638:	46 13       	calla	r6		;
    763a:	3e 01 08 00 	mova	8(r1),	r14	;
    763e:	37 53       	add	#-1,	r7	;r3 As==11
    7640:	47 18 07 57 	rpt #8 { rlax.w	r7		;
    7644:	04 47       	mov	r7,	r4	;
    7646:	05 47       	mov	r7,	r5	;
    7648:	4e 18 05 11 	rpt #15 { rrax.w	r5		;
    764c:	4c 49       	mov.b	r9,	r12	;
    764e:	0d 43       	clr	r13		;
    7650:	0c 53       	add	#0,	r12	;r3 As==00
    7652:	1d 63       	addc	#1,	r13	;r3 As==01
    7654:	09 44       	mov	r4,	r9	;
    7656:	09 5c       	add	r12,	r9	;
    7658:	8e 49 00 00 	mov	r9,	0(r14)	;
    765c:	0c 45       	mov	r5,	r12	;
    765e:	0c 6d       	addc	r13,	r12	;
    7660:	8e 4c 02 00 	mov	r12,	2(r14)	;
    7664:	5a f3       	and.b	#1,	r10	;r3 As==01
    7666:	4a 5a       	rla.b	r10		;
    7668:	5c 4e 04 00 	mov.b	4(r14),	r12	;
    766c:	6c c3       	bic.b	#2,	r12	;r3 As==10
    766e:	4c da       	bis.b	r10,	r12	;
    7670:	ce 4c 04 00 	mov.b	r12,	4(r14)	;
    7674:	5c 41 2c 00 	mov.b	44(r1),	r12	;0x0002c
    7678:	00 18 c1 4c 	movx.a	r12,	4(r1)	;
    767c:	04 00 
    767e:	1c 41 04 00 	mov	4(r1),	r12	;
    7682:	41 18 0c 5c 	rpt #2 { rlax.w	r12		;
    7686:	1d 4e 04 00 	mov	4(r14),	r13	;
    768a:	7d f0 03 00 	and.b	#3,	r13	;
    768e:	0d dc       	bis	r12,	r13	;
    7690:	8e 4d 04 00 	mov	r13,	4(r14)	;
    7694:	1a 41 04 00 	mov	4(r1),	r10	;
    7698:	5a 03       	rrum	#1,	r10	;
    769a:	4c 18 0a 11 	rpt #13 { rrax.w	r10		;
    769e:	5d 4e 06 00 	mov.b	6(r14),	r13	;
    76a2:	7d f0 f8 ff 	and.b	#65528,	r13	;#0xfff8
    76a6:	39 01 04 00 	mova	4(r1),	r9	;
    76aa:	09 14       	pushm.a	#1,	r9	;20-bit words
    76ac:	0c 17       	popm	#1,	r12	;16-bit words
    76ae:	0c 17       	popm	#1,	r12	;16-bit words
    76b0:	5c f3       	and.b	#1,	r12	;r3 As==01
    76b2:	41 18 0c 5c 	rpt #2 { rlax.w	r12		;
    76b6:	4d da       	bis.b	r10,	r13	;
    76b8:	4d dc       	bis.b	r12,	r13	;
    76ba:	ce 4d 06 00 	mov.b	r13,	6(r14)	;
    76be:	0f 01       	mova	@r1,	r15	;
    76c0:	7e 0f 08 00 	mova	r15,	8(r14)	;
    76c4:	00 18 fe 40 	movx.a	#29580,	12(r14)	;0x0738c, 0x0000c
    76c8:	8c 73 0c 00 
    76cc:	48 13       	calla	r8		;
    76ce:	3c 01 08 00 	mova	8(r1),	r12	;
    76d2:	b0 13 98 99 	calla	#39320		;0x09998
    76d6:	46 13       	calla	r6		;
    76d8:	a1 00 0c 00 	adda	#12,	r1	;0x0000c
    76dc:	64 16       	popm.a	#7,	r10	;20-bit words
    76de:	10 01       	reta			;

000076e0 <fram_reg>:
    76e0:	6a 14       	pushm.a	#7,	r10	;20-bit words
    76e2:	b1 00 08 00 	suba	#8,	r1	;
    76e6:	4a 4c       	mov.b	r12,	r10	;
    76e8:	47 4d       	mov.b	r13,	r7	;
    76ea:	49 4e       	mov.b	r14,	r9	;
    76ec:	88 00 fe a1 	mova	#41470,	r8	;0x0a1fe
    76f0:	71 0f 00 00 	mova	r15,	0(r1)	;
    76f4:	48 13       	calla	r8		;
    76f6:	cc 01       	mova	r1,	r12	;
    76f8:	ac 00 04 00 	adda	#4,	r12	;
    76fc:	b0 13 2e b2 	calla	#45614		;0x0b22e
    7700:	86 00 f4 a1 	mova	#41460,	r6	;0x0a1f4
    7704:	46 13       	calla	r6		;
    7706:	3e 01 04 00 	mova	4(r1),	r14	;
    770a:	37 53       	add	#-1,	r7	;r3 As==11
    770c:	47 18 07 57 	rpt #8 { rlax.w	r7		;
    7710:	04 47       	mov	r7,	r4	;
    7712:	05 47       	mov	r7,	r5	;
    7714:	4e 18 05 11 	rpt #15 { rrax.w	r5		;
    7718:	4c 49       	mov.b	r9,	r12	;
    771a:	0d 43       	clr	r13		;
    771c:	0c 53       	add	#0,	r12	;r3 As==00
    771e:	1d 63       	addc	#1,	r13	;r3 As==01
    7720:	09 44       	mov	r4,	r9	;
    7722:	09 5c       	add	r12,	r9	;
    7724:	8e 49 00 00 	mov	r9,	0(r14)	;
    7728:	0c 45       	mov	r5,	r12	;
    772a:	0c 6d       	addc	r13,	r12	;
    772c:	8e 4c 02 00 	mov	r12,	2(r14)	;
    7730:	5a f3       	and.b	#1,	r10	;r3 As==01
    7732:	4a 5a       	rla.b	r10		;
    7734:	5c 4e 04 00 	mov.b	4(r14),	r12	;
    7738:	6c c3       	bic.b	#2,	r12	;r3 As==10
    773a:	4c da       	bis.b	r10,	r12	;
    773c:	ce 4c 04 00 	mov.b	r12,	4(r14)	;
    7740:	1c 4e 04 00 	mov	4(r14),	r12	;
    7744:	7c f0 03 00 	and.b	#3,	r12	;
    7748:	2c d2       	bis	#4,	r12	;r2 As==10
    774a:	8e 4c 04 00 	mov	r12,	4(r14)	;
    774e:	fe f0 f8 ff 	and.b	#65528,	6(r14)	;#0xfff8
    7752:	06 00 
    7754:	0f 01       	mova	@r1,	r15	;
    7756:	7e 0f 08 00 	mova	r15,	8(r14)	;
    775a:	00 18 fe 40 	movx.a	#29590,	12(r14)	;0x07396, 0x0000c
    775e:	96 73 0c 00 
    7762:	48 13       	calla	r8		;
    7764:	3c 01 04 00 	mova	4(r1),	r12	;
    7768:	b0 13 98 99 	calla	#39320		;0x09998
    776c:	46 13       	calla	r6		;
    776e:	a1 00 08 00 	adda	#8,	r1	;
    7772:	64 16       	popm.a	#7,	r10	;20-bit words
    7774:	10 01       	reta			;

00007776 <CmdThd>:
    7776:	6a 14       	pushm.a	#7,	r10	;20-bit words
    7778:	b1 00 10 00 	suba	#16,	r1	;0x00010

0000777c <.L128>:
    777c:	01 18 c2 93 	cmpx.a	#0,	&0x11640;r3 As==00
    7780:	40 16 
    7782:	25 20       	jnz	$+76     	;abs 0x77ce
    7784:	b0 13 fe a1 	calla	#41470		;0x0a1fe
    7788:	4d 43       	clr.b	r13		;
    778a:	8c 01 1a 0e 	mova	#69146,	r12	;0x10e1a
    778e:	b0 13 56 91 	calla	#37206		;0x09156
    7792:	9c 00 00 00 	cmpa	#0,	r12	;
    7796:	19 20       	jnz	$+52     	;abs 0x77ca
    7798:	8c 01 0a 0e 	mova	#69130,	r12	;0x10e0a
    779c:	38 0c 0c 00 	mova	12(r12),r8	;0x0000c
    77a0:	ce 08       	mova	r8,	r14	;
    77a2:	ae 00 04 00 	adda	#4,	r14	;
    77a6:	7c 0e 0c 00 	mova	r14,	12(r12)	; 0x0000c
    77aa:	01 18 e2 48 	movx.a	@r8,	&0x11640;
    77ae:	40 16 
    77b0:	80 18 5e 92 	cmpx.a	&0x10e0e,r14	;
    77b4:	0e 0e 
    77b6:	03 28       	jnc	$+8      	;abs 0x77be
    77b8:	00 18 ec 4c 	movx.a	@r12,	12(r12)	; 0x0000c
    77bc:	0c 00 

000077be <.L100>:
    77be:	8c 01 1c 0e 	mova	#69148,	r12	;0x10e1c
    77c2:	b0 13 82 92 	calla	#37506		;0x09282
    77c6:	b0 13 d4 8d 	calla	#36308		;0x08dd4

000077ca <.L99>:
    77ca:	b0 13 f4 a1 	calla	#41460		;0x0a1f4

000077ce <.L98>:
    77ce:	80 18 d1 42 	movx.a	&0x11640,2(r1)	;
    77d2:	40 16 02 00 
    77d6:	24 01 30 19 	mova	&71984,	r4	;0x11930
    77da:	a4 00 06 00 	adda	#6,	r4	;
    77de:	00 18 54 51 	addx.a	2(r1),	r4	;
    77e2:	02 00 
    77e4:	6c 44       	mov.b	@r4,	r12	;
    77e6:	06 4c       	mov	r12,	r6	;
    77e8:	56 0f       	rrum	#4,	r6	;
    77ea:	56 0b       	rrum	#3,	r6	;
    77ec:	81 46 06 00 	mov	r6,	6(r1)	;
    77f0:	0d 4c       	mov	r12,	r13	;
    77f2:	5d 0f       	rrum	#4,	r13	;
    77f4:	5d 07       	rrum	#2,	r13	;
    77f6:	5d f3       	and.b	#1,	r13	;r3 As==01
    77f8:	7c f0 3f 00 	and.b	#63,	r12	;#0x003f
    77fc:	4b 4c       	mov.b	r12,	r11	;
    77fe:	5f 44 01 00 	mov.b	1(r4),	r15	;
    7802:	0e 46       	mov	r6,	r14	;
    7804:	5e f3       	and.b	#1,	r14	;r3 As==01
    7806:	17 c3       	bic	#1,	r7	;r3 As==01
    7808:	07 de       	bis	r14,	r7	;
    780a:	08 4d       	mov	r13,	r8	;
    780c:	08 58       	rla	r8		;
    780e:	27 c3       	bic	#2,	r7	;r3 As==10
    7810:	07 d8       	bis	r8,	r7	;
    7812:	08 4b       	mov	r11,	r8	;
    7814:	41 18 08 58 	rpt #2 { rlax.w	r8		;
    7818:	37 f0 03 ff 	and	#65283,	r7	;#0xff03
    781c:	07 d8       	bis	r8,	r7	;
    781e:	40 18 27 b3 	bitx.w	#2,	r7	;r3 As==10
    7822:	09 24       	jz	$+20     	;abs 0x7836
    7824:	58 44 02 00 	mov.b	2(r4),	r8	;
    7828:	47 18 08 58 	rpt #8 { rlax.w	r8		;
    782c:	56 44 03 00 	mov.b	3(r4),	r6	;
    7830:	06 d8       	bis	r8,	r6	;
    7832:	81 46 08 00 	mov	r6,	8(r1)	;

00007836 <.L101>:
    7836:	78 40 2f 00 	mov.b	#47,	r8	;#0x002f
    783a:	48 9c       	cmp.b	r12,	r8	;
    783c:	49 28       	jnc	$+148    	;abs 0x78d0
    783e:	19 c3       	bic	#1,	r9	;r3 As==01
    7840:	09 de       	bis	r14,	r9	;
    7842:	5d f3       	and.b	#1,	r13	;r3 As==01
    7844:	0e 4d       	mov	r13,	r14	;
    7846:	0e 5d       	add	r13,	r14	;
    7848:	29 c3       	bic	#2,	r9	;r3 As==10
    784a:	09 de       	bis	r14,	r9	;
    784c:	05 4b       	mov	r11,	r5	;
    784e:	75 f0 3f 00 	and.b	#63,	r5	;#0x003f
    7852:	0e 45       	mov	r5,	r14	;
    7854:	41 18 0e 5e 	rpt #2 { rlax.w	r14		;
    7858:	39 f0 03 ff 	and	#65283,	r9	;#0xff03
    785c:	09 de       	bis	r14,	r9	;
    785e:	48 49       	mov.b	r9,	r8	;
    7860:	4e 48       	mov.b	r8,	r14	;
    7862:	6e f3       	and.b	#2,	r14	;r3 As==10
    7864:	c1 4e 00 00 	mov.b	r14,	0(r1)	;
    7868:	4e 93       	cmp.b	#0,	r14	;r3 As==00
    786a:	0a 24       	jz	$+22     	;abs 0x7880
    786c:	40 18 d4 92 	cmpx.b	&0x0dcdd,2(r4)	;
    7870:	dd dc 02 00 
    7874:	05 20       	jnz	$+12     	;abs 0x7880
    7876:	40 18 d4 92 	cmpx.b	&0x0dcdc,3(r4)	;
    787a:	dc dc 03 00 
    787e:	28 24       	jz	$+82     	;abs 0x78d0

00007880 <.L103>:
    7880:	58 f3       	and.b	#1,	r8	;r3 As==01
    7882:	08 93       	cmp	#0,	r8	;r3 As==00
    7884:	2b 24       	jz	$+88     	;abs 0x78dc
    7886:	66 43       	mov.b	#2,	r6	;r3 As==10

00007888 <.L104>:
    7888:	4e 4f       	mov.b	r15,	r14	;
    788a:	6e 81       	sub.b	@r1,	r14	;
    788c:	c1 4e 0b 00 	mov.b	r14,	11(r1)	; 0x000b
    7890:	4e 86       	sub.b	r6,	r14	;
    7892:	46 4e       	mov.b	r14,	r6	;
    7894:	81 46 00 00 	mov	r6,	0(r1)	;
    7898:	7c 90 18 00 	cmp.b	#24,	r12	;#0x0018
    789c:	69 24       	jz	$+212    	;abs 0x7970
    789e:	76 40 18 00 	mov.b	#24,	r6	;#0x0018
    78a2:	46 9c       	cmp.b	r12,	r6	;
    78a4:	45 28       	jnc	$+140    	;abs 0x7930
    78a6:	7c 90 0b 00 	cmp.b	#11,	r12	;#0x000b
    78aa:	24 24       	jz	$+74     	;abs 0x78f4
    78ac:	76 40 0b 00 	mov.b	#11,	r6	;#0x000b
    78b0:	46 9c       	cmp.b	r12,	r6	;
    78b2:	24 28       	jnc	$+74     	;abs 0x78fc
    78b4:	7c 90 05 00 	cmp.b	#5,	r12	;
    78b8:	94 24       	jz	$+298    	;abs 0x79e2
    78ba:	76 40 05 00 	mov.b	#5,	r6	;
    78be:	46 9c       	cmp.b	r12,	r6	;
    78c0:	10 28       	jnc	$+34     	;abs 0x78e2
    78c2:	6c 93       	cmp.b	#2,	r12	;r3 As==10
    78c4:	55 24       	jz	$+172    	;abs 0x7970
    78c6:	6c 92       	cmp.b	#4,	r12	;r2 As==10
    78c8:	47 24       	jz	$+144    	;abs 0x7958

000078ca <.L105>:
    78ca:	81 93 00 00 	cmp	#0,	0(r1)	;r3 As==00
    78ce:	52 24       	jz	$+166    	;abs 0x7974

000078d0 <.L102>:
    78d0:	3c 01 02 00 	mova	2(r1),	r12	;
    78d4:	b0 13 56 a4 	calla	#42070		;0x0a456
    78d8:	80 00 a6 7a 	mova	#31398,	r0	;0x07aa6

000078dc <.L130>:
    78dc:	06 48       	mov	r8,	r6	;
    78de:	80 00 88 78 	mova	#30856,	r0	;0x07888

000078e2 <.L111>:
    78e2:	7c 90 07 00 	cmp.b	#7,	r12	;
    78e6:	87 24       	jz	$+272    	;abs 0x79f6
    78e8:	7c 90 07 00 	cmp.b	#7,	r12	;
    78ec:	70 28       	jnc	$+226    	;abs 0x79ce
    78ee:	7c 90 09 00 	cmp.b	#9,	r12	;
    78f2:	eb 23       	jnz	$-40     	;abs 0x78ca

000078f4 <.L210>:
    78f4:	6e 92       	cmp.b	#4,	r14	;r2 As==10
    78f6:	ec 23       	jnz	$-38     	;abs 0x78d0
    78f8:	80 00 74 79 	mova	#31092,	r0	;0x07974

000078fc <.L109>:
    78fc:	7c 90 11 00 	cmp.b	#17,	r12	;#0x0011
    7900:	f9 27       	jz	$-12     	;abs 0x78f4
    7902:	76 40 11 00 	mov.b	#17,	r6	;#0x0011
    7906:	46 9c       	cmp.b	r12,	r6	;
    7908:	08 28       	jnc	$+18     	;abs 0x791a
    790a:	7c 90 0d 00 	cmp.b	#13,	r12	;#0x000d
    790e:	f2 27       	jz	$-26     	;abs 0x78f4
    7910:	7c 90 0f 00 	cmp.b	#15,	r12	;#0x000f
    7914:	ef 27       	jz	$-32     	;abs 0x78f4
    7916:	80 00 ca 78 	mova	#30922,	r0	;0x078ca

0000791a <.L115>:
    791a:	7c 90 15 00 	cmp.b	#21,	r12	;#0x0015
    791e:	28 24       	jz	$+82     	;abs 0x7970
    7920:	7c 90 17 00 	cmp.b	#23,	r12	;#0x0017
    7924:	e7 27       	jz	$-48     	;abs 0x78f4
    7926:	7c 90 13 00 	cmp.b	#19,	r12	;#0x0013
    792a:	cf 23       	jnz	$-96     	;abs 0x78ca
    792c:	80 00 f4 78 	mova	#30964,	r0	;0x078f4

00007930 <.L107>:
    7930:	76 40 22 00 	mov.b	#34,	r6	;#0x0022
    7934:	46 9c       	cmp.b	r12,	r6	;
    7936:	2c 28       	jnc	$+90     	;abs 0x7990
    7938:	7c 90 1f 00 	cmp.b	#31,	r12	;#0x001f
    793c:	0d 2c       	jc	$+28     	;abs 0x7958
    793e:	7c 90 1b 00 	cmp.b	#27,	r12	;#0x001b
    7942:	5f 24       	jz	$+192    	;abs 0x7a02
    7944:	76 40 1b 00 	mov.b	#27,	r6	;#0x001b
    7948:	46 9c       	cmp.b	r12,	r6	;
    794a:	0c 28       	jnc	$+26     	;abs 0x7964
    794c:	7c 90 19 00 	cmp.b	#25,	r12	;#0x0019
    7950:	58 24       	jz	$+178    	;abs 0x7a02
    7952:	7c 90 1a 00 	cmp.b	#26,	r12	;#0x001a
    7956:	b9 23       	jnz	$-140    	;abs 0x78ca

00007958 <.L112>:
    7958:	7c 40 fb ff 	mov.b	#65531,	r12	;#0xfffb

0000795c <.L212>:
    795c:	4c 9e       	cmp.b	r14,	r12	;
    795e:	0a 2c       	jc	$+22     	;abs 0x7974
    7960:	80 00 d0 78 	mova	#30928,	r0	;0x078d0

00007964 <.L118>:
    7964:	7c 90 1c 00 	cmp.b	#28,	r12	;#0x001c
    7968:	f7 27       	jz	$-16     	;abs 0x7958
    796a:	7c 90 1d 00 	cmp.b	#29,	r12	;#0x001d
    796e:	ad 23       	jnz	$-164    	;abs 0x78ca

00007970 <.L106>:
    7970:	5e 93       	cmp.b	#1,	r14	;r3 As==01
    7972:	ae 23       	jnz	$-162    	;abs 0x78d0

00007974 <.L122>:
    7974:	08 93       	cmp	#0,	r8	;r3 As==00
    7976:	6c 24       	jz	$+218    	;abs 0x7a50
    7978:	41 18 c2 93 	cmpx.b	#0,	&0x11868;r3 As==00
    797c:	68 18 
    797e:	49 24       	jz	$+148    	;abs 0x7a12
    7980:	b0 13 fe a1 	calla	#41470		;0x0a1fe
    7984:	81 18 f2 40 	movx.a	#65908,	&0x11a36;0x10174
    7988:	74 01 36 1a 

0000798c <.L125>:
    798c:	80 00 8c 79 	mova	#31116,	r0	;0x0798c

00007990 <.L116>:
    7990:	7c 90 2a 00 	cmp.b	#42,	r12	;#0x002a
    7994:	36 24       	jz	$+110    	;abs 0x7a02
    7996:	76 40 2a 00 	mov.b	#42,	r6	;#0x002a
    799a:	46 9c       	cmp.b	r12,	r6	;
    799c:	0b 28       	jnc	$+24     	;abs 0x79b4
    799e:	7c 90 27 00 	cmp.b	#39,	r12	;#0x0027
    79a2:	e6 27       	jz	$-50     	;abs 0x7970
    79a4:	7c 90 29 00 	cmp.b	#41,	r12	;#0x0029
    79a8:	e3 27       	jz	$-56     	;abs 0x7970
    79aa:	7c 90 24 00 	cmp.b	#36,	r12	;#0x0024
    79ae:	8d 23       	jnz	$-228    	;abs 0x78ca
    79b0:	80 00 f4 78 	mova	#30964,	r0	;0x078f4

000079b4 <.L119>:
    79b4:	7c 90 2e 00 	cmp.b	#46,	r12	;#0x002e
    79b8:	cf 27       	jz	$-96     	;abs 0x7958
    79ba:	7c 90 2f 00 	cmp.b	#47,	r12	;#0x002f
    79be:	0c 24       	jz	$+26     	;abs 0x79d8
    79c0:	7c 90 2b 00 	cmp.b	#43,	r12	;#0x002b
    79c4:	82 23       	jnz	$-250    	;abs 0x78ca
    79c6:	6e 93       	cmp.b	#2,	r14	;r3 As==10
    79c8:	d5 27       	jz	$-84     	;abs 0x7974
    79ca:	80 00 d0 78 	mova	#30928,	r0	;0x078d0

000079ce <.L114>:
    79ce:	7e 90 03 00 	cmp.b	#3,	r14	;
    79d2:	d0 27       	jz	$-94     	;abs 0x7974
    79d4:	80 00 d0 78 	mova	#30928,	r0	;0x078d0

000079d8 <.L120>:
    79d8:	7e c2       	bic.b	#8,	r14	;r2 As==11
    79da:	6e 93       	cmp.b	#2,	r14	;r3 As==10
    79dc:	8b 23       	jnz	$-232    	;abs 0x78f4
    79de:	80 00 74 79 	mova	#31092,	r0	;0x07974

000079e2 <.L110>:
    79e2:	4c 4e       	mov.b	r14,	r12	;
    79e4:	7c 53       	add.b	#-1,	r12	;r3 As==11
    79e6:	76 40 fa ff 	mov.b	#65530,	r6	;#0xfffa
    79ea:	46 9c       	cmp.b	r12,	r6	;
    79ec:	71 2b       	jnc	$-284    	;abs 0x78d0
    79ee:	1e b3       	bit	#1,	r14	;r3 As==01
    79f0:	c1 23       	jnz	$-124    	;abs 0x7974
    79f2:	80 00 d0 78 	mova	#30928,	r0	;0x078d0

000079f6 <.L113>:
    79f6:	7e 50 fe ff 	add.b	#65534,	r14	;#0xfffe
    79fa:	7c 40 f9 ff 	mov.b	#65529,	r12	;#0xfff9
    79fe:	80 00 5c 79 	mova	#31068,	r0	;0x0795c

00007a02 <.L117>:
    7a02:	7e 50 fc ff 	add.b	#65532,	r14	;#0xfffc
    7a06:	76 40 f7 ff 	mov.b	#65527,	r6	;#0xfff7
    7a0a:	46 9e       	cmp.b	r14,	r6	;
    7a0c:	b3 2f       	jc	$-152    	;abs 0x7974
    7a0e:	80 00 d0 78 	mova	#30928,	r0	;0x078d0

00007a12 <.L124>:
    7a12:	06 4f       	mov	r15,	r6	;
    7a14:	26 53       	incd	r6		;
    7a16:	46 0e       	rlam.a	#4,	r6	;
    7a18:	46 0d       	rram.a	#4,	r6	;
    7a1a:	40 18 b2 43 	movx.w	#-1,	&0x00154;r3 As==11
    7a1e:	54 01 
    7a20:	ce 04       	mova	r4,	r14	;
    7a22:	cc 06       	mova	r6,	r12	;
    7a24:	ac 0f fe ff 	adda	#1048574,r12	;0xffffe

00007a28 <.L126>:
    7a28:	00 18 48 4e 	movx.a	r14,	r8	;
    7a2c:	00 18 48 84 	subx.a	r4,	r8	;
    7a30:	d8 0c       	cmpa	r12,	r8	;
    7a32:	3e 28       	jnc	$+126    	;abs 0x7ab0
    7a34:	40 18 1e 42 	movx.w	&0x00156,r14	;
    7a38:	56 01 
    7a3a:	3e e3       	inv	r14		;
    7a3c:	ec 04       	adda	r4,	r12	;
    7a3e:	6c 4c       	mov.b	@r12,	r12	;
    7a40:	47 18 0c 5c 	rpt #8 { rlax.w	r12		;
    7a44:	e6 04       	adda	r4,	r6	;
    7a46:	56 46 ff ff 	mov.b	-1(r6),	r6	;
    7a4a:	0c d6       	bis	r6,	r12	;
    7a4c:	0e 9c       	cmp	r12,	r14	;
    7a4e:	40 23       	jnz	$-382    	;abs 0x78d0

00007a50 <.L123>:
    7a50:	1a c3       	bic	#1,	r10	;r3 As==01
    7a52:	1a d1 06 00 	bis	6(r1),	r10	;
    7a56:	0d 5d       	rla	r13		;
    7a58:	2a c3       	bic	#2,	r10	;r3 As==10
    7a5a:	0a dd       	bis	r13,	r10	;
    7a5c:	41 18 05 55 	rpt #2 { rlax.w	r5		;
    7a60:	3a f0 03 ff 	and	#65283,	r10	;#0xff03
    7a64:	0a d5       	bis	r5,	r10	;
    7a66:	47 18 0f 5f 	rpt #8 { rlax.w	r15		;
    7a6a:	7a f0 ff 00 	and.b	#255,	r10	;#0x00ff
    7a6e:	0a df       	bis	r15,	r10	;
    7a70:	81 4a 0c 00 	mov	r10,	12(r1)	; 0x000c
    7a74:	91 41 08 00 	mov	8(r1),	14(r1)	; 0x000e
    7a78:	0e 00 
    7a7a:	0c 4b       	mov	r11,	r12	;
    7a7c:	0d 43       	clr	r13		;
    7a7e:	0e 4c       	mov	r12,	r14	;
    7a80:	0f 4d       	mov	r13,	r15	;
    7a82:	0e 5e       	rla	r14		;
    7a84:	0f 6f       	rlc	r15		;
    7a86:	0e 5e       	rla	r14		;
    7a88:	0f 6f       	rlc	r15		;
    7a8a:	81 4e 02 00 	mov	r14,	2(r1)	;
    7a8e:	81 4f 04 00 	mov	r15,	4(r1)	;
    7a92:	cd 01       	mova	r1,	r13	;
    7a94:	ad 00 0c 00 	adda	#12,	r13	;0x0000c
    7a98:	cc 04       	mova	r4,	r12	;
    7a9a:	3e 01 02 00 	mova	2(r1),	r14	;
    7a9e:	80 18 5e 4e 	movx.a	65920(r14),r14	;0x10180
    7aa2:	80 01 
    7aa4:	4e 13       	calla	r14		;

00007aa6 <.L129>:
    7aa6:	01 18 c2 43 	movx.a	#0,	&0x11640;r3 As==00
    7aaa:	40 16 
    7aac:	80 00 7c 77 	mova	#30588,	r0	;0x0777c

00007ab0 <.L127>:
    7ab0:	40 18 e2 4e 	movx.b	@r14,	&0x00150;
    7ab4:	50 01 
    7ab6:	ae 00 01 00 	adda	#1,	r14	;
    7aba:	80 00 28 7a 	mova	#31272,	r0	;0x07a28

00007abe <elyCmdSendReplyI>:
    7abe:	4a 14       	pushm.a	#5,	r10	;20-bit words
    7ac0:	09 4d       	mov	r13,	r9	;
    7ac2:	8a 0f fa ff 	mova	#-6,	r10	;0xfffffffa
    7ac6:	80 18 5a 82 	subx.a	&0x11930,r10	;
    7aca:	30 19 
    7acc:	ea 0c       	adda	r12,	r10	;
    7ace:	5e 4c 01 00 	mov.b	1(r12),	r14	;
    7ad2:	2e 52       	add	#4,	r14	;r2 As==10
    7ad4:	86 00 8c dc 	mova	#56460,	r6	;0x0dc8c
    7ad8:	5d 46 51 00 	mov.b	81(r6),	r13	;0x00051
    7adc:	47 18 0d 5d 	rpt #8 { rlax.w	r13		;
    7ae0:	5c 46 50 00 	mov.b	80(r6),	r12	;0x00050
    7ae4:	0d dc       	bis	r12,	r13	;
    7ae6:	0c 4d       	mov	r13,	r12	;
    7ae8:	5c 0f       	rrum	#4,	r12	;
    7aea:	5c 0f       	rrum	#4,	r12	;
    7aec:	ca 4c 00 00 	mov.b	r12,	0(r10)	;
    7af0:	ca 4d 01 00 	mov.b	r13,	1(r10)	;
    7af4:	c0 18 1c 42 	movx.w	&0x11930,r12	;
    7af8:	30 19 
    7afa:	3c 53       	add	#-1,	r12	;r3 As==11
    7afc:	0c 5e       	add	r14,	r12	;
    7afe:	0d 4c       	mov	r12,	r13	;
    7b00:	5d 0f       	rrum	#4,	r13	;
    7b02:	5d 0f       	rrum	#4,	r13	;
    7b04:	ca 4d 04 00 	mov.b	r13,	4(r10)	;
    7b08:	ca 4c 05 00 	mov.b	r12,	5(r10)	;
    7b0c:	57 46 86 00 	mov.b	134(r6),r7	;0x00086
    7b10:	40 18 27 b2 	bitx.w	#4,	r7	;r2 As==10
    7b14:	48 24       	jz	$+146    	;abs 0x7ba6
    7b16:	b0 13 fe a1 	calla	#41470		;0x0a1fe
    7b1a:	da 46 85 00 	mov.b	133(r6),2(r10)	;0x00085
    7b1e:	02 00 
    7b20:	da 46 84 00 	mov.b	132(r6),3(r10)	;0x00084
    7b24:	03 00 
    7b26:	b0 13 f4 a1 	calla	#41460		;0x0a1f4

00007b2a <.L215>:
    7b2a:	40 18 1c 42 	movx.w	&0x0bb92,r12	;
    7b2e:	92 bb 
    7b30:	1c 53       	inc	r12		;
    7b32:	3c f0 ff 3f 	and	#16383,	r12	;#0x3fff
    7b36:	40 18 82 4c 	movx.w	r12,	&0x0bb92;
    7b3a:	92 bb 
    7b3c:	40 18 27 b3 	bitx.w	#2,	r7	;r3 As==10
    7b40:	1a 24       	jz	$+54     	;abs 0x7b76
    7b42:	fa d2 00 00 	bis.b	#8,	0(r10)	;r2 As==11
    7b46:	8c 00 fe a1 	mova	#41470,	r12	;0x0a1fe
    7b4a:	88 00 f4 a1 	mova	#41460,	r8	;0x0a1f4
    7b4e:	40 18 17 b3 	bitx.w	#1,	r7	;r3 As==01
    7b52:	37 24       	jz	$+112    	;abs 0x7bc2
    7b54:	fa 40 2c 00 	mov.b	#44,	6(r10)	;#0x002c
    7b58:	06 00 
    7b5a:	4c 13       	calla	r12		;
    7b5c:	da 46 76 00 	mov.b	118(r6),7(r10)	;0x00076
    7b60:	07 00 
    7b62:	da 46 75 00 	mov.b	117(r6),8(r10)	;0x00075
    7b66:	08 00 
    7b68:	da 46 74 00 	mov.b	116(r6),9(r10)	;0x00074
    7b6c:	09 00 
    7b6e:	da 46 73 00 	mov.b	115(r6),10(r10)	;0x00073, 0x000a
    7b72:	0a 00 

00007b74 <.L233>:
    7b74:	48 13       	calla	r8		;

00007b76 <.L216>:
    7b76:	5c 46 83 00 	mov.b	131(r6),r12	;0x00083
    7b7a:	47 18 0c 5c 	rpt #8 { rlax.w	r12		;
    7b7e:	56 46 82 00 	mov.b	130(r6),r6	;0x00082
    7b82:	0c d6       	bis	r6,	r12	;
    7b84:	09 9c       	cmp	r12,	r9	;
    7b86:	67 20       	jnz	$+208    	;abs 0x7c56
    7b88:	8c 00 6a dc 	mova	#56426,	r12	;0x0dc6a
    7b8c:	1d 4c 12 00 	mov	18(r12),r13	;0x00012
    7b90:	4e 43       	clr.b	r14		;
    7b92:	0e 9d       	cmp	r13,	r14	;
    7b94:	25 38       	jl	$+76     	;abs 0x7be0
    7b96:	b0 13 fe a1 	calla	#41470		;0x0a1fe
    7b9a:	81 18 f2 40 	movx.a	#65891,	&0x11a36;0x10163
    7b9e:	63 01 36 1a 

00007ba2 <.L222>:
    7ba2:	80 00 a2 7b 	mova	#31650,	r0	;0x07ba2

00007ba6 <.L214>:
    7ba6:	40 18 1c 42 	movx.w	&0x0bb92,r12	;
    7baa:	92 bb 
    7bac:	0d 4c       	mov	r12,	r13	;
    7bae:	5d 0f       	rrum	#4,	r13	;
    7bb0:	5d 0f       	rrum	#4,	r13	;
    7bb2:	7d d0 c0 ff 	bis.b	#65472,	r13	;#0xffc0
    7bb6:	ca 4d 02 00 	mov.b	r13,	2(r10)	;
    7bba:	ca 4c 03 00 	mov.b	r12,	3(r10)	;
    7bbe:	80 00 2a 7b 	mova	#31530,	r0	;0x07b2a

00007bc2 <.L217>:
    7bc2:	4c 13       	calla	r12		;
    7bc4:	da 46 76 00 	mov.b	118(r6),6(r10)	;0x00076
    7bc8:	06 00 
    7bca:	da 46 75 00 	mov.b	117(r6),7(r10)	;0x00075
    7bce:	07 00 
    7bd0:	da 46 74 00 	mov.b	116(r6),8(r10)	;0x00074
    7bd4:	08 00 
    7bd6:	da 46 73 00 	mov.b	115(r6),9(r10)	;0x00073
    7bda:	09 00 
    7bdc:	80 00 74 7b 	mova	#31604,	r0	;0x07b74

00007be0 <.L227>:
    7be0:	bc 53 12 00 	add	#-1,	18(r12)	;r3 As==11, 0x0012
    7be4:	38 0c 08 00 	mova	8(r12),	r8	;
    7be8:	ce 08       	mova	r8,	r14	;
    7bea:	ae 00 04 00 	adda	#4,	r14	;
    7bee:	7c 0e 08 00 	mova	r14,	8(r12)	;
    7bf2:	78 0a 00 00 	mova	r10,	0(r8)	;
    7bf6:	00 18 5e 92 	cmpx.a	&0x0dc6e,r14	;
    7bfa:	6e dc 
    7bfc:	03 28       	jnc	$+8      	;abs 0x7c04
    7bfe:	00 18 ec 4c 	movx.a	@r12,	8(r12)	;
    7c02:	08 00 

00007c04 <.L220>:
    7c04:	8c 00 7a dc 	mova	#56442,	r12	;0x0dc7a
    7c08:	b0 13 82 92 	calla	#37506		;0x09282
    7c0c:	3d 40 00 04 	mov	#1024,	r13	;#0x0400
    7c10:	4e 43       	clr.b	r14		;
    7c12:	2c 01 76 19 	mova	&72054,	r12	;0x11976

00007c16 <.L234>:
    7c16:	b0 13 3a 92 	calla	#37434		;0x0923a
    7c1a:	46 16       	popm.a	#5,	r10	;20-bit words
    7c1c:	10 01       	reta			;

00007c1e <.L232>:
    7c1e:	bc 53 12 00 	add	#-1,	18(r12)	;r3 As==11, 0x0012
    7c22:	38 0c 08 00 	mova	8(r12),	r8	;
    7c26:	ce 08       	mova	r8,	r14	;
    7c28:	ae 00 04 00 	adda	#4,	r14	;
    7c2c:	7c 0e 08 00 	mova	r14,	8(r12)	;
    7c30:	78 0a 00 00 	mova	r10,	0(r8)	;
    7c34:	00 18 5e 92 	cmpx.a	&0x0dc5a,r14	;
    7c38:	5a dc 
    7c3a:	03 28       	jnc	$+8      	;abs 0x7c42
    7c3c:	00 18 ec 4c 	movx.a	@r12,	8(r12)	;
    7c40:	08 00 

00007c42 <.L223>:
    7c42:	8c 00 66 dc 	mova	#56422,	r12	;0x0dc66
    7c46:	b0 13 82 92 	calla	#37506		;0x09282
    7c4a:	6d 43       	mov.b	#2,	r13	;r3 As==10
    7c4c:	4e 43       	clr.b	r14		;
    7c4e:	2c 01 6a 18 	mova	&71786,	r12	;0x1186a
    7c52:	80 00 16 7c 	mova	#31766,	r0	;0x07c16

00007c56 <.L231>:
    7c56:	8c 00 56 dc 	mova	#56406,	r12	;0x0dc56
    7c5a:	1d 4c 12 00 	mov	18(r12),r13	;0x00012
    7c5e:	4e 43       	clr.b	r14		;
    7c60:	0e 9d       	cmp	r13,	r14	;
    7c62:	dd 3b       	jl	$-68     	;abs 0x7c1e
    7c64:	b0 13 fe a1 	calla	#41470		;0x0a1fe
    7c68:	81 18 f2 40 	movx.a	#65878,	&0x11a36;0x10156
    7c6c:	56 01 36 1a 

00007c70 <.L224>:
    7c70:	80 00 70 7c 	mova	#31856,	r0	;0x07c70

00007c74 <elyCmdSendReply>:
    7c74:	b1 00 08 00 	suba	#8,	r1	;
    7c78:	71 0c 04 00 	mova	r12,	4(r1)	;
    7c7c:	71 0d 00 00 	mova	r13,	0(r1)	;
    7c80:	b0 13 fe a1 	calla	#41470		;0x0a1fe
    7c84:	0d 01       	mova	@r1,	r13	;
    7c86:	3c 01 04 00 	mova	4(r1),	r12	;
    7c8a:	b0 13 be 7a 	calla	#31422		;0x07abe
    7c8e:	b0 13 f4 a1 	calla	#41460		;0x0a1f4
    7c92:	a1 00 08 00 	adda	#8,	r1	;
    7c96:	10 01       	reta			;

00007c98 <unlog_chan.lto_priv.210>:
    7c98:	3a 14       	pushm.a	#4,	r10	;20-bit words
    7c9a:	b1 00 04 00 	suba	#4,	r1	;
    7c9e:	ca 0c       	mova	r12,	r10	;
    7ca0:	2f 4d       	mov	@r13,	r15	;
    7ca2:	19 4d 02 00 	mov	2(r13),	r9	;
    7ca6:	0d 4f       	mov	r15,	r13	;
    7ca8:	5d 0f       	rrum	#4,	r13	;
    7caa:	5d 0f       	rrum	#4,	r13	;
    7cac:	4c 4f       	mov.b	r15,	r12	;
    7cae:	0e 4c       	mov	r12,	r14	;
    7cb0:	5e f3       	and.b	#1,	r14	;r3 As==01
    7cb2:	6c f3       	and.b	#2,	r12	;r3 As==10
    7cb4:	3c f0 ff 00 	and	#255,	r12	;#0x00ff
    7cb8:	0c 93       	cmp	#0,	r12	;r3 As==00
    7cba:	17 24       	jz	$+48     	;abs 0x7cea
    7cbc:	68 42       	mov.b	#4,	r8	;r2 As==10

00007cbe <.L2>:
    7cbe:	0b 48       	mov	r8,	r11	;
    7cc0:	0d 58       	add	r8,	r13	;
    7cc2:	0e 93       	cmp	#0,	r14	;r3 As==00
    7cc4:	01 24       	jz	$+4      	;abs 0x7cc8
    7cc6:	6e 43       	mov.b	#2,	r14	;r3 As==10

00007cc8 <.L4>:
    7cc8:	0d 8e       	sub	r14,	r13	;
    7cca:	40 18 0e 48 	movx.w	r8,	r14	;
    7cce:	ee 0a       	adda	r10,	r14	;

00007cd0 <.L5>:
    7cd0:	0b 9d       	cmp	r13,	r11	;
    7cd2:	0e 38       	jl	$+30     	;abs 0x7cf0
    7cd4:	0c 93       	cmp	#0,	r12	;r3 As==00
    7cd6:	1e 24       	jz	$+62     	;abs 0x7d14
    7cd8:	81 4f 00 00 	mov	r15,	0(r1)	;
    7cdc:	81 49 02 00 	mov	r9,	2(r1)	;
    7ce0:	cc 01       	mova	r1,	r12	;
    7ce2:	b0 13 6e 5d 	calla	#23918		;0x05d6e
    7ce6:	80 00 14 7d 	mova	#32020,	r0	;0x07d14

00007cea <.L11>:
    7cea:	68 43       	mov.b	#2,	r8	;r3 As==10
    7cec:	80 00 be 7c 	mova	#31934,	r0	;0x07cbe

00007cf0 <.L9>:
    7cf0:	68 4e       	mov.b	@r14,	r8	;
    7cf2:	78 50 c0 ff 	add.b	#65472,	r8	;#0xffc0
    7cf6:	ae 00 01 00 	adda	#1,	r14	;
    7cfa:	77 40 3f 00 	mov.b	#63,	r7	;#0x003f
    7cfe:	47 98       	cmp.b	r8,	r7	;
    7d00:	15 2c       	jc	$+44     	;abs 0x7d2c
    7d02:	0c 93       	cmp	#0,	r12	;r3 As==00
    7d04:	07 24       	jz	$+16     	;abs 0x7d14
    7d06:	81 4f 00 00 	mov	r15,	0(r1)	;
    7d0a:	81 49 02 00 	mov	r9,	2(r1)	;
    7d0e:	cc 01       	mova	r1,	r12	;
    7d10:	b0 13 38 5d 	calla	#23864		;0x05d38

00007d14 <.L10>:
    7d14:	8c 0f fa ff 	mova	#-6,	r12	;0xfffffffa
    7d18:	80 18 5c 82 	subx.a	&0x11930,r12	;
    7d1c:	30 19 
    7d1e:	ec 0a       	adda	r10,	r12	;
    7d20:	b0 13 56 a4 	calla	#42070		;0x0a456
    7d24:	a1 00 04 00 	adda	#4,	r1	;
    7d28:	37 16       	popm.a	#4,	r10	;20-bit words
    7d2a:	10 01       	reta			;

00007d2c <.L6>:
    7d2c:	1b 53       	inc	r11		;
    7d2e:	80 00 d0 7c 	mova	#31952,	r0	;0x07cd0

00007d32 <log_chan.lto_priv.209>:
    7d32:	4a 14       	pushm.a	#5,	r10	;20-bit words
    7d34:	b1 00 04 00 	suba	#4,	r1	;
    7d38:	ca 0c       	mova	r12,	r10	;
    7d3a:	2f 4d       	mov	@r13,	r15	;
    7d3c:	1b 4d 02 00 	mov	2(r13),	r11	;
    7d40:	0c 4f       	mov	r15,	r12	;
    7d42:	5c 0f       	rrum	#4,	r12	;
    7d44:	5c 0f       	rrum	#4,	r12	;
    7d46:	4e 4f       	mov.b	r15,	r14	;
    7d48:	40 18 1e b3 	bitx.w	#1,	r14	;r3 As==01
    7d4c:	1f 24       	jz	$+64     	;abs 0x7d8c
    7d4e:	69 43       	mov.b	#2,	r9	;r3 As==10

00007d50 <.L19>:
    7d50:	6e f3       	and.b	#2,	r14	;r3 As==10
    7d52:	4d 4e       	mov.b	r14,	r13	;
    7d54:	4c 8e       	sub.b	r14,	r12	;
    7d56:	4c 89       	sub.b	r9,	r12	;
    7d58:	3c f0 ff 00 	and	#255,	r12	;#0x00ff
    7d5c:	0d 93       	cmp	#0,	r13	;r3 As==00
    7d5e:	19 24       	jz	$+52     	;abs 0x7d92
    7d60:	68 42       	mov.b	#4,	r8	;r2 As==10

00007d62 <.L20>:
    7d62:	09 48       	mov	r8,	r9	;
    7d64:	29 52       	add	#4,	r9	;r2 As==10
    7d66:	06 49       	mov	r9,	r6	;
    7d68:	46 0e       	rlam.a	#4,	r6	;
    7d6a:	46 0d       	rram.a	#4,	r6	;
    7d6c:	ce 06       	mova	r6,	r14	;
    7d6e:	ee 0a       	adda	r10,	r14	;
    7d70:	0c 58       	add	r8,	r12	;

00007d72 <.L21>:
    7d72:	09 9c       	cmp	r12,	r9	;
    7d74:	11 38       	jl	$+36     	;abs 0x7d98
    7d76:	0d 93       	cmp	#0,	r13	;r3 As==00
    7d78:	2e 24       	jz	$+94     	;abs 0x7dd6
    7d7a:	81 4f 00 00 	mov	r15,	0(r1)	;
    7d7e:	81 4b 02 00 	mov	r11,	2(r1)	;
    7d82:	cc 01       	mova	r1,	r12	;
    7d84:	b0 13 6e 5d 	calla	#23918		;0x05d6e
    7d88:	80 00 d6 7d 	mova	#32214,	r0	;0x07dd6

00007d8c <.L28>:
    7d8c:	49 43       	clr.b	r9		;
    7d8e:	80 00 50 7d 	mova	#32080,	r0	;0x07d50

00007d92 <.L29>:
    7d92:	68 43       	mov.b	#2,	r8	;r3 As==10
    7d94:	80 00 62 7d 	mova	#32098,	r0	;0x07d62

00007d98 <.L26>:
    7d98:	68 4e       	mov.b	@r14,	r8	;
    7d9a:	47 48       	mov.b	r8,	r7	;
    7d9c:	77 50 c0 ff 	add.b	#65472,	r7	;#0xffc0
    7da0:	76 40 36 00 	mov.b	#54,	r6	;#0x0036
    7da4:	46 97       	cmp.b	r7,	r6	;
    7da6:	0e 28       	jnc	$+30     	;abs 0x7dc4
    7da8:	77 50 ef ff 	add.b	#65519,	r7	;#0xffef
    7dac:	76 40 0e 00 	mov.b	#14,	r6	;#0x000e
    7db0:	46 97       	cmp.b	r7,	r6	;
    7db2:	08 2c       	jc	$+18     	;abs 0x7dc4
    7db4:	ae 00 01 00 	adda	#1,	r14	;
    7db8:	78 50 9d ff 	add.b	#65437,	r8	;#0xff9d
    7dbc:	77 40 0c 00 	mov.b	#12,	r7	;#0x000c
    7dc0:	47 98       	cmp.b	r8,	r7	;
    7dc2:	15 28       	jnc	$+44     	;abs 0x7dee

00007dc4 <.L22>:
    7dc4:	0d 93       	cmp	#0,	r13	;r3 As==00
    7dc6:	07 24       	jz	$+16     	;abs 0x7dd6
    7dc8:	81 4f 00 00 	mov	r15,	0(r1)	;
    7dcc:	81 4b 02 00 	mov	r11,	2(r1)	;
    7dd0:	cc 01       	mova	r1,	r12	;
    7dd2:	b0 13 38 5d 	calla	#23864		;0x05d38

00007dd6 <.L27>:
    7dd6:	8c 0f fa ff 	mova	#-6,	r12	;0xfffffffa
    7dda:	80 18 5c 82 	subx.a	&0x11930,r12	;
    7dde:	30 19 
    7de0:	ec 0a       	adda	r10,	r12	;
    7de2:	b0 13 56 a4 	calla	#42070		;0x0a456
    7de6:	a1 00 04 00 	adda	#4,	r1	;
    7dea:	46 16       	popm.a	#5,	r10	;20-bit words
    7dec:	10 01       	reta			;

00007dee <.L23>:
    7dee:	19 53       	inc	r9		;
    7df0:	80 00 72 7d 	mova	#32114,	r0	;0x07d72

00007df4 <channel_sub.lto_priv.207>:
    7df4:	b0 13 32 7d 	calla	#32050		;0x07d32
    7df8:	10 01       	reta			;

00007dfa <channel_unsub.lto_priv.208>:
    7dfa:	3a 14       	pushm.a	#4,	r10	;20-bit words
    7dfc:	b1 00 04 00 	suba	#4,	r1	;
    7e00:	ca 0c       	mova	r12,	r10	;
    7e02:	2f 4d       	mov	@r13,	r15	;
    7e04:	1b 4d 02 00 	mov	2(r13),	r11	;
    7e08:	0c 4f       	mov	r15,	r12	;
    7e0a:	5c 0f       	rrum	#4,	r12	;
    7e0c:	5c 0f       	rrum	#4,	r12	;
    7e0e:	4e 4f       	mov.b	r15,	r14	;
    7e10:	40 18 1e b3 	bitx.w	#1,	r14	;r3 As==01
    7e14:	1b 24       	jz	$+56     	;abs 0x7e4c
    7e16:	69 43       	mov.b	#2,	r9	;r3 As==10

00007e18 <.L38>:
    7e18:	6e f3       	and.b	#2,	r14	;r3 As==10
    7e1a:	4d 4e       	mov.b	r14,	r13	;
    7e1c:	4c 8e       	sub.b	r14,	r12	;
    7e1e:	4c 89       	sub.b	r9,	r12	;
    7e20:	3c f0 ff 00 	and	#255,	r12	;#0x00ff
    7e24:	0d 93       	cmp	#0,	r13	;r3 As==00
    7e26:	15 24       	jz	$+44     	;abs 0x7e52
    7e28:	69 42       	mov.b	#4,	r9	;r2 As==10

00007e2a <.L39>:
    7e2a:	40 18 0e 49 	movx.w	r9,	r14	;
    7e2e:	ee 0a       	adda	r10,	r14	;
    7e30:	0c 59       	add	r9,	r12	;

00007e32 <.L40>:
    7e32:	09 9c       	cmp	r12,	r9	;
    7e34:	11 38       	jl	$+36     	;abs 0x7e58
    7e36:	0d 93       	cmp	#0,	r13	;r3 As==00
    7e38:	21 24       	jz	$+68     	;abs 0x7e7c
    7e3a:	81 4f 00 00 	mov	r15,	0(r1)	;
    7e3e:	81 4b 02 00 	mov	r11,	2(r1)	;
    7e42:	cc 01       	mova	r1,	r12	;
    7e44:	b0 13 6e 5d 	calla	#23918		;0x05d6e
    7e48:	80 00 7c 7e 	mova	#32380,	r0	;0x07e7c

00007e4c <.L46>:
    7e4c:	49 43       	clr.b	r9		;
    7e4e:	80 00 18 7e 	mova	#32280,	r0	;0x07e18

00007e52 <.L47>:
    7e52:	69 43       	mov.b	#2,	r9	;r3 As==10
    7e54:	80 00 2a 7e 	mova	#32298,	r0	;0x07e2a

00007e58 <.L44>:
    7e58:	68 4e       	mov.b	@r14,	r8	;
    7e5a:	78 50 c0 ff 	add.b	#65472,	r8	;#0xffc0
    7e5e:	ae 00 01 00 	adda	#1,	r14	;
    7e62:	77 40 3f 00 	mov.b	#63,	r7	;#0x003f
    7e66:	47 98       	cmp.b	r8,	r7	;
    7e68:	15 2c       	jc	$+44     	;abs 0x7e94
    7e6a:	0d 93       	cmp	#0,	r13	;r3 As==00
    7e6c:	07 24       	jz	$+16     	;abs 0x7e7c
    7e6e:	81 4f 00 00 	mov	r15,	0(r1)	;
    7e72:	81 4b 02 00 	mov	r11,	2(r1)	;
    7e76:	cc 01       	mova	r1,	r12	;
    7e78:	b0 13 38 5d 	calla	#23864		;0x05d38

00007e7c <.L45>:
    7e7c:	8c 0f fa ff 	mova	#-6,	r12	;0xfffffffa
    7e80:	80 18 5c 82 	subx.a	&0x11930,r12	;
    7e84:	30 19 
    7e86:	ec 0a       	adda	r10,	r12	;
    7e88:	b0 13 56 a4 	calla	#42070		;0x0a456
    7e8c:	a1 00 04 00 	adda	#4,	r1	;
    7e90:	37 16       	popm.a	#4,	r10	;20-bit words
    7e92:	10 01       	reta			;

00007e94 <.L41>:
    7e94:	19 53       	inc	r9		;
    7e96:	80 00 32 7e 	mova	#32306,	r0	;0x07e32

00007e9a <reload_config.lto_priv.206>:
    7e9a:	4a 14       	pushm.a	#5,	r10	;20-bit words
    7e9c:	b1 00 04 00 	suba	#4,	r1	;
    7ea0:	29 4d       	mov	@r13,	r9	;
    7ea2:	18 4d 02 00 	mov	2(r13),	r8	;
    7ea6:	47 49       	mov.b	r9,	r7	;
    7ea8:	67 f3       	and.b	#2,	r7	;r3 As==10
    7eaa:	37 f0 ff 00 	and	#255,	r7	;#0x00ff
    7eae:	07 93       	cmp	#0,	r7	;r3 As==00
    7eb0:	20 20       	jnz	$+66     	;abs 0x7ef2
    7eb2:	6e 43       	mov.b	#2,	r14	;r3 As==10

00007eb4 <.L55>:
    7eb4:	40 18 0e 4e 	movx.w	r14,	r14	;
    7eb8:	ee 0c       	adda	r12,	r14	;
    7eba:	6a 4e       	mov.b	@r14,	r10	;
    7ebc:	8e 0f fa ff 	mova	#-6,	r14	;0xfffffffa
    7ec0:	80 18 5e 82 	subx.a	&0x11930,r14	;
    7ec4:	30 19 
    7ec6:	ec 0e       	adda	r14,	r12	;
    7ec8:	b0 13 56 a4 	calla	#42070		;0x0a456
    7ecc:	4c 4a       	mov.b	r10,	r12	;
    7ece:	7c 53       	add.b	#-1,	r12	;r3 As==11
    7ed0:	7d 40 03 00 	mov.b	#3,	r13	;
    7ed4:	4d 9c       	cmp.b	r12,	r13	;
    7ed6:	10 2c       	jc	$+34     	;abs 0x7ef8
    7ed8:	07 93       	cmp	#0,	r7	;r3 As==00
    7eda:	07 24       	jz	$+16     	;abs 0x7eea
    7edc:	81 49 00 00 	mov	r9,	0(r1)	;
    7ee0:	81 48 02 00 	mov	r8,	2(r1)	;
    7ee4:	cc 01       	mova	r1,	r12	;
    7ee6:	b0 13 38 5d 	calla	#23864		;0x05d38

00007eea <.L54>:
    7eea:	a1 00 04 00 	adda	#4,	r1	;
    7eee:	46 16       	popm.a	#5,	r10	;20-bit words
    7ef0:	10 01       	reta			;

00007ef2 <.L58>:
    7ef2:	6e 42       	mov.b	#4,	r14	;r2 As==10
    7ef4:	80 00 b4 7e 	mova	#32436,	r0	;0x07eb4

00007ef8 <.L56>:
    7ef8:	88 00 8c dc 	mova	#56460,	r8	;0x0dc8c
    7efc:	86 00 e0 a0 	mova	#41184,	r6	;0x0a0e0
    7f00:	7f 40 56 00 	mov.b	#86,	r15	;#0x0056
    7f04:	4e 43       	clr.b	r14		;
    7f06:	cd 08       	mova	r8,	r13	;
    7f08:	4c 4a       	mov.b	r10,	r12	;
    7f0a:	46 13       	calla	r6		;
    7f0c:	7f 40 0a 00 	mov.b	#10,	r15	;#0x000a
    7f10:	7e 40 80 ff 	mov.b	#65408,	r14	;#0xff80
    7f14:	cd 08       	mova	r8,	r13	;
    7f16:	ad 00 80 00 	adda	#128,	r13	;0x00080
    7f1a:	4c 4a       	mov.b	r10,	r12	;
    7f1c:	46 13       	calla	r6		;
    7f1e:	7f 40 15 00 	mov.b	#21,	r15	;#0x0015
    7f22:	7e 40 c0 ff 	mov.b	#65472,	r14	;#0xffc0
    7f26:	cd 08       	mova	r8,	r13	;
    7f28:	ad 00 c0 00 	adda	#192,	r13	;0x000c0
    7f2c:	4c 4a       	mov.b	r10,	r12	;
    7f2e:	46 13       	calla	r6		;
    7f30:	c8 4a 69 00 	mov.b	r10,	105(r8)	; 0x0069
    7f34:	01 18 c2 43 	movx.a	#0,	&0x11640;r3 As==00
    7f38:	40 16 
    7f3a:	c0 1f b2 40 	movx.w	#-23224,&0x00120;0xfa548
    7f3e:	48 a5 20 01 
    7f42:	80 00 ea 7e 	mova	#32490,	r0	;0x07eea

00007f46 <get_baud.lto_priv.204>:
    7f46:	19 14       	pushm.a	#2,	r9	;20-bit words
    7f48:	b1 00 08 00 	suba	#8,	r1	;
    7f4c:	28 4d       	mov	@r13,	r8	;
    7f4e:	19 4d 02 00 	mov	2(r13),	r9	;
    7f52:	8e 0f fa ff 	mova	#-6,	r14	;0xfffffffa
    7f56:	80 18 5e 82 	subx.a	&0x11930,r14	;
    7f5a:	30 19 
    7f5c:	ec 0e       	adda	r14,	r12	;
    7f5e:	b0 13 56 a4 	calla	#42070		;0x0a456
    7f62:	81 48 04 00 	mov	r8,	4(r1)	;
    7f66:	81 49 06 00 	mov	r9,	6(r1)	;
    7f6a:	91 43 00 00 	mov	#1,	0(r1)	;r3 As==01
    7f6e:	81 43 02 00 	mov	#0,	2(r1)	;r3 As==00
    7f72:	3e 40 40 42 	mov	#16960,	r14	;#0x4240
    7f76:	7f 40 0f 00 	mov.b	#15,	r15	;#0x000f
    7f7a:	cd 01       	mova	r1,	r13	;
    7f7c:	ad 00 04 00 	adda	#4,	r13	;
    7f80:	7c 40 22 00 	mov.b	#34,	r12	;#0x0022
    7f84:	b0 13 e0 5b 	calla	#23520		;0x05be0
    7f88:	a1 00 08 00 	adda	#8,	r1	;
    7f8c:	18 16       	popm.a	#2,	r9	;20-bit words
    7f8e:	10 01       	reta			;

00007f90 <get_rx_dev.lto_priv.200>:
    7f90:	19 14       	pushm.a	#2,	r9	;20-bit words
    7f92:	b1 00 08 00 	suba	#8,	r1	;
    7f96:	28 4d       	mov	@r13,	r8	;
    7f98:	19 4d 02 00 	mov	2(r13),	r9	;
    7f9c:	8e 0f fa ff 	mova	#-6,	r14	;0xfffffffa
    7fa0:	80 18 5e 82 	subx.a	&0x11930,r14	;
    7fa4:	30 19 
    7fa6:	ec 0e       	adda	r14,	r12	;
    7fa8:	b0 13 56 a4 	calla	#42070		;0x0a456
    7fac:	81 48 04 00 	mov	r8,	4(r1)	;
    7fb0:	81 49 06 00 	mov	r9,	6(r1)	;
    7fb4:	b1 40 e8 80 	mov	#33000,	0(r1)	;#0x80e8
    7fb8:	00 00 
    7fba:	81 43 02 00 	mov	#0,	2(r1)	;r3 As==00
    7fbe:	3e 40 40 0d 	mov	#3392,	r14	;#0x0d40
    7fc2:	7f 40 03 00 	mov.b	#3,	r15	;
    7fc6:	cd 01       	mova	r1,	r13	;
    7fc8:	ad 00 04 00 	adda	#4,	r13	;
    7fcc:	7c 40 0c 00 	mov.b	#12,	r12	;#0x000c
    7fd0:	b0 13 e0 5b 	calla	#23520		;0x05be0
    7fd4:	a1 00 08 00 	adda	#8,	r1	;
    7fd8:	18 16       	popm.a	#2,	r9	;20-bit words
    7fda:	10 01       	reta			;

00007fdc <get_tx_dev.lto_priv.198>:
    7fdc:	19 14       	pushm.a	#2,	r9	;20-bit words
    7fde:	b1 00 08 00 	suba	#8,	r1	;
    7fe2:	28 4d       	mov	@r13,	r8	;
    7fe4:	19 4d 02 00 	mov	2(r13),	r9	;
    7fe8:	8e 0f fa ff 	mova	#-6,	r14	;0xfffffffa
    7fec:	80 18 5e 82 	subx.a	&0x11930,r14	;
    7ff0:	30 19 
    7ff2:	ec 0e       	adda	r14,	r12	;
    7ff4:	b0 13 56 a4 	calla	#42070		;0x0a456
    7ff8:	81 48 04 00 	mov	r8,	4(r1)	;
    7ffc:	81 49 06 00 	mov	r9,	6(r1)	;
    8000:	b1 40 58 02 	mov	#600,	0(r1)	;#0x0258
    8004:	00 00 
    8006:	81 43 02 00 	mov	#0,	2(r1)	;r3 As==00
    800a:	3e 40 40 0d 	mov	#3392,	r14	;#0x0d40
    800e:	7f 40 03 00 	mov.b	#3,	r15	;
    8012:	cd 01       	mova	r1,	r13	;
    8014:	ad 00 04 00 	adda	#4,	r13	;
    8018:	7c 42       	mov.b	#8,	r12	;r2 As==11
    801a:	b0 13 e0 5b 	calla	#23520		;0x05be0
    801e:	a1 00 08 00 	adda	#8,	r1	;
    8022:	18 16       	popm.a	#2,	r9	;20-bit words
    8024:	10 01       	reta			;

00008026 <get_rx_br.lto_priv.196>:
    8026:	19 14       	pushm.a	#2,	r9	;20-bit words
    8028:	b1 00 08 00 	suba	#8,	r1	;
    802c:	28 4d       	mov	@r13,	r8	;
    802e:	19 4d 02 00 	mov	2(r13),	r9	;
    8032:	8e 0f fa ff 	mova	#-6,	r14	;0xfffffffa
    8036:	80 18 5e 82 	subx.a	&0x11930,r14	;
    803a:	30 19 
    803c:	ec 0e       	adda	r14,	r12	;
    803e:	b0 13 56 a4 	calla	#42070		;0x0a456
    8042:	81 48 04 00 	mov	r8,	4(r1)	;
    8046:	81 49 06 00 	mov	r9,	6(r1)	;
    804a:	b1 40 0c 03 	mov	#780,	0(r1)	;#0x030c
    804e:	00 00 
    8050:	81 43 02 00 	mov	#0,	2(r1)	;r3 As==00
    8054:	3e 40 f0 49 	mov	#18928,	r14	;#0x49f0
    8058:	6f 43       	mov.b	#2,	r15	;r3 As==10
    805a:	cd 01       	mova	r1,	r13	;
    805c:	ad 00 04 00 	adda	#4,	r13	;
    8060:	7c 40 1c 00 	mov.b	#28,	r12	;#0x001c
    8064:	b0 13 e0 5b 	calla	#23520		;0x05be0
    8068:	a1 00 08 00 	adda	#8,	r1	;
    806c:	18 16       	popm.a	#2,	r9	;20-bit words
    806e:	10 01       	reta			;

00008070 <get_tx_br.lto_priv.194>:
    8070:	19 14       	pushm.a	#2,	r9	;20-bit words
    8072:	b1 00 08 00 	suba	#8,	r1	;
    8076:	28 4d       	mov	@r13,	r8	;
    8078:	19 4d 02 00 	mov	2(r13),	r9	;
    807c:	8e 0f fa ff 	mova	#-6,	r14	;0xfffffffa
    8080:	80 18 5e 82 	subx.a	&0x11930,r14	;
    8084:	30 19 
    8086:	ec 0e       	adda	r14,	r12	;
    8088:	b0 13 56 a4 	calla	#42070		;0x0a456
    808c:	81 48 04 00 	mov	r8,	4(r1)	;
    8090:	81 49 06 00 	mov	r9,	6(r1)	;
    8094:	b1 40 b0 04 	mov	#1200,	0(r1)	;#0x04b0
    8098:	00 00 
    809a:	81 43 02 00 	mov	#0,	2(r1)	;r3 As==00
    809e:	3e 40 e0 93 	mov	#37856,	r14	;#0x93e0
    80a2:	6f 42       	mov.b	#4,	r15	;r2 As==10
    80a4:	cd 01       	mova	r1,	r13	;
    80a6:	ad 00 04 00 	adda	#4,	r13	;
    80aa:	7c 40 18 00 	mov.b	#24,	r12	;#0x0018
    80ae:	b0 13 e0 5b 	calla	#23520		;0x05be0
    80b2:	a1 00 08 00 	adda	#8,	r1	;
    80b6:	18 16       	popm.a	#2,	r9	;20-bit words
    80b8:	10 01       	reta			;

000080ba <get_rx_freq.lto_priv.192>:
    80ba:	19 14       	pushm.a	#2,	r9	;20-bit words
    80bc:	b1 00 08 00 	suba	#8,	r1	;
    80c0:	28 4d       	mov	@r13,	r8	;
    80c2:	19 4d 02 00 	mov	2(r13),	r9	;
    80c6:	8e 0f fa ff 	mova	#-6,	r14	;0xfffffffa
    80ca:	80 18 5e 82 	subx.a	&0x11930,r14	;
    80ce:	30 19 
    80d0:	ec 0e       	adda	r14,	r12	;
    80d2:	b0 13 56 a4 	calla	#42070		;0x0a456
    80d6:	81 48 04 00 	mov	r8,	4(r1)	;
    80da:	81 49 06 00 	mov	r9,	6(r1)	;
    80de:	b1 40 40 44 	mov	#17472,	0(r1)	;#0x4440
    80e2:	00 00 
    80e4:	b1 40 3d 1b 	mov	#6973,	2(r1)	;#0x1b3d
    80e8:	02 00 
    80ea:	3e 40 c0 e3 	mov	#58304,	r14	;#0xe3c0
    80ee:	3f 40 12 1c 	mov	#7186,	r15	;#0x1c12
    80f2:	cd 01       	mova	r1,	r13	;
    80f4:	ad 00 04 00 	adda	#4,	r13	;
    80f8:	6c 42       	mov.b	#4,	r12	;r2 As==10
    80fa:	b0 13 e0 5b 	calla	#23520		;0x05be0
    80fe:	a1 00 08 00 	adda	#8,	r1	;
    8102:	18 16       	popm.a	#2,	r9	;20-bit words
    8104:	10 01       	reta			;

00008106 <get_tx_freq.lto_priv.190>:
    8106:	19 14       	pushm.a	#2,	r9	;20-bit words
    8108:	b1 00 08 00 	suba	#8,	r1	;
    810c:	28 4d       	mov	@r13,	r8	;
    810e:	19 4d 02 00 	mov	2(r13),	r9	;
    8112:	8e 0f fa ff 	mova	#-6,	r14	;0xfffffffa
    8116:	80 18 5e 82 	subx.a	&0x11930,r14	;
    811a:	30 19 
    811c:	ec 0e       	adda	r14,	r12	;
    811e:	b0 13 56 a4 	calla	#42070		;0x0a456
    8122:	81 48 04 00 	mov	r8,	4(r1)	;
    8126:	81 49 06 00 	mov	r9,	6(r1)	;
    812a:	b1 40 40 da 	mov	#55872,	0(r1)	;#0xda40
    812e:	00 00 
    8130:	b1 40 8e 33 	mov	#13198,	2(r1)	;#0x338e
    8134:	02 00 
    8136:	3e 40 c0 24 	mov	#9408,	r14	;#0x24c0
    813a:	3f 40 ec 38 	mov	#14572,	r15	;#0x38ec
    813e:	cd 01       	mova	r1,	r13	;
    8140:	ad 00 04 00 	adda	#4,	r13	;
    8144:	4c 43       	clr.b	r12		;
    8146:	b0 13 e0 5b 	calla	#23520		;0x05be0
    814a:	a1 00 08 00 	adda	#8,	r1	;
    814e:	18 16       	popm.a	#2,	r9	;20-bit words
    8150:	10 01       	reta			;

00008152 <set_tx_pow.lto_priv.203>:
    8152:	4a 14       	pushm.a	#5,	r10	;20-bit words
    8154:	b1 00 04 00 	suba	#4,	r1	;
    8158:	c8 0c       	mova	r12,	r8	;
    815a:	2a 4d       	mov	@r13,	r10	;
    815c:	17 4d 02 00 	mov	2(r13),	r7	;
    8160:	49 4a       	mov.b	r10,	r9	;
    8162:	69 f3       	and.b	#2,	r9	;r3 As==10
    8164:	39 f0 ff 00 	and	#255,	r9	;#0x00ff
    8168:	09 93       	cmp	#0,	r9	;r3 As==00
    816a:	1f 20       	jnz	$+64     	;abs 0x81aa
    816c:	6c 43       	mov.b	#2,	r12	;r3 As==10

0000816e <.L70>:
    816e:	40 18 0c 4c 	movx.w	r12,	r12	;
    8172:	ec 08       	adda	r8,	r12	;
    8174:	6c 4c       	mov.b	@r12,	r12	;
    8176:	86 00 56 a4 	mova	#42070,	r6	;0x0a456
    817a:	7d 40 82 ff 	mov.b	#65410,	r13	;#0xff82
    817e:	4d 9c       	cmp.b	r12,	r13	;
    8180:	17 2c       	jc	$+48     	;abs 0x81b0
    8182:	09 93       	cmp	#0,	r9	;r3 As==00
    8184:	07 24       	jz	$+16     	;abs 0x8194
    8186:	81 4a 00 00 	mov	r10,	0(r1)	;
    818a:	81 47 02 00 	mov	r7,	2(r1)	;
    818e:	cc 01       	mova	r1,	r12	;
    8190:	b0 13 38 5d 	calla	#23864		;0x05d38

00008194 <.L74>:
    8194:	8c 0f fa ff 	mova	#-6,	r12	;0xfffffffa
    8198:	80 18 5c 82 	subx.a	&0x11930,r12	;
    819c:	30 19 
    819e:	ec 08       	adda	r8,	r12	;
    81a0:	46 13       	calla	r6		;
    81a2:	a1 00 04 00 	adda	#4,	r1	;
    81a6:	46 16       	popm.a	#5,	r10	;20-bit words
    81a8:	10 01       	reta			;

000081aa <.L75>:
    81aa:	6c 42       	mov.b	#4,	r12	;r2 As==10
    81ac:	80 00 6e 81 	mova	#33134,	r0	;0x0816e

000081b0 <.L71>:
    81b0:	40 18 c2 4c 	movx.b	r12,	&0x0dcad;
    81b4:	ad dc 
    81b6:	3c 40 00 01 	mov	#256,	r12	;#0x0100
    81ba:	4d 43       	clr.b	r13		;
    81bc:	b0 13 18 98 	calla	#38936		;0x09818
    81c0:	09 93       	cmp	#0,	r9	;r3 As==00
    81c2:	e8 27       	jz	$-46     	;abs 0x8194
    81c4:	81 4a 00 00 	mov	r10,	0(r1)	;
    81c8:	81 47 02 00 	mov	r7,	2(r1)	;
    81cc:	cc 01       	mova	r1,	r12	;
    81ce:	b0 13 6e 5d 	calla	#23918		;0x05d6e
    81d2:	80 00 94 81 	mova	#33172,	r0	;0x08194

000081d6 <set_rx_dev.lto_priv.201>:
    81d6:	0a 14       	pushm.a	#1,	r10	;20-bit words
    81d8:	b1 00 0a 00 	suba	#10,	r1	;0x0000a
    81dc:	ca 0c       	mova	r12,	r10	;
    81de:	a1 4d 06 00 	mov	@r13,	6(r1)	;
    81e2:	91 4d 02 00 	mov	2(r13),	8(r1)	;
    81e6:	08 00 
    81e8:	b1 40 e8 80 	mov	#33000,	2(r1)	;#0x80e8
    81ec:	02 00 
    81ee:	81 43 04 00 	mov	#0,	4(r1)	;r3 As==00
    81f2:	b1 40 03 00 	mov	#3,	0(r1)	;
    81f6:	00 00 
    81f8:	3f 40 40 0d 	mov	#3392,	r15	;#0x0d40
    81fc:	ce 01       	mova	r1,	r14	;
    81fe:	ae 00 06 00 	adda	#6,	r14	;
    8202:	cd 0c       	mova	r12,	r13	;
    8204:	7c 40 0c 00 	mov.b	#12,	r12	;#0x000c
    8208:	b0 13 38 5e 	calla	#24120		;0x05e38
    820c:	8c 0f fa ff 	mova	#-6,	r12	;0xfffffffa
    8210:	80 18 5c 82 	subx.a	&0x11930,r12	;
    8214:	30 19 
    8216:	ec 0a       	adda	r10,	r12	;
    8218:	b0 13 56 a4 	calla	#42070		;0x0a456
    821c:	7c 40 20 00 	mov.b	#32,	r12	;#0x0020
    8220:	4d 43       	clr.b	r13		;
    8222:	b0 13 18 98 	calla	#38936		;0x09818
    8226:	a1 00 0a 00 	adda	#10,	r1	;0x0000a
    822a:	0a 16       	popm.a	#1,	r10	;20-bit words
    822c:	10 01       	reta			;

0000822e <set_tx_dev.lto_priv.199>:
    822e:	0a 14       	pushm.a	#1,	r10	;20-bit words
    8230:	b1 00 0a 00 	suba	#10,	r1	;0x0000a
    8234:	ca 0c       	mova	r12,	r10	;
    8236:	a1 4d 06 00 	mov	@r13,	6(r1)	;
    823a:	91 4d 02 00 	mov	2(r13),	8(r1)	;
    823e:	08 00 
    8240:	b1 40 58 02 	mov	#600,	2(r1)	;#0x0258
    8244:	02 00 
    8246:	81 43 04 00 	mov	#0,	4(r1)	;r3 As==00
    824a:	b1 40 03 00 	mov	#3,	0(r1)	;
    824e:	00 00 
    8250:	3f 40 40 0d 	mov	#3392,	r15	;#0x0d40
    8254:	ce 01       	mova	r1,	r14	;
    8256:	ae 00 06 00 	adda	#6,	r14	;
    825a:	cd 0c       	mova	r12,	r13	;
    825c:	7c 42       	mov.b	#8,	r12	;r2 As==11
    825e:	b0 13 38 5e 	calla	#24120		;0x05e38
    8262:	8c 0f fa ff 	mova	#-6,	r12	;0xfffffffa
    8266:	80 18 5c 82 	subx.a	&0x11930,r12	;
    826a:	30 19 
    826c:	ec 0a       	adda	r10,	r12	;
    826e:	b0 13 56 a4 	calla	#42070		;0x0a456
    8272:	7c 40 10 00 	mov.b	#16,	r12	;#0x0010
    8276:	4d 43       	clr.b	r13		;
    8278:	b0 13 18 98 	calla	#38936		;0x09818
    827c:	a1 00 0a 00 	adda	#10,	r1	;0x0000a
    8280:	0a 16       	popm.a	#1,	r10	;20-bit words
    8282:	10 01       	reta			;

00008284 <set_rx_br.lto_priv.197>:
    8284:	0a 14       	pushm.a	#1,	r10	;20-bit words
    8286:	b1 00 0a 00 	suba	#10,	r1	;0x0000a
    828a:	ca 0c       	mova	r12,	r10	;
    828c:	a1 4d 06 00 	mov	@r13,	6(r1)	;
    8290:	91 4d 02 00 	mov	2(r13),	8(r1)	;
    8294:	08 00 
    8296:	b1 40 0c 03 	mov	#780,	2(r1)	;#0x030c
    829a:	02 00 
    829c:	81 43 04 00 	mov	#0,	4(r1)	;r3 As==00
    82a0:	a1 43 00 00 	mov	#2,	0(r1)	;r3 As==10
    82a4:	3f 40 f0 49 	mov	#18928,	r15	;#0x49f0
    82a8:	ce 01       	mova	r1,	r14	;
    82aa:	ae 00 06 00 	adda	#6,	r14	;
    82ae:	cd 0c       	mova	r12,	r13	;
    82b0:	7c 40 1c 00 	mov.b	#28,	r12	;#0x001c
    82b4:	b0 13 38 5e 	calla	#24120		;0x05e38
    82b8:	8c 0f fa ff 	mova	#-6,	r12	;0xfffffffa
    82bc:	80 18 5c 82 	subx.a	&0x11930,r12	;
    82c0:	30 19 
    82c2:	ec 0a       	adda	r10,	r12	;
    82c4:	b0 13 56 a4 	calla	#42070		;0x0a456
    82c8:	7c 42       	mov.b	#8,	r12	;r2 As==11
    82ca:	4d 43       	clr.b	r13		;
    82cc:	b0 13 18 98 	calla	#38936		;0x09818
    82d0:	a1 00 0a 00 	adda	#10,	r1	;0x0000a
    82d4:	0a 16       	popm.a	#1,	r10	;20-bit words
    82d6:	10 01       	reta			;

000082d8 <set_tx_br.lto_priv.195>:
    82d8:	0a 14       	pushm.a	#1,	r10	;20-bit words
    82da:	b1 00 0a 00 	suba	#10,	r1	;0x0000a
    82de:	ca 0c       	mova	r12,	r10	;
    82e0:	a1 4d 06 00 	mov	@r13,	6(r1)	;
    82e4:	91 4d 02 00 	mov	2(r13),	8(r1)	;
    82e8:	08 00 
    82ea:	b1 40 b0 04 	mov	#1200,	2(r1)	;#0x04b0
    82ee:	02 00 
    82f0:	81 43 04 00 	mov	#0,	4(r1)	;r3 As==00
    82f4:	a1 42 00 00 	mov	#4,	0(r1)	;r2 As==10
    82f8:	3f 40 e0 93 	mov	#37856,	r15	;#0x93e0
    82fc:	ce 01       	mova	r1,	r14	;
    82fe:	ae 00 06 00 	adda	#6,	r14	;
    8302:	cd 0c       	mova	r12,	r13	;
    8304:	7c 40 18 00 	mov.b	#24,	r12	;#0x0018
    8308:	b0 13 38 5e 	calla	#24120		;0x05e38
    830c:	8c 0f fa ff 	mova	#-6,	r12	;0xfffffffa
    8310:	80 18 5c 82 	subx.a	&0x11930,r12	;
    8314:	30 19 
    8316:	ec 0a       	adda	r10,	r12	;
    8318:	b0 13 56 a4 	calla	#42070		;0x0a456
    831c:	6c 42       	mov.b	#4,	r12	;r2 As==10
    831e:	4d 43       	clr.b	r13		;
    8320:	b0 13 18 98 	calla	#38936		;0x09818
    8324:	a1 00 0a 00 	adda	#10,	r1	;0x0000a
    8328:	0a 16       	popm.a	#1,	r10	;20-bit words
    832a:	10 01       	reta			;

0000832c <set_rx_freq.lto_priv.193>:
    832c:	0a 14       	pushm.a	#1,	r10	;20-bit words
    832e:	b1 00 0a 00 	suba	#10,	r1	;0x0000a
    8332:	ca 0c       	mova	r12,	r10	;
    8334:	a1 4d 06 00 	mov	@r13,	6(r1)	;
    8338:	91 4d 02 00 	mov	2(r13),	8(r1)	;
    833c:	08 00 
    833e:	b1 40 40 44 	mov	#17472,	2(r1)	;#0x4440
    8342:	02 00 
    8344:	b1 40 3d 1b 	mov	#6973,	4(r1)	;#0x1b3d
    8348:	04 00 
    834a:	b1 40 12 1c 	mov	#7186,	0(r1)	;#0x1c12
    834e:	00 00 
    8350:	3f 40 c0 e3 	mov	#58304,	r15	;#0xe3c0
    8354:	ce 01       	mova	r1,	r14	;
    8356:	ae 00 06 00 	adda	#6,	r14	;
    835a:	cd 0c       	mova	r12,	r13	;
    835c:	6c 42       	mov.b	#4,	r12	;r2 As==10
    835e:	b0 13 38 5e 	calla	#24120		;0x05e38
    8362:	8c 0f fa ff 	mova	#-6,	r12	;0xfffffffa
    8366:	80 18 5c 82 	subx.a	&0x11930,r12	;
    836a:	30 19 
    836c:	ec 0a       	adda	r10,	r12	;
    836e:	b0 13 56 a4 	calla	#42070		;0x0a456
    8372:	6c 43       	mov.b	#2,	r12	;r3 As==10
    8374:	4d 43       	clr.b	r13		;
    8376:	b0 13 18 98 	calla	#38936		;0x09818
    837a:	a1 00 0a 00 	adda	#10,	r1	;0x0000a
    837e:	0a 16       	popm.a	#1,	r10	;20-bit words
    8380:	10 01       	reta			;

00008382 <set_tx_freq.lto_priv.191>:
    8382:	0a 14       	pushm.a	#1,	r10	;20-bit words
    8384:	b1 00 0a 00 	suba	#10,	r1	;0x0000a
    8388:	ca 0c       	mova	r12,	r10	;
    838a:	a1 4d 06 00 	mov	@r13,	6(r1)	;
    838e:	91 4d 02 00 	mov	2(r13),	8(r1)	;
    8392:	08 00 
    8394:	b1 40 40 da 	mov	#55872,	2(r1)	;#0xda40
    8398:	02 00 
    839a:	b1 40 8e 33 	mov	#13198,	4(r1)	;#0x338e
    839e:	04 00 
    83a0:	b1 40 ec 38 	mov	#14572,	0(r1)	;#0x38ec
    83a4:	00 00 
    83a6:	3f 40 c0 24 	mov	#9408,	r15	;#0x24c0
    83aa:	ce 01       	mova	r1,	r14	;
    83ac:	ae 00 06 00 	adda	#6,	r14	;
    83b0:	cd 0c       	mova	r12,	r13	;
    83b2:	4c 43       	clr.b	r12		;
    83b4:	b0 13 38 5e 	calla	#24120		;0x05e38
    83b8:	8c 0f fa ff 	mova	#-6,	r12	;0xfffffffa
    83bc:	80 18 5c 82 	subx.a	&0x11930,r12	;
    83c0:	30 19 
    83c2:	ec 0a       	adda	r10,	r12	;
    83c4:	b0 13 56 a4 	calla	#42070		;0x0a456
    83c8:	5c 43       	mov.b	#1,	r12	;r3 As==01
    83ca:	4d 43       	clr.b	r13		;
    83cc:	b0 13 18 98 	calla	#38936		;0x09818
    83d0:	a1 00 0a 00 	adda	#10,	r1	;0x0000a
    83d4:	0a 16       	popm.a	#1,	r10	;20-bit words
    83d6:	10 01       	reta			;

000083d8 <get_tx_pow.lto_priv.202>:
    83d8:	4a 14       	pushm.a	#5,	r10	;20-bit words
    83da:	c8 0c       	mova	r12,	r8	;
    83dc:	29 4d       	mov	@r13,	r9	;
    83de:	16 4d 02 00 	mov	2(r13),	r6	;
    83e2:	07 49       	mov	r9,	r7	;
    83e4:	57 07       	rrum	#2,	r7	;
    83e6:	77 f0 3f 00 	and.b	#63,	r7	;#0x003f
    83ea:	8c 0f fa ff 	mova	#-6,	r12	;0xfffffffa
    83ee:	80 18 5c 82 	subx.a	&0x11930,r12	;
    83f2:	30 19 
    83f4:	ec 08       	adda	r8,	r12	;
    83f6:	b0 13 56 a4 	calla	#42070		;0x0a456
    83fa:	39 f0 ff 00 	and	#255,	r9	;#0x00ff
    83fe:	40 18 29 b3 	bitx.w	#2,	r9	;r3 As==10
    8402:	22 24       	jz	$+70     	;abs 0x8448
    8404:	b0 13 d8 5a 	calla	#23256		;0x05ad8
    8408:	ca 0c       	mova	r12,	r10	;
    840a:	9c 00 00 00 	cmpa	#0,	r12	;
    840e:	1c 24       	jz	$+58     	;abs 0x8448
    8410:	cc 47 00 00 	mov.b	r7,	0(r12)	;
    8414:	8c 00 8c dc 	mova	#56460,	r12	;0x0dc8c
    8418:	da 4c 51 00 	mov.b	81(r12),2(r10)	;0x00051
    841c:	02 00 
    841e:	da 4c 50 00 	mov.b	80(r12),3(r10)	;0x00050
    8422:	03 00 
    8424:	da 4c 21 00 	mov.b	33(r12),4(r10)	;0x00021
    8428:	04 00 
    842a:	40 18 19 b3 	bitx.w	#1,	r9	;r3 As==01
    842e:	0e 24       	jz	$+30     	;abs 0x844c
    8430:	fa 40 03 00 	mov.b	#3,	1(r10)	;
    8434:	01 00 
    8436:	7d 40 07 00 	mov.b	#7,	r13	;
    843a:	cc 08       	mova	r8,	r12	;
    843c:	b0 13 d8 9d 	calla	#40408		;0x09dd8

00008440 <.L93>:
    8440:	0d 46       	mov	r6,	r13	;
    8442:	cc 0a       	mova	r10,	r12	;
    8444:	b0 13 74 7c 	calla	#31860		;0x07c74

00008448 <.L88>:
    8448:	46 16       	popm.a	#5,	r10	;20-bit words
    844a:	10 01       	reta			;

0000844c <.L92>:
    844c:	da 43 01 00 	mov.b	#1,	1(r10)	;r3 As==01
    8450:	80 00 40 84 	mova	#33856,	r0	;0x08440

00008454 <get_block.lto_priv.188>:
    8454:	6a 14       	pushm.a	#7,	r10	;20-bit words
    8456:	b1 00 0a 00 	suba	#10,	r1	;0x0000a
    845a:	ce 0c       	mova	r12,	r14	;
    845c:	26 4d       	mov	@r13,	r6	;
    845e:	18 4d 02 00 	mov	2(r13),	r8	;
    8462:	07 46       	mov	r6,	r7	;
    8464:	57 07       	rrum	#2,	r7	;
    8466:	77 f0 3f 00 	and.b	#63,	r7	;#0x003f
    846a:	c1 47 05 00 	mov.b	r7,	5(r1)	;
    846e:	45 46       	mov.b	r6,	r5	;
    8470:	84 00 56 a4 	mova	#42070,	r4	;0x0a456
    8474:	40 18 25 b3 	bitx.w	#2,	r5	;r3 As==10
    8478:	7d 24       	jz	$+252    	;abs 0x8574
    847a:	71 0c 00 00 	mova	r12,	0(r1)	;
    847e:	b0 13 d8 5a 	calla	#23256		;0x05ad8
    8482:	ca 0c       	mova	r12,	r10	;
    8484:	8c 0f fa ff 	mova	#-6,	r12	;0xfffffffa
    8488:	80 18 5c 82 	subx.a	&0x11930,r12	;
    848c:	30 19 
    848e:	0e 01       	mova	@r1,	r14	;
    8490:	9a 00 00 00 	cmpa	#0,	r10	;
    8494:	04 20       	jnz	$+10     	;abs 0x849e

00008496 <.L107>:
    8496:	ec 0e       	adda	r14,	r12	;
    8498:	44 13       	calla	r4		;
    849a:	80 00 1c 85 	mova	#34076,	r0	;0x0851c

0000849e <.L99>:
    849e:	57 4e 04 00 	mov.b	4(r14),	r7	;
    84a2:	5d 4e 05 00 	mov.b	5(r14),	r13	;
    84a6:	59 4e 06 00 	mov.b	6(r14),	r9	;
    84aa:	ec 0e       	adda	r14,	r12	;
    84ac:	71 0d 00 00 	mova	r13,	0(r1)	;
    84b0:	44 13       	calla	r4		;
    84b2:	0d 01       	mova	@r1,	r13	;
    84b4:	6c 42       	mov.b	#4,	r12	;r2 As==10
    84b6:	4c 97       	cmp.b	r7,	r12	;
    84b8:	23 28       	jnc	$+72     	;abs 0x8500
    84ba:	40 18 3c 40 	movx.w	#87,	r12	;0x00057
    84be:	57 00 
    84c0:	40 18 0c 89 	subx.w	r9,	r12	;
    84c4:	0d 9c       	cmp	r12,	r13	;
    84c6:	04 38       	jl	$+10     	;abs 0x84d0
    84c8:	7e 40 5f 00 	mov.b	#95,	r14	;#0x005f
    84cc:	4e 9d       	cmp.b	r13,	r14	;
    84ce:	18 2c       	jc	$+50     	;abs 0x8500

000084d0 <.L102>:
    84d0:	4c 4d       	mov.b	r13,	r12	;
    84d2:	7c 50 89 ff 	add.b	#65417,	r12	;#0xff89
    84d6:	7e 42       	mov.b	#8,	r14	;r2 As==11
    84d8:	4e 9c       	cmp.b	r12,	r14	;
    84da:	12 2c       	jc	$+38     	;abs 0x8500
    84dc:	40 18 3c 40 	movx.w	#139,	r12	;0x0008b
    84e0:	8b 00 
    84e2:	40 18 0c 89 	subx.w	r9,	r12	;
    84e6:	0d 9c       	cmp	r12,	r13	;
    84e8:	04 38       	jl	$+10     	;abs 0x84f2
    84ea:	7c 40 bf ff 	mov.b	#65471,	r12	;#0xffbf
    84ee:	4c 9d       	cmp.b	r13,	r12	;
    84f0:	07 2c       	jc	$+16     	;abs 0x8500

000084f2 <.L103>:
    84f2:	40 18 3c 40 	movx.w	#214,	r12	;0x000d6
    84f6:	d6 00 
    84f8:	40 18 0c 89 	subx.w	r9,	r12	;
    84fc:	0d 9c       	cmp	r12,	r13	;
    84fe:	12 38       	jl	$+38     	;abs 0x8524

00008500 <.L101>:
    8500:	81 46 06 00 	mov	r6,	6(r1)	;
    8504:	81 48 08 00 	mov	r8,	8(r1)	;
    8508:	cd 01       	mova	r1,	r13	;
    850a:	ad 00 06 00 	adda	#6,	r13	;
    850e:	cc 0a       	mova	r10,	r12	;
    8510:	b0 13 36 5a 	calla	#23094		;0x05a36

00008514 <.L106>:
    8514:	0d 48       	mov	r8,	r13	;
    8516:	cc 0a       	mova	r10,	r12	;
    8518:	b0 13 74 7c 	calla	#31860		;0x07c74

0000851c <.L97>:
    851c:	a1 00 0a 00 	adda	#10,	r1	;0x0000a
    8520:	64 16       	popm.a	#7,	r10	;20-bit words
    8522:	10 01       	reta			;

00008524 <.L104>:
    8524:	4f 49       	mov.b	r9,	r15	;
    8526:	4e 4d       	mov.b	r13,	r14	;
    8528:	cd 0a       	mova	r10,	r13	;
    852a:	ad 00 04 00 	adda	#4,	r13	;
    852e:	4c 47       	mov.b	r7,	r12	;
    8530:	b0 13 e0 a0 	calla	#41184		;0x0a0e0
    8534:	da 41 05 00 	mov.b	5(r1),	0(r10)	;
    8538:	00 00 
    853a:	8c 00 8c dc 	mova	#56460,	r12	;0x0dc8c
    853e:	da 4c 51 00 	mov.b	81(r12),2(r10)	;0x00051
    8542:	02 00 
    8544:	da 4c 50 00 	mov.b	80(r12),3(r10)	;0x00050
    8548:	03 00 
    854a:	40 18 15 b3 	bitx.w	#1,	r5	;r3 As==01
    854e:	0e 24       	jz	$+30     	;abs 0x856c
    8550:	4e 49       	mov.b	r9,	r14	;
    8552:	6e 53       	incd.b	r14		;
    8554:	ca 4e 01 00 	mov.b	r14,	1(r10)	;
    8558:	0d 49       	mov	r9,	r13	;
    855a:	3d 50 06 00 	add	#6,	r13	;
    855e:	4d 0e       	rlam.a	#4,	r13	;
    8560:	4d 0d       	rram.a	#4,	r13	;
    8562:	cc 0a       	mova	r10,	r12	;
    8564:	b0 13 d8 9d 	calla	#40408		;0x09dd8
    8568:	80 00 14 85 	mova	#34068,	r0	;0x08514

0000856c <.L105>:
    856c:	ca 49 01 00 	mov.b	r9,	1(r10)	;
    8570:	80 00 14 85 	mova	#34068,	r0	;0x08514

00008574 <.L98>:
    8574:	8c 0f fa ff 	mova	#-6,	r12	;0xfffffffa
    8578:	80 18 5c 82 	subx.a	&0x11930,r12	;
    857c:	30 19 
    857e:	80 00 96 84 	mova	#33942,	r0	;0x08496

00008582 <set_baud.lto_priv.205>:
    8582:	0a 14       	pushm.a	#1,	r10	;20-bit words
    8584:	b1 00 0a 00 	suba	#10,	r1	;0x0000a
    8588:	ca 0c       	mova	r12,	r10	;
    858a:	a1 4d 06 00 	mov	@r13,	6(r1)	;
    858e:	91 4d 02 00 	mov	2(r13),	8(r1)	;
    8592:	08 00 
    8594:	91 43 02 00 	mov	#1,	2(r1)	;r3 As==01
    8598:	81 43 04 00 	mov	#0,	4(r1)	;r3 As==00
    859c:	b1 40 0f 00 	mov	#15,	0(r1)	;#0x000f
    85a0:	00 00 
    85a2:	3f 40 40 42 	mov	#16960,	r15	;#0x4240
    85a6:	ce 01       	mova	r1,	r14	;
    85a8:	ae 00 06 00 	adda	#6,	r14	;
    85ac:	cd 0c       	mova	r12,	r13	;
    85ae:	7c 40 22 00 	mov.b	#34,	r12	;#0x0022
    85b2:	b0 13 38 5e 	calla	#24120		;0x05e38
    85b6:	8c 0f fa ff 	mova	#-6,	r12	;0xfffffffa
    85ba:	80 18 5c 82 	subx.a	&0x11930,r12	;
    85be:	30 19 
    85c0:	ec 0a       	adda	r10,	r12	;
    85c2:	b0 13 56 a4 	calla	#42070		;0x0a456
    85c6:	2c 01 6a 18 	mova	&71786,	r12	;0x1186a
    85ca:	01 18 c2 9c 	cmpx.a	r12,	&0x11a2c;
    85ce:	2c 1a 
    85d0:	08 20       	jnz	$+18     	;abs 0x85e2
    85d2:	b0 13 fe a1 	calla	#41470		;0x0a1fe
    85d6:	81 18 f2 40 	movx.a	#66144,	&0x11a36;0x10260
    85da:	60 02 36 1a 

000085de <.L110>:
    85de:	80 00 de 85 	mova	#34270,	r0	;0x085de

000085e2 <.L109>:
    85e2:	5d 43       	mov.b	#1,	r13	;r3 As==01
    85e4:	4e 43       	clr.b	r14		;
    85e6:	b0 13 32 97 	calla	#38706		;0x09732
    85ea:	a1 00 0a 00 	adda	#10,	r1	;0x0000a
    85ee:	0a 16       	popm.a	#1,	r10	;20-bit words
    85f0:	10 01       	reta			;

000085f2 <set_regs.lto_priv.187>:
    85f2:	6a 14       	pushm.a	#7,	r10	;20-bit words
    85f4:	b1 00 10 00 	suba	#16,	r1	;0x00010
    85f8:	c6 0c       	mova	r12,	r6	;
    85fa:	27 4d       	mov	@r13,	r7	;
    85fc:	19 4d 02 00 	mov	2(r13),	r9	;
    8600:	08 47       	mov	r7,	r8	;
    8602:	58 0f       	rrum	#4,	r8	;
    8604:	58 0f       	rrum	#4,	r8	;
    8606:	4c 47       	mov.b	r7,	r12	;
    8608:	45 4c       	mov.b	r12,	r5	;
    860a:	65 f3       	and.b	#2,	r5	;r3 As==10
    860c:	35 f0 ff 00 	and	#255,	r5	;#0x00ff
    8610:	05 93       	cmp	#0,	r5	;r3 As==00
    8612:	66 24       	jz	$+206    	;abs 0x86e0
    8614:	5d 46 04 00 	mov.b	4(r6),	r13	;
    8618:	81 4d 06 00 	mov	r13,	6(r1)	;
    861c:	7a 40 05 00 	mov.b	#5,	r10	;

00008620 <.L113>:
    8620:	40 18 1c b3 	bitx.w	#1,	r12	;r3 As==01
    8624:	65 24       	jz	$+204    	;abs 0x86f0
    8626:	6c 43       	mov.b	#2,	r12	;r3 As==10

00008628 <.L114>:
    8628:	08 8c       	sub	r12,	r8	;
    862a:	08 85       	sub	r5,	r8	;
    862c:	0c 48       	mov	r8,	r12	;
    862e:	5c 03       	rrum	#1,	r12	;
    8630:	4d 18 0c 11 	rpt #14 { rrax.w	r12		;
    8634:	08 5c       	add	r12,	r8	;
    8636:	08 11       	rra	r8		;
    8638:	81 48 08 00 	mov	r8,	8(r1)	;
    863c:	b0 13 d8 5a 	calla	#23256		;0x05ad8
    8640:	c8 0c       	mova	r12,	r8	;
    8642:	9c 00 00 00 	cmpa	#0,	r12	;
    8646:	80 24       	jz	$+258    	;abs 0x8748
    8648:	1c 41 08 00 	mov	8(r1),	r12	;
    864c:	7c f0 ff 00 	and.b	#255,	r12	;#0x00ff
    8650:	0c 5c       	rla	r12		;
    8652:	81 4c 0a 00 	mov	r12,	10(r1)	; 0x000a
    8656:	40 18 0b 4a 	movx.w	r10,	r11	;
    865a:	ca 08       	mova	r8,	r10	;
    865c:	ea 0b       	adda	r11,	r10	;
    865e:	c4 06       	mova	r6,	r4	;
    8660:	e4 0b       	adda	r11,	r4	;
    8662:	4d 43       	clr.b	r13		;
    8664:	1f 41 06 00 	mov	6(r1),	r15	;
    8668:	7f 53       	add.b	#-1,	r15	;r3 As==11
    866a:	c1 4f 01 00 	mov.b	r15,	1(r1)	;

0000866e <.L116>:
    866e:	1d 91 0a 00 	cmp	10(r1),	r13	;0x0000a
    8672:	41 38       	jl	$+132    	;abs 0x86f6
    8674:	8c 0f fa ff 	mova	#-6,	r12	;0xfffffffa
    8678:	80 18 5c 82 	subx.a	&0x11930,r12	;
    867c:	30 19 
    867e:	ec 06       	adda	r6,	r12	;
    8680:	71 0b 02 00 	mova	r11,	2(r1)	;
    8684:	b0 13 56 a4 	calla	#42070		;0x0a456
    8688:	1d 41 08 00 	mov	8(r1),	r13	;
    868c:	41 18 c2 4d 	movx.b	r13,	&0x11644;
    8690:	44 16 
    8692:	3b 01 02 00 	mova	2(r1),	r11	;
    8696:	c6 0b       	mova	r11,	r6	;
    8698:	a6 0f ff ff 	adda	#1048575,r6	;0xfffff
    869c:	e6 08       	adda	r8,	r6	;
    869e:	ca 08       	mova	r8,	r10	;
    86a0:	ea 0b       	adda	r11,	r10	;
    86a2:	44 43       	clr.b	r4		;

000086a4 <.L122>:
    86a4:	14 91 0a 00 	cmp	10(r1),	r4	;0x0000a
    86a8:	65 38       	jl	$+204    	;abs 0x8774
    86aa:	b0 13 fe a1 	calla	#41470		;0x0a1fe
    86ae:	4d 43       	clr.b	r13		;
    86b0:	8c 01 46 16 	mova	#71238,	r12	;0x11646
    86b4:	b0 13 56 91 	calla	#37206		;0x09156
    86b8:	b0 13 f4 a1 	calla	#41460		;0x0a1f4
    86bc:	05 93       	cmp	#0,	r5	;r3 As==00
    86be:	73 24       	jz	$+232    	;abs 0x87a6
    86c0:	81 47 0c 00 	mov	r7,	12(r1)	; 0x000c
    86c4:	81 49 0e 00 	mov	r9,	14(r1)	; 0x000e
    86c8:	cd 01       	mova	r1,	r13	;
    86ca:	ad 00 0c 00 	adda	#12,	r13	;0x0000c
    86ce:	cc 08       	mova	r8,	r12	;
    86d0:	b0 13 74 5a 	calla	#23156		;0x05a74
    86d4:	0d 49       	mov	r9,	r13	;
    86d6:	cc 08       	mova	r8,	r12	;
    86d8:	b0 13 74 7c 	calla	#31860		;0x07c74
    86dc:	80 00 58 87 	mova	#34648,	r0	;0x08758

000086e0 <.L112>:
    86e0:	5e 46 02 00 	mov.b	2(r6),	r14	;
    86e4:	81 4e 06 00 	mov	r14,	6(r1)	;
    86e8:	7a 40 03 00 	mov.b	#3,	r10	;
    86ec:	80 00 20 86 	mova	#34336,	r0	;0x08620

000086f0 <.L125>:
    86f0:	4c 43       	clr.b	r12		;
    86f2:	80 00 28 86 	mova	#34344,	r0	;0x08628

000086f6 <.L121>:
    86f6:	6c 44       	mov.b	@r4,	r12	;
    86f8:	7e 40 03 00 	mov.b	#3,	r14	;
    86fc:	5e 91 01 00 	cmp.b	1(r1),	r14	;
    8700:	13 28       	jnc	$+40     	;abs 0x8728
    8702:	4f 4c       	mov.b	r12,	r15	;
    8704:	7f 50 aa ff 	add.b	#65450,	r15	;#0xffaa
    8708:	7e 40 29 00 	mov.b	#41,	r14	;#0x0029
    870c:	4e 9f       	cmp.b	r15,	r14	;
    870e:	0c 2c       	jc	$+26     	;abs 0x8728
    8710:	7f 50 cc ff 	add.b	#65484,	r15	;#0xffcc
    8714:	7e 40 35 00 	mov.b	#53,	r14	;#0x0035
    8718:	4e 9f       	cmp.b	r15,	r14	;
    871a:	06 2c       	jc	$+14     	;abs 0x8728
    871c:	a4 00 02 00 	adda	#2,	r4	;
    8720:	7f 40 d4 ff 	mov.b	#65492,	r15	;#0xffd4
    8724:	4f 9c       	cmp.b	r12,	r15	;
    8726:	1c 2c       	jc	$+58     	;abs 0x8760

00008728 <.L118>:
    8728:	05 93       	cmp	#0,	r5	;r3 As==00
    872a:	0e 24       	jz	$+30     	;abs 0x8748
    872c:	81 47 0c 00 	mov	r7,	12(r1)	; 0x000c
    8730:	81 49 0e 00 	mov	r9,	14(r1)	; 0x000e
    8734:	cd 01       	mova	r1,	r13	;
    8736:	ad 00 0c 00 	adda	#12,	r13	;0x0000c
    873a:	cc 08       	mova	r8,	r12	;
    873c:	b0 13 36 5a 	calla	#23094		;0x05a36
    8740:	0d 49       	mov	r9,	r13	;
    8742:	cc 08       	mova	r8,	r12	;
    8744:	b0 13 74 7c 	calla	#31860		;0x07c74

00008748 <.L120>:
    8748:	8c 0f fa ff 	mova	#-6,	r12	;0xfffffffa
    874c:	80 18 5c 82 	subx.a	&0x11930,r12	;
    8750:	30 19 
    8752:	ec 06       	adda	r6,	r12	;
    8754:	b0 13 56 a4 	calla	#42070		;0x0a456

00008758 <.L111>:
    8758:	a1 00 10 00 	adda	#16,	r1	;0x00010
    875c:	64 16       	popm.a	#7,	r10	;20-bit words
    875e:	10 01       	reta			;

00008760 <.L119>:
    8760:	ca 4c ff ff 	mov.b	r12,	-1(r10)	; 0xffff
    8764:	da 44 ff ff 	mov.b	-1(r4),	0(r10)	;
    8768:	00 00 
    876a:	2d 53       	incd	r13		;
    876c:	aa 00 02 00 	adda	#2,	r10	;
    8770:	80 00 6e 86 	mova	#34414,	r0	;0x0866e

00008774 <.L123>:
    8774:	6e 46       	mov.b	@r6,	r14	;
    8776:	6d 4a       	mov.b	@r10,	r13	;
    8778:	4c 4e       	mov.b	r14,	r12	;
    877a:	71 0e 02 00 	mova	r14,	2(r1)	;
    877e:	b0 13 b2 73 	calla	#29618		;0x073b2
    8782:	ca 4c 00 00 	mov.b	r12,	0(r10)	;
    8786:	cf 0a       	mova	r10,	r15	;
    8788:	3e 01 02 00 	mova	2(r1),	r14	;
    878c:	1c 41 06 00 	mov	6(r1),	r12	;
    8790:	4d 4c       	mov.b	r12,	r13	;
    8792:	4c 43       	clr.b	r12		;
    8794:	b0 13 e0 76 	calla	#30432		;0x076e0
    8798:	24 53       	incd	r4		;
    879a:	a6 00 02 00 	adda	#2,	r6	;
    879e:	aa 00 02 00 	adda	#2,	r10	;
    87a2:	80 00 a4 86 	mova	#34468,	r0	;0x086a4

000087a6 <.L124>:
    87a6:	8c 0f fa ff 	mova	#-6,	r12	;0xfffffffa
    87aa:	80 18 5c 82 	subx.a	&0x11930,r12	;
    87ae:	30 19 
    87b0:	ec 08       	adda	r8,	r12	;
    87b2:	b0 13 7a 5f 	calla	#24442		;0x05f7a
    87b6:	80 00 58 87 	mova	#34648,	r0	;0x08758

000087ba <set_block.lto_priv.189>:
    87ba:	6a 14       	pushm.a	#7,	r10	;20-bit words
    87bc:	b1 00 14 00 	suba	#20,	r1	;0x00014
    87c0:	c8 0c       	mova	r12,	r8	;
    87c2:	27 4d       	mov	@r13,	r7	;
    87c4:	91 4d 02 00 	mov	2(r13),	2(r1)	;
    87c8:	02 00 
    87ca:	0a 47       	mov	r7,	r10	;
    87cc:	5a 0f       	rrum	#4,	r10	;
    87ce:	5a 0f       	rrum	#4,	r10	;
    87d0:	4e 47       	mov.b	r7,	r14	;
    87d2:	44 4e       	mov.b	r14,	r4	;
    87d4:	64 f3       	and.b	#2,	r4	;r3 As==10
    87d6:	4c 44       	mov.b	r4,	r12	;
    87d8:	81 4c 04 00 	mov	r12,	4(r1)	;
    87dc:	0c 93       	cmp	#0,	r12	;r3 As==00
    87de:	22 24       	jz	$+70     	;abs 0x8824
    87e0:	6d 42       	mov.b	#4,	r13	;r2 As==10

000087e2 <.L130>:
    87e2:	00 18 c1 4d 	movx.a	r13,	10(r1)	; 0x0000a
    87e6:	0a 00 
    87e8:	3c 01 0a 00 	mova	10(r1),	r12	;0x0000a
    87ec:	ec 08       	adda	r8,	r12	;
    87ee:	6d 4c       	mov.b	@r12,	r13	;
    87f0:	81 4d 0e 00 	mov	r13,	14(r1)	; 0x000e
    87f4:	59 4c 01 00 	mov.b	1(r12),	r9	;
    87f8:	40 18 1e b3 	bitx.w	#1,	r14	;r3 As==01
    87fc:	16 24       	jz	$+46     	;abs 0x882a
    87fe:	65 43       	mov.b	#2,	r5	;r3 As==10

00008800 <.L131>:
    8800:	b0 13 d8 5a 	calla	#23256		;0x05ad8
    8804:	c6 0c       	mova	r12,	r6	;
    8806:	9c 00 00 00 	cmpa	#0,	r12	;
    880a:	12 20       	jnz	$+38     	;abs 0x8830

0000880c <.L138>:
    880c:	8c 0f fa ff 	mova	#-6,	r12	;0xfffffffa
    8810:	80 18 5c 82 	subx.a	&0x11930,r12	;
    8814:	30 19 
    8816:	ec 08       	adda	r8,	r12	;
    8818:	b0 13 56 a4 	calla	#42070		;0x0a456

0000881c <.L129>:
    881c:	a1 00 14 00 	adda	#20,	r1	;0x00014
    8820:	64 16       	popm.a	#7,	r10	;20-bit words
    8822:	10 01       	reta			;

00008824 <.L142>:
    8824:	6d 43       	mov.b	#2,	r13	;r3 As==10
    8826:	80 00 e2 87 	mova	#34786,	r0	;0x087e2

0000882a <.L143>:
    882a:	45 43       	clr.b	r5		;
    882c:	80 00 00 88 	mova	#34816,	r0	;0x08800

00008830 <.L132>:
    8830:	1c 41 0e 00 	mov	14(r1),	r12	;0x0000e
    8834:	7c 53       	add.b	#-1,	r12	;r3 As==11
    8836:	7d 40 03 00 	mov.b	#3,	r13	;
    883a:	4d 9c       	cmp.b	r12,	r13	;
    883c:	20 28       	jnc	$+66     	;abs 0x887e
    883e:	7a 50 fe ff 	add.b	#65534,	r10	;#0xfffe
    8842:	4a 84       	sub.b	r4,	r10	;
    8844:	4a 85       	sub.b	r5,	r10	;
    8846:	45 4a       	mov.b	r10,	r5	;
    8848:	40 18 3c 40 	movx.w	#87,	r12	;0x00057
    884c:	57 00 
    884e:	40 18 0c 85 	subx.w	r5,	r12	;
    8852:	09 9c       	cmp	r12,	r9	;
    8854:	02 38       	jl	$+6      	;abs 0x885a
    8856:	49 93       	cmp.b	#0,	r9	;r3 As==00
    8858:	12 34       	jge	$+38     	;abs 0x887e

0000885a <.L135>:
    885a:	40 18 3c 40 	movx.w	#139,	r12	;0x0008b
    885e:	8b 00 
    8860:	40 18 0c 85 	subx.w	r5,	r12	;
    8864:	09 9c       	cmp	r12,	r9	;
    8866:	04 38       	jl	$+10     	;abs 0x8870
    8868:	7c 40 bf ff 	mov.b	#65471,	r12	;#0xffbf
    886c:	4c 99       	cmp.b	r9,	r12	;
    886e:	07 2c       	jc	$+16     	;abs 0x887e

00008870 <.L136>:
    8870:	40 18 3c 40 	movx.w	#214,	r12	;0x000d6
    8874:	d6 00 
    8876:	40 18 0c 85 	subx.w	r5,	r12	;
    887a:	09 9c       	cmp	r12,	r9	;
    887c:	15 38       	jl	$+44     	;abs 0x88a8

0000887e <.L134>:
    887e:	81 93 04 00 	cmp	#0,	4(r1)	;r3 As==00
    8882:	c4 27       	jz	$-118    	;abs 0x880c
    8884:	81 47 10 00 	mov	r7,	16(r1)	; 0x0010
    8888:	91 41 02 00 	mov	2(r1),	18(r1)	; 0x0012
    888c:	12 00 
    888e:	cd 01       	mova	r1,	r13	;
    8890:	ad 00 10 00 	adda	#16,	r13	;0x00010
    8894:	cc 06       	mova	r6,	r12	;
    8896:	b0 13 36 5a 	calla	#23094		;0x05a36
    889a:	1d 41 02 00 	mov	2(r1),	r13	;
    889e:	cc 06       	mova	r6,	r12	;
    88a0:	b0 13 74 7c 	calla	#31860		;0x07c74
    88a4:	80 00 0c 88 	mova	#34828,	r0	;0x0880c

000088a8 <.L137>:
    88a8:	cd 06       	mova	r6,	r13	;
    88aa:	ad 00 04 00 	adda	#4,	r13	;
    88ae:	71 0d 06 00 	mova	r13,	6(r1)	;
    88b2:	3d 01 0a 00 	mova	10(r1),	r13	;0x0000a
    88b6:	ad 00 02 00 	adda	#2,	r13	;
    88ba:	40 18 0e 4a 	movx.w	r10,	r14	;
    88be:	ed 08       	adda	r8,	r13	;
    88c0:	3c 01 06 00 	mova	6(r1),	r12	;
    88c4:	b0 13 98 b4 	calla	#46232		;0x0b498
    88c8:	8c 0f fa ff 	mova	#-6,	r12	;0xfffffffa
    88cc:	80 18 5c 82 	subx.a	&0x11930,r12	;
    88d0:	30 19 
    88d2:	ec 08       	adda	r8,	r12	;
    88d4:	b0 13 56 a4 	calla	#42070		;0x0a456
    88d8:	34 01 06 00 	mova	6(r1),	r4	;
    88dc:	48 43       	clr.b	r8		;

000088de <.L139>:
    88de:	08 95       	cmp	r5,	r8	;
    88e0:	29 38       	jl	$+84     	;abs 0x8934
    88e2:	c1 4a 00 00 	mov.b	r10,	0(r1)	;
    88e6:	3f 01 06 00 	mova	6(r1),	r15	;
    88ea:	4e 49       	mov.b	r9,	r14	;
    88ec:	1c 41 0e 00 	mov	14(r1),	r12	;0x0000e
    88f0:	4d 4c       	mov.b	r12,	r13	;
    88f2:	4c 43       	clr.b	r12		;
    88f4:	b0 13 14 76 	calla	#30228		;0x07614
    88f8:	b0 13 fe a1 	calla	#41470		;0x0a1fe
    88fc:	4d 43       	clr.b	r13		;
    88fe:	8c 01 46 16 	mova	#71238,	r12	;0x11646
    8902:	b0 13 56 91 	calla	#37206		;0x09156
    8906:	b0 13 f4 a1 	calla	#41460		;0x0a1f4
    890a:	81 93 04 00 	cmp	#0,	4(r1)	;r3 As==00
    890e:	1e 24       	jz	$+62     	;abs 0x894c
    8910:	81 47 10 00 	mov	r7,	16(r1)	; 0x0010
    8914:	91 41 02 00 	mov	2(r1),	18(r1)	; 0x0012
    8918:	12 00 
    891a:	cd 01       	mova	r1,	r13	;
    891c:	ad 00 10 00 	adda	#16,	r13	;0x00010
    8920:	cc 06       	mova	r6,	r12	;
    8922:	b0 13 74 5a 	calla	#23156		;0x05a74
    8926:	1d 41 02 00 	mov	2(r1),	r13	;
    892a:	cc 06       	mova	r6,	r12	;
    892c:	b0 13 74 7c 	calla	#31860		;0x07c74
    8930:	80 00 1c 88 	mova	#34844,	r0	;0x0881c

00008934 <.L140>:
    8934:	6d 44       	mov.b	@r4,	r13	;
    8936:	4c 48       	mov.b	r8,	r12	;
    8938:	4c 59       	add.b	r9,	r12	;
    893a:	b0 13 b2 73 	calla	#29618		;0x073b2
    893e:	c4 4c 00 00 	mov.b	r12,	0(r4)	;
    8942:	18 53       	inc	r8		;
    8944:	a4 00 01 00 	adda	#1,	r4	;
    8948:	80 00 de 88 	mova	#35038,	r0	;0x088de

0000894c <.L141>:
    894c:	8c 0f fa ff 	mova	#-6,	r12	;0xfffffffa
    8950:	80 18 5c 82 	subx.a	&0x11930,r12	;
    8954:	30 19 
    8956:	ec 06       	adda	r6,	r12	;
    8958:	b0 13 7a 5f 	calla	#24442		;0x05f7a
    895c:	80 00 1c 88 	mova	#34844,	r0	;0x0881c

00008960 <spi_callback>:
    8960:	2a 14       	pushm.a	#3,	r10	;20-bit words
    8962:	06 14       	pushm.a	#1,	r6	;20-bit words
    8964:	ca 0c       	mova	r12,	r10	;
    8966:	88 01 16 1a 	mova	#72214,	r8	;0x11a16
    896a:	0c 08       	mova	@r8,	r12	;
    896c:	3c 0c 22 00 	mova	34(r12),r12	;0x00022
    8970:	c6 0c       	mova	r12,	r6	;
    8972:	00 18 76 f0 	andx.a	#4095,	r6	;0x00fff
    8976:	ff 0f 
    8978:	19 46 02 00 	mov	2(r6),	r9	;
    897c:	0c 14       	pushm.a	#1,	r12	;20-bit words
    897e:	40 18 3c 41 	popx.w	r12		;
    8982:	40 18 3d 41 	popx.w	r13		;
    8986:	b0 13 e0 b3 	calla	#46048		;0x0b3e0
    898a:	0d 12       	push	r13		;
    898c:	0c 12       	push	r12		;
    898e:	0c 16       	popm.a	#1,	r12	;20-bit words
    8990:	40 18 0d 4c 	movx.w	r12,	r13	;
    8994:	5c 43       	mov.b	#1,	r12	;r3 As==01
    8996:	b0 13 34 b3 	calla	#45876		;0x0b334
    899a:	0c d9       	bis	r9,	r12	;
    899c:	86 4c 02 00 	mov	r12,	2(r6)	;
    89a0:	3e 08 08 00 	mova	8(r8),	r14	;
    89a4:	9e 00 00 00 	cmpa	#0,	r14	;
    89a8:	02 24       	jz	$+6      	;abs 0x89ae
    89aa:	cc 0a       	mova	r10,	r12	;
    89ac:	4e 13       	calla	r14		;

000089ae <.L1>:
    89ae:	06 16       	popm.a	#1,	r6	;20-bit words
    89b0:	28 16       	popm.a	#3,	r10	;20-bit words
    89b2:	10 01       	reta			;

000089b4 <tx_complete>:
    89b4:	3c 0c 10 00 	mova	16(r12),r12	;0x00010
    89b8:	ac d3 2a 00 	bis	#2,	42(r12)	;r3 As==10, 0x002a
    89bc:	10 01       	reta			;

000089be <_port_switch>:
    89be:	6a 14       	pushm.a	#7,	r10	;20-bit words
    89c0:	7d 01 00 00 	mova	r1,	0(r13)	;
    89c4:	01 0c       	mova	@r12,	r1	;
    89c6:	64 16       	popm.a	#7,	r10	;20-bit words
    89c8:	10 01       	reta			;

000089ca <_heap_init>:
    89ca:	40 18 92 43 	movx.w	#1,	&0x0e1aa;r3 As==01
    89ce:	aa e1 
    89d0:	10 01       	reta			;

000089d2 <port_init>:
    89d2:	41 18 c2 43 	movx.b	#0,	&0x1163e;r3 As==00
    89d6:	3e 16 
    89d8:	10 01       	reta			;

000089da <UCBRS.lto_priv.272>:
    89da:	3d 40 10 02 	mov	#528,	r13	;#0x0210
    89de:	0d 9c       	cmp	r12,	r13	;
    89e0:	8b 2c       	jc	$+280    	;abs 0x8af8
    89e2:	3d 40 ca 02 	mov	#714,	r13	;#0x02ca
    89e6:	0d 9c       	cmp	r12,	r13	;
    89e8:	8a 2c       	jc	$+278    	;abs 0x8afe
    89ea:	3d 40 42 03 	mov	#834,	r13	;#0x0342
    89ee:	0d 9c       	cmp	r12,	r13	;
    89f0:	89 2c       	jc	$+276    	;abs 0x8b04
    89f2:	3d 40 e8 03 	mov	#1000,	r13	;#0x03e8
    89f6:	0d 9c       	cmp	r12,	r13	;
    89f8:	88 2c       	jc	$+274    	;abs 0x8b0a
    89fa:	3d 40 e3 04 	mov	#1251,	r13	;#0x04e3
    89fe:	0d 9c       	cmp	r12,	r13	;
    8a00:	87 2c       	jc	$+272    	;abs 0x8b10
    8a02:	3d 40 95 05 	mov	#1429,	r13	;#0x0595
    8a06:	0d 9c       	cmp	r12,	r13	;
    8a08:	86 2c       	jc	$+270    	;abs 0x8b16
    8a0a:	3d 40 85 06 	mov	#1669,	r13	;#0x0685
    8a0e:	0d 9c       	cmp	r12,	r13	;
    8a10:	86 2c       	jc	$+270    	;abs 0x8b1e
    8a12:	3d 40 62 08 	mov	#2146,	r13	;#0x0862
    8a16:	0d 9c       	cmp	r12,	r13	;
    8a18:	86 2c       	jc	$+270    	;abs 0x8b26
    8a1a:	3d 40 af 08 	mov	#2223,	r13	;#0x08af
    8a1e:	0d 9c       	cmp	r12,	r13	;
    8a20:	86 2c       	jc	$+270    	;abs 0x8b2e
    8a22:	3d 40 c6 09 	mov	#2502,	r13	;#0x09c6
    8a26:	0d 9c       	cmp	r12,	r13	;
    8a28:	86 2c       	jc	$+270    	;abs 0x8b36
    8a2a:	3d 40 b7 0b 	mov	#2999,	r13	;#0x0bb7
    8a2e:	0d 9c       	cmp	r12,	r13	;
    8a30:	86 2c       	jc	$+270    	;abs 0x8b3e
    8a32:	3d 40 06 0d 	mov	#3334,	r13	;#0x0d06
    8a36:	0d 9c       	cmp	r12,	r13	;
    8a38:	86 2c       	jc	$+270    	;abs 0x8b46
    8a3a:	3d 40 f6 0d 	mov	#3574,	r13	;#0x0df6
    8a3e:	0d 9c       	cmp	r12,	r13	;
    8a40:	86 2c       	jc	$+270    	;abs 0x8b4e
    8a42:	3d 40 a8 0e 	mov	#3752,	r13	;#0x0ea8
    8a46:	0d 9c       	cmp	r12,	r13	;
    8a48:	86 2c       	jc	$+270    	;abs 0x8b56
    8a4a:	3d 40 a2 0f 	mov	#4002,	r13	;#0x0fa2
    8a4e:	0d 9c       	cmp	r12,	r13	;
    8a50:	86 2c       	jc	$+270    	;abs 0x8b5e
    8a52:	3d 40 bd 10 	mov	#4285,	r13	;#0x10bd
    8a56:	0d 9c       	cmp	r12,	r13	;
    8a58:	86 2c       	jc	$+270    	;abs 0x8b66
    8a5a:	3d 40 19 11 	mov	#4377,	r13	;#0x1119
    8a5e:	0d 9c       	cmp	r12,	r13	;
    8a60:	86 2c       	jc	$+270    	;abs 0x8b6e
    8a62:	3d 40 89 13 	mov	#5001,	r13	;#0x1389
    8a66:	0d 9c       	cmp	r12,	r13	;
    8a68:	86 2c       	jc	$+270    	;abs 0x8b76
    8a6a:	3d 40 52 16 	mov	#5714,	r13	;#0x1652
    8a6e:	0d 9c       	cmp	r12,	r13	;
    8a70:	86 2c       	jc	$+270    	;abs 0x8b7e
    8a72:	3d 40 72 17 	mov	#6002,	r13	;#0x1772
    8a76:	0d 9c       	cmp	r12,	r13	;
    8a78:	86 2c       	jc	$+270    	;abs 0x8b86
    8a7a:	3d 40 6d 18 	mov	#6253,	r13	;#0x186d
    8a7e:	0d 9c       	cmp	r12,	r13	;
    8a80:	86 2c       	jc	$+270    	;abs 0x8b8e
    8a82:	3d 40 1f 19 	mov	#6431,	r13	;#0x191f
    8a86:	0d 9c       	cmp	r12,	r13	;
    8a88:	86 2c       	jc	$+270    	;abs 0x8b96
    8a8a:	3d 40 0a 1a 	mov	#6666,	r13	;#0x1a0a
    8a8e:	0d 9c       	cmp	r12,	r13	;
    8a90:	86 2c       	jc	$+270    	;abs 0x8b9e
    8a92:	3d 40 58 1b 	mov	#7000,	r13	;#0x1b58
    8a96:	0d 9c       	cmp	r12,	r13	;
    8a98:	86 2c       	jc	$+270    	;abs 0x8ba6
    8a9a:	3d 40 ea 1b 	mov	#7146,	r13	;#0x1bea
    8a9e:	0d 9c       	cmp	r12,	r13	;
    8aa0:	86 2c       	jc	$+270    	;abs 0x8bae
    8aa2:	3d 40 4e 1d 	mov	#7502,	r13	;#0x1d4e
    8aa6:	0d 9c       	cmp	r12,	r13	;
    8aa8:	86 2c       	jc	$+270    	;abs 0x8bb6
    8aaa:	3d 40 b4 1e 	mov	#7860,	r13	;#0x1eb4
    8aae:	0d 9c       	cmp	r12,	r13	;
    8ab0:	86 2c       	jc	$+270    	;abs 0x8bbe
    8ab2:	3d 40 43 1f 	mov	#8003,	r13	;#0x1f43
    8ab6:	0d 9c       	cmp	r12,	r13	;
    8ab8:	86 2c       	jc	$+270    	;abs 0x8bc6
    8aba:	3d 40 8c 20 	mov	#8332,	r13	;#0x208c
    8abe:	0d 9c       	cmp	r12,	r13	;
    8ac0:	86 2c       	jc	$+270    	;abs 0x8bce
    8ac2:	3d 40 0f 21 	mov	#8463,	r13	;#0x210f
    8ac6:	0d 9c       	cmp	r12,	r13	;
    8ac8:	86 2c       	jc	$+270    	;abs 0x8bd6
    8aca:	3d 40 7b 21 	mov	#8571,	r13	;#0x217b
    8ace:	0d 9c       	cmp	r12,	r13	;
    8ad0:	86 2c       	jc	$+270    	;abs 0x8bde
    8ad2:	3d 40 2e 22 	mov	#8750,	r13	;#0x222e
    8ad6:	0d 9c       	cmp	r12,	r13	;
    8ad8:	86 2c       	jc	$+270    	;abs 0x8be6
    8ada:	3d 40 2b 23 	mov	#9003,	r13	;#0x232b
    8ade:	0d 9c       	cmp	r12,	r13	;
    8ae0:	86 2c       	jc	$+270    	;abs 0x8bee
    8ae2:	3d 40 d1 23 	mov	#9169,	r13	;#0x23d1
    8ae6:	0d 9c       	cmp	r12,	r13	;
    8ae8:	86 2c       	jc	$+270    	;abs 0x8bf6
    8aea:	3d 40 47 24 	mov	#9287,	r13	;#0x2447
    8aee:	0d 9c       	cmp	r12,	r13	;
    8af0:	86 2c       	jc	$+270    	;abs 0x8bfe
    8af2:	7c 40 fe 00 	mov.b	#254,	r12	;#0x00fe

00008af6 <.L11>:
    8af6:	10 01       	reta			;

00008af8 <.L12>:
    8af8:	4c 43       	clr.b	r12		;
    8afa:	80 00 f6 8a 	mova	#35574,	r0	;0x08af6

00008afe <.L13>:
    8afe:	5c 43       	mov.b	#1,	r12	;r3 As==01
    8b00:	80 00 f6 8a 	mova	#35574,	r0	;0x08af6

00008b04 <.L14>:
    8b04:	6c 43       	mov.b	#2,	r12	;r3 As==10
    8b06:	80 00 f6 8a 	mova	#35574,	r0	;0x08af6

00008b0a <.L15>:
    8b0a:	6c 42       	mov.b	#4,	r12	;r2 As==10
    8b0c:	80 00 f6 8a 	mova	#35574,	r0	;0x08af6

00008b10 <.L16>:
    8b10:	7c 42       	mov.b	#8,	r12	;r2 As==11
    8b12:	80 00 f6 8a 	mova	#35574,	r0	;0x08af6

00008b16 <.L17>:
    8b16:	7c 40 10 00 	mov.b	#16,	r12	;#0x0010
    8b1a:	80 00 f6 8a 	mova	#35574,	r0	;0x08af6

00008b1e <.L18>:
    8b1e:	7c 40 20 00 	mov.b	#32,	r12	;#0x0020
    8b22:	80 00 f6 8a 	mova	#35574,	r0	;0x08af6

00008b26 <.L19>:
    8b26:	7c 40 11 00 	mov.b	#17,	r12	;#0x0011
    8b2a:	80 00 f6 8a 	mova	#35574,	r0	;0x08af6

00008b2e <.L20>:
    8b2e:	7c 40 21 00 	mov.b	#33,	r12	;#0x0021
    8b32:	80 00 f6 8a 	mova	#35574,	r0	;0x08af6

00008b36 <.L21>:
    8b36:	7c 40 22 00 	mov.b	#34,	r12	;#0x0022
    8b3a:	80 00 f6 8a 	mova	#35574,	r0	;0x08af6

00008b3e <.L22>:
    8b3e:	7c 40 44 00 	mov.b	#68,	r12	;#0x0044
    8b42:	80 00 f6 8a 	mova	#35574,	r0	;0x08af6

00008b46 <.L23>:
    8b46:	7c 40 25 00 	mov.b	#37,	r12	;#0x0025
    8b4a:	80 00 f6 8a 	mova	#35574,	r0	;0x08af6

00008b4e <.L24>:
    8b4e:	7c 40 49 00 	mov.b	#73,	r12	;#0x0049
    8b52:	80 00 f6 8a 	mova	#35574,	r0	;0x08af6

00008b56 <.L25>:
    8b56:	7c 40 4a 00 	mov.b	#74,	r12	;#0x004a
    8b5a:	80 00 f6 8a 	mova	#35574,	r0	;0x08af6

00008b5e <.L26>:
    8b5e:	7c 40 52 00 	mov.b	#82,	r12	;#0x0052
    8b62:	80 00 f6 8a 	mova	#35574,	r0	;0x08af6

00008b66 <.L27>:
    8b66:	7c 40 92 00 	mov.b	#146,	r12	;#0x0092
    8b6a:	80 00 f6 8a 	mova	#35574,	r0	;0x08af6

00008b6e <.L28>:
    8b6e:	7c 40 53 00 	mov.b	#83,	r12	;#0x0053
    8b72:	80 00 f6 8a 	mova	#35574,	r0	;0x08af6

00008b76 <.L29>:
    8b76:	7c 40 55 00 	mov.b	#85,	r12	;#0x0055
    8b7a:	80 00 f6 8a 	mova	#35574,	r0	;0x08af6

00008b7e <.L30>:
    8b7e:	7c 40 aa 00 	mov.b	#170,	r12	;#0x00aa
    8b82:	80 00 f6 8a 	mova	#35574,	r0	;0x08af6

00008b86 <.L31>:
    8b86:	7c 40 6b 00 	mov.b	#107,	r12	;#0x006b
    8b8a:	80 00 f6 8a 	mova	#35574,	r0	;0x08af6

00008b8e <.L32>:
    8b8e:	7c 40 ad 00 	mov.b	#173,	r12	;#0x00ad
    8b92:	80 00 f6 8a 	mova	#35574,	r0	;0x08af6

00008b96 <.L33>:
    8b96:	7c 40 b5 00 	mov.b	#181,	r12	;#0x00b5
    8b9a:	80 00 f6 8a 	mova	#35574,	r0	;0x08af6

00008b9e <.L34>:
    8b9e:	7c 40 b6 00 	mov.b	#182,	r12	;#0x00b6
    8ba2:	80 00 f6 8a 	mova	#35574,	r0	;0x08af6

00008ba6 <.L35>:
    8ba6:	7c 40 d6 00 	mov.b	#214,	r12	;#0x00d6
    8baa:	80 00 f6 8a 	mova	#35574,	r0	;0x08af6

00008bae <.L36>:
    8bae:	7c 40 b7 00 	mov.b	#183,	r12	;#0x00b7
    8bb2:	80 00 f6 8a 	mova	#35574,	r0	;0x08af6

00008bb6 <.L37>:
    8bb6:	7c 40 bb 00 	mov.b	#187,	r12	;#0x00bb
    8bba:	80 00 f6 8a 	mova	#35574,	r0	;0x08af6

00008bbe <.L38>:
    8bbe:	7c 40 dd 00 	mov.b	#221,	r12	;#0x00dd
    8bc2:	80 00 f6 8a 	mova	#35574,	r0	;0x08af6

00008bc6 <.L39>:
    8bc6:	7c 40 ed 00 	mov.b	#237,	r12	;#0x00ed
    8bca:	80 00 f6 8a 	mova	#35574,	r0	;0x08af6

00008bce <.L40>:
    8bce:	7c 40 ee 00 	mov.b	#238,	r12	;#0x00ee
    8bd2:	80 00 f6 8a 	mova	#35574,	r0	;0x08af6

00008bd6 <.L41>:
    8bd6:	7c 40 bf 00 	mov.b	#191,	r12	;#0x00bf
    8bda:	80 00 f6 8a 	mova	#35574,	r0	;0x08af6

00008bde <.L42>:
    8bde:	7c 40 df 00 	mov.b	#223,	r12	;#0x00df
    8be2:	80 00 f6 8a 	mova	#35574,	r0	;0x08af6

00008be6 <.L43>:
    8be6:	7c 40 ef 00 	mov.b	#239,	r12	;#0x00ef
    8bea:	80 00 f6 8a 	mova	#35574,	r0	;0x08af6

00008bee <.L44>:
    8bee:	7c 40 f7 00 	mov.b	#247,	r12	;#0x00f7
    8bf2:	80 00 f6 8a 	mova	#35574,	r0	;0x08af6

00008bf6 <.L45>:
    8bf6:	7c 40 fb 00 	mov.b	#251,	r12	;#0x00fb
    8bfa:	80 00 f6 8a 	mova	#35574,	r0	;0x08af6

00008bfe <.L46>:
    8bfe:	7c 40 fd 00 	mov.b	#253,	r12	;#0x00fd
    8c02:	80 00 f6 8a 	mova	#35574,	r0	;0x08af6

00008c06 <spi_lld_unselect>:
    8c06:	1a 14       	pushm.a	#2,	r10	;20-bit words
    8c08:	3c 0c 02 00 	mova	2(r12),	r12	;
    8c0c:	3c 0c 04 00 	mova	4(r12),	r12	;
    8c10:	9c 00 00 00 	cmpa	#0,	r12	;
    8c14:	18 24       	jz	$+50     	;abs 0x8c46
    8c16:	ca 0c       	mova	r12,	r10	;
    8c18:	00 18 7a f0 	andx.a	#4095,	r10	;0x00fff
    8c1c:	ff 0f 
    8c1e:	19 4a 02 00 	mov	2(r10),	r9	;
    8c22:	0c 14       	pushm.a	#1,	r12	;20-bit words
    8c24:	40 18 3c 41 	popx.w	r12		;
    8c28:	40 18 3d 41 	popx.w	r13		;
    8c2c:	b0 13 e0 b3 	calla	#46048		;0x0b3e0
    8c30:	0d 12       	push	r13		;
    8c32:	0c 12       	push	r12		;
    8c34:	0c 16       	popm.a	#1,	r12	;20-bit words
    8c36:	40 18 0d 4c 	movx.w	r12,	r13	;
    8c3a:	5c 43       	mov.b	#1,	r12	;r3 As==01
    8c3c:	b0 13 34 b3 	calla	#45876		;0x0b334
    8c40:	0c d9       	bis	r9,	r12	;
    8c42:	8a 4c 02 00 	mov	r12,	2(r10)	;

00008c46 <.L47>:
    8c46:	19 16       	popm.a	#2,	r10	;20-bit words
    8c48:	10 01       	reta			;

00008c4a <dma_trigger_set.lto_priv.172>:
    8c4a:	3a 14       	pushm.a	#4,	r10	;20-bit words
    8c4c:	49 4c       	mov.b	r12,	r9	;
    8c4e:	48 4d       	mov.b	r13,	r8	;
    8c50:	0a 49       	mov	r9,	r10	;
    8c52:	12 c3       	clrc			
    8c54:	0a 10       	rrc	r10		;
    8c56:	40 18 0a 4a 	movx.w	r10,	r10	;
    8c5a:	ea 0a       	adda	r10,	r10	;
    8c5c:	aa 00 00 05 	adda	#1280,	r10	;0x00500
    8c60:	59 f3       	and.b	#1,	r9	;r3 As==01
    8c62:	42 18 09 59 	rpt #3 { rlax.w	r9		;
    8c66:	3c 40 00 ff 	mov	#65280,	r12	;#0xff00
    8c6a:	0d 49       	mov	r9,	r13	;
    8c6c:	b0 13 c8 b3 	calla	#46024		;0x0b3c8
    8c70:	07 4c       	mov	r12,	r7	;
    8c72:	27 fa       	and	@r10,	r7	;
    8c74:	0c 48       	mov	r8,	r12	;
    8c76:	0d 49       	mov	r9,	r13	;
    8c78:	b0 13 34 b3 	calla	#45876		;0x0b334
    8c7c:	07 dc       	bis	r12,	r7	;
    8c7e:	8a 47 00 00 	mov	r7,	0(r10)	;
    8c82:	37 16       	popm.a	#4,	r10	;20-bit words
    8c84:	10 01       	reta			;

00008c86 <dmaTransferI>:
    8c86:	0a 14       	pushm.a	#1,	r10	;20-bit words
    8c88:	08 14       	pushm.a	#1,	r8	;20-bit words
    8c8a:	ca 0c       	mova	r12,	r10	;
    8c8c:	c8 0d       	mova	r13,	r8	;
    8c8e:	0c 0c       	mova	@r12,	r12	;
    8c90:	bc f0 ef ff 	and	#65519,	0(r12)	;#0xffef
    8c94:	00 00 
    8c96:	5d 4d 10 00 	mov.b	16(r13),r13	;0x00010
    8c9a:	5c 4a 04 00 	mov.b	4(r10),	r12	;
    8c9e:	b0 13 4a 8c 	calla	#35914		;0x08c4a
    8ca2:	0c 0a       	mova	@r10,	r12	;
    8ca4:	00 18 ec 48 	movx.a	@r8,	2(r12)	;
    8ca8:	02 00 
    8caa:	0c 0a       	mova	@r10,	r12	;
    8cac:	00 18 dc 48 	movx.a	4(r8),	6(r12)	;
    8cb0:	04 00 06 00 
    8cb4:	0e 0a       	mova	@r10,	r14	;
    8cb6:	9e 48 08 00 	mov	8(r8),	10(r14)	; 0x000a
    8cba:	0a 00 
    8cbc:	1c 48 0c 00 	mov	12(r8),	r12	;0x0000c
    8cc0:	1c d8 0a 00 	bis	10(r8),	r12	;0x0000a
    8cc4:	3c d0 15 00 	bis	#21,	r12	;#0x0015
    8cc8:	1c d8 0e 00 	bis	14(r8),	r12	;0x0000e
    8ccc:	8e 4c 00 00 	mov	r12,	0(r14)	;
    8cd0:	08 16       	popm.a	#1,	r8	;20-bit words
    8cd2:	0a 16       	popm.a	#1,	r10	;20-bit words
    8cd4:	10 01       	reta			;

00008cd6 <dmaAcquireI>:
    8cd6:	2a 14       	pushm.a	#3,	r10	;20-bit words
    8cd8:	ca 0c       	mova	r12,	r10	;
    8cda:	40 18 19 42 	movx.w	&0x00510,r9	;
    8cde:	10 05 
    8ce0:	79 f0 10 00 	and.b	#16,	r9	;#0x0010
    8ce4:	09 93       	cmp	#0,	r9	;r3 As==00
    8ce6:	11 24       	jz	$+36     	;abs 0x8d0a
    8ce8:	8c 00 20 05 	mova	#1312,	r12	;0x00520
    8cec:	40 18 bc b0 	bitx.w	#16,	0(r12)	;0x00010
    8cf0:	10 00 00 00 
    8cf4:	09 24       	jz	$+20     	;abs 0x8d08
    8cf6:	40 18 bc b0 	bitx.w	#16,	16(r12)	;0x00010, 0x00010
    8cfa:	10 00 10 00 
    8cfe:	1f 24       	jz	$+64     	;abs 0x8d3e
    8d00:	8c 0f ff ff 	mova	#-1,	r12	;0xffffffff

00008d04 <.L54>:
    8d04:	28 16       	popm.a	#3,	r10	;20-bit words
    8d06:	10 01       	reta			;

00008d08 <.L58>:
    8d08:	59 43       	mov.b	#1,	r9	;r3 As==01

00008d0a <.L55>:
    8d0a:	48 49       	mov.b	r9,	r8	;
    8d0c:	4d 43       	clr.b	r13		;
    8d0e:	4c 48       	mov.b	r8,	r12	;
    8d10:	b0 13 4a 8c 	calla	#35914		;0x08c4a
    8d14:	0c 49       	mov	r9,	r12	;
    8d16:	0d 43       	clr	r13		;
    8d18:	b0 13 66 b3 	calla	#45926		;0x0b366
    8d1c:	0d 12       	push	r13		;
    8d1e:	0c 12       	push	r12		;
    8d20:	0c 16       	popm.a	#1,	r12	;20-bit words
    8d22:	ac 00 10 05 	adda	#1296,	r12	;0x00510
    8d26:	8c 43 0a 00 	mov	#0,	10(r12)	;r3 As==00, 0x000a
    8d2a:	bc 40 12 00 	mov	#18,	0(r12)	;#0x0012
    8d2e:	00 00 
    8d30:	7a 0c 00 00 	mova	r12,	0(r10)	;
    8d34:	ca 48 04 00 	mov.b	r8,	4(r10)	;
    8d38:	4c 43       	clr.b	r12		;
    8d3a:	80 00 04 8d 	mova	#36100,	r0	;0x08d04

00008d3e <.L59>:
    8d3e:	69 43       	mov.b	#2,	r9	;r3 As==10
    8d40:	80 00 0a 8d 	mova	#36106,	r0	;0x08d0a

00008d44 <init_transfer.lto_priv.161>:
    8d44:	0a 14       	pushm.a	#1,	r10	;20-bit words
    8d46:	08 14       	pushm.a	#1,	r8	;20-bit words
    8d48:	06 14       	pushm.a	#1,	r6	;20-bit words
    8d4a:	04 14       	pushm.a	#1,	r4	;20-bit words
    8d4c:	ca 0c       	mova	r12,	r10	;
    8d4e:	c8 0c       	mova	r12,	r8	;
    8d50:	a8 00 52 00 	adda	#82,	r8	;0x00052
    8d54:	98 00 00 00 	cmpa	#0,	r8	;
    8d58:	09 24       	jz	$+20     	;abs 0x8d6c
    8d5a:	3c 0c 52 00 	mova	82(r12),r12	;0x00052
    8d5e:	9c 00 00 00 	cmpa	#0,	r12	;
    8d62:	04 24       	jz	$+10     	;abs 0x8d6c
    8d64:	bc b0 10 00 	bit	#16,	0(r12)	;#0x0010
    8d68:	00 00 
    8d6a:	03 20       	jnz	$+8      	;abs 0x8d72

00008d6c <.L61>:
    8d6c:	cc 08       	mova	r8,	r12	;
    8d6e:	b0 13 d6 8c 	calla	#36054		;0x08cd6

00008d72 <.L62>:
    8d72:	c6 0a       	mova	r10,	r6	;
    8d74:	a6 00 48 00 	adda	#72,	r6	;0x00048
    8d78:	96 00 00 00 	cmpa	#0,	r6	;
    8d7c:	09 24       	jz	$+20     	;abs 0x8d90
    8d7e:	3c 0a 48 00 	mova	72(r10),r12	;0x00048
    8d82:	9c 00 00 00 	cmpa	#0,	r12	;
    8d86:	04 24       	jz	$+10     	;abs 0x8d90
    8d88:	bc b0 10 00 	bit	#16,	0(r12)	;#0x0010
    8d8c:	00 00 
    8d8e:	03 20       	jnz	$+8      	;abs 0x8d96

00008d90 <.L63>:
    8d90:	cc 06       	mova	r6,	r12	;
    8d92:	b0 13 d6 8c 	calla	#36054		;0x08cd6

00008d96 <.L64>:
    8d96:	84 00 86 8c 	mova	#35974,	r4	;0x08c86
    8d9a:	cd 0a       	mova	r10,	r13	;
    8d9c:	ad 00 2e 00 	adda	#46,	r13	;0x0002e
    8da0:	cc 08       	mova	r8,	r12	;
    8da2:	44 13       	calla	r4		;
    8da4:	cd 0a       	mova	r10,	r13	;
    8da6:	ad 00 14 00 	adda	#20,	r13	;0x00014
    8daa:	cc 06       	mova	r6,	r12	;
    8dac:	44 13       	calla	r4		;
    8dae:	3c 0a 10 00 	mova	16(r10),r12	;0x00010
    8db2:	ac d3 00 00 	bis	#2,	0(r12)	;r3 As==10
    8db6:	04 16       	popm.a	#1,	r4	;20-bit words
    8db8:	06 16       	popm.a	#1,	r6	;20-bit words
    8dba:	08 16       	popm.a	#1,	r8	;20-bit words
    8dbc:	0a 16       	popm.a	#1,	r10	;20-bit words
    8dbe:	10 01       	reta			;

00008dc0 <chSchDoReschedule>:
    8dc0:	8e 01 2c 1a 	mova	#72236,	r14	;0x11a2c
    8dc4:	0d 0e       	mova	@r14,	r13	;
    8dc6:	3c 0e 04 00 	mova	4(r14),	r12	;
    8dca:	7e 0c 00 00 	mova	r12,	0(r14)	;
    8dce:	b0 13 be 89 	calla	#35262		;0x089be
    8dd2:	10 01       	reta			;

00008dd4 <chSchRescheduleS>:
    8dd4:	81 18 d2 92 	cmpx.a	&0x11a30,&0x11a2c;
    8dd8:	30 1a 2c 1a 
    8ddc:	02 24       	jz	$+6      	;abs 0x8de2
    8dde:	b0 13 c0 8d 	calla	#36288		;0x08dc0

00008de2 <.L76>:
    8de2:	10 01       	reta			;

00008de4 <i2cMSP430XEndTransferI>:
    8de4:	0a 14       	pushm.a	#1,	r10	;20-bit words
    8de6:	b1 00 02 00 	suba	#2,	r1	;
    8dea:	6d 4c       	mov.b	@r12,	r13	;
    8dec:	4e 4d       	mov.b	r13,	r14	;
    8dee:	7e 50 fd ff 	add.b	#65533,	r14	;#0xfffd
    8df2:	5f 43       	mov.b	#1,	r15	;r3 As==01
    8df4:	4f 9e       	cmp.b	r14,	r15	;
    8df6:	08 2c       	jc	$+18     	;abs 0x8e08
    8df8:	b0 13 fe a1 	calla	#41470		;0x0a1fe
    8dfc:	81 18 f2 40 	movx.a	#66465,	&0x11a36;0x103a1
    8e00:	a1 03 36 1a 

00008e04 <.L80>:
    8e04:	80 00 04 8e 	mova	#36356,	r0	;0x08e04

00008e08 <.L79>:
    8e08:	3e 0c 10 00 	mova	16(r12),r14	;0x00010
    8e0c:	ae d2 00 00 	bis	#4,	0(r14)	;r2 As==10
    8e10:	2d 92       	cmp	#4,	r13	;r2 As==10
    8e12:	2e 20       	jnz	$+94     	;abs 0x8e70

00008e14 <.L82>:
    8e14:	40 18 9e b3 	bitx.w	#1,	44(r14)	;r3 As==01, 0x0002c
    8e18:	2c 00 
    8e1a:	fc 27       	jz	$-6      	;abs 0x8e14
    8e1c:	3a 0c 18 00 	mova	24(r12),r10	;0x00018
    8e20:	8c 93 1e 00 	cmp	#0,	30(r12)	;r3 As==00, 0x001e
    8e24:	1f 24       	jz	$+64     	;abs 0x8e64
    8e26:	1d 4e 0c 00 	mov	12(r14),r13	;0x0000c
    8e2a:	40 18 1e 4c 	movx.w	28(r12),r14	;0x0001c
    8e2e:	1c 00 
    8e30:	ee 0a       	adda	r10,	r14	;
    8e32:	ce 4d 00 00 	mov.b	r13,	0(r14)	;

00008e36 <.L84>:
    8e36:	3e 0c 10 00 	mova	16(r12),r14	;0x00010

00008e3a <.L85>:
    8e3a:	ae b2 00 00 	bit	#4,	0(r14)	;r2 As==10
    8e3e:	fd 23       	jnz	$-4      	;abs 0x8e3a
    8e40:	be c2 2c 00 	bic	#8,	44(r14)	;r2 As==11, 0x002c
    8e44:	40 18 9e b3 	bitx.w	#1,	44(r14)	;r3 As==01, 0x0002c
    8e48:	2c 00 
    8e4a:	06 24       	jz	$+14     	;abs 0x8e58
    8e4c:	1d 4e 0c 00 	mov	12(r14),r13	;0x0000c
    8e50:	c1 4d 01 00 	mov.b	r13,	1(r1)	;
    8e54:	5d 41 01 00 	mov.b	1(r1),	r13	;

00008e58 <.L86>:
    8e58:	ec 43 00 00 	mov.b	#2,	0(r12)	;r3 As==10
    8e5c:	a1 00 02 00 	adda	#2,	r1	;
    8e60:	0a 16       	popm.a	#1,	r10	;20-bit words
    8e62:	10 01       	reta			;

00008e64 <.L83>:
    8e64:	1d 4e 0c 00 	mov	12(r14),r13	;0x0000c
    8e68:	ca 4d 00 00 	mov.b	r13,	0(r10)	;
    8e6c:	80 00 36 8e 	mova	#36406,	r0	;0x08e36

00008e70 <.L90>:
    8e70:	ae b2 00 00 	bit	#4,	0(r14)	;r2 As==10
    8e74:	fd 23       	jnz	$-4      	;abs 0x8e70
    8e76:	be c2 2c 00 	bic	#8,	44(r14)	;r2 As==11, 0x002c
    8e7a:	80 00 58 8e 	mova	#36440,	r0	;0x08e58

00008e7e <rx_async_callback>:
    8e7e:	0a 14       	pushm.a	#1,	r10	;20-bit words
    8e80:	08 14       	pushm.a	#1,	r8	;20-bit words
    8e82:	ca 0c       	mova	r12,	r10	;
    8e84:	38 0c 0c 00 	mova	12(r12),r8	;0x0000c
    8e88:	98 00 00 00 	cmpa	#0,	r8	;
    8e8c:	08 24       	jz	$+18     	;abs 0x8e9e
    8e8e:	1e 4c 1c 00 	mov	28(r12),r14	;0x0001c
    8e92:	3d 0c 08 00 	mova	8(r12),	r13	;
    8e96:	48 13       	calla	r8		;

00008e98 <.L95>:
    8e98:	08 16       	popm.a	#1,	r8	;20-bit words
    8e9a:	0a 16       	popm.a	#1,	r10	;20-bit words
    8e9c:	10 01       	reta			;

00008e9e <.L96>:
    8e9e:	b0 13 e4 8d 	calla	#36324		;0x08de4
    8ea2:	80 00 98 8e 	mova	#36504,	r0	;0x08e98

00008ea6 <spi_lld_polled_exchange>:
    8ea6:	3d f0 ff 00 	and	#255,	r13	;#0x00ff
    8eaa:	ec 93 00 00 	cmp.b	#2,	0(r12)	;r3 As==10
    8eae:	08 24       	jz	$+18     	;abs 0x8ec0
    8eb0:	b0 13 fe a1 	calla	#41470		;0x0a1fe
    8eb4:	81 18 f2 40 	movx.a	#66441,	&0x11a36;0x10389
    8eb8:	89 03 36 1a 

00008ebc <.L100>:
    8ebc:	80 00 bc 8e 	mova	#36540,	r0	;0x08ebc

00008ec0 <.L99>:
    8ec0:	3e 0c 0c 00 	mova	12(r12),r14	;0x0000c
    8ec4:	8e 4d 0e 00 	mov	r13,	14(r14)	; 0x000e
    8ec8:	3c 0c 10 00 	mova	16(r12),r12	;0x00010

00008ecc <.L101>:
    8ecc:	40 18 9c b3 	bitx.w	#1,	0(r12)	;r3 As==01
    8ed0:	00 00 
    8ed2:	fc 27       	jz	$-6      	;abs 0x8ecc
    8ed4:	bc f0 fc ff 	and	#65532,	0(r12)	;#0xfffc
    8ed8:	00 00 
    8eda:	5c 4e 0c 00 	mov.b	12(r14),r12	;0x0000c
    8ede:	10 01       	reta			;

00008ee0 <dmaClaimI>:
    8ee0:	3a 14       	pushm.a	#4,	r10	;20-bit words
    8ee2:	c8 0c       	mova	r12,	r8	;
    8ee4:	49 4d       	mov.b	r13,	r9	;
    8ee6:	6c 43       	mov.b	#2,	r12	;r3 As==10
    8ee8:	4c 99       	cmp.b	r9,	r12	;
    8eea:	08 2c       	jc	$+18     	;abs 0x8efc
    8eec:	b0 13 fe a1 	calla	#41470		;0x0a1fe
    8ef0:	81 18 f2 40 	movx.a	#66396,	&0x11a36;0x1035c
    8ef4:	5c 03 36 1a 

00008ef8 <.L106>:
    8ef8:	80 00 f8 8e 	mova	#36600,	r0	;0x08ef8

00008efc <.L105>:
    8efc:	0c 49       	mov	r9,	r12	;
    8efe:	0d 43       	clr	r13		;
    8f00:	b0 13 66 b3 	calla	#45926		;0x0b366
    8f04:	0d 12       	push	r13		;
    8f06:	0c 12       	push	r12		;
    8f08:	0a 16       	popm.a	#1,	r10	;20-bit words
    8f0a:	aa 00 10 05 	adda	#1296,	r10	;0x00510
    8f0e:	27 4a       	mov	@r10,	r7	;
    8f10:	77 f0 10 00 	and.b	#16,	r7	;#0x0010
    8f14:	07 93       	cmp	#0,	r7	;r3 As==00
    8f16:	10 20       	jnz	$+34     	;abs 0x8f38
    8f18:	4d 47       	mov.b	r7,	r13	;
    8f1a:	4c 49       	mov.b	r9,	r12	;
    8f1c:	b0 13 4a 8c 	calla	#35914		;0x08c4a
    8f20:	8a 47 0a 00 	mov	r7,	10(r10)	; 0x000a
    8f24:	ba 40 12 00 	mov	#18,	0(r10)	;#0x0012
    8f28:	00 00 
    8f2a:	78 0a 00 00 	mova	r10,	0(r8)	;
    8f2e:	c8 49 04 00 	mov.b	r9,	4(r8)	;
    8f32:	4c 43       	clr.b	r12		;

00008f34 <.L104>:
    8f34:	37 16       	popm.a	#4,	r10	;20-bit words
    8f36:	10 01       	reta			;

00008f38 <.L108>:
    8f38:	8c 0f ff ff 	mova	#-1,	r12	;0xffffffff
    8f3c:	80 00 34 8f 	mova	#36660,	r0	;0x08f34

00008f40 <uartStartReceiveI>:
    8f40:	0a 14       	pushm.a	#1,	r10	;20-bit words
    8f42:	08 14       	pushm.a	#1,	r8	;20-bit words
    8f44:	06 14       	pushm.a	#1,	r6	;20-bit words
    8f46:	ca 0c       	mova	r12,	r10	;
    8f48:	9c 00 00 00 	cmpa	#0,	r12	;
    8f4c:	06 24       	jz	$+14     	;abs 0x8f5a
    8f4e:	9d 00 00 00 	cmpa	#0,	r13	;
    8f52:	03 24       	jz	$+8      	;abs 0x8f5a
    8f54:	9e 00 00 00 	cmpa	#0,	r14	;
    8f58:	08 20       	jnz	$+18     	;abs 0x8f6a

00008f5a <.L110>:
    8f5a:	b0 13 fe a1 	calla	#41470		;0x0a1fe
    8f5e:	81 18 f2 40 	movx.a	#66378,	&0x11a36;0x1034a
    8f62:	4a 03 36 1a 

00008f66 <.L112>:
    8f66:	80 00 66 8f 	mova	#36710,	r0	;0x08f66

00008f6a <.L111>:
    8f6a:	ec 93 00 00 	cmp.b	#2,	0(r12)	;r3 As==10
    8f6e:	08 24       	jz	$+18     	;abs 0x8f80
    8f70:	b0 13 fe a1 	calla	#41470		;0x0a1fe
    8f74:	81 18 f2 40 	movx.a	#66378,	&0x11a36;0x1034a
    8f78:	4a 03 36 1a 

00008f7c <.L114>:
    8f7c:	80 00 7c 8f 	mova	#36732,	r0	;0x08f7c

00008f80 <.L113>:
    8f80:	dc 93 02 00 	cmp.b	#1,	2(r12)	;r3 As==01
    8f84:	08 20       	jnz	$+18     	;abs 0x8f96
    8f86:	b0 13 fe a1 	calla	#41470		;0x0a1fe
    8f8a:	81 18 f2 40 	movx.a	#66378,	&0x11a36;0x1034a
    8f8e:	4a 03 36 1a 

00008f92 <.L116>:
    8f92:	80 00 92 8f 	mova	#36754,	r0	;0x08f92

00008f96 <.L115>:
    8f96:	7c 0e 38 00 	mova	r14,	56(r12)	; 0x00038
    8f9a:	40 18 8c 4d 	movx.w	r13,	60(r12)	; 0x0003c
    8f9e:	3c 00 
    8fa0:	3c 0c 16 00 	mova	22(r12),r12	;0x00016
    8fa4:	9c c3 1a 00 	bic	#1,	26(r12)	;r3 As==01, 0x001a
    8fa8:	c8 0a       	mova	r10,	r8	;
    8faa:	a8 00 58 00 	adda	#88,	r8	;0x00058
    8fae:	c6 0a       	mova	r10,	r6	;
    8fb0:	a6 00 34 00 	adda	#52,	r6	;0x00034
    8fb4:	ca 93 63 00 	cmp.b	#0,	99(r10)	;r3 As==00, 0x0063
    8fb8:	05 20       	jnz	$+12     	;abs 0x8fc4
    8fba:	cc 08       	mova	r8,	r12	;
    8fbc:	b0 13 d6 8c 	calla	#36054		;0x08cd6
    8fc0:	da 43 63 00 	mov.b	#1,	99(r10)	;r3 As==01, 0x0063

00008fc4 <.L117>:
    8fc4:	cd 06       	mova	r6,	r13	;
    8fc6:	cc 08       	mova	r8,	r12	;
    8fc8:	b0 13 86 8c 	calla	#35974		;0x08c86
    8fcc:	3c 0a 16 00 	mova	22(r10),r12	;0x00016
    8fd0:	40 18 9c b3 	bitx.w	#1,	28(r12)	;r3 As==01, 0x0001c
    8fd4:	1c 00 
    8fd6:	04 24       	jz	$+10     	;abs 0x8fe0
    8fd8:	9c c3 1c 00 	bic	#1,	28(r12)	;r3 As==01, 0x001c
    8fdc:	9c d3 1c 00 	bis	#1,	28(r12)	;r3 As==01, 0x001c

00008fe0 <.L118>:
    8fe0:	da 43 02 00 	mov.b	#1,	2(r10)	;r3 As==01
    8fe4:	06 16       	popm.a	#1,	r6	;20-bit words
    8fe6:	08 16       	popm.a	#1,	r8	;20-bit words
    8fe8:	0a 16       	popm.a	#1,	r10	;20-bit words
    8fea:	10 01       	reta			;

00008fec <uartStartSendI>:
    8fec:	0a 14       	pushm.a	#1,	r10	;20-bit words
    8fee:	08 14       	pushm.a	#1,	r8	;20-bit words
    8ff0:	06 14       	pushm.a	#1,	r6	;20-bit words
    8ff2:	ca 0c       	mova	r12,	r10	;
    8ff4:	9c 00 00 00 	cmpa	#0,	r12	;
    8ff8:	06 24       	jz	$+14     	;abs 0x9006
    8ffa:	9d 00 00 00 	cmpa	#0,	r13	;
    8ffe:	03 24       	jz	$+8      	;abs 0x9006
    9000:	9e 00 00 00 	cmpa	#0,	r14	;
    9004:	08 20       	jnz	$+18     	;abs 0x9016

00009006 <.L128>:
    9006:	b0 13 fe a1 	calla	#41470		;0x0a1fe
    900a:	81 18 f2 40 	movx.a	#66363,	&0x11a36;0x1033b
    900e:	3b 03 36 1a 

00009012 <.L130>:
    9012:	80 00 12 90 	mova	#36882,	r0	;0x09012

00009016 <.L129>:
    9016:	ec 93 00 00 	cmp.b	#2,	0(r12)	;r3 As==10
    901a:	08 24       	jz	$+18     	;abs 0x902c
    901c:	b0 13 fe a1 	calla	#41470		;0x0a1fe
    9020:	81 18 f2 40 	movx.a	#66363,	&0x11a36;0x1033b
    9024:	3b 03 36 1a 

00009028 <.L132>:
    9028:	80 00 28 90 	mova	#36904,	r0	;0x09028

0000902c <.L131>:
    902c:	dc 93 01 00 	cmp.b	#1,	1(r12)	;r3 As==01
    9030:	08 20       	jnz	$+18     	;abs 0x9042
    9032:	b0 13 fe a1 	calla	#41470		;0x0a1fe
    9036:	81 18 f2 40 	movx.a	#66363,	&0x11a36;0x1033b
    903a:	3b 03 36 1a 

0000903e <.L134>:
    903e:	80 00 3e 90 	mova	#36926,	r0	;0x0903e

00009042 <.L133>:
    9042:	7c 0e 1a 00 	mova	r14,	26(r12)	; 0x0001a
    9046:	40 18 8c 4d 	movx.w	r13,	34(r12)	; 0x00022
    904a:	22 00 
    904c:	3c 0c 16 00 	mova	22(r12),r12	;0x00016

00009050 <.L135>:
    9050:	40 18 ac b3 	bitx.w	#2,	28(r12)	;r3 As==10, 0x0001c
    9054:	1c 00 
    9056:	fc 27       	jz	$-6      	;abs 0x9050
    9058:	ac c3 1c 00 	bic	#2,	28(r12)	;r3 As==10, 0x001c
    905c:	c8 0a       	mova	r10,	r8	;
    905e:	a8 00 4e 00 	adda	#78,	r8	;0x0004e
    9062:	c6 0a       	mova	r10,	r6	;
    9064:	a6 00 1a 00 	adda	#26,	r6	;0x0001a
    9068:	ca 93 62 00 	cmp.b	#0,	98(r10)	;r3 As==00, 0x0062
    906c:	05 20       	jnz	$+12     	;abs 0x9078
    906e:	cc 08       	mova	r8,	r12	;
    9070:	b0 13 d6 8c 	calla	#36054		;0x08cd6
    9074:	da 43 62 00 	mov.b	#1,	98(r10)	;r3 As==01, 0x0062

00009078 <.L136>:
    9078:	cd 06       	mova	r6,	r13	;
    907a:	cc 08       	mova	r8,	r12	;
    907c:	b0 13 86 8c 	calla	#35974		;0x08c86
    9080:	3c 0a 16 00 	mova	22(r10),r12	;0x00016
    9084:	ac d3 1c 00 	bis	#2,	28(r12)	;r3 As==10, 0x001c
    9088:	da 43 01 00 	mov.b	#1,	1(r10)	;r3 As==01
    908c:	06 16       	popm.a	#1,	r6	;20-bit words
    908e:	08 16       	popm.a	#1,	r8	;20-bit words
    9090:	0a 16       	popm.a	#1,	r10	;20-bit words
    9092:	10 01       	reta			;

00009094 <_port_thread_start>:
    9094:	b0 13 f4 a1 	calla	#41460		;0x0a1f4
    9098:	cc 05       	mova	r5,	r12	;
    909a:	44 13       	calla	r4		;
    909c:	b0 13 fe a1 	calla	#41470		;0x0a1fe
    90a0:	01 18 c2 43 	movx.a	#0,	&0x11a36;r3 As==00
    90a4:	36 1a 

000090a6 <.L145>:
    90a6:	80 00 a6 90 	mova	#37030,	r0	;0x090a6

000090aa <chPoolAllocI>:
    90aa:	0a 14       	pushm.a	#1,	r10	;20-bit words
    90ac:	ce 0c       	mova	r12,	r14	;
    90ae:	9c 00 00 00 	cmpa	#0,	r12	;
    90b2:	08 20       	jnz	$+18     	;abs 0x90c4
    90b4:	b0 13 fe a1 	calla	#41470		;0x0a1fe
    90b8:	81 18 f2 40 	movx.a	#66341,	&0x11a36;0x10325
    90bc:	25 03 36 1a 

000090c0 <.L148>:
    90c0:	80 00 c0 90 	mova	#37056,	r0	;0x090c0

000090c4 <.L147>:
    90c4:	0c 0c       	mova	@r12,	r12	;
    90c6:	9c 00 00 00 	cmpa	#0,	r12	;
    90ca:	05 24       	jz	$+12     	;abs 0x90d6
    90cc:	00 18 ee 4c 	movx.a	@r12,	0(r14)	;
    90d0:	00 00 

000090d2 <.L146>:
    90d2:	0a 16       	popm.a	#1,	r10	;20-bit words
    90d4:	10 01       	reta			;

000090d6 <.L149>:
    90d6:	3a 0e 08 00 	mova	8(r14),	r10	;
    90da:	9a 00 00 00 	cmpa	#0,	r10	;
    90de:	f9 27       	jz	$-12     	;abs 0x90d2
    90e0:	6d 43       	mov.b	#2,	r13	;r3 As==10
    90e2:	3c 0e 04 00 	mova	4(r14),	r12	;
    90e6:	4a 13       	calla	r10		;
    90e8:	80 00 d2 90 	mova	#37074,	r0	;0x090d2

000090ec <chSchGoSleepTimeoutS>:
    90ec:	0a 14       	pushm.a	#1,	r10	;20-bit words
    90ee:	3c f0 ff 00 	and	#255,	r12	;#0x00ff
    90f2:	8a 01 2c 1a 	mova	#72236,	r10	;0x11a2c
    90f6:	0e 0a       	mova	@r10,	r14	;
    90f8:	9e 01 6a 1a 	cmpa	#72298,	r14	;0x11a6a
    90fc:	08 20       	jnz	$+18     	;abs 0x910e
    90fe:	b0 13 fe a1 	calla	#41470		;0x0a1fe
    9102:	81 18 f2 40 	movx.a	#66256,	&0x11a36;0x102d0
    9106:	d0 02 36 1a 

0000910a <.L154>:
    910a:	80 00 0a 91 	mova	#37130,	r0	;0x0910a

0000910e <.L153>:
    910e:	ce 4c 04 00 	mov.b	r12,	4(r14)	;
    9112:	8e 4d 0a 00 	mov	r13,	10(r14)	; 0x000a
    9116:	cc 0a       	mova	r10,	r12	;
    9118:	ac 00 0e 00 	adda	#14,	r12	;0x0000e

0000911c <.L156>:
    911c:	cc 93 04 00 	cmp.b	#0,	4(r12)	;r3 As==00
    9120:	0c 20       	jnz	$+26     	;abs 0x913a
    9122:	7a 0c 04 00 	mova	r12,	4(r10)	;
    9126:	7a 0c 00 00 	mova	r12,	0(r10)	;
    912a:	cd 0e       	mova	r14,	r13	;
    912c:	b0 13 be 89 	calla	#35262		;0x089be
    9130:	0c 0a       	mova	@r10,	r12	;
    9132:	3c 0c 06 00 	mova	6(r12),	r12	;
    9136:	0a 16       	popm.a	#1,	r10	;20-bit words
    9138:	10 01       	reta			;

0000913a <.L155>:
    913a:	ac 00 10 00 	adda	#16,	r12	;0x00010
    913e:	8d 01 6a 1a 	mova	#72298,	r13	;0x11a6a
    9142:	dd 0c       	cmpa	r12,	r13	;
    9144:	eb 2f       	jc	$-40     	;abs 0x911c
    9146:	b0 13 fe a1 	calla	#41470		;0x0a1fe
    914a:	81 18 f2 40 	movx.a	#66256,	&0x11a36;0x102d0
    914e:	d0 02 36 1a 

00009152 <.L157>:
    9152:	80 00 52 91 	mova	#37202,	r0	;0x09152

00009156 <chSemWaitTimeoutS>:
    9156:	0a 14       	pushm.a	#1,	r10	;20-bit words
    9158:	9c 00 00 00 	cmpa	#0,	r12	;
    915c:	08 20       	jnz	$+18     	;abs 0x916e
    915e:	b0 13 fe a1 	calla	#41470		;0x0a1fe
    9162:	81 18 f2 40 	movx.a	#66277,	&0x11a36;0x102e5
    9166:	e5 02 36 1a 

0000916a <.L162>:
    916a:	80 00 6a 91 	mova	#37226,	r0	;0x0916a

0000916e <.L161>:
    916e:	2e 4c       	mov	@r12,	r14	;
    9170:	4a 43       	clr.b	r10		;
    9172:	0a 9e       	cmp	r14,	r10	;
    9174:	0f 38       	jl	$+32     	;abs 0x9194
    9176:	3d 93       	cmp	#-1,	r13	;r3 As==11
    9178:	13 24       	jz	$+40     	;abs 0x91a0
    917a:	3e 53       	add	#-1,	r14	;r3 As==11
    917c:	8c 4e 00 00 	mov	r14,	0(r12)	;
    9180:	2e 01 2c 1a 	mova	&72236,	r14	;0x11a2c
    9184:	7e 0c 06 00 	mova	r12,	6(r14)	;
    9188:	7c 40 03 00 	mov.b	#3,	r12	;
    918c:	b0 13 ec 90 	calla	#37100		;0x090ec

00009190 <.L160>:
    9190:	0a 16       	popm.a	#1,	r10	;20-bit words
    9192:	10 01       	reta			;

00009194 <.L163>:
    9194:	3e 53       	add	#-1,	r14	;r3 As==11
    9196:	8c 4e 00 00 	mov	r14,	0(r12)	;
    919a:	4c 43       	clr.b	r12		;
    919c:	80 00 90 91 	mova	#37264,	r0	;0x09190

000091a0 <.L165>:
    91a0:	8c 0f ff ff 	mova	#-1,	r12	;0xffffffff
    91a4:	80 00 90 91 	mova	#37264,	r0	;0x09190

000091a8 <chSchReadyI>:
    91a8:	0a 14       	pushm.a	#1,	r10	;20-bit words
    91aa:	b1 00 04 00 	suba	#4,	r1	;
    91ae:	71 0d 00 00 	mova	r13,	0(r1)	;
    91b2:	9c 01 3a 1a 	cmpa	#72250,	r12	;0x11a3a
    91b6:	03 28       	jnc	$+8      	;abs 0x91be
    91b8:	9c 01 6a 1a 	cmpa	#72298,	r12	;0x11a6a
    91bc:	08 28       	jnc	$+18     	;abs 0x91ce

000091be <.L167>:
    91be:	b0 13 fe a1 	calla	#41470		;0x0a1fe
    91c2:	81 18 f2 40 	movx.a	#66244,	&0x11a36;0x102c4
    91c6:	c4 02 36 1a 

000091ca <.L169>:
    91ca:	80 00 ca 91 	mova	#37322,	r0	;0x091ca

000091ce <.L168>:
    91ce:	cc 93 04 00 	cmp.b	#0,	4(r12)	;r3 As==00
    91d2:	08 20       	jnz	$+18     	;abs 0x91e4
    91d4:	b0 13 fe a1 	calla	#41470		;0x0a1fe
    91d8:	81 18 f2 40 	movx.a	#66244,	&0x11a36;0x102c4
    91dc:	c4 02 36 1a 

000091e0 <.L171>:
    91e0:	80 00 e0 91 	mova	#37344,	r0	;0x091e0

000091e4 <.L170>:
    91e4:	8e 01 2c 1a 	mova	#72236,	r14	;0x11a2c
    91e8:	3a 0e 04 00 	mova	4(r14),	r10	;
    91ec:	01 18 c2 9a 	cmpx.a	r10,	&0x11a2c;
    91f0:	2c 1a 
    91f2:	08 2c       	jc	$+18     	;abs 0x9204
    91f4:	b0 13 fe a1 	calla	#41470		;0x0a1fe
    91f8:	81 18 f2 40 	movx.a	#66244,	&0x11a36;0x102c4
    91fc:	c4 02 36 1a 

00009200 <.L173>:
    9200:	80 00 00 92 	mova	#37376,	r0	;0x09200

00009204 <.L172>:
    9204:	ac 41 06 00 	mov	@r1,	6(r12)	;
    9208:	0f 01       	mova	@r1,	r15	;
    920a:	0f 14       	pushm.a	#1,	r15	;20-bit words
    920c:	0d 17       	popm	#1,	r13	;16-bit words
    920e:	0d 17       	popm	#1,	r13	;16-bit words
    9210:	7d f0 0f 00 	and.b	#15,	r13	;#0x000f
    9214:	5f 4c 08 00 	mov.b	8(r12),	r15	;
    9218:	7f f0 f0 ff 	and.b	#65520,	r15	;#0xfff0
    921c:	4f dd       	bis.b	r13,	r15	;
    921e:	cc 4f 08 00 	mov.b	r15,	8(r12)	;
    9222:	cc 43 04 00 	mov.b	#0,	4(r12)	;r3 As==00
    9226:	8c 43 0a 00 	mov	#0,	10(r12)	;r3 As==00, 0x000a
    922a:	dc 0a       	cmpa	r10,	r12	;
    922c:	02 2c       	jc	$+6      	;abs 0x9232
    922e:	7e 0c 04 00 	mova	r12,	4(r14)	;

00009232 <.L174>:
    9232:	a1 00 04 00 	adda	#4,	r1	;
    9236:	0a 16       	popm.a	#1,	r10	;20-bit words
    9238:	10 01       	reta			;

0000923a <chEvtSignalI>:
    923a:	0a 14       	pushm.a	#1,	r10	;20-bit words
    923c:	ca 0c       	mova	r12,	r10	;
    923e:	9c 00 00 00 	cmpa	#0,	r12	;
    9242:	08 20       	jnz	$+18     	;abs 0x9254
    9244:	b0 13 fe a1 	calla	#41470		;0x0a1fe
    9248:	81 18 f2 40 	movx.a	#66308,	&0x11a36;0x10304
    924c:	04 03 36 1a 

00009250 <.L177>:
    9250:	80 00 50 92 	mova	#37456,	r0	;0x09250

00009254 <.L176>:
    9254:	1d dc 0c 00 	bis	12(r12),r13	;0x0000c
    9258:	1e dc 0e 00 	bis	14(r12),r14	;0x0000e
    925c:	8c 4d 0c 00 	mov	r13,	12(r12)	; 0x000c
    9260:	8c 4e 0e 00 	mov	r14,	14(r12)	; 0x000e
    9264:	ec 92 04 00 	cmp.b	#4,	4(r12)	;r2 As==10
    9268:	0a 20       	jnz	$+22     	;abs 0x927e
    926a:	1d fc 06 00 	and	6(r12),	r13	;
    926e:	1e fc 08 00 	and	8(r12),	r14	;
    9272:	0d de       	bis	r14,	r13	;
    9274:	0d 93       	cmp	#0,	r13	;r3 As==00
    9276:	03 24       	jz	$+8      	;abs 0x927e
    9278:	4d 43       	clr.b	r13		;
    927a:	b0 13 a8 91 	calla	#37288		;0x091a8

0000927e <.L175>:
    927e:	0a 16       	popm.a	#1,	r10	;20-bit words
    9280:	10 01       	reta			;

00009282 <chSemSignalI>:
    9282:	ce 0c       	mova	r12,	r14	;
    9284:	9c 00 00 00 	cmpa	#0,	r12	;
    9288:	08 20       	jnz	$+18     	;abs 0x929a
    928a:	b0 13 fe a1 	calla	#41470		;0x0a1fe
    928e:	81 18 f2 40 	movx.a	#66295,	&0x11a36;0x102f7
    9292:	f7 02 36 1a 

00009296 <.L185>:
    9296:	80 00 96 92 	mova	#37526,	r0	;0x09296

0000929a <.L184>:
    929a:	2c 4c       	mov	@r12,	r12	;
    929c:	1c 53       	inc	r12		;
    929e:	8e 4c 00 00 	mov	r12,	0(r14)	;
    92a2:	4d 43       	clr.b	r13		;
    92a4:	0d 9c       	cmp	r12,	r13	;
    92a6:	15 38       	jl	$+44     	;abs 0x92d2
    92a8:	8c 01 3a 1a 	mova	#72250,	r12	;0x11a3a

000092ac <.L190>:
    92ac:	00 18 5e 9c 	cmpx.a	6(r12),	r14	;
    92b0:	06 00 
    92b2:	10 20       	jnz	$+34     	;abs 0x92d4
    92b4:	fc 90 03 00 	cmp.b	#3,	4(r12)	;
    92b8:	04 00 
    92ba:	08 24       	jz	$+18     	;abs 0x92cc
    92bc:	b0 13 fe a1 	calla	#41470		;0x0a1fe
    92c0:	81 18 f2 40 	movx.a	#66295,	&0x11a36;0x102f7
    92c4:	f7 02 36 1a 

000092c8 <.L189>:
    92c8:	80 00 c8 92 	mova	#37576,	r0	;0x092c8

000092cc <.L188>:
    92cc:	4d 43       	clr.b	r13		;
    92ce:	b0 13 a8 91 	calla	#37288		;0x091a8

000092d2 <.L183>:
    92d2:	10 01       	reta			;

000092d4 <.L187>:
    92d4:	ac 00 10 00 	adda	#16,	r12	;0x00010
    92d8:	9c 01 6a 1a 	cmpa	#72298,	r12	;0x11a6a
    92dc:	e7 2b       	jnc	$-48     	;abs 0x92ac
    92de:	b0 13 fe a1 	calla	#41470		;0x0a1fe
    92e2:	81 18 f2 40 	movx.a	#66295,	&0x11a36;0x102f7
    92e6:	f7 02 36 1a 

000092ea <.L191>:
    92ea:	80 00 ea 92 	mova	#37610,	r0	;0x092ea

000092ee <chMBPostS.part.0>:
    92ee:	0a 14       	pushm.a	#1,	r10	;20-bit words
    92f0:	3a 0c 08 00 	mova	8(r12),	r10	;
    92f4:	ce 0a       	mova	r10,	r14	;
    92f6:	ae 00 04 00 	adda	#4,	r14	;
    92fa:	7c 0e 08 00 	mova	r14,	8(r12)	;
    92fe:	7a 0d 00 00 	mova	r13,	0(r10)	;
    9302:	00 18 5e 9c 	cmpx.a	4(r12),	r14	;
    9306:	04 00 
    9308:	03 28       	jnc	$+8      	;abs 0x9310
    930a:	00 18 ec 4c 	movx.a	@r12,	8(r12)	;
    930e:	08 00 

00009310 <.L194>:
    9310:	ac 00 10 00 	adda	#16,	r12	;0x00010
    9314:	b0 13 82 92 	calla	#37506		;0x09282
    9318:	b0 13 d4 8d 	calla	#36308		;0x08dd4
    931c:	0a 16       	popm.a	#1,	r10	;20-bit words
    931e:	10 01       	reta			;

00009320 <spiStart>:
    9320:	0a 14       	pushm.a	#1,	r10	;20-bit words
    9322:	08 14       	pushm.a	#1,	r8	;20-bit words
    9324:	ca 0c       	mova	r12,	r10	;
    9326:	c8 0d       	mova	r13,	r8	;
    9328:	9c 00 00 00 	cmpa	#0,	r12	;
    932c:	03 24       	jz	$+8      	;abs 0x9334
    932e:	9d 00 00 00 	cmpa	#0,	r13	;
    9332:	08 20       	jnz	$+18     	;abs 0x9344

00009334 <.L196>:
    9334:	b0 13 fe a1 	calla	#41470		;0x0a1fe
    9338:	81 18 f2 40 	movx.a	#66354,	&0x11a36;0x10332
    933c:	32 03 36 1a 

00009340 <.L198>:
    9340:	80 00 40 93 	mova	#37696,	r0	;0x09340

00009344 <.L197>:
    9344:	b0 13 fe a1 	calla	#41470		;0x0a1fe
    9348:	6c 4a       	mov.b	@r10,	r12	;
    934a:	7c 53       	add.b	#-1,	r12	;r3 As==11
    934c:	5d 43       	mov.b	#1,	r13	;r3 As==01
    934e:	4d 9c       	cmp.b	r12,	r13	;
    9350:	08 2c       	jc	$+18     	;abs 0x9362
    9352:	b0 13 fe a1 	calla	#41470		;0x0a1fe
    9356:	81 18 f2 40 	movx.a	#66354,	&0x11a36;0x10332
    935a:	32 03 36 1a 

0000935e <.L200>:
    935e:	80 00 5e 93 	mova	#37726,	r0	;0x0935e

00009362 <.L199>:
    9362:	7a 08 02 00 	mova	r8,	2(r10)	;
    9366:	9a 01 70 18 	cmpa	#71792,	r10	;0x11870
    936a:	3a 20       	jnz	$+118    	;abs 0x93e0
    936c:	1e 48 08 00 	mov	8(r8),	r14	;
    9370:	1f 48 0a 00 	mov	10(r8),	r15	;0x0000a
    9374:	3c 40 00 24 	mov	#9216,	r12	;#0x2400
    9378:	7d 40 f4 00 	mov.b	#244,	r13	;#0x00f4
    937c:	b0 13 fe b2 	calla	#45822		;0x0b2fe
    9380:	7d 40 80 00 	mov.b	#128,	r13	;#0x0080

00009384 <.L201>:
    9384:	3e 0a 0c 00 	mova	12(r10),r14	;0x0000c
    9388:	8e 4c 06 00 	mov	r12,	6(r14)	;
    938c:	5c 48 0e 00 	mov.b	14(r8),	r12	;0x0000e
    9390:	6c e3       	xor.b	#2,	r12	;r3 As==10
    9392:	0f 4c       	mov	r12,	r15	;
    9394:	4d 18 0f 5f 	rpt #14 { rlax.w	r15		;
    9398:	5c 48 0c 00 	mov.b	12(r8),	r12	;0x0000c
    939c:	4c 18 0c 5c 	rpt #13 { rlax.w	r12		;
    93a0:	5b 48 0d 00 	mov.b	13(r8),	r11	;0x0000d
    93a4:	4b 18 0b 5b 	rpt #12 { rlax.w	r11		;
    93a8:	0c db       	bis	r11,	r12	;
    93aa:	00 18 c8 93 	cmpx.a	#0,	4(r8)	;r3 As==00
    93ae:	04 00 
    93b0:	1b 20       	jnz	$+56     	;abs 0x93e8
    93b2:	38 40 00 04 	mov	#1024,	r8	;#0x0400

000093b6 <.L202>:
    93b6:	3c d0 02 09 	bis	#2306,	r12	;#0x0902
    93ba:	0c df       	bis	r15,	r12	;
    93bc:	0c dd       	bis	r13,	r12	;
    93be:	0c d8       	bis	r8,	r12	;
    93c0:	8e 4c 00 00 	mov	r12,	0(r14)	;
    93c4:	3c 0a 10 00 	mova	16(r10),r12	;0x00010
    93c8:	8c 43 00 00 	mov	#0,	0(r12)	;r3 As==00
    93cc:	cc 0a       	mova	r10,	r12	;
    93ce:	b0 13 06 8c 	calla	#35846		;0x08c06
    93d2:	ea 43 00 00 	mov.b	#2,	0(r10)	;r3 As==10
    93d6:	b0 13 f4 a1 	calla	#41460		;0x0a1f4
    93da:	08 16       	popm.a	#1,	r8	;20-bit words
    93dc:	0a 16       	popm.a	#1,	r10	;20-bit words
    93de:	10 01       	reta			;

000093e0 <.L203>:
    93e0:	4d 43       	clr.b	r13		;
    93e2:	0c 4d       	mov	r13,	r12	;
    93e4:	80 00 84 93 	mova	#37764,	r0	;0x09384

000093e8 <.L204>:
    93e8:	48 43       	clr.b	r8		;
    93ea:	80 00 b6 93 	mova	#37814,	r0	;0x093b6

000093ee <chSysInit>:
    93ee:	b1 00 14 00 	suba	#20,	r1	;0x00014
    93f2:	80 18 f1 40 	movx.a	#72250,	16(r1)	;0x11a3a, 0x00010
    93f6:	3a 1a 10 00 
    93fa:	80 18 f1 40 	movx.a	#66164,	12(r1)	;0x10274, 0x0000c
    93fe:	74 02 0c 00 
    9402:	80 00 c0 94 	mova	#38080,	r0	;0x094c0

00009406 <.L219>:
    9406:	3c 01 0c 00 	mova	12(r1),	r12	;0x0000c
    940a:	3c 0c 04 00 	mova	4(r12),	r12	;
    940e:	cd 0c       	mova	r12,	r13	;
    9410:	ad 0f e0 ff 	adda	#1048544,r13	;0xfffe0
    9414:	3c 01 10 00 	mova	16(r1),	r12	;0x00010
    9418:	7c 0d 00 00 	mova	r13,	0(r12)	;
    941c:	3c 01 10 00 	mova	16(r1),	r12	;0x00010
    9420:	0c 0c       	mova	@r12,	r12	;
    9422:	3d 01 0c 00 	mova	12(r1),	r13	;0x0000c
    9426:	3d 0d 0c 00 	mova	12(r13),r13	;0x0000c
    942a:	71 0d 08 00 	mova	r13,	8(r1)	;
    942e:	9c 41 08 00 	mov	8(r1),	0(r12)	;
    9432:	00 00 
    9434:	3e 01 08 00 	mova	8(r1),	r14	;
    9438:	0e 14       	pushm.a	#1,	r14	;20-bit words
    943a:	0d 17       	popm	#1,	r13	;16-bit words
    943c:	0d 17       	popm	#1,	r13	;16-bit words
    943e:	7d f0 0f 00 	and.b	#15,	r13	;#0x000f
    9442:	5e 4c 02 00 	mov.b	2(r12),	r14	;
    9446:	7e f0 f0 ff 	and.b	#65520,	r14	;#0xfff0
    944a:	4d de       	bis.b	r14,	r13	;
    944c:	cc 4d 02 00 	mov.b	r13,	2(r12)	;
    9450:	3c 01 10 00 	mova	16(r1),	r12	;0x00010
    9454:	0c 0c       	mova	@r12,	r12	;
    9456:	3d 01 0c 00 	mova	12(r1),	r13	;0x0000c
    945a:	3d 0d 10 00 	mova	16(r13),r13	;0x00010
    945e:	71 0d 04 00 	mova	r13,	4(r1)	;
    9462:	9c 41 04 00 	mov	4(r1),	4(r12)	;
    9466:	04 00 
    9468:	3e 01 04 00 	mova	4(r1),	r14	;
    946c:	0e 14       	pushm.a	#1,	r14	;20-bit words
    946e:	0d 17       	popm	#1,	r13	;16-bit words
    9470:	0d 17       	popm	#1,	r13	;16-bit words
    9472:	7d f0 0f 00 	and.b	#15,	r13	;#0x000f
    9476:	5e 4c 06 00 	mov.b	6(r12),	r14	;
    947a:	7e f0 f0 ff 	and.b	#65520,	r14	;#0xfff0
    947e:	4d de       	bis.b	r14,	r13	;
    9480:	cc 4d 06 00 	mov.b	r13,	6(r12)	;
    9484:	3c 01 10 00 	mova	16(r1),	r12	;0x00010
    9488:	0c 0c       	mova	@r12,	r12	;
    948a:	00 18 f1 40 	movx.a	#37012,	0(r1)	;0x09094
    948e:	94 90 00 00 
    9492:	ac 41 1c 00 	mov	@r1,	28(r12)	; 0x001c
    9496:	0e 01       	mova	@r1,	r14	;
    9498:	0e 14       	pushm.a	#1,	r14	;20-bit words
    949a:	0d 17       	popm	#1,	r13	;16-bit words
    949c:	0d 17       	popm	#1,	r13	;16-bit words
    949e:	7d f0 0f 00 	and.b	#15,	r13	;#0x000f
    94a2:	5e 4c 1e 00 	mov.b	30(r12),r14	;0x0001e
    94a6:	7e f0 f0 ff 	and.b	#65520,	r14	;#0xfff0
    94aa:	4d de       	bis.b	r14,	r13	;
    94ac:	cc 4d 1e 00 	mov.b	r13,	30(r12)	; 0x001e
    94b0:	00 18 f1 50 	addx.a	#16,	16(r1)	;0x00010, 0x00010
    94b4:	10 00 10 00 
    94b8:	00 18 f1 50 	addx.a	#20,	12(r1)	;0x00014, 0x0000c
    94bc:	14 00 0c 00 

000094c0 <.L218>:
    94c0:	80 18 f1 90 	cmpx.a	#72298,	16(r1)	;0x11a6a, 0x00010
    94c4:	6a 1a 10 00 
    94c8:	9e 2b       	jnc	$-194    	;abs 0x9406
    94ca:	b0 13 fe a1 	calla	#41470		;0x0a1fe
    94ce:	b0 13 ca 89 	calla	#35274		;0x089ca
    94d2:	b0 13 d2 89 	calla	#35282		;0x089d2
    94d6:	81 18 f2 40 	movx.a	#72250,	&0x11a30;0x11a3a
    94da:	3a 1a 30 1a 
    94de:	2c 01 30 1a 	mova	&72240,	r12	;0x11a30
    94e2:	61 0c 2c 1a 	mova	r12,	&72236	; 0x11a2c
    94e6:	2c 01 2c 1a 	mova	&72236,	r12	;0x11a2c
    94ea:	3d 01 10 00 	mova	16(r1),	r13	;0x00010
    94ee:	b0 13 be 89 	calla	#35262		;0x089be
    94f2:	b0 13 f4 a1 	calla	#41460		;0x0a1f4
    94f6:	a1 00 14 00 	adda	#20,	r1	;0x00014
    94fa:	10 01       	reta			;

000094fc <dmaReleaseX>:
    94fc:	0a 14       	pushm.a	#1,	r10	;20-bit words
    94fe:	08 14       	pushm.a	#1,	r8	;20-bit words
    9500:	c8 0c       	mova	r12,	r8	;
    9502:	0a 42       	mov	r2,	r10	;
    9504:	7a f2       	and.b	#8,	r10	;r2 As==11
    9506:	0a 93       	cmp	#0,	r10	;r3 As==00
    9508:	06 24       	jz	$+14     	;abs 0x9516
    950a:	41 18 c2 93 	cmpx.b	#0,	&0x1163e;r3 As==00
    950e:	3e 16 
    9510:	02 20       	jnz	$+6      	;abs 0x9516
    9512:	b0 13 fe a1 	calla	#41470		;0x0a1fe

00009516 <.L221>:
    9516:	98 00 00 00 	cmpa	#0,	r8	;
    951a:	08 20       	jnz	$+18     	;abs 0x952c
    951c:	b0 13 fe a1 	calla	#41470		;0x0a1fe
    9520:	81 18 f2 40 	movx.a	#66429,	&0x11a36;0x1037d
    9524:	7d 03 36 1a 

00009528 <.L223>:
    9528:	80 00 28 95 	mova	#38184,	r0	;0x09528

0000952c <.L222>:
    952c:	0c 08       	mova	@r8,	r12	;
    952e:	9c 00 00 00 	cmpa	#0,	r12	;
    9532:	25 24       	jz	$+76     	;abs 0x957e
    9534:	40 18 bc b0 	bitx.w	#16,	0(r12)	;0x00010
    9538:	10 00 00 00 
    953c:	20 24       	jz	$+66     	;abs 0x957e
    953e:	ac 43 00 00 	mov	#2,	0(r12)	;r3 As==10
    9542:	c0 18 1c 42 	movx.w	&0x1186e,r12	;
    9546:	6e 18 
    9548:	0c 93       	cmp	#0,	r12	;r3 As==00
    954a:	19 34       	jge	$+52     	;abs 0x957e
    954c:	8c 01 3a 1a 	mova	#72250,	r12	;0x11a3a

00009550 <.L229>:
    9550:	80 18 fc 90 	cmpx.a	#71790,	6(r12)	;0x1186e
    9554:	6e 18 06 00 
    9558:	1f 20       	jnz	$+64     	;abs 0x9598
    955a:	41 18 92 53 	incx.w	&0x1186e		;
    955e:	6e 18 
    9560:	fc 90 03 00 	cmp.b	#3,	4(r12)	;
    9564:	04 00 
    9566:	08 24       	jz	$+18     	;abs 0x9578
    9568:	b0 13 fe a1 	calla	#41470		;0x0a1fe
    956c:	81 18 f2 40 	movx.a	#66406,	&0x11a36;0x10366
    9570:	66 03 36 1a 

00009574 <.L227>:
    9574:	80 00 74 95 	mova	#38260,	r0	;0x09574

00009578 <.L226>:
    9578:	4d 43       	clr.b	r13		;
    957a:	b0 13 a8 91 	calla	#37288		;0x091a8

0000957e <.L228>:
    957e:	0a 93       	cmp	#0,	r10	;r3 As==00
    9580:	08 24       	jz	$+18     	;abs 0x9592
    9582:	41 18 c2 93 	cmpx.b	#0,	&0x1163e;r3 As==00
    9586:	3e 16 
    9588:	04 20       	jnz	$+10     	;abs 0x9592
    958a:	b0 13 d4 8d 	calla	#36308		;0x08dd4
    958e:	b0 13 f4 a1 	calla	#41460		;0x0a1f4

00009592 <.L220>:
    9592:	08 16       	popm.a	#1,	r8	;20-bit words
    9594:	0a 16       	popm.a	#1,	r10	;20-bit words
    9596:	10 01       	reta			;

00009598 <.L225>:
    9598:	ac 00 10 00 	adda	#16,	r12	;0x00010
    959c:	9c 01 6a 1a 	cmpa	#72298,	r12	;0x11a6a
    95a0:	d7 2b       	jnc	$-80     	;abs 0x9550
    95a2:	b0 13 fe a1 	calla	#41470		;0x0a1fe
    95a6:	81 18 f2 40 	movx.a	#66406,	&0x11a36;0x10366
    95aa:	66 03 36 1a 

000095ae <.L230>:
    95ae:	80 00 ae 95 	mova	#38318,	r0	;0x095ae

000095b2 <rx_cb.lto_priv.260>:
    95b2:	0a 14       	pushm.a	#1,	r10	;20-bit words
    95b4:	ca 0c       	mova	r12,	r10	;
    95b6:	ec 43 02 00 	mov.b	#2,	2(r12)	;r3 As==10
    95ba:	3e 0c 04 00 	mova	4(r12),	r14	;
    95be:	3e 0e 08 00 	mova	8(r14),	r14	;
    95c2:	9e 00 00 00 	cmpa	#0,	r14	;
    95c6:	01 24       	jz	$+4      	;abs 0x95ca
    95c8:	4e 13       	calla	r14		;

000095ca <.L245>:
    95ca:	ea 93 02 00 	cmp.b	#2,	2(r10)	;r3 As==10
    95ce:	06 20       	jnz	$+14     	;abs 0x95dc
    95d0:	ca 43 02 00 	mov.b	#0,	2(r10)	;r3 As==00
    95d4:	3c 0a 16 00 	mova	22(r10),r12	;0x00016
    95d8:	9c d3 1a 00 	bis	#1,	26(r12)	;r3 As==01, 0x001a

000095dc <.L246>:
    95dc:	cc 0a       	mova	r10,	r12	;
    95de:	ac 00 0a 00 	adda	#10,	r12	;0x0000a
    95e2:	b0 13 6c a8 	calla	#43116		;0x0a86c
    95e6:	ca 93 02 00 	cmp.b	#0,	2(r10)	;r3 As==00
    95ea:	0e 20       	jnz	$+30     	;abs 0x9608
    95ec:	3c 0a 04 00 	mova	4(r10),	r12	;
    95f0:	7d 40 2f 00 	mov.b	#47,	r13	;#0x002f
    95f4:	5d 9c 19 00 	cmp.b	25(r12),r13	;0x00019
    95f8:	07 2c       	jc	$+16     	;abs 0x9608
    95fa:	cc 0a       	mova	r10,	r12	;
    95fc:	ac 00 58 00 	adda	#88,	r12	;0x00058
    9600:	b0 13 fc 94 	calla	#38140		;0x094fc
    9604:	ca 43 63 00 	mov.b	#0,	99(r10)	;r3 As==00, 0x0063

00009608 <.L244>:
    9608:	0a 16       	popm.a	#1,	r10	;20-bit words
    960a:	10 01       	reta			;

0000960c <tx_cb.lto_priv.259>:
    960c:	0a 14       	pushm.a	#1,	r10	;20-bit words
    960e:	ca 0c       	mova	r12,	r10	;
    9610:	ec 43 01 00 	mov.b	#2,	1(r12)	;r3 As==10
    9614:	3e 0c 04 00 	mova	4(r12),	r14	;
    9618:	0e 0e       	mova	@r14,	r14	;
    961a:	9e 00 00 00 	cmpa	#0,	r14	;
    961e:	01 24       	jz	$+4      	;abs 0x9622
    9620:	4e 13       	calla	r14		;

00009622 <.L252>:
    9622:	ea 93 01 00 	cmp.b	#2,	1(r10)	;r3 As==10
    9626:	02 20       	jnz	$+6      	;abs 0x962c
    9628:	ca 43 01 00 	mov.b	#0,	1(r10)	;r3 As==00

0000962c <.L253>:
    962c:	ca 93 08 00 	cmp.b	#0,	8(r10)	;r3 As==00
    9630:	05 24       	jz	$+12     	;abs 0x963c
    9632:	cc 0a       	mova	r10,	r12	;
    9634:	ac 00 0e 00 	adda	#14,	r12	;0x0000e
    9638:	b0 13 6c a8 	calla	#43116		;0x0a86c

0000963c <.L254>:
    963c:	ca 93 01 00 	cmp.b	#0,	1(r10)	;r3 As==00
    9640:	1a 20       	jnz	$+54     	;abs 0x9676
    9642:	3c 0a 16 00 	mova	22(r10),r12	;0x00016

00009646 <.L257>:
    9646:	40 18 bc b2 	bitx.w	#8,	28(r12)	;r2 As==11, 0x0001c
    964a:	1c 00 
    964c:	fc 27       	jz	$-6      	;abs 0x9646
    964e:	bc c2 1c 00 	bic	#8,	28(r12)	;r2 As==11, 0x001c
    9652:	bc d2 1a 00 	bis	#8,	26(r12)	;r2 As==11, 0x001a
    9656:	3c 0a 04 00 	mova	4(r10),	r12	;
    965a:	5c 4c 19 00 	mov.b	25(r12),r12	;0x00019
    965e:	7c f0 0f 00 	and.b	#15,	r12	;#0x000f
    9662:	6d 43       	mov.b	#2,	r13	;r3 As==10
    9664:	0d 9c       	cmp	r12,	r13	;
    9666:	07 34       	jge	$+16     	;abs 0x9676
    9668:	cc 0a       	mova	r10,	r12	;
    966a:	ac 00 4e 00 	adda	#78,	r12	;0x0004e
    966e:	b0 13 fc 94 	calla	#38140		;0x094fc
    9672:	ca 43 62 00 	mov.b	#0,	98(r10)	;r3 As==00, 0x0062

00009676 <.L251>:
    9676:	0a 16       	popm.a	#1,	r10	;20-bit words
    9678:	10 01       	reta			;

0000967a <spi_lld_end_of_transfer.lto_priv.110>:
    967a:	0a 14       	pushm.a	#1,	r10	;20-bit words
    967c:	08 14       	pushm.a	#1,	r8	;20-bit words
    967e:	ca 0c       	mova	r12,	r10	;
    9680:	3e 0c 10 00 	mova	16(r12),r14	;0x00010
    9684:	ae c3 00 00 	bic	#2,	0(r14)	;r3 As==10
    9688:	3e 0c 02 00 	mova	2(r12),	r14	;
    968c:	0e 0e       	mova	@r14,	r14	;
    968e:	9e 00 00 00 	cmpa	#0,	r14	;
    9692:	06 24       	jz	$+14     	;abs 0x96a0
    9694:	ec 42 00 00 	mov.b	#4,	0(r12)	;r2 As==10
    9698:	4e 13       	calla	r14		;
    969a:	ea 92 00 00 	cmp.b	#4,	0(r10)	;r2 As==10
    969e:	02 20       	jnz	$+6      	;abs 0x96a4

000096a0 <.L265>:
    96a0:	ea 43 00 00 	mov.b	#2,	0(r10)	;r3 As==10

000096a4 <.L266>:
    96a4:	cc 0a       	mova	r10,	r12	;
    96a6:	ac 00 06 00 	adda	#6,	r12	;
    96aa:	b0 13 6c a8 	calla	#43116		;0x0a86c
    96ae:	ea 93 00 00 	cmp.b	#2,	0(r10)	;r3 As==10
    96b2:	0a 20       	jnz	$+22     	;abs 0x96c8
    96b4:	88 00 fc 94 	mova	#38140,	r8	;0x094fc
    96b8:	cc 0a       	mova	r10,	r12	;
    96ba:	ac 00 52 00 	adda	#82,	r12	;0x00052
    96be:	48 13       	calla	r8		;
    96c0:	cc 0a       	mova	r10,	r12	;
    96c2:	ac 00 48 00 	adda	#72,	r12	;0x00048
    96c6:	48 13       	calla	r8		;

000096c8 <.L264>:
    96c8:	08 16       	popm.a	#1,	r8	;20-bit words
    96ca:	0a 16       	popm.a	#1,	r10	;20-bit words
    96cc:	10 01       	reta			;

000096ce <chEvtWaitAnyTimeout>:
    96ce:	6a 14       	pushm.a	#7,	r10	;20-bit words
    96d0:	06 4c       	mov	r12,	r6	;
    96d2:	07 4d       	mov	r13,	r7	;
    96d4:	05 4e       	mov	r14,	r5	;
    96d6:	2a 01 2c 1a 	mova	&72236,	r10	;0x11a2c
    96da:	b0 13 fe a1 	calla	#41470		;0x0a1fe
    96de:	18 4a 0c 00 	mov	12(r10),r8	;0x0000c
    96e2:	08 f6       	and	r6,	r8	;
    96e4:	19 4a 0e 00 	mov	14(r10),r9	;0x0000e
    96e8:	09 f7       	and	r7,	r9	;
    96ea:	0c 48       	mov	r8,	r12	;
    96ec:	0c d9       	bis	r9,	r12	;
    96ee:	84 00 f4 a1 	mova	#41460,	r4	;0x0a1f4
    96f2:	0c 93       	cmp	#0,	r12	;r3 As==00
    96f4:	18 20       	jnz	$+50     	;abs 0x9726
    96f6:	35 93       	cmp	#-1,	r5	;r3 As==11
    96f8:	05 20       	jnz	$+12     	;abs 0x9704

000096fa <.L276>:
    96fa:	44 13       	calla	r4		;
    96fc:	0c 48       	mov	r8,	r12	;
    96fe:	0d 49       	mov	r9,	r13	;
    9700:	64 16       	popm.a	#7,	r10	;20-bit words
    9702:	10 01       	reta			;

00009704 <.L273>:
    9704:	8a 46 06 00 	mov	r6,	6(r10)	;
    9708:	8a 47 08 00 	mov	r7,	8(r10)	;
    970c:	0d 45       	mov	r5,	r13	;
    970e:	6c 42       	mov.b	#4,	r12	;r2 As==10
    9710:	b0 13 ec 90 	calla	#37100		;0x090ec
    9714:	9c 00 00 00 	cmpa	#0,	r12	;
    9718:	f0 3b       	jl	$-30     	;abs 0x96fa
    971a:	18 4a 0c 00 	mov	12(r10),r8	;0x0000c
    971e:	08 f6       	and	r6,	r8	;
    9720:	19 4a 0e 00 	mov	14(r10),r9	;0x0000e
    9724:	09 f7       	and	r7,	r9	;

00009726 <.L272>:
    9726:	8a c8 0c 00 	bic	r8,	12(r10)	; 0x000c
    972a:	8a c9 0e 00 	bic	r9,	14(r10)	; 0x000e
    972e:	80 00 fa 96 	mova	#38650,	r0	;0x096fa

00009732 <chEvtSignal>:
    9732:	19 14       	pushm.a	#2,	r9	;20-bit words
    9734:	b1 00 04 00 	suba	#4,	r1	;
    9738:	08 4d       	mov	r13,	r8	;
    973a:	09 4e       	mov	r14,	r9	;
    973c:	71 0c 00 00 	mova	r12,	0(r1)	;
    9740:	b0 13 fe a1 	calla	#41470		;0x0a1fe
    9744:	0d 48       	mov	r8,	r13	;
    9746:	0e 49       	mov	r9,	r14	;
    9748:	0c 01       	mova	@r1,	r12	;
    974a:	b0 13 3a 92 	calla	#37434		;0x0923a
    974e:	b0 13 d4 8d 	calla	#36308		;0x08dd4
    9752:	b0 13 f4 a1 	calla	#41460		;0x0a1f4
    9756:	a1 00 04 00 	adda	#4,	r1	;
    975a:	18 16       	popm.a	#2,	r9	;20-bit words
    975c:	10 01       	reta			;

0000975e <chThdSleep>:
    975e:	0a 14       	pushm.a	#1,	r10	;20-bit words
    9760:	0a 4c       	mov	r12,	r10	;
    9762:	b0 13 fe a1 	calla	#41470		;0x0a1fe
    9766:	0d 4a       	mov	r10,	r13	;
    9768:	5c 43       	mov.b	#1,	r12	;r3 As==01
    976a:	b0 13 ec 90 	calla	#37100		;0x090ec
    976e:	b0 13 f4 a1 	calla	#41460		;0x0a1f4
    9772:	0a 16       	popm.a	#1,	r10	;20-bit words
    9774:	10 01       	reta			;

00009776 <fram_mpool_alloc>:
    9776:	0a 14       	pushm.a	#1,	r10	;20-bit words
    9778:	2e 00 dc bb 	mova	&48092,	r14	;0x0bbdc
    977c:	ca 0e       	mova	r14,	r10	;
    977e:	ea 0c       	adda	r12,	r10	;
    9780:	7c 40 48 00 	mov.b	#72,	r12	;#0x0048
    9784:	dc 0a       	cmpa	r10,	r12	;
    9786:	07 28       	jnc	$+16     	;abs 0x9796
    9788:	cc 0e       	mova	r14,	r12	;
    978a:	ac 00 94 bb 	adda	#48020,	r12	;0x0bb94
    978e:	60 0a dc bb 	mova	r10,	&48092	; 0x0bbdc

00009792 <.L1>:
    9792:	0a 16       	popm.a	#1,	r10	;20-bit words
    9794:	10 01       	reta			;

00009796 <.L3>:
    9796:	4c 43       	clr.b	r12		;
    9798:	80 00 92 97 	mova	#38802,	r0	;0x09792

0000979c <write_cb>:
    979c:	1a 14       	pushm.a	#2,	r10	;20-bit words
    979e:	2c 01 16 1a 	mova	&72214,	r12	;0x11a16
    97a2:	3c 0c 22 00 	mova	34(r12),r12	;0x00022
    97a6:	ca 0c       	mova	r12,	r10	;
    97a8:	00 18 7a f0 	andx.a	#4095,	r10	;0x00fff
    97ac:	ff 0f 
    97ae:	19 4a 02 00 	mov	2(r10),	r9	;
    97b2:	0c 14       	pushm.a	#1,	r12	;20-bit words
    97b4:	40 18 3c 41 	popx.w	r12		;
    97b8:	40 18 3d 41 	popx.w	r13		;
    97bc:	b0 13 e0 b3 	calla	#46048		;0x0b3e0
    97c0:	0d 12       	push	r13		;
    97c2:	0c 12       	push	r12		;
    97c4:	0c 16       	popm.a	#1,	r12	;20-bit words
    97c6:	40 18 0d 4c 	movx.w	r12,	r13	;
    97ca:	5c 43       	mov.b	#1,	r12	;r3 As==01
    97cc:	b0 13 34 b3 	calla	#45876		;0x0b334
    97d0:	0c d9       	bis	r9,	r12	;
    97d2:	8a 4c 02 00 	mov	r12,	2(r10)	;
    97d6:	8a 00 3a 92 	mova	#37434,	r10	;0x0923a
    97da:	40 18 92 92 	cmpx.w	&0x0b6b4,&0x0b6b2;
    97de:	b4 b6 b2 b6 
    97e2:	12 20       	jnz	$+38     	;abs 0x9808
    97e4:	c0 1f b2 f0 	andx.w	#-4097,	&0x00222;0xfefff
    97e8:	ff ef 22 02 
    97ec:	40 18 a2 c2 	bicx.w	#4,	&0x0023a;r2 As==10
    97f0:	3a 02 
    97f2:	3d 40 00 20 	mov	#8192,	r13	;#0x2000
    97f6:	5e 43       	mov.b	#1,	r14	;r3 As==01
    97f8:	2c 01 76 19 	mova	&72054,	r12	;0x11976
    97fc:	4a 13       	calla	r10		;
    97fe:	40 18 82 43 	movx.w	#0,	&0x0b6b2;r3 As==00
    9802:	b2 b6 

00009804 <.L4>:
    9804:	19 16       	popm.a	#2,	r10	;20-bit words
    9806:	10 01       	reta			;

00009808 <.L5>:
    9808:	3d 40 00 20 	mov	#8192,	r13	;#0x2000
    980c:	4e 43       	clr.b	r14		;
    980e:	2c 01 76 19 	mova	&72054,	r12	;0x11976
    9812:	4a 13       	calla	r10		;
    9814:	80 00 04 98 	mova	#38916,	r0	;0x09804

00009818 <elyRFCfgMarkDirty>:
    9818:	0a 14       	pushm.a	#1,	r10	;20-bit words
    981a:	0e 4d       	mov	r13,	r14	;
    981c:	2a 01 76 19 	mova	&72054,	r10	;0x11976
    9820:	01 18 c2 9a 	cmpx.a	r10,	&0x11a2c;
    9824:	2c 1a 
    9826:	08 20       	jnz	$+18     	;abs 0x9838
    9828:	b0 13 fe a1 	calla	#41470		;0x0a1fe
    982c:	81 18 f2 40 	movx.a	#66751,	&0x11a36;0x104bf
    9830:	bf 04 36 1a 

00009834 <.L11>:
    9834:	80 00 34 98 	mova	#38964,	r0	;0x09834

00009838 <.L10>:
    9838:	3c b0 ff 03 	bit	#1023,	r12	;#0x03ff
    983c:	08 20       	jnz	$+18     	;abs 0x984e
    983e:	b0 13 fe a1 	calla	#41470		;0x0a1fe
    9842:	81 18 f2 40 	movx.a	#66751,	&0x11a36;0x104bf
    9846:	bf 04 36 1a 

0000984a <.L13>:
    984a:	80 00 4a 98 	mova	#38986,	r0	;0x0984a

0000984e <.L12>:
    984e:	0d 4c       	mov	r12,	r13	;
    9850:	cc 0a       	mova	r10,	r12	;
    9852:	b0 13 32 97 	calla	#38706		;0x09732
    9856:	0a 16       	popm.a	#1,	r10	;20-bit words
    9858:	10 01       	reta			;

0000985a <elyFramPostRequestI>:
    985a:	0a 14       	pushm.a	#1,	r10	;20-bit words
    985c:	b1 00 04 00 	suba	#4,	r1	;
    9860:	40 18 5e 42 	movx.b	&0x0bbf1,r14	;
    9864:	f1 bb 
    9866:	0d 4e       	mov	r14,	r13	;
    9868:	40 18 5a 42 	movx.b	&0x0bbf0,r10	;
    986c:	f0 bb 
    986e:	0d 8a       	sub	r10,	r13	;
    9870:	2d 92       	cmp	#4,	r13	;r2 As==10
    9872:	08 20       	jnz	$+18     	;abs 0x9884
    9874:	b0 13 fe a1 	calla	#41470		;0x0a1fe
    9878:	81 18 f2 40 	movx.a	#66731,	&0x11a36;0x104ab
    987c:	ab 04 36 1a 

00009880 <.L16>:
    9880:	80 00 80 98 	mova	#39040,	r0	;0x09880

00009884 <.L15>:
    9884:	4b 4e       	mov.b	r14,	r11	;
    9886:	5b 53       	inc.b	r11		;
    9888:	40 18 c2 4b 	movx.b	r11,	&0x0bbf1;
    988c:	f1 bb 
    988e:	7e f0 03 00 	and.b	#3,	r14	;
    9892:	0f 43       	clr	r15		;
    9894:	0a 4e       	mov	r14,	r10	;
    9896:	0b 4f       	mov	r15,	r11	;
    9898:	0a 5a       	rla	r10		;
    989a:	0b 6b       	rlc	r11		;
    989c:	0a 5a       	rla	r10		;
    989e:	0b 6b       	rlc	r11		;
    98a0:	81 4a 00 00 	mov	r10,	0(r1)	;
    98a4:	81 4b 02 00 	mov	r11,	2(r1)	;
    98a8:	0a 01       	mova	@r1,	r10	;
    98aa:	00 18 ca 4c 	movx.a	r12,	-17440(r10); 0xfbbe0
    98ae:	e0 bb 
    98b0:	a1 00 04 00 	adda	#4,	r1	;
    98b4:	0a 16       	popm.a	#1,	r10	;20-bit words
    98b6:	10 01       	reta			;

000098b8 <fram_handle_request>:
    98b8:	2a 14       	pushm.a	#3,	r10	;20-bit words
    98ba:	c8 0c       	mova	r12,	r8	;
    98bc:	2c 4c       	mov	@r12,	r12	;
    98be:	1d 48 02 00 	mov	2(r8),	r13	;
    98c2:	5e 43       	mov.b	#1,	r14	;r3 As==01
    98c4:	0e 9d       	cmp	r13,	r14	;
    98c6:	58 28       	jnc	$+178    	;abs 0x9978
    98c8:	60 08 ae e1 	mova	r8,	&57774	; 0x0e1ae
    98cc:	7e 40 10 00 	mov.b	#16,	r14	;#0x0010
    98d0:	b0 13 32 b4 	calla	#46130		;0x0b432
    98d4:	7c d0 50 00 	bis.b	#80,	r12	;#0x0050
    98d8:	49 4c       	mov.b	r12,	r9	;
    98da:	c8 4c 10 00 	mov.b	r12,	16(r8)	; 0x0010
    98de:	8a 01 34 19 	mova	#71988,	r10	;0x11934
    98e2:	41 18 e2 93 	cmpx.b	#2,	&0x11934;r3 As==10
    98e6:	34 19 
    98e8:	4f 20       	jnz	$+160    	;abs 0x9988
    98ea:	3c 0a 10 00 	mova	16(r10),r12	;0x00010
    98ee:	ac c3 2c 00 	bic	#2,	44(r12)	;r3 As==10, 0x002c
    98f2:	ac c3 2a 00 	bic	#2,	42(r12)	;r3 As==10, 0x002a
    98f6:	41 18 82 43 	movx.w	#0,	&0x1193a;r3 As==00
    98fa:	3a 19 
    98fc:	41 18 f2 40 	movx.b	#3,	&0x11934;
    9900:	03 00 34 19 
    9904:	7a 08 08 00 	mova	r8,	8(r10)	;
    9908:	a8 00 01 00 	adda	#1,	r8	;
    990c:	7a 08 14 00 	mova	r8,	20(r10)	; 0x00014
    9910:	ac 00 0e 00 	adda	#14,	r12	;0x0000e
    9914:	7a 0c 18 00 	mova	r12,	24(r10)	; 0x00018
    9918:	41 18 a2 43 	movx.w	#2,	&0x11950;r3 As==10
    991c:	50 19 
    991e:	41 18 b2 40 	movx.w	#512,	&0x11952;0x00200
    9922:	00 02 52 19 
    9926:	5c 4a 32 00 	mov.b	50(r10),r12	;0x00032
    992a:	8a 4c 24 00 	mov	r12,	36(r10)	; 0x0024
    992e:	01 18 f2 40 	movx.a	#39500,	&0x11940;0x09a4c
    9932:	4c 9a 40 19 
    9936:	01 18 f2 40 	movx.a	#35252,	&0x1195a;0x089b4
    993a:	b4 89 5a 19 
    993e:	3c 0a 34 00 	mova	52(r10),r12	;0x00034
    9942:	9c 00 00 00 	cmpa	#0,	r12	;
    9946:	04 24       	jz	$+10     	;abs 0x9950
    9948:	bc b0 10 00 	bit	#16,	0(r12)	;#0x0010
    994c:	00 00 
    994e:	04 20       	jnz	$+10     	;abs 0x9958

00009950 <.L23>:
    9950:	8c 01 68 19 	mova	#72040,	r12	;0x11968
    9954:	b0 13 d6 8c 	calla	#36054		;0x08cd6

00009958 <.L24>:
    9958:	8d 01 48 19 	mova	#72008,	r13	;0x11948
    995c:	cc 0d       	mova	r13,	r12	;
    995e:	ac 00 20 00 	adda	#32,	r12	;0x00020
    9962:	b0 13 86 8c 	calla	#35974		;0x08c86
    9966:	3c 0a 10 00 	mova	16(r10),r12	;0x00010
    996a:	8c 49 20 00 	mov	r9,	32(r12)	; 0x0020
    996e:	bc d0 12 00 	bis	#18,	0(r12)	;#0x0012
    9972:	00 00 
    9974:	28 16       	popm.a	#3,	r10	;20-bit words
    9976:	10 01       	reta			;

00009978 <.L25>:
    9978:	b0 13 fe a1 	calla	#41470		;0x0a1fe
    997c:	81 18 f2 40 	movx.a	#66711,	&0x11a36;0x10497
    9980:	97 04 36 1a 

00009984 <.L20>:
    9984:	80 00 84 99 	mova	#39300,	r0	;0x09984

00009988 <.L29>:
    9988:	b0 13 fe a1 	calla	#41470		;0x0a1fe
    998c:	81 18 f2 40 	movx.a	#66683,	&0x11a36;0x1047b
    9990:	7b 04 36 1a 

00009994 <.L22>:
    9994:	80 00 94 99 	mova	#39316,	r0	;0x09994

00009998 <elyFramPostRequestS>:
    9998:	0a 14       	pushm.a	#1,	r10	;20-bit words
    999a:	ca 0c       	mova	r12,	r10	;
    999c:	8e 00 5a 98 	mova	#39002,	r14	;0x0985a
    99a0:	40 18 d2 92 	cmpx.b	&0x0bbf0,&0x0bbf1;
    99a4:	f0 bb f1 bb 
    99a8:	06 20       	jnz	$+14     	;abs 0x99b6
    99aa:	4e 13       	calla	r14		;
    99ac:	cc 0a       	mova	r10,	r12	;
    99ae:	b0 13 b8 98 	calla	#39096		;0x098b8

000099b2 <.L30>:
    99b2:	0a 16       	popm.a	#1,	r10	;20-bit words
    99b4:	10 01       	reta			;

000099b6 <.L31>:
    99b6:	4e 13       	calla	r14		;
    99b8:	80 00 b2 99 	mova	#39346,	r0	;0x099b2

000099bc <end_cb>:
    99bc:	0a 14       	pushm.a	#1,	r10	;20-bit words
    99be:	b1 00 04 00 	suba	#4,	r1	;
    99c2:	ca 0d       	mova	r13,	r10	;
    99c4:	b0 13 e4 8d 	calla	#36324		;0x08de4
    99c8:	40 18 d2 53 	incx.b	&0xbbf0		;
    99cc:	f0 bb 
    99ce:	2c 00 ae e1 	mova	&57774,	r12	;0x0e1ae
    99d2:	9c 00 00 00 	cmpa	#0,	r12	;
    99d6:	08 20       	jnz	$+18     	;abs 0x99e8
    99d8:	b0 13 fe a1 	calla	#41470		;0x0a1fe
    99dc:	81 18 f2 40 	movx.a	#66769,	&0x11a36;0x104d1
    99e0:	d1 04 36 1a 

000099e4 <.L35>:
    99e4:	80 00 e4 99 	mova	#39396,	r0	;0x099e4

000099e8 <.L34>:
    99e8:	8e 00 8c dd 	mova	#56716,	r14	;0x0dd8c
    99ec:	00 18 ec 4e 	movx.a	@r14,	0(r12)	;
    99f0:	00 00 
    99f2:	7e 0c 00 00 	mova	r12,	0(r14)	;
    99f6:	8c 00 98 dd 	mova	#56728,	r12	;0x0dd98
    99fa:	b0 13 82 92 	calla	#37506		;0x09282
    99fe:	2c 00 ae e1 	mova	&57774,	r12	;0x0e1ae
    9a02:	3e 0c 0c 00 	mova	12(r12),r14	;0x0000c
    9a06:	9e 00 00 00 	cmpa	#0,	r14	;
    9a0a:	02 24       	jz	$+6      	;abs 0x9a10
    9a0c:	cc 0a       	mova	r10,	r12	;
    9a0e:	4e 13       	calla	r14		;

00009a10 <.L36>:
    9a10:	40 18 5c 42 	movx.b	&0x0bbf0,r12	;
    9a14:	f0 bb 
    9a16:	40 18 c2 9c 	cmpx.b	r12,	&0x0bbf1;
    9a1a:	f1 bb 
    9a1c:	13 24       	jz	$+40     	;abs 0x9a44
    9a1e:	7c f0 03 00 	and.b	#3,	r12	;
    9a22:	0d 43       	clr	r13		;
    9a24:	0e 4c       	mov	r12,	r14	;
    9a26:	0f 4d       	mov	r13,	r15	;
    9a28:	0e 5e       	rla	r14		;
    9a2a:	0f 6f       	rlc	r15		;
    9a2c:	0e 5e       	rla	r14		;
    9a2e:	0f 6f       	rlc	r15		;
    9a30:	81 4e 00 00 	mov	r14,	0(r1)	;
    9a34:	81 4f 02 00 	mov	r15,	2(r1)	;
    9a38:	0d 01       	mova	@r1,	r13	;
    9a3a:	00 18 5c 4d 	movx.a	48096(r13),r12	;0x0bbe0
    9a3e:	e0 bb 
    9a40:	b0 13 b8 98 	calla	#39096		;0x098b8

00009a44 <.L33>:
    9a44:	a1 00 04 00 	adda	#4,	r1	;
    9a48:	0a 16       	popm.a	#1,	r10	;20-bit words
    9a4a:	10 01       	reta			;

00009a4c <addr_cb>:
    9a4c:	2a 14       	pushm.a	#3,	r10	;20-bit words
    9a4e:	b1 00 04 00 	suba	#4,	r1	;
    9a52:	ca 0c       	mova	r12,	r10	;
    9a54:	28 00 ae e1 	mova	&57774,	r8	;0x0e1ae
    9a58:	5d 48 04 00 	mov.b	4(r8),	r13	;
    9a5c:	4c 4d       	mov.b	r13,	r12	;
    9a5e:	5c f3       	and.b	#1,	r12	;r3 As==01
    9a60:	59 48 06 00 	mov.b	6(r8),	r9	;
    9a64:	40 18 2d b3 	bitx.w	#2,	r13	;r3 As==10
    9a68:	de 24       	jz	$+446    	;abs 0x9c26
    9a6a:	4c 93       	cmp.b	#0,	r12	;r3 As==00
    9a6c:	87 24       	jz	$+272    	;abs 0x9b7c
    9a6e:	1c 48 04 00 	mov	4(r8),	r12	;
    9a72:	b0 13 b8 b3 	calla	#46008		;0x0b3b8
    9a76:	0d 49       	mov	r9,	r13	;
    9a78:	4d 18 0d 5d 	rpt #14 { rlax.w	r13		;
    9a7c:	0d dc       	bis	r12,	r13	;
    9a7e:	81 4d 00 00 	mov	r13,	0(r1)	;
    9a82:	59 07       	rrum	#2,	r9	;
    9a84:	59 f3       	and.b	#1,	r9	;r3 As==01
    9a86:	81 49 02 00 	mov	r9,	2(r1)	;
    9a8a:	00 18 c1 93 	cmpx.a	#0,	0(r1)	;r3 As==00
    9a8e:	00 00 
    9a90:	08 20       	jnz	$+18     	;abs 0x9aa2
    9a92:	b0 13 fe a1 	calla	#41470		;0x0a1fe
    9a96:	81 18 f2 40 	movx.a	#66568,	&0x11a36;0x10408
    9a9a:	08 04 36 1a 

00009a9e <.L44>:
    9a9e:	80 00 9e 9a 	mova	#39582,	r0	;0x09a9e

00009aa2 <.L43>:
    9aa2:	59 48 10 00 	mov.b	16(r8),	r9	;0x00010
    9aa6:	49 93       	cmp.b	#0,	r9	;r3 As==00
    9aa8:	08 34       	jge	$+18     	;abs 0x9aba
    9aaa:	b0 13 fe a1 	calla	#41470		;0x0a1fe
    9aae:	81 18 f2 40 	movx.a	#66568,	&0x11a36;0x10408
    9ab2:	08 04 36 1a 

00009ab6 <.L46>:
    9ab6:	80 00 b6 9a 	mova	#39606,	r0	;0x09ab6

00009aba <.L45>:
    9aba:	38 08 08 00 	mova	8(r8),	r8	;
    9abe:	8a 43 06 00 	mov	#0,	6(r10)	;r3 As==00
    9ac2:	ea 42 00 00 	mov.b	#4,	0(r10)	;r2 As==10
    9ac6:	7a 08 08 00 	mova	r8,	8(r10)	;
    9aca:	00 18 d1 93 	cmpx.a	#1,	0(r1)	;r3 As==01
    9ace:	00 00 
    9ad0:	17 20       	jnz	$+48     	;abs 0x9b00
    9ad2:	7a 08 18 00 	mova	r8,	24(r10)	; 0x00018
    9ad6:	8a 43 1c 00 	mov	#0,	28(r10)	;r3 As==00, 0x001c
    9ada:	3c 0a 10 00 	mova	16(r10),r12	;0x00010
    9ade:	bc f0 ef ff 	and	#65519,	0(r12)	;#0xffef
    9ae2:	00 00 
    9ae4:	ac d3 00 00 	bis	#2,	0(r12)	;r3 As==10

00009ae8 <.L48>:
    9ae8:	ac b3 00 00 	bit	#2,	0(r12)	;r3 As==10
    9aec:	fd 23       	jnz	$-4      	;abs 0x9ae8

00009aee <.L89>:
    9aee:	5e 43       	mov.b	#1,	r14	;r3 As==01
    9af0:	cd 08       	mova	r8,	r13	;
    9af2:	cc 0a       	mova	r10,	r12	;
    9af4:	b0 13 bc 99 	calla	#39356		;0x099bc

00009af8 <.L40>:
    9af8:	a1 00 04 00 	adda	#4,	r1	;
    9afc:	28 16       	popm.a	#3,	r10	;20-bit words
    9afe:	10 01       	reta			;

00009b00 <.L47>:
    9b00:	3c 0a 10 00 	mova	16(r10),r12	;0x00010
    9b04:	ac 00 0c 00 	adda	#12,	r12	;0x0000c
    9b08:	7a 0c 14 00 	mova	r12,	20(r10)	; 0x00014
    9b0c:	7a 08 18 00 	mova	r8,	24(r10)	; 0x00018
    9b10:	0d 01       	mova	@r1,	r13	;
    9b12:	40 18 0c 4d 	movx.w	r13,	r12	;
    9b16:	3c 53       	add	#-1,	r12	;r3 As==11
    9b18:	8a 4c 1c 00 	mov	r12,	28(r10)	; 0x001c
    9b1c:	8a 43 1e 00 	mov	#0,	30(r10)	;r3 As==00, 0x001e

00009b20 <.L93>:
    9b20:	5c 4a 33 00 	mov.b	51(r10),r12	;0x00033
    9b24:	8a 4c 24 00 	mov	r12,	36(r10)	; 0x0024
    9b28:	00 18 fa 40 	movx.a	#39356,	12(r10)	;0x099bc, 0x0000c
    9b2c:	bc 99 0c 00 
    9b30:	00 18 fa 40 	movx.a	#36478,	38(r10)	;0x08e7e, 0x00026
    9b34:	7e 8e 26 00 
    9b38:	7a 0a 2a 00 	mova	r10,	42(r10)	; 0x0002a
    9b3c:	c8 0a       	mova	r10,	r8	;
    9b3e:	a8 00 34 00 	adda	#52,	r8	;0x00034
    9b42:	3c 0a 34 00 	mova	52(r10),r12	;0x00034
    9b46:	9c 00 00 00 	cmpa	#0,	r12	;
    9b4a:	04 24       	jz	$+10     	;abs 0x9b54
    9b4c:	bc b0 10 00 	bit	#16,	0(r12)	;#0x0010
    9b50:	00 00 
    9b52:	03 20       	jnz	$+8      	;abs 0x9b5a

00009b54 <.L58>:
    9b54:	cc 08       	mova	r8,	r12	;
    9b56:	b0 13 d6 8c 	calla	#36054		;0x08cd6

00009b5a <.L59>:
    9b5a:	cd 0a       	mova	r10,	r13	;
    9b5c:	ad 00 14 00 	adda	#20,	r13	;0x00014
    9b60:	cc 08       	mova	r8,	r12	;
    9b62:	b0 13 86 8c 	calla	#35974		;0x08c86
    9b66:	3c 0a 10 00 	mova	16(r10),r12	;0x00010
    9b6a:	8c 49 20 00 	mov	r9,	32(r12)	; 0x0020
    9b6e:	bc f0 ef ff 	and	#65519,	0(r12)	;#0xffef
    9b72:	00 00 
    9b74:	ac d3 00 00 	bis	#2,	0(r12)	;r3 As==10
    9b78:	80 00 f8 9a 	mova	#39672,	r0	;0x09af8

00009b7c <.L42>:
    9b7c:	1c 48 04 00 	mov	4(r8),	r12	;
    9b80:	b0 13 b8 b3 	calla	#46008		;0x0b3b8
    9b84:	0d 49       	mov	r9,	r13	;
    9b86:	4d 18 0d 5d 	rpt #14 { rlax.w	r13		;
    9b8a:	0d dc       	bis	r12,	r13	;
    9b8c:	81 4d 00 00 	mov	r13,	0(r1)	;
    9b90:	59 07       	rrum	#2,	r9	;
    9b92:	59 f3       	and.b	#1,	r9	;r3 As==01
    9b94:	81 49 02 00 	mov	r9,	2(r1)	;
    9b98:	00 18 c1 93 	cmpx.a	#0,	0(r1)	;r3 As==00
    9b9c:	00 00 
    9b9e:	08 20       	jnz	$+18     	;abs 0x9bb0
    9ba0:	b0 13 fe a1 	calla	#41470		;0x0a1fe
    9ba4:	81 18 f2 40 	movx.a	#66597,	&0x11a36;0x10425
    9ba8:	25 04 36 1a 

00009bac <.L53>:
    9bac:	80 00 ac 9b 	mova	#39852,	r0	;0x09bac

00009bb0 <.L52>:
    9bb0:	59 48 10 00 	mov.b	16(r8),	r9	;0x00010
    9bb4:	49 93       	cmp.b	#0,	r9	;r3 As==00
    9bb6:	08 34       	jge	$+18     	;abs 0x9bc8
    9bb8:	b0 13 fe a1 	calla	#41470		;0x0a1fe
    9bbc:	81 18 f2 40 	movx.a	#66597,	&0x11a36;0x10425
    9bc0:	25 04 36 1a 

00009bc4 <.L55>:
    9bc4:	80 00 c4 9b 	mova	#39876,	r0	;0x09bc4

00009bc8 <.L54>:
    9bc8:	38 08 08 00 	mova	8(r8),	r8	;
    9bcc:	8a 43 06 00 	mov	#0,	6(r10)	;r3 As==00
    9bd0:	ea 42 00 00 	mov.b	#4,	0(r10)	;r2 As==10
    9bd4:	7a 08 08 00 	mova	r8,	8(r10)	;
    9bd8:	00 18 d1 93 	cmpx.a	#1,	0(r1)	;r3 As==01
    9bdc:	00 00 
    9bde:	10 20       	jnz	$+34     	;abs 0x9c00
    9be0:	7a 08 18 00 	mova	r8,	24(r10)	; 0x00018
    9be4:	8a 43 1c 00 	mov	#0,	28(r10)	;r3 As==00, 0x001c
    9be8:	3c 0a 10 00 	mova	16(r10),r12	;0x00010
    9bec:	bc f0 ef ff 	and	#65519,	0(r12)	;#0xffef
    9bf0:	00 00 
    9bf2:	ac d3 00 00 	bis	#2,	0(r12)	;r3 As==10

00009bf6 <.L57>:
    9bf6:	ac b3 00 00 	bit	#2,	0(r12)	;r3 As==10
    9bfa:	fd 23       	jnz	$-4      	;abs 0x9bf6
    9bfc:	80 00 ee 9a 	mova	#39662,	r0	;0x09aee

00009c00 <.L56>:
    9c00:	3d 0a 10 00 	mova	16(r10),r13	;0x00010
    9c04:	ad 00 0c 00 	adda	#12,	r13	;0x0000c
    9c08:	7a 0d 14 00 	mova	r13,	20(r10)	; 0x00014
    9c0c:	7a 08 18 00 	mova	r8,	24(r10)	; 0x00018
    9c10:	0d 01       	mova	@r1,	r13	;
    9c12:	40 18 0c 4d 	movx.w	r13,	r12	;
    9c16:	3c 53       	add	#-1,	r12	;r3 As==11
    9c18:	8a 4c 1c 00 	mov	r12,	28(r10)	; 0x001c
    9c1c:	ba 40 00 0c 	mov	#3072,	30(r10)	;#0x0c00, 0x001e
    9c20:	1e 00 
    9c22:	80 00 20 9b 	mova	#39712,	r0	;0x09b20

00009c26 <.L41>:
    9c26:	4c 93       	cmp.b	#0,	r12	;r3 As==00
    9c28:	6e 24       	jz	$+222    	;abs 0x9d06
    9c2a:	1c 48 04 00 	mov	4(r8),	r12	;
    9c2e:	b0 13 b8 b3 	calla	#46008		;0x0b3b8
    9c32:	0d 49       	mov	r9,	r13	;
    9c34:	4d 18 0d 5d 	rpt #14 { rlax.w	r13		;
    9c38:	0d dc       	bis	r12,	r13	;
    9c3a:	81 4d 00 00 	mov	r13,	0(r1)	;
    9c3e:	59 07       	rrum	#2,	r9	;
    9c40:	59 f3       	and.b	#1,	r9	;r3 As==01
    9c42:	81 49 02 00 	mov	r9,	2(r1)	;
    9c46:	fa 90 03 00 	cmp.b	#3,	0(r10)	;
    9c4a:	00 00 
    9c4c:	08 24       	jz	$+18     	;abs 0x9c5e
    9c4e:	b0 13 fe a1 	calla	#41470		;0x0a1fe
    9c52:	81 18 f2 40 	movx.a	#66621,	&0x11a36;0x1043d
    9c56:	3d 04 36 1a 

00009c5a <.L62>:
    9c5a:	80 00 5a 9c 	mova	#40026,	r0	;0x09c5a

00009c5e <.L61>:
    9c5e:	00 18 c1 93 	cmpx.a	#0,	0(r1)	;r3 As==00
    9c62:	00 00 
    9c64:	08 20       	jnz	$+18     	;abs 0x9c76
    9c66:	b0 13 fe a1 	calla	#41470		;0x0a1fe
    9c6a:	81 18 f2 40 	movx.a	#66621,	&0x11a36;0x1043d
    9c6e:	3d 04 36 1a 

00009c72 <.L64>:
    9c72:	80 00 72 9c 	mova	#40050,	r0	;0x09c72

00009c76 <.L63>:
    9c76:	c8 93 10 00 	cmp.b	#0,	16(r8)	;r3 As==00, 0x0010
    9c7a:	08 34       	jge	$+18     	;abs 0x9c8c
    9c7c:	b0 13 fe a1 	calla	#41470		;0x0a1fe
    9c80:	81 18 f2 40 	movx.a	#66621,	&0x11a36;0x1043d
    9c84:	3d 04 36 1a 

00009c88 <.L66>:
    9c88:	80 00 88 9c 	mova	#40072,	r0	;0x09c88

00009c8c <.L65>:
    9c8c:	3c 08 08 00 	mova	8(r8),	r12	;
    9c90:	7a 0c 08 00 	mova	r12,	8(r10)	;
    9c94:	7a 0c 14 00 	mova	r12,	20(r10)	; 0x00014
    9c98:	3d 0a 10 00 	mova	16(r10),r13	;0x00010
    9c9c:	ad 00 0e 00 	adda	#14,	r13	;0x0000e
    9ca0:	7a 0d 18 00 	mova	r13,	24(r10)	; 0x00018
    9ca4:	0c 01       	mova	@r1,	r12	;
    9ca6:	40 18 8a 4c 	movx.w	r12,	28(r10)	; 0x0001c
    9caa:	1c 00 
    9cac:	8a 43 1e 00 	mov	#0,	30(r10)	;r3 As==00, 0x001e
    9cb0:	5d 4a 32 00 	mov.b	50(r10),r13	;0x00032
    9cb4:	8a 4d 24 00 	mov	r13,	36(r10)	; 0x0024
    9cb8:	00 18 fa 40 	movx.a	#39356,	12(r10)	;0x099bc, 0x0000c
    9cbc:	bc 99 0c 00 
    9cc0:	00 18 fa 40 	movx.a	#35252,	38(r10)	;0x089b4, 0x00026
    9cc4:	b4 89 26 00 
    9cc8:	cc 0a       	mova	r10,	r12	;
    9cca:	ac 00 34 00 	adda	#52,	r12	;0x00034
    9cce:	3e 0a 34 00 	mova	52(r10),r14	;0x00034
    9cd2:	9e 00 00 00 	cmpa	#0,	r14	;
    9cd6:	04 24       	jz	$+10     	;abs 0x9ce0
    9cd8:	be b0 10 00 	bit	#16,	0(r14)	;#0x0010
    9cdc:	00 00 
    9cde:	08 20       	jnz	$+18     	;abs 0x9cf0

00009ce0 <.L67>:
    9ce0:	b0 13 fe a1 	calla	#41470		;0x0a1fe
    9ce4:	81 18 f2 40 	movx.a	#66621,	&0x11a36;0x1043d
    9ce8:	3d 04 36 1a 

00009cec <.L69>:
    9cec:	80 00 ec 9c 	mova	#40172,	r0	;0x09cec

00009cf0 <.L68>:
    9cf0:	cd 0a       	mova	r10,	r13	;
    9cf2:	ad 00 14 00 	adda	#20,	r13	;0x00014

00009cf6 <.L90>:
    9cf6:	b0 13 86 8c 	calla	#35974		;0x08c86
    9cfa:	3c 0a 10 00 	mova	16(r10),r12	;0x00010
    9cfe:	ac d3 2c 00 	bis	#2,	44(r12)	;r3 As==10, 0x002c
    9d02:	80 00 f8 9a 	mova	#39672,	r0	;0x09af8

00009d06 <.L60>:
    9d06:	1c 48 04 00 	mov	4(r8),	r12	;
    9d0a:	b0 13 b8 b3 	calla	#46008		;0x0b3b8
    9d0e:	0d 49       	mov	r9,	r13	;
    9d10:	4d 18 0d 5d 	rpt #14 { rlax.w	r13		;
    9d14:	0d dc       	bis	r12,	r13	;
    9d16:	81 4d 00 00 	mov	r13,	0(r1)	;
    9d1a:	59 07       	rrum	#2,	r9	;
    9d1c:	59 f3       	and.b	#1,	r9	;r3 As==01
    9d1e:	81 49 02 00 	mov	r9,	2(r1)	;
    9d22:	fa 90 03 00 	cmp.b	#3,	0(r10)	;
    9d26:	00 00 
    9d28:	08 24       	jz	$+18     	;abs 0x9d3a
    9d2a:	b0 13 fe a1 	calla	#41470		;0x0a1fe
    9d2e:	81 18 f2 40 	movx.a	#66655,	&0x11a36;0x1045f
    9d32:	5f 04 36 1a 

00009d36 <.L71>:
    9d36:	80 00 36 9d 	mova	#40246,	r0	;0x09d36

00009d3a <.L70>:
    9d3a:	00 18 c1 93 	cmpx.a	#0,	0(r1)	;r3 As==00
    9d3e:	00 00 
    9d40:	08 20       	jnz	$+18     	;abs 0x9d52
    9d42:	b0 13 fe a1 	calla	#41470		;0x0a1fe
    9d46:	81 18 f2 40 	movx.a	#66655,	&0x11a36;0x1045f
    9d4a:	5f 04 36 1a 

00009d4e <.L73>:
    9d4e:	80 00 4e 9d 	mova	#40270,	r0	;0x09d4e

00009d52 <.L72>:
    9d52:	c8 93 10 00 	cmp.b	#0,	16(r8)	;r3 As==00, 0x0010
    9d56:	08 34       	jge	$+18     	;abs 0x9d68
    9d58:	b0 13 fe a1 	calla	#41470		;0x0a1fe
    9d5c:	81 18 f2 40 	movx.a	#66655,	&0x11a36;0x1045f
    9d60:	5f 04 36 1a 

00009d64 <.L75>:
    9d64:	80 00 64 9d 	mova	#40292,	r0	;0x09d64

00009d68 <.L74>:
    9d68:	3c 08 08 00 	mova	8(r8),	r12	;
    9d6c:	7a 0c 08 00 	mova	r12,	8(r10)	;
    9d70:	7a 0c 14 00 	mova	r12,	20(r10)	; 0x00014
    9d74:	3c 0a 10 00 	mova	16(r10),r12	;0x00010
    9d78:	ac 00 0e 00 	adda	#14,	r12	;0x0000e
    9d7c:	7a 0c 18 00 	mova	r12,	24(r10)	; 0x00018
    9d80:	0c 01       	mova	@r1,	r12	;
    9d82:	40 18 8a 4c 	movx.w	r12,	28(r10)	; 0x0001c
    9d86:	1c 00 
    9d88:	ba 40 00 03 	mov	#768,	30(r10)	;#0x0300, 0x001e
    9d8c:	1e 00 
    9d8e:	5d 4a 32 00 	mov.b	50(r10),r13	;0x00032
    9d92:	8a 4d 24 00 	mov	r13,	36(r10)	; 0x0024
    9d96:	00 18 fa 40 	movx.a	#39356,	12(r10)	;0x099bc, 0x0000c
    9d9a:	bc 99 0c 00 
    9d9e:	00 18 fa 40 	movx.a	#35252,	38(r10)	;0x089b4, 0x00026
    9da2:	b4 89 26 00 
    9da6:	3c 0a 34 00 	mova	52(r10),r12	;0x00034
    9daa:	9c 00 00 00 	cmpa	#0,	r12	;
    9dae:	04 24       	jz	$+10     	;abs 0x9db8
    9db0:	bc b0 10 00 	bit	#16,	0(r12)	;#0x0010
    9db4:	00 00 
    9db6:	08 20       	jnz	$+18     	;abs 0x9dc8

00009db8 <.L76>:
    9db8:	b0 13 fe a1 	calla	#41470		;0x0a1fe
    9dbc:	81 18 f2 40 	movx.a	#66655,	&0x11a36;0x1045f
    9dc0:	5f 04 36 1a 

00009dc4 <.L78>:
    9dc4:	80 00 c4 9d 	mova	#40388,	r0	;0x09dc4

00009dc8 <.L77>:
    9dc8:	cd 0a       	mova	r10,	r13	;
    9dca:	ad 00 14 00 	adda	#20,	r13	;0x00014
    9dce:	cc 0a       	mova	r10,	r12	;
    9dd0:	ac 00 34 00 	adda	#52,	r12	;0x00034
    9dd4:	80 00 f6 9c 	mova	#40182,	r0	;0x09cf6

00009dd8 <crcGenX25>:
    9dd8:	0a 14       	pushm.a	#1,	r10	;20-bit words
    9dda:	08 14       	pushm.a	#1,	r8	;20-bit words
    9ddc:	41 18 c2 93 	cmpx.b	#0,	&0x11868;r3 As==00
    9de0:	68 18 
    9de2:	08 24       	jz	$+18     	;abs 0x9df4
    9de4:	b0 13 fe a1 	calla	#41470		;0x0a1fe
    9de8:	81 18 f2 40 	movx.a	#66558,	&0x11a36;0x103fe
    9dec:	fe 03 36 1a 

00009df0 <.L96>:
    9df0:	80 00 f0 9d 	mova	#40432,	r0	;0x09df0

00009df4 <.L95>:
    9df4:	5e 43       	mov.b	#1,	r14	;r3 As==01
    9df6:	de 0d       	cmpa	r13,	r14	;
    9df8:	08 28       	jnc	$+18     	;abs 0x9e0a
    9dfa:	b0 13 fe a1 	calla	#41470		;0x0a1fe
    9dfe:	81 18 f2 40 	movx.a	#66558,	&0x11a36;0x103fe
    9e02:	fe 03 36 1a 

00009e06 <.L98>:
    9e06:	80 00 06 9e 	mova	#40454,	r0	;0x09e06

00009e0a <.L97>:
    9e0a:	40 18 b2 43 	movx.w	#-1,	&0x00154;r3 As==11
    9e0e:	54 01 
    9e10:	ca 0c       	mova	r12,	r10	;
    9e12:	ce 0d       	mova	r13,	r14	;
    9e14:	ae 0f fe ff 	adda	#1048574,r14	;0xffffe

00009e18 <.L99>:
    9e18:	00 18 48 4a 	movx.a	r10,	r8	;
    9e1c:	00 18 48 8c 	subx.a	r12,	r8	;
    9e20:	d8 0e       	cmpa	r14,	r8	;
    9e22:	11 28       	jnc	$+36     	;abs 0x9e46
    9e24:	ee 0c       	adda	r12,	r14	;
    9e26:	40 18 5f 42 	movx.b	&0x00157,r15	;
    9e2a:	57 01 
    9e2c:	7f e3       	xor.b	#-1,	r15	;r3 As==11
    9e2e:	ce 4f 00 00 	mov.b	r15,	0(r14)	;
    9e32:	ec 0d       	adda	r13,	r12	;
    9e34:	40 18 5d 42 	movx.b	&0x00156,r13	;
    9e38:	56 01 
    9e3a:	7d e3       	xor.b	#-1,	r13	;r3 As==11
    9e3c:	cc 4d ff ff 	mov.b	r13,	-1(r12)	; 0xffff
    9e40:	08 16       	popm.a	#1,	r8	;20-bit words
    9e42:	0a 16       	popm.a	#1,	r10	;20-bit words
    9e44:	10 01       	reta			;

00009e46 <.L100>:
    9e46:	40 18 e2 4a 	movx.b	@r10,	&0x00150;
    9e4a:	50 01 
    9e4c:	aa 00 01 00 	adda	#1,	r10	;
    9e50:	80 00 18 9e 	mova	#40472,	r0	;0x09e18

00009e54 <elyUARTDLLRxCB>:
    9e54:	0a 14       	pushm.a	#1,	r10	;20-bit words
    9e56:	08 14       	pushm.a	#1,	r8	;20-bit words
    9e58:	ca 0c       	mova	r12,	r10	;
    9e5a:	8e 01 64 16 	mova	#71268,	r14	;0x11664
    9e5e:	1c 4e 00 02 	mov	512(r14),r12	;0x00200
    9e62:	0d 4c       	mov	r12,	r13	;
    9e64:	1d 53       	inc	r13		;
    9e66:	8e 4d 00 02 	mov	r13,	512(r14); 0x0200
    9e6a:	5c f3       	and.b	#1,	r12	;r3 As==01
    9e6c:	0d 43       	clr	r13		;
    9e6e:	b0 13 56 b3 	calla	#45910		;0x0b356
    9e72:	0d 12       	push	r13		;
    9e74:	0c 12       	push	r12		;
    9e76:	0e 16       	popm.a	#1,	r14	;20-bit words
    9e78:	38 40 00 01 	mov	#256,	r8	;#0x0100
    9e7c:	ae 01 64 16 	adda	#71268,	r14	;0x11664
    9e80:	cd 08       	mova	r8,	r13	;
    9e82:	cc 0a       	mova	r10,	r12	;
    9e84:	b0 13 40 8f 	calla	#36672		;0x08f40
    9e88:	8c 01 22 1a 	mova	#72226,	r12	;0x11a22
    9e8c:	6d 4c       	mov.b	@r12,	r13	;
    9e8e:	7d 50 fe ff 	add.b	#65534,	r13	;#0xfffe
    9e92:	6e 43       	mov.b	#2,	r14	;r3 As==10
    9e94:	4e 9d       	cmp.b	r13,	r14	;
    9e96:	08 2c       	jc	$+18     	;abs 0x9ea8
    9e98:	b0 13 fe a1 	calla	#41470		;0x0a1fe
    9e9c:	81 18 f2 40 	movx.a	#66544,	&0x11a36;0x103f0
    9ea0:	f0 03 36 1a 

00009ea4 <.L103>:
    9ea4:	80 00 a4 9e 	mova	#40612,	r0	;0x09ea4

00009ea8 <.L102>:
    9ea8:	ec 43 00 00 	mov.b	#2,	0(r12)	;r3 As==10
    9eac:	3c 0c 06 00 	mova	6(r12),	r12	;
    9eb0:	bc f0 cf ff 	and	#65487,	0(r12)	;#0xffcf
    9eb4:	00 00 
    9eb6:	b0 13 96 a8 	calla	#43158		;0x0a896
    9eba:	61 08 60 16 	mova	r8,	&71264	; 0x11660
    9ebe:	6d 42       	mov.b	#4,	r13	;r2 As==10
    9ec0:	4e 43       	clr.b	r14		;
    9ec2:	2c 01 5c 16 	mova	&71260,	r12	;0x1165c
    9ec6:	b0 13 3a 92 	calla	#37434		;0x0923a
    9eca:	08 16       	popm.a	#1,	r8	;20-bit words
    9ecc:	0a 16       	popm.a	#1,	r10	;20-bit words
    9ece:	10 01       	reta			;

00009ed0 <elyUARTDLLRxCharCB>:
    9ed0:	7e 40 ff 00 	mov.b	#255,	r14	;#0x00ff
    9ed4:	0e 9d       	cmp	r13,	r14	;
    9ed6:	08 2c       	jc	$+18     	;abs 0x9ee8
    9ed8:	b0 13 fe a1 	calla	#41470		;0x0a1fe
    9edc:	81 18 f2 40 	movx.a	#66525,	&0x11a36;0x103dd
    9ee0:	dd 03 36 1a 

00009ee4 <.L106>:
    9ee4:	80 00 e4 9e 	mova	#40676,	r0	;0x09ee4

00009ee8 <.L105>:
    9ee8:	8e 01 64 16 	mova	#71268,	r14	;0x11664
    9eec:	41 18 82 43 	movx.w	#0,	&0x11866;r3 As==00
    9ef0:	66 18 
    9ef2:	41 18 92 43 	movx.w	#1,	&0x11864;r3 As==01
    9ef6:	64 18 
    9ef8:	ce 4d 00 00 	mov.b	r13,	0(r14)	;
    9efc:	ae 00 01 00 	adda	#1,	r14	;
    9f00:	7d 40 ff 00 	mov.b	#255,	r13	;#0x00ff
    9f04:	b0 13 40 8f 	calla	#36672		;0x08f40
    9f08:	b0 13 96 a8 	calla	#43158		;0x0a896
    9f0c:	10 01       	reta			;

00009f0e <elyUARTDLLTimeoutCB>:
    9f0e:	0a 14       	pushm.a	#1,	r10	;20-bit words
    9f10:	08 14       	pushm.a	#1,	r8	;20-bit words
    9f12:	88 01 cc 18 	mova	#71884,	r8	;0x118cc
    9f16:	41 18 e2 93 	cmpx.b	#2,	&0x118cc;r3 As==10
    9f1a:	cc 18 
    9f1c:	08 24       	jz	$+18     	;abs 0x9f2e
    9f1e:	b0 13 fe a1 	calla	#41470		;0x0a1fe
    9f22:	81 18 f2 40 	movx.a	#66508,	&0x11a36;0x103cc
    9f26:	cc 03 36 1a 

00009f2a <.L109>:
    9f2a:	80 00 2a 9f 	mova	#40746,	r0	;0x09f2a

00009f2e <.L108>:
    9f2e:	41 18 d2 93 	cmpx.b	#1,	&0x118ce;r3 As==01
    9f32:	ce 18 
    9f34:	3e 20       	jnz	$+126    	;abs 0x9fb2
    9f36:	3c 08 58 00 	mova	88(r8),	r12	;0x00058
    9f3a:	40 18 1a 4c 	movx.w	10(r12),r10	;0x0000a
    9f3e:	0a 00 
    9f40:	40 18 bc b0 	bitx.w	#16,	0(r12)	;0x00010
    9f44:	10 00 00 00 
    9f48:	0f 24       	jz	$+32     	;abs 0x9f68
    9f4a:	bc f0 ee ff 	and	#65518,	0(r12)	;#0xffee
    9f4e:	00 00 
    9f50:	4d 43       	clr.b	r13		;
    9f52:	5c 48 5c 00 	mov.b	92(r8),	r12	;0x0005c
    9f56:	b0 13 4a 8c 	calla	#35914		;0x08c4a
    9f5a:	3c 08 58 00 	mova	88(r8),	r12	;0x00058
    9f5e:	8c 43 0a 00 	mov	#0,	10(r12)	;r3 As==00, 0x000a
    9f62:	bc 40 12 00 	mov	#18,	0(r12)	;#0x0012
    9f66:	00 00 

00009f68 <.L111>:
    9f68:	3c 08 04 00 	mova	4(r8),	r12	;
    9f6c:	7d 40 2f 00 	mov.b	#47,	r13	;#0x002f
    9f70:	5d 9c 19 00 	cmp.b	25(r12),r13	;0x00019
    9f74:	07 2c       	jc	$+16     	;abs 0x9f84
    9f76:	8c 01 24 19 	mova	#71972,	r12	;0x11924
    9f7a:	b0 13 fc 94 	calla	#38140		;0x094fc
    9f7e:	41 18 c2 43 	movx.b	#0,	&0x1192f;r3 As==00
    9f82:	2f 19 

00009f84 <.L112>:
    9f84:	3c 08 16 00 	mova	22(r8),	r12	;0x00016
    9f88:	9c c3 1c 00 	bic	#1,	28(r12)	;r3 As==01, 0x001c
    9f8c:	9c d3 1a 00 	bis	#1,	26(r12)	;r3 As==01, 0x001a
    9f90:	41 18 c2 43 	movx.b	#0,	&0x118ce;r3 As==00
    9f94:	ce 18 

00009f96 <.L110>:
    9f96:	3c 40 00 01 	mov	#256,	r12	;#0x0100
    9f9a:	fc 0a       	suba	r10,	r12	;
    9f9c:	61 0c 60 16 	mova	r12,	&71264	; 0x11660
    9fa0:	6d 42       	mov.b	#4,	r13	;r2 As==10
    9fa2:	4e 43       	clr.b	r14		;
    9fa4:	2c 01 5c 16 	mova	&71260,	r12	;0x1165c
    9fa8:	b0 13 3a 92 	calla	#37434		;0x0923a
    9fac:	08 16       	popm.a	#1,	r8	;20-bit words
    9fae:	0a 16       	popm.a	#1,	r10	;20-bit words
    9fb0:	10 01       	reta			;

00009fb2 <.L113>:
    9fb2:	4a 43       	clr.b	r10		;
    9fb4:	80 00 96 9f 	mova	#40854,	r0	;0x09f96

00009fb8 <calc_next_buff>:
    9fb8:	0a 14       	pushm.a	#1,	r10	;20-bit words
    9fba:	c0 18 5c 42 	movx.b	&0x10e08,r12	;
    9fbe:	08 0e 
    9fc0:	5c 93       	cmp.b	#1,	r12	;r3 As==01
    9fc2:	2a 24       	jz	$+86     	;abs 0xa018
    9fc4:	6c 93       	cmp.b	#2,	r12	;r3 As==10
    9fc6:	53 20       	jnz	$+168    	;abs 0xa06e
    9fc8:	81 18 d2 42 	movx.a	&0x11648,&0x11654;
    9fcc:	48 16 54 16 
    9fd0:	01 18 c2 43 	movx.a	#0,	&0x11658;r3 As==00
    9fd4:	58 16 
    9fd6:	2a 01 50 16 	mova	&71248,	r10	;0x11650

00009fda <.L121>:
    9fda:	2c 01 58 16 	mova	&71256,	r12	;0x11658
    9fde:	dc 0a       	cmpa	r10,	r12	;
    9fe0:	08 20       	jnz	$+18     	;abs 0x9ff2

00009fe2 <.L124>:
    9fe2:	41 18 d2 43 	movx.b	#1,	&0x10e08;r3 As==01
    9fe6:	08 0e 
    9fe8:	9c 00 00 00 	cmpa	#0,	r12	;
    9fec:	15 24       	jz	$+44     	;abs 0xa018

00009fee <.L117>:
    9fee:	0a 16       	popm.a	#1,	r10	;20-bit words
    9ff0:	10 01       	reta			;

00009ff2 <.L122>:
    9ff2:	2e 01 48 16 	mova	&71240,	r14	;0x11648
    9ff6:	6d 4e       	mov.b	@r14,	r13	;
    9ff8:	7d 90 c0 ff 	cmp.b	#65472,	r13	;#0xffc0
    9ffc:	f2 27       	jz	$-26     	;abs 0x9fe2
    9ffe:	7d 90 db ff 	cmp.b	#65499,	r13	;#0xffdb
    a002:	ef 27       	jz	$-32     	;abs 0x9fe2
    a004:	ac 00 01 00 	adda	#1,	r12	;
    a008:	61 0c 58 16 	mova	r12,	&71256	; 0x11658
    a00c:	ae 00 01 00 	adda	#1,	r14	;
    a010:	61 0e 48 16 	mova	r14,	&71240	; 0x11648
    a014:	80 00 da 9f 	mova	#40922,	r0	;0x09fda

0000a018 <.L119>:
    a018:	2c 01 48 16 	mova	&71240,	r12	;0x11648
    a01c:	cd 0c       	mova	r12,	r13	;
    a01e:	ad 00 01 00 	adda	#1,	r13	;
    a022:	61 0d 48 16 	mova	r13,	&71240	; 0x11648
    a026:	6c 4c       	mov.b	@r12,	r12	;
    a028:	7c 90 c0 ff 	cmp.b	#65472,	r12	;#0xffc0
    a02c:	12 24       	jz	$+38     	;abs 0xa052
    a02e:	7c 90 db ff 	cmp.b	#65499,	r12	;#0xffdb
    a032:	15 20       	jnz	$+44     	;abs 0xa05e
    a034:	81 18 f2 40 	movx.a	#66490,	&0x11654;0x103ba
    a038:	ba 03 54 16 

0000a03c <.L129>:
    a03c:	01 18 e2 43 	movx.a	#2,	&0x11658;r3 As==10
    a040:	58 16 
    a042:	01 18 d2 53 	incx.a	&0x11650		;
    a046:	50 16 
    a048:	41 18 e2 43 	movx.b	#2,	&0x10e08;r3 As==10
    a04c:	08 0e 
    a04e:	80 00 ee 9f 	mova	#40942,	r0	;0x09fee

0000a052 <.L127>:
    a052:	81 18 f2 40 	movx.a	#66488,	&0x11654;0x103b8
    a056:	b8 03 54 16 
    a05a:	80 00 3c a0 	mova	#41020,	r0	;0x0a03c

0000a05e <.L139>:
    a05e:	b0 13 fe a1 	calla	#41470		;0x0a1fe
    a062:	81 18 f2 40 	movx.a	#66492,	&0x11a36;0x103bc
    a066:	bc 03 36 1a 

0000a06a <.L130>:
    a06a:	80 00 6a a0 	mova	#41066,	r0	;0x0a06a

0000a06e <.L138>:
    a06e:	b0 13 fe a1 	calla	#41470		;0x0a1fe
    a072:	81 18 f2 40 	movx.a	#66492,	&0x11a36;0x103bc
    a076:	bc 03 36 1a 

0000a07a <.L131>:
    a07a:	80 00 7a a0 	mova	#41082,	r0	;0x0a07a

0000a07e <elyUARTDLLTxCB>:
    a07e:	40 18 c2 93 	cmpx.b	#0,	&0x0e1ac;r3 As==00
    a082:	ac e1 
    a084:	04 24       	jz	$+10     	;abs 0xa08e
    a086:	40 18 c2 43 	movx.b	#0,	&0x0e1ac;r3 As==00
    a08a:	ac e1 

0000a08c <.L140>:
    a08c:	10 01       	reta			;

0000a08e <.L141>:
    a08e:	2e 01 54 16 	mova	&71252,	r14	;0x11654
    a092:	2d 01 58 16 	mova	&71256,	r13	;0x11658
    a096:	b0 13 ec 8f 	calla	#36844		;0x08fec
    a09a:	2c 01 50 16 	mova	&71248,	r12	;0x11650
    a09e:	9c 00 00 00 	cmpa	#0,	r12	;
    a0a2:	05 20       	jnz	$+12     	;abs 0xa0ae
    a0a4:	40 18 d2 43 	movx.b	#1,	&0x0e1ac;r3 As==01
    a0a8:	ac e1 
    a0aa:	80 00 8c a0 	mova	#41100,	r0	;0x0a08c

0000a0ae <.L143>:
    a0ae:	80 18 5c 82 	subx.a	&0x11658,r12	;
    a0b2:	58 16 
    a0b4:	61 0c 50 16 	mova	r12,	&71248	; 0x11650
    a0b8:	9c 00 00 00 	cmpa	#0,	r12	;
    a0bc:	0d 20       	jnz	$+28     	;abs 0xa0d8
    a0be:	2c 01 4c 16 	mova	&71244,	r12	;0x1164c
    a0c2:	b0 13 18 a4 	calla	#42008		;0x0a418
    a0c6:	81 18 f2 40 	movx.a	#66507,	&0x11654;0x103cb
    a0ca:	cb 03 54 16 
    a0ce:	01 18 d2 43 	movx.a	#1,	&0x11658;r3 As==01
    a0d2:	58 16 
    a0d4:	80 00 8c a0 	mova	#41100,	r0	;0x0a08c

0000a0d8 <.L144>:
    a0d8:	b0 13 b8 9f 	calla	#40888		;0x09fb8
    a0dc:	80 00 8c a0 	mova	#41100,	r0	;0x0a08c

0000a0e0 <elyRegGetBlock>:
    a0e0:	b1 00 02 00 	suba	#2,	r1	;
    a0e4:	4b 4c       	mov.b	r12,	r11	;
    a0e6:	cc 0d       	mova	r13,	r12	;
    a0e8:	3e f0 ff 00 	and	#255,	r14	;#0x00ff
    a0ec:	3f f0 ff 00 	and	#255,	r15	;#0x00ff
    a0f0:	0b 93       	cmp	#0,	r11	;r3 As==00
    a0f2:	0b 20       	jnz	$+24     	;abs 0xa10a
    a0f4:	40 18 0d 4e 	movx.w	r14,	r13	;
    a0f8:	40 18 0e 4f 	movx.w	r15,	r14	;
    a0fc:	ad 00 8c dc 	adda	#56460,	r13	;0x0dc8c
    a100:	b0 13 98 b4 	calla	#46232		;0x0b498

0000a104 <.L145>:
    a104:	a1 00 02 00 	adda	#2,	r1	;
    a108:	10 01       	reta			;

0000a10a <.L146>:
    a10a:	c1 4f 00 00 	mov.b	r15,	0(r1)	;
    a10e:	cf 0d       	mova	r13,	r15	;
    a110:	4d 4b       	mov.b	r11,	r13	;
    a112:	5c 43       	mov.b	#1,	r12	;r3 As==01
    a114:	b0 13 14 76 	calla	#30228		;0x07614
    a118:	b0 13 fe a1 	calla	#41470		;0x0a1fe
    a11c:	4d 43       	clr.b	r13		;
    a11e:	8c 01 46 16 	mova	#71238,	r12	;0x11646
    a122:	b0 13 56 91 	calla	#37206		;0x09156
    a126:	b0 13 f4 a1 	calla	#41460		;0x0a1f4
    a12a:	80 00 04 a1 	mova	#41220,	r0	;0x0a104

0000a12e <is_fw_buf>:
    a12e:	0a 14       	pushm.a	#1,	r10	;20-bit words
    a130:	6d 4c       	mov.b	@r12,	r13	;
    a132:	0e 4d       	mov	r13,	r14	;
    a134:	47 18 0e 5e 	rpt #8 { rlax.w	r14		;
    a138:	3e f0 00 07 	and	#1792,	r14	;#0x0700
    a13c:	5c 4c 01 00 	mov.b	1(r12),	r12	;
    a140:	0c de       	bis	r14,	r12	;
    a142:	8a 00 8c dc 	mova	#56460,	r10	;0x0dc8c
    a146:	5e 4a 51 00 	mov.b	81(r10),r14	;0x00051
    a14a:	47 18 0e 5e 	rpt #8 { rlax.w	r14		;
    a14e:	5a 4a 50 00 	mov.b	80(r10),r10	;0x00050
    a152:	0e da       	bis	r10,	r14	;
    a154:	0c 9e       	cmp	r14,	r12	;
    a156:	06 20       	jnz	$+14     	;abs 0xa164
    a158:	0c 4d       	mov	r13,	r12	;
    a15a:	5c 0f       	rrum	#4,	r12	;
    a15c:	5c e3       	xor.b	#1,	r12	;r3 As==01
    a15e:	5c f3       	and.b	#1,	r12	;r3 As==01

0000a160 <.L2>:
    a160:	0a 16       	popm.a	#1,	r10	;20-bit words
    a162:	10 01       	reta			;

0000a164 <.L3>:
    a164:	4c 43       	clr.b	r12		;
    a166:	80 00 60 a1 	mova	#41312,	r0	;0x0a160

0000a16a <nl_allocator>:
    a16a:	0a 14       	pushm.a	#1,	r10	;20-bit words
    a16c:	2e 00 52 dc 	mova	&56402,	r14	;0x0dc52
    a170:	ca 0e       	mova	r14,	r10	;
    a172:	ea 0c       	adda	r12,	r10	;
    a174:	3c 40 00 20 	mov	#8192,	r12	;#0x2000
    a178:	dc 0a       	cmpa	r10,	r12	;
    a17a:	07 28       	jnc	$+16     	;abs 0xa18a
    a17c:	cc 0e       	mova	r14,	r12	;
    a17e:	ac 00 52 bc 	adda	#48210,	r12	;0x0bc52
    a182:	60 0a 52 dc 	mova	r10,	&56402	; 0x0dc52

0000a186 <.L4>:
    a186:	0a 16       	popm.a	#1,	r10	;20-bit words
    a188:	10 01       	reta			;

0000a18a <.L6>:
    a18a:	4c 43       	clr.b	r12		;
    a18c:	80 00 86 a1 	mova	#41350,	r0	;0x0a186

0000a190 <clamp_err.lto_priv.111.lto_priv.230>:
    a190:	3c f0 ff 00 	and	#255,	r12	;#0x00ff
    a194:	40 18 3c b0 	bitx.w	#16,	r12	;0x00010
    a198:	10 00 
    a19a:	03 24       	jz	$+8      	;abs 0xa1a2
    a19c:	3c 90 10 00 	cmp	#16,	r12	;#0x0010
    a1a0:	19 20       	jnz	$+52     	;abs 0xa1d4

0000a1a2 <.L9>:
    a1a2:	40 18 3c b2 	bitx.w	#8,	r12	;r2 As==11
    a1a6:	02 24       	jz	$+6      	;abs 0xa1ac
    a1a8:	3c 92       	cmp	#8,	r12	;r2 As==11
    a1aa:	18 20       	jnz	$+50     	;abs 0xa1dc

0000a1ac <.L11>:
    a1ac:	40 18 2c b2 	bitx.w	#4,	r12	;r2 As==10
    a1b0:	02 24       	jz	$+6      	;abs 0xa1b6
    a1b2:	2c 92       	cmp	#4,	r12	;r2 As==10
    a1b4:	16 20       	jnz	$+46     	;abs 0xa1e2

0000a1b6 <.L12>:
    a1b6:	40 18 2c b3 	bitx.w	#2,	r12	;r3 As==10
    a1ba:	02 24       	jz	$+6      	;abs 0xa1c0
    a1bc:	2c 93       	cmp	#2,	r12	;r3 As==10
    a1be:	14 20       	jnz	$+42     	;abs 0xa1e8

0000a1c0 <.L13>:
    a1c0:	40 18 1c b3 	bitx.w	#1,	r12	;r3 As==01
    a1c4:	02 24       	jz	$+6      	;abs 0xa1ca
    a1c6:	1c 93       	cmp	#1,	r12	;r3 As==01
    a1c8:	12 20       	jnz	$+38     	;abs 0xa1ee

0000a1ca <.L14>:
    a1ca:	7c b0 d0 ff 	bit.b	#65488,	r12	;#0xffd0
    a1ce:	01 24       	jz	$+4      	;abs 0xa1d2
    a1d0:	4c 43       	clr.b	r12		;

0000a1d2 <.L10>:
    a1d2:	10 01       	reta			;

0000a1d4 <.L15>:
    a1d4:	7c 40 10 00 	mov.b	#16,	r12	;#0x0010
    a1d8:	80 00 d2 a1 	mova	#41426,	r0	;0x0a1d2

0000a1dc <.L16>:
    a1dc:	7c 42       	mov.b	#8,	r12	;r2 As==11
    a1de:	80 00 d2 a1 	mova	#41426,	r0	;0x0a1d2

0000a1e2 <.L17>:
    a1e2:	6c 42       	mov.b	#4,	r12	;r2 As==10
    a1e4:	80 00 d2 a1 	mova	#41426,	r0	;0x0a1d2

0000a1e8 <.L18>:
    a1e8:	6c 43       	mov.b	#2,	r12	;r3 As==10
    a1ea:	80 00 d2 a1 	mova	#41426,	r0	;0x0a1d2

0000a1ee <.L19>:
    a1ee:	5c 43       	mov.b	#1,	r12	;r3 As==01
    a1f0:	80 00 d2 a1 	mova	#41426,	r0	;0x0a1d2

0000a1f4 <port_unlock.lto_priv.114.lto_priv.166>:
    a1f4:	03 43       	nop			
    a1f6:	03 43       	nop			
    a1f8:	32 d2       	eint			
    a1fa:	03 43       	nop			
    a1fc:	10 01       	reta			;

0000a1fe <port_disable.lto_priv.106>:
    a1fe:	32 c2       	dint			
    a200:	03 43       	nop			
    a202:	03 43       	nop			
    a204:	10 01       	reta			;

0000a206 <elyNLValidate>:
    a206:	0a 14       	pushm.a	#1,	r10	;20-bit words
    a208:	ca 0c       	mova	r12,	r10	;
    a20a:	fc b0 e0 ff 	bit.b	#65504,	0(r12)	;#0xffe0
    a20e:	00 00 
    a210:	1d 20       	jnz	$+60     	;abs 0xa24c
    a212:	b0 13 fe a1 	calla	#41470		;0x0a1fe
    a216:	8c 00 8c dc 	mova	#56460,	r12	;0x0dc8c
    a21a:	5e 4c 81 00 	mov.b	129(r12),r14	;0x00081
    a21e:	47 18 0e 5e 	rpt #8 { rlax.w	r14		;
    a222:	5c 4c 80 00 	mov.b	128(r12),r12	;0x00080
    a226:	0e dc       	bis	r12,	r14	;
    a228:	40 18 0e 4e 	movx.w	r14,	r14	;
    a22c:	5c 4a 04 00 	mov.b	4(r10),	r12	;
    a230:	47 18 0c 5c 	rpt #8 { rlax.w	r12		;
    a234:	5a 4a 05 00 	mov.b	5(r10),	r10	;
    a238:	0c da       	bis	r10,	r12	;
    a23a:	3c 50 07 00 	add	#7,	r12	;
    a23e:	4c 0e       	rlam.a	#4,	r12	;
    a240:	4c 0d       	rram.a	#4,	r12	;
    a242:	8a 00 f4 a1 	mova	#41460,	r10	;0x0a1f4
    a246:	de 0c       	cmpa	r12,	r14	;
    a248:	04 2c       	jc	$+10     	;abs 0xa252
    a24a:	4a 13       	calla	r10		;

0000a24c <.L43>:
    a24c:	4c 43       	clr.b	r12		;
    a24e:	80 00 56 a2 	mova	#41558,	r0	;0x0a256

0000a252 <.L42>:
    a252:	4a 13       	calla	r10		;
    a254:	5c 43       	mov.b	#1,	r12	;r3 As==01

0000a256 <.L41>:
    a256:	0a 16       	popm.a	#1,	r10	;20-bit words
    a258:	10 01       	reta			;

0000a25a <rf_pass.lto_priv.154>:
    a25a:	0a 14       	pushm.a	#1,	r10	;20-bit words
    a25c:	08 14       	pushm.a	#1,	r8	;20-bit words
    a25e:	c8 0c       	mova	r12,	r8	;
    a260:	b0 13 fe a1 	calla	#41470		;0x0a1fe
    a264:	4d 43       	clr.b	r13		;
    a266:	8c 00 7c dc 	mova	#56444,	r12	;0x0dc7c
    a26a:	b0 13 56 91 	calla	#37206		;0x09156
    a26e:	ca 0c       	mova	r12,	r10	;
    a270:	9c 00 00 00 	cmpa	#0,	r12	;
    a274:	0c 20       	jnz	$+26     	;abs 0xa28e
    a276:	cd 08       	mova	r8,	r13	;
    a278:	8c 00 6a dc 	mova	#56426,	r12	;0x0dc6a
    a27c:	b0 13 ee 92 	calla	#37614		;0x092ee
    a280:	3d 40 00 04 	mov	#1024,	r13	;#0x0400
    a284:	4e 43       	clr.b	r14		;
    a286:	2c 01 76 19 	mova	&72054,	r12	;0x11976
    a28a:	b0 13 3a 92 	calla	#37434		;0x0923a

0000a28e <.L45>:
    a28e:	b0 13 f4 a1 	calla	#41460		;0x0a1f4
    a292:	cc 0a       	mova	r10,	r12	;
    a294:	08 16       	popm.a	#1,	r8	;20-bit words
    a296:	0a 16       	popm.a	#1,	r10	;20-bit words
    a298:	10 01       	reta			;

0000a29a <uart_pass.lto_priv.153>:
    a29a:	0a 14       	pushm.a	#1,	r10	;20-bit words
    a29c:	08 14       	pushm.a	#1,	r8	;20-bit words
    a29e:	c8 0c       	mova	r12,	r8	;
    a2a0:	b0 13 fe a1 	calla	#41470		;0x0a1fe
    a2a4:	4d 43       	clr.b	r13		;
    a2a6:	8c 00 68 dc 	mova	#56424,	r12	;0x0dc68
    a2aa:	b0 13 56 91 	calla	#37206		;0x09156
    a2ae:	ca 0c       	mova	r12,	r10	;
    a2b0:	9c 00 00 00 	cmpa	#0,	r12	;
    a2b4:	05 20       	jnz	$+12     	;abs 0xa2c0
    a2b6:	cd 08       	mova	r8,	r13	;
    a2b8:	8c 00 56 dc 	mova	#56406,	r12	;0x0dc56
    a2bc:	b0 13 ee 92 	calla	#37614		;0x092ee

0000a2c0 <.L47>:
    a2c0:	6d 43       	mov.b	#2,	r13	;r3 As==10
    a2c2:	4e 43       	clr.b	r14		;
    a2c4:	2c 01 6a 18 	mova	&71786,	r12	;0x1186a
    a2c8:	b0 13 3a 92 	calla	#37434		;0x0923a
    a2cc:	b0 13 f4 a1 	calla	#41460		;0x0a1f4
    a2d0:	cc 0a       	mova	r10,	r12	;
    a2d2:	08 16       	popm.a	#1,	r8	;20-bit words
    a2d4:	0a 16       	popm.a	#1,	r10	;20-bit words
    a2d6:	10 01       	reta			;

0000a2d8 <fw.lto_priv.107>:
    a2d8:	0a 14       	pushm.a	#1,	r10	;20-bit words
    a2da:	08 14       	pushm.a	#1,	r8	;20-bit words
    a2dc:	c8 0c       	mova	r12,	r8	;
    a2de:	b0 13 fe a1 	calla	#41470		;0x0a1fe
    a2e2:	4d 43       	clr.b	r13		;
    a2e4:	8c 01 1c 0e 	mova	#69148,	r12	;0x10e1c
    a2e8:	b0 13 56 91 	calla	#37206		;0x09156
    a2ec:	ca 0c       	mova	r12,	r10	;
    a2ee:	9c 00 00 00 	cmpa	#0,	r12	;
    a2f2:	05 20       	jnz	$+12     	;abs 0xa2fe
    a2f4:	cd 08       	mova	r8,	r13	;
    a2f6:	8c 01 0a 0e 	mova	#69130,	r12	;0x10e0a
    a2fa:	b0 13 ee 92 	calla	#37614		;0x092ee

0000a2fe <.L49>:
    a2fe:	b0 13 f4 a1 	calla	#41460		;0x0a1f4
    a302:	cc 0a       	mova	r10,	r12	;
    a304:	08 16       	popm.a	#1,	r8	;20-bit words
    a306:	0a 16       	popm.a	#1,	r10	;20-bit words
    a308:	10 01       	reta			;

0000a30a <elyRFDLLRxInit.constprop.15>:
    a30a:	0a 14       	pushm.a	#1,	r10	;20-bit words
    a30c:	08 14       	pushm.a	#1,	r8	;20-bit words
    a30e:	06 14       	pushm.a	#1,	r6	;20-bit words
    a310:	04 14       	pushm.a	#1,	r4	;20-bit words
    a312:	88 00 c6 ab 	mova	#43974,	r8	;0x0abc6
    a316:	7d 40 51 00 	mov.b	#81,	r13	;#0x0051
    a31a:	7c 40 0e 00 	mov.b	#14,	r12	;#0x000e
    a31e:	48 13       	calla	r8		;
    a320:	8a 00 64 ac 	mova	#44132,	r10	;0x0ac64
    a324:	4c 43       	clr.b	r12		;
    a326:	4a 13       	calla	r10		;
    a328:	c1 1f f2 40 	movx.b	#-128,	&0x11a00;0xfff80
    a32c:	80 ff 00 1a 
    a330:	41 18 f2 40 	movx.b	#48,	&0x11a01;0x00030
    a334:	30 00 01 1a 
    a338:	7d 40 b0 ff 	mov.b	#65456,	r13	;#0xffb0
    a33c:	7c 40 0d 00 	mov.b	#13,	r12	;#0x000d
    a340:	48 13       	calla	r8		;
    a342:	84 00 fe a1 	mova	#41470,	r4	;0x0a1fe
    a346:	44 13       	calla	r4		;
    a348:	7c 40 05 00 	mov.b	#5,	r12	;
    a34c:	b0 13 38 b1 	calla	#45368		;0x0b138
    a350:	86 00 f4 a1 	mova	#41460,	r6	;0x0a1f4
    a354:	46 13       	calla	r6		;
    a356:	7c 40 20 00 	mov.b	#32,	r12	;#0x0020
    a35a:	4a 13       	calla	r10		;
    a35c:	7c 40 05 00 	mov.b	#5,	r12	;
    a360:	b0 13 5e 97 	calla	#38750		;0x0975e
    a364:	7c 40 40 00 	mov.b	#64,	r12	;#0x0040
    a368:	4a 13       	calla	r10		;
    a36a:	44 13       	calla	r4		;
    a36c:	c0 1f b2 f0 	andx.w	#-2049,	&0x00238;0xff7ff
    a370:	ff f7 38 02 
    a374:	c0 1f b2 f0 	andx.w	#-2049,	&0x0023c;0xff7ff
    a378:	ff f7 3c 02 
    a37c:	40 18 b2 d0 	bisx.w	#2048,	&0x0023a;0x00800
    a380:	00 08 3a 02 
    a384:	40 18 1d 42 	movx.w	&0x00220,r13	;
    a388:	20 02 
    a38a:	5d 03       	rrum	#1,	r13	;
    a38c:	49 18 0d 11 	rpt #10 { rrax.w	r13		;
    a390:	5d f3       	and.b	#1,	r13	;r3 As==01
    a392:	0d 93       	cmp	#0,	r13	;r3 As==00
    a394:	26 24       	jz	$+78     	;abs 0xa3e2
    a396:	00 18 c2 43 	movx.a	#0,	&0x0e1e2;r3 As==00
    a39a:	e2 e1 

0000a39c <.L52>:
    a39c:	c0 1f b2 f0 	andx.w	#-2049,	&0x0023a;0xff7ff
    a3a0:	ff f7 3a 02 
    a3a4:	46 13       	calla	r6		;
    a3a6:	26 00 e2 e1 	mova	&57826,	r6	;0x0e1e2
    a3aa:	96 00 00 00 	cmpa	#0,	r6	;
    a3ae:	08 20       	jnz	$+18     	;abs 0xa3c0
    a3b0:	7c 40 60 00 	mov.b	#96,	r12	;#0x0060
    a3b4:	4a 13       	calla	r10		;
    a3b6:	7d 40 51 00 	mov.b	#81,	r13	;#0x0051
    a3ba:	7c 40 0e 00 	mov.b	#14,	r12	;#0x000e
    a3be:	48 13       	calla	r8		;

0000a3c0 <.L55>:
    a3c0:	60 06 e2 e1 	mova	r6,	&57826	; 0x0e1e2
    a3c4:	40 18 c2 43 	movx.b	#0,	&0x0dc8a;r3 As==00
    a3c8:	8a dc 
    a3ca:	3d 40 00 60 	mov	#24576,	r13	;#0x6000
    a3ce:	4e 43       	clr.b	r14		;
    a3d0:	2c 01 76 19 	mova	&72054,	r12	;0x11976
    a3d4:	b0 13 32 97 	calla	#38706		;0x09732
    a3d8:	04 16       	popm.a	#1,	r4	;20-bit words
    a3da:	06 16       	popm.a	#1,	r6	;20-bit words
    a3dc:	08 16       	popm.a	#1,	r8	;20-bit words
    a3de:	0a 16       	popm.a	#1,	r10	;20-bit words
    a3e0:	10 01       	reta			;

0000a3e2 <.L51>:
    a3e2:	01 18 c2 93 	cmpx.a	#0,	&0x11972;r3 As==00
    a3e6:	72 19 
    a3e8:	08 24       	jz	$+18     	;abs 0xa3fa
    a3ea:	b0 13 fe a1 	calla	#41470		;0x0a1fe
    a3ee:	81 18 f2 40 	movx.a	#66781,	&0x11a36;0x104dd
    a3f2:	dd 04 36 1a 

0000a3f6 <.L54>:
    a3f6:	80 00 f6 a3 	mova	#41974,	r0	;0x0a3f6

0000a3fa <.L53>:
    a3fa:	2c 01 2c 1a 	mova	&72236,	r12	;0x11a2c
    a3fe:	61 0c 72 19 	mova	r12,	&72050	; 0x11972
    a402:	80 18 fc 40 	movx.a	#72050,	6(r12)	;0x11972
    a406:	72 19 06 00 
    a40a:	6c 43       	mov.b	#2,	r12	;r3 As==10
    a40c:	b0 13 ec 90 	calla	#37100		;0x090ec
    a410:	60 0c e2 e1 	mova	r12,	&57826	; 0x0e1e2
    a414:	80 00 9c a3 	mova	#41884,	r0	;0x0a39c

0000a418 <elyNLFreeBufferCheckedI>:
    a418:	0a 14       	pushm.a	#1,	r10	;20-bit words
    a41a:	ca 0c       	mova	r12,	r10	;
    a41c:	b0 13 2e a1 	calla	#41262		;0x0a12e
    a420:	4c 93       	cmp.b	#0,	r12	;r3 As==00
    a422:	05 24       	jz	$+12     	;abs 0xa42e
    a424:	cc 0a       	mova	r10,	r12	;
    a426:	b0 13 4c 5f 	calla	#24396		;0x05f4c

0000a42a <.L56>:
    a42a:	0a 16       	popm.a	#1,	r10	;20-bit words
    a42c:	10 01       	reta			;

0000a42e <.L57>:
    a42e:	9a 00 00 00 	cmpa	#0,	r10	;
    a432:	08 20       	jnz	$+18     	;abs 0xa444
    a434:	b0 13 fe a1 	calla	#41470		;0x0a1fe
    a438:	81 18 f2 40 	movx.a	#66769,	&0x11a36;0x104d1
    a43c:	d1 04 36 1a 

0000a440 <.L60>:
    a440:	80 00 40 a4 	mova	#42048,	r0	;0x0a440

0000a444 <.L59>:
    a444:	8c 00 7e dc 	mova	#56446,	r12	;0x0dc7e
    a448:	00 18 ea 4c 	movx.a	@r12,	0(r10)	;
    a44c:	00 00 
    a44e:	7c 0a 00 00 	mova	r10,	0(r12)	;
    a452:	80 00 2a a4 	mova	#42026,	r0	;0x0a42a

0000a456 <elyNLFreeBuffer>:
    a456:	0a 14       	pushm.a	#1,	r10	;20-bit words
    a458:	ca 0c       	mova	r12,	r10	;
    a45a:	b0 13 fe a1 	calla	#41470		;0x0a1fe
    a45e:	9a 00 00 00 	cmpa	#0,	r10	;
    a462:	08 20       	jnz	$+18     	;abs 0xa474
    a464:	b0 13 fe a1 	calla	#41470		;0x0a1fe
    a468:	81 18 f2 40 	movx.a	#66769,	&0x11a36;0x104d1
    a46c:	d1 04 36 1a 

0000a470 <.L63>:
    a470:	80 00 70 a4 	mova	#42096,	r0	;0x0a470

0000a474 <.L62>:
    a474:	8c 00 7e dc 	mova	#56446,	r12	;0x0dc7e
    a478:	00 18 ea 4c 	movx.a	@r12,	0(r10)	;
    a47c:	00 00 
    a47e:	7c 0a 00 00 	mova	r10,	0(r12)	;
    a482:	b0 13 f4 a1 	calla	#41460		;0x0a1f4
    a486:	0a 16       	popm.a	#1,	r10	;20-bit words
    a488:	10 01       	reta			;

0000a48a <elyNLFreeBufferChecked>:
    a48a:	0a 14       	pushm.a	#1,	r10	;20-bit words
    a48c:	ca 0c       	mova	r12,	r10	;
    a48e:	b0 13 2e a1 	calla	#41262		;0x0a12e
    a492:	4c 93       	cmp.b	#0,	r12	;r3 As==00
    a494:	05 24       	jz	$+12     	;abs 0xa4a0
    a496:	cc 0a       	mova	r10,	r12	;
    a498:	b0 13 7a 5f 	calla	#24442		;0x05f7a

0000a49c <.L64>:
    a49c:	0a 16       	popm.a	#1,	r10	;20-bit words
    a49e:	10 01       	reta			;

0000a4a0 <.L65>:
    a4a0:	cc 0a       	mova	r10,	r12	;
    a4a2:	b0 13 56 a4 	calla	#42070		;0x0a456
    a4a6:	80 00 9c a4 	mova	#42140,	r0	;0x0a49c

0000a4aa <main>:
    a4aa:	0a 14       	pushm.a	#1,	r10	;20-bit words
    a4ac:	40 18 b2 40 	movx.w	#23168,	&0x0015c;0x05a80
    a4b0:	80 5a 5c 01 
    a4b4:	40 18 b2 40 	movx.w	#23168,	&0x0015c;0x05a80
    a4b8:	80 5a 5c 01 
    a4bc:	c0 1f b2 40 	movx.w	#-23280,&0x00140;0xfa510
    a4c0:	10 a5 40 01 
    a4c4:	40 18 f2 43 	movx.b	#-1,	&0x00141;r3 As==11
    a4c8:	41 01 
    a4ca:	c0 1f b2 40 	movx.w	#-23296,&0x00160;0xfa500
    a4ce:	00 a5 60 01 
    a4d2:	40 18 b2 40 	movx.w	#72,	&0x00162;0x00048
    a4d6:	48 00 62 01 
    a4da:	40 18 b2 40 	movx.w	#307,	&0x00164;0x00133
    a4de:	33 01 64 01 
    a4e2:	40 18 82 43 	movx.w	#0,	&0x00166;r3 As==00
    a4e6:	66 01 
    a4e8:	c0 1f b2 40 	movx.w	#-15927,&0x00168;0xfc1c9
    a4ec:	c9 c1 68 01 
    a4f0:	40 18 b2 40 	movx.w	#15,	&0x0016c;0x0000f
    a4f4:	0f 00 6c 01 
    a4f8:	40 18 f2 43 	movx.b	#-1,	&0x00161;r3 As==11
    a4fc:	61 01 
    a4fe:	41 18 82 43 	movx.w	#0,	&0x1186e;r3 As==00
    a502:	6e 18 
    a504:	40 18 b2 40 	movx.w	#1232,	&0x00202;0x004d0
    a508:	d0 04 02 02 
    a50c:	40 18 b2 40 	movx.w	#16,	&0x00204;0x00010
    a510:	10 00 04 02 
    a514:	c0 1f b2 40 	movx.w	#-31548,&0x00206;0xf84c4
    a518:	c4 84 06 02 
    a51c:	40 18 b2 40 	movx.w	#6155,	&0x0020a;0x0180b
    a520:	0b 18 0a 02 
    a524:	40 18 b2 40 	movx.w	#31723,	&0x0020c;0x07beb
    a528:	eb 7b 0c 02 
    a52c:	c0 1f b2 40 	movx.w	#-16144,&0x00222;0xfc0f0
    a530:	f0 c0 22 02 
    a534:	c0 1f b2 40 	movx.w	#-20480,&0x00224;0xfb000
    a538:	00 b0 24 02 
    a53c:	40 18 b2 40 	movx.w	#20479,	&0x00226;0x04fff
    a540:	ff 4f 26 02 
    a544:	40 18 82 43 	movx.w	#0,	&0x0022a;r3 As==00
    a548:	2a 02 
    a54a:	40 18 82 43 	movx.w	#0,	&0x0022c;r3 As==00
    a54e:	2c 02 
    a550:	40 18 b2 40 	movx.w	#9,	&0x00322;
    a554:	09 00 22 03 
    a558:	40 18 b2 40 	movx.w	#5,	&0x00324;
    a55c:	05 00 24 03 
    a560:	40 18 82 43 	movx.w	#0,	&0x00326;r3 As==00
    a564:	26 03 
    a566:	40 18 b2 40 	movx.w	#240,	&0x0032a;0x000f0
    a56a:	f0 00 2a 03 
    a56e:	40 18 82 43 	movx.w	#0,	&0x0032c;r3 As==00
    a572:	2c 03 
    a574:	40 18 92 c3 	bicx.w	#1,	&0x00130;r3 As==01
    a578:	30 01 
    a57a:	01 18 f2 40 	movx.a	#896,	&0x11a28;0x00380
    a57e:	80 03 28 1a 
    a582:	41 18 d2 43 	movx.b	#1,	&0x11a22;r3 As==01
    a586:	22 1a 
    a588:	01 18 c2 43 	movx.a	#0,	&0x11a24;r3 As==00
    a58c:	24 1a 
    a58e:	8a 01 34 19 	mova	#71988,	r10	;0x11934
    a592:	41 18 d2 43 	movx.b	#1,	&0x11934;r3 As==01
    a596:	34 19 
    a598:	01 18 c2 43 	movx.a	#0,	&0x11936;r3 As==00
    a59c:	36 19 
    a59e:	01 18 f2 40 	movx.a	#1600,	&0x11944;0x00640
    a5a2:	40 06 44 19 
    a5a6:	41 18 b2 40 	movx.w	#192,	&0x11954;0x000c0
    a5aa:	c0 00 54 19 
    a5ae:	41 18 82 43 	movx.w	#0,	&0x11956;r3 As==00
    a5b2:	56 19 
    a5b4:	41 18 f2 40 	movx.b	#19,	&0x11966;0x00013
    a5b8:	13 00 66 19 
    a5bc:	41 18 f2 40 	movx.b	#18,	&0x11967;0x00012
    a5c0:	12 00 67 19 
    a5c4:	01 18 c2 43 	movx.a	#0,	&0x1195a;r3 As==00
    a5c8:	5a 19 
    a5ca:	7a 0a 2a 00 	mova	r10,	42(r10)	; 0x0002a
    a5ce:	41 18 d2 43 	movx.b	#1,	&0x11870;r3 As==01
    a5d2:	70 18 
    a5d4:	01 18 c2 43 	movx.a	#0,	&0x11872;r3 As==00
    a5d8:	72 18 
    a5da:	01 18 c2 43 	movx.a	#0,	&0x11876;r3 As==00
    a5de:	76 18 
    a5e0:	41 18 92 43 	movx.w	#1,	&0x1187a;r3 As==01
    a5e4:	7a 18 
    a5e6:	01 18 f2 40 	movx.a	#1472,	&0x1187c;0x005c0
    a5ea:	c0 05 7c 18 
    a5ee:	01 18 f2 40 	movx.a	#1500,	&0x11880;0x005dc
    a5f2:	dc 05 80 18 
    a5f6:	41 18 b2 40 	movx.w	#15,	&0x11894;0x0000f
    a5fa:	0f 00 94 18 
    a5fe:	41 18 b2 40 	movx.w	#14,	&0x118ae;0x0000e
    a602:	0e 00 ae 18 
    a606:	01 18 f2 40 	movx.a	#1486,	&0x11888;0x005ce
    a60a:	ce 05 88 18 
    a60e:	01 18 f2 40 	movx.a	#1484,	&0x1189e;0x005cc
    a612:	cc 05 9e 18 
    a616:	41 18 b2 40 	movx.w	#192,	&0x11890;0x000c0
    a61a:	c0 00 90 18 
    a61e:	41 18 b2 40 	movx.w	#192,	&0x118aa;0x000c0
    a622:	c0 00 aa 18 
    a626:	41 18 82 43 	movx.w	#0,	&0x11892;r3 As==00
    a62a:	92 18 
    a62c:	41 18 82 43 	movx.w	#0,	&0x118ac;r3 As==00
    a630:	ac 18 
    a632:	01 18 c2 43 	movx.a	#0,	&0x11896;r3 As==00
    a636:	96 18 
    a638:	01 18 c2 43 	movx.a	#0,	&0x1189a;r3 As==00
    a63c:	9a 18 
    a63e:	01 18 f2 40 	movx.a	#38522,	&0x118b0;0x0967a
    a642:	7a 96 b0 18 
    a646:	81 18 f2 40 	movx.a	#71792,	&0x118b4;0x11870
    a64a:	70 18 b4 18 
    a64e:	41 18 d2 43 	movx.b	#1,	&0x118cc;r3 As==01
    a652:	cc 18 
    a654:	41 18 c2 43 	movx.b	#0,	&0x118cd;r3 As==00
    a658:	cd 18 
    a65a:	41 18 c2 43 	movx.b	#0,	&0x118ce;r3 As==00
    a65e:	ce 18 
    a660:	01 18 c2 43 	movx.a	#0,	&0x118d0;r3 As==00
    a664:	d0 18 
    a666:	41 18 c2 43 	movx.b	#0,	&0x118d4;r3 As==00
    a66a:	d4 18 
    a66c:	01 18 c2 43 	movx.a	#0,	&0x118d6;r3 As==00
    a670:	d6 18 
    a672:	01 18 c2 43 	movx.a	#0,	&0x118da;r3 As==00
    a676:	da 18 
    a678:	01 18 f2 40 	movx.a	#1504,	&0x118e2;0x005e0
    a67c:	e0 05 e2 18 
    a680:	41 18 b2 40 	movx.w	#9216,	&0x118de;0x02400
    a684:	00 24 de 18 
    a688:	41 18 b2 40 	movx.w	#244,	&0x118e0;0x000f4
    a68c:	f4 00 e0 18 
    a690:	01 18 f2 40 	movx.a	#1518,	&0x118ea;0x005ee
    a694:	ee 05 ea 18 
    a698:	41 18 b2 40 	movx.w	#768,	&0x118f0;0x00300
    a69c:	00 03 f0 18 
    a6a0:	41 18 b2 40 	movx.w	#192,	&0x118f2;0x000c0
    a6a4:	c0 00 f2 18 
    a6a8:	41 18 82 43 	movx.w	#0,	&0x118f4;r3 As==00
    a6ac:	f4 18 
    a6ae:	41 18 b2 40 	movx.w	#17,	&0x118f6;0x00011
    a6b2:	11 00 f6 18 
    a6b6:	01 18 f2 40 	movx.a	#1516,	&0x11900;0x005ec
    a6ba:	ec 05 00 19 
    a6be:	41 18 b2 40 	movx.w	#3072,	&0x1190a;0x00c00
    a6c2:	00 0c 0a 19 
    a6c6:	41 18 b2 40 	movx.w	#192,	&0x1190c;0x000c0
    a6ca:	c0 00 0c 19 
    a6ce:	41 18 82 43 	movx.w	#0,	&0x1190e;r3 As==00
    a6d2:	0e 19 
    a6d4:	41 18 b2 40 	movx.w	#16,	&0x11910;0x00010
    a6d8:	10 00 10 19 
    a6dc:	32 c2       	dint			
    a6de:	03 43       	nop			
    a6e0:	40 18 b2 40 	movx.w	#15999,	&0x003d2;0x03e7f
    a6e4:	7f 3e d2 03 
    a6e8:	40 18 b2 40 	movx.w	#16,	&0x003c2;0x00010
    a6ec:	10 00 c2 03 
    a6f0:	40 18 82 43 	movx.w	#0,	&0x003e0;r3 As==00
    a6f4:	e0 03 
    a6f6:	40 18 b2 40 	movx.w	#532,	&0x003c0;0x00214
    a6fa:	14 02 c0 03 
    a6fe:	01 18 c2 43 	movx.a	#0,	&0x11930;r3 As==00
    a702:	30 19 
    a704:	b0 13 fe a1 	calla	#41470		;0x0a1fe
    a708:	81 18 f2 40 	movx.a	#69150,	&0x11936;0x10e1e
    a70c:	1e 0e 36 19 
    a710:	40 18 92 d3 	bisx.w	#1,	&0x00640;r3 As==01
    a714:	40 06 
    a716:	c0 18 1e 42 	movx.w	&0x10e1e,r14	;
    a71a:	1e 0e 
    a71c:	c0 18 1f 42 	movx.w	&0x10e20,r15	;
    a720:	20 0e 
    a722:	3c 40 00 24 	mov	#9216,	r12	;#0x2400
    a726:	7d 40 f4 00 	mov.b	#244,	r13	;#0x00f4
    a72a:	b0 13 fe b2 	calla	#45822		;0x0b2fe
    a72e:	40 18 82 4c 	movx.w	r12,	&0x00646;
    a732:	46 06 
    a734:	40 18 b2 40 	movx.w	#192,	&0x00642;0x000c0
    a738:	c0 00 42 06 
    a73c:	40 18 b2 40 	movx.w	#3968,	&0x00640;0x00f80
    a740:	80 0f 40 06 
    a744:	3c 0a 10 00 	mova	16(r10),r12	;0x00010
    a748:	40 18 bc b0 	bitx.w	#16,	8(r12)	;0x00010
    a74c:	10 00 08 00 
    a750:	2b 24       	jz	$+88     	;abs 0xa7a8
    a752:	40 18 92 d3 	bisx.w	#1,	&0x00640;r3 As==01
    a756:	40 06 
    a758:	40 18 f2 f0 	andx.b	#127,	&0x0020c;0x0007f
    a75c:	7f 00 0c 02 
    a760:	c0 1f f2 d0 	bisx.b	#-128,	&0x00204;0xfff80
    a764:	80 ff 04 02 
    a768:	40 18 f2 f0 	andx.b	#127,	&0x00206;0x0007f
    a76c:	7f 00 06 02 
    a770:	7c 40 0a 00 	mov.b	#10,	r12	;#0x000a

0000a774 <.L69>:
    a774:	40 18 f2 f0 	andx.b	#127,	&0x00202;0x0007f
    a778:	7f 00 02 02 
    a77c:	c0 1f f2 d0 	bisx.b	#-128,	&0x00202;0xfff80
    a780:	80 ff 02 02 
    a784:	3c 53       	add	#-1,	r12	;r3 As==11
    a786:	0c 93       	cmp	#0,	r12	;r3 As==00
    a788:	f5 23       	jnz	$-20     	;abs 0xa774
    a78a:	40 18 f2 f0 	andx.b	#127,	&0x00204;0x0007f
    a78e:	7f 00 04 02 
    a792:	c0 1f f2 d0 	bisx.b	#-128,	&0x0020c;0xfff80
    a796:	80 ff 0c 02 
    a79a:	c0 1f f2 d0 	bisx.b	#-128,	&0x00206;0xfff80
    a79e:	80 ff 06 02 
    a7a2:	40 18 92 c3 	bicx.w	#1,	&0x00640;r3 As==01
    a7a6:	40 06 

0000a7a8 <.L68>:
    a7a8:	40 18 b2 40 	movx.w	#184,	&0x0066a;0x000b8
    a7ac:	b8 00 6a 06 
    a7b0:	40 18 82 43 	movx.w	#0,	&0x0066c;r3 As==00
    a7b4:	6c 06 
    a7b6:	41 18 e2 43 	movx.b	#2,	&0x11934;r3 As==10
    a7ba:	34 19 
    a7bc:	b0 13 f4 a1 	calla	#41460		;0x0a1f4
    a7c0:	b0 13 ee 93 	calla	#37870		;0x093ee

0000a7c4 <.L70>:
    a7c4:	80 00 c4 a7 	mova	#42948,	r0	;0x0a7c4

0000a7c8 <sx1212FifoRead.constprop.35>:
    a7c8:	6a 14       	pushm.a	#7,	r10	;20-bit words
    a7ca:	b1 00 04 00 	suba	#4,	r1	;
    a7ce:	c4 0d       	mova	r13,	r4	;
    a7d0:	ec 0d       	adda	r13,	r12	;
    a7d2:	71 0c 00 00 	mova	r12,	0(r1)	;
    a7d6:	87 01 fa 19 	mova	#72186,	r7	;0x119fa
    a7da:	5a 43       	mov.b	#1,	r10	;r3 As==01
    a7dc:	85 00 a6 8e 	mova	#36518,	r5	;0x08ea6

0000a7e0 <.L2>:
    a7e0:	00 18 64 91 	cmpx.a	@r1,	r4	;
    a7e4:	04 20       	jnz	$+10     	;abs 0xa7ee
    a7e6:	a1 00 04 00 	adda	#4,	r1	;
    a7ea:	64 16       	popm.a	#7,	r10	;20-bit words
    a7ec:	10 01       	reta			;

0000a7ee <.L3>:
    a7ee:	08 07       	mova	@r7,	r8	;
    a7f0:	3c 08 08 00 	mova	8(r8),	r12	;
    a7f4:	c6 0c       	mova	r12,	r6	;
    a7f6:	00 18 76 f0 	andx.a	#4095,	r6	;0x00fff
    a7fa:	ff 0f 
    a7fc:	19 46 02 00 	mov	2(r6),	r9	;
    a800:	0c 14       	pushm.a	#1,	r12	;20-bit words
    a802:	40 18 3c 41 	popx.w	r12		;
    a806:	40 18 3d 41 	popx.w	r13		;
    a80a:	b0 13 e0 b3 	calla	#46048		;0x0b3e0
    a80e:	0d 12       	push	r13		;
    a810:	0c 12       	push	r12		;
    a812:	0c 16       	popm.a	#1,	r12	;20-bit words
    a814:	40 18 0d 4c 	movx.w	r12,	r13	;
    a818:	0c 4a       	mov	r10,	r12	;
    a81a:	b0 13 34 b3 	calla	#45876		;0x0b334
    a81e:	09 cc       	bic	r12,	r9	;
    a820:	86 49 02 00 	mov	r9,	2(r6)	;
    a824:	7d 43       	mov.b	#-1,	r13	;r3 As==11
    a826:	0c 08       	mova	@r8,	r12	;
    a828:	45 13       	calla	r5		;
    a82a:	c4 4c 00 00 	mov.b	r12,	0(r4)	;
    a82e:	0c 07       	mova	@r7,	r12	;
    a830:	3c 0c 08 00 	mova	8(r12),	r12	;
    a834:	c8 0c       	mova	r12,	r8	;
    a836:	00 18 78 f0 	andx.a	#4095,	r8	;0x00fff
    a83a:	ff 0f 
    a83c:	19 48 02 00 	mov	2(r8),	r9	;
    a840:	0c 14       	pushm.a	#1,	r12	;20-bit words
    a842:	40 18 3c 41 	popx.w	r12		;
    a846:	40 18 3d 41 	popx.w	r13		;
    a84a:	b0 13 e0 b3 	calla	#46048		;0x0b3e0
    a84e:	0d 12       	push	r13		;
    a850:	0c 12       	push	r12		;
    a852:	0c 16       	popm.a	#1,	r12	;20-bit words
    a854:	40 18 0d 4c 	movx.w	r12,	r13	;
    a858:	0c 4a       	mov	r10,	r12	;
    a85a:	b0 13 34 b3 	calla	#45876		;0x0b334
    a85e:	0c d9       	bis	r9,	r12	;
    a860:	88 4c 02 00 	mov	r12,	2(r8)	;
    a864:	a4 00 01 00 	adda	#1,	r4	;
    a868:	80 00 e0 a7 	mova	#42976,	r0	;0x0a7e0

0000a86c <chThdResumeI.constprop.104>:
    a86c:	ce 0c       	mova	r12,	r14	;
    a86e:	0c 0c       	mova	@r12,	r12	;
    a870:	4d 43       	clr.b	r13		;
    a872:	dc 0d       	cmpa	r13,	r12	;
    a874:	0f 24       	jz	$+32     	;abs 0xa894
    a876:	ec 93 04 00 	cmp.b	#2,	4(r12)	;r3 As==10
    a87a:	08 24       	jz	$+18     	;abs 0xa88c
    a87c:	b0 13 fe a1 	calla	#41470		;0x0a1fe
    a880:	81 18 f2 40 	movx.a	#67063,	&0x11a36;0x105f7
    a884:	f7 05 36 1a 

0000a888 <.L7>:
    a888:	80 00 88 a8 	mova	#43144,	r0	;0x0a888

0000a88c <.L6>:
    a88c:	7e 0d 00 00 	mova	r13,	0(r14)	;
    a890:	b0 13 a8 91 	calla	#37288		;0x091a8

0000a894 <.L4>:
    a894:	10 01       	reta			;

0000a896 <gptStartOneShotI.constprop.89>:
    a896:	8c 01 22 1a 	mova	#72226,	r12	;0x11a22
    a89a:	3e 0c 02 00 	mova	2(r12),	r14	;
    a89e:	00 18 ce 93 	cmpx.a	#0,	4(r14)	;r3 As==00
    a8a2:	04 00 
    a8a4:	08 20       	jnz	$+18     	;abs 0xa8b6
    a8a6:	b0 13 fe a1 	calla	#41470		;0x0a1fe
    a8aa:	81 18 f2 40 	movx.a	#67046,	&0x11a36;0x105e6
    a8ae:	e6 05 36 1a 

0000a8b2 <.L13>:
    a8b2:	80 00 b2 a8 	mova	#43186,	r0	;0x0a8b2

0000a8b6 <.L12>:
    a8b6:	41 18 e2 93 	cmpx.b	#2,	&0x11a22;r3 As==10
    a8ba:	22 1a 
    a8bc:	08 24       	jz	$+18     	;abs 0xa8ce
    a8be:	b0 13 fe a1 	calla	#41470		;0x0a1fe
    a8c2:	81 18 f2 40 	movx.a	#67046,	&0x11a36;0x105e6
    a8c6:	e6 05 36 1a 

0000a8ca <.L15>:
    a8ca:	80 00 ca a8 	mova	#43210,	r0	;0x0a8ca

0000a8ce <.L14>:
    a8ce:	41 18 e2 42 	movx.b	#4,	&0x11a22;r2 As==10
    a8d2:	22 1a 
    a8d4:	3c 0c 06 00 	mova	6(r12),	r12	;
    a8d8:	bc 40 e8 03 	mov	#1000,	18(r12)	;#0x03e8, 0x0012
    a8dc:	12 00 
    a8de:	2d 4c       	mov	@r12,	r13	;
    a8e0:	3d d0 16 00 	bis	#22,	r13	;#0x0016
    a8e4:	8c 4d 00 00 	mov	r13,	0(r12)	;
    a8e8:	10 01       	reta			;

0000a8ea <sx1278SetRegister.constprop.70>:
    a8ea:	5a 14       	pushm.a	#6,	r10	;20-bit words
    a8ec:	47 4c       	mov.b	r12,	r7	;
    a8ee:	49 4d       	mov.b	r13,	r9	;
    a8f0:	37 b0 7f 00 	bit	#127,	r7	;#0x007f
    a8f4:	08 20       	jnz	$+18     	;abs 0xa906
    a8f6:	b0 13 fe a1 	calla	#41470		;0x0a1fe
    a8fa:	81 18 f2 40 	movx.a	#67028,	&0x11a36;0x105d4
    a8fe:	d4 05 36 1a 

0000a902 <.L18>:
    a902:	80 00 02 a9 	mova	#43266,	r0	;0x0a902

0000a906 <.L17>:
    a906:	77 90 11 00 	cmp.b	#17,	r7	;#0x0011
    a90a:	06 24       	jz	$+14     	;abs 0xa918
    a90c:	77 90 3c 00 	cmp.b	#60,	r7	;#0x003c
    a910:	03 24       	jz	$+8      	;abs 0xa918
    a912:	77 90 42 00 	cmp.b	#66,	r7	;#0x0042
    a916:	08 20       	jnz	$+18     	;abs 0xa928

0000a918 <.L19>:
    a918:	b0 13 fe a1 	calla	#41470		;0x0a1fe
    a91c:	81 18 f2 40 	movx.a	#67028,	&0x11a36;0x105d4
    a920:	d4 05 36 1a 

0000a924 <.L21>:
    a924:	80 00 24 a9 	mova	#43300,	r0	;0x0a924

0000a928 <.L20>:
    a928:	8a 01 16 1a 	mova	#72214,	r10	;0x11a16
    a92c:	06 0a       	mova	@r10,	r6	;
    a92e:	3c 06 22 00 	mova	34(r6),	r12	;0x00022
    a932:	c8 0c       	mova	r12,	r8	;
    a934:	00 18 78 f0 	andx.a	#4095,	r8	;0x00fff
    a938:	ff 0f 
    a93a:	15 48 02 00 	mov	2(r8),	r5	;
    a93e:	0c 14       	pushm.a	#1,	r12	;20-bit words
    a940:	40 18 3c 41 	popx.w	r12		;
    a944:	40 18 3d 41 	popx.w	r13		;
    a948:	b0 13 e0 b3 	calla	#46048		;0x0b3e0
    a94c:	0d 12       	push	r13		;
    a94e:	0c 12       	push	r12		;
    a950:	0c 16       	popm.a	#1,	r12	;20-bit words
    a952:	40 18 0d 4c 	movx.w	r12,	r13	;
    a956:	5c 43       	mov.b	#1,	r12	;r3 As==01
    a958:	b0 13 34 b3 	calla	#45876		;0x0b334
    a95c:	05 cc       	bic	r12,	r5	;
    a95e:	88 45 02 00 	mov	r5,	2(r8)	;
    a962:	88 00 a6 8e 	mova	#36518,	r8	;0x08ea6
    a966:	4d 47       	mov.b	r7,	r13	;
    a968:	7d d0 80 ff 	bis.b	#65408,	r13	;#0xff80
    a96c:	0c 06       	mova	@r6,	r12	;
    a96e:	48 13       	calla	r8		;
    a970:	0c 0a       	mova	@r10,	r12	;
    a972:	4d 49       	mov.b	r9,	r13	;
    a974:	0c 0c       	mova	@r12,	r12	;
    a976:	48 13       	calla	r8		;
    a978:	49 4c       	mov.b	r12,	r9	;
    a97a:	0c 0a       	mova	@r10,	r12	;
    a97c:	3c 0c 22 00 	mova	34(r12),r12	;0x00022
    a980:	ca 0c       	mova	r12,	r10	;
    a982:	00 18 7a f0 	andx.a	#4095,	r10	;0x00fff
    a986:	ff 0f 
    a988:	18 4a 02 00 	mov	2(r10),	r8	;
    a98c:	0c 14       	pushm.a	#1,	r12	;20-bit words
    a98e:	40 18 3c 41 	popx.w	r12		;
    a992:	40 18 3d 41 	popx.w	r13		;
    a996:	b0 13 e0 b3 	calla	#46048		;0x0b3e0
    a99a:	0d 12       	push	r13		;
    a99c:	0c 12       	push	r12		;
    a99e:	0c 16       	popm.a	#1,	r12	;20-bit words
    a9a0:	40 18 0d 4c 	movx.w	r12,	r13	;
    a9a4:	5c 43       	mov.b	#1,	r12	;r3 As==01
    a9a6:	b0 13 34 b3 	calla	#45876		;0x0b334
    a9aa:	0c d8       	bis	r8,	r12	;
    a9ac:	8a 4c 02 00 	mov	r12,	2(r10)	;
    a9b0:	4c 49       	mov.b	r9,	r12	;
    a9b2:	55 16       	popm.a	#6,	r10	;20-bit words
    a9b4:	10 01       	reta			;

0000a9b6 <sx1278SetBitrate.constprop.64>:
    a9b6:	2a 14       	pushm.a	#3,	r10	;20-bit words
    a9b8:	6e 42       	mov.b	#4,	r14	;r2 As==10
    a9ba:	0e 9d       	cmp	r13,	r14	;
    a9bc:	06 28       	jnc	$+14     	;abs 0xa9ca
    a9be:	0d 9e       	cmp	r14,	r13	;
    a9c0:	0c 20       	jnz	$+26     	;abs 0xa9da
    a9c2:	3e 40 df 93 	mov	#37855,	r14	;#0x93df
    a9c6:	0e 9c       	cmp	r12,	r14	;
    a9c8:	08 2c       	jc	$+18     	;abs 0xa9da

0000a9ca <.L32>:
    a9ca:	b0 13 fe a1 	calla	#41470		;0x0a1fe
    a9ce:	81 18 f2 40 	movx.a	#67011,	&0x11a36;0x105c3
    a9d2:	c3 05 36 1a 

0000a9d6 <.L31>:
    a9d6:	80 00 d6 a9 	mova	#43478,	r0	;0x0a9d6

0000a9da <.L29>:
    a9da:	0e 4c       	mov	r12,	r14	;
    a9dc:	0f 4d       	mov	r13,	r15	;
    a9de:	3c 40 00 80 	mov	#32768,	r12	;#0x8000
    a9e2:	3d 40 84 1e 	mov	#7812,	r13	;#0x1e84
    a9e6:	b0 13 fe b2 	calla	#45822		;0x0b2fe
    a9ea:	08 4c       	mov	r12,	r8	;
    a9ec:	b0 13 10 b4 	calla	#46096		;0x0b410
    a9f0:	09 4c       	mov	r12,	r9	;
    a9f2:	8a 00 ea a8 	mova	#43242,	r10	;0x0a8ea
    a9f6:	0d 4c       	mov	r12,	r13	;
    a9f8:	5d 0f       	rrum	#4,	r13	;
    a9fa:	5d 0f       	rrum	#4,	r13	;
    a9fc:	6c 43       	mov.b	#2,	r12	;r3 As==10
    a9fe:	4a 13       	calla	r10		;
    aa00:	4d 49       	mov.b	r9,	r13	;
    aa02:	7c 40 03 00 	mov.b	#3,	r12	;
    aa06:	4a 13       	calla	r10		;
    aa08:	4d 48       	mov.b	r8,	r13	;
    aa0a:	7d f0 0f 00 	and.b	#15,	r13	;#0x000f
    aa0e:	7c 40 5d 00 	mov.b	#93,	r12	;#0x005d
    aa12:	4a 13       	calla	r10		;
    aa14:	28 16       	popm.a	#3,	r10	;20-bit words
    aa16:	10 01       	reta			;

0000aa18 <sx1278SetDeviation.constprop.63>:
    aa18:	1a 14       	pushm.a	#2,	r10	;20-bit words
    aa1a:	7e 40 03 00 	mov.b	#3,	r14	;
    aa1e:	0e 9d       	cmp	r13,	r14	;
    aa20:	06 28       	jnc	$+14     	;abs 0xaa2e
    aa22:	0d 9e       	cmp	r14,	r13	;
    aa24:	0c 20       	jnz	$+26     	;abs 0xaa3e
    aa26:	3e 40 3f 0d 	mov	#3391,	r14	;#0x0d3f
    aa2a:	0e 9c       	cmp	r12,	r14	;
    aa2c:	08 2c       	jc	$+18     	;abs 0xaa3e

0000aa2e <.L37>:
    aa2e:	b0 13 fe a1 	calla	#41470		;0x0a1fe
    aa32:	81 18 f2 40 	movx.a	#66992,	&0x11a36;0x105b0
    aa36:	b0 05 36 1a 

0000aa3a <.L36>:
    aa3a:	80 00 3a aa 	mova	#43578,	r0	;0x0aa3a

0000aa3e <.L34>:
    aa3e:	b0 13 4a b3 	calla	#45898		;0x0b34a
    aa42:	3e 40 48 e8 	mov	#59464,	r14	;#0xe848
    aa46:	5f 43       	mov.b	#1,	r15	;r3 As==01
    aa48:	3c 50 24 f4 	add	#62500,	r12	;#0xf424
    aa4c:	0d 63       	adc	r13		;
    aa4e:	b0 13 fe b2 	calla	#45822		;0x0b2fe
    aa52:	09 4c       	mov	r12,	r9	;
    aa54:	8a 00 ea a8 	mova	#43242,	r10	;0x0a8ea
    aa58:	0d 4c       	mov	r12,	r13	;
    aa5a:	5d 0f       	rrum	#4,	r13	;
    aa5c:	5d 0f       	rrum	#4,	r13	;
    aa5e:	6c 42       	mov.b	#4,	r12	;r2 As==10
    aa60:	4a 13       	calla	r10		;
    aa62:	4d 49       	mov.b	r9,	r13	;
    aa64:	7c 40 05 00 	mov.b	#5,	r12	;
    aa68:	4a 13       	calla	r10		;
    aa6a:	19 16       	popm.a	#2,	r10	;20-bit words
    aa6c:	10 01       	reta			;

0000aa6e <sx1278SetFrequency.constprop.62>:
    aa6e:	4a 14       	pushm.a	#5,	r10	;20-bit words
    aa70:	0a 4c       	mov	r12,	r10	;
    aa72:	09 4d       	mov	r13,	r9	;
    aa74:	3e 40 09 3d 	mov	#15625,	r14	;#0x3d09
    aa78:	4f 43       	clr.b	r15		;
    aa7a:	3c 50 84 1e 	add	#7812,	r12	;#0x1e84
    aa7e:	0d 63       	adc	r13		;
    aa80:	b0 13 fe b2 	calla	#45822		;0x0b2fe
    aa84:	08 4c       	mov	r12,	r8	;
    aa86:	b0 13 56 b3 	calla	#45910		;0x0b356
    aa8a:	07 4c       	mov	r12,	r7	;
    aa8c:	06 4d       	mov	r13,	r6	;
    aa8e:	0d 4a       	mov	r10,	r13	;
    aa90:	3d 50 c0 8b 	add	#35776,	r13	;#0x8bc0
    aa94:	0c 49       	mov	r9,	r12	;
    aa96:	3c 60 d5 f7 	addc	#63445,	r12	;#0xf7d5
    aa9a:	3e 40 43 02 	mov	#579,	r14	;#0x0243
    aa9e:	0e 9c       	cmp	r12,	r14	;
    aaa0:	06 28       	jnc	$+14     	;abs 0xaaae
    aaa2:	0c 9e       	cmp	r14,	r12	;
    aaa4:	14 20       	jnz	$+42     	;abs 0xaace
    aaa6:	3c 40 80 d5 	mov	#54656,	r12	;#0xd580
    aaaa:	0c 9d       	cmp	r13,	r12	;
    aaac:	10 2c       	jc	$+34     	;abs 0xaace

0000aaae <.L50>:
    aaae:	0d 4a       	mov	r10,	r13	;
    aab0:	3d 50 80 e5 	add	#58752,	r13	;#0xe580
    aab4:	0c 49       	mov	r9,	r12	;
    aab6:	3c 60 8f e7 	addc	#59279,	r12	;#0xe78f
    aaba:	3e 40 da 06 	mov	#1754,	r14	;#0x06da
    aabe:	0e 9c       	cmp	r12,	r14	;
    aac0:	17 28       	jnc	$+48     	;abs 0xaaf0
    aac2:	0c 9e       	cmp	r14,	r12	;
    aac4:	04 20       	jnz	$+10     	;abs 0xaace
    aac6:	3c 40 c0 c2 	mov	#49856,	r12	;#0xc2c0
    aaca:	0c 9d       	cmp	r13,	r12	;
    aacc:	11 28       	jnc	$+36     	;abs 0xaaf0

0000aace <.L39>:
    aace:	8c 01 16 1a 	mova	#72214,	r12	;0x11a16
    aad2:	fc d2 05 00 	bis.b	#8,	5(r12)	;r2 As==11

0000aad6 <.L43>:
    aad6:	09 46       	mov	r6,	r9	;
    aad8:	39 f0 00 ff 	and	#65280,	r9	;#0xff00
    aadc:	09 93       	cmp	#0,	r9	;r3 As==00
    aade:	24 24       	jz	$+74     	;abs 0xab28
    aae0:	b0 13 fe a1 	calla	#41470		;0x0a1fe
    aae4:	81 18 f2 40 	movx.a	#66973,	&0x11a36;0x1059d
    aae8:	9d 05 36 1a 

0000aaec <.L49>:
    aaec:	80 00 ec aa 	mova	#43756,	r0	;0x0aaec

0000aaf0 <.L41>:
    aaf0:	3a 50 80 ec 	add	#60544,	r10	;#0xec80
    aaf4:	39 60 9e cc 	addc	#52382,	r9	;#0xcc9e
    aaf8:	3e 40 6a 09 	mov	#2410,	r14	;#0x096a
    aafc:	0e 99       	cmp	r9,	r14	;
    aafe:	0c 28       	jnc	$+26     	;abs 0xab18
    ab00:	09 9e       	cmp	r14,	r9	;
    ab02:	04 20       	jnz	$+10     	;abs 0xab0c
    ab04:	3c 40 80 e3 	mov	#58240,	r12	;#0xe380
    ab08:	0c 9a       	cmp	r10,	r12	;
    ab0a:	06 28       	jnc	$+14     	;abs 0xab18

0000ab0c <.L51>:
    ab0c:	8c 01 16 1a 	mova	#72214,	r12	;0x11a16
    ab10:	fc c2 05 00 	bic.b	#8,	5(r12)	;r2 As==11
    ab14:	80 00 d6 aa 	mova	#43734,	r0	;0x0aad6

0000ab18 <.L44>:
    ab18:	b0 13 fe a1 	calla	#41470		;0x0a1fe
    ab1c:	81 18 f2 40 	movx.a	#66973,	&0x11a36;0x1059d
    ab20:	9d 05 36 1a 

0000ab24 <.L46>:
    ab24:	80 00 24 ab 	mova	#43812,	r0	;0x0ab24

0000ab28 <.L47>:
    ab28:	8a 00 ea a8 	mova	#43242,	r10	;0x0a8ea
    ab2c:	c0 18 5d 42 	movx.b	&0x11a1b,r13	;
    ab30:	1b 1a 
    ab32:	5c 43       	mov.b	#1,	r12	;r3 As==01
    ab34:	4a 13       	calla	r10		;
    ab36:	0c 47       	mov	r7,	r12	;
    ab38:	0d 46       	mov	r6,	r13	;
    ab3a:	7e 40 10 00 	mov.b	#16,	r14	;#0x0010
    ab3e:	b0 13 32 b4 	calla	#46130		;0x0b432
    ab42:	4d 4c       	mov.b	r12,	r13	;
    ab44:	7c 40 06 00 	mov.b	#6,	r12	;
    ab48:	4a 13       	calla	r10		;
    ab4a:	4d 48       	mov.b	r8,	r13	;
    ab4c:	7c 40 07 00 	mov.b	#7,	r12	;
    ab50:	4a 13       	calla	r10		;
    ab52:	4d 49       	mov.b	r9,	r13	;
    ab54:	7c 42       	mov.b	#8,	r12	;r2 As==11
    ab56:	4a 13       	calla	r10		;
    ab58:	46 16       	popm.a	#5,	r10	;20-bit words
    ab5a:	10 01       	reta			;

0000ab5c <sx1278SetSync.constprop.59>:
    ab5c:	4a 14       	pushm.a	#5,	r10	;20-bit words
    ab5e:	08 4c       	mov	r12,	r8	;
    ab60:	07 4d       	mov	r13,	r7	;
    ab62:	0c dd       	bis	r13,	r12	;
    ab64:	0c 93       	cmp	#0,	r12	;r3 As==00
    ab66:	2d 24       	jz	$+92     	;abs 0xabc2
    ab68:	2c 01 16 1a 	mova	&72214,	r12	;0x11a16
    ab6c:	3c 0c 26 00 	mova	38(r12),r12	;0x00026
    ab70:	6d 4c       	mov.b	@r12,	r13	;
    ab72:	7d f0 20 00 	and.b	#32,	r13	;#0x0020
    ab76:	86 00 ea a8 	mova	#43242,	r6	;0x0a8ea
    ab7a:	7d d0 93 ff 	bis.b	#65427,	r13	;#0xff93
    ab7e:	7c 40 27 00 	mov.b	#39,	r12	;#0x0027
    ab82:	46 13       	calla	r6		;
    ab84:	7a 40 28 00 	mov.b	#40,	r10	;#0x0028
    ab88:	79 40 18 00 	mov.b	#24,	r9	;#0x0018

0000ab8c <.L56>:
    ab8c:	0c 48       	mov	r8,	r12	;
    ab8e:	0d 47       	mov	r7,	r13	;
    ab90:	0e 49       	mov	r9,	r14	;
    ab92:	0f 43       	clr	r15		;
    ab94:	b0 13 32 b4 	calla	#46130		;0x0b432
    ab98:	4c 93       	cmp.b	#0,	r12	;r3 As==00
    ab9a:	08 20       	jnz	$+18     	;abs 0xabac
    ab9c:	b0 13 fe a1 	calla	#41470		;0x0a1fe
    aba0:	81 18 f2 40 	movx.a	#66959,	&0x11a36;0x1058f
    aba4:	8f 05 36 1a 

0000aba8 <.L55>:
    aba8:	80 00 a8 ab 	mova	#43944,	r0	;0x0aba8

0000abac <.L54>:
    abac:	4d 4c       	mov.b	r12,	r13	;
    abae:	4c 4a       	mov.b	r10,	r12	;
    abb0:	46 13       	calla	r6		;
    abb2:	39 50 f8 ff 	add	#65528,	r9	;#0xfff8
    abb6:	4c 4a       	mov.b	r10,	r12	;
    abb8:	5c 53       	inc.b	r12		;
    abba:	4a 4c       	mov.b	r12,	r10	;
    abbc:	7c 90 2c 00 	cmp.b	#44,	r12	;#0x002c
    abc0:	e5 23       	jnz	$-52     	;abs 0xab8c

0000abc2 <.L52>:
    abc2:	46 16       	popm.a	#5,	r10	;20-bit words
    abc4:	10 01       	reta			;

0000abc6 <sx1212SetRegister.isra.0.constprop.52>:
    abc6:	5a 14       	pushm.a	#6,	r10	;20-bit words
    abc8:	49 4c       	mov.b	r12,	r9	;
    abca:	47 4d       	mov.b	r13,	r7	;
    abcc:	7c 40 1e 00 	mov.b	#30,	r12	;#0x001e
    abd0:	4c 99       	cmp.b	r9,	r12	;
    abd2:	08 2c       	jc	$+18     	;abs 0xabe4
    abd4:	b0 13 fe a1 	calla	#41470		;0x0a1fe
    abd8:	81 18 f2 40 	movx.a	#66941,	&0x11a36;0x1057d
    abdc:	7d 05 36 1a 

0000abe0 <.L61>:
    abe0:	80 00 e0 ab 	mova	#44000,	r0	;0x0abe0

0000abe4 <.L60>:
    abe4:	39 90 14 00 	cmp	#20,	r9	;#0x0014
    abe8:	08 20       	jnz	$+18     	;abs 0xabfa
    abea:	b0 13 fe a1 	calla	#41470		;0x0a1fe
    abee:	81 18 f2 40 	movx.a	#66941,	&0x11a36;0x1057d
    abf2:	7d 05 36 1a 

0000abf6 <.L63>:
    abf6:	80 00 f6 ab 	mova	#44022,	r0	;0x0abf6

0000abfa <.L62>:
    abfa:	49 59       	rla.b	r9		;
    abfc:	8a 01 fa 19 	mova	#72186,	r10	;0x119fa
    ac00:	0c 0a       	mova	@r10,	r12	;
    ac02:	06 0c       	mova	@r12,	r6	;
    ac04:	3c 06 02 00 	mova	2(r6),	r12	;
    ac08:	3c 0c 04 00 	mova	4(r12),	r12	;
    ac0c:	9c 00 00 00 	cmpa	#0,	r12	;
    ac10:	18 24       	jz	$+50     	;abs 0xac42
    ac12:	c8 0c       	mova	r12,	r8	;
    ac14:	00 18 78 f0 	andx.a	#4095,	r8	;0x00fff
    ac18:	ff 0f 
    ac1a:	15 48 02 00 	mov	2(r8),	r5	;
    ac1e:	0c 14       	pushm.a	#1,	r12	;20-bit words
    ac20:	40 18 3c 41 	popx.w	r12		;
    ac24:	40 18 3d 41 	popx.w	r13		;
    ac28:	b0 13 e0 b3 	calla	#46048		;0x0b3e0
    ac2c:	0d 12       	push	r13		;
    ac2e:	0c 12       	push	r12		;
    ac30:	0c 16       	popm.a	#1,	r12	;20-bit words
    ac32:	40 18 0d 4c 	movx.w	r12,	r13	;
    ac36:	5c 43       	mov.b	#1,	r12	;r3 As==01
    ac38:	b0 13 34 b3 	calla	#45876		;0x0b334
    ac3c:	05 cc       	bic	r12,	r5	;
    ac3e:	88 45 02 00 	mov	r5,	2(r8)	;

0000ac42 <.L64>:
    ac42:	88 00 a6 8e 	mova	#36518,	r8	;0x08ea6
    ac46:	4d 49       	mov.b	r9,	r13	;
    ac48:	cc 06       	mova	r6,	r12	;
    ac4a:	48 13       	calla	r8		;
    ac4c:	0c 0a       	mova	@r10,	r12	;
    ac4e:	4d 47       	mov.b	r7,	r13	;
    ac50:	0c 0c       	mova	@r12,	r12	;
    ac52:	48 13       	calla	r8		;
    ac54:	49 4c       	mov.b	r12,	r9	;
    ac56:	0c 0a       	mova	@r10,	r12	;
    ac58:	0c 0c       	mova	@r12,	r12	;
    ac5a:	b0 13 06 8c 	calla	#35846		;0x08c06
    ac5e:	4c 49       	mov.b	r9,	r12	;
    ac60:	55 16       	popm.a	#6,	r10	;20-bit words
    ac62:	10 01       	reta			;

0000ac64 <sx1212SetMode.constprop.51>:
    ac64:	8e 01 fa 19 	mova	#72186,	r14	;0x119fa
    ac68:	5d 4e 04 00 	mov.b	4(r14),	r13	;
    ac6c:	7d f0 1f 00 	and.b	#31,	r13	;#0x001f
    ac70:	4d dc       	bis.b	r12,	r13	;
    ac72:	ce 4d 04 00 	mov.b	r13,	4(r14)	;
    ac76:	4c 43       	clr.b	r12		;
    ac78:	b0 13 c6 ab 	calla	#43974		;0x0abc6
    ac7c:	10 01       	reta			;

0000ac7e <sx1212SetSync.constprop.40>:
    ac7e:	4a 14       	pushm.a	#5,	r10	;20-bit words
    ac80:	06 4c       	mov	r12,	r6	;
    ac82:	07 4d       	mov	r13,	r7	;
    ac84:	7a 40 16 00 	mov.b	#22,	r10	;#0x0016
    ac88:	79 40 18 00 	mov.b	#24,	r9	;#0x0018
    ac8c:	88 00 c6 ab 	mova	#43974,	r8	;0x0abc6

0000ac90 <.L70>:
    ac90:	0c 46       	mov	r6,	r12	;
    ac92:	0d 47       	mov	r7,	r13	;
    ac94:	0e 49       	mov	r9,	r14	;
    ac96:	0f 43       	clr	r15		;
    ac98:	b0 13 32 b4 	calla	#46130		;0x0b432
    ac9c:	4d 4c       	mov.b	r12,	r13	;
    ac9e:	4c 4a       	mov.b	r10,	r12	;
    aca0:	48 13       	calla	r8		;
    aca2:	39 50 f8 ff 	add	#65528,	r9	;#0xfff8
    aca6:	4c 4a       	mov.b	r10,	r12	;
    aca8:	5c 53       	inc.b	r12		;
    acaa:	4a 4c       	mov.b	r12,	r10	;
    acac:	7c 90 1a 00 	cmp.b	#26,	r12	;#0x001a
    acb0:	ef 23       	jnz	$-32     	;abs 0xac90
    acb2:	46 16       	popm.a	#5,	r10	;20-bit words
    acb4:	10 01       	reta			;

0000acb6 <sx1212SetBitrate.constprop.43>:
    acb6:	6a 14       	pushm.a	#7,	r10	;20-bit words
    acb8:	b1 00 0a 00 	suba	#10,	r1	;0x0000a
    acbc:	6e 43       	mov.b	#2,	r14	;r3 As==10
    acbe:	0e 9d       	cmp	r13,	r14	;
    acc0:	06 28       	jnc	$+14     	;abs 0xacce
    acc2:	0d 9e       	cmp	r14,	r13	;
    acc4:	0c 20       	jnz	$+26     	;abs 0xacde
    acc6:	3e 40 ef 49 	mov	#18927,	r14	;#0x49ef
    acca:	0e 9c       	cmp	r12,	r14	;
    accc:	08 2c       	jc	$+18     	;abs 0xacde

0000acce <.L84>:
    acce:	b0 13 fe a1 	calla	#41470		;0x0a1fe
    acd2:	81 18 f2 40 	movx.a	#66924,	&0x11a36;0x1056c
    acd6:	6c 05 36 1a 

0000acda <.L75>:
    acda:	80 00 da ac 	mova	#44250,	r0	;0x0acda

0000acde <.L73>:
    acde:	86 00 fe b2 	mova	#45822,	r6	;0x0b2fe
    ace2:	0e 4c       	mov	r12,	r14	;
    ace4:	0f 4d       	mov	r13,	r15	;
    ace6:	3c 40 00 a8 	mov	#43008,	r12	;#0xa800
    acea:	7d 40 61 00 	mov.b	#97,	r13	;#0x0061
    acee:	46 13       	calla	r6		;
    acf0:	0a 4c       	mov	r12,	r10	;
    acf2:	08 4d       	mov	r13,	r8	;
    acf4:	3c 53       	add	#-1,	r12	;r3 As==11
    acf6:	09 4d       	mov	r13,	r9	;
    acf8:	39 63       	addc	#-1,	r9	;r3 As==11
    acfa:	c5 06       	mova	r6,	r5	;
    acfc:	09 93       	cmp	#0,	r9	;r3 As==00
    acfe:	11 20       	jnz	$+36     	;abs 0xad22
    ad00:	7d 40 ff 00 	mov.b	#255,	r13	;#0x00ff
    ad04:	0d 9c       	cmp	r12,	r13	;
    ad06:	0d 28       	jnc	$+28     	;abs 0xad22
    ad08:	88 00 c6 ab 	mova	#43974,	r8	;0x0abc6
    ad0c:	4d 4a       	mov.b	r10,	r13	;
    ad0e:	7c 40 03 00 	mov.b	#3,	r12	;
    ad12:	48 13       	calla	r8		;
    ad14:	4d 49       	mov.b	r9,	r13	;
    ad16:	6c 42       	mov.b	#4,	r12	;r2 As==10
    ad18:	48 13       	calla	r8		;

0000ad1a <.L72>:
    ad1a:	a1 00 0a 00 	adda	#10,	r1	;0x0000a
    ad1e:	64 16       	popm.a	#7,	r10	;20-bit words
    ad20:	10 01       	reta			;

0000ad22 <.L76>:
    ad22:	7e 40 ff 00 	mov.b	#255,	r14	;#0x00ff
    ad26:	4f 43       	clr.b	r15		;
    ad28:	0c 4a       	mov	r10,	r12	;
    ad2a:	0d 48       	mov	r8,	r13	;
    ad2c:	45 13       	calla	r5		;
    ad2e:	06 4c       	mov	r12,	r6	;
    ad30:	16 53       	inc	r6		;
    ad32:	49 43       	clr.b	r9		;
    ad34:	07 49       	mov	r9,	r7	;
    ad36:	84 00 60 b4 	mova	#46176,	r4	;0x0b460
    ad3a:	81 4a 08 00 	mov	r10,	8(r1)	;

0000ad3e <.L79>:
    ad3e:	7c 40 5c 00 	mov.b	#92,	r12	;#0x005c
    ad42:	0c 96       	cmp	r6,	r12	;
    ad44:	0b 2c       	jc	$+24     	;abs 0xad5c

0000ad46 <.L81>:
    ad46:	8a 00 c6 ab 	mova	#43974,	r10	;0x0abc6
    ad4a:	4d 47       	mov.b	r7,	r13	;
    ad4c:	7c 40 03 00 	mov.b	#3,	r12	;
    ad50:	4a 13       	calla	r10		;
    ad52:	4d 49       	mov.b	r9,	r13	;
    ad54:	6c 42       	mov.b	#4,	r12	;r2 As==10
    ad56:	4a 13       	calla	r10		;
    ad58:	80 00 1a ad 	mova	#44314,	r0	;0x0ad1a

0000ad5c <.L83>:
    ad5c:	0e 46       	mov	r6,	r14	;
    ad5e:	0f 43       	clr	r15		;
    ad60:	0c 4a       	mov	r10,	r12	;
    ad62:	0d 48       	mov	r8,	r13	;
    ad64:	45 13       	calla	r5		;
    ad66:	4e 4c       	mov.b	r12,	r14	;
    ad68:	4f 46       	mov.b	r6,	r15	;
    ad6a:	0d 4f       	mov	r15,	r13	;
    ad6c:	0c 4e       	mov	r14,	r12	;
    ad6e:	71 0e 04 00 	mova	r14,	4(r1)	;
    ad72:	71 0f 00 00 	mova	r15,	0(r1)	;
    ad76:	44 13       	calla	r4		;
    ad78:	4d 4a       	mov.b	r10,	r13	;
    ad7a:	4d 8c       	sub.b	r12,	r13	;
    ad7c:	4c 4d       	mov.b	r13,	r12	;
    ad7e:	3d f0 ff 00 	and	#255,	r13	;#0x00ff
    ad82:	3e 01 04 00 	mova	4(r1),	r14	;
    ad86:	0f 01       	mova	@r1,	r15	;
    ad88:	7c 93       	cmp.b	#-1,	r12	;r3 As==11
    ad8a:	06 24       	jz	$+14     	;abs 0xad98
    ad8c:	7f 53       	add.b	#-1,	r15	;r3 As==11
    ad8e:	47 4f       	mov.b	r15,	r7	;
    ad90:	7e 53       	add.b	#-1,	r14	;r3 As==11
    ad92:	49 4e       	mov.b	r14,	r9	;
    ad94:	0d 93       	cmp	#0,	r13	;r3 As==00
    ad96:	d7 27       	jz	$-80     	;abs 0xad46

0000ad98 <.L80>:
    ad98:	0d 46       	mov	r6,	r13	;
    ad9a:	0c 46       	mov	r6,	r12	;
    ad9c:	44 13       	calla	r4		;
    ad9e:	4e 43       	clr.b	r14		;
    ada0:	0e 98       	cmp	r8,	r14	;
    ada2:	03 20       	jnz	$+8      	;abs 0xadaa
    ada4:	81 9c 08 00 	cmp	r12,	8(r1)	;
    ada8:	ce 2b       	jnc	$-98     	;abs 0xad46

0000adaa <.L86>:
    adaa:	16 53       	inc	r6		;
    adac:	80 00 3e ad 	mova	#44350,	r0	;0x0ad3e

0000adb0 <sx1212SetDeviation.constprop.42>:
    adb0:	0a 14       	pushm.a	#1,	r10	;20-bit words
    adb2:	7e 40 03 00 	mov.b	#3,	r14	;
    adb6:	0e 9d       	cmp	r13,	r14	;
    adb8:	07 28       	jnc	$+16     	;abs 0xadc8
    adba:	3d 90 03 00 	cmp	#3,	r13	;
    adbe:	0c 20       	jnz	$+26     	;abs 0xadd8
    adc0:	3e 40 3f 0d 	mov	#3391,	r14	;#0x0d3f
    adc4:	0e 9c       	cmp	r12,	r14	;
    adc6:	08 2c       	jc	$+18     	;abs 0xadd8

0000adc8 <.L97>:
    adc8:	b0 13 fe a1 	calla	#41470		;0x0a1fe
    adcc:	81 18 f2 40 	movx.a	#66905,	&0x11a36;0x10559
    add0:	59 05 36 1a 

0000add4 <.L96>:
    add4:	80 00 d4 ad 	mova	#44500,	r0	;0x0add4

0000add8 <.L94>:
    add8:	0a 4c       	mov	r12,	r10	;
    adda:	0b 4d       	mov	r13,	r11	;
    addc:	12 c3       	clrc			
    adde:	0b 10       	rrc	r11		;
    ade0:	0a 10       	rrc	r10		;
    ade2:	0e 4c       	mov	r12,	r14	;
    ade4:	0f 4d       	mov	r13,	r15	;
    ade6:	0c 4a       	mov	r10,	r12	;
    ade8:	3c 50 80 1a 	add	#6784,	r12	;#0x1a80
    adec:	0d 4b       	mov	r11,	r13	;
    adee:	3d 60 06 00 	addc	#6,	r13	;
    adf2:	b0 13 fe b2 	calla	#45822		;0x0b2fe
    adf6:	4d 4c       	mov.b	r12,	r13	;
    adf8:	7d 53       	add.b	#-1,	r13	;r3 As==11
    adfa:	6c 43       	mov.b	#2,	r12	;r3 As==10
    adfc:	b0 13 c6 ab 	calla	#43974		;0x0abc6
    ae00:	0a 16       	popm.a	#1,	r10	;20-bit words
    ae02:	10 01       	reta			;

0000ae04 <sx1212SetFrequency.constprop.41>:
    ae04:	6a 14       	pushm.a	#7,	r10	;20-bit words
    ae06:	b1 00 10 00 	suba	#16,	r1	;0x00010
    ae0a:	09 4c       	mov	r12,	r9	;
    ae0c:	05 4d       	mov	r13,	r5	;
    ae0e:	3c 50 00 5d 	add	#23808,	r12	;#0x5d00
    ae12:	81 4c 00 00 	mov	r12,	0(r1)	;
    ae16:	04 4d       	mov	r13,	r4	;
    ae18:	34 60 1e ee 	addc	#60958,	r4	;#0xee1e
    ae1c:	3d 40 84 0c 	mov	#3204,	r13	;#0x0c84
    ae20:	0d 94       	cmp	r4,	r13	;
    ae22:	06 28       	jnc	$+14     	;abs 0xae30
    ae24:	04 9d       	cmp	r13,	r4	;
    ae26:	0c 20       	jnz	$+26     	;abs 0xae40
    ae28:	3e 40 80 58 	mov	#22656,	r14	;#0x5880
    ae2c:	2e 91       	cmp	@r1,	r14	;
    ae2e:	08 2c       	jc	$+18     	;abs 0xae40

0000ae30 <.L132>:
    ae30:	b0 13 fe a1 	calla	#41470		;0x0a1fe
    ae34:	81 18 f2 40 	movx.a	#66886,	&0x11a36;0x10546
    ae38:	46 05 36 1a 

0000ae3c <.L101>:
    ae3c:	80 00 3c ae 	mova	#44604,	r0	;0x0ae3c

0000ae40 <.L99>:
    ae40:	0c 49       	mov	r9,	r12	;
    ae42:	0d 45       	mov	r5,	r13	;
    ae44:	b0 13 6a b3 	calla	#45930		;0x0b36a
    ae48:	81 4c 02 00 	mov	r12,	2(r1)	;
    ae4c:	81 4d 04 00 	mov	r13,	4(r1)	;
    ae50:	0a 4c       	mov	r12,	r10	;
    ae52:	0b 4d       	mov	r13,	r11	;
    ae54:	4e 43       	clr.b	r14		;
    ae56:	3c 40 00 d0 	mov	#53248,	r12	;#0xd000
    ae5a:	3d 40 dd 06 	mov	#1757,	r13	;#0x06dd

0000ae5e <.L102>:
    ae5e:	0f 4a       	mov	r10,	r15	;
    ae60:	0f dc       	bis	r12,	r15	;
    ae62:	40 18 1f b3 	bitx.w	#1,	r15	;r3 As==01
    ae66:	ab 24       	jz	$+344    	;abs 0xafbe

0000ae68 <.L105>:
    ae68:	0f 4a       	mov	r10,	r15	;
    ae6a:	5f f3       	and.b	#1,	r15	;r3 As==01
    ae6c:	0f 93       	cmp	#0,	r15	;r3 As==00
    ae6e:	b0 24       	jz	$+354    	;abs 0xafd0

0000ae70 <.L108>:
    ae70:	0f 4c       	mov	r12,	r15	;
    ae72:	5f f3       	and.b	#1,	r15	;r3 As==01
    ae74:	0f 93       	cmp	#0,	r15	;r3 As==00
    ae76:	b1 24       	jz	$+356    	;abs 0xafda
    ae78:	0d 9b       	cmp	r11,	r13	;
    ae7a:	0a 28       	jnc	$+22     	;abs 0xae90
    ae7c:	0b 9d       	cmp	r13,	r11	;
    ae7e:	02 20       	jnz	$+6      	;abs 0xae84
    ae80:	0c 9a       	cmp	r10,	r12	;
    ae82:	06 28       	jnc	$+14     	;abs 0xae90

0000ae84 <.L133>:
    ae84:	06 4c       	mov	r12,	r6	;
    ae86:	07 4d       	mov	r13,	r7	;
    ae88:	0c 4a       	mov	r10,	r12	;
    ae8a:	0d 4b       	mov	r11,	r13	;
    ae8c:	0a 46       	mov	r6,	r10	;
    ae8e:	0b 47       	mov	r7,	r11	;

0000ae90 <.L111>:
    ae90:	06 4a       	mov	r10,	r6	;
    ae92:	07 4b       	mov	r11,	r7	;
    ae94:	40 18 06 8c 	subx.w	r12,	r6	;
    ae98:	40 18 07 7d 	subcx.w	r13,	r7	;
    ae9c:	0f 46       	mov	r6,	r15	;
    ae9e:	0f d7       	bis	r7,	r15	;
    aea0:	0f 93       	cmp	#0,	r15	;r3 As==00
    aea2:	a2 20       	jnz	$+326    	;abs 0xafe8
    aea4:	0f 43       	clr	r15		;
    aea6:	b0 13 7e b3 	calla	#45950		;0x0b37e
    aeaa:	81 4c 0a 00 	mov	r12,	10(r1)	; 0x000a
    aeae:	81 4d 0c 00 	mov	r13,	12(r1)	; 0x000c
    aeb2:	0e 4c       	mov	r12,	r14	;
    aeb4:	0f 4d       	mov	r13,	r15	;
    aeb6:	3c 40 00 d0 	mov	#53248,	r12	;#0xd000
    aeba:	3d 40 dd 06 	mov	#1757,	r13	;#0x06dd
    aebe:	b0 13 fe b2 	calla	#45822		;0x0b2fe
    aec2:	81 4c 06 00 	mov	r12,	6(r1)	;
    aec6:	81 4d 08 00 	mov	r13,	8(r1)	;

0000aeca <.L114>:
    aeca:	0d 93       	cmp	#0,	r13	;r3 As==00
    aecc:	93 20       	jnz	$+296    	;abs 0xaff4
    aece:	7e 40 a9 00 	mov.b	#169,	r14	;#0x00a9
    aed2:	0e 9c       	cmp	r12,	r14	;
    aed4:	8f 28       	jnc	$+288    	;abs 0xaff4
    aed6:	47 4c       	mov.b	r12,	r7	;
    aed8:	4a 47       	mov.b	r7,	r10	;
    aeda:	7a 53       	add.b	#-1,	r10	;r3 As==11

0000aedc <.L140>:
    aedc:	3a f0 ff 00 	and	#255,	r10	;#0x00ff
    aee0:	4c 4a       	mov.b	r10,	r12	;
    aee2:	7c 50 c0 ff 	add.b	#65472,	r12	;#0xffc0
    aee6:	7d 40 69 00 	mov.b	#105,	r13	;#0x0069
    aeea:	4d 9c       	cmp.b	r12,	r13	;
    aeec:	88 28       	jnc	$+274    	;abs 0xaffe
    aeee:	4a 87       	sub.b	r7,	r10	;
    aef0:	3a f0 ff 00 	and	#255,	r10	;#0x00ff
    aef4:	86 00 fe b2 	mova	#45822,	r6	;0x0b2fe

0000aef8 <.L119>:
    aef8:	4c 47       	mov.b	r7,	r12	;
    aefa:	4c 5a       	add.b	r10,	r12	;
    aefc:	4a 4c       	mov.b	r12,	r10	;
    aefe:	7c 50 c0 ff 	add.b	#65472,	r12	;#0xffc0
    af02:	7e 40 69 00 	mov.b	#105,	r14	;#0x0069
    af06:	4e 9c       	cmp.b	r12,	r14	;
    af08:	f7 2b       	jnc	$-16     	;abs 0xaef8
    af0a:	1e 41 0a 00 	mov	10(r1),	r14	;0x0000a
    af0e:	1f 41 0c 00 	mov	12(r1),	r15	;0x0000c
    af12:	1c 41 02 00 	mov	2(r1),	r12	;
    af16:	1d 41 04 00 	mov	4(r1),	r13	;
    af1a:	46 13       	calla	r6		;
    af1c:	0e 4a       	mov	r10,	r14	;
    af1e:	1e 53       	inc	r14		;
    af20:	3e b0 00 80 	bit	#32768,	r14	;#0x8000
    af24:	0f 7f       	subc	r15,	r15	;
    af26:	3f e3       	inv	r15		;
    af28:	b0 13 76 b4 	calla	#46198		;0x0b476
    af2c:	1e 41 06 00 	mov	6(r1),	r14	;
    af30:	1f 41 08 00 	mov	8(r1),	r15	;
    af34:	46 13       	calla	r6		;
    af36:	81 4c 0e 00 	mov	r12,	14(r1)	; 0x000e
    af3a:	7e 40 4b 00 	mov.b	#75,	r14	;#0x004b
    af3e:	4f 43       	clr.b	r15		;
    af40:	46 13       	calla	r6		;
    af42:	48 4c       	mov.b	r12,	r8	;
    af44:	78 53       	add.b	#-1,	r8	;r3 As==11
    af46:	4c 48       	mov.b	r8,	r12	;
    af48:	7d 40 4b 00 	mov.b	#75,	r13	;#0x004b
    af4c:	1c 53       	inc	r12		;
    af4e:	b0 13 60 b4 	calla	#46176		;0x0b460
    af52:	1d 41 0e 00 	mov	14(r1),	r13	;0x0000e
    af56:	4d 8c       	sub.b	r12,	r13	;
    af58:	48 9d       	cmp.b	r13,	r8	;
    af5a:	ce 2b       	jnc	$-98     	;abs 0xaef8
    af5c:	88 00 c6 ab 	mova	#43974,	r8	;0x0abc6
    af60:	7d 40 74 00 	mov.b	#116,	r13	;#0x0074
    af64:	7c 40 06 00 	mov.b	#6,	r12	;
    af68:	48 13       	calla	r8		;
    af6a:	7d 40 31 00 	mov.b	#49,	r13	;#0x0031
    af6e:	7c 40 07 00 	mov.b	#7,	r12	;
    af72:	48 13       	calla	r8		;
    af74:	7d 40 14 00 	mov.b	#20,	r13	;#0x0014
    af78:	7c 42       	mov.b	#8,	r12	;r2 As==11
    af7a:	48 13       	calla	r8		;
    af7c:	8a 01 fa 19 	mova	#72186,	r10	;0x119fa
    af80:	3e 40 c9 01 	mov	#457,	r14	;#0x01c9
    af84:	0e 94       	cmp	r4,	r14	;
    af86:	3e 28       	jnc	$+126    	;abs 0xb004
    af88:	04 9e       	cmp	r14,	r4	;
    af8a:	04 20       	jnz	$+10     	;abs 0xaf94
    af8c:	3c 40 80 c3 	mov	#50048,	r12	;#0xc380
    af90:	2c 91       	cmp	@r1,	r12	;
    af92:	38 28       	jnc	$+114    	;abs 0xb004

0000af94 <.L135>:
    af94:	59 4a 04 00 	mov.b	4(r10),	r9	;
    af98:	79 f0 e0 ff 	and.b	#65504,	r9	;#0xffe0
    af9c:	3e 40 e0 70 	mov	#28896,	r14	;#0x70e0
    afa0:	7f 40 72 00 	mov.b	#114,	r15	;#0x0072
    afa4:	2c 41       	mov	@r1,	r12	;
    afa6:	0d 44       	mov	r4,	r13	;

0000afa8 <.L143>:
    afa8:	46 13       	calla	r6		;
    afaa:	4d 49       	mov.b	r9,	r13	;

0000afac <.L141>:
    afac:	4d dc       	bis.b	r12,	r13	;
    afae:	ca 4d 04 00 	mov.b	r13,	4(r10)	;
    afb2:	4c 43       	clr.b	r12		;
    afb4:	48 13       	calla	r8		;
    afb6:	a1 00 10 00 	adda	#16,	r1	;0x00010
    afba:	64 16       	popm.a	#7,	r10	;20-bit words
    afbc:	10 01       	reta			;

0000afbe <.L103>:
    afbe:	12 c3       	clrc			
    afc0:	0b 10       	rrc	r11		;
    afc2:	0a 10       	rrc	r10		;
    afc4:	12 c3       	clrc			
    afc6:	0d 10       	rrc	r13		;
    afc8:	0c 10       	rrc	r12		;
    afca:	1e 53       	inc	r14		;
    afcc:	80 00 5e ae 	mova	#44638,	r0	;0x0ae5e

0000afd0 <.L106>:
    afd0:	12 c3       	clrc			
    afd2:	0b 10       	rrc	r11		;
    afd4:	0a 10       	rrc	r10		;
    afd6:	80 00 68 ae 	mova	#44648,	r0	;0x0ae68

0000afda <.L109>:
    afda:	06 4c       	mov	r12,	r6	;
    afdc:	07 4d       	mov	r13,	r7	;
    afde:	12 c3       	clrc			
    afe0:	07 10       	rrc	r7		;
    afe2:	06 10       	rrc	r6		;
    afe4:	0c 4a       	mov	r10,	r12	;
    afe6:	0d 4b       	mov	r11,	r13	;

0000afe8 <.L113>:
    afe8:	0a 4c       	mov	r12,	r10	;
    afea:	0b 4d       	mov	r13,	r11	;
    afec:	0c 46       	mov	r6,	r12	;
    afee:	0d 47       	mov	r7,	r13	;
    aff0:	80 00 70 ae 	mova	#44656,	r0	;0x0ae70

0000aff4 <.L115>:
    aff4:	3c 50 b5 ff 	add	#65461,	r12	;#0xffb5
    aff8:	3d 63       	addc	#-1,	r13	;r3 As==11
    affa:	80 00 ca ae 	mova	#44746,	r0	;0x0aeca

0000affe <.L118>:
    affe:	4a 57       	add.b	r7,	r10	;
    b000:	80 00 dc ae 	mova	#44764,	r0	;0x0aedc

0000b004 <.L121>:
    b004:	0c 49       	mov	r9,	r12	;
    b006:	3c 50 00 30 	add	#12288,	r12	;#0x3000
    b00a:	0d 45       	mov	r5,	r13	;
    b00c:	3d 60 ed ec 	addc	#60653,	r13	;#0xeced
    b010:	3e 40 c9 01 	mov	#457,	r14	;#0x01c9
    b014:	0e 9d       	cmp	r13,	r14	;
    b016:	12 28       	jnc	$+38     	;abs 0xb03c
    b018:	3d 90 c9 01 	cmp	#457,	r13	;#0x01c9
    b01c:	04 20       	jnz	$+10     	;abs 0xb026
    b01e:	3e 40 80 c3 	mov	#50048,	r14	;#0xc380
    b022:	0e 9c       	cmp	r12,	r14	;
    b024:	0b 28       	jnc	$+24     	;abs 0xb03c

0000b026 <.L136>:
    b026:	59 4a 04 00 	mov.b	4(r10),	r9	;
    b02a:	79 f0 e0 ff 	and.b	#65504,	r9	;#0xffe0
    b02e:	69 d2       	bis.b	#4,	r9	;r2 As==10
    b030:	3e 40 e0 70 	mov	#28896,	r14	;#0x70e0
    b034:	7f 40 72 00 	mov.b	#114,	r15	;#0x0072
    b038:	80 00 a8 af 	mova	#44968,	r0	;0x0afa8

0000b03c <.L124>:
    b03c:	0c 49       	mov	r9,	r12	;
    b03e:	3c 50 80 6c 	add	#27776,	r12	;#0x6c80
    b042:	0d 45       	mov	r5,	r13	;
    b044:	3d 60 23 eb 	addc	#60195,	r13	;#0xeb23
    b048:	3e 40 62 02 	mov	#610,	r14	;#0x0262
    b04c:	0e 9d       	cmp	r13,	r14	;
    b04e:	12 28       	jnc	$+38     	;abs 0xb074
    b050:	3d 90 62 02 	cmp	#610,	r13	;#0x0262
    b054:	04 20       	jnz	$+10     	;abs 0xb05e
    b056:	3e 40 00 5a 	mov	#23040,	r14	;#0x5a00
    b05a:	0e 9c       	cmp	r12,	r14	;
    b05c:	0b 28       	jnc	$+24     	;abs 0xb074

0000b05e <.L137>:
    b05e:	59 4a 04 00 	mov.b	4(r10),	r9	;
    b062:	79 f0 e0 ff 	and.b	#65504,	r9	;#0xffe0
    b066:	79 d2       	bis.b	#8,	r9	;r2 As==11

0000b068 <.L142>:
    b068:	3e 40 80 96 	mov	#38528,	r14	;#0x9680
    b06c:	7f 40 98 00 	mov.b	#152,	r15	;#0x0098
    b070:	80 00 a8 af 	mova	#44968,	r0	;0x0afa8

0000b074 <.L126>:
    b074:	0c 49       	mov	r9,	r12	;
    b076:	3c 50 80 12 	add	#4736,	r12	;#0x1280
    b07a:	0d 45       	mov	r5,	r13	;
    b07c:	3d 60 c1 e8 	addc	#59585,	r13	;#0xe8c1
    b080:	3e 40 62 02 	mov	#610,	r14	;#0x0262
    b084:	0e 9d       	cmp	r13,	r14	;
    b086:	0f 28       	jnc	$+32     	;abs 0xb0a6
    b088:	3d 90 62 02 	cmp	#610,	r13	;#0x0262
    b08c:	04 20       	jnz	$+10     	;abs 0xb096
    b08e:	3e 40 00 5a 	mov	#23040,	r14	;#0x5a00
    b092:	0e 9c       	cmp	r12,	r14	;
    b094:	08 28       	jnc	$+18     	;abs 0xb0a6

0000b096 <.L138>:
    b096:	59 4a 04 00 	mov.b	4(r10),	r9	;
    b09a:	79 f0 e0 ff 	and.b	#65504,	r9	;#0xffe0
    b09e:	79 d0 0c 00 	bis.b	#12,	r9	;#0x000c
    b0a2:	80 00 68 b0 	mova	#45160,	r0	;0x0b068

0000b0a6 <.L128>:
    b0a6:	0c 49       	mov	r9,	r12	;
    b0a8:	3c 50 80 b8 	add	#47232,	r12	;#0xb880
    b0ac:	0d 45       	mov	r5,	r13	;
    b0ae:	3d 60 5e e6 	addc	#58974,	r13	;#0xe65e
    b0b2:	3e 40 62 02 	mov	#610,	r14	;#0x0262
    b0b6:	0e 9d       	cmp	r13,	r14	;
    b0b8:	0f 28       	jnc	$+32     	;abs 0xb0d8
    b0ba:	3d 90 62 02 	cmp	#610,	r13	;#0x0262
    b0be:	04 20       	jnz	$+10     	;abs 0xb0c8
    b0c0:	3e 40 00 5a 	mov	#23040,	r14	;#0x5a00
    b0c4:	0e 9c       	cmp	r12,	r14	;
    b0c6:	08 28       	jnc	$+18     	;abs 0xb0d8

0000b0c8 <.L139>:
    b0c8:	59 4a 04 00 	mov.b	4(r10),	r9	;
    b0cc:	79 f0 e0 ff 	and.b	#65504,	r9	;#0xffe0
    b0d0:	79 d0 10 00 	bis.b	#16,	r9	;#0x0010
    b0d4:	80 00 68 b0 	mova	#45160,	r0	;0x0b068

0000b0d8 <.L130>:
    b0d8:	57 4a 04 00 	mov.b	4(r10),	r7	;
    b0dc:	77 f0 e0 ff 	and.b	#65504,	r7	;#0xffe0
    b0e0:	77 d0 14 00 	bis.b	#20,	r7	;#0x0014
    b0e4:	3e 40 80 96 	mov	#38528,	r14	;#0x9680
    b0e8:	7f 40 98 00 	mov.b	#152,	r15	;#0x0098
    b0ec:	0c 49       	mov	r9,	r12	;
    b0ee:	3c 50 80 5e 	add	#24192,	r12	;#0x5e80
    b0f2:	0d 45       	mov	r5,	r13	;
    b0f4:	3d 60 fc e3 	addc	#58364,	r13	;#0xe3fc
    b0f8:	46 13       	calla	r6		;
    b0fa:	4d 47       	mov.b	r7,	r13	;
    b0fc:	80 00 ac af 	mova	#44972,	r0	;0x0afac

0000b100 <sx1212SetRxBw.constprop.39>:
    b100:	3c f0 ff 00 	and	#255,	r12	;#0x00ff
    b104:	7d 40 0f 00 	mov.b	#15,	r13	;#0x000f
    b108:	4d 9c       	cmp.b	r12,	r13	;
    b10a:	08 2c       	jc	$+18     	;abs 0xb11c
    b10c:	b0 13 fe a1 	calla	#41470		;0x0a1fe
    b110:	81 18 f2 40 	movx.a	#66872,	&0x11a36;0x10538
    b114:	38 05 36 1a 

0000b118 <.L146>:
    b118:	80 00 18 b1 	mova	#45336,	r0	;0x0b118

0000b11c <.L145>:
    b11c:	0d 4c       	mov	r12,	r13	;
    b11e:	4d 0e       	rlam.a	#4,	r13	;
    b120:	4d 0d       	rram.a	#4,	r13	;
    b122:	c0 18 5d 4d 	movx.b	66856(r13),r13	;0x10528
    b126:	28 05 
    b128:	43 18 0d 5d 	rpt #4 { rlax.w	r13		;
    b12c:	4d dc       	bis.b	r12,	r13	;
    b12e:	7c 40 10 00 	mov.b	#16,	r12	;#0x0010
    b132:	b0 13 c6 ab 	calla	#43974		;0x0abc6
    b136:	10 01       	reta			;

0000b138 <sx1212ReceiveI.constprop.37>:
    b138:	0a 14       	pushm.a	#1,	r10	;20-bit words
    b13a:	7d 40 3f 00 	mov.b	#63,	r13	;#0x003f
    b13e:	dd 0c       	cmpa	r12,	r13	;
    b140:	08 2c       	jc	$+18     	;abs 0xb152
    b142:	b0 13 fe a1 	calla	#41470		;0x0a1fe
    b146:	81 18 f2 40 	movx.a	#66841,	&0x11a36;0x10519
    b14a:	19 05 36 1a 

0000b14e <.L149>:
    b14e:	80 00 4e b1 	mova	#45390,	r0	;0x0b14e

0000b152 <.L148>:
    b152:	c0 1f b2 f0 	andx.w	#-1025,	&0x00238;0xffbff
    b156:	ff fb 38 02 
    b15a:	c0 1f b2 f0 	andx.w	#-1025,	&0x0023c;0xffbff
    b15e:	ff fb 3c 02 
    b162:	40 18 b2 d0 	bisx.w	#1024,	&0x0023a;0x00400
    b166:	00 04 3a 02 
    b16a:	4a 4c       	mov.b	r12,	r10	;
    b16c:	7a d0 c0 ff 	bis.b	#65472,	r10	;#0xffc0
    b170:	4d 4a       	mov.b	r10,	r13	;
    b172:	7c 40 0c 00 	mov.b	#12,	r12	;#0x000c
    b176:	b0 13 c6 ab 	calla	#43974		;0x0abc6
    b17a:	41 18 c2 4a 	movx.b	r10,	&0x119ff;
    b17e:	ff 19 
    b180:	0a 16       	popm.a	#1,	r10	;20-bit words
    b182:	10 01       	reta			;

0000b184 <nl_route.constprop.31>:
    b184:	0a 14       	pushm.a	#1,	r10	;20-bit words
    b186:	08 14       	pushm.a	#1,	r8	;20-bit words
    b188:	06 14       	pushm.a	#1,	r6	;20-bit words
    b18a:	ca 0c       	mova	r12,	r10	;
    b18c:	c8 0d       	mova	r13,	r8	;
    b18e:	c6 0e       	mova	r14,	r6	;
    b190:	b0 13 06 a2 	calla	#41478		;0x0a206
    b194:	4c 93       	cmp.b	#0,	r12	;r3 As==00
    b196:	07 20       	jnz	$+16     	;abs 0xb1a6
    b198:	cc 0a       	mova	r10,	r12	;
    b19a:	b0 13 56 a4 	calla	#42070		;0x0a456

0000b19e <.L150>:
    b19e:	06 16       	popm.a	#1,	r6	;20-bit words
    b1a0:	08 16       	popm.a	#1,	r8	;20-bit words
    b1a2:	0a 16       	popm.a	#1,	r10	;20-bit words
    b1a4:	10 01       	reta			;

0000b1a6 <.L151>:
    b1a6:	6e 4a       	mov.b	@r10,	r14	;
    b1a8:	0d 4e       	mov	r14,	r13	;
    b1aa:	47 18 0d 5d 	rpt #8 { rlax.w	r13		;
    b1ae:	3d f0 00 07 	and	#1792,	r13	;#0x0700
    b1b2:	5c 4a 01 00 	mov.b	1(r10),	r12	;
    b1b6:	0d dc       	bis	r12,	r13	;
    b1b8:	8c 00 8c dc 	mova	#56460,	r12	;0x0dc8c
    b1bc:	5f 4c 51 00 	mov.b	81(r12),r15	;0x00051
    b1c0:	47 18 0f 5f 	rpt #8 { rlax.w	r15		;
    b1c4:	5c 4c 50 00 	mov.b	80(r12),r12	;0x00050
    b1c8:	0c df       	bis	r15,	r12	;
    b1ca:	0d 9c       	cmp	r12,	r13	;
    b1cc:	23 20       	jnz	$+72     	;abs 0xb214
    b1ce:	40 18 3e b0 	bitx.w	#16,	r14	;0x00010
    b1d2:	10 00 
    b1d4:	0e 24       	jz	$+30     	;abs 0xb1f2
    b1d6:	cc 0a       	mova	r10,	r12	;
    b1d8:	b0 13 d8 a2 	calla	#41688		;0x0a2d8
    b1dc:	9c 00 00 00 	cmpa	#0,	r12	;
    b1e0:	de 27       	jz	$-66     	;abs 0xb19e
    b1e2:	b0 13 fe a1 	calla	#41470		;0x0a1fe
    b1e6:	81 18 f2 40 	movx.a	#66832,	&0x11a36;0x10510
    b1ea:	10 05 36 1a 

0000b1ee <.L156>:
    b1ee:	80 00 ee b1 	mova	#45550,	r0	;0x0b1ee

0000b1f2 <.L154>:
    b1f2:	7e d0 10 00 	bis.b	#16,	r14	;#0x0010
    b1f6:	ca 4e 00 00 	mov.b	r14,	0(r10)	;
    b1fa:	cc 0a       	mova	r10,	r12	;
    b1fc:	46 13       	calla	r6		;
    b1fe:	9c 00 00 00 	cmpa	#0,	r12	;
    b202:	cd 27       	jz	$-100    	;abs 0xb19e
    b204:	b0 13 fe a1 	calla	#41470		;0x0a1fe
    b208:	81 18 f2 40 	movx.a	#66832,	&0x11a36;0x10510
    b20c:	10 05 36 1a 

0000b210 <.L157>:
    b210:	80 00 10 b2 	mova	#45584,	r0	;0x0b210

0000b214 <.L153>:
    b214:	cc 0a       	mova	r10,	r12	;
    b216:	48 13       	calla	r8		;
    b218:	9c 00 00 00 	cmpa	#0,	r12	;
    b21c:	c0 27       	jz	$-126    	;abs 0xb19e
    b21e:	b0 13 fe a1 	calla	#41470		;0x0a1fe
    b222:	81 18 f2 40 	movx.a	#66832,	&0x11a36;0x10510
    b226:	10 05 36 1a 

0000b22a <.L158>:
    b22a:	80 00 2a b2 	mova	#45610,	r0	;0x0b22a

0000b22e <elyFramGetRequestTimeoutS.constprop.25>:
    b22e:	0a 14       	pushm.a	#1,	r10	;20-bit words
    b230:	08 14       	pushm.a	#1,	r8	;20-bit words
    b232:	ca 0c       	mova	r12,	r10	;
    b234:	4d 43       	clr.b	r13		;
    b236:	8c 00 98 dd 	mova	#56728,	r12	;0x0dd98
    b23a:	b0 13 56 91 	calla	#37206		;0x09156
    b23e:	c8 0c       	mova	r12,	r8	;
    b240:	9c 00 00 00 	cmpa	#0,	r12	;
    b244:	13 20       	jnz	$+40     	;abs 0xb26c
    b246:	8c 00 8c dd 	mova	#56716,	r12	;0x0dd8c
    b24a:	b0 13 aa 90 	calla	#37034		;0x090aa
    b24e:	7a 0c 00 00 	mova	r12,	0(r10)	;
    b252:	9c 00 00 00 	cmpa	#0,	r12	;
    b256:	08 20       	jnz	$+18     	;abs 0xb268
    b258:	b0 13 fe a1 	calla	#41470		;0x0a1fe
    b25c:	81 18 f2 40 	movx.a	#66806,	&0x11a36;0x104f6
    b260:	f6 04 36 1a 

0000b264 <.L171>:
    b264:	80 00 64 b2 	mova	#45668,	r0	;0x0b264

0000b268 <.L170>:
    b268:	dc c3 04 00 	bic.b	#1,	4(r12)	;r3 As==01

0000b26c <.L168>:
    b26c:	cc 08       	mova	r8,	r12	;
    b26e:	08 16       	popm.a	#1,	r8	;20-bit words
    b270:	0a 16       	popm.a	#1,	r10	;20-bit words
    b272:	10 01       	reta			;

0000b274 <udivmodsi4>:
    b274:	5a 14       	pushm.a	#6,	r10	;20-bit words

0000b276 <.LCFI0>:
    b276:	0a 4c       	mov	r12,	r10	;
    b278:	0b 4d       	mov	r13,	r11	;

0000b27a <.LVL1>:
    b27a:	7d 40 21 00 	mov.b	#33,	r13	;#0x0021

0000b27e <.Loc.35.1>:
    b27e:	58 43       	mov.b	#1,	r8	;r3 As==01
    b280:	49 43       	clr.b	r9		;

0000b282 <.Loc.38.1>:
    b282:	07 4b       	mov	r11,	r7	;

0000b284 <.L2>:
    b284:	0f 9b       	cmp	r11,	r15	;
    b286:	11 28       	jnc	$+36     	;abs 0xb2aa
    b288:	07 9f       	cmp	r15,	r7	;
    b28a:	02 20       	jnz	$+6      	;abs 0xb290
    b28c:	0e 9a       	cmp	r10,	r14	;
    b28e:	0d 28       	jnc	$+28     	;abs 0xb2aa

0000b290 <.L20>:
    b290:	4c 43       	clr.b	r12		;

0000b292 <.LVL3>:
    b292:	0d 4c       	mov	r12,	r13	;

0000b294 <.L5>:
    b294:	07 48       	mov	r8,	r7	;
    b296:	07 d9       	bis	r9,	r7	;
    b298:	07 93       	cmp	#0,	r7	;r3 As==00
    b29a:	1a 20       	jnz	$+54     	;abs 0xb2d0

0000b29c <.L6>:
    b29c:	81 93 1c 00 	cmp	#0,	28(r1)	;r3 As==00, 0x001c
    b2a0:	02 24       	jz	$+6      	;abs 0xb2a6
    b2a2:	0c 4a       	mov	r10,	r12	;
    b2a4:	0d 4b       	mov	r11,	r13	;

0000b2a6 <.L1>:
    b2a6:	55 16       	popm.a	#6,	r10	;20-bit words
    b2a8:	10 01       	reta			;

0000b2aa <.L3>:
    b2aa:	3d 53       	add	#-1,	r13	;r3 As==11

0000b2ac <.Loc.38.1>:
    b2ac:	0d 93       	cmp	#0,	r13	;r3 As==00
    b2ae:	24 24       	jz	$+74     	;abs 0xb2f8

0000b2b0 <.Loc.38.1>:
    b2b0:	0f 93       	cmp	#0,	r15	;r3 As==00
    b2b2:	ee 3b       	jl	$-34     	;abs 0xb290

0000b2b4 <.Loc.40.1>:
    b2b4:	05 4e       	mov	r14,	r5	;
    b2b6:	06 4f       	mov	r15,	r6	;
    b2b8:	05 5e       	add	r14,	r5	;
    b2ba:	06 6f       	addc	r15,	r6	;
    b2bc:	0e 45       	mov	r5,	r14	;

0000b2be <.LVL7>:
    b2be:	0f 46       	mov	r6,	r15	;

0000b2c0 <.LVL8>:
    b2c0:	05 48       	mov	r8,	r5	;
    b2c2:	06 49       	mov	r9,	r6	;
    b2c4:	05 58       	add	r8,	r5	;
    b2c6:	06 69       	addc	r9,	r6	;
    b2c8:	08 45       	mov	r5,	r8	;

0000b2ca <.LVL9>:
    b2ca:	09 46       	mov	r6,	r9	;

0000b2cc <.LVL10>:
    b2cc:	80 00 84 b2 	mova	#45700,	r0	;0x0b284

0000b2d0 <.L12>:
    b2d0:	0b 9f       	cmp	r15,	r11	;
    b2d2:	0a 28       	jnc	$+22     	;abs 0xb2e8
    b2d4:	0f 9b       	cmp	r11,	r15	;
    b2d6:	02 20       	jnz	$+6      	;abs 0xb2dc
    b2d8:	0a 9e       	cmp	r14,	r10	;
    b2da:	06 28       	jnc	$+14     	;abs 0xb2e8

0000b2dc <.L16>:
    b2dc:	40 18 0a 8e 	subx.w	r14,	r10	;
    b2e0:	40 18 0b 7f 	subcx.w	r15,	r11	;

0000b2e4 <.Loc.48.1>:
    b2e4:	0c d8       	bis	r8,	r12	;

0000b2e6 <.LVL13>:
    b2e6:	0d d9       	bis	r9,	r13	;

0000b2e8 <.L10>:
    b2e8:	12 c3       	clrc			
    b2ea:	09 10       	rrc	r9		;
    b2ec:	08 10       	rrc	r8		;

0000b2ee <.Loc.51.1>:
    b2ee:	12 c3       	clrc			
    b2f0:	0f 10       	rrc	r15		;
    b2f2:	0e 10       	rrc	r14		;
    b2f4:	80 00 94 b2 	mova	#45716,	r0	;0x0b294

0000b2f8 <.L14>:
    b2f8:	0c 4d       	mov	r13,	r12	;

0000b2fa <.LVL18>:
    b2fa:	80 00 9c b2 	mova	#45724,	r0	;0x0b29c

0000b2fe <__mspabi_divlu>:
    b2fe:	b1 00 02 00 	suba	#2,	r1	;

0000b302 <.LCFI5>:
    b302:	81 43 00 00 	mov	#0,	0(r1)	;r3 As==00
    b306:	b0 13 74 b2 	calla	#45684		;0x0b274

0000b30a <.LVL46>:
    b30a:	a1 00 02 00 	adda	#2,	r1	;
    b30e:	10 01       	reta			;

0000b310 <__mspabi_slli_15>:
    b310:	0c 5c       	rla	r12		;

0000b312 <__mspabi_slli_14>:
    b312:	0c 5c       	rla	r12		;

0000b314 <__mspabi_slli_13>:
    b314:	0c 5c       	rla	r12		;

0000b316 <__mspabi_slli_12>:
    b316:	0c 5c       	rla	r12		;

0000b318 <__mspabi_slli_11>:
    b318:	0c 5c       	rla	r12		;

0000b31a <__mspabi_slli_10>:
    b31a:	0c 5c       	rla	r12		;

0000b31c <__mspabi_slli_9>:
    b31c:	0c 5c       	rla	r12		;

0000b31e <__mspabi_slli_8>:
    b31e:	0c 5c       	rla	r12		;

0000b320 <__mspabi_slli_7>:
    b320:	0c 5c       	rla	r12		;

0000b322 <__mspabi_slli_6>:
    b322:	0c 5c       	rla	r12		;

0000b324 <__mspabi_slli_5>:
    b324:	0c 5c       	rla	r12		;

0000b326 <__mspabi_slli_4>:
    b326:	0c 5c       	rla	r12		;

0000b328 <__mspabi_slli_3>:
    b328:	0c 5c       	rla	r12		;

0000b32a <__mspabi_slli_2>:
    b32a:	0c 5c       	rla	r12		;

0000b32c <__mspabi_slli_1>:
    b32c:	0c 5c       	rla	r12		;
    b32e:	10 01       	reta			;

0000b330 <.L11>:
    b330:	3d 53       	add	#-1,	r13	;r3 As==11
    b332:	0c 5c       	rla	r12		;

0000b334 <__mspabi_slli>:
    b334:	0d 93       	cmp	#0,	r13	;r3 As==00
    b336:	fc 23       	jnz	$-6      	;abs 0xb330
    b338:	10 01       	reta			;

0000b33a <__mspabi_slll_15>:
    b33a:	0c 5c       	rla	r12		;
    b33c:	0d 6d       	rlc	r13		;

0000b33e <__mspabi_slll_14>:
    b33e:	0c 5c       	rla	r12		;
    b340:	0d 6d       	rlc	r13		;

0000b342 <__mspabi_slll_13>:
    b342:	0c 5c       	rla	r12		;
    b344:	0d 6d       	rlc	r13		;

0000b346 <__mspabi_slll_12>:
    b346:	0c 5c       	rla	r12		;
    b348:	0d 6d       	rlc	r13		;

0000b34a <__mspabi_slll_11>:
    b34a:	0c 5c       	rla	r12		;
    b34c:	0d 6d       	rlc	r13		;

0000b34e <__mspabi_slll_10>:
    b34e:	0c 5c       	rla	r12		;
    b350:	0d 6d       	rlc	r13		;

0000b352 <__mspabi_slll_9>:
    b352:	0c 5c       	rla	r12		;
    b354:	0d 6d       	rlc	r13		;

0000b356 <__mspabi_slll_8>:
    b356:	0c 5c       	rla	r12		;
    b358:	0d 6d       	rlc	r13		;

0000b35a <__mspabi_slll_7>:
    b35a:	0c 5c       	rla	r12		;
    b35c:	0d 6d       	rlc	r13		;

0000b35e <__mspabi_slll_6>:
    b35e:	0c 5c       	rla	r12		;
    b360:	0d 6d       	rlc	r13		;

0000b362 <__mspabi_slll_5>:
    b362:	0c 5c       	rla	r12		;
    b364:	0d 6d       	rlc	r13		;

0000b366 <__mspabi_slll_4>:
    b366:	0c 5c       	rla	r12		;
    b368:	0d 6d       	rlc	r13		;

0000b36a <__mspabi_slll_3>:
    b36a:	0c 5c       	rla	r12		;
    b36c:	0d 6d       	rlc	r13		;

0000b36e <__mspabi_slll_2>:
    b36e:	0c 5c       	rla	r12		;
    b370:	0d 6d       	rlc	r13		;

0000b372 <__mspabi_slll_1>:
    b372:	0c 5c       	rla	r12		;
    b374:	0d 6d       	rlc	r13		;
    b376:	10 01       	reta			;

0000b378 <.L12>:
    b378:	3e 53       	add	#-1,	r14	;r3 As==11
    b37a:	0c 5c       	rla	r12		;
    b37c:	0d 6d       	rlc	r13		;

0000b37e <__mspabi_slll>:
    b37e:	0e 93       	cmp	#0,	r14	;r3 As==00
    b380:	fb 23       	jnz	$-8      	;abs 0xb378
    b382:	10 01       	reta			;

0000b384 <__mspabi_srli_15>:
    b384:	12 c3       	clrc			
    b386:	0c 10       	rrc	r12		;

0000b388 <__mspabi_srli_14>:
    b388:	12 c3       	clrc			
    b38a:	0c 10       	rrc	r12		;

0000b38c <__mspabi_srli_13>:
    b38c:	12 c3       	clrc			
    b38e:	0c 10       	rrc	r12		;

0000b390 <__mspabi_srli_12>:
    b390:	12 c3       	clrc			
    b392:	0c 10       	rrc	r12		;

0000b394 <__mspabi_srli_11>:
    b394:	12 c3       	clrc			
    b396:	0c 10       	rrc	r12		;

0000b398 <__mspabi_srli_10>:
    b398:	12 c3       	clrc			
    b39a:	0c 10       	rrc	r12		;

0000b39c <__mspabi_srli_9>:
    b39c:	12 c3       	clrc			
    b39e:	0c 10       	rrc	r12		;

0000b3a0 <__mspabi_srli_8>:
    b3a0:	12 c3       	clrc			
    b3a2:	0c 10       	rrc	r12		;

0000b3a4 <__mspabi_srli_7>:
    b3a4:	12 c3       	clrc			
    b3a6:	0c 10       	rrc	r12		;

0000b3a8 <__mspabi_srli_6>:
    b3a8:	12 c3       	clrc			
    b3aa:	0c 10       	rrc	r12		;

0000b3ac <__mspabi_srli_5>:
    b3ac:	12 c3       	clrc			
    b3ae:	0c 10       	rrc	r12		;

0000b3b0 <__mspabi_srli_4>:
    b3b0:	12 c3       	clrc			
    b3b2:	0c 10       	rrc	r12		;

0000b3b4 <__mspabi_srli_3>:
    b3b4:	12 c3       	clrc			
    b3b6:	0c 10       	rrc	r12		;

0000b3b8 <__mspabi_srli_2>:
    b3b8:	12 c3       	clrc			
    b3ba:	0c 10       	rrc	r12		;

0000b3bc <__mspabi_srli_1>:
    b3bc:	12 c3       	clrc			
    b3be:	0c 10       	rrc	r12		;
    b3c0:	10 01       	reta			;

0000b3c2 <.L11>:
    b3c2:	3d 53       	add	#-1,	r13	;r3 As==11
    b3c4:	12 c3       	clrc			
    b3c6:	0c 10       	rrc	r12		;

0000b3c8 <__mspabi_srli>:
    b3c8:	0d 93       	cmp	#0,	r13	;r3 As==00
    b3ca:	fb 23       	jnz	$-8      	;abs 0xb3c2
    b3cc:	10 01       	reta			;

0000b3ce <__mspabi_srll_15>:
    b3ce:	12 c3       	clrc			
    b3d0:	0d 10       	rrc	r13		;
    b3d2:	0c 10       	rrc	r12		;

0000b3d4 <__mspabi_srll_14>:
    b3d4:	12 c3       	clrc			
    b3d6:	0d 10       	rrc	r13		;
    b3d8:	0c 10       	rrc	r12		;

0000b3da <__mspabi_srll_13>:
    b3da:	12 c3       	clrc			
    b3dc:	0d 10       	rrc	r13		;
    b3de:	0c 10       	rrc	r12		;

0000b3e0 <__mspabi_srll_12>:
    b3e0:	12 c3       	clrc			
    b3e2:	0d 10       	rrc	r13		;
    b3e4:	0c 10       	rrc	r12		;

0000b3e6 <__mspabi_srll_11>:
    b3e6:	12 c3       	clrc			
    b3e8:	0d 10       	rrc	r13		;
    b3ea:	0c 10       	rrc	r12		;

0000b3ec <__mspabi_srll_10>:
    b3ec:	12 c3       	clrc			
    b3ee:	0d 10       	rrc	r13		;
    b3f0:	0c 10       	rrc	r12		;

0000b3f2 <__mspabi_srll_9>:
    b3f2:	12 c3       	clrc			
    b3f4:	0d 10       	rrc	r13		;
    b3f6:	0c 10       	rrc	r12		;

0000b3f8 <__mspabi_srll_8>:
    b3f8:	12 c3       	clrc			
    b3fa:	0d 10       	rrc	r13		;
    b3fc:	0c 10       	rrc	r12		;

0000b3fe <__mspabi_srll_7>:
    b3fe:	12 c3       	clrc			
    b400:	0d 10       	rrc	r13		;
    b402:	0c 10       	rrc	r12		;

0000b404 <__mspabi_srll_6>:
    b404:	12 c3       	clrc			
    b406:	0d 10       	rrc	r13		;
    b408:	0c 10       	rrc	r12		;

0000b40a <__mspabi_srll_5>:
    b40a:	12 c3       	clrc			
    b40c:	0d 10       	rrc	r13		;
    b40e:	0c 10       	rrc	r12		;

0000b410 <__mspabi_srll_4>:
    b410:	12 c3       	clrc			
    b412:	0d 10       	rrc	r13		;
    b414:	0c 10       	rrc	r12		;

0000b416 <__mspabi_srll_3>:
    b416:	12 c3       	clrc			
    b418:	0d 10       	rrc	r13		;
    b41a:	0c 10       	rrc	r12		;

0000b41c <__mspabi_srll_2>:
    b41c:	12 c3       	clrc			
    b41e:	0d 10       	rrc	r13		;
    b420:	0c 10       	rrc	r12		;

0000b422 <__mspabi_srll_1>:
    b422:	12 c3       	clrc			
    b424:	0d 10       	rrc	r13		;
    b426:	0c 10       	rrc	r12		;
    b428:	10 01       	reta			;

0000b42a <.L12>:
    b42a:	3e 53       	add	#-1,	r14	;r3 As==11
    b42c:	12 c3       	clrc			
    b42e:	0d 10       	rrc	r13		;
    b430:	0c 10       	rrc	r12		;

0000b432 <__mspabi_srll>:
    b432:	0e 93       	cmp	#0,	r14	;r3 As==00
    b434:	fa 23       	jnz	$-10     	;abs 0xb42a
    b436:	10 01       	reta			;

0000b438 <__cmpsi2>:
    b438:	0f 9d       	cmp	r13,	r15	;
    b43a:	05 24       	jz	$+12     	;abs 0xb446
    b43c:	02 34       	jge	$+6      	;abs 0xb442

0000b43e <.L_greater_than>:
    b43e:	2c 43       	mov	#2,	r12	;r3 As==10
    b440:	10 01       	reta			;

0000b442 <.L_less_than>:
    b442:	0c 43       	clr	r12		;
    b444:	10 01       	reta			;

0000b446 <.L_compare_low>:
    b446:	0e 9c       	cmp	r12,	r14	;
    b448:	fa 3b       	jl	$-10     	;abs 0xb43e
    b44a:	fb 23       	jnz	$-8      	;abs 0xb442
    b44c:	1c 43       	mov	#1,	r12	;r3 As==01
    b44e:	10 01       	reta			;

0000b450 <__ucmpsi2>:
    b450:	0d 93       	cmp	#0,	r13	;r3 As==00
    b452:	03 30       	jn	$+8      	;abs 0xb45a
    b454:	0f 93       	cmp	#0,	r15	;r3 As==00
    b456:	f5 33       	jn	$-20     	;abs 0xb442
    b458:	ef 2f       	jc	$-32     	;abs 0xb438

0000b45a <.L_top_bit_set_in_A>:
    b45a:	0f 93       	cmp	#0,	r15	;r3 As==00
    b45c:	ed 33       	jn	$-36     	;abs 0xb438
    b45e:	ef 2f       	jc	$-32     	;abs 0xb43e

0000b460 <__mspabi_mpyi>:
    b460:	02 12       	push	r2		;
    b462:	32 c2       	dint			
    b464:	03 43       	nop			
    b466:	82 4c c0 04 	mov	r12,	&0x04c0	;
    b46a:	82 4d c8 04 	mov	r13,	&0x04c8	;
    b46e:	1c 42 ca 04 	mov	&0x04ca,r12	;0x04ca
    b472:	32 41       	pop	r2		;
    b474:	10 01       	reta			;

0000b476 <__mspabi_mpyl>:
    b476:	02 12       	push	r2		;
    b478:	32 c2       	dint			
    b47a:	03 43       	nop			
    b47c:	82 4c d0 04 	mov	r12,	&0x04d0	;
    b480:	82 4d d2 04 	mov	r13,	&0x04d2	;
    b484:	82 4e e0 04 	mov	r14,	&0x04e0	;
    b488:	82 4f e2 04 	mov	r15,	&0x04e2	;
    b48c:	1c 42 e4 04 	mov	&0x04e4,r12	;0x04e4
    b490:	1d 42 e6 04 	mov	&0x04e6,r13	;0x04e6
    b494:	32 41       	pop	r2		;
    b496:	10 01       	reta			;

0000b498 <memcpy>:
    b498:	0a 14       	pushm.a	#1,	r10	;20-bit words

0000b49a <.LCFI0>:
    b49a:	ca 0c       	mova	r12,	r10	;
    b49c:	ee 0c       	adda	r12,	r14	;

0000b49e <.L2>:
    b49e:	da 0e       	cmpa	r14,	r10	;
    b4a0:	02 20       	jnz	$+6      	;abs 0xb4a6

0000b4a2 <.Loc.111.1>:
    b4a2:	0a 16       	popm.a	#1,	r10	;20-bit words
    b4a4:	10 01       	reta			;

0000b4a6 <.L3>:
    b4a6:	ea 4d 00 00 	mov.b	@r13,	0(r10)	;
    b4aa:	aa 00 01 00 	adda	#1,	r10	;

0000b4ae <.LVL4>:
    b4ae:	ad 00 01 00 	adda	#1,	r13	;
    b4b2:	80 00 9e b4 	mova	#46238,	r0	;0x0b49e

0000b4b6 <memset>:
    b4b6:	0a 14       	pushm.a	#1,	r10	;20-bit words

0000b4b8 <.LCFI0>:
    b4b8:	ca 0c       	mova	r12,	r10	;
    b4ba:	ee 0c       	adda	r12,	r14	;

0000b4bc <.L2>:
    b4bc:	da 0e       	cmpa	r14,	r10	;
    b4be:	02 20       	jnz	$+6      	;abs 0xb4c4

0000b4c0 <.Loc.104.1>:
    b4c0:	0a 16       	popm.a	#1,	r10	;20-bit words
    b4c2:	10 01       	reta			;

0000b4c4 <.L3>:
    b4c4:	ca 4d 00 00 	mov.b	r13,	0(r10)	;
    b4c8:	aa 00 01 00 	adda	#1,	r10	;

0000b4cc <.LVL4>:
    b4cc:	80 00 bc b4 	mova	#46268,	r0	;0x0b4bc

0000b4d0 <memmove>:
    b4d0:	0a 14       	pushm.a	#1,	r10	;20-bit words

0000b4d2 <.LCFI0>:
    b4d2:	08 14       	pushm.a	#1,	r8	;20-bit words

0000b4d4 <.LCFI1>:
    b4d4:	06 14       	pushm.a	#1,	r6	;20-bit words

0000b4d6 <.LCFI2>:
    b4d6:	c8 0c       	mova	r12,	r8	;
    b4d8:	e8 0e       	adda	r14,	r8	;

0000b4da <.Loc.69.1>:
    b4da:	dd 0c       	cmpa	r12,	r13	;
    b4dc:	0c 28       	jnc	$+26     	;abs 0xb4f6

0000b4de <.L4>:
    b4de:	ce 0c       	mova	r12,	r14	;

0000b4e0 <.LVL2>:
    b4e0:	ca 0d       	mova	r13,	r10	;

0000b4e2 <.L3>:
    b4e2:	d8 0e       	cmpa	r14,	r8	;
    b4e4:	12 24       	jz	$+38     	;abs 0xb50a

0000b4e6 <.LVL4>:
    b4e6:	ee 4a 00 00 	mov.b	@r10,	0(r14)	;
    b4ea:	ae 00 01 00 	adda	#1,	r14	;

0000b4ee <.LVL5>:
    b4ee:	aa 00 01 00 	adda	#1,	r10	;
    b4f2:	80 00 e2 b4 	mova	#46306,	r0	;0x0b4e2

0000b4f6 <.L2>:
    b4f6:	ca 0d       	mova	r13,	r10	;
    b4f8:	ea 0e       	adda	r14,	r10	;
    b4fa:	dc 0a       	cmpa	r10,	r12	;
    b4fc:	f0 2f       	jc	$-30     	;abs 0xb4de

0000b4fe <.LVL7>:
    b4fe:	fe 0a       	suba	r10,	r14	;

0000b500 <.L5>:
    b500:	c6 0a       	mova	r10,	r6	;
    b502:	e6 0e       	adda	r14,	r6	;

0000b504 <.Loc.74.1>:
    b504:	96 00 00 00 	cmpa	#0,	r6	;
    b508:	04 20       	jnz	$+10     	;abs 0xb512

0000b50a <.L9>:
    b50a:	06 16       	popm.a	#1,	r6	;20-bit words
    b50c:	08 16       	popm.a	#1,	r8	;20-bit words
    b50e:	0a 16       	popm.a	#1,	r10	;20-bit words
    b510:	10 01       	reta			;

0000b512 <.L6>:
    b512:	a8 0f ff ff 	adda	#1048575,r8	;0xfffff
    b516:	aa 0f ff ff 	adda	#1048575,r10	;0xfffff

0000b51a <.LVL12>:
    b51a:	e8 4a 00 00 	mov.b	@r10,	0(r8)	;
    b51e:	80 00 00 b5 	mova	#46336,	r0	;0x0b500
