
build/elysium.elf:     file format elf32-msp430


Disassembly of section __interrupt_vector_1:

0000ff90 <__interrupt_vector_1>:
    ff90:	64 44       	mov.b	@r4,	r4	;

Disassembly of section __interrupt_vector_2:

0000ff92 <__interrupt_vector_2>:
    ff92:	68 44       	mov.b	@r4,	r8	;

Disassembly of section __interrupt_vector_3:

0000ff94 <__interrupt_vector_3>:
    ff94:	6c 44       	mov.b	@r4,	r12	;

Disassembly of section __interrupt_vector_4:

0000ff96 <__interrupt_vector_4>:
    ff96:	70 44       	br	@r4+		;

Disassembly of section __interrupt_vector_5:

0000ff98 <__interrupt_vector_5>:
    ff98:	74 44       	mov.b	@r4+,	r4	;

Disassembly of section __interrupt_vector_6:

0000ff9a <__interrupt_vector_6>:
    ff9a:	78 44       	mov.b	@r4+,	r8	;

Disassembly of section __interrupt_vector_7:

0000ff9c <__interrupt_vector_7>:
    ff9c:	7c 44       	mov.b	@r4+,	r12	;

Disassembly of section __interrupt_vector_8:

0000ff9e <__interrupt_vector_8>:
    ff9e:	80 44 00 00 	Address 0x000000000000ffa0 is out of bounds.
mov	r4,	0xffff	; PC rel. 0xff9f

Disassembly of section __interrupt_vector_9:

0000ffa0 <__interrupt_vector_9>:
    ffa0:	84 44 00 00 	Address 0x000000000000ffa2 is out of bounds.
mov	r4,	-1(r4)	; 0xffff

Disassembly of section __interrupt_vector_10:

0000ffa2 <__interrupt_vector_10>:
    ffa2:	88 44 00 00 	Address 0x000000000000ffa4 is out of bounds.
mov	r4,	-1(r8)	; 0xffff

Disassembly of section __interrupt_vector_11:

0000ffa4 <__interrupt_vector_11>:
    ffa4:	8c 44 00 00 	Address 0x000000000000ffa6 is out of bounds.
mov	r4,	-1(r12)	; 0xffff

Disassembly of section __interrupt_vector_12:

0000ffa6 <__interrupt_vector_12>:
    ffa6:	90 44 00 00 	Address 0x000000000000ffa8 is out of bounds.
Address 0x000000000000ffaa is out of bounds.
mov	-1(r4),	0xffff	; PC rel. 0xffa9
    ffaa:	00 00 

Disassembly of section __interrupt_vector_13:

0000ffa8 <__interrupt_vector_13>:
    ffa8:	94 44 00 00 	Address 0x000000000000ffaa is out of bounds.
Address 0x000000000000ffac is out of bounds.
mov	-1(r4),	-1(r4)	; 0xffff
    ffac:	00 00 

Disassembly of section __interrupt_vector_14:

0000ffaa <__interrupt_vector_14>:
    ffaa:	98 44 00 00 	Address 0x000000000000ffac is out of bounds.
Address 0x000000000000ffae is out of bounds.
mov	-1(r4),	-1(r8)	; 0xffff
    ffae:	00 00 

Disassembly of section __interrupt_vector_15:

0000ffac <__interrupt_vector_15>:
    ffac:	9c 44 00 00 	Address 0x000000000000ffae is out of bounds.
Address 0x000000000000ffb0 is out of bounds.
mov	-1(r4),	-1(r12)	; 0xffff
    ffb0:	00 00 

Disassembly of section __interrupt_vector_16:

0000ffae <__interrupt_vector_16>:
    ffae:	a0 44 00 00 	Address 0x000000000000ffb0 is out of bounds.
mov	@r4,	0xffff	; PC rel. 0xffaf

Disassembly of section __interrupt_vector_17:

0000ffb0 <__interrupt_vector_17>:
    ffb0:	a4 44 00 00 	Address 0x000000000000ffb2 is out of bounds.
mov	@r4,	-1(r4)	; 0xffff

Disassembly of section __interrupt_vector_18:

0000ffb2 <__interrupt_vector_18>:
    ffb2:	a8 44 00 00 	Address 0x000000000000ffb4 is out of bounds.
mov	@r4,	-1(r8)	; 0xffff

Disassembly of section __interrupt_vector_19:

0000ffb4 <__interrupt_vector_19>:
    ffb4:	ac 44 00 00 	Address 0x000000000000ffb6 is out of bounds.
mov	@r4,	-1(r12)	; 0xffff

Disassembly of section __interrupt_vector_20:

0000ffb6 <__interrupt_vector_20>:
    ffb6:	b0 44 00 00 	Address 0x000000000000ffb8 is out of bounds.
mov	@r4+,	0xffff	; PC rel. 0xffb7

Disassembly of section __interrupt_vector_21:

0000ffb8 <__interrupt_vector_21>:
    ffb8:	b4 44 00 00 	Address 0x000000000000ffba is out of bounds.
mov	@r4+,	-1(r4)	; 0xffff

Disassembly of section __interrupt_vector_22:

0000ffba <__interrupt_vector_22>:
    ffba:	b8 44 00 00 	Address 0x000000000000ffbc is out of bounds.
mov	@r4+,	-1(r8)	; 0xffff

Disassembly of section __interrupt_vector_23:

0000ffbc <__interrupt_vector_23>:
    ffbc:	bc 44 00 00 	Address 0x000000000000ffbe is out of bounds.
mov	@r4+,	-1(r12)	; 0xffff

Disassembly of section __interrupt_vector_24:

0000ffbe <__interrupt_vector_24>:
    ffbe:	c0 44 00 00 	Address 0x000000000000ffc0 is out of bounds.
mov.b	r4,	0xffff	; PC rel. 0xffbf

Disassembly of section __interrupt_vector_25:

0000ffc0 <__interrupt_vector_25>:
    ffc0:	c4 44 00 00 	Address 0x000000000000ffc2 is out of bounds.
mov.b	r4,	-1(r4)	; 0xffff

Disassembly of section __interrupt_vector_26:

0000ffc2 <__interrupt_vector_26>:
    ffc2:	c8 44 00 00 	Address 0x000000000000ffc4 is out of bounds.
mov.b	r4,	-1(r8)	; 0xffff

Disassembly of section __interrupt_vector_27:

0000ffc4 <__interrupt_vector_27>:
    ffc4:	cc 44 00 00 	Address 0x000000000000ffc6 is out of bounds.
mov.b	r4,	-1(r12)	; 0xffff

Disassembly of section __interrupt_vector_28:

0000ffc6 <__interrupt_vector_28>:
    ffc6:	d0 44 00 00 	Address 0x000000000000ffc8 is out of bounds.
Address 0x000000000000ffca is out of bounds.
mov.b	-1(r4),	0xffff	; PC rel. 0xffc9
    ffca:	00 00 

Disassembly of section __interrupt_vector_29:

0000ffc8 <__interrupt_vector_29>:
    ffc8:	d4 44 00 00 	Address 0x000000000000ffca is out of bounds.
Address 0x000000000000ffcc is out of bounds.
mov.b	-1(r4),	-1(r4)	; 0xffff
    ffcc:	00 00 

Disassembly of section __interrupt_vector_30:

0000ffca <__interrupt_vector_30>:
    ffca:	d8 44 00 00 	Address 0x000000000000ffcc is out of bounds.
Address 0x000000000000ffce is out of bounds.
mov.b	-1(r4),	-1(r8)	; 0xffff
    ffce:	00 00 

Disassembly of section __interrupt_vector_31:

0000ffcc <__interrupt_vector_31>:
    ffcc:	dc 44 00 00 	Address 0x000000000000ffce is out of bounds.
Address 0x000000000000ffd0 is out of bounds.
mov.b	-1(r4),	-1(r12)	; 0xffff
    ffd0:	00 00 

Disassembly of section __interrupt_vector_32:

0000ffce <__interrupt_vector_32>:
    ffce:	e0 44 00 00 	Address 0x000000000000ffd0 is out of bounds.
mov.b	@r4,	0xffff	; PC rel. 0xffcf

Disassembly of section __interrupt_vector_33:

0000ffd0 <__interrupt_vector_33>:
    ffd0:	98 f3 00 00 	Address 0x000000000000ffd2 is out of bounds.
and	#1,	-1(r8)	;r3 As==01, 0xffff

Disassembly of section __interrupt_vector_34:

0000ffd2 <__interrupt_vector_34>:
    ffd2:	2c f3       	and	#2,	r12	;r3 As==10

Disassembly of section __interrupt_vector_35:

0000ffd4 <__interrupt_vector_35>:
    ffd4:	e4 44 00 00 	Address 0x000000000000ffd6 is out of bounds.
mov.b	@r4,	-1(r4)	; 0xffff

Disassembly of section __interrupt_vector_36:

0000ffd6 <__interrupt_vector_36>:
    ffd6:	e8 44 00 00 	Address 0x000000000000ffd8 is out of bounds.
mov.b	@r4,	-1(r8)	; 0xffff

Disassembly of section __interrupt_vector_37:

0000ffd8 <__interrupt_vector_37>:
    ffd8:	c0 f2 00 00 	Address 0x000000000000ffda is out of bounds.
and.b	r2,	0xffff	; PC rel. 0xffd9

Disassembly of section __interrupt_vector_38:

0000ffda <__interrupt_vector_38>:
    ffda:	ec 44 00 00 	Address 0x000000000000ffdc is out of bounds.
mov.b	@r4,	-1(r12)	; 0xffff

Disassembly of section __interrupt_vector_39:

0000ffdc <__interrupt_vector_39>:
    ffdc:	f0 44 00 00 	Address 0x000000000000ffde is out of bounds.
mov.b	@r4+,	0xffff	; PC rel. 0xffdd

Disassembly of section __interrupt_vector_40:

0000ffde <__interrupt_vector_40>:
    ffde:	64 f2       	and.b	#4,	r4	;r2 As==10

Disassembly of section __interrupt_vector_41:

0000ffe0 <__interrupt_vector_41>:
    ffe0:	3e f7       	interrupt service routine at 0xf73e

Disassembly of section __interrupt_vector_42:

0000ffe2 <__interrupt_vector_42>:
    ffe2:	f4 44       	interrupt service routine at 0x44f4

Disassembly of section __interrupt_vector_43:

0000ffe4 <__interrupt_vector_43>:
    ffe4:	04 f4       	interrupt service routine at 0xf404

Disassembly of section __interrupt_vector_44:

0000ffe6 <__interrupt_vector_44>:
    ffe6:	30 f6       	interrupt service routine at 0xf630

Disassembly of section __interrupt_vector_45:

0000ffe8 <__interrupt_vector_45>:
    ffe8:	f8 44       	interrupt service routine at 0x44f8

Disassembly of section __interrupt_vector_46:

0000ffea <__interrupt_vector_46>:
    ffea:	fc 44       	interrupt service routine at 0x44fc

Disassembly of section __interrupt_vector_47:

0000ffec <__interrupt_vector_47>:
    ffec:	00 45       	interrupt service routine at 0x4500

Disassembly of section __interrupt_vector_48:

0000ffee <__interrupt_vector_48>:
    ffee:	96 f4       	interrupt service routine at 0xf496

Disassembly of section __interrupt_vector_50:

0000fff2 <__interrupt_vector_50>:
    fff2:	04 45       	interrupt service routine at 0x4504

Disassembly of section __interrupt_vector_51:

0000fff4 <__interrupt_vector_51>:
    fff4:	08 45       	interrupt service routine at 0x4508

Disassembly of section __interrupt_vector_52:

0000fff6 <__interrupt_vector_52>:
    fff6:	42 f2       	interrupt service routine at 0xf242

Disassembly of section __interrupt_vector_53:

0000fff8 <__interrupt_vector_53>:
    fff8:	0c 45       	interrupt service routine at 0x450c

Disassembly of section __interrupt_vector_54:

0000fffa <__interrupt_vector_54>:
    fffa:	10 45       	interrupt service routine at 0x4510

Disassembly of section __interrupt_vector_55:

0000fffc <__interrupt_vector_55>:
    fffc:	14 45       	interrupt service routine at 0x4514

Disassembly of section .text:

00004400 <__crt0_start>:
    4400:	81 00 e8 c7 	mova	#51176,	r1	;0x0c7e8

00004404 <disable_watchdog>:
    4404:	40 18 b2 40 	movx.w	#23168,	&0x0015c;0x05a80
    4408:	80 5a 5c 01 

0000440c <__crt0_init_bss>:
    440c:	8c 00 66 ef 	mova	#61286,	r12	;0x0ef66

00004410 <.Loc.74.1>:
    4410:	0d 43       	clr	r13		;

00004412 <.Loc.75.1>:
    4412:	3e 40 dc 02 	mov	#732,	r14	;#0x02dc

00004416 <.Loc.77.1>:
    4416:	0f 43       	clr	r15		;

00004418 <.Loc.79.1>:
    4418:	b0 13 7c c6 	calla	#50812		;0x0c67c

0000441c <__crt0_init_highbss>:
    441c:	8c 01 74 1a 	mova	#72308,	r12	;0x11a74

00004420 <.Loc.94.1>:
    4420:	0d 43       	clr	r13		;

00004422 <.Loc.95.1>:
    4422:	8e 01 3e 20 	mova	#73790,	r14	;0x1203e

00004426 <.Loc.98.1>:
    4426:	0e 93       	cmp	#0,	r14	;r3 As==00

00004428 <.Loc.99.1>:
    4428:	02 24       	jz	$+6      	;abs 0x442e

0000442a <.Loc.100.1>:
    442a:	b0 13 7c c6 	calla	#50812		;0x0c67c

0000442e <__crt0_move_highdata>:
    442e:	3e 40 1c 08 	mov	#2076,	r14	;#0x081c

00004432 <.Loc.146.1>:
    4432:	0e 93       	cmp	#0,	r14	;r3 As==00

00004434 <.Loc.147.1>:
    4434:	14 24       	jz	$+42     	;abs 0x445e

00004436 <.Loc.150.1>:
    4436:	41 18 82 93 	cmpx.w	#0,	&0x10a3a;r3 As==00
    443a:	3a 0a 

0000443c <.Loc.151.1>:
    443c:	05 24       	jz	$+12     	;abs 0x4448

0000443e <.Loc.153.1>:
    443e:	8c 01 3c 0a 	mova	#68156,	r12	;0x10a3c

00004442 <.Loc.154.1>:
    4442:	8d 01 58 12 	mova	#70232,	r13	;0x11258

00004446 <.Loc.155.1>:
    4446:	07 3c       	jmp	$+16     	;abs 0x4456

00004448 <.L11>:
    4448:	41 18 92 43 	movx.w	#1,	&0x10a3a;r3 As==01
    444c:	3a 0a 

0000444e <.Loc.159.1>:
    444e:	8c 01 58 12 	mova	#70232,	r12	;0x11258

00004452 <.Loc.160.1>:
    4452:	8d 01 3c 0a 	mova	#68156,	r13	;0x10a3c

00004456 <.L21>:
    4456:	3e 40 1c 08 	mov	#2076,	r14	;#0x081c

0000445a <.Loc.165.1>:
    445a:	b0 13 96 c6 	calla	#50838		;0x0c696

0000445e <__crt0_call_just_main>:
    445e:	0c 43       	clr	r12		;

00004460 <.Loc.181.1>:
    4460:	b0 13 c0 c3 	calla	#50112		;0x0c3c0

00004464 <Vector1>:
    4464:	80 00 64 44 	mova	#17508,	r0	;0x04464

00004468 <Vector2>:
    4468:	80 00 68 44 	mova	#17512,	r0	;0x04468

0000446c <Vector3>:
    446c:	80 00 6c 44 	mova	#17516,	r0	;0x0446c

00004470 <Vector4>:
    4470:	80 00 70 44 	mova	#17520,	r0	;0x04470

00004474 <Vector5>:
    4474:	80 00 74 44 	mova	#17524,	r0	;0x04474

00004478 <Vector6>:
    4478:	80 00 78 44 	mova	#17528,	r0	;0x04478

0000447c <Vector7>:
    447c:	80 00 7c 44 	mova	#17532,	r0	;0x0447c

00004480 <Vector8>:
    4480:	80 00 80 44 	mova	#17536,	r0	;0x04480

00004484 <Vector9>:
    4484:	80 00 84 44 	mova	#17540,	r0	;0x04484

00004488 <Vector10>:
    4488:	80 00 88 44 	mova	#17544,	r0	;0x04488

0000448c <Vector11>:
    448c:	80 00 8c 44 	mova	#17548,	r0	;0x0448c

00004490 <Vector12>:
    4490:	80 00 90 44 	mova	#17552,	r0	;0x04490

00004494 <Vector13>:
    4494:	80 00 94 44 	mova	#17556,	r0	;0x04494

00004498 <Vector14>:
    4498:	80 00 98 44 	mova	#17560,	r0	;0x04498

0000449c <Vector15>:
    449c:	80 00 9c 44 	mova	#17564,	r0	;0x0449c

000044a0 <Vector16>:
    44a0:	80 00 a0 44 	mova	#17568,	r0	;0x044a0

000044a4 <Vector17>:
    44a4:	80 00 a4 44 	mova	#17572,	r0	;0x044a4

000044a8 <Vector18>:
    44a8:	80 00 a8 44 	mova	#17576,	r0	;0x044a8

000044ac <Vector19>:
    44ac:	80 00 ac 44 	mova	#17580,	r0	;0x044ac

000044b0 <Vector20>:
    44b0:	80 00 b0 44 	mova	#17584,	r0	;0x044b0

000044b4 <Vector21>:
    44b4:	80 00 b4 44 	mova	#17588,	r0	;0x044b4

000044b8 <Vector22>:
    44b8:	80 00 b8 44 	mova	#17592,	r0	;0x044b8

000044bc <Vector23>:
    44bc:	80 00 bc 44 	mova	#17596,	r0	;0x044bc

000044c0 <Vector24>:
    44c0:	80 00 c0 44 	mova	#17600,	r0	;0x044c0

000044c4 <Vector25>:
    44c4:	80 00 c4 44 	mova	#17604,	r0	;0x044c4

000044c8 <Vector26>:
    44c8:	80 00 c8 44 	mova	#17608,	r0	;0x044c8

000044cc <Vector27>:
    44cc:	80 00 cc 44 	mova	#17612,	r0	;0x044cc

000044d0 <Vector28>:
    44d0:	80 00 d0 44 	mova	#17616,	r0	;0x044d0

000044d4 <Vector29>:
    44d4:	80 00 d4 44 	mova	#17620,	r0	;0x044d4

000044d8 <Vector30>:
    44d8:	80 00 d8 44 	mova	#17624,	r0	;0x044d8

000044dc <Vector31>:
    44dc:	80 00 dc 44 	mova	#17628,	r0	;0x044dc

000044e0 <Vector32>:
    44e0:	80 00 e0 44 	mova	#17632,	r0	;0x044e0

000044e4 <Vector35>:
    44e4:	80 00 e4 44 	mova	#17636,	r0	;0x044e4

000044e8 <Vector36>:
    44e8:	80 00 e8 44 	mova	#17640,	r0	;0x044e8

000044ec <Vector38>:
    44ec:	80 00 ec 44 	mova	#17644,	r0	;0x044ec

000044f0 <Vector39>:
    44f0:	80 00 f0 44 	mova	#17648,	r0	;0x044f0

000044f4 <Vector42>:
    44f4:	80 00 f4 44 	mova	#17652,	r0	;0x044f4

000044f8 <Vector45>:
    44f8:	80 00 f8 44 	mova	#17656,	r0	;0x044f8

000044fc <Vector46>:
    44fc:	80 00 fc 44 	mova	#17660,	r0	;0x044fc

00004500 <Vector47>:
    4500:	80 00 00 45 	mova	#17664,	r0	;0x04500

00004504 <Vector50>:
    4504:	80 00 04 45 	mova	#17668,	r0	;0x04504

00004508 <Vector51>:
    4508:	80 00 08 45 	mova	#17672,	r0	;0x04508

0000450c <Vector53>:
    450c:	80 00 0c 45 	mova	#17676,	r0	;0x0450c

00004510 <Vector54>:
    4510:	80 00 10 45 	mova	#17680,	r0	;0x04510

00004514 <Vector55>:
    4514:	80 00 14 45 	mova	#17684,	r0	;0x04514

00004518 <port_init>:
    4518:	41 18 c2 43 	movx.b	#0,	&0x11ac2;r3 As==00
    451c:	c2 1a 
    451e:	10 01       	reta			;

00004520 <port_unlock>:
    4520:	03 43       	nop			
    4522:	03 43       	nop			
    4524:	32 d2       	eint			
    4526:	03 43       	nop			
    4528:	10 01       	reta			;

0000452a <port_disable>:
    452a:	32 c2       	dint			
    452c:	03 43       	nop			
    452e:	03 43       	nop			
    4530:	10 01       	reta			;

00004532 <chSysInit>:
    4532:	b1 00 14 00 	suba	#20,	r1	;0x00014
    4536:	80 18 f1 40 	movx.a	#72322,	16(r1)	;0x11a82, 0x00010
    453a:	82 1a 10 00 
    453e:	80 18 f1 40 	movx.a	#68074,	12(r1)	;0x109ea, 0x0000c
    4542:	ea 09 0c 00 
    4546:	80 00 04 46 	mova	#17924,	r0	;0x04604

0000454a <.L6>:
    454a:	3c 01 0c 00 	mova	12(r1),	r12	;0x0000c
    454e:	3c 0c 04 00 	mova	4(r12),	r12	;
    4552:	cd 0c       	mova	r12,	r13	;
    4554:	ad 0f e0 ff 	adda	#1048544,r13	;0xfffe0
    4558:	3c 01 10 00 	mova	16(r1),	r12	;0x00010
    455c:	7c 0d 00 00 	mova	r13,	0(r12)	;
    4560:	3c 01 10 00 	mova	16(r1),	r12	;0x00010
    4564:	0c 0c       	mova	@r12,	r12	;
    4566:	3d 01 0c 00 	mova	12(r1),	r13	;0x0000c
    456a:	3d 0d 0c 00 	mova	12(r13),r13	;0x0000c
    456e:	71 0d 08 00 	mova	r13,	8(r1)	;
    4572:	9c 41 08 00 	mov	8(r1),	0(r12)	;
    4576:	00 00 
    4578:	3e 01 08 00 	mova	8(r1),	r14	;
    457c:	0e 14       	pushm.a	#1,	r14	;20-bit words
    457e:	0d 17       	popm	#1,	r13	;16-bit words
    4580:	0d 17       	popm	#1,	r13	;16-bit words
    4582:	7d f0 0f 00 	and.b	#15,	r13	;#0x000f
    4586:	5e 4c 02 00 	mov.b	2(r12),	r14	;
    458a:	7e f0 f0 ff 	and.b	#65520,	r14	;#0xfff0
    458e:	4d de       	bis.b	r14,	r13	;
    4590:	cc 4d 02 00 	mov.b	r13,	2(r12)	;
    4594:	3c 01 10 00 	mova	16(r1),	r12	;0x00010
    4598:	0c 0c       	mova	@r12,	r12	;
    459a:	3d 01 0c 00 	mova	12(r1),	r13	;0x0000c
    459e:	3d 0d 10 00 	mova	16(r13),r13	;0x00010
    45a2:	71 0d 04 00 	mova	r13,	4(r1)	;
    45a6:	9c 41 04 00 	mov	4(r1),	4(r12)	;
    45aa:	04 00 
    45ac:	3e 01 04 00 	mova	4(r1),	r14	;
    45b0:	0e 14       	pushm.a	#1,	r14	;20-bit words
    45b2:	0d 17       	popm	#1,	r13	;16-bit words
    45b4:	0d 17       	popm	#1,	r13	;16-bit words
    45b6:	7d f0 0f 00 	and.b	#15,	r13	;#0x000f
    45ba:	5e 4c 06 00 	mov.b	6(r12),	r14	;
    45be:	7e f0 f0 ff 	and.b	#65520,	r14	;#0xfff0
    45c2:	4d de       	bis.b	r14,	r13	;
    45c4:	cc 4d 06 00 	mov.b	r13,	6(r12)	;
    45c8:	3c 01 10 00 	mova	16(r1),	r12	;0x00010
    45cc:	0c 0c       	mova	@r12,	r12	;
    45ce:	00 18 f1 40 	movx.a	#19710,	0(r1)	;0x04cfe
    45d2:	fe 4c 00 00 
    45d6:	ac 41 1c 00 	mov	@r1,	28(r12)	; 0x001c
    45da:	0e 01       	mova	@r1,	r14	;
    45dc:	0e 14       	pushm.a	#1,	r14	;20-bit words
    45de:	0d 17       	popm	#1,	r13	;16-bit words
    45e0:	0d 17       	popm	#1,	r13	;16-bit words
    45e2:	7d f0 0f 00 	and.b	#15,	r13	;#0x000f
    45e6:	5e 4c 1e 00 	mov.b	30(r12),r14	;0x0001e
    45ea:	7e f0 f0 ff 	and.b	#65520,	r14	;#0xfff0
    45ee:	4d de       	bis.b	r14,	r13	;
    45f0:	cc 4d 1e 00 	mov.b	r13,	30(r12)	; 0x001e
    45f4:	00 18 f1 50 	addx.a	#16,	16(r1)	;0x00010, 0x00010
    45f8:	10 00 10 00 
    45fc:	00 18 f1 50 	addx.a	#20,	12(r1)	;0x00014, 0x0000c
    4600:	14 00 0c 00 

00004604 <.L5>:
    4604:	80 18 f1 90 	cmpx.a	#72370,	16(r1)	;0x11ab2, 0x00010
    4608:	b2 1a 10 00 
    460c:	9e 2b       	jnc	$-194    	;abs 0x454a
    460e:	b0 13 2a 45 	calla	#17706		;0x0452a
    4612:	b0 13 42 4c 	calla	#19522		;0x04c42
    4616:	b0 13 18 45 	calla	#17688		;0x04518
    461a:	81 18 f2 40 	movx.a	#72322,	&0x11a78;0x11a82
    461e:	82 1a 78 1a 
    4622:	2c 01 78 1a 	mova	&72312,	r12	;0x11a78
    4626:	61 0c 74 1a 	mova	r12,	&72308	; 0x11a74
    462a:	2c 01 74 1a 	mova	&72308,	r12	;0x11a74
    462e:	3d 01 10 00 	mova	16(r1),	r13	;0x00010
    4632:	b0 13 f2 4c 	calla	#19698		;0x04cf2
    4636:	b0 13 20 45 	calla	#17696		;0x04520
    463a:	03 43       	nop			
    463c:	a1 00 14 00 	adda	#20,	r1	;0x00014
    4640:	10 01       	reta			;

00004642 <chSysHalt>:
    4642:	0a 14       	pushm.a	#1,	r10	;20-bit words
    4644:	ca 0c       	mova	r12,	r10	;
    4646:	b0 13 2a 45 	calla	#17706		;0x0452a
    464a:	61 0a 7e 1a 	mova	r10,	&72318	; 0x11a7e

0000464e <.L8>:
    464e:	80 00 4e 46 	mova	#17998,	r0	;0x0464e

00004652 <chSysTimerHandlerI>:
    4652:	0a 14       	pushm.a	#1,	r10	;20-bit words
    4654:	08 14       	pushm.a	#1,	r8	;20-bit words
    4656:	06 14       	pushm.a	#1,	r6	;20-bit words
    4658:	88 01 74 1a 	mova	#72308,	r8	;0x11a74
    465c:	98 53 08 00 	inc	8(r8)		;
    4660:	a8 00 14 00 	adda	#20,	r8	;0x00014
    4664:	8a 00 12 47 	mova	#18194,	r10	;0x04712
    4668:	86 0f ff ff 	mova	#-1,	r6	;0xffffffff

0000466c <.L17>:
    466c:	cc 08       	mova	r8,	r12	;
    466e:	ac 0f fa ff 	adda	#1048570,r12	;0xffffa
    4672:	1d 4c 0a 00 	mov	10(r12),r13	;0x0000a
    4676:	0d 93       	cmp	#0,	r13	;r3 As==00
    4678:	1e 24       	jz	$+62     	;abs 0x46b6
    467a:	5d 48 fe ff 	mov.b	-2(r8),	r13	;
    467e:	0d 93       	cmp	#0,	r13	;r3 As==00
    4680:	0b 20       	jnz	$+24     	;abs 0x4698
    4682:	b0 13 2a 45 	calla	#17706		;0x0452a
    4686:	81 18 f2 40 	movx.a	#65536,	&0x11a7e;0x10000
    468a:	00 00 7e 1a 

0000468e <.L13>:
    468e:	80 00 8e 46 	mova	#18062,	r0	;0x0468e

00004692 <.L18>:
    4692:	c8 0c       	mova	r12,	r8	;
    4694:	80 00 6c 46 	mova	#18028,	r0	;0x0466c

00004698 <.L12>:
    4698:	1e 4c 0a 00 	mov	10(r12),r14	;0x0000a
    469c:	3e 53       	add	#-1,	r14	;r3 As==11
    469e:	8c 4e 0a 00 	mov	r14,	10(r12)	; 0x000a
    46a2:	0e 93       	cmp	#0,	r14	;r3 As==00
    46a4:	08 20       	jnz	$+18     	;abs 0x46b6
    46a6:	7d 90 03 00 	cmp.b	#3,	r13	;
    46aa:	11 20       	jnz	$+36     	;abs 0x46ce
    46ac:	0e 08       	mova	@r8,	r14	;
    46ae:	9e 53 00 00 	inc	0(r14)		;

000046b2 <.L16>:
    46b2:	cd 06       	mova	r6,	r13	;
    46b4:	4a 13       	calla	r10		;

000046b6 <.L11>:
    46b6:	cc 08       	mova	r8,	r12	;
    46b8:	ac 00 10 00 	adda	#16,	r12	;0x00010
    46bc:	a8 00 0a 00 	adda	#10,	r8	;0x0000a
    46c0:	98 01 b2 1a 	cmpa	#72370,	r8	;0x11ab2
    46c4:	e6 2b       	jnc	$-50     	;abs 0x4692
    46c6:	06 16       	popm.a	#1,	r6	;20-bit words
    46c8:	08 16       	popm.a	#1,	r8	;20-bit words
    46ca:	0a 16       	popm.a	#1,	r10	;20-bit words
    46cc:	10 01       	reta			;

000046ce <.L15>:
    46ce:	6d 93       	cmp.b	#2,	r13	;r3 As==10
    46d0:	f0 23       	jnz	$-30     	;abs 0x46b2
    46d2:	0e 08       	mova	@r8,	r14	;
    46d4:	00 18 ce 43 	movx.a	#0,	0(r14)	;r3 As==00
    46d8:	00 00 
    46da:	80 00 b2 46 	mova	#18098,	r0	;0x046b2

000046de <chSysGetStatusAndLockX>:
    46de:	0a 14       	pushm.a	#1,	r10	;20-bit words
    46e0:	0a 42       	mov	r2,	r10	;
    46e2:	40 18 3a b2 	bitx.w	#8,	r10	;r2 As==11
    46e6:	06 24       	jz	$+14     	;abs 0x46f4
    46e8:	41 18 c2 93 	cmpx.b	#0,	&0x11ac2;r3 As==00
    46ec:	c2 1a 
    46ee:	02 20       	jnz	$+6      	;abs 0x46f4
    46f0:	b0 13 2a 45 	calla	#17706		;0x0452a

000046f4 <.L27>:
    46f4:	0c 4a       	mov	r10,	r12	;
    46f6:	0a 16       	popm.a	#1,	r10	;20-bit words
    46f8:	10 01       	reta			;

000046fa <chSysRestoreStatusX>:
    46fa:	40 18 3c b2 	bitx.w	#8,	r12	;r2 As==11
    46fe:	08 24       	jz	$+18     	;abs 0x4710
    4700:	41 18 c2 93 	cmpx.b	#0,	&0x11ac2;r3 As==00
    4704:	c2 1a 
    4706:	04 20       	jnz	$+10     	;abs 0x4710
    4708:	b0 13 c8 47 	calla	#18376		;0x047c8
    470c:	b0 13 20 45 	calla	#17696		;0x04520

00004710 <.L31>:
    4710:	10 01       	reta			;

00004712 <chSchReadyI>:
    4712:	0a 14       	pushm.a	#1,	r10	;20-bit words
    4714:	b1 00 04 00 	suba	#4,	r1	;
    4718:	71 0d 00 00 	mova	r13,	0(r1)	;
    471c:	9c 01 82 1a 	cmpa	#72322,	r12	;0x11a82
    4720:	03 28       	jnc	$+8      	;abs 0x4728
    4722:	9c 01 b2 1a 	cmpa	#72370,	r12	;0x11ab2
    4726:	08 28       	jnc	$+18     	;abs 0x4738

00004728 <.L37>:
    4728:	b0 13 2a 45 	calla	#17706		;0x0452a
    472c:	81 18 f2 40 	movx.a	#65555,	&0x11a7e;0x10013
    4730:	13 00 7e 1a 

00004734 <.L39>:
    4734:	80 00 34 47 	mova	#18228,	r0	;0x04734

00004738 <.L38>:
    4738:	cc 93 04 00 	cmp.b	#0,	4(r12)	;r3 As==00
    473c:	08 20       	jnz	$+18     	;abs 0x474e
    473e:	b0 13 2a 45 	calla	#17706		;0x0452a
    4742:	81 18 f2 40 	movx.a	#65555,	&0x11a7e;0x10013
    4746:	13 00 7e 1a 

0000474a <.L41>:
    474a:	80 00 4a 47 	mova	#18250,	r0	;0x0474a

0000474e <.L40>:
    474e:	8e 01 74 1a 	mova	#72308,	r14	;0x11a74
    4752:	3a 0e 04 00 	mova	4(r14),	r10	;
    4756:	01 18 c2 9a 	cmpx.a	r10,	&0x11a74;
    475a:	74 1a 
    475c:	08 2c       	jc	$+18     	;abs 0x476e
    475e:	b0 13 2a 45 	calla	#17706		;0x0452a
    4762:	81 18 f2 40 	movx.a	#65555,	&0x11a7e;0x10013
    4766:	13 00 7e 1a 

0000476a <.L43>:
    476a:	80 00 6a 47 	mova	#18282,	r0	;0x0476a

0000476e <.L42>:
    476e:	ac 41 06 00 	mov	@r1,	6(r12)	;
    4772:	0f 01       	mova	@r1,	r15	;
    4774:	0f 14       	pushm.a	#1,	r15	;20-bit words
    4776:	0d 17       	popm	#1,	r13	;16-bit words
    4778:	0d 17       	popm	#1,	r13	;16-bit words
    477a:	7d f0 0f 00 	and.b	#15,	r13	;#0x000f
    477e:	5f 4c 08 00 	mov.b	8(r12),	r15	;
    4782:	7f f0 f0 ff 	and.b	#65520,	r15	;#0xfff0
    4786:	4f dd       	bis.b	r13,	r15	;
    4788:	cc 4f 08 00 	mov.b	r15,	8(r12)	;
    478c:	cc 43 04 00 	mov.b	#0,	4(r12)	;r3 As==00
    4790:	8c 43 0a 00 	mov	#0,	10(r12)	;r3 As==00, 0x000a
    4794:	dc 0a       	cmpa	r10,	r12	;
    4796:	02 2c       	jc	$+6      	;abs 0x479c
    4798:	7e 0c 04 00 	mova	r12,	4(r14)	;

0000479c <.L44>:
    479c:	a1 00 04 00 	adda	#4,	r1	;
    47a0:	0a 16       	popm.a	#1,	r10	;20-bit words
    47a2:	10 01       	reta			;

000047a4 <chSchIsPreemptionRequired>:
    47a4:	5c 43       	mov.b	#1,	r12	;r3 As==01
    47a6:	81 18 d2 92 	cmpx.a	&0x11a78,&0x11a74;
    47aa:	78 1a 74 1a 
    47ae:	01 20       	jnz	$+4      	;abs 0x47b2
    47b0:	4c 43       	clr.b	r12		;

000047b2 <.L46>:
    47b2:	10 01       	reta			;

000047b4 <chSchDoReschedule>:
    47b4:	8e 01 74 1a 	mova	#72308,	r14	;0x11a74
    47b8:	0d 0e       	mova	@r14,	r13	;
    47ba:	3c 0e 04 00 	mova	4(r14),	r12	;
    47be:	7e 0c 00 00 	mova	r12,	0(r14)	;
    47c2:	b0 13 f2 4c 	calla	#19698		;0x04cf2
    47c6:	10 01       	reta			;

000047c8 <chSchRescheduleS>:
    47c8:	81 18 d2 92 	cmpx.a	&0x11a78,&0x11a74;
    47cc:	78 1a 74 1a 
    47d0:	02 24       	jz	$+6      	;abs 0x47d6
    47d2:	b0 13 b4 47 	calla	#18356		;0x047b4

000047d6 <.L48>:
    47d6:	10 01       	reta			;

000047d8 <chSchGoSleepTimeoutS>:
    47d8:	0a 14       	pushm.a	#1,	r10	;20-bit words
    47da:	3c f0 ff 00 	and	#255,	r12	;#0x00ff
    47de:	8a 01 74 1a 	mova	#72308,	r10	;0x11a74
    47e2:	0e 0a       	mova	@r10,	r14	;
    47e4:	9e 01 b2 1a 	cmpa	#72370,	r14	;0x11ab2
    47e8:	08 20       	jnz	$+18     	;abs 0x47fa
    47ea:	b0 13 2a 45 	calla	#17706		;0x0452a
    47ee:	81 18 f2 40 	movx.a	#65567,	&0x11a7e;0x1001f
    47f2:	1f 00 7e 1a 

000047f6 <.L52>:
    47f6:	80 00 f6 47 	mova	#18422,	r0	;0x047f6

000047fa <.L51>:
    47fa:	ce 4c 04 00 	mov.b	r12,	4(r14)	;
    47fe:	8e 4d 0a 00 	mov	r13,	10(r14)	; 0x000a
    4802:	cc 0a       	mova	r10,	r12	;
    4804:	ac 00 0e 00 	adda	#14,	r12	;0x0000e

00004808 <.L54>:
    4808:	cc 93 04 00 	cmp.b	#0,	4(r12)	;r3 As==00
    480c:	0c 20       	jnz	$+26     	;abs 0x4826
    480e:	7a 0c 04 00 	mova	r12,	4(r10)	;
    4812:	7a 0c 00 00 	mova	r12,	0(r10)	;
    4816:	cd 0e       	mova	r14,	r13	;
    4818:	b0 13 f2 4c 	calla	#19698		;0x04cf2
    481c:	0c 0a       	mova	@r10,	r12	;
    481e:	3c 0c 06 00 	mova	6(r12),	r12	;
    4822:	0a 16       	popm.a	#1,	r10	;20-bit words
    4824:	10 01       	reta			;

00004826 <.L53>:
    4826:	ac 00 10 00 	adda	#16,	r12	;0x00010
    482a:	8d 01 b2 1a 	mova	#72370,	r13	;0x11ab2
    482e:	dd 0c       	cmpa	r12,	r13	;
    4830:	eb 2f       	jc	$-40     	;abs 0x4808
    4832:	b0 13 2a 45 	calla	#17706		;0x0452a
    4836:	81 18 f2 40 	movx.a	#65567,	&0x11a7e;0x1001f
    483a:	1f 00 7e 1a 

0000483e <.L55>:
    483e:	80 00 3e 48 	mova	#18494,	r0	;0x0483e

00004842 <chThdSuspendTimeoutS>:
    4842:	00 18 cc 93 	cmpx.a	#0,	0(r12)	;r3 As==00
    4846:	00 00 
    4848:	08 24       	jz	$+18     	;abs 0x485a
    484a:	b0 13 2a 45 	calla	#17706		;0x0452a
    484e:	81 18 f2 40 	movx.a	#65588,	&0x11a7e;0x10034
    4852:	34 00 7e 1a 

00004856 <.L60>:
    4856:	80 00 56 48 	mova	#18518,	r0	;0x04856

0000485a <.L59>:
    485a:	8e 01 74 1a 	mova	#72308,	r14	;0x11a74
    485e:	00 18 ec 4e 	movx.a	@r14,	0(r12)	;
    4862:	00 00 
    4864:	0e 0e       	mova	@r14,	r14	;
    4866:	7e 0c 06 00 	mova	r12,	6(r14)	;
    486a:	6c 43       	mov.b	#2,	r12	;r3 As==10
    486c:	b0 13 d8 47 	calla	#18392		;0x047d8
    4870:	10 01       	reta			;

00004872 <chThdResumeI>:
    4872:	ce 0c       	mova	r12,	r14	;
    4874:	0c 0c       	mova	@r12,	r12	;
    4876:	9c 00 00 00 	cmpa	#0,	r12	;
    487a:	10 24       	jz	$+34     	;abs 0x489c
    487c:	ec 93 04 00 	cmp.b	#2,	4(r12)	;r3 As==10
    4880:	08 24       	jz	$+18     	;abs 0x4892
    4882:	b0 13 2a 45 	calla	#17706		;0x0452a
    4886:	81 18 f2 40 	movx.a	#65609,	&0x11a7e;0x10049
    488a:	49 00 7e 1a 

0000488e <.L64>:
    488e:	80 00 8e 48 	mova	#18574,	r0	;0x0488e

00004892 <.L63>:
    4892:	00 18 ce 43 	movx.a	#0,	0(r14)	;r3 As==00
    4896:	00 00 
    4898:	b0 13 12 47 	calla	#18194		;0x04712

0000489c <.L61>:
    489c:	10 01       	reta			;

0000489e <chThdSleep>:
    489e:	0a 14       	pushm.a	#1,	r10	;20-bit words
    48a0:	0a 4c       	mov	r12,	r10	;
    48a2:	b0 13 2a 45 	calla	#17706		;0x0452a
    48a6:	0d 4a       	mov	r10,	r13	;
    48a8:	5c 43       	mov.b	#1,	r12	;r3 As==01
    48aa:	b0 13 d8 47 	calla	#18392		;0x047d8
    48ae:	b0 13 20 45 	calla	#17696		;0x04520
    48b2:	0a 16       	popm.a	#1,	r10	;20-bit words
    48b4:	10 01       	reta			;

000048b6 <chSemWaitTimeout>:
    48b6:	b1 00 08 00 	suba	#8,	r1	;
    48ba:	71 0c 00 00 	mova	r12,	0(r1)	;
    48be:	71 0d 04 00 	mova	r13,	4(r1)	;
    48c2:	b0 13 2a 45 	calla	#17706		;0x0452a
    48c6:	3d 01 04 00 	mova	4(r1),	r13	;
    48ca:	0c 01       	mova	@r1,	r12	;
    48cc:	b0 13 e0 48 	calla	#18656		;0x048e0
    48d0:	71 0c 00 00 	mova	r12,	0(r1)	;
    48d4:	b0 13 20 45 	calla	#17696		;0x04520
    48d8:	0c 01       	mova	@r1,	r12	;
    48da:	a1 00 08 00 	adda	#8,	r1	;
    48de:	10 01       	reta			;

000048e0 <chSemWaitTimeoutS>:
    48e0:	0a 14       	pushm.a	#1,	r10	;20-bit words
    48e2:	9c 00 00 00 	cmpa	#0,	r12	;
    48e6:	08 20       	jnz	$+18     	;abs 0x48f8
    48e8:	b0 13 2a 45 	calla	#17706		;0x0452a
    48ec:	81 18 f2 40 	movx.a	#65622,	&0x11a7e;0x10056
    48f0:	56 00 7e 1a 

000048f4 <.L73>:
    48f4:	80 00 f4 48 	mova	#18676,	r0	;0x048f4

000048f8 <.L72>:
    48f8:	2e 4c       	mov	@r12,	r14	;
    48fa:	4a 43       	clr.b	r10		;
    48fc:	0a 9e       	cmp	r14,	r10	;
    48fe:	0f 38       	jl	$+32     	;abs 0x491e
    4900:	3d 93       	cmp	#-1,	r13	;r3 As==11
    4902:	13 24       	jz	$+40     	;abs 0x492a
    4904:	3e 53       	add	#-1,	r14	;r3 As==11
    4906:	8c 4e 00 00 	mov	r14,	0(r12)	;
    490a:	2e 01 74 1a 	mova	&72308,	r14	;0x11a74
    490e:	7e 0c 06 00 	mova	r12,	6(r14)	;
    4912:	7c 40 03 00 	mov.b	#3,	r12	;
    4916:	b0 13 d8 47 	calla	#18392		;0x047d8

0000491a <.L71>:
    491a:	0a 16       	popm.a	#1,	r10	;20-bit words
    491c:	10 01       	reta			;

0000491e <.L74>:
    491e:	3e 53       	add	#-1,	r14	;r3 As==11
    4920:	8c 4e 00 00 	mov	r14,	0(r12)	;
    4924:	4c 43       	clr.b	r12		;
    4926:	80 00 1a 49 	mova	#18714,	r0	;0x0491a

0000492a <.L76>:
    492a:	8c 0f ff ff 	mova	#-1,	r12	;0xffffffff
    492e:	80 00 1a 49 	mova	#18714,	r0	;0x0491a

00004932 <chSemSignalI>:
    4932:	ce 0c       	mova	r12,	r14	;
    4934:	9c 00 00 00 	cmpa	#0,	r12	;
    4938:	08 20       	jnz	$+18     	;abs 0x494a
    493a:	b0 13 2a 45 	calla	#17706		;0x0452a
    493e:	81 18 f2 40 	movx.a	#65640,	&0x11a7e;0x10068
    4942:	68 00 7e 1a 

00004946 <.L80>:
    4946:	80 00 46 49 	mova	#18758,	r0	;0x04946

0000494a <.L79>:
    494a:	2c 4c       	mov	@r12,	r12	;
    494c:	1c 53       	inc	r12		;
    494e:	8e 4c 00 00 	mov	r12,	0(r14)	;
    4952:	4d 43       	clr.b	r13		;
    4954:	0d 9c       	cmp	r12,	r13	;
    4956:	15 38       	jl	$+44     	;abs 0x4982
    4958:	8c 01 82 1a 	mova	#72322,	r12	;0x11a82

0000495c <.L85>:
    495c:	00 18 5e 9c 	cmpx.a	6(r12),	r14	;
    4960:	06 00 
    4962:	10 20       	jnz	$+34     	;abs 0x4984
    4964:	fc 90 03 00 	cmp.b	#3,	4(r12)	;
    4968:	04 00 
    496a:	08 24       	jz	$+18     	;abs 0x497c
    496c:	b0 13 2a 45 	calla	#17706		;0x0452a
    4970:	81 18 f2 40 	movx.a	#65640,	&0x11a7e;0x10068
    4974:	68 00 7e 1a 

00004978 <.L84>:
    4978:	80 00 78 49 	mova	#18808,	r0	;0x04978

0000497c <.L83>:
    497c:	4d 43       	clr.b	r13		;
    497e:	b0 13 12 47 	calla	#18194		;0x04712

00004982 <.L78>:
    4982:	10 01       	reta			;

00004984 <.L82>:
    4984:	ac 00 10 00 	adda	#16,	r12	;0x00010
    4988:	9c 01 b2 1a 	cmpa	#72370,	r12	;0x11ab2
    498c:	e7 2b       	jnc	$-48     	;abs 0x495c
    498e:	b0 13 2a 45 	calla	#17706		;0x0452a
    4992:	81 18 f2 40 	movx.a	#65640,	&0x11a7e;0x10068
    4996:	68 00 7e 1a 

0000499a <.L86>:
    499a:	80 00 9a 49 	mova	#18842,	r0	;0x0499a

0000499e <chEvtSignal>:
    499e:	19 14       	pushm.a	#2,	r9	;20-bit words
    49a0:	b1 00 04 00 	suba	#4,	r1	;
    49a4:	08 4d       	mov	r13,	r8	;
    49a6:	09 4e       	mov	r14,	r9	;
    49a8:	71 0c 00 00 	mova	r12,	0(r1)	;
    49ac:	b0 13 2a 45 	calla	#17706		;0x0452a
    49b0:	0d 48       	mov	r8,	r13	;
    49b2:	0e 49       	mov	r9,	r14	;
    49b4:	0c 01       	mova	@r1,	r12	;
    49b6:	b0 13 ca 49 	calla	#18890		;0x049ca
    49ba:	b0 13 c8 47 	calla	#18376		;0x047c8
    49be:	b0 13 20 45 	calla	#17696		;0x04520
    49c2:	a1 00 04 00 	adda	#4,	r1	;
    49c6:	18 16       	popm.a	#2,	r9	;20-bit words
    49c8:	10 01       	reta			;

000049ca <chEvtSignalI>:
    49ca:	0a 14       	pushm.a	#1,	r10	;20-bit words
    49cc:	ca 0c       	mova	r12,	r10	;
    49ce:	9c 00 00 00 	cmpa	#0,	r12	;
    49d2:	08 20       	jnz	$+18     	;abs 0x49e4
    49d4:	b0 13 2a 45 	calla	#17706		;0x0452a
    49d8:	81 18 f2 40 	movx.a	#65665,	&0x11a7e;0x10081
    49dc:	81 00 7e 1a 

000049e0 <.L106>:
    49e0:	80 00 e0 49 	mova	#18912,	r0	;0x049e0

000049e4 <.L105>:
    49e4:	1d dc 0c 00 	bis	12(r12),r13	;0x0000c
    49e8:	1e dc 0e 00 	bis	14(r12),r14	;0x0000e
    49ec:	8c 4d 0c 00 	mov	r13,	12(r12)	; 0x000c
    49f0:	8c 4e 0e 00 	mov	r14,	14(r12)	; 0x000e
    49f4:	ec 92 04 00 	cmp.b	#4,	4(r12)	;r2 As==10
    49f8:	0a 20       	jnz	$+22     	;abs 0x4a0e
    49fa:	1d fc 06 00 	and	6(r12),	r13	;
    49fe:	1e fc 08 00 	and	8(r12),	r14	;
    4a02:	0d de       	bis	r14,	r13	;
    4a04:	0d 93       	cmp	#0,	r13	;r3 As==00
    4a06:	03 24       	jz	$+8      	;abs 0x4a0e
    4a08:	4d 43       	clr.b	r13		;
    4a0a:	b0 13 12 47 	calla	#18194		;0x04712

00004a0e <.L104>:
    4a0e:	0a 16       	popm.a	#1,	r10	;20-bit words
    4a10:	10 01       	reta			;

00004a12 <chEvtWaitAnyTimeout>:
    4a12:	6a 14       	pushm.a	#7,	r10	;20-bit words
    4a14:	06 4c       	mov	r12,	r6	;
    4a16:	07 4d       	mov	r13,	r7	;
    4a18:	05 4e       	mov	r14,	r5	;
    4a1a:	2a 01 74 1a 	mova	&72308,	r10	;0x11a74
    4a1e:	b0 13 2a 45 	calla	#17706		;0x0452a
    4a22:	18 4a 0c 00 	mov	12(r10),r8	;0x0000c
    4a26:	08 f6       	and	r6,	r8	;
    4a28:	19 4a 0e 00 	mov	14(r10),r9	;0x0000e
    4a2c:	09 f7       	and	r7,	r9	;
    4a2e:	0c 48       	mov	r8,	r12	;
    4a30:	0c d9       	bis	r9,	r12	;
    4a32:	84 00 20 45 	mova	#17696,	r4	;0x04520
    4a36:	0c 93       	cmp	#0,	r12	;r3 As==00
    4a38:	18 20       	jnz	$+50     	;abs 0x4a6a
    4a3a:	35 93       	cmp	#-1,	r5	;r3 As==11
    4a3c:	05 20       	jnz	$+12     	;abs 0x4a48

00004a3e <.L117>:
    4a3e:	44 13       	calla	r4		;
    4a40:	0c 48       	mov	r8,	r12	;
    4a42:	0d 49       	mov	r9,	r13	;
    4a44:	64 16       	popm.a	#7,	r10	;20-bit words
    4a46:	10 01       	reta			;

00004a48 <.L114>:
    4a48:	8a 46 06 00 	mov	r6,	6(r10)	;
    4a4c:	8a 47 08 00 	mov	r7,	8(r10)	;
    4a50:	0d 45       	mov	r5,	r13	;
    4a52:	6c 42       	mov.b	#4,	r12	;r2 As==10
    4a54:	b0 13 d8 47 	calla	#18392		;0x047d8
    4a58:	9c 00 00 00 	cmpa	#0,	r12	;
    4a5c:	f0 3b       	jl	$-30     	;abs 0x4a3e
    4a5e:	18 4a 0c 00 	mov	12(r10),r8	;0x0000c
    4a62:	08 f6       	and	r6,	r8	;
    4a64:	19 4a 0e 00 	mov	14(r10),r9	;0x0000e
    4a68:	09 f7       	and	r7,	r9	;

00004a6a <.L113>:
    4a6a:	8a c8 0c 00 	bic	r8,	12(r10)	; 0x000c
    4a6e:	8a c9 0e 00 	bic	r9,	14(r10)	; 0x000e
    4a72:	80 00 3e 4a 	mova	#19006,	r0	;0x04a3e

00004a76 <chMBPostS>:
    4a76:	0a 14       	pushm.a	#1,	r10	;20-bit words
    4a78:	08 14       	pushm.a	#1,	r8	;20-bit words
    4a7a:	06 14       	pushm.a	#1,	r6	;20-bit words
    4a7c:	ca 0c       	mova	r12,	r10	;
    4a7e:	c6 0d       	mova	r13,	r6	;
    4a80:	08 4e       	mov	r14,	r8	;
    4a82:	9c 00 00 00 	cmpa	#0,	r12	;
    4a86:	04 20       	jnz	$+10     	;abs 0x4a90
    4a88:	8c 01 cc 00 	mova	#65740,	r12	;0x100cc
    4a8c:	b0 13 42 46 	calla	#17986		;0x04642

00004a90 <.L13>:
    4a90:	0d 48       	mov	r8,	r13	;
    4a92:	cc 0a       	mova	r10,	r12	;
    4a94:	ac 00 12 00 	adda	#18,	r12	;0x00012
    4a98:	b0 13 e0 48 	calla	#18656		;0x048e0
    4a9c:	c8 0c       	mova	r12,	r8	;
    4a9e:	9c 00 00 00 	cmpa	#0,	r12	;
    4aa2:	17 20       	jnz	$+48     	;abs 0x4ad2
    4aa4:	3e 0a 08 00 	mova	8(r10),	r14	;
    4aa8:	cc 0e       	mova	r14,	r12	;
    4aaa:	ac 00 04 00 	adda	#4,	r12	;
    4aae:	7a 0c 08 00 	mova	r12,	8(r10)	;
    4ab2:	7e 06 00 00 	mova	r6,	0(r14)	;
    4ab6:	00 18 5c 9a 	cmpx.a	4(r10),	r12	;
    4aba:	04 00 
    4abc:	03 28       	jnc	$+8      	;abs 0x4ac4
    4abe:	00 18 ea 4a 	movx.a	@r10,	8(r10)	;
    4ac2:	08 00 

00004ac4 <.L15>:
    4ac4:	cc 0a       	mova	r10,	r12	;
    4ac6:	ac 00 10 00 	adda	#16,	r12	;0x00010
    4aca:	b0 13 32 49 	calla	#18738		;0x04932
    4ace:	b0 13 c8 47 	calla	#18376		;0x047c8

00004ad2 <.L12>:
    4ad2:	cc 08       	mova	r8,	r12	;
    4ad4:	06 16       	popm.a	#1,	r6	;20-bit words
    4ad6:	08 16       	popm.a	#1,	r8	;20-bit words
    4ad8:	0a 16       	popm.a	#1,	r10	;20-bit words
    4ada:	10 01       	reta			;

00004adc <chMBPost>:
    4adc:	32 c2       	dint			
    4ade:	03 43       	nop			
    4ae0:	03 43       	nop			
    4ae2:	b0 13 76 4a 	calla	#19062		;0x04a76
    4ae6:	03 43       	nop			
    4ae8:	03 43       	nop			
    4aea:	32 d2       	eint			
    4aec:	03 43       	nop			
    4aee:	10 01       	reta			;

00004af0 <chMBPostI>:
    4af0:	0a 14       	pushm.a	#1,	r10	;20-bit words
    4af2:	08 14       	pushm.a	#1,	r8	;20-bit words
    4af4:	ca 0c       	mova	r12,	r10	;
    4af6:	c8 0d       	mova	r13,	r8	;
    4af8:	9c 00 00 00 	cmpa	#0,	r12	;
    4afc:	04 20       	jnz	$+10     	;abs 0x4b06
    4afe:	8c 01 c2 00 	mova	#65730,	r12	;0x100c2
    4b02:	b0 13 42 46 	calla	#17986		;0x04642

00004b06 <.L18>:
    4b06:	1c 4a 12 00 	mov	18(r10),r12	;0x00012
    4b0a:	4d 43       	clr.b	r13		;
    4b0c:	0d 9c       	cmp	r12,	r13	;
    4b0e:	1b 34       	jge	$+56     	;abs 0x4b46
    4b10:	ba 53 12 00 	add	#-1,	18(r10)	;r3 As==11, 0x0012
    4b14:	3e 0a 08 00 	mova	8(r10),	r14	;
    4b18:	cc 0e       	mova	r14,	r12	;
    4b1a:	ac 00 04 00 	adda	#4,	r12	;
    4b1e:	7a 0c 08 00 	mova	r12,	8(r10)	;
    4b22:	7e 08 00 00 	mova	r8,	0(r14)	;
    4b26:	00 18 5c 9a 	cmpx.a	4(r10),	r12	;
    4b2a:	04 00 
    4b2c:	03 28       	jnc	$+8      	;abs 0x4b34
    4b2e:	00 18 ea 4a 	movx.a	@r10,	8(r10)	;
    4b32:	08 00 

00004b34 <.L20>:
    4b34:	cc 0a       	mova	r10,	r12	;
    4b36:	ac 00 10 00 	adda	#16,	r12	;0x00010
    4b3a:	b0 13 32 49 	calla	#18738		;0x04932
    4b3e:	4c 43       	clr.b	r12		;

00004b40 <.L17>:
    4b40:	08 16       	popm.a	#1,	r8	;20-bit words
    4b42:	0a 16       	popm.a	#1,	r10	;20-bit words
    4b44:	10 01       	reta			;

00004b46 <.L21>:
    4b46:	8c 0f ff ff 	mova	#-1,	r12	;0xffffffff
    4b4a:	80 00 40 4b 	mova	#19264,	r0	;0x04b40

00004b4e <chMBFetchS>:
    4b4e:	0a 14       	pushm.a	#1,	r10	;20-bit words
    4b50:	08 14       	pushm.a	#1,	r8	;20-bit words
    4b52:	06 14       	pushm.a	#1,	r6	;20-bit words
    4b54:	ca 0c       	mova	r12,	r10	;
    4b56:	c8 0d       	mova	r13,	r8	;
    4b58:	06 4e       	mov	r14,	r6	;
    4b5a:	9c 00 00 00 	cmpa	#0,	r12	;
    4b5e:	03 24       	jz	$+8      	;abs 0x4b66
    4b60:	9d 00 00 00 	cmpa	#0,	r13	;
    4b64:	04 20       	jnz	$+10     	;abs 0x4b6e

00004b66 <.L33>:
    4b66:	8c 01 99 00 	mova	#65689,	r12	;0x10099
    4b6a:	b0 13 42 46 	calla	#17986		;0x04642

00004b6e <.L34>:
    4b6e:	0d 46       	mov	r6,	r13	;
    4b70:	cc 0a       	mova	r10,	r12	;
    4b72:	ac 00 10 00 	adda	#16,	r12	;0x00010
    4b76:	b0 13 e0 48 	calla	#18656		;0x048e0
    4b7a:	c6 0c       	mova	r12,	r6	;
    4b7c:	9c 00 00 00 	cmpa	#0,	r12	;
    4b80:	18 20       	jnz	$+50     	;abs 0x4bb2
    4b82:	3c 0a 0c 00 	mova	12(r10),r12	;0x0000c
    4b86:	ce 0c       	mova	r12,	r14	;
    4b88:	ae 00 04 00 	adda	#4,	r14	;
    4b8c:	7a 0e 0c 00 	mova	r14,	12(r10)	; 0x0000c
    4b90:	00 18 e8 4c 	movx.a	@r12,	0(r8)	;
    4b94:	00 00 
    4b96:	00 18 5e 9a 	cmpx.a	4(r10),	r14	;
    4b9a:	04 00 
    4b9c:	03 28       	jnc	$+8      	;abs 0x4ba4
    4b9e:	00 18 ea 4a 	movx.a	@r10,	12(r10)	; 0x0000c
    4ba2:	0c 00 

00004ba4 <.L36>:
    4ba4:	cc 0a       	mova	r10,	r12	;
    4ba6:	ac 00 12 00 	adda	#18,	r12	;0x00012
    4baa:	b0 13 32 49 	calla	#18738		;0x04932
    4bae:	b0 13 c8 47 	calla	#18376		;0x047c8

00004bb2 <.L32>:
    4bb2:	cc 06       	mova	r6,	r12	;
    4bb4:	06 16       	popm.a	#1,	r6	;20-bit words
    4bb6:	08 16       	popm.a	#1,	r8	;20-bit words
    4bb8:	0a 16       	popm.a	#1,	r10	;20-bit words
    4bba:	10 01       	reta			;

00004bbc <chMBFetch>:
    4bbc:	32 c2       	dint			
    4bbe:	03 43       	nop			
    4bc0:	03 43       	nop			
    4bc2:	b0 13 4e 4b 	calla	#19278		;0x04b4e
    4bc6:	03 43       	nop			
    4bc8:	03 43       	nop			
    4bca:	32 d2       	eint			
    4bcc:	03 43       	nop			
    4bce:	10 01       	reta			;

00004bd0 <chCoreAllocAlignedI>:
    4bd0:	0a 14       	pushm.a	#1,	r10	;20-bit words
    4bd2:	08 14       	pushm.a	#1,	r8	;20-bit words
    4bd4:	ca 0c       	mova	r12,	r10	;
    4bd6:	40 18 08 4d 	movx.w	r13,	r8	;
    4bda:	0d 93       	cmp	#0,	r13	;r3 As==00
    4bdc:	06 24       	jz	$+14     	;abs 0x4bea
    4bde:	cc 08       	mova	r8,	r12	;
    4be0:	ac 0f ff ff 	adda	#1048575,r12	;0xfffff
    4be4:	00 18 4c b8 	bitx.a	r8,	r12	;
    4be8:	04 24       	jz	$+10     	;abs 0x4bf2

00004bea <.L3>:
    4bea:	8c 01 f0 00 	mova	#65776,	r12	;0x100f0
    4bee:	b0 13 42 46 	calla	#17986		;0x04642

00004bf2 <.L4>:
    4bf2:	ce 0a       	mova	r10,	r14	;
    4bf4:	ae 0f ff ff 	adda	#1048575,r14	;0xfffff
    4bf8:	ee 08       	adda	r8,	r14	;
    4bfa:	00 18 4a 43 	clrx.a	r10		;
    4bfe:	fa 08       	suba	r8,	r10	;
    4c00:	00 18 4e fa 	andx.a	r10,	r14	;
    4c04:	2c 00 6a ef 	mova	&61290,	r12	;0x0ef6a
    4c08:	ac 0f ff ff 	adda	#1048575,r12	;0xfffff
    4c0c:	ec 08       	adda	r8,	r12	;
    4c0e:	00 18 4c fa 	andx.a	r10,	r12	;
    4c12:	2a 00 66 ef 	mova	&61286,	r10	;0x0ef66
    4c16:	fa 0c       	suba	r12,	r10	;
    4c18:	da 0e       	cmpa	r14,	r10	;
    4c1a:	06 28       	jnc	$+14     	;abs 0x4c28
    4c1c:	ee 0c       	adda	r12,	r14	;
    4c1e:	60 0e 6a ef 	mova	r14,	&61290	; 0x0ef6a

00004c22 <.L2>:
    4c22:	08 16       	popm.a	#1,	r8	;20-bit words
    4c24:	0a 16       	popm.a	#1,	r10	;20-bit words
    4c26:	10 01       	reta			;

00004c28 <.L6>:
    4c28:	4c 43       	clr.b	r12		;
    4c2a:	80 00 22 4c 	mova	#19490,	r0	;0x04c22

00004c2e <chCoreAllocAligned>:
    4c2e:	32 c2       	dint			
    4c30:	03 43       	nop			
    4c32:	03 43       	nop			
    4c34:	b0 13 d0 4b 	calla	#19408		;0x04bd0
    4c38:	03 43       	nop			
    4c3a:	03 43       	nop			
    4c3c:	32 d2       	eint			
    4c3e:	03 43       	nop			
    4c40:	10 01       	reta			;

00004c42 <_heap_init>:
    4c42:	8c 00 6e ef 	mova	#61294,	r12	;0x0ef6e
    4c46:	00 18 fc 40 	movx.a	#19502,	0(r12)	;0x04c2e
    4c4a:	2e 4c 00 00 
    4c4e:	00 18 cc 43 	movx.a	#0,	4(r12)	;r3 As==00
    4c52:	04 00 
    4c54:	8c 43 08 00 	mov	#0,	8(r12)	;r3 As==00
    4c58:	fc f0 f0 ff 	and.b	#65520,	10(r12)	;#0xfff0, 0x000a
    4c5c:	0a 00 
    4c5e:	9c 43 0c 00 	mov	#1,	12(r12)	;r3 As==01, 0x000c
    4c62:	10 01       	reta			;

00004c64 <chPoolAllocI>:
    4c64:	0a 14       	pushm.a	#1,	r10	;20-bit words
    4c66:	ca 0c       	mova	r12,	r10	;
    4c68:	9c 00 00 00 	cmpa	#0,	r12	;
    4c6c:	04 20       	jnz	$+10     	;abs 0x4c76
    4c6e:	8c 01 27 01 	mova	#65831,	r12	;0x10127
    4c72:	b0 13 42 46 	calla	#17986		;0x04642

00004c76 <.L8>:
    4c76:	0c 0a       	mova	@r10,	r12	;
    4c78:	9c 00 00 00 	cmpa	#0,	r12	;
    4c7c:	05 24       	jz	$+12     	;abs 0x4c88
    4c7e:	00 18 ea 4c 	movx.a	@r12,	0(r10)	;
    4c82:	00 00 

00004c84 <.L7>:
    4c84:	0a 16       	popm.a	#1,	r10	;20-bit words
    4c86:	10 01       	reta			;

00004c88 <.L9>:
    4c88:	3e 0a 08 00 	mova	8(r10),	r14	;
    4c8c:	9e 00 00 00 	cmpa	#0,	r14	;
    4c90:	f9 27       	jz	$-12     	;abs 0x4c84
    4c92:	6d 43       	mov.b	#2,	r13	;r3 As==10
    4c94:	3c 0a 04 00 	mova	4(r10),	r12	;
    4c98:	4e 13       	calla	r14		;
    4c9a:	80 00 84 4c 	mova	#19588,	r0	;0x04c84

00004c9e <chPoolAlloc>:
    4c9e:	32 c2       	dint			
    4ca0:	03 43       	nop			
    4ca2:	03 43       	nop			
    4ca4:	b0 13 64 4c 	calla	#19556		;0x04c64
    4ca8:	03 43       	nop			
    4caa:	03 43       	nop			
    4cac:	32 d2       	eint			
    4cae:	03 43       	nop			
    4cb0:	10 01       	reta			;

00004cb2 <chPoolFreeI>:
    4cb2:	0a 14       	pushm.a	#1,	r10	;20-bit words
    4cb4:	08 14       	pushm.a	#1,	r8	;20-bit words
    4cb6:	ca 0c       	mova	r12,	r10	;
    4cb8:	c8 0d       	mova	r13,	r8	;
    4cba:	9c 00 00 00 	cmpa	#0,	r12	;
    4cbe:	03 24       	jz	$+8      	;abs 0x4cc6
    4cc0:	9d 00 00 00 	cmpa	#0,	r13	;
    4cc4:	04 20       	jnz	$+10     	;abs 0x4cce

00004cc6 <.L15>:
    4cc6:	8c 01 1b 01 	mova	#65819,	r12	;0x1011b
    4cca:	b0 13 42 46 	calla	#17986		;0x04642

00004cce <.L16>:
    4cce:	00 18 e8 4a 	movx.a	@r10,	0(r8)	;
    4cd2:	00 00 
    4cd4:	7a 08 00 00 	mova	r8,	0(r10)	;
    4cd8:	08 16       	popm.a	#1,	r8	;20-bit words
    4cda:	0a 16       	popm.a	#1,	r10	;20-bit words
    4cdc:	10 01       	reta			;

00004cde <chPoolFree>:
    4cde:	32 c2       	dint			
    4ce0:	03 43       	nop			
    4ce2:	03 43       	nop			
    4ce4:	b0 13 b2 4c 	calla	#19634		;0x04cb2
    4ce8:	03 43       	nop			
    4cea:	03 43       	nop			
    4cec:	32 d2       	eint			
    4cee:	03 43       	nop			
    4cf0:	10 01       	reta			;

00004cf2 <_port_switch>:
    4cf2:	6a 14       	pushm.a	#7,	r10	;20-bit words
    4cf4:	7d 01 00 00 	mova	r1,	0(r13)	;
    4cf8:	01 0c       	mova	@r12,	r1	;
    4cfa:	64 16       	popm.a	#7,	r10	;20-bit words
    4cfc:	10 01       	reta			;

00004cfe <_port_thread_start>:
    4cfe:	03 43       	nop			
    4d00:	03 43       	nop			
    4d02:	32 d2       	eint			
    4d04:	03 43       	nop			
    4d06:	cc 05       	mova	r5,	r12	;
    4d08:	44 13       	calla	r4		;
    4d0a:	4c 43       	clr.b	r12		;
    4d0c:	b0 13 42 46 	calla	#17986		;0x04642
    4d10:	10 01       	reta			;

00004d12 <osalThreadDequeueNextI>:
    4d12:	2a 14       	pushm.a	#3,	r10	;20-bit words
    4d14:	06 14       	pushm.a	#1,	r6	;20-bit words
    4d16:	04 14       	pushm.a	#1,	r4	;20-bit words
    4d18:	c6 0c       	mova	r12,	r6	;
    4d1a:	c4 0d       	mova	r13,	r4	;
    4d1c:	2c 4c       	mov	@r12,	r12	;
    4d1e:	0c 93       	cmp	#0,	r12	;r3 As==00
    4d20:	18 34       	jge	$+50     	;abs 0x4d52
    4d22:	8a 01 82 1a 	mova	#72322,	r10	;0x11a82
    4d26:	88 00 42 46 	mova	#17986,	r8	;0x04642
    4d2a:	89 01 6b 01 	mova	#65899,	r9	;0x1016b

00004d2e <.L3>:
    4d2e:	00 18 56 9a 	cmpx.a	6(r10),	r6	;
    4d32:	06 00 
    4d34:	12 20       	jnz	$+38     	;abs 0x4d5a
    4d36:	96 53 00 00 	inc	0(r6)		;
    4d3a:	fa 90 03 00 	cmp.b	#3,	4(r10)	;
    4d3e:	04 00 
    4d40:	04 24       	jz	$+10     	;abs 0x4d4a
    4d42:	8c 01 6b 01 	mova	#65899,	r12	;0x1016b
    4d46:	b0 13 42 46 	calla	#17986		;0x04642

00004d4a <.L5>:
    4d4a:	cd 04       	mova	r4,	r13	;
    4d4c:	cc 0a       	mova	r10,	r12	;
    4d4e:	b0 13 12 47 	calla	#18194		;0x04712

00004d52 <.L1>:
    4d52:	04 16       	popm.a	#1,	r4	;20-bit words
    4d54:	06 16       	popm.a	#1,	r6	;20-bit words
    4d56:	28 16       	popm.a	#3,	r10	;20-bit words
    4d58:	10 01       	reta			;

00004d5a <.L4>:
    4d5a:	aa 00 10 00 	adda	#16,	r10	;0x00010
    4d5e:	9a 01 b2 1a 	cmpa	#72370,	r10	;0x11ab2
    4d62:	e5 2b       	jnc	$-52     	;abs 0x4d2e
    4d64:	cc 09       	mova	r9,	r12	;
    4d66:	48 13       	calla	r8		;
    4d68:	80 00 2e 4d 	mova	#19758,	r0	;0x04d2e

00004d6c <halInit>:
    4d6c:	b0 13 26 51 	calla	#20774		;0x05126
    4d70:	8c 01 4e 05 	mova	#66894,	r12	;0x1054e
    4d74:	b0 13 96 51 	calla	#20886		;0x05196
    4d78:	b0 13 aa 4d 	calla	#19882		;0x04daa
    4d7c:	b0 13 80 4e 	calla	#20096		;0x04e80
    4d80:	b0 13 fc 4e 	calla	#20220		;0x04efc
    4d84:	b0 13 c8 4f 	calla	#20424		;0x04fc8
    4d88:	b0 13 b0 65 	calla	#26032		;0x065b0
    4d8c:	b0 13 92 4d 	calla	#19858		;0x04d92
    4d90:	10 01       	reta			;

00004d92 <stInit>:
    4d92:	b0 13 76 51 	calla	#20854		;0x05176
    4d96:	10 01       	reta			;

00004d98 <port_lock>:
    4d98:	32 c2       	dint			
    4d9a:	03 43       	nop			
    4d9c:	03 43       	nop			
    4d9e:	10 01       	reta			;

00004da0 <port_unlock>:
    4da0:	03 43       	nop			
    4da2:	03 43       	nop			
    4da4:	32 d2       	eint			
    4da6:	03 43       	nop			
    4da8:	10 01       	reta			;

00004daa <gptInit>:
    4daa:	b0 13 ac 64 	calla	#25772		;0x064ac
    4dae:	10 01       	reta			;

00004db0 <gptObjectInit>:
    4db0:	dc 43 00 00 	mov.b	#1,	0(r12)	;r3 As==01
    4db4:	00 18 cc 43 	movx.a	#0,	2(r12)	;r3 As==00
    4db8:	02 00 
    4dba:	10 01       	reta			;

00004dbc <gptStart>:
    4dbc:	0a 14       	pushm.a	#1,	r10	;20-bit words
    4dbe:	08 14       	pushm.a	#1,	r8	;20-bit words
    4dc0:	ca 0c       	mova	r12,	r10	;
    4dc2:	c8 0d       	mova	r13,	r8	;
    4dc4:	9c 00 00 00 	cmpa	#0,	r12	;
    4dc8:	03 24       	jz	$+8      	;abs 0x4dd0
    4dca:	9d 00 00 00 	cmpa	#0,	r13	;
    4dce:	04 20       	jnz	$+10     	;abs 0x4dd8

00004dd0 <.L6>:
    4dd0:	8c 01 de 01 	mova	#66014,	r12	;0x101de
    4dd4:	b0 13 42 46 	calla	#17986		;0x04642

00004dd8 <.L7>:
    4dd8:	b0 13 98 4d 	calla	#19864		;0x04d98
    4ddc:	6c 4a       	mov.b	@r10,	r12	;
    4dde:	7c 53       	add.b	#-1,	r12	;r3 As==11
    4de0:	5d 43       	mov.b	#1,	r13	;r3 As==01
    4de2:	4d 9c       	cmp.b	r12,	r13	;
    4de4:	04 2c       	jc	$+10     	;abs 0x4dee
    4de6:	8c 01 de 01 	mova	#66014,	r12	;0x101de
    4dea:	b0 13 42 46 	calla	#17986		;0x04642

00004dee <.L8>:
    4dee:	7a 08 02 00 	mova	r8,	2(r10)	;
    4df2:	cc 0a       	mova	r10,	r12	;
    4df4:	b0 13 be 64 	calla	#25790		;0x064be
    4df8:	ea 43 00 00 	mov.b	#2,	0(r10)	;r3 As==10
    4dfc:	b0 13 a0 4d 	calla	#19872		;0x04da0
    4e00:	08 16       	popm.a	#1,	r8	;20-bit words
    4e02:	0a 16       	popm.a	#1,	r10	;20-bit words
    4e04:	10 01       	reta			;

00004e06 <gptStartOneShotI>:
    4e06:	1a 14       	pushm.a	#2,	r10	;20-bit words
    4e08:	ca 0c       	mova	r12,	r10	;
    4e0a:	09 4d       	mov	r13,	r9	;
    4e0c:	9c 00 00 00 	cmpa	#0,	r12	;
    4e10:	04 20       	jnz	$+10     	;abs 0x4e1a
    4e12:	8c 01 9f 01 	mova	#65951,	r12	;0x1019f
    4e16:	b0 13 42 46 	calla	#17986		;0x04642

00004e1a <.L23>:
    4e1a:	3c 0a 02 00 	mova	2(r10),	r12	;
    4e1e:	00 18 cc 93 	cmpx.a	#0,	4(r12)	;r3 As==00
    4e22:	04 00 
    4e24:	04 20       	jnz	$+10     	;abs 0x4e2e
    4e26:	8c 01 9f 01 	mova	#65951,	r12	;0x1019f
    4e2a:	b0 13 42 46 	calla	#17986		;0x04642

00004e2e <.L24>:
    4e2e:	ea 93 00 00 	cmp.b	#2,	0(r10)	;r3 As==10
    4e32:	04 24       	jz	$+10     	;abs 0x4e3c
    4e34:	8c 01 9f 01 	mova	#65951,	r12	;0x1019f
    4e38:	b0 13 42 46 	calla	#17986		;0x04642

00004e3c <.L25>:
    4e3c:	ea 42 00 00 	mov.b	#4,	0(r10)	;r2 As==10
    4e40:	0d 49       	mov	r9,	r13	;
    4e42:	cc 0a       	mova	r10,	r12	;
    4e44:	b0 13 80 65 	calla	#25984		;0x06580
    4e48:	19 16       	popm.a	#2,	r10	;20-bit words
    4e4a:	10 01       	reta			;

00004e4c <gptStopTimerI>:
    4e4c:	0a 14       	pushm.a	#1,	r10	;20-bit words
    4e4e:	ca 0c       	mova	r12,	r10	;
    4e50:	9c 00 00 00 	cmpa	#0,	r12	;
    4e54:	04 20       	jnz	$+10     	;abs 0x4e5e
    4e56:	8c 01 91 01 	mova	#65937,	r12	;0x10191
    4e5a:	b0 13 42 46 	calla	#17986		;0x04642

00004e5e <.L28>:
    4e5e:	6c 4a       	mov.b	@r10,	r12	;
    4e60:	7c 50 fe ff 	add.b	#65534,	r12	;#0xfffe
    4e64:	6d 43       	mov.b	#2,	r13	;r3 As==10
    4e66:	4d 9c       	cmp.b	r12,	r13	;
    4e68:	04 2c       	jc	$+10     	;abs 0x4e72
    4e6a:	8c 01 91 01 	mova	#65937,	r12	;0x10191
    4e6e:	b0 13 42 46 	calla	#17986		;0x04642

00004e72 <.L29>:
    4e72:	ea 43 00 00 	mov.b	#2,	0(r10)	;r3 As==10
    4e76:	cc 0a       	mova	r10,	r12	;
    4e78:	b0 13 a4 65 	calla	#26020		;0x065a4
    4e7c:	0a 16       	popm.a	#1,	r10	;20-bit words
    4e7e:	10 01       	reta			;

00004e80 <i2cInit>:
    4e80:	b0 13 d2 58 	calla	#22738		;0x058d2
    4e84:	10 01       	reta			;

00004e86 <i2cObjectInit>:
    4e86:	dc 43 00 00 	mov.b	#1,	0(r12)	;r3 As==01
    4e8a:	00 18 cc 43 	movx.a	#0,	2(r12)	;r3 As==00
    4e8e:	02 00 
    4e90:	10 01       	reta			;

00004e92 <i2cStart>:
    4e92:	0a 14       	pushm.a	#1,	r10	;20-bit words
    4e94:	08 14       	pushm.a	#1,	r8	;20-bit words
    4e96:	ca 0c       	mova	r12,	r10	;
    4e98:	c8 0d       	mova	r13,	r8	;
    4e9a:	9c 00 00 00 	cmpa	#0,	r12	;
    4e9e:	03 24       	jz	$+8      	;abs 0x4ea6
    4ea0:	9d 00 00 00 	cmpa	#0,	r13	;
    4ea4:	04 20       	jnz	$+10     	;abs 0x4eae

00004ea6 <.L4>:
    4ea6:	8c 01 2d 02 	mova	#66093,	r12	;0x1022d
    4eaa:	b0 13 42 46 	calla	#17986		;0x04642

00004eae <.L5>:
    4eae:	6c 4a       	mov.b	@r10,	r12	;
    4eb0:	4d 4c       	mov.b	r12,	r13	;
    4eb2:	7d 53       	add.b	#-1,	r13	;r3 As==11
    4eb4:	5e 43       	mov.b	#1,	r14	;r3 As==01
    4eb6:	4e 9d       	cmp.b	r13,	r14	;
    4eb8:	07 2c       	jc	$+16     	;abs 0x4ec8
    4eba:	3c 90 05 00 	cmp	#5,	r12	;
    4ebe:	04 24       	jz	$+10     	;abs 0x4ec8
    4ec0:	8c 01 2d 02 	mova	#66093,	r12	;0x1022d
    4ec4:	b0 13 42 46 	calla	#17986		;0x04642

00004ec8 <.L6>:
    4ec8:	32 c2       	dint			
    4eca:	03 43       	nop			
    4ecc:	03 43       	nop			
    4ece:	7a 08 02 00 	mova	r8,	2(r10)	;
    4ed2:	cc 0a       	mova	r10,	r12	;
    4ed4:	b0 13 0a 59 	calla	#22794		;0x0590a
    4ed8:	ea 43 00 00 	mov.b	#2,	0(r10)	;r3 As==10
    4edc:	03 43       	nop			
    4ede:	03 43       	nop			
    4ee0:	32 d2       	eint			
    4ee2:	03 43       	nop			
    4ee4:	08 16       	popm.a	#1,	r8	;20-bit words
    4ee6:	0a 16       	popm.a	#1,	r10	;20-bit words
    4ee8:	10 01       	reta			;

00004eea <port_lock>:
    4eea:	32 c2       	dint			
    4eec:	03 43       	nop			
    4eee:	03 43       	nop			
    4ef0:	10 01       	reta			;

00004ef2 <port_unlock>:
    4ef2:	03 43       	nop			
    4ef4:	03 43       	nop			
    4ef6:	32 d2       	eint			
    4ef8:	03 43       	nop			
    4efa:	10 01       	reta			;

00004efc <spiInit>:
    4efc:	b0 13 ea 56 	calla	#22250		;0x056ea
    4f00:	10 01       	reta			;

00004f02 <spiObjectInit>:
    4f02:	dc 43 00 00 	mov.b	#1,	0(r12)	;r3 As==01
    4f06:	00 18 cc 43 	movx.a	#0,	2(r12)	;r3 As==00
    4f0a:	02 00 
    4f0c:	00 18 cc 43 	movx.a	#0,	6(r12)	;r3 As==00
    4f10:	06 00 
    4f12:	9c 43 0a 00 	mov	#1,	10(r12)	;r3 As==01, 0x000a
    4f16:	10 01       	reta			;

00004f18 <spiStart>:
    4f18:	0a 14       	pushm.a	#1,	r10	;20-bit words
    4f1a:	08 14       	pushm.a	#1,	r8	;20-bit words
    4f1c:	ca 0c       	mova	r12,	r10	;
    4f1e:	c8 0d       	mova	r13,	r8	;
    4f20:	9c 00 00 00 	cmpa	#0,	r12	;
    4f24:	03 24       	jz	$+8      	;abs 0x4f2c
    4f26:	9d 00 00 00 	cmpa	#0,	r13	;
    4f2a:	04 20       	jnz	$+10     	;abs 0x4f34

00004f2c <.L7>:
    4f2c:	8c 01 d6 02 	mova	#66262,	r12	;0x102d6
    4f30:	b0 13 42 46 	calla	#17986		;0x04642

00004f34 <.L8>:
    4f34:	b0 13 ea 4e 	calla	#20202		;0x04eea
    4f38:	6c 4a       	mov.b	@r10,	r12	;
    4f3a:	7c 53       	add.b	#-1,	r12	;r3 As==11
    4f3c:	5d 43       	mov.b	#1,	r13	;r3 As==01
    4f3e:	4d 9c       	cmp.b	r12,	r13	;
    4f40:	04 2c       	jc	$+10     	;abs 0x4f4a
    4f42:	8c 01 d6 02 	mova	#66262,	r12	;0x102d6
    4f46:	b0 13 42 46 	calla	#17986		;0x04642

00004f4a <.L9>:
    4f4a:	7a 08 02 00 	mova	r8,	2(r10)	;
    4f4e:	cc 0a       	mova	r10,	r12	;
    4f50:	b0 13 da 57 	calla	#22490		;0x057da
    4f54:	ea 43 00 00 	mov.b	#2,	0(r10)	;r3 As==10
    4f58:	b0 13 f2 4e 	calla	#20210		;0x04ef2
    4f5c:	08 16       	popm.a	#1,	r8	;20-bit words
    4f5e:	0a 16       	popm.a	#1,	r10	;20-bit words
    4f60:	10 01       	reta			;

00004f62 <spiStartSend>:
    4f62:	0a 14       	pushm.a	#1,	r10	;20-bit words
    4f64:	08 14       	pushm.a	#1,	r8	;20-bit words
    4f66:	06 14       	pushm.a	#1,	r6	;20-bit words
    4f68:	ca 0c       	mova	r12,	r10	;
    4f6a:	c6 0d       	mova	r13,	r6	;
    4f6c:	c8 0e       	mova	r14,	r8	;
    4f6e:	9c 00 00 00 	cmpa	#0,	r12	;
    4f72:	06 24       	jz	$+14     	;abs 0x4f80
    4f74:	9d 00 00 00 	cmpa	#0,	r13	;
    4f78:	03 24       	jz	$+8      	;abs 0x4f80
    4f7a:	9e 00 00 00 	cmpa	#0,	r14	;
    4f7e:	04 20       	jnz	$+10     	;abs 0x4f88

00004f80 <.L41>:
    4f80:	8c 01 8b 02 	mova	#66187,	r12	;0x1028b
    4f84:	b0 13 42 46 	calla	#17986		;0x04642

00004f88 <.L42>:
    4f88:	b0 13 ea 4e 	calla	#20202		;0x04eea
    4f8c:	ea 93 00 00 	cmp.b	#2,	0(r10)	;r3 As==10
    4f90:	04 24       	jz	$+10     	;abs 0x4f9a
    4f92:	8c 01 8b 02 	mova	#66187,	r12	;0x1028b
    4f96:	b0 13 42 46 	calla	#17986		;0x04642

00004f9a <.L43>:
    4f9a:	fa 40 03 00 	mov.b	#3,	0(r10)	;
    4f9e:	00 00 
    4fa0:	ce 08       	mova	r8,	r14	;
    4fa2:	cd 06       	mova	r6,	r13	;
    4fa4:	cc 0a       	mova	r10,	r12	;
    4fa6:	b0 13 68 58 	calla	#22632		;0x05868
    4faa:	b0 13 f2 4e 	calla	#20210		;0x04ef2
    4fae:	06 16       	popm.a	#1,	r6	;20-bit words
    4fb0:	08 16       	popm.a	#1,	r8	;20-bit words
    4fb2:	0a 16       	popm.a	#1,	r10	;20-bit words
    4fb4:	10 01       	reta			;

00004fb6 <port_lock>:
    4fb6:	32 c2       	dint			
    4fb8:	03 43       	nop			
    4fba:	03 43       	nop			
    4fbc:	10 01       	reta			;

00004fbe <port_unlock>:
    4fbe:	03 43       	nop			
    4fc0:	03 43       	nop			
    4fc2:	32 d2       	eint			
    4fc4:	03 43       	nop			
    4fc6:	10 01       	reta			;

00004fc8 <uartInit>:
    4fc8:	b0 13 50 61 	calla	#24912		;0x06150
    4fcc:	10 01       	reta			;

00004fce <uartObjectInit>:
    4fce:	dc 43 00 00 	mov.b	#1,	0(r12)	;r3 As==01
    4fd2:	cc 43 01 00 	mov.b	#0,	1(r12)	;r3 As==00
    4fd6:	cc 43 02 00 	mov.b	#0,	2(r12)	;r3 As==00
    4fda:	00 18 cc 43 	movx.a	#0,	4(r12)	;r3 As==00
    4fde:	04 00 
    4fe0:	cc 43 08 00 	mov.b	#0,	8(r12)	;r3 As==00
    4fe4:	00 18 cc 43 	movx.a	#0,	10(r12)	;r3 As==00, 0x0000a
    4fe8:	0a 00 
    4fea:	00 18 cc 43 	movx.a	#0,	14(r12)	;r3 As==00, 0x0000e
    4fee:	0e 00 
    4ff0:	10 01       	reta			;

00004ff2 <uartStart>:
    4ff2:	0a 14       	pushm.a	#1,	r10	;20-bit words
    4ff4:	08 14       	pushm.a	#1,	r8	;20-bit words
    4ff6:	ca 0c       	mova	r12,	r10	;
    4ff8:	c8 0d       	mova	r13,	r8	;
    4ffa:	9c 00 00 00 	cmpa	#0,	r12	;
    4ffe:	03 24       	jz	$+8      	;abs 0x5006
    5000:	9d 00 00 00 	cmpa	#0,	r13	;
    5004:	04 20       	jnz	$+10     	;abs 0x500e

00005006 <.L6>:
    5006:	8c 01 9b 03 	mova	#66459,	r12	;0x1039b
    500a:	b0 13 42 46 	calla	#17986		;0x04642

0000500e <.L7>:
    500e:	b0 13 b6 4f 	calla	#20406		;0x04fb6
    5012:	6c 4a       	mov.b	@r10,	r12	;
    5014:	7c 53       	add.b	#-1,	r12	;r3 As==11
    5016:	5d 43       	mov.b	#1,	r13	;r3 As==01
    5018:	4d 9c       	cmp.b	r12,	r13	;
    501a:	04 2c       	jc	$+10     	;abs 0x5024
    501c:	8c 01 9b 03 	mova	#66459,	r12	;0x1039b
    5020:	b0 13 42 46 	calla	#17986		;0x04642

00005024 <.L8>:
    5024:	7a 08 04 00 	mova	r8,	4(r10)	;
    5028:	cc 0a       	mova	r10,	r12	;
    502a:	b0 13 b0 61 	calla	#25008		;0x061b0
    502e:	ea 43 00 00 	mov.b	#2,	0(r10)	;r3 As==10
    5032:	b0 13 be 4f 	calla	#20414		;0x04fbe
    5036:	08 16       	popm.a	#1,	r8	;20-bit words
    5038:	0a 16       	popm.a	#1,	r10	;20-bit words
    503a:	10 01       	reta			;

0000503c <uartStartSendI>:
    503c:	0a 14       	pushm.a	#1,	r10	;20-bit words
    503e:	08 14       	pushm.a	#1,	r8	;20-bit words
    5040:	06 14       	pushm.a	#1,	r6	;20-bit words
    5042:	ca 0c       	mova	r12,	r10	;
    5044:	c6 0d       	mova	r13,	r6	;
    5046:	c8 0e       	mova	r14,	r8	;
    5048:	9c 00 00 00 	cmpa	#0,	r12	;
    504c:	06 24       	jz	$+14     	;abs 0x505a
    504e:	9d 00 00 00 	cmpa	#0,	r13	;
    5052:	03 24       	jz	$+8      	;abs 0x505a
    5054:	9e 00 00 00 	cmpa	#0,	r14	;
    5058:	04 20       	jnz	$+10     	;abs 0x5062

0000505a <.L26>:
    505a:	8c 01 75 03 	mova	#66421,	r12	;0x10375
    505e:	b0 13 42 46 	calla	#17986		;0x04642

00005062 <.L27>:
    5062:	ea 93 00 00 	cmp.b	#2,	0(r10)	;r3 As==10
    5066:	04 24       	jz	$+10     	;abs 0x5070
    5068:	8c 01 75 03 	mova	#66421,	r12	;0x10375
    506c:	b0 13 42 46 	calla	#17986		;0x04642

00005070 <.L28>:
    5070:	da 93 01 00 	cmp.b	#1,	1(r10)	;r3 As==01
    5074:	04 20       	jnz	$+10     	;abs 0x507e
    5076:	8c 01 75 03 	mova	#66421,	r12	;0x10375
    507a:	b0 13 42 46 	calla	#17986		;0x04642

0000507e <.L29>:
    507e:	ce 08       	mova	r8,	r14	;
    5080:	cd 06       	mova	r6,	r13	;
    5082:	cc 0a       	mova	r10,	r12	;
    5084:	b0 13 b4 63 	calla	#25524		;0x063b4
    5088:	da 43 01 00 	mov.b	#1,	1(r10)	;r3 As==01
    508c:	06 16       	popm.a	#1,	r6	;20-bit words
    508e:	08 16       	popm.a	#1,	r8	;20-bit words
    5090:	0a 16       	popm.a	#1,	r10	;20-bit words
    5092:	10 01       	reta			;

00005094 <uartStartReceiveI>:
    5094:	0a 14       	pushm.a	#1,	r10	;20-bit words
    5096:	08 14       	pushm.a	#1,	r8	;20-bit words
    5098:	06 14       	pushm.a	#1,	r6	;20-bit words
    509a:	ca 0c       	mova	r12,	r10	;
    509c:	c6 0d       	mova	r13,	r6	;
    509e:	c8 0e       	mova	r14,	r8	;
    50a0:	9c 00 00 00 	cmpa	#0,	r12	;
    50a4:	06 24       	jz	$+14     	;abs 0x50b2
    50a6:	9d 00 00 00 	cmpa	#0,	r13	;
    50aa:	03 24       	jz	$+8      	;abs 0x50b2
    50ac:	9e 00 00 00 	cmpa	#0,	r14	;
    50b0:	04 20       	jnz	$+10     	;abs 0x50ba

000050b2 <.L56>:
    50b2:	8c 01 37 03 	mova	#66359,	r12	;0x10337
    50b6:	b0 13 42 46 	calla	#17986		;0x04642

000050ba <.L57>:
    50ba:	ea 93 00 00 	cmp.b	#2,	0(r10)	;r3 As==10
    50be:	04 24       	jz	$+10     	;abs 0x50c8
    50c0:	8c 01 37 03 	mova	#66359,	r12	;0x10337
    50c4:	b0 13 42 46 	calla	#17986		;0x04642

000050c8 <.L58>:
    50c8:	da 93 02 00 	cmp.b	#1,	2(r10)	;r3 As==01
    50cc:	04 20       	jnz	$+10     	;abs 0x50d6
    50ce:	8c 01 37 03 	mova	#66359,	r12	;0x10337
    50d2:	b0 13 42 46 	calla	#17986		;0x04642

000050d6 <.L59>:
    50d6:	ce 08       	mova	r8,	r14	;
    50d8:	cd 06       	mova	r6,	r13	;
    50da:	cc 0a       	mova	r10,	r12	;
    50dc:	b0 13 08 64 	calla	#25608		;0x06408
    50e0:	da 43 02 00 	mov.b	#1,	2(r10)	;r3 As==01
    50e4:	06 16       	popm.a	#1,	r6	;20-bit words
    50e6:	08 16       	popm.a	#1,	r8	;20-bit words
    50e8:	0a 16       	popm.a	#1,	r10	;20-bit words
    50ea:	10 01       	reta			;

000050ec <uartStopReceiveI>:
    50ec:	0a 14       	pushm.a	#1,	r10	;20-bit words
    50ee:	ca 0c       	mova	r12,	r10	;
    50f0:	9c 00 00 00 	cmpa	#0,	r12	;
    50f4:	04 20       	jnz	$+10     	;abs 0x50fe
    50f6:	8c 01 16 03 	mova	#66326,	r12	;0x10316
    50fa:	b0 13 42 46 	calla	#17986		;0x04642

000050fe <.L71>:
    50fe:	ea 93 00 00 	cmp.b	#2,	0(r10)	;r3 As==10
    5102:	04 24       	jz	$+10     	;abs 0x510c
    5104:	8c 01 16 03 	mova	#66326,	r12	;0x10316
    5108:	b0 13 42 46 	calla	#17986		;0x04642

0000510c <.L72>:
    510c:	da 93 02 00 	cmp.b	#1,	2(r10)	;r3 As==01
    5110:	07 20       	jnz	$+16     	;abs 0x5120
    5112:	cc 0a       	mova	r10,	r12	;
    5114:	b0 13 60 64 	calla	#25696		;0x06460
    5118:	ca 43 02 00 	mov.b	#0,	2(r10)	;r3 As==00

0000511c <.L70>:
    511c:	0a 16       	popm.a	#1,	r10	;20-bit words
    511e:	10 01       	reta			;

00005120 <.L74>:
    5120:	4c 43       	clr.b	r12		;
    5122:	80 00 1c 51 	mova	#20764,	r0	;0x0511c

00005126 <hal_lld_init>:
    5126:	40 18 b2 40 	movx.w	#23168,	&0x0015c;0x05a80
    512a:	80 5a 5c 01 
    512e:	c0 1f b2 40 	movx.w	#-23280,&0x00140;0xfa510
    5132:	10 a5 40 01 
    5136:	40 18 f2 43 	movx.b	#-1,	&0x00141;r3 As==11
    513a:	41 01 
    513c:	c0 1f b2 40 	movx.w	#-23296,&0x00160;0xfa500
    5140:	00 a5 60 01 
    5144:	40 18 b2 40 	movx.w	#72,	&0x00162;0x00048
    5148:	48 00 62 01 
    514c:	40 18 b2 40 	movx.w	#307,	&0x00164;0x00133
    5150:	33 01 64 01 
    5154:	40 18 82 43 	movx.w	#0,	&0x00166;r3 As==00
    5158:	66 01 
    515a:	c0 1f b2 40 	movx.w	#-15927,&0x00168;0xfc1c9
    515e:	c9 c1 68 01 
    5162:	40 18 b2 40 	movx.w	#15,	&0x0016c;0x0000f
    5166:	0f 00 6c 01 
    516a:	40 18 f2 43 	movx.b	#-1,	&0x00161;r3 As==11
    516e:	61 01 
    5170:	b0 13 4a 54 	calla	#21578		;0x0544a
    5174:	10 01       	reta			;

00005176 <st_lld_init>:
    5176:	40 18 b2 40 	movx.w	#15999,	&0x003d2;0x03e7f
    517a:	7f 3e d2 03 
    517e:	40 18 b2 40 	movx.w	#16,	&0x003c2;0x00010
    5182:	10 00 c2 03 
    5186:	40 18 82 43 	movx.w	#0,	&0x003e0;r3 As==00
    518a:	e0 03 
    518c:	40 18 b2 40 	movx.w	#532,	&0x003c0;0x00214
    5190:	14 02 c0 03 
    5194:	10 01       	reta			;

00005196 <_pal_lld_init>:
    5196:	40 18 a2 4c 	movx.w	@r12,	&0x00202;
    519a:	02 02 
    519c:	40 18 92 4c 	movx.w	2(r12),	&0x00204;
    51a0:	02 00 04 02 
    51a4:	40 18 92 4c 	movx.w	4(r12),	&0x00206;
    51a8:	04 00 06 02 
    51ac:	40 18 92 4c 	movx.w	6(r12),	&0x0020a;
    51b0:	06 00 0a 02 
    51b4:	40 18 92 4c 	movx.w	8(r12),	&0x0020c;
    51b8:	08 00 0c 02 
    51bc:	40 18 92 4c 	movx.w	10(r12),&0x00222;0x0000a
    51c0:	0a 00 22 02 
    51c4:	40 18 92 4c 	movx.w	12(r12),&0x00224;0x0000c
    51c8:	0c 00 24 02 
    51cc:	40 18 92 4c 	movx.w	14(r12),&0x00226;0x0000e
    51d0:	0e 00 26 02 
    51d4:	40 18 92 4c 	movx.w	16(r12),&0x0022a;0x00010
    51d8:	10 00 2a 02 
    51dc:	40 18 92 4c 	movx.w	18(r12),&0x0022c;0x00012
    51e0:	12 00 2c 02 
    51e4:	40 18 92 4c 	movx.w	20(r12),&0x00322;0x00014
    51e8:	14 00 22 03 
    51ec:	40 18 92 4c 	movx.w	22(r12),&0x00324;0x00016
    51f0:	16 00 24 03 
    51f4:	40 18 92 4c 	movx.w	24(r12),&0x00326;0x00018
    51f8:	18 00 26 03 
    51fc:	40 18 92 4c 	movx.w	26(r12),&0x0032a;0x0001a
    5200:	1a 00 2a 03 
    5204:	40 18 92 4c 	movx.w	28(r12),&0x0032c;0x0001c
    5208:	1c 00 2c 03 
    520c:	40 18 92 c3 	bicx.w	#1,	&0x00130;r3 As==01
    5210:	30 01 
    5212:	10 01       	reta			;

00005214 <_pal_lld_setgroupmode>:
    5214:	2e 92       	cmp	#4,	r14	;r2 As==10
    5216:	4e 24       	jz	$+158    	;abs 0x52b4
    5218:	6f 42       	mov.b	#4,	r15	;r2 As==10
    521a:	0f 9e       	cmp	r14,	r15	;
    521c:	0a 28       	jnc	$+22     	;abs 0x5232
    521e:	1e 93       	cmp	#1,	r14	;r3 As==01
    5220:	3f 24       	jz	$+128    	;abs 0x52a0
    5222:	0e 93       	cmp	#0,	r14	;r3 As==00
    5224:	2d 24       	jz	$+92     	;abs 0x5280
    5226:	2e 93       	cmp	#2,	r14	;r3 As==10
    5228:	2b 24       	jz	$+88     	;abs 0x5280
    522a:	3e 90 03 00 	cmp	#3,	r14	;
    522e:	38 24       	jz	$+114    	;abs 0x52a0

00005230 <.L38>:
    5230:	10 01       	reta			;

00005232 <.L41>:
    5232:	3e 92       	cmp	#8,	r14	;r2 As==11
    5234:	4f 24       	jz	$+160    	;abs 0x52d4
    5236:	7f 42       	mov.b	#8,	r15	;r2 As==11
    5238:	0f 9e       	cmp	r14,	r15	;
    523a:	12 28       	jnc	$+38     	;abs 0x5260
    523c:	3e 90 06 00 	cmp	#6,	r14	;
    5240:	f7 23       	jnz	$-16     	;abs 0x5230
    5242:	8c dd 04 00 	bis	r13,	4(r12)	;
    5246:	1d bc 0a 00 	bit	10(r12),r13	;0x0000a
    524a:	03 24       	jz	$+8      	;abs 0x5252
    524c:	1d bc 0c 00 	bit	12(r12),r13	;0x0000c
    5250:	23 20       	jnz	$+72     	;abs 0x5298

00005252 <.L52>:
    5252:	3d e3       	inv	r13		;
    5254:	8c fd 0a 00 	and	r13,	10(r12)	; 0x000a
    5258:	8c fd 0c 00 	and	r13,	12(r12)	; 0x000c
    525c:	80 00 30 52 	mova	#21040,	r0	;0x05230

00005260 <.L45>:
    5260:	3e 90 09 00 	cmp	#9,	r14	;
    5264:	43 24       	jz	$+136    	;abs 0x52ec
    5266:	3e 90 0a 00 	cmp	#10,	r14	;#0x000a
    526a:	e2 23       	jnz	$-58     	;abs 0x5230
    526c:	1d bc 0a 00 	bit	10(r12),r13	;0x0000a
    5270:	03 20       	jnz	$+8      	;abs 0x5278
    5272:	1d bc 0c 00 	bit	12(r12),r13	;0x0000c
    5276:	10 24       	jz	$+34     	;abs 0x5298

00005278 <.L55>:
    5278:	8c dd 0a 00 	bis	r13,	10(r12)	; 0x000a
    527c:	80 00 fc 52 	mova	#21244,	r0	;0x052fc

00005280 <.L43>:
    5280:	0e 4d       	mov	r13,	r14	;
    5282:	3e e3       	inv	r14		;
    5284:	8c fe 04 00 	and	r14,	4(r12)	;
    5288:	8c fe 08 00 	and	r14,	8(r12)	;

0000528c <.L105>:
    528c:	1d bc 0a 00 	bit	10(r12),r13	;0x0000a
    5290:	1b 24       	jz	$+56     	;abs 0x52c8
    5292:	1d bc 0c 00 	bit	12(r12),r13	;0x0000c
    5296:	18 24       	jz	$+50     	;abs 0x52c8

00005298 <.L99>:
    5298:	8c 4d 16 00 	mov	r13,	22(r12)	; 0x0016
    529c:	80 00 30 52 	mova	#21040,	r0	;0x05230

000052a0 <.L42>:
    52a0:	0e 4d       	mov	r13,	r14	;
    52a2:	3e e3       	inv	r14		;
    52a4:	8c fe 04 00 	and	r14,	4(r12)	;
    52a8:	8c dd 08 00 	bis	r13,	8(r12)	;
    52ac:	8c dd 02 00 	bis	r13,	2(r12)	;
    52b0:	80 00 8c 52 	mova	#21132,	r0	;0x0528c

000052b4 <.L40>:
    52b4:	0e 4d       	mov	r13,	r14	;
    52b6:	3e e3       	inv	r14		;
    52b8:	8c fe 04 00 	and	r14,	4(r12)	;
    52bc:	8c dd 08 00 	bis	r13,	8(r12)	;
    52c0:	8c fe 02 00 	and	r14,	2(r12)	;
    52c4:	80 00 8c 52 	mova	#21132,	r0	;0x0528c

000052c8 <.L51>:
    52c8:	8c fe 0a 00 	and	r14,	10(r12)	; 0x000a
    52cc:	8c fe 0c 00 	and	r14,	12(r12)	; 0x000c
    52d0:	80 00 30 52 	mova	#21040,	r0	;0x05230

000052d4 <.L44>:
    52d4:	1d bc 0a 00 	bit	10(r12),r13	;0x0000a
    52d8:	03 20       	jnz	$+8      	;abs 0x52e0
    52da:	1d bc 0c 00 	bit	12(r12),r13	;0x0000c
    52de:	dc 23       	jnz	$-70     	;abs 0x5298

000052e0 <.L53>:
    52e0:	8c dd 0a 00 	bis	r13,	10(r12)	; 0x000a
    52e4:	8c cd 0c 00 	bic	r13,	12(r12)	; 0x000c
    52e8:	80 00 30 52 	mova	#21040,	r0	;0x05230

000052ec <.L47>:
    52ec:	1d bc 0a 00 	bit	10(r12),r13	;0x0000a
    52f0:	03 24       	jz	$+8      	;abs 0x52f8
    52f2:	1d bc 0c 00 	bit	12(r12),r13	;0x0000c
    52f6:	d0 27       	jz	$-94     	;abs 0x5298

000052f8 <.L54>:
    52f8:	8c cd 0a 00 	bic	r13,	10(r12)	; 0x000a

000052fc <.L98>:
    52fc:	8c dd 0c 00 	bis	r13,	12(r12)	; 0x000c
    5300:	80 00 30 52 	mova	#21040,	r0	;0x05230

00005304 <_pal_lld_enablepadevent>:
    5304:	4a 14       	pushm.a	#5,	r10	;20-bit words
    5306:	b1 00 04 00 	suba	#4,	r1	;
    530a:	ca 0c       	mova	r12,	r10	;
    530c:	49 4d       	mov.b	r13,	r9	;
    530e:	47 4e       	mov.b	r14,	r7	;
    5310:	c6 0f       	mova	r15,	r6	;
    5312:	00 18 4d 4c 	movx.a	r12,	r13	;
    5316:	0c 4c       	mov	r12,	r12	;
    5318:	0f 18 4d 11 	rpt #16 { rrax.a	r13		;
    531c:	b0 13 42 c5 	calla	#50498		;0x0c542
    5320:	0d 12       	push	r13		;
    5322:	0c 12       	push	r12		;
    5324:	0c 16       	popm.a	#1,	r12	;20-bit words
    5326:	7c f0 0f 00 	and.b	#15,	r12	;#0x000f
    532a:	7d 40 07 00 	mov.b	#7,	r13	;
    532e:	4d 99       	cmp.b	r9,	r13	;
    5330:	41 28       	jnc	$+132    	;abs 0x53b4
    5332:	5d 43       	mov.b	#1,	r13	;r3 As==01

00005334 <.L108>:
    5334:	08 49       	mov	r9,	r8	;
    5336:	78 f0 07 00 	and.b	#7,	r8	;
    533a:	48 0e       	rlam.a	#4,	r8	;
    533c:	48 0d       	rram.a	#4,	r8	;
    533e:	4d 5c       	add.b	r12,	r13	;
    5340:	4c 4d       	mov.b	r13,	r12	;
    5342:	3c 53       	add	#-1,	r12	;r3 As==11
    5344:	4c 0e       	rlam.a	#4,	r12	;
    5346:	4c 0d       	rram.a	#4,	r12	;
    5348:	0c 14       	pushm.a	#1,	r12	;20-bit words
    534a:	40 18 3c 41 	popx.w	r12		;
    534e:	40 18 3d 41 	popx.w	r13		;
    5352:	b0 13 d2 c4 	calla	#50386		;0x0c4d2
    5356:	0d 12       	push	r13		;
    5358:	0c 12       	push	r12		;
    535a:	0c 16       	popm.a	#1,	r12	;20-bit words
    535c:	e8 0c       	adda	r12,	r8	;
    535e:	08 14       	pushm.a	#1,	r8	;20-bit words
    5360:	40 18 3c 41 	popx.w	r12		;
    5364:	40 18 3d 41 	popx.w	r13		;
    5368:	0e 4c       	mov	r12,	r14	;
    536a:	0f 4d       	mov	r13,	r15	;
    536c:	0e 5e       	rla	r14		;
    536e:	0f 6f       	rlc	r15		;
    5370:	0e 5e       	rla	r14		;
    5372:	0f 6f       	rlc	r15		;
    5374:	81 4e 00 00 	mov	r14,	0(r1)	;
    5378:	81 4f 02 00 	mov	r15,	2(r1)	;
    537c:	0c 01       	mova	@r1,	r12	;
    537e:	01 18 cc 46 	movx.a	r6,	72388(r12); 0x11ac4
    5382:	c4 1a 
    5384:	57 93       	cmp.b	#1,	r7	;r3 As==01
    5386:	19 20       	jnz	$+52     	;abs 0x53ba
    5388:	18 4a 18 00 	mov	24(r10),r8	;0x00018
    538c:	5c 43       	mov.b	#1,	r12	;r3 As==01
    538e:	0d 49       	mov	r9,	r13	;
    5390:	b0 13 9c c4 	calla	#50332		;0x0c49c
    5394:	08 cc       	bic	r12,	r8	;
    5396:	8a 48 18 00 	mov	r8,	24(r10)	; 0x0018

0000539a <.L110>:
    539a:	18 4a 1c 00 	mov	28(r10),r8	;0x0001c
    539e:	5c 43       	mov.b	#1,	r12	;r3 As==01
    53a0:	0d 49       	mov	r9,	r13	;
    53a2:	b0 13 9c c4 	calla	#50332		;0x0c49c
    53a6:	08 cc       	bic	r12,	r8	;
    53a8:	8a 48 1c 00 	mov	r8,	28(r10)	; 0x001c
    53ac:	8a dc 1a 00 	bis	r12,	26(r10)	; 0x001a
    53b0:	80 00 ea 53 	mova	#21482,	r0	;0x053ea

000053b4 <.L113>:
    53b4:	6d 43       	mov.b	#2,	r13	;r3 As==10
    53b6:	80 00 34 53 	mova	#21300,	r0	;0x05334

000053ba <.L109>:
    53ba:	67 93       	cmp.b	#2,	r7	;r3 As==10
    53bc:	0b 20       	jnz	$+24     	;abs 0x53d4
    53be:	18 4a 18 00 	mov	24(r10),r8	;0x00018
    53c2:	5c 43       	mov.b	#1,	r12	;r3 As==01
    53c4:	0d 49       	mov	r9,	r13	;
    53c6:	b0 13 9c c4 	calla	#50332		;0x0c49c
    53ca:	0c d8       	bis	r8,	r12	;
    53cc:	8a 4c 18 00 	mov	r12,	24(r10)	; 0x0018
    53d0:	80 00 9a 53 	mova	#21402,	r0	;0x0539a

000053d4 <.L111>:
    53d4:	07 93       	cmp	#0,	r7	;r3 As==00
    53d6:	e1 23       	jnz	$-60     	;abs 0x539a
    53d8:	18 4a 1a 00 	mov	26(r10),r8	;0x0001a
    53dc:	5c 43       	mov.b	#1,	r12	;r3 As==01
    53de:	0d 49       	mov	r9,	r13	;
    53e0:	b0 13 9c c4 	calla	#50332		;0x0c49c
    53e4:	08 cc       	bic	r12,	r8	;
    53e6:	8a 48 1a 00 	mov	r8,	26(r10)	; 0x001a

000053ea <.L107>:
    53ea:	a1 00 04 00 	adda	#4,	r1	;
    53ee:	46 16       	popm.a	#5,	r10	;20-bit words
    53f0:	10 01       	reta			;

000053f2 <_pal_lld_disablepadevent>:
    53f2:	1a 14       	pushm.a	#2,	r10	;20-bit words
    53f4:	ca 0c       	mova	r12,	r10	;
    53f6:	19 4c 1a 00 	mov	26(r12),r9	;0x0001a
    53fa:	5c 43       	mov.b	#1,	r12	;r3 As==01
    53fc:	3d f0 ff 00 	and	#255,	r13	;#0x00ff
    5400:	b0 13 9c c4 	calla	#50332		;0x0c49c
    5404:	09 cc       	bic	r12,	r9	;
    5406:	8a 49 1a 00 	mov	r9,	26(r10)	; 0x001a
    540a:	19 16       	popm.a	#2,	r10	;20-bit words
    540c:	10 01       	reta			;

0000540e <dma_trigger_set>:
    540e:	3a 14       	pushm.a	#4,	r10	;20-bit words
    5410:	49 4c       	mov.b	r12,	r9	;
    5412:	48 4d       	mov.b	r13,	r8	;
    5414:	0a 49       	mov	r9,	r10	;
    5416:	12 c3       	clrc			
    5418:	0a 10       	rrc	r10		;
    541a:	40 18 0a 4a 	movx.w	r10,	r10	;
    541e:	ea 0a       	adda	r10,	r10	;
    5420:	aa 00 00 05 	adda	#1280,	r10	;0x00500
    5424:	59 f3       	and.b	#1,	r9	;r3 As==01
    5426:	42 18 09 59 	rpt #3 { rlax.w	r9		;
    542a:	3c 40 00 ff 	mov	#65280,	r12	;#0xff00
    542e:	0d 49       	mov	r9,	r13	;
    5430:	b0 13 a4 c5 	calla	#50596		;0x0c5a4
    5434:	07 4c       	mov	r12,	r7	;
    5436:	27 fa       	and	@r10,	r7	;
    5438:	0c 48       	mov	r8,	r12	;
    543a:	0d 49       	mov	r9,	r13	;
    543c:	b0 13 9c c4 	calla	#50332		;0x0c49c
    5440:	07 dc       	bis	r12,	r7	;
    5442:	8a 47 00 00 	mov	r7,	0(r10)	;
    5446:	37 16       	popm.a	#4,	r10	;20-bit words
    5448:	10 01       	reta			;

0000544a <dmaInit>:
    544a:	40 18 82 43 	movx.w	#0,	&0x0ef7c;r3 As==00
    544e:	7c ef 
    5450:	10 01       	reta			;

00005452 <dmaAcquireI>:
    5452:	2a 14       	pushm.a	#3,	r10	;20-bit words
    5454:	ca 0c       	mova	r12,	r10	;
    5456:	40 18 19 42 	movx.w	&0x00510,r9	;
    545a:	10 05 
    545c:	79 f0 10 00 	and.b	#16,	r9	;#0x0010
    5460:	09 93       	cmp	#0,	r9	;r3 As==00
    5462:	11 24       	jz	$+36     	;abs 0x5486
    5464:	8c 00 20 05 	mova	#1312,	r12	;0x00520
    5468:	40 18 bc b0 	bitx.w	#16,	0(r12)	;0x00010
    546c:	10 00 00 00 
    5470:	09 24       	jz	$+20     	;abs 0x5484
    5472:	40 18 bc b0 	bitx.w	#16,	16(r12)	;0x00010, 0x00010
    5476:	10 00 10 00 
    547a:	1f 24       	jz	$+64     	;abs 0x54ba
    547c:	8c 0f ff ff 	mova	#-1,	r12	;0xffffffff

00005480 <.L14>:
    5480:	28 16       	popm.a	#3,	r10	;20-bit words
    5482:	10 01       	reta			;

00005484 <.L18>:
    5484:	59 43       	mov.b	#1,	r9	;r3 As==01

00005486 <.L15>:
    5486:	48 49       	mov.b	r9,	r8	;
    5488:	4d 43       	clr.b	r13		;
    548a:	4c 48       	mov.b	r8,	r12	;
    548c:	b0 13 0e 54 	calla	#21518		;0x0540e
    5490:	0c 49       	mov	r9,	r12	;
    5492:	0d 43       	clr	r13		;
    5494:	b0 13 ce c4 	calla	#50382		;0x0c4ce
    5498:	0d 12       	push	r13		;
    549a:	0c 12       	push	r12		;
    549c:	0c 16       	popm.a	#1,	r12	;20-bit words
    549e:	ac 00 10 05 	adda	#1296,	r12	;0x00510
    54a2:	8c 43 0a 00 	mov	#0,	10(r12)	;r3 As==00, 0x000a
    54a6:	bc 40 12 00 	mov	#18,	0(r12)	;#0x0012
    54aa:	00 00 
    54ac:	7a 0c 00 00 	mova	r12,	0(r10)	;
    54b0:	ca 48 04 00 	mov.b	r8,	4(r10)	;
    54b4:	4c 43       	clr.b	r12		;
    54b6:	80 00 80 54 	mova	#21632,	r0	;0x05480

000054ba <.L19>:
    54ba:	69 43       	mov.b	#2,	r9	;r3 As==10
    54bc:	80 00 86 54 	mova	#21638,	r0	;0x05486

000054c0 <dmaClaimI>:
    54c0:	3a 14       	pushm.a	#4,	r10	;20-bit words
    54c2:	c8 0c       	mova	r12,	r8	;
    54c4:	49 4d       	mov.b	r13,	r9	;
    54c6:	6c 43       	mov.b	#2,	r12	;r3 As==10
    54c8:	4c 99       	cmp.b	r9,	r12	;
    54ca:	04 2c       	jc	$+10     	;abs 0x54d4
    54cc:	8c 01 bc 03 	mova	#66492,	r12	;0x103bc
    54d0:	b0 13 42 46 	calla	#17986		;0x04642

000054d4 <.L27>:
    54d4:	0c 49       	mov	r9,	r12	;
    54d6:	0d 43       	clr	r13		;
    54d8:	b0 13 ce c4 	calla	#50382		;0x0c4ce
    54dc:	0d 12       	push	r13		;
    54de:	0c 12       	push	r12		;
    54e0:	0a 16       	popm.a	#1,	r10	;20-bit words
    54e2:	aa 00 10 05 	adda	#1296,	r10	;0x00510
    54e6:	27 4a       	mov	@r10,	r7	;
    54e8:	77 f0 10 00 	and.b	#16,	r7	;#0x0010
    54ec:	07 93       	cmp	#0,	r7	;r3 As==00
    54ee:	10 20       	jnz	$+34     	;abs 0x5510
    54f0:	4d 47       	mov.b	r7,	r13	;
    54f2:	4c 49       	mov.b	r9,	r12	;
    54f4:	b0 13 0e 54 	calla	#21518		;0x0540e
    54f8:	8a 47 0a 00 	mov	r7,	10(r10)	; 0x000a
    54fc:	ba 40 12 00 	mov	#18,	0(r10)	;#0x0012
    5500:	00 00 
    5502:	78 0a 00 00 	mova	r10,	0(r8)	;
    5506:	c8 49 04 00 	mov.b	r9,	4(r8)	;
    550a:	4c 43       	clr.b	r12		;

0000550c <.L26>:
    550c:	37 16       	popm.a	#4,	r10	;20-bit words
    550e:	10 01       	reta			;

00005510 <.L29>:
    5510:	8c 0f ff ff 	mova	#-1,	r12	;0xffffffff
    5514:	80 00 0c 55 	mova	#21772,	r0	;0x0550c

00005518 <dmaTransferI>:
    5518:	0a 14       	pushm.a	#1,	r10	;20-bit words
    551a:	08 14       	pushm.a	#1,	r8	;20-bit words
    551c:	c8 0c       	mova	r12,	r8	;
    551e:	ca 0d       	mova	r13,	r10	;
    5520:	0c 0c       	mova	@r12,	r12	;
    5522:	bc f0 ef ff 	and	#65519,	0(r12)	;#0xffef
    5526:	00 00 
    5528:	5d 4d 10 00 	mov.b	16(r13),r13	;0x00010
    552c:	5c 48 04 00 	mov.b	4(r8),	r12	;
    5530:	b0 13 0e 54 	calla	#21518		;0x0540e
    5534:	5c 48 04 00 	mov.b	4(r8),	r12	;
    5538:	0d 43       	clr	r13		;
    553a:	b0 13 d2 c4 	calla	#50386		;0x0c4d2
    553e:	0d 12       	push	r13		;
    5540:	0c 12       	push	r12		;
    5542:	0c 16       	popm.a	#1,	r12	;20-bit words
    5544:	ac 00 7e ef 	adda	#61310,	r12	;0x0ef7e
    5548:	9c 4a 12 00 	mov	18(r10),0(r12)	;0x00012
    554c:	00 00 
    554e:	9c 4a 14 00 	mov	20(r10),2(r12)	;0x00014
    5552:	02 00 
    5554:	9c 4a 16 00 	mov	22(r10),4(r12)	;0x00016
    5558:	04 00 
    555a:	9c 4a 18 00 	mov	24(r10),6(r12)	;0x00018
    555e:	06 00 
    5560:	0c 08       	mova	@r8,	r12	;
    5562:	00 18 ec 4a 	movx.a	@r10,	2(r12)	;
    5566:	02 00 
    5568:	0c 08       	mova	@r8,	r12	;
    556a:	00 18 dc 4a 	movx.a	4(r10),	6(r12)	;
    556e:	04 00 06 00 
    5572:	0e 08       	mova	@r8,	r14	;
    5574:	9e 4a 08 00 	mov	8(r10),	10(r14)	; 0x000a
    5578:	0a 00 
    557a:	1c 4a 0c 00 	mov	12(r10),r12	;0x0000c
    557e:	1c da 0a 00 	bis	10(r10),r12	;0x0000a
    5582:	3c d0 15 00 	bis	#21,	r12	;#0x0015
    5586:	1c da 0e 00 	bis	14(r10),r12	;0x0000e
    558a:	8e 4c 00 00 	mov	r12,	0(r14)	;
    558e:	08 16       	popm.a	#1,	r8	;20-bit words
    5590:	0a 16       	popm.a	#1,	r10	;20-bit words
    5592:	10 01       	reta			;

00005594 <dmaReleaseX>:
    5594:	1a 14       	pushm.a	#2,	r10	;20-bit words
    5596:	ca 0c       	mova	r12,	r10	;
    5598:	b0 13 de 46 	calla	#18142		;0x046de
    559c:	09 4c       	mov	r12,	r9	;
    559e:	9a 00 00 00 	cmpa	#0,	r10	;
    55a2:	09 20       	jnz	$+20     	;abs 0x55b6
    55a4:	8c 01 b0 03 	mova	#66480,	r12	;0x103b0
    55a8:	b0 13 42 46 	calla	#17986		;0x04642

000055ac <.L34>:
    55ac:	0c 49       	mov	r9,	r12	;
    55ae:	b0 13 fa 46 	calla	#18170		;0x046fa
    55b2:	19 16       	popm.a	#2,	r10	;20-bit words
    55b4:	10 01       	reta			;

000055b6 <.L33>:
    55b6:	0c 0a       	mova	@r10,	r12	;
    55b8:	9c 00 00 00 	cmpa	#0,	r12	;
    55bc:	f7 27       	jz	$-16     	;abs 0x55ac
    55be:	40 18 bc b0 	bitx.w	#16,	0(r12)	;0x00010
    55c2:	10 00 00 00 
    55c6:	f2 27       	jz	$-26     	;abs 0x55ac
    55c8:	ac 43 00 00 	mov	#2,	0(r12)	;r3 As==10
    55cc:	4d 43       	clr.b	r13		;
    55ce:	8c 00 7c ef 	mova	#61308,	r12	;0x0ef7c
    55d2:	b0 13 12 4d 	calla	#19730		;0x04d12
    55d6:	80 00 ac 55 	mova	#21932,	r0	;0x055ac

000055da <dmaCancelI>:
    55da:	0a 14       	pushm.a	#1,	r10	;20-bit words
    55dc:	ca 0c       	mova	r12,	r10	;
    55de:	9c 00 00 00 	cmpa	#0,	r12	;
    55e2:	04 20       	jnz	$+10     	;abs 0x55ec
    55e4:	8c 01 a5 03 	mova	#66469,	r12	;0x103a5
    55e8:	b0 13 42 46 	calla	#17986		;0x04642

000055ec <.L41>:
    55ec:	0c 0a       	mova	@r10,	r12	;
    55ee:	40 18 bc b0 	bitx.w	#16,	0(r12)	;0x00010
    55f2:	10 00 00 00 
    55f6:	0e 24       	jz	$+30     	;abs 0x5614
    55f8:	bc f0 ee ff 	and	#65518,	0(r12)	;#0xffee
    55fc:	00 00 
    55fe:	4d 43       	clr.b	r13		;
    5600:	5c 4a 04 00 	mov.b	4(r10),	r12	;
    5604:	b0 13 0e 54 	calla	#21518		;0x0540e
    5608:	0c 0a       	mova	@r10,	r12	;
    560a:	8c 43 0a 00 	mov	#0,	10(r12)	;r3 As==00, 0x000a
    560e:	bc 40 12 00 	mov	#18,	0(r12)	;#0x0012
    5612:	00 00 

00005614 <.L40>:
    5614:	0a 16       	popm.a	#1,	r10	;20-bit words
    5616:	10 01       	reta			;

00005618 <init_transfer>:
    5618:	0a 14       	pushm.a	#1,	r10	;20-bit words
    561a:	08 14       	pushm.a	#1,	r8	;20-bit words
    561c:	06 14       	pushm.a	#1,	r6	;20-bit words
    561e:	04 14       	pushm.a	#1,	r4	;20-bit words
    5620:	ca 0c       	mova	r12,	r10	;
    5622:	c8 0c       	mova	r12,	r8	;
    5624:	a8 00 52 00 	adda	#82,	r8	;0x00052
    5628:	98 00 00 00 	cmpa	#0,	r8	;
    562c:	09 24       	jz	$+20     	;abs 0x5640
    562e:	3c 0c 52 00 	mova	82(r12),r12	;0x00052
    5632:	9c 00 00 00 	cmpa	#0,	r12	;
    5636:	04 24       	jz	$+10     	;abs 0x5640
    5638:	bc b0 10 00 	bit	#16,	0(r12)	;#0x0010
    563c:	00 00 
    563e:	03 20       	jnz	$+8      	;abs 0x5646

00005640 <.L2>:
    5640:	cc 08       	mova	r8,	r12	;
    5642:	b0 13 52 54 	calla	#21586		;0x05452

00005646 <.L3>:
    5646:	c6 0a       	mova	r10,	r6	;
    5648:	a6 00 48 00 	adda	#72,	r6	;0x00048
    564c:	96 00 00 00 	cmpa	#0,	r6	;
    5650:	09 24       	jz	$+20     	;abs 0x5664
    5652:	3c 0a 48 00 	mova	72(r10),r12	;0x00048
    5656:	9c 00 00 00 	cmpa	#0,	r12	;
    565a:	04 24       	jz	$+10     	;abs 0x5664
    565c:	bc b0 10 00 	bit	#16,	0(r12)	;#0x0010
    5660:	00 00 
    5662:	03 20       	jnz	$+8      	;abs 0x566a

00005664 <.L4>:
    5664:	cc 06       	mova	r6,	r12	;
    5666:	b0 13 52 54 	calla	#21586		;0x05452

0000566a <.L5>:
    566a:	84 00 18 55 	mova	#21784,	r4	;0x05518
    566e:	cd 0a       	mova	r10,	r13	;
    5670:	ad 00 2e 00 	adda	#46,	r13	;0x0002e
    5674:	cc 08       	mova	r8,	r12	;
    5676:	44 13       	calla	r4		;
    5678:	cd 0a       	mova	r10,	r13	;
    567a:	ad 00 14 00 	adda	#20,	r13	;0x00014
    567e:	cc 06       	mova	r6,	r12	;
    5680:	44 13       	calla	r4		;
    5682:	3c 0a 10 00 	mova	16(r10),r12	;0x00010
    5686:	ac d3 00 00 	bis	#2,	0(r12)	;r3 As==10
    568a:	04 16       	popm.a	#1,	r4	;20-bit words
    568c:	06 16       	popm.a	#1,	r6	;20-bit words
    568e:	08 16       	popm.a	#1,	r8	;20-bit words
    5690:	0a 16       	popm.a	#1,	r10	;20-bit words
    5692:	10 01       	reta			;

00005694 <spi_lld_end_of_transfer>:
    5694:	0a 14       	pushm.a	#1,	r10	;20-bit words
    5696:	08 14       	pushm.a	#1,	r8	;20-bit words
    5698:	ca 0c       	mova	r12,	r10	;
    569a:	3e 0c 10 00 	mova	16(r12),r14	;0x00010
    569e:	ae c3 00 00 	bic	#2,	0(r14)	;r3 As==10
    56a2:	3e 0c 02 00 	mova	2(r12),	r14	;
    56a6:	0e 0e       	mova	@r14,	r14	;
    56a8:	9e 00 00 00 	cmpa	#0,	r14	;
    56ac:	06 24       	jz	$+14     	;abs 0x56ba
    56ae:	ec 42 00 00 	mov.b	#4,	0(r12)	;r2 As==10
    56b2:	4e 13       	calla	r14		;
    56b4:	ea 92 00 00 	cmp.b	#4,	0(r10)	;r2 As==10
    56b8:	02 20       	jnz	$+6      	;abs 0x56be

000056ba <.L17>:
    56ba:	ea 43 00 00 	mov.b	#2,	0(r10)	;r3 As==10

000056be <.L18>:
    56be:	4d 43       	clr.b	r13		;
    56c0:	cc 0a       	mova	r10,	r12	;
    56c2:	ac 00 06 00 	adda	#6,	r12	;
    56c6:	b0 13 72 48 	calla	#18546		;0x04872
    56ca:	ea 93 00 00 	cmp.b	#2,	0(r10)	;r3 As==10
    56ce:	0a 20       	jnz	$+22     	;abs 0x56e4
    56d0:	88 00 94 55 	mova	#21908,	r8	;0x05594
    56d4:	cc 0a       	mova	r10,	r12	;
    56d6:	ac 00 52 00 	adda	#82,	r12	;0x00052
    56da:	48 13       	calla	r8		;
    56dc:	cc 0a       	mova	r10,	r12	;
    56de:	ac 00 48 00 	adda	#72,	r12	;0x00048
    56e2:	48 13       	calla	r8		;

000056e4 <.L16>:
    56e4:	08 16       	popm.a	#1,	r8	;20-bit words
    56e6:	0a 16       	popm.a	#1,	r10	;20-bit words
    56e8:	10 01       	reta			;

000056ea <spi_lld_init>:
    56ea:	0a 14       	pushm.a	#1,	r10	;20-bit words
    56ec:	8a 01 44 1b 	mova	#72516,	r10	;0x11b44
    56f0:	cc 0a       	mova	r10,	r12	;
    56f2:	b0 13 02 4f 	calla	#20226		;0x04f02
    56f6:	00 18 fa 40 	movx.a	#1472,	12(r10)	;0x005c0, 0x0000c
    56fa:	c0 05 0c 00 
    56fe:	00 18 fa 40 	movx.a	#1500,	16(r10)	;0x005dc, 0x00010
    5702:	dc 05 10 00 
    5706:	ba 40 0f 00 	mov	#15,	36(r10)	;#0x000f, 0x0024
    570a:	24 00 
    570c:	ba 40 0e 00 	mov	#14,	62(r10)	;#0x000e, 0x003e
    5710:	3e 00 
    5712:	00 18 fa 40 	movx.a	#1486,	24(r10)	;0x005ce, 0x00018
    5716:	ce 05 18 00 
    571a:	00 18 fa 40 	movx.a	#1484,	46(r10)	;0x005cc, 0x0002e
    571e:	cc 05 2e 00 
    5722:	ba 40 c0 00 	mov	#192,	32(r10)	;#0x00c0, 0x0020
    5726:	20 00 
    5728:	ba 40 c0 00 	mov	#192,	58(r10)	;#0x00c0, 0x003a
    572c:	3a 00 
    572e:	8a 43 22 00 	mov	#0,	34(r10)	;r3 As==00, 0x0022
    5732:	8a 43 3c 00 	mov	#0,	60(r10)	;r3 As==00, 0x003c
    5736:	00 18 ca 43 	movx.a	#0,	38(r10)	;r3 As==00, 0x00026
    573a:	26 00 
    573c:	00 18 ca 43 	movx.a	#0,	42(r10)	;r3 As==00, 0x0002a
    5740:	2a 00 
    5742:	00 18 fa 40 	movx.a	#22164,	64(r10)	;0x05694, 0x00040
    5746:	94 56 40 00 
    574a:	7a 0a 44 00 	mova	r10,	68(r10)	; 0x00044
    574e:	0a 16       	popm.a	#1,	r10	;20-bit words
    5750:	10 01       	reta			;

00005752 <spi_lld_select>:
    5752:	1a 14       	pushm.a	#2,	r10	;20-bit words
    5754:	3c 0c 02 00 	mova	2(r12),	r12	;
    5758:	3c 0c 04 00 	mova	4(r12),	r12	;
    575c:	9c 00 00 00 	cmpa	#0,	r12	;
    5760:	18 24       	jz	$+50     	;abs 0x5792
    5762:	ca 0c       	mova	r12,	r10	;
    5764:	00 18 7a f0 	andx.a	#4095,	r10	;0x00fff
    5768:	ff 0f 
    576a:	19 4a 02 00 	mov	2(r10),	r9	;
    576e:	0c 14       	pushm.a	#1,	r12	;20-bit words
    5770:	40 18 3c 41 	popx.w	r12		;
    5774:	40 18 3d 41 	popx.w	r13		;
    5778:	b0 13 bc c5 	calla	#50620		;0x0c5bc
    577c:	0d 12       	push	r13		;
    577e:	0c 12       	push	r12		;
    5780:	0c 16       	popm.a	#1,	r12	;20-bit words
    5782:	40 18 0d 4c 	movx.w	r12,	r13	;
    5786:	5c 43       	mov.b	#1,	r12	;r3 As==01
    5788:	b0 13 9c c4 	calla	#50332		;0x0c49c
    578c:	09 cc       	bic	r12,	r9	;
    578e:	8a 49 02 00 	mov	r9,	2(r10)	;

00005792 <.L26>:
    5792:	19 16       	popm.a	#2,	r10	;20-bit words
    5794:	10 01       	reta			;

00005796 <spi_lld_unselect>:
    5796:	1a 14       	pushm.a	#2,	r10	;20-bit words
    5798:	3c 0c 02 00 	mova	2(r12),	r12	;
    579c:	3c 0c 04 00 	mova	4(r12),	r12	;
    57a0:	9c 00 00 00 	cmpa	#0,	r12	;
    57a4:	18 24       	jz	$+50     	;abs 0x57d6
    57a6:	ca 0c       	mova	r12,	r10	;
    57a8:	00 18 7a f0 	andx.a	#4095,	r10	;0x00fff
    57ac:	ff 0f 
    57ae:	19 4a 02 00 	mov	2(r10),	r9	;
    57b2:	0c 14       	pushm.a	#1,	r12	;20-bit words
    57b4:	40 18 3c 41 	popx.w	r12		;
    57b8:	40 18 3d 41 	popx.w	r13		;
    57bc:	b0 13 bc c5 	calla	#50620		;0x0c5bc
    57c0:	0d 12       	push	r13		;
    57c2:	0c 12       	push	r12		;
    57c4:	0c 16       	popm.a	#1,	r12	;20-bit words
    57c6:	40 18 0d 4c 	movx.w	r12,	r13	;
    57ca:	5c 43       	mov.b	#1,	r12	;r3 As==01
    57cc:	b0 13 9c c4 	calla	#50332		;0x0c49c
    57d0:	0c d9       	bis	r9,	r12	;
    57d2:	8a 4c 02 00 	mov	r12,	2(r10)	;

000057d6 <.L31>:
    57d6:	19 16       	popm.a	#2,	r10	;20-bit words
    57d8:	10 01       	reta			;

000057da <spi_lld_start>:
    57da:	0a 14       	pushm.a	#1,	r10	;20-bit words
    57dc:	08 14       	pushm.a	#1,	r8	;20-bit words
    57de:	ca 0c       	mova	r12,	r10	;
    57e0:	9c 01 44 1b 	cmpa	#72516,	r12	;0x11b44
    57e4:	3a 20       	jnz	$+118    	;abs 0x585a
    57e6:	3c 0c 02 00 	mova	2(r12),	r12	;
    57ea:	1e 4c 08 00 	mov	8(r12),	r14	;
    57ee:	1f 4c 0a 00 	mov	10(r12),r15	;0x0000a
    57f2:	3c 40 00 24 	mov	#9216,	r12	;#0x2400
    57f6:	7d 40 f4 00 	mov.b	#244,	r13	;#0x00f4
    57fa:	b0 13 66 c4 	calla	#50278		;0x0c466
    57fe:	7d 40 80 00 	mov.b	#128,	r13	;#0x0080

00005802 <.L37>:
    5802:	3e 0a 0c 00 	mova	12(r10),r14	;0x0000c
    5806:	8e 4c 06 00 	mov	r12,	6(r14)	;
    580a:	38 0a 02 00 	mova	2(r10),	r8	;
    580e:	5c 48 0e 00 	mov.b	14(r8),	r12	;0x0000e
    5812:	6c e3       	xor.b	#2,	r12	;r3 As==10
    5814:	0f 4c       	mov	r12,	r15	;
    5816:	4d 18 0f 5f 	rpt #14 { rlax.w	r15		;
    581a:	5c 48 0c 00 	mov.b	12(r8),	r12	;0x0000c
    581e:	4c 18 0c 5c 	rpt #13 { rlax.w	r12		;
    5822:	5b 48 0d 00 	mov.b	13(r8),	r11	;0x0000d
    5826:	4b 18 0b 5b 	rpt #12 { rlax.w	r11		;
    582a:	0c db       	bis	r11,	r12	;
    582c:	00 18 c8 93 	cmpx.a	#0,	4(r8)	;r3 As==00
    5830:	04 00 
    5832:	17 20       	jnz	$+48     	;abs 0x5862
    5834:	38 40 00 04 	mov	#1024,	r8	;#0x0400

00005838 <.L38>:
    5838:	3c d0 02 09 	bis	#2306,	r12	;#0x0902
    583c:	0c df       	bis	r15,	r12	;
    583e:	0c dd       	bis	r13,	r12	;
    5840:	0c d8       	bis	r8,	r12	;
    5842:	8e 4c 00 00 	mov	r12,	0(r14)	;
    5846:	3c 0a 10 00 	mova	16(r10),r12	;0x00010
    584a:	8c 43 00 00 	mov	#0,	0(r12)	;r3 As==00
    584e:	cc 0a       	mova	r10,	r12	;
    5850:	b0 13 96 57 	calla	#22422		;0x05796
    5854:	08 16       	popm.a	#1,	r8	;20-bit words
    5856:	0a 16       	popm.a	#1,	r10	;20-bit words
    5858:	10 01       	reta			;

0000585a <.L39>:
    585a:	4d 43       	clr.b	r13		;
    585c:	0c 4d       	mov	r13,	r12	;
    585e:	80 00 02 58 	mova	#22530,	r0	;0x05802

00005862 <.L40>:
    5862:	48 43       	clr.b	r8		;
    5864:	80 00 38 58 	mova	#22584,	r0	;0x05838

00005868 <spi_lld_send>:
    5868:	0a 14       	pushm.a	#1,	r10	;20-bit words
    586a:	ca 0c       	mova	r12,	r10	;
    586c:	7c 0e 14 00 	mova	r14,	20(r12)	; 0x00014
    5870:	8c 4d 1c 00 	mov	r13,	28(r12)	; 0x001c
    5874:	bc 40 00 03 	mov	#768,	30(r12)	;#0x0300, 0x001e
    5878:	1e 00 
    587a:	00 18 fc 40 	movx.a	#61334,	50(r12)	;0x0ef96, 0x00032
    587e:	96 ef 32 00 
    5882:	8c 4d 36 00 	mov	r13,	54(r12)	; 0x0036
    5886:	8c 43 38 00 	mov	#0,	56(r12)	;r3 As==00, 0x0038
    588a:	b0 13 18 56 	calla	#22040		;0x05618
    588e:	0a 16       	popm.a	#1,	r10	;20-bit words
    5890:	10 01       	reta			;

00005892 <spi_lld_polled_exchange>:
    5892:	1a 14       	pushm.a	#2,	r10	;20-bit words
    5894:	ca 0c       	mova	r12,	r10	;
    5896:	49 4d       	mov.b	r13,	r9	;
    5898:	ec 93 00 00 	cmp.b	#2,	0(r12)	;r3 As==10
    589c:	04 24       	jz	$+10     	;abs 0x58a6
    589e:	8c 01 c6 03 	mova	#66502,	r12	;0x103c6
    58a2:	b0 13 42 46 	calla	#17986		;0x04642

000058a6 <.L46>:
    58a6:	3e 0a 0c 00 	mova	12(r10),r14	;0x0000c
    58aa:	8e 49 0e 00 	mov	r9,	14(r14)	; 0x000e
    58ae:	3c 0a 10 00 	mova	16(r10),r12	;0x00010

000058b2 <.L47>:
    58b2:	40 18 9c b3 	bitx.w	#1,	0(r12)	;r3 As==01
    58b6:	00 00 
    58b8:	fc 27       	jz	$-6      	;abs 0x58b2
    58ba:	bc f0 fc ff 	and	#65532,	0(r12)	;#0xfffc
    58be:	00 00 
    58c0:	5c 4e 0c 00 	mov.b	12(r14),r12	;0x0000c
    58c4:	19 16       	popm.a	#2,	r10	;20-bit words
    58c6:	10 01       	reta			;

000058c8 <tx_complete>:
    58c8:	3c 0c 10 00 	mova	16(r12),r12	;0x00010
    58cc:	ac d3 2a 00 	bis	#2,	42(r12)	;r3 As==10, 0x002a
    58d0:	10 01       	reta			;

000058d2 <i2c_lld_init>:
    58d2:	0a 14       	pushm.a	#1,	r10	;20-bit words
    58d4:	8a 01 a0 1b 	mova	#72608,	r10	;0x11ba0
    58d8:	cc 0a       	mova	r10,	r12	;
    58da:	b0 13 86 4e 	calla	#20102		;0x04e86
    58de:	00 18 fa 40 	movx.a	#1600,	16(r10)	;0x00640, 0x00010
    58e2:	40 06 10 00 
    58e6:	ba 40 c0 00 	mov	#192,	32(r10)	;#0x00c0, 0x0020
    58ea:	20 00 
    58ec:	8a 43 22 00 	mov	#0,	34(r10)	;r3 As==00, 0x0022
    58f0:	fa 40 13 00 	mov.b	#19,	50(r10)	;#0x0013, 0x0032
    58f4:	32 00 
    58f6:	fa 40 12 00 	mov.b	#18,	51(r10)	;#0x0012, 0x0033
    58fa:	33 00 
    58fc:	00 18 ca 43 	movx.a	#0,	38(r10)	;r3 As==00, 0x00026
    5900:	26 00 
    5902:	7a 0a 2a 00 	mova	r10,	42(r10)	; 0x0002a
    5906:	0a 16       	popm.a	#1,	r10	;20-bit words
    5908:	10 01       	reta			;

0000590a <i2c_lld_start>:
    590a:	0a 14       	pushm.a	#1,	r10	;20-bit words
    590c:	ca 0c       	mova	r12,	r10	;
    590e:	9c 01 a0 1b 	cmpa	#72608,	r12	;0x11ba0
    5912:	52 20       	jnz	$+166    	;abs 0x59b8
    5914:	40 18 92 d3 	bisx.w	#1,	&0x00640;r3 As==01
    5918:	40 06 
    591a:	3c 0c 02 00 	mova	2(r12),	r12	;
    591e:	2e 4c       	mov	@r12,	r14	;
    5920:	1f 4c 02 00 	mov	2(r12),	r15	;
    5924:	3c 40 00 24 	mov	#9216,	r12	;#0x2400
    5928:	7d 40 f4 00 	mov.b	#244,	r13	;#0x00f4
    592c:	b0 13 66 c4 	calla	#50278		;0x0c466
    5930:	40 18 82 4c 	movx.w	r12,	&0x00646;
    5934:	46 06 
    5936:	40 18 b2 40 	movx.w	#192,	&0x00642;0x000c0
    593a:	c0 00 42 06 
    593e:	40 18 b2 40 	movx.w	#3968,	&0x00640;0x00f80
    5942:	80 0f 40 06 
    5946:	3c 0a 10 00 	mova	16(r10),r12	;0x00010
    594a:	40 18 bc b0 	bitx.w	#16,	8(r12)	;0x00010
    594e:	10 00 08 00 
    5952:	2b 24       	jz	$+88     	;abs 0x59aa
    5954:	40 18 92 d3 	bisx.w	#1,	&0x00640;r3 As==01
    5958:	40 06 
    595a:	40 18 f2 f0 	andx.b	#127,	&0x0020c;0x0007f
    595e:	7f 00 0c 02 
    5962:	c0 1f f2 d0 	bisx.b	#-128,	&0x00204;0xfff80
    5966:	80 ff 04 02 
    596a:	40 18 f2 f0 	andx.b	#127,	&0x00206;0x0007f
    596e:	7f 00 06 02 
    5972:	7c 40 0a 00 	mov.b	#10,	r12	;#0x000a

00005976 <.L7>:
    5976:	40 18 f2 f0 	andx.b	#127,	&0x00202;0x0007f
    597a:	7f 00 02 02 
    597e:	c0 1f f2 d0 	bisx.b	#-128,	&0x00202;0xfff80
    5982:	80 ff 02 02 
    5986:	3c 53       	add	#-1,	r12	;r3 As==11
    5988:	0c 93       	cmp	#0,	r12	;r3 As==00
    598a:	f5 23       	jnz	$-20     	;abs 0x5976
    598c:	40 18 f2 f0 	andx.b	#127,	&0x00204;0x0007f
    5990:	7f 00 04 02 
    5994:	c0 1f f2 d0 	bisx.b	#-128,	&0x0020c;0xfff80
    5998:	80 ff 0c 02 
    599c:	c0 1f f2 d0 	bisx.b	#-128,	&0x00206;0xfff80
    59a0:	80 ff 06 02 
    59a4:	40 18 92 c3 	bicx.w	#1,	&0x00640;r3 As==01
    59a8:	40 06 

000059aa <.L6>:
    59aa:	40 18 b2 40 	movx.w	#184,	&0x0066a;0x000b8
    59ae:	b8 00 6a 06 
    59b2:	40 18 82 43 	movx.w	#0,	&0x0066c;r3 As==00
    59b6:	6c 06 

000059b8 <.L4>:
    59b8:	0a 16       	popm.a	#1,	r10	;20-bit words
    59ba:	10 01       	reta			;

000059bc <i2cMSP430XStartReceiveToRegI>:
    59bc:	2a 14       	pushm.a	#3,	r10	;20-bit words
    59be:	06 14       	pushm.a	#1,	r6	;20-bit words
    59c0:	04 14       	pushm.a	#1,	r4	;20-bit words
    59c2:	ca 0c       	mova	r12,	r10	;
    59c4:	49 4d       	mov.b	r13,	r9	;
    59c6:	c6 0e       	mova	r14,	r6	;
    59c8:	c8 0f       	mova	r15,	r8	;
    59ca:	34 01 18 00 	mova	24(r1),	r4	;0x00018
    59ce:	9e 00 00 00 	cmpa	#0,	r14	;
    59d2:	04 20       	jnz	$+10     	;abs 0x59dc
    59d4:	8c 01 e0 04 	mova	#66784,	r12	;0x104e0
    59d8:	b0 13 42 46 	calla	#17986		;0x04642

000059dc <.L16>:
    59dc:	49 93       	cmp.b	#0,	r9	;r3 As==00
    59de:	04 34       	jge	$+10     	;abs 0x59e8
    59e0:	8c 01 e0 04 	mova	#66784,	r12	;0x104e0
    59e4:	b0 13 42 46 	calla	#17986		;0x04642

000059e8 <.L17>:
    59e8:	8a 43 06 00 	mov	#0,	6(r10)	;r3 As==00
    59ec:	ea 42 00 00 	mov.b	#4,	0(r10)	;r2 As==10
    59f0:	7a 08 08 00 	mova	r8,	8(r10)	;
    59f4:	96 00 01 00 	cmpa	#1,	r6	;
    59f8:	19 20       	jnz	$+52     	;abs 0x5a2c
    59fa:	7a 08 18 00 	mova	r8,	24(r10)	; 0x00018
    59fe:	8a 43 1c 00 	mov	#0,	28(r10)	;r3 As==00, 0x001c
    5a02:	3c 0a 10 00 	mova	16(r10),r12	;0x00010
    5a06:	bc f0 ef ff 	and	#65519,	0(r12)	;#0xffef
    5a0a:	00 00 
    5a0c:	ac d3 00 00 	bis	#2,	0(r12)	;r3 As==10

00005a10 <.L19>:
    5a10:	ac b3 00 00 	bit	#2,	0(r12)	;r3 As==10
    5a14:	fd 23       	jnz	$-4      	;abs 0x5a10
    5a16:	94 00 00 00 	cmpa	#0,	r4	;
    5a1a:	04 24       	jz	$+10     	;abs 0x5a24
    5a1c:	5e 43       	mov.b	#1,	r14	;r3 As==01
    5a1e:	cd 08       	mova	r8,	r13	;
    5a20:	cc 0a       	mova	r10,	r12	;
    5a22:	44 13       	calla	r4		;

00005a24 <.L15>:
    5a24:	04 16       	popm.a	#1,	r4	;20-bit words
    5a26:	06 16       	popm.a	#1,	r6	;20-bit words
    5a28:	28 16       	popm.a	#3,	r10	;20-bit words
    5a2a:	10 01       	reta			;

00005a2c <.L18>:
    5a2c:	3c 0a 10 00 	mova	16(r10),r12	;0x00010
    5a30:	ac 00 0c 00 	adda	#12,	r12	;0x0000c
    5a34:	7a 0c 14 00 	mova	r12,	20(r10)	; 0x00014
    5a38:	7a 08 18 00 	mova	r8,	24(r10)	; 0x00018
    5a3c:	40 18 06 46 	movx.w	r6,	r6	;
    5a40:	36 53       	add	#-1,	r6	;r3 As==11
    5a42:	8a 46 1c 00 	mov	r6,	28(r10)	; 0x001c
    5a46:	8a 43 1e 00 	mov	#0,	30(r10)	;r3 As==00, 0x001e
    5a4a:	5c 4a 33 00 	mov.b	51(r10),r12	;0x00033
    5a4e:	8a 4c 24 00 	mov	r12,	36(r10)	; 0x0024
    5a52:	7a 04 0c 00 	mova	r4,	12(r10)	; 0x0000c
    5a56:	00 18 fa 40 	movx.a	#24112,	38(r10)	;0x05e30, 0x00026
    5a5a:	30 5e 26 00 
    5a5e:	7a 0a 2a 00 	mova	r10,	42(r10)	; 0x0002a
    5a62:	c8 0a       	mova	r10,	r8	;
    5a64:	a8 00 34 00 	adda	#52,	r8	;0x00034
    5a68:	3c 0a 34 00 	mova	52(r10),r12	;0x00034
    5a6c:	9c 00 00 00 	cmpa	#0,	r12	;
    5a70:	04 24       	jz	$+10     	;abs 0x5a7a
    5a72:	bc b0 10 00 	bit	#16,	0(r12)	;#0x0010
    5a76:	00 00 
    5a78:	03 20       	jnz	$+8      	;abs 0x5a80

00005a7a <.L21>:
    5a7a:	cc 08       	mova	r8,	r12	;
    5a7c:	b0 13 52 54 	calla	#21586		;0x05452

00005a80 <.L22>:
    5a80:	cd 0a       	mova	r10,	r13	;
    5a82:	ad 00 14 00 	adda	#20,	r13	;0x00014
    5a86:	cc 08       	mova	r8,	r12	;
    5a88:	b0 13 18 55 	calla	#21784		;0x05518
    5a8c:	3c 0a 10 00 	mova	16(r10),r12	;0x00010
    5a90:	8c 49 20 00 	mov	r9,	32(r12)	; 0x0020
    5a94:	bc f0 ef ff 	and	#65519,	0(r12)	;#0xffef
    5a98:	00 00 
    5a9a:	ac d3 00 00 	bis	#2,	0(r12)	;r3 As==10
    5a9e:	80 00 24 5a 	mova	#23076,	r0	;0x05a24

00005aa2 <i2cMSP430XStartReceiveI>:
    5aa2:	2a 14       	pushm.a	#3,	r10	;20-bit words
    5aa4:	06 14       	pushm.a	#1,	r6	;20-bit words
    5aa6:	04 14       	pushm.a	#1,	r4	;20-bit words
    5aa8:	ca 0c       	mova	r12,	r10	;
    5aaa:	49 4d       	mov.b	r13,	r9	;
    5aac:	c6 0e       	mova	r14,	r6	;
    5aae:	c8 0f       	mova	r15,	r8	;
    5ab0:	34 01 18 00 	mova	24(r1),	r4	;0x00018
    5ab4:	9e 00 00 00 	cmpa	#0,	r14	;
    5ab8:	04 20       	jnz	$+10     	;abs 0x5ac2
    5aba:	8c 01 c8 04 	mova	#66760,	r12	;0x104c8
    5abe:	b0 13 42 46 	calla	#17986		;0x04642

00005ac2 <.L31>:
    5ac2:	49 93       	cmp.b	#0,	r9	;r3 As==00
    5ac4:	04 34       	jge	$+10     	;abs 0x5ace
    5ac6:	8c 01 c8 04 	mova	#66760,	r12	;0x104c8
    5aca:	b0 13 42 46 	calla	#17986		;0x04642

00005ace <.L32>:
    5ace:	8a 43 06 00 	mov	#0,	6(r10)	;r3 As==00
    5ad2:	ea 42 00 00 	mov.b	#4,	0(r10)	;r2 As==10
    5ad6:	7a 08 08 00 	mova	r8,	8(r10)	;
    5ada:	96 00 01 00 	cmpa	#1,	r6	;
    5ade:	19 20       	jnz	$+52     	;abs 0x5b12
    5ae0:	7a 08 18 00 	mova	r8,	24(r10)	; 0x00018
    5ae4:	8a 43 1c 00 	mov	#0,	28(r10)	;r3 As==00, 0x001c
    5ae8:	3c 0a 10 00 	mova	16(r10),r12	;0x00010
    5aec:	bc f0 ef ff 	and	#65519,	0(r12)	;#0xffef
    5af0:	00 00 
    5af2:	ac d3 00 00 	bis	#2,	0(r12)	;r3 As==10

00005af6 <.L34>:
    5af6:	ac b3 00 00 	bit	#2,	0(r12)	;r3 As==10
    5afa:	fd 23       	jnz	$-4      	;abs 0x5af6
    5afc:	94 00 00 00 	cmpa	#0,	r4	;
    5b00:	04 24       	jz	$+10     	;abs 0x5b0a
    5b02:	5e 43       	mov.b	#1,	r14	;r3 As==01
    5b04:	cd 08       	mova	r8,	r13	;
    5b06:	cc 0a       	mova	r10,	r12	;
    5b08:	44 13       	calla	r4		;

00005b0a <.L30>:
    5b0a:	04 16       	popm.a	#1,	r4	;20-bit words
    5b0c:	06 16       	popm.a	#1,	r6	;20-bit words
    5b0e:	28 16       	popm.a	#3,	r10	;20-bit words
    5b10:	10 01       	reta			;

00005b12 <.L33>:
    5b12:	3c 0a 10 00 	mova	16(r10),r12	;0x00010
    5b16:	ac 00 0c 00 	adda	#12,	r12	;0x0000c
    5b1a:	7a 0c 14 00 	mova	r12,	20(r10)	; 0x00014
    5b1e:	7a 08 18 00 	mova	r8,	24(r10)	; 0x00018
    5b22:	40 18 06 46 	movx.w	r6,	r6	;
    5b26:	36 53       	add	#-1,	r6	;r3 As==11
    5b28:	8a 46 1c 00 	mov	r6,	28(r10)	; 0x001c
    5b2c:	ba 40 00 0c 	mov	#3072,	30(r10)	;#0x0c00, 0x001e
    5b30:	1e 00 
    5b32:	5c 4a 33 00 	mov.b	51(r10),r12	;0x00033
    5b36:	8a 4c 24 00 	mov	r12,	36(r10)	; 0x0024
    5b3a:	7a 04 0c 00 	mova	r4,	12(r10)	; 0x0000c
    5b3e:	00 18 fa 40 	movx.a	#24112,	38(r10)	;0x05e30, 0x00026
    5b42:	30 5e 26 00 
    5b46:	7a 0a 2a 00 	mova	r10,	42(r10)	; 0x0002a
    5b4a:	c8 0a       	mova	r10,	r8	;
    5b4c:	a8 00 34 00 	adda	#52,	r8	;0x00034
    5b50:	3c 0a 34 00 	mova	52(r10),r12	;0x00034
    5b54:	9c 00 00 00 	cmpa	#0,	r12	;
    5b58:	04 24       	jz	$+10     	;abs 0x5b62
    5b5a:	bc b0 10 00 	bit	#16,	0(r12)	;#0x0010
    5b5e:	00 00 
    5b60:	03 20       	jnz	$+8      	;abs 0x5b68

00005b62 <.L36>:
    5b62:	cc 08       	mova	r8,	r12	;
    5b64:	b0 13 52 54 	calla	#21586		;0x05452

00005b68 <.L37>:
    5b68:	cd 0a       	mova	r10,	r13	;
    5b6a:	ad 00 14 00 	adda	#20,	r13	;0x00014
    5b6e:	cc 08       	mova	r8,	r12	;
    5b70:	b0 13 18 55 	calla	#21784		;0x05518
    5b74:	3c 0a 10 00 	mova	16(r10),r12	;0x00010
    5b78:	8c 49 20 00 	mov	r9,	32(r12)	; 0x0020
    5b7c:	bc f0 ef ff 	and	#65519,	0(r12)	;#0xffef
    5b80:	00 00 
    5b82:	ac d3 00 00 	bis	#2,	0(r12)	;r3 As==10
    5b86:	80 00 0a 5b 	mova	#23306,	r0	;0x05b0a

00005b8a <i2cMSP430XStartTransmitMSBI>:
    5b8a:	2a 14       	pushm.a	#3,	r10	;20-bit words
    5b8c:	06 14       	pushm.a	#1,	r6	;20-bit words
    5b8e:	c6 0c       	mova	r12,	r6	;
    5b90:	49 4d       	mov.b	r13,	r9	;
    5b92:	ca 0e       	mova	r14,	r10	;
    5b94:	c8 0f       	mova	r15,	r8	;
    5b96:	ec 93 00 00 	cmp.b	#2,	0(r12)	;r3 As==10
    5b9a:	04 24       	jz	$+10     	;abs 0x5ba4
    5b9c:	8c 01 ac 04 	mova	#66732,	r12	;0x104ac
    5ba0:	b0 13 42 46 	calla	#17986		;0x04642

00005ba4 <.L46>:
    5ba4:	9a 00 00 00 	cmpa	#0,	r10	;
    5ba8:	04 20       	jnz	$+10     	;abs 0x5bb2
    5baa:	8c 01 ac 04 	mova	#66732,	r12	;0x104ac
    5bae:	b0 13 42 46 	calla	#17986		;0x04642

00005bb2 <.L47>:
    5bb2:	49 93       	cmp.b	#0,	r9	;r3 As==00
    5bb4:	04 34       	jge	$+10     	;abs 0x5bbe
    5bb6:	8c 01 ac 04 	mova	#66732,	r12	;0x104ac
    5bba:	b0 13 42 46 	calla	#17986		;0x04642

00005bbe <.L48>:
    5bbe:	3c 06 10 00 	mova	16(r6),	r12	;0x00010
    5bc2:	ac c3 2c 00 	bic	#2,	44(r12)	;r3 As==10, 0x002c
    5bc6:	ac c3 2a 00 	bic	#2,	42(r12)	;r3 As==10, 0x002a
    5bca:	86 43 06 00 	mov	#0,	6(r6)	;r3 As==00
    5bce:	f6 40 03 00 	mov.b	#3,	0(r6)	;
    5bd2:	00 00 
    5bd4:	76 08 08 00 	mova	r8,	8(r6)	;
    5bd8:	ce 0a       	mova	r10,	r14	;
    5bda:	ae 0f ff ff 	adda	#1048575,r14	;0xfffff
    5bde:	e8 0e       	adda	r14,	r8	;
    5be0:	76 08 14 00 	mova	r8,	20(r6)	; 0x00014
    5be4:	ac 00 0e 00 	adda	#14,	r12	;0x0000e
    5be8:	76 0c 18 00 	mova	r12,	24(r6)	; 0x00018
    5bec:	40 18 86 4a 	movx.w	r10,	28(r6)	; 0x0001c
    5bf0:	1c 00 
    5bf2:	b6 40 00 02 	mov	#512,	30(r6)	;#0x0200, 0x001e
    5bf6:	1e 00 
    5bf8:	5c 46 32 00 	mov.b	50(r6),	r12	;0x00032
    5bfc:	86 4c 24 00 	mov	r12,	36(r6)	; 0x0024
    5c00:	00 18 d6 41 	movx.a	20(r1),	12(r6)	;0x00014, 0x0000c
    5c04:	14 00 0c 00 
    5c08:	00 18 f6 40 	movx.a	#22728,	38(r6)	;0x058c8, 0x00026
    5c0c:	c8 58 26 00 
    5c10:	ca 06       	mova	r6,	r10	;
    5c12:	aa 00 34 00 	adda	#52,	r10	;0x00034
    5c16:	3c 06 34 00 	mova	52(r6),	r12	;0x00034
    5c1a:	9c 00 00 00 	cmpa	#0,	r12	;
    5c1e:	04 24       	jz	$+10     	;abs 0x5c28
    5c20:	bc b0 10 00 	bit	#16,	0(r12)	;#0x0010
    5c24:	00 00 
    5c26:	03 20       	jnz	$+8      	;abs 0x5c2e

00005c28 <.L49>:
    5c28:	cc 0a       	mova	r10,	r12	;
    5c2a:	b0 13 52 54 	calla	#21586		;0x05452

00005c2e <.L50>:
    5c2e:	cd 06       	mova	r6,	r13	;
    5c30:	ad 00 14 00 	adda	#20,	r13	;0x00014
    5c34:	cc 0a       	mova	r10,	r12	;
    5c36:	b0 13 18 55 	calla	#21784		;0x05518
    5c3a:	3c 06 10 00 	mova	16(r6),	r12	;0x00010
    5c3e:	8c 49 20 00 	mov	r9,	32(r12)	; 0x0020
    5c42:	bc d0 12 00 	bis	#18,	0(r12)	;#0x0012
    5c46:	00 00 
    5c48:	06 16       	popm.a	#1,	r6	;20-bit words
    5c4a:	28 16       	popm.a	#3,	r10	;20-bit words
    5c4c:	10 01       	reta			;

00005c4e <i2cMSP430XContinueTransmitMemsetI>:
    5c4e:	2a 14       	pushm.a	#3,	r10	;20-bit words
    5c50:	06 14       	pushm.a	#1,	r6	;20-bit words
    5c52:	c6 0c       	mova	r12,	r6	;
    5c54:	49 4d       	mov.b	r13,	r9	;
    5c56:	ca 0e       	mova	r14,	r10	;
    5c58:	c8 0f       	mova	r15,	r8	;
    5c5a:	fc 90 03 00 	cmp.b	#3,	0(r12)	;
    5c5e:	00 00 
    5c60:	04 24       	jz	$+10     	;abs 0x5c6a
    5c62:	8c 01 52 04 	mova	#66642,	r12	;0x10452
    5c66:	b0 13 42 46 	calla	#17986		;0x04642

00005c6a <.L79>:
    5c6a:	9a 00 00 00 	cmpa	#0,	r10	;
    5c6e:	04 20       	jnz	$+10     	;abs 0x5c78
    5c70:	8c 01 52 04 	mova	#66642,	r12	;0x10452
    5c74:	b0 13 42 46 	calla	#17986		;0x04642

00005c78 <.L80>:
    5c78:	49 93       	cmp.b	#0,	r9	;r3 As==00
    5c7a:	04 34       	jge	$+10     	;abs 0x5c84
    5c7c:	8c 01 52 04 	mova	#66642,	r12	;0x10452
    5c80:	b0 13 42 46 	calla	#17986		;0x04642

00005c84 <.L81>:
    5c84:	76 08 08 00 	mova	r8,	8(r6)	;
    5c88:	76 08 14 00 	mova	r8,	20(r6)	; 0x00014
    5c8c:	3c 06 10 00 	mova	16(r6),	r12	;0x00010
    5c90:	ac 00 0e 00 	adda	#14,	r12	;0x0000e
    5c94:	76 0c 18 00 	mova	r12,	24(r6)	; 0x00018
    5c98:	40 18 86 4a 	movx.w	r10,	28(r6)	; 0x0001c
    5c9c:	1c 00 
    5c9e:	86 43 1e 00 	mov	#0,	30(r6)	;r3 As==00, 0x001e
    5ca2:	5c 46 32 00 	mov.b	50(r6),	r12	;0x00032
    5ca6:	86 4c 24 00 	mov	r12,	36(r6)	; 0x0024
    5caa:	00 18 d6 41 	movx.a	20(r1),	12(r6)	;0x00014, 0x0000c
    5cae:	14 00 0c 00 
    5cb2:	00 18 f6 40 	movx.a	#22728,	38(r6)	;0x058c8, 0x00026
    5cb6:	c8 58 26 00 
    5cba:	ca 06       	mova	r6,	r10	;
    5cbc:	aa 00 34 00 	adda	#52,	r10	;0x00034
    5cc0:	3c 06 34 00 	mova	52(r6),	r12	;0x00034
    5cc4:	9c 00 00 00 	cmpa	#0,	r12	;
    5cc8:	04 24       	jz	$+10     	;abs 0x5cd2
    5cca:	bc b0 10 00 	bit	#16,	0(r12)	;#0x0010
    5cce:	00 00 
    5cd0:	04 20       	jnz	$+10     	;abs 0x5cda

00005cd2 <.L82>:
    5cd2:	8c 01 52 04 	mova	#66642,	r12	;0x10452
    5cd6:	b0 13 42 46 	calla	#17986		;0x04642

00005cda <.L83>:
    5cda:	cd 06       	mova	r6,	r13	;
    5cdc:	ad 00 14 00 	adda	#20,	r13	;0x00014
    5ce0:	cc 0a       	mova	r10,	r12	;
    5ce2:	b0 13 18 55 	calla	#21784		;0x05518
    5ce6:	3c 06 10 00 	mova	16(r6),	r12	;0x00010
    5cea:	ac d3 2c 00 	bis	#2,	44(r12)	;r3 As==10, 0x002c
    5cee:	06 16       	popm.a	#1,	r6	;20-bit words
    5cf0:	28 16       	popm.a	#3,	r10	;20-bit words
    5cf2:	10 01       	reta			;

00005cf4 <i2cMSP430XContinueTransmitI>:
    5cf4:	2a 14       	pushm.a	#3,	r10	;20-bit words
    5cf6:	06 14       	pushm.a	#1,	r6	;20-bit words
    5cf8:	c6 0c       	mova	r12,	r6	;
    5cfa:	49 4d       	mov.b	r13,	r9	;
    5cfc:	ca 0e       	mova	r14,	r10	;
    5cfe:	c8 0f       	mova	r15,	r8	;
    5d00:	fc 90 03 00 	cmp.b	#3,	0(r12)	;
    5d04:	00 00 
    5d06:	04 24       	jz	$+10     	;abs 0x5d10
    5d08:	8c 01 36 04 	mova	#66614,	r12	;0x10436
    5d0c:	b0 13 42 46 	calla	#17986		;0x04642

00005d10 <.L88>:
    5d10:	9a 00 00 00 	cmpa	#0,	r10	;
    5d14:	04 20       	jnz	$+10     	;abs 0x5d1e
    5d16:	8c 01 36 04 	mova	#66614,	r12	;0x10436
    5d1a:	b0 13 42 46 	calla	#17986		;0x04642

00005d1e <.L89>:
    5d1e:	49 93       	cmp.b	#0,	r9	;r3 As==00
    5d20:	04 34       	jge	$+10     	;abs 0x5d2a
    5d22:	8c 01 36 04 	mova	#66614,	r12	;0x10436
    5d26:	b0 13 42 46 	calla	#17986		;0x04642

00005d2a <.L90>:
    5d2a:	76 08 08 00 	mova	r8,	8(r6)	;
    5d2e:	76 08 14 00 	mova	r8,	20(r6)	; 0x00014
    5d32:	3c 06 10 00 	mova	16(r6),	r12	;0x00010
    5d36:	ac 00 0e 00 	adda	#14,	r12	;0x0000e
    5d3a:	76 0c 18 00 	mova	r12,	24(r6)	; 0x00018
    5d3e:	40 18 86 4a 	movx.w	r10,	28(r6)	; 0x0001c
    5d42:	1c 00 
    5d44:	b6 40 00 03 	mov	#768,	30(r6)	;#0x0300, 0x001e
    5d48:	1e 00 
    5d4a:	5c 46 32 00 	mov.b	50(r6),	r12	;0x00032
    5d4e:	86 4c 24 00 	mov	r12,	36(r6)	; 0x0024
    5d52:	00 18 d6 41 	movx.a	20(r1),	12(r6)	;0x00014, 0x0000c
    5d56:	14 00 0c 00 
    5d5a:	00 18 f6 40 	movx.a	#22728,	38(r6)	;0x058c8, 0x00026
    5d5e:	c8 58 26 00 
    5d62:	ca 06       	mova	r6,	r10	;
    5d64:	aa 00 34 00 	adda	#52,	r10	;0x00034
    5d68:	3c 06 34 00 	mova	52(r6),	r12	;0x00034
    5d6c:	9c 00 00 00 	cmpa	#0,	r12	;
    5d70:	04 24       	jz	$+10     	;abs 0x5d7a
    5d72:	bc b0 10 00 	bit	#16,	0(r12)	;#0x0010
    5d76:	00 00 
    5d78:	04 20       	jnz	$+10     	;abs 0x5d82

00005d7a <.L91>:
    5d7a:	8c 01 36 04 	mova	#66614,	r12	;0x10436
    5d7e:	b0 13 42 46 	calla	#17986		;0x04642

00005d82 <.L92>:
    5d82:	cd 06       	mova	r6,	r13	;
    5d84:	ad 00 14 00 	adda	#20,	r13	;0x00014
    5d88:	cc 0a       	mova	r10,	r12	;
    5d8a:	b0 13 18 55 	calla	#21784		;0x05518
    5d8e:	3c 06 10 00 	mova	16(r6),	r12	;0x00010
    5d92:	ac d3 2c 00 	bis	#2,	44(r12)	;r3 As==10, 0x002c
    5d96:	06 16       	popm.a	#1,	r6	;20-bit words
    5d98:	28 16       	popm.a	#3,	r10	;20-bit words
    5d9a:	10 01       	reta			;

00005d9c <i2cMSP430XEndTransferI>:
    5d9c:	0a 14       	pushm.a	#1,	r10	;20-bit words
    5d9e:	b1 00 02 00 	suba	#2,	r1	;
    5da2:	ca 0c       	mova	r12,	r10	;
    5da4:	6c 4c       	mov.b	@r12,	r12	;
    5da6:	7c 50 fd ff 	add.b	#65533,	r12	;#0xfffd
    5daa:	5d 43       	mov.b	#1,	r13	;r3 As==01
    5dac:	4d 9c       	cmp.b	r12,	r13	;
    5dae:	04 2c       	jc	$+10     	;abs 0x5db8
    5db0:	8c 01 1f 04 	mova	#66591,	r12	;0x1041f
    5db4:	b0 13 42 46 	calla	#17986		;0x04642

00005db8 <.L97>:
    5db8:	3c 0a 10 00 	mova	16(r10),r12	;0x00010
    5dbc:	ac d2 00 00 	bis	#4,	0(r12)	;r2 As==10
    5dc0:	ea 92 00 00 	cmp.b	#4,	0(r10)	;r2 As==10
    5dc4:	2e 20       	jnz	$+94     	;abs 0x5e22

00005dc6 <.L110>:
    5dc6:	40 18 9c b3 	bitx.w	#1,	44(r12)	;r3 As==01, 0x0002c
    5dca:	2c 00 
    5dcc:	fc 27       	jz	$-6      	;abs 0x5dc6
    5dce:	3e 0a 18 00 	mova	24(r10),r14	;0x00018
    5dd2:	8a 93 1e 00 	cmp	#0,	30(r10)	;r3 As==00, 0x001e
    5dd6:	1f 24       	jz	$+64     	;abs 0x5e16
    5dd8:	1d 4c 0c 00 	mov	12(r12),r13	;0x0000c
    5ddc:	40 18 1c 4a 	movx.w	28(r10),r12	;0x0001c
    5de0:	1c 00 
    5de2:	ec 0e       	adda	r14,	r12	;
    5de4:	cc 4d 00 00 	mov.b	r13,	0(r12)	;

00005de8 <.L101>:
    5de8:	3c 0a 10 00 	mova	16(r10),r12	;0x00010

00005dec <.L102>:
    5dec:	ac b2 00 00 	bit	#4,	0(r12)	;r2 As==10
    5df0:	fd 23       	jnz	$-4      	;abs 0x5dec
    5df2:	bc c2 2c 00 	bic	#8,	44(r12)	;r2 As==11, 0x002c
    5df6:	40 18 9c b3 	bitx.w	#1,	44(r12)	;r3 As==01, 0x0002c
    5dfa:	2c 00 
    5dfc:	06 24       	jz	$+14     	;abs 0x5e0a
    5dfe:	1c 4c 0c 00 	mov	12(r12),r12	;0x0000c
    5e02:	c1 4c 01 00 	mov.b	r12,	1(r1)	;
    5e06:	5c 41 01 00 	mov.b	1(r1),	r12	;

00005e0a <.L103>:
    5e0a:	ea 43 00 00 	mov.b	#2,	0(r10)	;r3 As==10
    5e0e:	a1 00 02 00 	adda	#2,	r1	;
    5e12:	0a 16       	popm.a	#1,	r10	;20-bit words
    5e14:	10 01       	reta			;

00005e16 <.L100>:
    5e16:	1c 4c 0c 00 	mov	12(r12),r12	;0x0000c
    5e1a:	ce 4c 00 00 	mov.b	r12,	0(r14)	;
    5e1e:	80 00 e8 5d 	mova	#24040,	r0	;0x05de8

00005e22 <.L107>:
    5e22:	ac b2 00 00 	bit	#4,	0(r12)	;r2 As==10
    5e26:	fd 23       	jnz	$-4      	;abs 0x5e22
    5e28:	bc c2 2c 00 	bic	#8,	44(r12)	;r2 As==11, 0x002c
    5e2c:	80 00 0a 5e 	mova	#24074,	r0	;0x05e0a

00005e30 <rx_async_callback>:
    5e30:	0a 14       	pushm.a	#1,	r10	;20-bit words
    5e32:	08 14       	pushm.a	#1,	r8	;20-bit words
    5e34:	ca 0c       	mova	r12,	r10	;
    5e36:	38 0c 0c 00 	mova	12(r12),r8	;0x0000c
    5e3a:	98 00 00 00 	cmpa	#0,	r8	;
    5e3e:	08 24       	jz	$+18     	;abs 0x5e50
    5e40:	1e 4c 1c 00 	mov	28(r12),r14	;0x0001c
    5e44:	3d 0c 08 00 	mova	8(r12),	r13	;
    5e48:	48 13       	calla	r8		;

00005e4a <.L113>:
    5e4a:	08 16       	popm.a	#1,	r8	;20-bit words
    5e4c:	0a 16       	popm.a	#1,	r10	;20-bit words
    5e4e:	10 01       	reta			;

00005e50 <.L114>:
    5e50:	b0 13 9c 5d 	calla	#23964		;0x05d9c
    5e54:	80 00 4a 5e 	mova	#24138,	r0	;0x05e4a

00005e58 <UCBRS>:
    5e58:	3d 40 10 02 	mov	#528,	r13	;#0x0210
    5e5c:	0d 9c       	cmp	r12,	r13	;
    5e5e:	8b 2c       	jc	$+280    	;abs 0x5f76
    5e60:	3d 40 ca 02 	mov	#714,	r13	;#0x02ca
    5e64:	0d 9c       	cmp	r12,	r13	;
    5e66:	8a 2c       	jc	$+278    	;abs 0x5f7c
    5e68:	3d 40 42 03 	mov	#834,	r13	;#0x0342
    5e6c:	0d 9c       	cmp	r12,	r13	;
    5e6e:	89 2c       	jc	$+276    	;abs 0x5f82
    5e70:	3d 40 e8 03 	mov	#1000,	r13	;#0x03e8
    5e74:	0d 9c       	cmp	r12,	r13	;
    5e76:	88 2c       	jc	$+274    	;abs 0x5f88
    5e78:	3d 40 e3 04 	mov	#1251,	r13	;#0x04e3
    5e7c:	0d 9c       	cmp	r12,	r13	;
    5e7e:	87 2c       	jc	$+272    	;abs 0x5f8e
    5e80:	3d 40 95 05 	mov	#1429,	r13	;#0x0595
    5e84:	0d 9c       	cmp	r12,	r13	;
    5e86:	86 2c       	jc	$+270    	;abs 0x5f94
    5e88:	3d 40 85 06 	mov	#1669,	r13	;#0x0685
    5e8c:	0d 9c       	cmp	r12,	r13	;
    5e8e:	86 2c       	jc	$+270    	;abs 0x5f9c
    5e90:	3d 40 62 08 	mov	#2146,	r13	;#0x0862
    5e94:	0d 9c       	cmp	r12,	r13	;
    5e96:	86 2c       	jc	$+270    	;abs 0x5fa4
    5e98:	3d 40 af 08 	mov	#2223,	r13	;#0x08af
    5e9c:	0d 9c       	cmp	r12,	r13	;
    5e9e:	86 2c       	jc	$+270    	;abs 0x5fac
    5ea0:	3d 40 c6 09 	mov	#2502,	r13	;#0x09c6
    5ea4:	0d 9c       	cmp	r12,	r13	;
    5ea6:	86 2c       	jc	$+270    	;abs 0x5fb4
    5ea8:	3d 40 b7 0b 	mov	#2999,	r13	;#0x0bb7
    5eac:	0d 9c       	cmp	r12,	r13	;
    5eae:	86 2c       	jc	$+270    	;abs 0x5fbc
    5eb0:	3d 40 06 0d 	mov	#3334,	r13	;#0x0d06
    5eb4:	0d 9c       	cmp	r12,	r13	;
    5eb6:	86 2c       	jc	$+270    	;abs 0x5fc4
    5eb8:	3d 40 f6 0d 	mov	#3574,	r13	;#0x0df6
    5ebc:	0d 9c       	cmp	r12,	r13	;
    5ebe:	86 2c       	jc	$+270    	;abs 0x5fcc
    5ec0:	3d 40 a8 0e 	mov	#3752,	r13	;#0x0ea8
    5ec4:	0d 9c       	cmp	r12,	r13	;
    5ec6:	86 2c       	jc	$+270    	;abs 0x5fd4
    5ec8:	3d 40 a2 0f 	mov	#4002,	r13	;#0x0fa2
    5ecc:	0d 9c       	cmp	r12,	r13	;
    5ece:	86 2c       	jc	$+270    	;abs 0x5fdc
    5ed0:	3d 40 bd 10 	mov	#4285,	r13	;#0x10bd
    5ed4:	0d 9c       	cmp	r12,	r13	;
    5ed6:	86 2c       	jc	$+270    	;abs 0x5fe4
    5ed8:	3d 40 19 11 	mov	#4377,	r13	;#0x1119
    5edc:	0d 9c       	cmp	r12,	r13	;
    5ede:	86 2c       	jc	$+270    	;abs 0x5fec
    5ee0:	3d 40 89 13 	mov	#5001,	r13	;#0x1389
    5ee4:	0d 9c       	cmp	r12,	r13	;
    5ee6:	86 2c       	jc	$+270    	;abs 0x5ff4
    5ee8:	3d 40 52 16 	mov	#5714,	r13	;#0x1652
    5eec:	0d 9c       	cmp	r12,	r13	;
    5eee:	86 2c       	jc	$+270    	;abs 0x5ffc
    5ef0:	3d 40 72 17 	mov	#6002,	r13	;#0x1772
    5ef4:	0d 9c       	cmp	r12,	r13	;
    5ef6:	86 2c       	jc	$+270    	;abs 0x6004
    5ef8:	3d 40 6d 18 	mov	#6253,	r13	;#0x186d
    5efc:	0d 9c       	cmp	r12,	r13	;
    5efe:	86 2c       	jc	$+270    	;abs 0x600c
    5f00:	3d 40 1f 19 	mov	#6431,	r13	;#0x191f
    5f04:	0d 9c       	cmp	r12,	r13	;
    5f06:	86 2c       	jc	$+270    	;abs 0x6014
    5f08:	3d 40 0a 1a 	mov	#6666,	r13	;#0x1a0a
    5f0c:	0d 9c       	cmp	r12,	r13	;
    5f0e:	86 2c       	jc	$+270    	;abs 0x601c
    5f10:	3d 40 58 1b 	mov	#7000,	r13	;#0x1b58
    5f14:	0d 9c       	cmp	r12,	r13	;
    5f16:	86 2c       	jc	$+270    	;abs 0x6024
    5f18:	3d 40 ea 1b 	mov	#7146,	r13	;#0x1bea
    5f1c:	0d 9c       	cmp	r12,	r13	;
    5f1e:	86 2c       	jc	$+270    	;abs 0x602c
    5f20:	3d 40 4e 1d 	mov	#7502,	r13	;#0x1d4e
    5f24:	0d 9c       	cmp	r12,	r13	;
    5f26:	86 2c       	jc	$+270    	;abs 0x6034
    5f28:	3d 40 b4 1e 	mov	#7860,	r13	;#0x1eb4
    5f2c:	0d 9c       	cmp	r12,	r13	;
    5f2e:	86 2c       	jc	$+270    	;abs 0x603c
    5f30:	3d 40 43 1f 	mov	#8003,	r13	;#0x1f43
    5f34:	0d 9c       	cmp	r12,	r13	;
    5f36:	86 2c       	jc	$+270    	;abs 0x6044
    5f38:	3d 40 8c 20 	mov	#8332,	r13	;#0x208c
    5f3c:	0d 9c       	cmp	r12,	r13	;
    5f3e:	86 2c       	jc	$+270    	;abs 0x604c
    5f40:	3d 40 0f 21 	mov	#8463,	r13	;#0x210f
    5f44:	0d 9c       	cmp	r12,	r13	;
    5f46:	86 2c       	jc	$+270    	;abs 0x6054
    5f48:	3d 40 7b 21 	mov	#8571,	r13	;#0x217b
    5f4c:	0d 9c       	cmp	r12,	r13	;
    5f4e:	86 2c       	jc	$+270    	;abs 0x605c
    5f50:	3d 40 2e 22 	mov	#8750,	r13	;#0x222e
    5f54:	0d 9c       	cmp	r12,	r13	;
    5f56:	86 2c       	jc	$+270    	;abs 0x6064
    5f58:	3d 40 2b 23 	mov	#9003,	r13	;#0x232b
    5f5c:	0d 9c       	cmp	r12,	r13	;
    5f5e:	86 2c       	jc	$+270    	;abs 0x606c
    5f60:	3d 40 d1 23 	mov	#9169,	r13	;#0x23d1
    5f64:	0d 9c       	cmp	r12,	r13	;
    5f66:	86 2c       	jc	$+270    	;abs 0x6074
    5f68:	3d 40 47 24 	mov	#9287,	r13	;#0x2447
    5f6c:	0d 9c       	cmp	r12,	r13	;
    5f6e:	86 2c       	jc	$+270    	;abs 0x607c
    5f70:	7c 40 fe 00 	mov.b	#254,	r12	;#0x00fe

00005f74 <.L2>:
    5f74:	10 01       	reta			;

00005f76 <.L3>:
    5f76:	4c 43       	clr.b	r12		;
    5f78:	80 00 74 5f 	mova	#24436,	r0	;0x05f74

00005f7c <.L4>:
    5f7c:	5c 43       	mov.b	#1,	r12	;r3 As==01
    5f7e:	80 00 74 5f 	mova	#24436,	r0	;0x05f74

00005f82 <.L5>:
    5f82:	6c 43       	mov.b	#2,	r12	;r3 As==10
    5f84:	80 00 74 5f 	mova	#24436,	r0	;0x05f74

00005f88 <.L6>:
    5f88:	6c 42       	mov.b	#4,	r12	;r2 As==10
    5f8a:	80 00 74 5f 	mova	#24436,	r0	;0x05f74

00005f8e <.L7>:
    5f8e:	7c 42       	mov.b	#8,	r12	;r2 As==11
    5f90:	80 00 74 5f 	mova	#24436,	r0	;0x05f74

00005f94 <.L8>:
    5f94:	7c 40 10 00 	mov.b	#16,	r12	;#0x0010
    5f98:	80 00 74 5f 	mova	#24436,	r0	;0x05f74

00005f9c <.L9>:
    5f9c:	7c 40 20 00 	mov.b	#32,	r12	;#0x0020
    5fa0:	80 00 74 5f 	mova	#24436,	r0	;0x05f74

00005fa4 <.L10>:
    5fa4:	7c 40 11 00 	mov.b	#17,	r12	;#0x0011
    5fa8:	80 00 74 5f 	mova	#24436,	r0	;0x05f74

00005fac <.L11>:
    5fac:	7c 40 21 00 	mov.b	#33,	r12	;#0x0021
    5fb0:	80 00 74 5f 	mova	#24436,	r0	;0x05f74

00005fb4 <.L12>:
    5fb4:	7c 40 22 00 	mov.b	#34,	r12	;#0x0022
    5fb8:	80 00 74 5f 	mova	#24436,	r0	;0x05f74

00005fbc <.L13>:
    5fbc:	7c 40 44 00 	mov.b	#68,	r12	;#0x0044
    5fc0:	80 00 74 5f 	mova	#24436,	r0	;0x05f74

00005fc4 <.L14>:
    5fc4:	7c 40 25 00 	mov.b	#37,	r12	;#0x0025
    5fc8:	80 00 74 5f 	mova	#24436,	r0	;0x05f74

00005fcc <.L15>:
    5fcc:	7c 40 49 00 	mov.b	#73,	r12	;#0x0049
    5fd0:	80 00 74 5f 	mova	#24436,	r0	;0x05f74

00005fd4 <.L16>:
    5fd4:	7c 40 4a 00 	mov.b	#74,	r12	;#0x004a
    5fd8:	80 00 74 5f 	mova	#24436,	r0	;0x05f74

00005fdc <.L17>:
    5fdc:	7c 40 52 00 	mov.b	#82,	r12	;#0x0052
    5fe0:	80 00 74 5f 	mova	#24436,	r0	;0x05f74

00005fe4 <.L18>:
    5fe4:	7c 40 92 00 	mov.b	#146,	r12	;#0x0092
    5fe8:	80 00 74 5f 	mova	#24436,	r0	;0x05f74

00005fec <.L19>:
    5fec:	7c 40 53 00 	mov.b	#83,	r12	;#0x0053
    5ff0:	80 00 74 5f 	mova	#24436,	r0	;0x05f74

00005ff4 <.L20>:
    5ff4:	7c 40 55 00 	mov.b	#85,	r12	;#0x0055
    5ff8:	80 00 74 5f 	mova	#24436,	r0	;0x05f74

00005ffc <.L21>:
    5ffc:	7c 40 aa 00 	mov.b	#170,	r12	;#0x00aa
    6000:	80 00 74 5f 	mova	#24436,	r0	;0x05f74

00006004 <.L22>:
    6004:	7c 40 6b 00 	mov.b	#107,	r12	;#0x006b
    6008:	80 00 74 5f 	mova	#24436,	r0	;0x05f74

0000600c <.L23>:
    600c:	7c 40 ad 00 	mov.b	#173,	r12	;#0x00ad
    6010:	80 00 74 5f 	mova	#24436,	r0	;0x05f74

00006014 <.L24>:
    6014:	7c 40 b5 00 	mov.b	#181,	r12	;#0x00b5
    6018:	80 00 74 5f 	mova	#24436,	r0	;0x05f74

0000601c <.L25>:
    601c:	7c 40 b6 00 	mov.b	#182,	r12	;#0x00b6
    6020:	80 00 74 5f 	mova	#24436,	r0	;0x05f74

00006024 <.L26>:
    6024:	7c 40 d6 00 	mov.b	#214,	r12	;#0x00d6
    6028:	80 00 74 5f 	mova	#24436,	r0	;0x05f74

0000602c <.L27>:
    602c:	7c 40 b7 00 	mov.b	#183,	r12	;#0x00b7
    6030:	80 00 74 5f 	mova	#24436,	r0	;0x05f74

00006034 <.L28>:
    6034:	7c 40 bb 00 	mov.b	#187,	r12	;#0x00bb
    6038:	80 00 74 5f 	mova	#24436,	r0	;0x05f74

0000603c <.L29>:
    603c:	7c 40 dd 00 	mov.b	#221,	r12	;#0x00dd
    6040:	80 00 74 5f 	mova	#24436,	r0	;0x05f74

00006044 <.L30>:
    6044:	7c 40 ed 00 	mov.b	#237,	r12	;#0x00ed
    6048:	80 00 74 5f 	mova	#24436,	r0	;0x05f74

0000604c <.L31>:
    604c:	7c 40 ee 00 	mov.b	#238,	r12	;#0x00ee
    6050:	80 00 74 5f 	mova	#24436,	r0	;0x05f74

00006054 <.L32>:
    6054:	7c 40 bf 00 	mov.b	#191,	r12	;#0x00bf
    6058:	80 00 74 5f 	mova	#24436,	r0	;0x05f74

0000605c <.L33>:
    605c:	7c 40 df 00 	mov.b	#223,	r12	;#0x00df
    6060:	80 00 74 5f 	mova	#24436,	r0	;0x05f74

00006064 <.L34>:
    6064:	7c 40 ef 00 	mov.b	#239,	r12	;#0x00ef
    6068:	80 00 74 5f 	mova	#24436,	r0	;0x05f74

0000606c <.L35>:
    606c:	7c 40 f7 00 	mov.b	#247,	r12	;#0x00f7
    6070:	80 00 74 5f 	mova	#24436,	r0	;0x05f74

00006074 <.L36>:
    6074:	7c 40 fb 00 	mov.b	#251,	r12	;#0x00fb
    6078:	80 00 74 5f 	mova	#24436,	r0	;0x05f74

0000607c <.L37>:
    607c:	7c 40 fd 00 	mov.b	#253,	r12	;#0x00fd
    6080:	80 00 74 5f 	mova	#24436,	r0	;0x05f74

00006084 <rx_cb>:
    6084:	0a 14       	pushm.a	#1,	r10	;20-bit words
    6086:	ca 0c       	mova	r12,	r10	;
    6088:	ec 43 02 00 	mov.b	#2,	2(r12)	;r3 As==10
    608c:	3e 0c 04 00 	mova	4(r12),	r14	;
    6090:	3e 0e 08 00 	mova	8(r14),	r14	;
    6094:	9e 00 00 00 	cmpa	#0,	r14	;
    6098:	01 24       	jz	$+4      	;abs 0x609c
    609a:	4e 13       	calla	r14		;

0000609c <.L39>:
    609c:	ea 93 02 00 	cmp.b	#2,	2(r10)	;r3 As==10
    60a0:	06 20       	jnz	$+14     	;abs 0x60ae
    60a2:	ca 43 02 00 	mov.b	#0,	2(r10)	;r3 As==00
    60a6:	3c 0a 16 00 	mova	22(r10),r12	;0x00016
    60aa:	9c d3 1a 00 	bis	#1,	26(r12)	;r3 As==01, 0x001a

000060ae <.L40>:
    60ae:	4d 43       	clr.b	r13		;
    60b0:	cc 0a       	mova	r10,	r12	;
    60b2:	ac 00 0a 00 	adda	#10,	r12	;0x0000a
    60b6:	b0 13 72 48 	calla	#18546		;0x04872
    60ba:	ca 93 02 00 	cmp.b	#0,	2(r10)	;r3 As==00
    60be:	0e 20       	jnz	$+30     	;abs 0x60dc
    60c0:	3c 0a 04 00 	mova	4(r10),	r12	;
    60c4:	7d 40 2f 00 	mov.b	#47,	r13	;#0x002f
    60c8:	5d 9c 19 00 	cmp.b	25(r12),r13	;0x00019
    60cc:	07 2c       	jc	$+16     	;abs 0x60dc
    60ce:	cc 0a       	mova	r10,	r12	;
    60d0:	ac 00 58 00 	adda	#88,	r12	;0x00058
    60d4:	b0 13 94 55 	calla	#21908		;0x05594
    60d8:	ca 43 63 00 	mov.b	#0,	99(r10)	;r3 As==00, 0x0063

000060dc <.L38>:
    60dc:	0a 16       	popm.a	#1,	r10	;20-bit words
    60de:	10 01       	reta			;

000060e0 <tx_cb>:
    60e0:	0a 14       	pushm.a	#1,	r10	;20-bit words
    60e2:	ca 0c       	mova	r12,	r10	;
    60e4:	ec 43 01 00 	mov.b	#2,	1(r12)	;r3 As==10
    60e8:	3e 0c 04 00 	mova	4(r12),	r14	;
    60ec:	0e 0e       	mova	@r14,	r14	;
    60ee:	9e 00 00 00 	cmpa	#0,	r14	;
    60f2:	01 24       	jz	$+4      	;abs 0x60f6
    60f4:	4e 13       	calla	r14		;

000060f6 <.L46>:
    60f6:	ea 93 01 00 	cmp.b	#2,	1(r10)	;r3 As==10
    60fa:	02 20       	jnz	$+6      	;abs 0x6100
    60fc:	ca 43 01 00 	mov.b	#0,	1(r10)	;r3 As==00

00006100 <.L47>:
    6100:	ca 93 08 00 	cmp.b	#0,	8(r10)	;r3 As==00
    6104:	06 24       	jz	$+14     	;abs 0x6112
    6106:	4d 43       	clr.b	r13		;
    6108:	cc 0a       	mova	r10,	r12	;
    610a:	ac 00 0e 00 	adda	#14,	r12	;0x0000e
    610e:	b0 13 72 48 	calla	#18546		;0x04872

00006112 <.L48>:
    6112:	ca 93 01 00 	cmp.b	#0,	1(r10)	;r3 As==00
    6116:	1a 20       	jnz	$+54     	;abs 0x614c
    6118:	3c 0a 16 00 	mova	22(r10),r12	;0x00016

0000611c <.L51>:
    611c:	40 18 bc b2 	bitx.w	#8,	28(r12)	;r2 As==11, 0x0001c
    6120:	1c 00 
    6122:	fc 27       	jz	$-6      	;abs 0x611c
    6124:	bc c2 1c 00 	bic	#8,	28(r12)	;r2 As==11, 0x001c
    6128:	bc d2 1a 00 	bis	#8,	26(r12)	;r2 As==11, 0x001a
    612c:	3c 0a 04 00 	mova	4(r10),	r12	;
    6130:	5c 4c 19 00 	mov.b	25(r12),r12	;0x00019
    6134:	7c f0 0f 00 	and.b	#15,	r12	;#0x000f
    6138:	6d 43       	mov.b	#2,	r13	;r3 As==10
    613a:	0d 9c       	cmp	r12,	r13	;
    613c:	07 34       	jge	$+16     	;abs 0x614c
    613e:	cc 0a       	mova	r10,	r12	;
    6140:	ac 00 4e 00 	adda	#78,	r12	;0x0004e
    6144:	b0 13 94 55 	calla	#21908		;0x05594
    6148:	ca 43 62 00 	mov.b	#0,	98(r10)	;r3 As==00, 0x0062

0000614c <.L45>:
    614c:	0a 16       	popm.a	#1,	r10	;20-bit words
    614e:	10 01       	reta			;

00006150 <uart_lld_init>:
    6150:	0a 14       	pushm.a	#1,	r10	;20-bit words
    6152:	8a 01 de 1b 	mova	#72670,	r10	;0x11bde
    6156:	cc 0a       	mova	r10,	r12	;
    6158:	b0 13 ce 4f 	calla	#20430		;0x04fce
    615c:	00 18 fa 40 	movx.a	#1504,	22(r10)	;0x005e0, 0x00016
    6160:	e0 05 16 00 
    6164:	ba 40 00 24 	mov	#9216,	18(r10)	;#0x2400, 0x0012
    6168:	12 00 
    616a:	ba 40 f4 00 	mov	#244,	20(r10)	;#0x00f4, 0x0014
    616e:	14 00 
    6170:	00 18 fa 40 	movx.a	#1518,	30(r10)	;0x005ee, 0x0001e
    6174:	ee 05 1e 00 
    6178:	ba 40 00 03 	mov	#768,	36(r10)	;#0x0300, 0x0024
    617c:	24 00 
    617e:	ba 40 c0 00 	mov	#192,	38(r10)	;#0x00c0, 0x0026
    6182:	26 00 
    6184:	8a 43 28 00 	mov	#0,	40(r10)	;r3 As==00, 0x0028
    6188:	ba 40 11 00 	mov	#17,	42(r10)	;#0x0011, 0x002a
    618c:	2a 00 
    618e:	00 18 fa 40 	movx.a	#1516,	52(r10)	;0x005ec, 0x00034
    6192:	ec 05 34 00 
    6196:	ba 40 00 0c 	mov	#3072,	62(r10)	;#0x0c00, 0x003e
    619a:	3e 00 
    619c:	ba 40 c0 00 	mov	#192,	64(r10)	;#0x00c0, 0x0040
    61a0:	40 00 
    61a2:	8a 43 42 00 	mov	#0,	66(r10)	;r3 As==00, 0x0042
    61a6:	ba 40 10 00 	mov	#16,	68(r10)	;#0x0010, 0x0044
    61aa:	44 00 
    61ac:	0a 16       	popm.a	#1,	r10	;20-bit words
    61ae:	10 01       	reta			;

000061b0 <uart_lld_start>:
    61b0:	6a 14       	pushm.a	#7,	r10	;20-bit words
    61b2:	b1 00 0e 00 	suba	#14,	r1	;0x0000e
    61b6:	ca 0c       	mova	r12,	r10	;
    61b8:	dc 93 00 00 	cmp.b	#1,	0(r12)	;r3 As==01
    61bc:	16 24       	jz	$+46     	;abs 0x61ea
    61be:	3c 0c 16 00 	mova	22(r12),r12	;0x00016

000061c2 <.L106>:
    61c2:	40 18 ac b3 	bitx.w	#2,	28(r12)	;r3 As==10, 0x0001c
    61c6:	1c 00 
    61c8:	fc 27       	jz	$-6      	;abs 0x61c2
    61ca:	ca 93 62 00 	cmp.b	#0,	98(r10)	;r3 As==00, 0x0062
    61ce:	05 24       	jz	$+12     	;abs 0x61da
    61d0:	cc 0a       	mova	r10,	r12	;
    61d2:	ac 00 4e 00 	adda	#78,	r12	;0x0004e
    61d6:	b0 13 94 55 	calla	#21908		;0x05594

000061da <.L107>:
    61da:	ca 93 63 00 	cmp.b	#0,	99(r10)	;r3 As==00, 0x0063
    61de:	05 24       	jz	$+12     	;abs 0x61ea
    61e0:	cc 0a       	mova	r10,	r12	;
    61e2:	ac 00 58 00 	adda	#88,	r12	;0x00058
    61e6:	b0 13 94 55 	calla	#21908		;0x05594

000061ea <.L105>:
    61ea:	34 0a 16 00 	mova	22(r10),r4	;0x00016
    61ee:	94 d3 00 00 	bis	#1,	0(r4)	;r3 As==01
    61f2:	91 4a 12 00 	mov	18(r10),10(r1)	;0x00012, 0x000a
    61f6:	0a 00 
    61f8:	91 4a 14 00 	mov	20(r10),12(r1)	;0x00014, 0x000c
    61fc:	0c 00 
    61fe:	35 0a 04 00 	mova	4(r10),	r5	;
    6202:	91 45 14 00 	mov	20(r5),	6(r1)	;0x00014
    6206:	06 00 
    6208:	91 45 16 00 	mov	22(r5),	8(r1)	;0x00016
    620c:	08 00 
    620e:	8b 00 66 c4 	mova	#50278,	r11	;0x0c466
    6212:	1e 41 06 00 	mov	6(r1),	r14	;
    6216:	1f 41 08 00 	mov	8(r1),	r15	;
    621a:	1c 41 0a 00 	mov	10(r1),	r12	;0x0000a
    621e:	1d 41 0c 00 	mov	12(r1),	r13	;0x0000c
    6222:	71 0b 00 00 	mova	r11,	0(r1)	;
    6226:	4b 13       	calla	r11		;
    6228:	07 4c       	mov	r12,	r7	;
    622a:	81 4c 04 00 	mov	r12,	4(r1)	;
    622e:	86 00 3c c6 	mova	#50748,	r6	;0x0c63c
    6232:	1e 41 06 00 	mov	6(r1),	r14	;
    6236:	1f 41 08 00 	mov	8(r1),	r15	;
    623a:	4d 43       	clr.b	r13		;
    623c:	46 13       	calla	r6		;
    623e:	3e 40 10 27 	mov	#10000,	r14	;#0x2710
    6242:	4f 43       	clr.b	r15		;
    6244:	18 41 0a 00 	mov	10(r1),	r8	;0x0000a
    6248:	19 41 0c 00 	mov	12(r1),	r9	;0x0000c
    624c:	40 18 08 8c 	subx.w	r12,	r8	;
    6250:	40 18 09 7d 	subcx.w	r13,	r9	;
    6254:	0c 48       	mov	r8,	r12	;
    6256:	0d 49       	mov	r9,	r13	;
    6258:	46 13       	calla	r6		;
    625a:	1e 41 06 00 	mov	6(r1),	r14	;
    625e:	1f 41 08 00 	mov	8(r1),	r15	;
    6262:	0b 01       	mova	@r1,	r11	;
    6264:	4b 13       	calla	r11		;
    6266:	8e 00 58 5e 	mova	#24152,	r14	;0x05e58
    626a:	79 40 10 00 	mov.b	#16,	r9	;#0x0010
    626e:	09 97       	cmp	r7,	r9	;
    6270:	90 2c       	jc	$+290    	;abs 0x6392
    6272:	0d 47       	mov	r7,	r13	;
    6274:	5d 0f       	rrum	#4,	r13	;
    6276:	84 4d 06 00 	mov	r13,	6(r4)	;
    627a:	4e 13       	calla	r14		;
    627c:	09 47       	mov	r7,	r9	;
    627e:	43 18 09 59 	rpt #4 { rlax.w	r9		;
    6282:	79 f0 ff 00 	and.b	#255,	r9	;#0x00ff
    6286:	19 d3       	bis	#1,	r9	;r3 As==01
    6288:	47 18 0c 5c 	rpt #8 { rlax.w	r12		;
    628c:	09 dc       	bis	r12,	r9	;
    628e:	84 49 08 00 	mov	r9,	8(r4)	;

00006292 <.L110>:
    6292:	5c 45 18 00 	mov.b	24(r5),	r12	;0x00018
    6296:	5c 0f       	rrum	#4,	r12	;
    6298:	5c 03       	rrum	#1,	r12	;
    629a:	5c f3       	and.b	#1,	r12	;r3 As==01
    629c:	3c d0 30 00 	bis	#48,	r12	;#0x0030
    62a0:	84 4c 10 00 	mov	r12,	16(r4)	; 0x0010
    62a4:	5d 45 19 00 	mov.b	25(r5),	r13	;0x00019
    62a8:	7d f0 0f 00 	and.b	#15,	r13	;#0x000f
    62ac:	6c 43       	mov.b	#2,	r12	;r3 As==10
    62ae:	0c 9d       	cmp	r13,	r12	;
    62b0:	79 38       	jl	$+244    	;abs 0x63a4
    62b2:	cc 0a       	mova	r10,	r12	;
    62b4:	ac 00 4e 00 	adda	#78,	r12	;0x0004e
    62b8:	b0 13 c0 54 	calla	#21696		;0x054c0
    62bc:	c8 0c       	mova	r12,	r8	;
    62be:	9c 00 00 00 	cmpa	#0,	r12	;
    62c2:	04 24       	jz	$+10     	;abs 0x62cc
    62c4:	8c 01 1d 05 	mova	#66845,	r12	;0x1051d
    62c8:	b0 13 42 46 	calla	#17986		;0x04642

000062cc <.L112>:
    62cc:	5c 43       	mov.b	#1,	r12	;r3 As==01
    62ce:	98 00 00 00 	cmpa	#0,	r8	;
    62d2:	01 24       	jz	$+4      	;abs 0x62d6
    62d4:	4c 43       	clr.b	r12		;

000062d6 <.L113>:
    62d6:	ca 4c 62 00 	mov.b	r12,	98(r10)	; 0x0062

000062da <.L114>:
    62da:	3c 0a 04 00 	mova	4(r10),	r12	;
    62de:	5d 4c 19 00 	mov.b	25(r12),r13	;0x00019
    62e2:	5d 0f       	rrum	#4,	r13	;
    62e4:	68 43       	mov.b	#2,	r8	;r3 As==10
    62e6:	08 9d       	cmp	r13,	r8	;
    62e8:	61 38       	jl	$+196    	;abs 0x63ac
    62ea:	cc 0a       	mova	r10,	r12	;
    62ec:	ac 00 58 00 	adda	#88,	r12	;0x00058
    62f0:	b0 13 c0 54 	calla	#21696		;0x054c0
    62f4:	c8 0c       	mova	r12,	r8	;
    62f6:	9c 00 00 00 	cmpa	#0,	r12	;
    62fa:	04 24       	jz	$+10     	;abs 0x6304
    62fc:	8c 01 1d 05 	mova	#66845,	r12	;0x1051d
    6300:	b0 13 42 46 	calla	#17986		;0x04642

00006304 <.L116>:
    6304:	5c 43       	mov.b	#1,	r12	;r3 As==01
    6306:	98 00 00 00 	cmpa	#0,	r8	;
    630a:	01 24       	jz	$+4      	;abs 0x630e
    630c:	4c 43       	clr.b	r12		;

0000630e <.L117>:
    630e:	ca 4c 63 00 	mov.b	r12,	99(r10)	; 0x0063

00006312 <.L118>:
    6312:	00 18 fa 40 	movx.a	#24800,	44(r10)	;0x060e0, 0x0002c
    6316:	e0 60 2c 00 
    631a:	7a 0a 30 00 	mova	r10,	48(r10)	; 0x00030
    631e:	00 18 fa 40 	movx.a	#24708,	70(r10)	;0x06084, 0x00046
    6322:	84 60 46 00 
    6326:	7a 0a 4a 00 	mova	r10,	74(r10)	; 0x0004a
    632a:	9a 01 de 1b 	cmpa	#72670,	r10	;0x11bde
    632e:	29 20       	jnz	$+84     	;abs 0x6382
    6330:	3c 0a 16 00 	mova	22(r10),r12	;0x00016
    6334:	38 0a 04 00 	mova	4(r10),	r8	;
    6338:	5e 48 18 00 	mov.b	24(r8),	r14	;0x00018
    633c:	0f 4e       	mov	r14,	r15	;
    633e:	5f 0f       	rrum	#4,	r15	;
    6340:	5f 03       	rrum	#1,	r15	;
    6342:	5f f3       	and.b	#1,	r15	;r3 As==01
    6344:	0d 4e       	mov	r14,	r13	;
    6346:	4d 18 0d 5d 	rpt #14 { rlax.w	r13		;
    634a:	09 4e       	mov	r14,	r9	;
    634c:	4a 18 09 59 	rpt #11 { rlax.w	r9		;
    6350:	39 f0 00 20 	and	#8192,	r9	;#0x2000
    6354:	0d d9       	bis	r9,	r13	;
    6356:	3d d0 b0 00 	bis	#176,	r13	;#0x00b0
    635a:	09 4e       	mov	r14,	r9	;
    635c:	48 18 09 59 	rpt #9 { rlax.w	r9		;
    6360:	39 f0 00 10 	and	#4096,	r9	;#0x1000
    6364:	0d d9       	bis	r9,	r13	;
    6366:	46 18 0e 5e 	rpt #7 { rlax.w	r14		;
    636a:	3e f0 00 08 	and	#2048,	r14	;#0x0800
    636e:	0d de       	bis	r14,	r13	;
    6370:	0e 4f       	mov	r15,	r14	;
    6372:	49 18 0e 5e 	rpt #10 { rlax.w	r14		;
    6376:	0d de       	bis	r14,	r13	;
    6378:	48 18 0f 5f 	rpt #9 { rlax.w	r15		;
    637c:	0d df       	bis	r15,	r13	;
    637e:	8c 4d 00 00 	mov	r13,	0(r12)	;

00006382 <.L119>:
    6382:	3c 0a 16 00 	mova	22(r10),r12	;0x00016
    6386:	9c d3 1a 00 	bis	#1,	26(r12)	;r3 As==01, 0x001a
    638a:	a1 00 0e 00 	adda	#14,	r1	;0x0000e
    638e:	64 16       	popm.a	#7,	r10	;20-bit words
    6390:	10 01       	reta			;

00006392 <.L109>:
    6392:	84 47 06 00 	mov	r7,	6(r4)	;
    6396:	4e 13       	calla	r14		;
    6398:	47 18 0c 5c 	rpt #8 { rlax.w	r12		;
    639c:	84 4c 08 00 	mov	r12,	8(r4)	;
    63a0:	80 00 92 62 	mova	#25234,	r0	;0x06292

000063a4 <.L111>:
    63a4:	ca 43 62 00 	mov.b	#0,	98(r10)	;r3 As==00, 0x0062
    63a8:	80 00 da 62 	mova	#25306,	r0	;0x062da

000063ac <.L115>:
    63ac:	ca 43 63 00 	mov.b	#0,	99(r10)	;r3 As==00, 0x0063
    63b0:	80 00 12 63 	mova	#25362,	r0	;0x06312

000063b4 <uart_lld_start_send>:
    63b4:	0a 14       	pushm.a	#1,	r10	;20-bit words
    63b6:	08 14       	pushm.a	#1,	r8	;20-bit words
    63b8:	06 14       	pushm.a	#1,	r6	;20-bit words
    63ba:	ca 0c       	mova	r12,	r10	;
    63bc:	7c 0e 1a 00 	mova	r14,	26(r12)	; 0x0001a
    63c0:	8c 4d 22 00 	mov	r13,	34(r12)	; 0x0022
    63c4:	3c 0c 16 00 	mova	22(r12),r12	;0x00016

000063c8 <.L137>:
    63c8:	40 18 ac b3 	bitx.w	#2,	28(r12)	;r3 As==10, 0x0001c
    63cc:	1c 00 
    63ce:	fc 27       	jz	$-6      	;abs 0x63c8
    63d0:	ac c3 1c 00 	bic	#2,	28(r12)	;r3 As==10, 0x001c
    63d4:	c8 0a       	mova	r10,	r8	;
    63d6:	a8 00 4e 00 	adda	#78,	r8	;0x0004e
    63da:	c6 0a       	mova	r10,	r6	;
    63dc:	a6 00 1a 00 	adda	#26,	r6	;0x0001a
    63e0:	ca 93 62 00 	cmp.b	#0,	98(r10)	;r3 As==00, 0x0062
    63e4:	05 20       	jnz	$+12     	;abs 0x63f0
    63e6:	cc 08       	mova	r8,	r12	;
    63e8:	b0 13 52 54 	calla	#21586		;0x05452
    63ec:	da 43 62 00 	mov.b	#1,	98(r10)	;r3 As==01, 0x0062

000063f0 <.L138>:
    63f0:	cd 06       	mova	r6,	r13	;
    63f2:	cc 08       	mova	r8,	r12	;
    63f4:	b0 13 18 55 	calla	#21784		;0x05518
    63f8:	3c 0a 16 00 	mova	22(r10),r12	;0x00016
    63fc:	ac d3 1c 00 	bis	#2,	28(r12)	;r3 As==10, 0x001c
    6400:	06 16       	popm.a	#1,	r6	;20-bit words
    6402:	08 16       	popm.a	#1,	r8	;20-bit words
    6404:	0a 16       	popm.a	#1,	r10	;20-bit words
    6406:	10 01       	reta			;

00006408 <uart_lld_start_receive>:
    6408:	0a 14       	pushm.a	#1,	r10	;20-bit words
    640a:	08 14       	pushm.a	#1,	r8	;20-bit words
    640c:	06 14       	pushm.a	#1,	r6	;20-bit words
    640e:	ca 0c       	mova	r12,	r10	;
    6410:	7c 0e 38 00 	mova	r14,	56(r12)	; 0x00038
    6414:	8c 4d 3c 00 	mov	r13,	60(r12)	; 0x003c
    6418:	3c 0c 16 00 	mova	22(r12),r12	;0x00016
    641c:	9c c3 1a 00 	bic	#1,	26(r12)	;r3 As==01, 0x001a
    6420:	c8 0a       	mova	r10,	r8	;
    6422:	a8 00 58 00 	adda	#88,	r8	;0x00058
    6426:	c6 0a       	mova	r10,	r6	;
    6428:	a6 00 34 00 	adda	#52,	r6	;0x00034
    642c:	ca 93 63 00 	cmp.b	#0,	99(r10)	;r3 As==00, 0x0063
    6430:	05 20       	jnz	$+12     	;abs 0x643c
    6432:	cc 08       	mova	r8,	r12	;
    6434:	b0 13 52 54 	calla	#21586		;0x05452
    6438:	da 43 63 00 	mov.b	#1,	99(r10)	;r3 As==01, 0x0063

0000643c <.L144>:
    643c:	cd 06       	mova	r6,	r13	;
    643e:	cc 08       	mova	r8,	r12	;
    6440:	b0 13 18 55 	calla	#21784		;0x05518
    6444:	3c 0a 16 00 	mova	22(r10),r12	;0x00016
    6448:	40 18 9c b3 	bitx.w	#1,	28(r12)	;r3 As==01, 0x0001c
    644c:	1c 00 
    644e:	04 24       	jz	$+10     	;abs 0x6458
    6450:	9c c3 1c 00 	bic	#1,	28(r12)	;r3 As==01, 0x001c
    6454:	9c d3 1c 00 	bis	#1,	28(r12)	;r3 As==01, 0x001c

00006458 <.L143>:
    6458:	06 16       	popm.a	#1,	r6	;20-bit words
    645a:	08 16       	popm.a	#1,	r8	;20-bit words
    645c:	0a 16       	popm.a	#1,	r10	;20-bit words
    645e:	10 01       	reta			;

00006460 <uart_lld_stop_receive>:
    6460:	0a 14       	pushm.a	#1,	r10	;20-bit words
    6462:	08 14       	pushm.a	#1,	r8	;20-bit words
    6464:	06 14       	pushm.a	#1,	r6	;20-bit words
    6466:	c6 0c       	mova	r12,	r6	;
    6468:	3c 0c 58 00 	mova	88(r12),r12	;0x00058
    646c:	40 18 1a 4c 	movx.w	10(r12),r10	;0x0000a
    6470:	0a 00 
    6472:	c8 06       	mova	r6,	r8	;
    6474:	a8 00 58 00 	adda	#88,	r8	;0x00058
    6478:	cc 08       	mova	r8,	r12	;
    647a:	b0 13 da 55 	calla	#21978		;0x055da
    647e:	3c 06 04 00 	mova	4(r6),	r12	;
    6482:	7d 40 2f 00 	mov.b	#47,	r13	;#0x002f
    6486:	5d 9c 19 00 	cmp.b	25(r12),r13	;0x00019
    648a:	05 2c       	jc	$+12     	;abs 0x6496
    648c:	cc 08       	mova	r8,	r12	;
    648e:	b0 13 94 55 	calla	#21908		;0x05594
    6492:	c6 43 63 00 	mov.b	#0,	99(r6)	;r3 As==00, 0x0063

00006496 <.L150>:
    6496:	3c 06 16 00 	mova	22(r6),	r12	;0x00016
    649a:	9c c3 1c 00 	bic	#1,	28(r12)	;r3 As==01, 0x001c
    649e:	9c d3 1a 00 	bis	#1,	26(r12)	;r3 As==01, 0x001a
    64a2:	cc 0a       	mova	r10,	r12	;
    64a4:	06 16       	popm.a	#1,	r6	;20-bit words
    64a6:	08 16       	popm.a	#1,	r8	;20-bit words
    64a8:	0a 16       	popm.a	#1,	r10	;20-bit words
    64aa:	10 01       	reta			;

000064ac <gpt_lld_init>:
    64ac:	8c 01 42 1c 	mova	#72770,	r12	;0x11c42
    64b0:	00 18 fc 40 	movx.a	#896,	6(r12)	;0x00380
    64b4:	80 03 06 00 
    64b8:	b0 13 b0 4d 	calla	#19888		;0x04db0
    64bc:	10 01       	reta			;

000064be <gpt_lld_start>:
    64be:	2a 14       	pushm.a	#3,	r10	;20-bit words
    64c0:	ca 0c       	mova	r12,	r10	;
    64c2:	9c 01 42 1c 	cmpa	#72770,	r12	;0x11c42
    64c6:	30 20       	jnz	$+98     	;abs 0x6528
    64c8:	3c 0c 06 00 	mova	6(r12),	r12	;
    64cc:	bc 40 04 01 	mov	#260,	0(r12)	;#0x0104
    64d0:	00 00 
    64d2:	3c 0a 02 00 	mova	2(r10),	r12	;
    64d6:	2e 4c       	mov	@r12,	r14	;
    64d8:	1f 4c 02 00 	mov	2(r12),	r15	;
    64dc:	3c 40 10 27 	mov	#10000,	r12	;#0x2710
    64e0:	4d 43       	clr.b	r13		;
    64e2:	b0 13 66 c4 	calla	#50278		;0x0c466
    64e6:	08 4c       	mov	r12,	r8	;
    64e8:	09 4d       	mov	r13,	r9	;
    64ea:	0d 93       	cmp	#0,	r13	;r3 As==00
    64ec:	04 20       	jnz	$+10     	;abs 0x64f6
    64ee:	7c 40 40 00 	mov.b	#64,	r12	;#0x0040
    64f2:	0c 98       	cmp	r8,	r12	;
    64f4:	04 2c       	jc	$+10     	;abs 0x64fe

000064f6 <.L11>:
    64f6:	8c 01 3f 05 	mova	#66879,	r12	;0x1053f
    64fa:	b0 13 42 46 	calla	#17986		;0x04642

000064fe <.L3>:
    64fe:	0c 48       	mov	r8,	r12	;
    6500:	7c f0 07 00 	and.b	#7,	r12	;
    6504:	0c 93       	cmp	#0,	r12	;r3 As==00
    6506:	12 24       	jz	$+38     	;abs 0x652c
    6508:	0c 48       	mov	r8,	r12	;
    650a:	7c f0 03 00 	and.b	#3,	r12	;
    650e:	0c 93       	cmp	#0,	r12	;r3 As==00
    6510:	29 20       	jnz	$+84     	;abs 0x6564
    6512:	3c 0a 06 00 	mova	6(r10),	r12	;
    6516:	bc d0 80 00 	bis	#128,	0(r12)	;#0x0080
    651a:	00 00 
    651c:	59 03       	rrum	#1,	r9	;
    651e:	08 10       	rrc	r8		;
    6520:	59 03       	rrum	#1,	r9	;
    6522:	08 10       	rrc	r8		;
    6524:	80 00 42 65 	mova	#25922,	r0	;0x06542

00006528 <.L10>:
    6528:	48 43       	clr.b	r8		;
    652a:	49 43       	clr.b	r9		;

0000652c <.L13>:
    652c:	3c 0a 06 00 	mova	6(r10),	r12	;
    6530:	bc d0 c0 00 	bis	#192,	0(r12)	;#0x00c0
    6534:	00 00 
    6536:	0c 48       	mov	r8,	r12	;
    6538:	0d 49       	mov	r9,	r13	;
    653a:	b0 13 f2 c5 	calla	#50674		;0x0c5f2
    653e:	08 4c       	mov	r12,	r8	;
    6540:	09 4d       	mov	r13,	r9	;

00006542 <.L6>:
    6542:	09 93       	cmp	#0,	r9	;r3 As==00
    6544:	03 20       	jnz	$+8      	;abs 0x654c
    6546:	7d 42       	mov.b	#8,	r13	;r2 As==11
    6548:	0d 98       	cmp	r8,	r13	;
    654a:	04 2c       	jc	$+10     	;abs 0x6554

0000654c <.L12>:
    654c:	8c 01 3f 05 	mova	#66879,	r12	;0x1053f
    6550:	b0 13 42 46 	calla	#17986		;0x04642

00006554 <.L8>:
    6554:	3c 0a 06 00 	mova	6(r10),	r12	;
    6558:	0d 48       	mov	r8,	r13	;
    655a:	3d 53       	add	#-1,	r13	;r3 As==11
    655c:	8c 4d 20 00 	mov	r13,	32(r12)	; 0x0020
    6560:	28 16       	popm.a	#3,	r10	;20-bit words
    6562:	10 01       	reta			;

00006564 <.L7>:
    6564:	0c 48       	mov	r8,	r12	;
    6566:	5c f3       	and.b	#1,	r12	;r3 As==01
    6568:	0c 93       	cmp	#0,	r12	;r3 As==00
    656a:	eb 23       	jnz	$-40     	;abs 0x6542
    656c:	3c 0a 06 00 	mova	6(r10),	r12	;
    6570:	bc d0 40 00 	bis	#64,	0(r12)	;#0x0040
    6574:	00 00 
    6576:	12 c3       	clrc			
    6578:	09 10       	rrc	r9		;
    657a:	08 10       	rrc	r8		;
    657c:	80 00 42 65 	mova	#25922,	r0	;0x06542

00006580 <gpt_lld_start_timer>:
    6580:	3e 0c 02 00 	mova	2(r12),	r14	;
    6584:	3c 0c 06 00 	mova	6(r12),	r12	;
    6588:	00 18 ce 93 	cmpx.a	#0,	4(r14)	;r3 As==00
    658c:	04 00 
    658e:	02 24       	jz	$+6      	;abs 0x6594
    6590:	ac d3 00 00 	bis	#2,	0(r12)	;r3 As==10

00006594 <.L17>:
    6594:	8c 4d 12 00 	mov	r13,	18(r12)	; 0x0012
    6598:	2d 4c       	mov	@r12,	r13	;
    659a:	3d d0 14 00 	bis	#20,	r13	;#0x0014
    659e:	8c 4d 00 00 	mov	r13,	0(r12)	;
    65a2:	10 01       	reta			;

000065a4 <gpt_lld_stop_timer>:
    65a4:	3c 0c 06 00 	mova	6(r12),	r12	;
    65a8:	bc f0 cf ff 	and	#65487,	0(r12)	;#0xffcf
    65ac:	00 00 
    65ae:	10 01       	reta			;

000065b0 <boardInit>:
    65b0:	32 c2       	dint			
    65b2:	03 43       	nop			
    65b4:	10 01       	reta			;

000065b6 <spi_callback>:
    65b6:	2a 14       	pushm.a	#3,	r10	;20-bit words
    65b8:	06 14       	pushm.a	#1,	r6	;20-bit words
    65ba:	ca 0c       	mova	r12,	r10	;
    65bc:	88 01 4c 1c 	mova	#72780,	r8	;0x11c4c
    65c0:	0c 08       	mova	@r8,	r12	;
    65c2:	3c 0c 22 00 	mova	34(r12),r12	;0x00022
    65c6:	c6 0c       	mova	r12,	r6	;
    65c8:	00 18 76 f0 	andx.a	#4095,	r6	;0x00fff
    65cc:	ff 0f 
    65ce:	19 46 02 00 	mov	2(r6),	r9	;
    65d2:	0c 14       	pushm.a	#1,	r12	;20-bit words
    65d4:	40 18 3c 41 	popx.w	r12		;
    65d8:	40 18 3d 41 	popx.w	r13		;
    65dc:	b0 13 bc c5 	calla	#50620		;0x0c5bc
    65e0:	0d 12       	push	r13		;
    65e2:	0c 12       	push	r12		;
    65e4:	0c 16       	popm.a	#1,	r12	;20-bit words
    65e6:	40 18 0d 4c 	movx.w	r12,	r13	;
    65ea:	5c 43       	mov.b	#1,	r12	;r3 As==01
    65ec:	b0 13 9c c4 	calla	#50332		;0x0c49c
    65f0:	0c d9       	bis	r9,	r12	;
    65f2:	86 4c 02 00 	mov	r12,	2(r6)	;
    65f6:	3e 08 08 00 	mova	8(r8),	r14	;
    65fa:	9e 00 00 00 	cmpa	#0,	r14	;
    65fe:	02 24       	jz	$+6      	;abs 0x6604
    6600:	cc 0a       	mova	r10,	r12	;
    6602:	4e 13       	calla	r14		;

00006604 <.L1>:
    6604:	06 16       	popm.a	#1,	r6	;20-bit words
    6606:	28 16       	popm.a	#3,	r10	;20-bit words
    6608:	10 01       	reta			;

0000660a <sx1278Reset.isra.0>:
    660a:	2a 14       	pushm.a	#3,	r10	;20-bit words
    660c:	c8 0c       	mova	r12,	r8	;
    660e:	0c 0c       	mova	@r12,	r12	;
    6610:	00 18 cc 93 	cmpx.a	#0,	30(r12)	;r3 As==00, 0x0001e
    6614:	1e 00 
    6616:	04 20       	jnz	$+10     	;abs 0x6620
    6618:	8c 01 af 05 	mova	#66991,	r12	;0x105af
    661c:	b0 13 42 46 	calla	#17986		;0x04642

00006620 <.L8>:
    6620:	0c 08       	mova	@r8,	r12	;
    6622:	3a 0c 1e 00 	mova	30(r12),r10	;0x0001e
    6626:	0a 14       	pushm.a	#1,	r10	;20-bit words
    6628:	40 18 3c 41 	popx.w	r12		;
    662c:	40 18 3d 41 	popx.w	r13		;
    6630:	b0 13 bc c5 	calla	#50620		;0x0c5bc
    6634:	0d 12       	push	r13		;
    6636:	0c 12       	push	r12		;
    6638:	0c 16       	popm.a	#1,	r12	;20-bit words
    663a:	40 18 0d 4c 	movx.w	r12,	r13	;
    663e:	5c 43       	mov.b	#1,	r12	;r3 As==01
    6640:	b0 13 9c c4 	calla	#50332		;0x0c49c
    6644:	7e 40 06 00 	mov.b	#6,	r14	;
    6648:	0d 4c       	mov	r12,	r13	;
    664a:	cc 0a       	mova	r10,	r12	;
    664c:	00 18 7c f0 	andx.a	#4095,	r12	;0x00fff
    6650:	ff 0f 
    6652:	b0 13 14 52 	calla	#21012		;0x05214
    6656:	0c 08       	mova	@r8,	r12	;
    6658:	3c 0c 1e 00 	mova	30(r12),r12	;0x0001e
    665c:	ca 0c       	mova	r12,	r10	;
    665e:	00 18 7a f0 	andx.a	#4095,	r10	;0x00fff
    6662:	ff 0f 
    6664:	19 4a 02 00 	mov	2(r10),	r9	;
    6668:	0c 14       	pushm.a	#1,	r12	;20-bit words
    666a:	40 18 3c 41 	popx.w	r12		;
    666e:	40 18 3d 41 	popx.w	r13		;
    6672:	b0 13 bc c5 	calla	#50620		;0x0c5bc
    6676:	0d 12       	push	r13		;
    6678:	0c 12       	push	r12		;
    667a:	0c 16       	popm.a	#1,	r12	;20-bit words
    667c:	40 18 0d 4c 	movx.w	r12,	r13	;
    6680:	5c 43       	mov.b	#1,	r12	;r3 As==01
    6682:	b0 13 9c c4 	calla	#50332		;0x0c49c
    6686:	09 cc       	bic	r12,	r9	;
    6688:	8a 49 02 00 	mov	r9,	2(r10)	;
    668c:	8a 00 9e 48 	mova	#18590,	r10	;0x0489e
    6690:	5c 43       	mov.b	#1,	r12	;r3 As==01
    6692:	4a 13       	calla	r10		;
    6694:	0c 08       	mova	@r8,	r12	;
    6696:	3c 0c 1e 00 	mova	30(r12),r12	;0x0001e
    669a:	c8 0c       	mova	r12,	r8	;
    669c:	00 18 78 f0 	andx.a	#4095,	r8	;0x00fff
    66a0:	ff 0f 
    66a2:	19 48 02 00 	mov	2(r8),	r9	;
    66a6:	0c 14       	pushm.a	#1,	r12	;20-bit words
    66a8:	40 18 3c 41 	popx.w	r12		;
    66ac:	40 18 3d 41 	popx.w	r13		;
    66b0:	b0 13 bc c5 	calla	#50620		;0x0c5bc
    66b4:	0d 12       	push	r13		;
    66b6:	0c 12       	push	r12		;
    66b8:	0c 16       	popm.a	#1,	r12	;20-bit words
    66ba:	40 18 0d 4c 	movx.w	r12,	r13	;
    66be:	5c 43       	mov.b	#1,	r12	;r3 As==01
    66c0:	b0 13 9c c4 	calla	#50332		;0x0c49c
    66c4:	0c d9       	bis	r9,	r12	;
    66c6:	88 4c 02 00 	mov	r12,	2(r8)	;
    66ca:	7c 40 05 00 	mov.b	#5,	r12	;
    66ce:	4a 13       	calla	r10		;
    66d0:	28 16       	popm.a	#3,	r10	;20-bit words
    66d2:	10 01       	reta			;

000066d4 <sx1278SetRegister>:
    66d4:	5a 14       	pushm.a	#6,	r10	;20-bit words
    66d6:	ca 0c       	mova	r12,	r10	;
    66d8:	49 4d       	mov.b	r13,	r9	;
    66da:	47 4e       	mov.b	r14,	r7	;
    66dc:	39 b0 7f 00 	bit	#127,	r9	;#0x007f
    66e0:	04 20       	jnz	$+10     	;abs 0x66ea
    66e2:	8c 01 16 06 	mova	#67094,	r12	;0x10616
    66e6:	b0 13 42 46 	calla	#17986		;0x04642

000066ea <.L28>:
    66ea:	79 90 11 00 	cmp.b	#17,	r9	;#0x0011
    66ee:	06 24       	jz	$+14     	;abs 0x66fc
    66f0:	79 90 3c 00 	cmp.b	#60,	r9	;#0x003c
    66f4:	03 24       	jz	$+8      	;abs 0x66fc
    66f6:	79 90 42 00 	cmp.b	#66,	r9	;#0x0042
    66fa:	04 20       	jnz	$+10     	;abs 0x6704

000066fc <.L29>:
    66fc:	8c 01 16 06 	mova	#67094,	r12	;0x10616
    6700:	b0 13 42 46 	calla	#17986		;0x04642

00006704 <.L30>:
    6704:	06 0a       	mova	@r10,	r6	;
    6706:	3c 06 22 00 	mova	34(r6),	r12	;0x00022
    670a:	c8 0c       	mova	r12,	r8	;
    670c:	00 18 78 f0 	andx.a	#4095,	r8	;0x00fff
    6710:	ff 0f 
    6712:	15 48 02 00 	mov	2(r8),	r5	;
    6716:	0c 14       	pushm.a	#1,	r12	;20-bit words
    6718:	40 18 3c 41 	popx.w	r12		;
    671c:	40 18 3d 41 	popx.w	r13		;
    6720:	b0 13 bc c5 	calla	#50620		;0x0c5bc
    6724:	0d 12       	push	r13		;
    6726:	0c 12       	push	r12		;
    6728:	0c 16       	popm.a	#1,	r12	;20-bit words
    672a:	40 18 0d 4c 	movx.w	r12,	r13	;
    672e:	5c 43       	mov.b	#1,	r12	;r3 As==01
    6730:	b0 13 9c c4 	calla	#50332		;0x0c49c
    6734:	05 cc       	bic	r12,	r5	;
    6736:	88 45 02 00 	mov	r5,	2(r8)	;
    673a:	88 00 92 58 	mova	#22674,	r8	;0x05892
    673e:	4d 49       	mov.b	r9,	r13	;
    6740:	7d d0 80 ff 	bis.b	#65408,	r13	;#0xff80
    6744:	0c 06       	mova	@r6,	r12	;
    6746:	48 13       	calla	r8		;
    6748:	0c 0a       	mova	@r10,	r12	;
    674a:	4d 47       	mov.b	r7,	r13	;
    674c:	0c 0c       	mova	@r12,	r12	;
    674e:	48 13       	calla	r8		;
    6750:	49 4c       	mov.b	r12,	r9	;
    6752:	0c 0a       	mova	@r10,	r12	;
    6754:	3c 0c 22 00 	mova	34(r12),r12	;0x00022
    6758:	ca 0c       	mova	r12,	r10	;
    675a:	00 18 7a f0 	andx.a	#4095,	r10	;0x00fff
    675e:	ff 0f 
    6760:	18 4a 02 00 	mov	2(r10),	r8	;
    6764:	0c 14       	pushm.a	#1,	r12	;20-bit words
    6766:	40 18 3c 41 	popx.w	r12		;
    676a:	40 18 3d 41 	popx.w	r13		;
    676e:	b0 13 bc c5 	calla	#50620		;0x0c5bc
    6772:	0d 12       	push	r13		;
    6774:	0c 12       	push	r12		;
    6776:	0c 16       	popm.a	#1,	r12	;20-bit words
    6778:	40 18 0d 4c 	movx.w	r12,	r13	;
    677c:	5c 43       	mov.b	#1,	r12	;r3 As==01
    677e:	b0 13 9c c4 	calla	#50332		;0x0c49c
    6782:	0c d8       	bis	r8,	r12	;
    6784:	8a 4c 02 00 	mov	r12,	2(r10)	;
    6788:	4c 49       	mov.b	r9,	r12	;
    678a:	55 16       	popm.a	#6,	r10	;20-bit words
    678c:	10 01       	reta			;

0000678e <sx1278SetMode.constprop.3>:
    678e:	0a 14       	pushm.a	#1,	r10	;20-bit words
    6790:	ca 0c       	mova	r12,	r10	;
    6792:	5e 4c 05 00 	mov.b	5(r12),	r14	;
    6796:	7e f0 f8 ff 	and.b	#65528,	r14	;#0xfff8
    679a:	cc 4e 05 00 	mov.b	r14,	5(r12)	;
    679e:	5d 43       	mov.b	#1,	r13	;r3 As==01
    67a0:	b0 13 d4 66 	calla	#26324		;0x066d4
    67a4:	0a 16       	popm.a	#1,	r10	;20-bit words
    67a6:	10 01       	reta			;

000067a8 <sx1278SetBitrate>:
    67a8:	4a 14       	pushm.a	#5,	r10	;20-bit words
    67aa:	c8 0c       	mova	r12,	r8	;
    67ac:	06 4d       	mov	r13,	r6	;
    67ae:	0a 4e       	mov	r14,	r10	;
    67b0:	0e 4d       	mov	r13,	r14	;
    67b2:	0f 4a       	mov	r10,	r15	;
    67b4:	3c 40 00 80 	mov	#32768,	r12	;#0x8000
    67b8:	3d 40 84 1e 	mov	#7812,	r13	;#0x1e84
    67bc:	b0 13 66 c4 	calla	#50278		;0x0c466
    67c0:	09 4c       	mov	r12,	r9	;
    67c2:	b0 13 ec c5 	calla	#50668		;0x0c5ec
    67c6:	07 4c       	mov	r12,	r7	;
    67c8:	79 f0 0f 00 	and.b	#15,	r9	;#0x000f
    67cc:	6c 42       	mov.b	#4,	r12	;r2 As==10
    67ce:	0c 9a       	cmp	r10,	r12	;
    67d0:	06 28       	jnc	$+14     	;abs 0x67de
    67d2:	0a 9c       	cmp	r12,	r10	;
    67d4:	08 20       	jnz	$+18     	;abs 0x67e6
    67d6:	3c 40 df 93 	mov	#37855,	r12	;#0x93df
    67da:	0c 96       	cmp	r6,	r12	;
    67dc:	04 2c       	jc	$+10     	;abs 0x67e6

000067de <.L41>:
    67de:	8c 01 05 06 	mova	#67077,	r12	;0x10605
    67e2:	b0 13 42 46 	calla	#17986		;0x04642

000067e6 <.L39>:
    67e6:	8a 00 d4 66 	mova	#26324,	r10	;0x066d4
    67ea:	0e 47       	mov	r7,	r14	;
    67ec:	5e 0f       	rrum	#4,	r14	;
    67ee:	5e 0f       	rrum	#4,	r14	;
    67f0:	6d 43       	mov.b	#2,	r13	;r3 As==10
    67f2:	cc 08       	mova	r8,	r12	;
    67f4:	4a 13       	calla	r10		;
    67f6:	4e 47       	mov.b	r7,	r14	;
    67f8:	7d 40 03 00 	mov.b	#3,	r13	;
    67fc:	cc 08       	mova	r8,	r12	;
    67fe:	4a 13       	calla	r10		;
    6800:	4e 49       	mov.b	r9,	r14	;
    6802:	7d 40 5d 00 	mov.b	#93,	r13	;#0x005d
    6806:	cc 08       	mova	r8,	r12	;
    6808:	4a 13       	calla	r10		;
    680a:	46 16       	popm.a	#5,	r10	;20-bit words
    680c:	10 01       	reta			;

0000680e <sx1278SetDeviation>:
    680e:	4a 14       	pushm.a	#5,	r10	;20-bit words
    6810:	c8 0c       	mova	r12,	r8	;
    6812:	06 4d       	mov	r13,	r6	;
    6814:	09 4e       	mov	r14,	r9	;
    6816:	0c 4d       	mov	r13,	r12	;
    6818:	0d 4e       	mov	r14,	r13	;
    681a:	b0 13 b2 c4 	calla	#50354		;0x0c4b2
    681e:	3e 40 48 e8 	mov	#59464,	r14	;#0xe848
    6822:	5f 43       	mov.b	#1,	r15	;r3 As==01
    6824:	3c 50 24 f4 	add	#62500,	r12	;#0xf424
    6828:	0d 63       	adc	r13		;
    682a:	b0 13 66 c4 	calla	#50278		;0x0c466
    682e:	07 4c       	mov	r12,	r7	;
    6830:	0a 4c       	mov	r12,	r10	;
    6832:	7c 40 03 00 	mov.b	#3,	r12	;
    6836:	0c 99       	cmp	r9,	r12	;
    6838:	06 28       	jnc	$+14     	;abs 0x6846
    683a:	09 9c       	cmp	r12,	r9	;
    683c:	08 20       	jnz	$+18     	;abs 0x684e
    683e:	3c 40 3f 0d 	mov	#3391,	r12	;#0x0d3f
    6842:	0c 96       	cmp	r6,	r12	;
    6844:	04 2c       	jc	$+10     	;abs 0x684e

00006846 <.L45>:
    6846:	8c 01 f2 05 	mova	#67058,	r12	;0x105f2
    684a:	b0 13 42 46 	calla	#17986		;0x04642

0000684e <.L43>:
    684e:	86 00 d4 66 	mova	#26324,	r6	;0x066d4
    6852:	0e 4a       	mov	r10,	r14	;
    6854:	5e 0f       	rrum	#4,	r14	;
    6856:	5e 0f       	rrum	#4,	r14	;
    6858:	6d 42       	mov.b	#4,	r13	;r2 As==10
    685a:	cc 08       	mova	r8,	r12	;
    685c:	46 13       	calla	r6		;
    685e:	4e 47       	mov.b	r7,	r14	;
    6860:	7d 40 05 00 	mov.b	#5,	r13	;
    6864:	cc 08       	mova	r8,	r12	;
    6866:	46 13       	calla	r6		;
    6868:	46 16       	popm.a	#5,	r10	;20-bit words
    686a:	10 01       	reta			;

0000686c <sx1278SetFrequency>:
    686c:	5a 14       	pushm.a	#6,	r10	;20-bit words
    686e:	ca 0c       	mova	r12,	r10	;
    6870:	08 4d       	mov	r13,	r8	;
    6872:	05 4e       	mov	r14,	r5	;
    6874:	3e 40 09 3d 	mov	#15625,	r14	;#0x3d09
    6878:	4f 43       	clr.b	r15		;
    687a:	0c 4d       	mov	r13,	r12	;
    687c:	3c 50 84 1e 	add	#7812,	r12	;#0x1e84
    6880:	0d 45       	mov	r5,	r13	;
    6882:	0d 63       	adc	r13		;
    6884:	b0 13 66 c4 	calla	#50278		;0x0c466
    6888:	07 4c       	mov	r12,	r7	;
    688a:	b0 13 be c4 	calla	#50366		;0x0c4be
    688e:	06 4c       	mov	r12,	r6	;
    6890:	09 4d       	mov	r13,	r9	;
    6892:	0d 48       	mov	r8,	r13	;
    6894:	3d 50 c0 8b 	add	#35776,	r13	;#0x8bc0
    6898:	0c 45       	mov	r5,	r12	;
    689a:	3c 60 d5 f7 	addc	#63445,	r12	;#0xf7d5
    689e:	3e 40 43 02 	mov	#579,	r14	;#0x0243
    68a2:	0e 9c       	cmp	r12,	r14	;
    68a4:	06 28       	jnc	$+14     	;abs 0x68b2
    68a6:	0c 9e       	cmp	r14,	r12	;
    68a8:	14 20       	jnz	$+42     	;abs 0x68d2
    68aa:	3c 40 80 d5 	mov	#54656,	r12	;#0xd580
    68ae:	0c 9d       	cmp	r13,	r12	;
    68b0:	10 2c       	jc	$+34     	;abs 0x68d2

000068b2 <.L56>:
    68b2:	0d 48       	mov	r8,	r13	;
    68b4:	3d 50 80 e5 	add	#58752,	r13	;#0xe580
    68b8:	0c 45       	mov	r5,	r12	;
    68ba:	3c 60 8f e7 	addc	#59279,	r12	;#0xe78f
    68be:	3e 40 da 06 	mov	#1754,	r14	;#0x06da
    68c2:	0e 9c       	cmp	r12,	r14	;
    68c4:	2c 28       	jnc	$+90     	;abs 0x691e
    68c6:	0c 9e       	cmp	r14,	r12	;
    68c8:	04 20       	jnz	$+10     	;abs 0x68d2
    68ca:	3c 40 c0 c2 	mov	#49856,	r12	;#0xc2c0
    68ce:	0c 9d       	cmp	r13,	r12	;
    68d0:	26 28       	jnc	$+78     	;abs 0x691e

000068d2 <.L47>:
    68d2:	fa d2 05 00 	bis.b	#8,	5(r10)	;r2 As==11

000068d6 <.L51>:
    68d6:	39 b0 00 ff 	bit	#65280,	r9	;#0xff00
    68da:	04 24       	jz	$+10     	;abs 0x68e4
    68dc:	8c 01 df 05 	mova	#67039,	r12	;0x105df
    68e0:	b0 13 42 46 	calla	#17986		;0x04642

000068e4 <.L54>:
    68e4:	88 00 d4 66 	mova	#26324,	r8	;0x066d4
    68e8:	5e 4a 05 00 	mov.b	5(r10),	r14	;
    68ec:	5d 43       	mov.b	#1,	r13	;r3 As==01
    68ee:	cc 0a       	mova	r10,	r12	;
    68f0:	48 13       	calla	r8		;
    68f2:	0c 46       	mov	r6,	r12	;
    68f4:	0d 49       	mov	r9,	r13	;
    68f6:	7e 40 10 00 	mov.b	#16,	r14	;#0x0010
    68fa:	b0 13 0e c6 	calla	#50702		;0x0c60e
    68fe:	4e 4c       	mov.b	r12,	r14	;
    6900:	7d 40 06 00 	mov.b	#6,	r13	;
    6904:	cc 0a       	mova	r10,	r12	;
    6906:	48 13       	calla	r8		;
    6908:	4e 47       	mov.b	r7,	r14	;
    690a:	7d 40 07 00 	mov.b	#7,	r13	;
    690e:	cc 0a       	mova	r10,	r12	;
    6910:	48 13       	calla	r8		;
    6912:	4e 43       	clr.b	r14		;
    6914:	7d 42       	mov.b	#8,	r13	;r2 As==11
    6916:	cc 0a       	mova	r10,	r12	;
    6918:	48 13       	calla	r8		;
    691a:	55 16       	popm.a	#6,	r10	;20-bit words
    691c:	10 01       	reta			;

0000691e <.L49>:
    691e:	38 50 80 ec 	add	#60544,	r8	;#0xec80
    6922:	35 60 9e cc 	addc	#52382,	r5	;#0xcc9e
    6926:	3e 40 6a 09 	mov	#2410,	r14	;#0x096a
    692a:	0e 95       	cmp	r5,	r14	;
    692c:	0a 28       	jnc	$+22     	;abs 0x6942
    692e:	05 9e       	cmp	r14,	r5	;
    6930:	04 20       	jnz	$+10     	;abs 0x693a
    6932:	3c 40 80 e3 	mov	#58240,	r12	;#0xe380
    6936:	0c 98       	cmp	r8,	r12	;
    6938:	04 28       	jnc	$+10     	;abs 0x6942

0000693a <.L57>:
    693a:	fa c2 05 00 	bic.b	#8,	5(r10)	;r2 As==11
    693e:	80 00 d6 68 	mova	#26838,	r0	;0x068d6

00006942 <.L52>:
    6942:	8c 01 df 05 	mova	#67039,	r12	;0x105df
    6946:	b0 13 42 46 	calla	#17986		;0x04642
    694a:	80 00 d6 68 	mova	#26838,	r0	;0x068d6

0000694e <sx1278SetPower>:
    694e:	4e 4d       	mov.b	r13,	r14	;
    6950:	7d 40 09 00 	mov.b	#9,	r13	;
    6954:	b0 13 d4 66 	calla	#26324		;0x066d4
    6958:	10 01       	reta			;

0000695a <sx1278SetSync>:
    695a:	6a 14       	pushm.a	#7,	r10	;20-bit words
    695c:	c4 0c       	mova	r12,	r4	;
    695e:	09 4d       	mov	r13,	r9	;
    6960:	07 4e       	mov	r14,	r7	;
    6962:	0d de       	bis	r14,	r13	;
    6964:	0d 93       	cmp	#0,	r13	;r3 As==00
    6966:	2c 24       	jz	$+90     	;abs 0x69c0
    6968:	0e 0c       	mova	@r12,	r14	;
    696a:	3e 0e 26 00 	mova	38(r14),r14	;0x00026
    696e:	6e 4e       	mov.b	@r14,	r14	;
    6970:	7e f0 20 00 	and.b	#32,	r14	;#0x0020
    6974:	88 00 d4 66 	mova	#26324,	r8	;0x066d4
    6978:	7e d0 93 ff 	bis.b	#65427,	r14	;#0xff93
    697c:	7d 40 27 00 	mov.b	#39,	r13	;#0x0027
    6980:	48 13       	calla	r8		;
    6982:	7a 40 28 00 	mov.b	#40,	r10	;#0x0028
    6986:	76 40 18 00 	mov.b	#24,	r6	;#0x0018
    698a:	88 00 42 46 	mova	#17986,	r8	;0x04642

0000698e <.L67>:
    698e:	0c 49       	mov	r9,	r12	;
    6990:	0d 47       	mov	r7,	r13	;
    6992:	0e 46       	mov	r6,	r14	;
    6994:	0f 43       	clr	r15		;
    6996:	b0 13 0e c6 	calla	#50702		;0x0c60e
    699a:	05 4c       	mov	r12,	r5	;
    699c:	4c 93       	cmp.b	#0,	r12	;r3 As==00
    699e:	03 20       	jnz	$+8      	;abs 0x69a6
    69a0:	8c 01 bb 05 	mova	#67003,	r12	;0x105bb
    69a4:	48 13       	calla	r8		;

000069a6 <.L66>:
    69a6:	4e 45       	mov.b	r5,	r14	;
    69a8:	4d 4a       	mov.b	r10,	r13	;
    69aa:	cc 04       	mova	r4,	r12	;
    69ac:	b0 13 d4 66 	calla	#26324		;0x066d4
    69b0:	36 50 f8 ff 	add	#65528,	r6	;#0xfff8
    69b4:	4c 4a       	mov.b	r10,	r12	;
    69b6:	5c 53       	inc.b	r12		;
    69b8:	4a 4c       	mov.b	r12,	r10	;
    69ba:	7c 90 2c 00 	cmp.b	#44,	r12	;#0x002c
    69be:	e7 23       	jnz	$-48     	;abs 0x698e

000069c0 <.L64>:
    69c0:	64 16       	popm.a	#7,	r10	;20-bit words
    69c2:	10 01       	reta			;

000069c4 <sx1278ObjectInit>:
    69c4:	fc 40 09 00 	mov.b	#9,	5(r12)	;
    69c8:	05 00 
    69ca:	cc 43 06 00 	mov.b	#0,	6(r12)	;r3 As==00
    69ce:	dc 43 04 00 	mov.b	#1,	4(r12)	;r3 As==01
    69d2:	10 01       	reta			;

000069d4 <sx1278Start>:
    69d4:	2a 14       	pushm.a	#3,	r10	;20-bit words
    69d6:	06 14       	pushm.a	#1,	r6	;20-bit words
    69d8:	ca 0c       	mova	r12,	r10	;
    69da:	c8 0d       	mova	r13,	r8	;
    69dc:	7a 0d 00 00 	mova	r13,	0(r10)	;
    69e0:	b0 13 0a 66 	calla	#26122		;0x0660a
    69e4:	3d 08 04 00 	mova	4(r8),	r13	;
    69e8:	00 18 fd 40 	movx.a	#26038,	0(r13)	;0x065b6
    69ec:	b6 65 00 00 
    69f0:	0c 08       	mova	@r8,	r12	;
    69f2:	b0 13 18 4f 	calla	#20248		;0x04f18
    69f6:	cc 0a       	mova	r10,	r12	;
    69f8:	b0 13 8e 67 	calla	#26510		;0x0678e
    69fc:	1d 48 0c 00 	mov	12(r8),	r13	;0x0000c
    6a00:	1e 48 0e 00 	mov	14(r8),	r14	;0x0000e
    6a04:	cc 0a       	mova	r10,	r12	;
    6a06:	b0 13 6c 68 	calla	#26732		;0x0686c
    6a0a:	1d 48 10 00 	mov	16(r8),	r13	;0x00010
    6a0e:	1e 48 12 00 	mov	18(r8),	r14	;0x00012
    6a12:	cc 0a       	mova	r10,	r12	;
    6a14:	b0 13 0e 68 	calla	#26638		;0x0680e
    6a18:	1d 48 08 00 	mov	8(r8),	r13	;
    6a1c:	1e 48 0a 00 	mov	10(r8),	r14	;0x0000a
    6a20:	cc 0a       	mova	r10,	r12	;
    6a22:	b0 13 a8 67 	calla	#26536		;0x067a8
    6a26:	5d 48 15 00 	mov.b	21(r8),	r13	;0x00015
    6a2a:	cc 0a       	mova	r10,	r12	;
    6a2c:	b0 13 4e 69 	calla	#26958		;0x0694e
    6a30:	19 48 16 00 	mov	22(r8),	r9	;0x00016
    6a34:	86 00 d4 66 	mova	#26324,	r6	;0x066d4
    6a38:	0e 49       	mov	r9,	r14	;
    6a3a:	5e 0f       	rrum	#4,	r14	;
    6a3c:	5e 0f       	rrum	#4,	r14	;
    6a3e:	7d 40 25 00 	mov.b	#37,	r13	;#0x0025
    6a42:	cc 0a       	mova	r10,	r12	;
    6a44:	46 13       	calla	r6		;
    6a46:	4e 49       	mov.b	r9,	r14	;
    6a48:	7d 40 26 00 	mov.b	#38,	r13	;#0x0026
    6a4c:	cc 0a       	mova	r10,	r12	;
    6a4e:	46 13       	calla	r6		;
    6a50:	1d 48 18 00 	mov	24(r8),	r13	;0x00018
    6a54:	1e 48 1a 00 	mov	26(r8),	r14	;0x0001a
    6a58:	cc 0a       	mova	r10,	r12	;
    6a5a:	b0 13 5a 69 	calla	#26970		;0x0695a
    6a5e:	fa 40 18 00 	mov.b	#24,	6(r10)	;#0x0018
    6a62:	06 00 
    6a64:	7e 40 18 00 	mov.b	#24,	r14	;#0x0018
    6a68:	7d 40 36 00 	mov.b	#54,	r13	;#0x0036
    6a6c:	cc 0a       	mova	r10,	r12	;
    6a6e:	46 13       	calla	r6		;
    6a70:	0c 0a       	mova	@r10,	r12	;
    6a72:	38 0c 26 00 	mova	38(r12),r8	;0x00026
    6a76:	6c 48       	mov.b	@r8,	r12	;
    6a78:	4d 4c       	mov.b	r12,	r13	;
    6a7a:	7d f0 03 00 	and.b	#3,	r13	;
    6a7e:	5d 93       	cmp.b	#1,	r13	;r3 As==01
    6a80:	60 24       	jz	$+194    	;abs 0x6b42
    6a82:	49 43       	clr.b	r9		;

00006a84 <.L72>:
    6a84:	7c f0 0c 00 	and.b	#12,	r12	;#0x000c
    6a88:	7c 90 0c 00 	cmp.b	#12,	r12	;#0x000c
    6a8c:	04 20       	jnz	$+10     	;abs 0x6a96
    6a8e:	8c 01 98 05 	mova	#66968,	r12	;0x10598
    6a92:	b0 13 42 46 	calla	#17986		;0x04642

00006a96 <.L73>:
    6a96:	6d 48       	mov.b	@r8,	r13	;
    6a98:	0c 4d       	mov	r13,	r12	;
    6a9a:	43 18 0c 5c 	rpt #4 { rlax.w	r12		;
    6a9e:	7c f0 40 00 	and.b	#64,	r12	;#0x0040
    6aa2:	0e 4d       	mov	r13,	r14	;
    6aa4:	41 18 0e 5e 	rpt #2 { rlax.w	r14		;
    6aa8:	7e f0 20 00 	and.b	#32,	r14	;#0x0020
    6aac:	4c de       	bis.b	r14,	r12	;
    6aae:	0e 4d       	mov	r13,	r14	;
    6ab0:	7e f0 10 00 	and.b	#16,	r14	;#0x0010
    6ab4:	4e dc       	bis.b	r12,	r14	;
    6ab6:	4e d9       	bis.b	r9,	r14	;
    6ab8:	7d 40 30 00 	mov.b	#48,	r13	;#0x0030
    6abc:	cc 0a       	mova	r10,	r12	;
    6abe:	46 13       	calla	r6		;
    6ac0:	6c 48       	mov.b	@r8,	r12	;
    6ac2:	7c f0 03 00 	and.b	#3,	r12	;
    6ac6:	4c 93       	cmp.b	#0,	r12	;r3 As==00
    6ac8:	40 20       	jnz	$+130    	;abs 0x6b4a
    6aca:	0c 0a       	mova	@r10,	r12	;
    6acc:	1c 4c 2c 00 	mov	44(r12),r12	;0x0002c
    6ad0:	b0 13 7c c5 	calla	#50556		;0x0c57c
    6ad4:	4e 4c       	mov.b	r12,	r14	;
    6ad6:	7e d0 40 00 	bis.b	#64,	r14	;#0x0040
    6ada:	7d 40 31 00 	mov.b	#49,	r13	;#0x0031
    6ade:	cc 0a       	mova	r10,	r12	;
    6ae0:	46 13       	calla	r6		;
    6ae2:	0c 0a       	mova	@r10,	r12	;
    6ae4:	5e 4c 2c 00 	mov.b	44(r12),r14	;0x0002c

00006ae8 <.L85>:
    6ae8:	7d 40 32 00 	mov.b	#50,	r13	;#0x0032
    6aec:	cc 0a       	mova	r10,	r12	;
    6aee:	46 13       	calla	r6		;
    6af0:	08 0a       	mova	@r10,	r8	;
    6af2:	5c 48 1c 00 	mov.b	28(r8),	r12	;0x0001c
    6af6:	7d 40 05 00 	mov.b	#5,	r13	;
    6afa:	4d 9c       	cmp.b	r12,	r13	;
    6afc:	06 28       	jnc	$+14     	;abs 0x6b0a
    6afe:	0c 93       	cmp	#0,	r12	;r3 As==00
    6b00:	04 24       	jz	$+10     	;abs 0x6b0a
    6b02:	8c 01 8a 05 	mova	#66954,	r12	;0x1058a
    6b06:	b0 13 42 46 	calla	#17986		;0x04642

00006b0a <.L76>:
    6b0a:	5c 48 1d 00 	mov.b	29(r8),	r12	;0x0001d
    6b0e:	7d 40 05 00 	mov.b	#5,	r13	;
    6b12:	4d 9c       	cmp.b	r12,	r13	;
    6b14:	06 28       	jnc	$+14     	;abs 0x6b22
    6b16:	1c 93       	cmp	#1,	r12	;r3 As==01
    6b18:	04 24       	jz	$+10     	;abs 0x6b22
    6b1a:	8c 01 8a 05 	mova	#66954,	r12	;0x1058a
    6b1e:	b0 13 42 46 	calla	#17986		;0x04642

00006b22 <.L79>:
    6b22:	4e 43       	clr.b	r14		;
    6b24:	7d 40 40 00 	mov.b	#64,	r13	;#0x0040
    6b28:	cc 0a       	mova	r10,	r12	;
    6b2a:	46 13       	calla	r6		;
    6b2c:	7e 40 40 00 	mov.b	#64,	r14	;#0x0040
    6b30:	7d 40 41 00 	mov.b	#65,	r13	;#0x0041
    6b34:	cc 0a       	mova	r10,	r12	;
    6b36:	46 13       	calla	r6		;
    6b38:	ea 43 04 00 	mov.b	#2,	4(r10)	;r3 As==10
    6b3c:	06 16       	popm.a	#1,	r6	;20-bit words
    6b3e:	28 16       	popm.a	#3,	r10	;20-bit words
    6b40:	10 01       	reta			;

00006b42 <.L82>:
    6b42:	79 40 80 00 	mov.b	#128,	r9	;#0x0080
    6b46:	80 00 84 6a 	mova	#27268,	r0	;0x06a84

00006b4a <.L74>:
    6b4a:	7e 40 40 00 	mov.b	#64,	r14	;#0x0040
    6b4e:	7d 40 31 00 	mov.b	#49,	r13	;#0x0031
    6b52:	cc 0a       	mova	r10,	r12	;
    6b54:	46 13       	calla	r6		;
    6b56:	4e 43       	clr.b	r14		;
    6b58:	80 00 e8 6a 	mova	#27368,	r0	;0x06ae8

00006b5c <sx1278FifoWriteAsync>:
    6b5c:	2a 14       	pushm.a	#3,	r10	;20-bit words
    6b5e:	06 14       	pushm.a	#1,	r6	;20-bit words
    6b60:	04 14       	pushm.a	#1,	r4	;20-bit words
    6b62:	b1 00 04 00 	suba	#4,	r1	;
    6b66:	ca 0c       	mova	r12,	r10	;
    6b68:	c8 0d       	mova	r13,	r8	;
    6b6a:	7c 0f 08 00 	mova	r15,	8(r12)	;
    6b6e:	06 0c       	mova	@r12,	r6	;
    6b70:	3c 06 22 00 	mova	34(r6),	r12	;0x00022
    6b74:	c4 0c       	mova	r12,	r4	;
    6b76:	00 18 74 f0 	andx.a	#4095,	r4	;0x00fff
    6b7a:	ff 0f 
    6b7c:	19 44 02 00 	mov	2(r4),	r9	;
    6b80:	0c 14       	pushm.a	#1,	r12	;20-bit words
    6b82:	40 18 3c 41 	popx.w	r12		;
    6b86:	40 18 3d 41 	popx.w	r13		;
    6b8a:	71 0e 00 00 	mova	r14,	0(r1)	;
    6b8e:	b0 13 bc c5 	calla	#50620		;0x0c5bc
    6b92:	0d 12       	push	r13		;
    6b94:	0c 12       	push	r12		;
    6b96:	0c 16       	popm.a	#1,	r12	;20-bit words
    6b98:	40 18 0d 4c 	movx.w	r12,	r13	;
    6b9c:	5c 43       	mov.b	#1,	r12	;r3 As==01
    6b9e:	b0 13 9c c4 	calla	#50332		;0x0c49c
    6ba2:	09 cc       	bic	r12,	r9	;
    6ba4:	84 49 02 00 	mov	r9,	2(r4)	;
    6ba8:	7d 40 80 ff 	mov.b	#65408,	r13	;#0xff80
    6bac:	0c 06       	mova	@r6,	r12	;
    6bae:	b0 13 92 58 	calla	#22674		;0x05892
    6bb2:	0a 0a       	mova	@r10,	r10	;
    6bb4:	3c 0a 04 00 	mova	4(r10),	r12	;
    6bb8:	00 18 fc 40 	movx.a	#26038,	0(r12)	;0x065b6
    6bbc:	b6 65 00 00 
    6bc0:	0e 01       	mova	@r1,	r14	;
    6bc2:	cd 08       	mova	r8,	r13	;
    6bc4:	0c 0a       	mova	@r10,	r12	;
    6bc6:	b0 13 62 4f 	calla	#20322		;0x04f62
    6bca:	a1 00 04 00 	adda	#4,	r1	;
    6bce:	04 16       	popm.a	#1,	r4	;20-bit words
    6bd0:	06 16       	popm.a	#1,	r6	;20-bit words
    6bd2:	28 16       	popm.a	#3,	r10	;20-bit words
    6bd4:	10 01       	reta			;

00006bd6 <sx1278FifoWriteAsyncS>:
    6bd6:	2a 14       	pushm.a	#3,	r10	;20-bit words
    6bd8:	06 14       	pushm.a	#1,	r6	;20-bit words
    6bda:	04 14       	pushm.a	#1,	r4	;20-bit words
    6bdc:	b1 00 04 00 	suba	#4,	r1	;
    6be0:	ca 0c       	mova	r12,	r10	;
    6be2:	c8 0d       	mova	r13,	r8	;
    6be4:	7c 0f 08 00 	mova	r15,	8(r12)	;
    6be8:	06 0c       	mova	@r12,	r6	;
    6bea:	3c 06 22 00 	mova	34(r6),	r12	;0x00022
    6bee:	c4 0c       	mova	r12,	r4	;
    6bf0:	00 18 74 f0 	andx.a	#4095,	r4	;0x00fff
    6bf4:	ff 0f 
    6bf6:	19 44 02 00 	mov	2(r4),	r9	;
    6bfa:	0c 14       	pushm.a	#1,	r12	;20-bit words
    6bfc:	40 18 3c 41 	popx.w	r12		;
    6c00:	40 18 3d 41 	popx.w	r13		;
    6c04:	71 0e 00 00 	mova	r14,	0(r1)	;
    6c08:	b0 13 bc c5 	calla	#50620		;0x0c5bc
    6c0c:	0d 12       	push	r13		;
    6c0e:	0c 12       	push	r12		;
    6c10:	0c 16       	popm.a	#1,	r12	;20-bit words
    6c12:	40 18 0d 4c 	movx.w	r12,	r13	;
    6c16:	5c 43       	mov.b	#1,	r12	;r3 As==01
    6c18:	b0 13 9c c4 	calla	#50332		;0x0c49c
    6c1c:	09 cc       	bic	r12,	r9	;
    6c1e:	84 49 02 00 	mov	r9,	2(r4)	;
    6c22:	7d 40 80 ff 	mov.b	#65408,	r13	;#0xff80
    6c26:	0c 06       	mova	@r6,	r12	;
    6c28:	b0 13 92 58 	calla	#22674		;0x05892
    6c2c:	0a 0a       	mova	@r10,	r10	;
    6c2e:	3c 0a 04 00 	mova	4(r10),	r12	;
    6c32:	00 18 fc 40 	movx.a	#26038,	0(r12)	;0x065b6
    6c36:	b6 65 00 00 
    6c3a:	0c 0a       	mova	@r10,	r12	;
    6c3c:	fc 40 03 00 	mov.b	#3,	0(r12)	;
    6c40:	00 00 
    6c42:	0e 01       	mova	@r1,	r14	;
    6c44:	cd 08       	mova	r8,	r13	;
    6c46:	b0 13 68 58 	calla	#22632		;0x05868
    6c4a:	a1 00 04 00 	adda	#4,	r1	;
    6c4e:	04 16       	popm.a	#1,	r4	;20-bit words
    6c50:	06 16       	popm.a	#1,	r6	;20-bit words
    6c52:	28 16       	popm.a	#3,	r10	;20-bit words
    6c54:	10 01       	reta			;

00006c56 <sx1278StartTransmit>:
    6c56:	2a 14       	pushm.a	#3,	r10	;20-bit words
    6c58:	06 14       	pushm.a	#1,	r6	;20-bit words
    6c5a:	04 14       	pushm.a	#1,	r4	;20-bit words
    6c5c:	b1 00 08 00 	suba	#8,	r1	;
    6c60:	ca 0c       	mova	r12,	r10	;
    6c62:	c4 0d       	mova	r13,	r4	;
    6c64:	c6 0e       	mova	r14,	r6	;
    6c66:	78 40 18 00 	mov.b	#24,	r8	;#0x0018
    6c6a:	d8 0d       	cmpa	r13,	r8	;
    6c6c:	62 28       	jnc	$+198    	;abs 0x6d32
    6c6e:	4e 4d       	mov.b	r13,	r14	;
    6c70:	7e 53       	add.b	#-1,	r14	;r3 As==11
    6c72:	3e f0 ff 00 	and	#255,	r14	;#0x00ff

00006c76 <.L91>:
    6c76:	88 00 d4 66 	mova	#26324,	r8	;0x066d4
    6c7a:	7d 40 35 00 	mov.b	#53,	r13	;#0x0035
    6c7e:	cc 0a       	mova	r10,	r12	;
    6c80:	71 0f 00 00 	mova	r15,	0(r1)	;
    6c84:	48 13       	calla	r8		;
    6c86:	5e 4a 06 00 	mov.b	6(r10),	r14	;
    6c8a:	7e f0 7f 00 	and.b	#127,	r14	;#0x007f
    6c8e:	ca 4e 06 00 	mov.b	r14,	6(r10)	;
    6c92:	7e d0 40 00 	bis.b	#64,	r14	;#0x0040
    6c96:	7d 40 36 00 	mov.b	#54,	r13	;#0x0036
    6c9a:	cc 0a       	mova	r10,	r12	;
    6c9c:	48 13       	calla	r8		;
    6c9e:	5e 4a 06 00 	mov.b	6(r10),	r14	;
    6ca2:	7e d0 80 ff 	bis.b	#65408,	r14	;#0xff80
    6ca6:	ca 4e 06 00 	mov.b	r14,	6(r10)	;
    6caa:	7d 40 36 00 	mov.b	#54,	r13	;#0x0036
    6cae:	cc 0a       	mova	r10,	r12	;
    6cb0:	48 13       	calla	r8		;
    6cb2:	32 c2       	dint			
    6cb4:	03 43       	nop			
    6cb6:	03 43       	nop			
    6cb8:	0e 0a       	mova	@r10,	r14	;
    6cba:	5c 4e 1d 00 	mov.b	29(r14),r12	;0x0001d
    6cbe:	0d 43       	clr	r13		;
    6cc0:	08 4c       	mov	r12,	r8	;
    6cc2:	09 4d       	mov	r13,	r9	;
    6cc4:	08 58       	rla	r8		;
    6cc6:	09 69       	rlc	r9		;
    6cc8:	08 58       	rla	r8		;
    6cca:	09 69       	rlc	r9		;
    6ccc:	81 48 04 00 	mov	r8,	4(r1)	;
    6cd0:	81 49 06 00 	mov	r9,	6(r1)	;
    6cd4:	00 18 5e 51 	addx.a	4(r1),	r14	;
    6cd8:	04 00 
    6cda:	38 0e 2e 00 	mova	46(r14),r8	;0x0002e
    6cde:	08 14       	pushm.a	#1,	r8	;20-bit words
    6ce0:	40 18 3c 41 	popx.w	r12		;
    6ce4:	40 18 3d 41 	popx.w	r13		;
    6ce8:	b0 13 bc c5 	calla	#50620		;0x0c5bc
    6cec:	0d 12       	push	r13		;
    6cee:	0c 12       	push	r12		;
    6cf0:	0c 16       	popm.a	#1,	r12	;20-bit words
    6cf2:	0f 01       	mova	@r1,	r15	;
    6cf4:	6e 43       	mov.b	#2,	r14	;r3 As==10
    6cf6:	4d 4c       	mov.b	r12,	r13	;
    6cf8:	cc 08       	mova	r8,	r12	;
    6cfa:	00 18 7c f0 	andx.a	#4095,	r12	;0x00fff
    6cfe:	ff 0f 
    6d00:	b0 13 04 53 	calla	#21252		;0x05304
    6d04:	03 43       	nop			
    6d06:	03 43       	nop			
    6d08:	32 d2       	eint			
    6d0a:	03 43       	nop			
    6d0c:	79 40 2f 00 	mov.b	#47,	r9	;#0x002f
    6d10:	d9 04       	cmpa	r4,	r9	;
    6d12:	01 2c       	jc	$+4      	;abs 0x6d16
    6d14:	c4 09       	mova	r9,	r4	;

00006d16 <.L92>:
    6d16:	3f 01 20 00 	mova	32(r1),	r15	;0x00020
    6d1a:	ce 06       	mova	r6,	r14	;
    6d1c:	cd 04       	mova	r4,	r13	;
    6d1e:	cc 0a       	mova	r10,	r12	;
    6d20:	b0 13 5c 6b 	calla	#27484		;0x06b5c
    6d24:	cc 04       	mova	r4,	r12	;
    6d26:	a1 00 08 00 	adda	#8,	r1	;
    6d2a:	04 16       	popm.a	#1,	r4	;20-bit words
    6d2c:	06 16       	popm.a	#1,	r6	;20-bit words
    6d2e:	28 16       	popm.a	#3,	r10	;20-bit words
    6d30:	10 01       	reta			;

00006d32 <.L93>:
    6d32:	7e 40 17 00 	mov.b	#23,	r14	;#0x0017
    6d36:	80 00 76 6c 	mova	#27766,	r0	;0x06c76

00006d3a <blockuntil_callback>:
    6d3a:	4d 43       	clr.b	r13		;
    6d3c:	8c 01 5a 1c 	mova	#72794,	r12	;0x11c5a
    6d40:	b0 13 72 48 	calla	#18546		;0x04872
    6d44:	10 01       	reta			;

00006d46 <sx1212SetRegister.isra.0>:
    6d46:	3a 14       	pushm.a	#4,	r10	;20-bit words
    6d48:	ca 0c       	mova	r12,	r10	;
    6d4a:	49 4d       	mov.b	r13,	r9	;
    6d4c:	47 4e       	mov.b	r14,	r7	;
    6d4e:	7c 40 1e 00 	mov.b	#30,	r12	;#0x001e
    6d52:	4c 99       	cmp.b	r9,	r12	;
    6d54:	1b 2c       	jc	$+56     	;abs 0x6d8c

00006d56 <.L6>:
    6d56:	8c 01 e7 06 	mova	#67303,	r12	;0x106e7
    6d5a:	b0 13 42 46 	calla	#17986		;0x04642

00006d5e <.L5>:
    6d5e:	0c 0a       	mova	@r10,	r12	;
    6d60:	0c 0c       	mova	@r12,	r12	;
    6d62:	b0 13 52 57 	calla	#22354		;0x05752
    6d66:	0c 0a       	mova	@r10,	r12	;
    6d68:	88 00 92 58 	mova	#22674,	r8	;0x05892
    6d6c:	0d 49       	mov	r9,	r13	;
    6d6e:	0d 5d       	rla	r13		;
    6d70:	0c 0c       	mova	@r12,	r12	;
    6d72:	48 13       	calla	r8		;
    6d74:	0c 0a       	mova	@r10,	r12	;
    6d76:	4d 47       	mov.b	r7,	r13	;
    6d78:	0c 0c       	mova	@r12,	r12	;
    6d7a:	48 13       	calla	r8		;
    6d7c:	49 4c       	mov.b	r12,	r9	;
    6d7e:	0c 0a       	mova	@r10,	r12	;
    6d80:	0c 0c       	mova	@r12,	r12	;
    6d82:	b0 13 96 57 	calla	#22422		;0x05796
    6d86:	4c 49       	mov.b	r9,	r12	;
    6d88:	37 16       	popm.a	#4,	r10	;20-bit words
    6d8a:	10 01       	reta			;

00006d8c <.L4>:
    6d8c:	39 90 14 00 	cmp	#20,	r9	;#0x0014
    6d90:	e6 23       	jnz	$-50     	;abs 0x6d5e
    6d92:	80 00 56 6d 	mova	#27990,	r0	;0x06d56

00006d96 <sx1212SetMode>:
    6d96:	0a 14       	pushm.a	#1,	r10	;20-bit words
    6d98:	ca 0c       	mova	r12,	r10	;
    6d9a:	5e 4c 04 00 	mov.b	4(r12),	r14	;
    6d9e:	7e f0 1f 00 	and.b	#31,	r14	;#0x001f
    6da2:	4e dd       	bis.b	r13,	r14	;
    6da4:	cc 4e 04 00 	mov.b	r14,	4(r12)	;
    6da8:	4d 43       	clr.b	r13		;
    6daa:	b0 13 46 6d 	calla	#27974		;0x06d46
    6dae:	0a 16       	popm.a	#1,	r10	;20-bit words
    6db0:	10 01       	reta			;

00006db2 <sx1212SetFifoThreshold>:
    6db2:	0a 14       	pushm.a	#1,	r10	;20-bit words
    6db4:	08 14       	pushm.a	#1,	r8	;20-bit words
    6db6:	c8 0c       	mova	r12,	r8	;
    6db8:	4a 4d       	mov.b	r13,	r10	;
    6dba:	7c 40 3f 00 	mov.b	#63,	r12	;#0x003f
    6dbe:	4c 9a       	cmp.b	r10,	r12	;
    6dc0:	04 2c       	jc	$+10     	;abs 0x6dca
    6dc2:	8c 01 71 06 	mova	#67185,	r12	;0x10671
    6dc6:	b0 13 42 46 	calla	#17986		;0x04642

00006dca <.L12>:
    6dca:	7a d0 c0 ff 	bis.b	#65472,	r10	;#0xffc0
    6dce:	4e 4a       	mov.b	r10,	r14	;
    6dd0:	7d 40 0c 00 	mov.b	#12,	r13	;#0x000c
    6dd4:	cc 08       	mova	r8,	r12	;
    6dd6:	b0 13 46 6d 	calla	#27974		;0x06d46
    6dda:	c8 4a 05 00 	mov.b	r10,	5(r8)	;
    6dde:	08 16       	popm.a	#1,	r8	;20-bit words
    6de0:	0a 16       	popm.a	#1,	r10	;20-bit words
    6de2:	10 01       	reta			;

00006de4 <sx1212Reset.isra.1>:
    6de4:	4a 14       	pushm.a	#5,	r10	;20-bit words
    6de6:	ca 0c       	mova	r12,	r10	;
    6de8:	0c 0c       	mova	@r12,	r12	;
    6dea:	00 18 cc 93 	cmpx.a	#0,	34(r12)	;r3 As==00, 0x00022
    6dee:	22 00 
    6df0:	04 20       	jnz	$+10     	;abs 0x6dfa
    6df2:	8c 01 ae 06 	mova	#67246,	r12	;0x106ae
    6df6:	b0 13 42 46 	calla	#17986		;0x04642

00006dfa <.L14>:
    6dfa:	0c 0a       	mova	@r10,	r12	;
    6dfc:	38 0c 22 00 	mova	34(r12),r8	;0x00022
    6e00:	08 14       	pushm.a	#1,	r8	;20-bit words
    6e02:	40 18 3c 41 	popx.w	r12		;
    6e06:	40 18 3d 41 	popx.w	r13		;
    6e0a:	b0 13 bc c5 	calla	#50620		;0x0c5bc
    6e0e:	0d 12       	push	r13		;
    6e10:	0c 12       	push	r12		;
    6e12:	0c 16       	popm.a	#1,	r12	;20-bit words
    6e14:	40 18 0d 4c 	movx.w	r12,	r13	;
    6e18:	5c 43       	mov.b	#1,	r12	;r3 As==01
    6e1a:	b0 13 9c c4 	calla	#50332		;0x0c49c
    6e1e:	86 00 14 52 	mova	#21012,	r6	;0x05214
    6e22:	7e 40 06 00 	mov.b	#6,	r14	;
    6e26:	0d 4c       	mov	r12,	r13	;
    6e28:	cc 08       	mova	r8,	r12	;
    6e2a:	00 18 7c f0 	andx.a	#4095,	r12	;0x00fff
    6e2e:	ff 0f 
    6e30:	46 13       	calla	r6		;
    6e32:	0c 0a       	mova	@r10,	r12	;
    6e34:	3c 0c 22 00 	mova	34(r12),r12	;0x00022
    6e38:	c8 0c       	mova	r12,	r8	;
    6e3a:	00 18 78 f0 	andx.a	#4095,	r8	;0x00fff
    6e3e:	ff 0f 
    6e40:	19 48 02 00 	mov	2(r8),	r9	;
    6e44:	0c 14       	pushm.a	#1,	r12	;20-bit words
    6e46:	40 18 3c 41 	popx.w	r12		;
    6e4a:	40 18 3d 41 	popx.w	r13		;
    6e4e:	b0 13 bc c5 	calla	#50620		;0x0c5bc
    6e52:	0d 12       	push	r13		;
    6e54:	0c 12       	push	r12		;
    6e56:	0c 16       	popm.a	#1,	r12	;20-bit words
    6e58:	40 18 0d 4c 	movx.w	r12,	r13	;
    6e5c:	5c 43       	mov.b	#1,	r12	;r3 As==01
    6e5e:	b0 13 9c c4 	calla	#50332		;0x0c49c
    6e62:	0c d9       	bis	r9,	r12	;
    6e64:	88 4c 02 00 	mov	r12,	2(r8)	;
    6e68:	88 00 9e 48 	mova	#18590,	r8	;0x0489e
    6e6c:	5c 43       	mov.b	#1,	r12	;r3 As==01
    6e6e:	48 13       	calla	r8		;
    6e70:	0c 0a       	mova	@r10,	r12	;
    6e72:	3c 0c 22 00 	mova	34(r12),r12	;0x00022
    6e76:	ca 0c       	mova	r12,	r10	;
    6e78:	00 18 7a f0 	andx.a	#4095,	r10	;0x00fff
    6e7c:	ff 0f 
    6e7e:	19 4a 02 00 	mov	2(r10),	r9	;
    6e82:	0c 14       	pushm.a	#1,	r12	;20-bit words
    6e84:	40 18 3c 41 	popx.w	r12		;
    6e88:	40 18 3d 41 	popx.w	r13		;
    6e8c:	b0 13 bc c5 	calla	#50620		;0x0c5bc
    6e90:	0d 12       	push	r13		;
    6e92:	0c 12       	push	r12		;
    6e94:	0c 16       	popm.a	#1,	r12	;20-bit words
    6e96:	40 18 07 4c 	movx.w	r12,	r7	;
    6e9a:	5c 43       	mov.b	#1,	r12	;r3 As==01
    6e9c:	0d 47       	mov	r7,	r13	;
    6e9e:	b0 13 9c c4 	calla	#50332		;0x0c49c
    6ea2:	09 cc       	bic	r12,	r9	;
    6ea4:	8a 49 02 00 	mov	r9,	2(r10)	;
    6ea8:	5c 43       	mov.b	#1,	r12	;r3 As==01
    6eaa:	0d 47       	mov	r7,	r13	;
    6eac:	b0 13 9c c4 	calla	#50332		;0x0c49c
    6eb0:	6e 42       	mov.b	#4,	r14	;r2 As==10
    6eb2:	0d 4c       	mov	r12,	r13	;
    6eb4:	cc 0a       	mova	r10,	r12	;
    6eb6:	46 13       	calla	r6		;
    6eb8:	7c 40 05 00 	mov.b	#5,	r12	;
    6ebc:	48 13       	calla	r8		;
    6ebe:	46 16       	popm.a	#5,	r10	;20-bit words
    6ec0:	10 01       	reta			;

00006ec2 <irq_block_with_timeout.isra.2>:
    6ec2:	3a 14       	pushm.a	#4,	r10	;20-bit words
    6ec4:	07 4d       	mov	r13,	r7	;
    6ec6:	32 c2       	dint			
    6ec8:	03 43       	nop			
    6eca:	03 43       	nop			
    6ecc:	c8 0c       	mova	r12,	r8	;
    6ece:	00 18 78 f0 	andx.a	#4095,	r8	;0x00fff
    6ed2:	ff 0f 
    6ed4:	0c 14       	pushm.a	#1,	r12	;20-bit words
    6ed6:	40 18 3c 41 	popx.w	r12		;
    6eda:	40 18 3d 41 	popx.w	r13		;
    6ede:	b0 13 bc c5 	calla	#50620		;0x0c5bc
    6ee2:	0d 12       	push	r13		;
    6ee4:	0c 12       	push	r12		;
    6ee6:	0a 16       	popm.a	#1,	r10	;20-bit words
    6ee8:	0a 14       	pushm.a	#1,	r10	;20-bit words
    6eea:	40 18 3c 41 	popx.w	r12		;
    6eee:	40 18 3d 41 	popx.w	r13		;
    6ef2:	49 4c       	mov.b	r12,	r9	;
    6ef4:	8f 00 3a 6d 	mova	#27962,	r15	;0x06d3a
    6ef8:	5e 43       	mov.b	#1,	r14	;r3 As==01
    6efa:	4d 4c       	mov.b	r12,	r13	;
    6efc:	cc 08       	mova	r8,	r12	;
    6efe:	b0 13 04 53 	calla	#21252		;0x05304
    6f02:	40 18 0d 4a 	movx.w	r10,	r13	;
    6f06:	2c 48       	mov	@r8,	r12	;
    6f08:	b0 13 a4 c5 	calla	#50596		;0x0c5a4
    6f0c:	40 18 1c b3 	bitx.w	#1,	r12	;r3 As==01
    6f10:	0f 24       	jz	$+32     	;abs 0x6f30
    6f12:	00 18 c2 43 	movx.a	#0,	&0x0ef98;r3 As==00
    6f16:	98 ef 

00006f18 <.L17>:
    6f18:	4d 49       	mov.b	r9,	r13	;
    6f1a:	cc 08       	mova	r8,	r12	;
    6f1c:	b0 13 f2 53 	calla	#21490		;0x053f2
    6f20:	03 43       	nop			
    6f22:	03 43       	nop			
    6f24:	32 d2       	eint			
    6f26:	03 43       	nop			
    6f28:	2c 00 98 ef 	mova	&61336,	r12	;0x0ef98
    6f2c:	37 16       	popm.a	#4,	r10	;20-bit words
    6f2e:	10 01       	reta			;

00006f30 <.L16>:
    6f30:	0d 47       	mov	r7,	r13	;
    6f32:	8c 01 5a 1c 	mova	#72794,	r12	;0x11c5a
    6f36:	b0 13 42 48 	calla	#18498		;0x04842
    6f3a:	60 0c 98 ef 	mova	r12,	&61336	; 0x0ef98
    6f3e:	80 00 18 6f 	mova	#28440,	r0	;0x06f18

00006f42 <spi_mode_config>:
    6f42:	0c 0c       	mova	@r12,	r12	;
    6f44:	3e 0c 04 00 	mova	4(r12),	r14	;
    6f48:	00 18 ce 43 	movx.a	#0,	0(r14)	;r3 As==00
    6f4c:	00 00 
    6f4e:	0c 0c       	mova	@r12,	r12	;
    6f50:	3c 0c 0c 00 	mova	12(r12),r12	;0x0000c
    6f54:	bc f0 ff fb 	and	#64511,	0(r12)	;#0xfbff
    6f58:	00 00 
    6f5a:	10 01       	reta			;

00006f5c <sx1212ReadRegister>:
    6f5c:	2a 14       	pushm.a	#3,	r10	;20-bit words
    6f5e:	ca 0c       	mova	r12,	r10	;
    6f60:	49 4d       	mov.b	r13,	r9	;
    6f62:	7c 40 1e 00 	mov.b	#30,	r12	;#0x001e
    6f66:	4c 99       	cmp.b	r9,	r12	;
    6f68:	04 2c       	jc	$+10     	;abs 0x6f72
    6f6a:	8c 01 0a 07 	mova	#67338,	r12	;0x1070a
    6f6e:	b0 13 42 46 	calla	#17986		;0x04642

00006f72 <.L24>:
    6f72:	09 59       	rla	r9		;
    6f74:	79 d0 40 00 	bis.b	#64,	r9	;#0x0040
    6f78:	0c 0a       	mova	@r10,	r12	;
    6f7a:	0c 0c       	mova	@r12,	r12	;
    6f7c:	b0 13 52 57 	calla	#22354		;0x05752
    6f80:	0c 0a       	mova	@r10,	r12	;
    6f82:	88 00 92 58 	mova	#22674,	r8	;0x05892
    6f86:	4d 49       	mov.b	r9,	r13	;
    6f88:	0c 0c       	mova	@r12,	r12	;
    6f8a:	48 13       	calla	r8		;
    6f8c:	0c 0a       	mova	@r10,	r12	;
    6f8e:	7d 43       	mov.b	#-1,	r13	;r3 As==11
    6f90:	0c 0c       	mova	@r12,	r12	;
    6f92:	48 13       	calla	r8		;
    6f94:	49 4c       	mov.b	r12,	r9	;
    6f96:	0c 0a       	mova	@r10,	r12	;
    6f98:	0c 0c       	mova	@r12,	r12	;
    6f9a:	b0 13 96 57 	calla	#22422		;0x05796
    6f9e:	4c 49       	mov.b	r9,	r12	;
    6fa0:	28 16       	popm.a	#3,	r10	;20-bit words
    6fa2:	10 01       	reta			;

00006fa4 <sx1212SetBitrate>:
    6fa4:	0a 14       	pushm.a	#1,	r10	;20-bit words
    6fa6:	08 14       	pushm.a	#1,	r8	;20-bit words
    6fa8:	c8 0c       	mova	r12,	r8	;
    6faa:	6c 43       	mov.b	#2,	r12	;r3 As==10
    6fac:	0c 9e       	cmp	r14,	r12	;
    6fae:	06 28       	jnc	$+14     	;abs 0x6fbc
    6fb0:	0e 9c       	cmp	r12,	r14	;
    6fb2:	08 20       	jnz	$+18     	;abs 0x6fc4
    6fb4:	3c 40 ef 49 	mov	#18927,	r12	;#0x49ef
    6fb8:	0c 9d       	cmp	r13,	r12	;
    6fba:	04 2c       	jc	$+10     	;abs 0x6fc4

00006fbc <.L28>:
    6fbc:	8c 01 f9 06 	mova	#67321,	r12	;0x106f9
    6fc0:	b0 13 42 46 	calla	#17986		;0x04642

00006fc4 <.L26>:
    6fc4:	8a 00 46 6d 	mova	#27974,	r10	;0x06d46
    6fc8:	4e 43       	clr.b	r14		;
    6fca:	7d 40 03 00 	mov.b	#3,	r13	;
    6fce:	cc 08       	mova	r8,	r12	;
    6fd0:	4a 13       	calla	r10		;
    6fd2:	7e 40 72 00 	mov.b	#114,	r14	;#0x0072
    6fd6:	6d 42       	mov.b	#4,	r13	;r2 As==10
    6fd8:	cc 08       	mova	r8,	r12	;
    6fda:	4a 13       	calla	r10		;
    6fdc:	08 16       	popm.a	#1,	r8	;20-bit words
    6fde:	0a 16       	popm.a	#1,	r10	;20-bit words
    6fe0:	10 01       	reta			;

00006fe2 <sx1212SetDeviation>:
    6fe2:	4a 14       	pushm.a	#5,	r10	;20-bit words
    6fe4:	ca 0c       	mova	r12,	r10	;
    6fe6:	08 4d       	mov	r13,	r8	;
    6fe8:	09 4e       	mov	r14,	r9	;
    6fea:	06 4d       	mov	r13,	r6	;
    6fec:	07 4e       	mov	r14,	r7	;
    6fee:	12 c3       	clrc			
    6ff0:	07 10       	rrc	r7		;
    6ff2:	06 10       	rrc	r6		;
    6ff4:	0e 4d       	mov	r13,	r14	;
    6ff6:	0f 49       	mov	r9,	r15	;
    6ff8:	0c 46       	mov	r6,	r12	;
    6ffa:	3c 50 80 1a 	add	#6784,	r12	;#0x1a80
    6ffe:	0d 47       	mov	r7,	r13	;
    7000:	3d 60 06 00 	addc	#6,	r13	;
    7004:	b0 13 66 c4 	calla	#50278		;0x0c466
    7008:	07 4c       	mov	r12,	r7	;
    700a:	7c 40 03 00 	mov.b	#3,	r12	;
    700e:	0c 99       	cmp	r9,	r12	;
    7010:	07 28       	jnc	$+16     	;abs 0x7020
    7012:	39 90 03 00 	cmp	#3,	r9	;
    7016:	08 20       	jnz	$+18     	;abs 0x7028
    7018:	3c 40 3f 0d 	mov	#3391,	r12	;#0x0d3f
    701c:	0c 98       	cmp	r8,	r12	;
    701e:	04 2c       	jc	$+10     	;abs 0x7028

00007020 <.L32>:
    7020:	8c 01 d4 06 	mova	#67284,	r12	;0x106d4
    7024:	b0 13 42 46 	calla	#17986		;0x04642

00007028 <.L30>:
    7028:	4e 47       	mov.b	r7,	r14	;
    702a:	7e 53       	add.b	#-1,	r14	;r3 As==11
    702c:	6d 43       	mov.b	#2,	r13	;r3 As==10
    702e:	cc 0a       	mova	r10,	r12	;
    7030:	b0 13 46 6d 	calla	#27974		;0x06d46
    7034:	46 16       	popm.a	#5,	r10	;20-bit words
    7036:	10 01       	reta			;

00007038 <sx1212SetFrequency>:
    7038:	0a 14       	pushm.a	#1,	r10	;20-bit words
    703a:	08 14       	pushm.a	#1,	r8	;20-bit words
    703c:	ca 0c       	mova	r12,	r10	;
    703e:	88 00 46 6d 	mova	#27974,	r8	;0x06d46
    7042:	7e 40 8f ff 	mov.b	#65423,	r14	;#0xff8f
    7046:	7d 40 06 00 	mov.b	#6,	r13	;
    704a:	48 13       	calla	r8		;
    704c:	7e 40 3c 00 	mov.b	#60,	r14	;#0x003c
    7050:	7d 40 07 00 	mov.b	#7,	r13	;
    7054:	cc 0a       	mova	r10,	r12	;
    7056:	48 13       	calla	r8		;
    7058:	7e 40 11 00 	mov.b	#17,	r14	;#0x0011
    705c:	7d 42       	mov.b	#8,	r13	;r2 As==11
    705e:	cc 0a       	mova	r10,	r12	;
    7060:	48 13       	calla	r8		;
    7062:	5e 4a 04 00 	mov.b	4(r10),	r14	;
    7066:	7e f0 e0 ff 	and.b	#65504,	r14	;#0xffe0
    706a:	7e d0 12 00 	bis.b	#18,	r14	;#0x0012
    706e:	ca 4e 04 00 	mov.b	r14,	4(r10)	;
    7072:	4d 43       	clr.b	r13		;
    7074:	cc 0a       	mova	r10,	r12	;
    7076:	48 13       	calla	r8		;
    7078:	08 16       	popm.a	#1,	r8	;20-bit words
    707a:	0a 16       	popm.a	#1,	r10	;20-bit words
    707c:	10 01       	reta			;

0000707e <sx1212SetSync>:
    707e:	5a 14       	pushm.a	#6,	r10	;20-bit words
    7080:	ca 0c       	mova	r12,	r10	;
    7082:	08 4d       	mov	r13,	r8	;
    7084:	09 4e       	mov	r14,	r9	;
    7086:	77 40 16 00 	mov.b	#22,	r7	;#0x0016
    708a:	75 40 18 00 	mov.b	#24,	r5	;#0x0018
    708e:	86 00 46 6d 	mova	#27974,	r6	;0x06d46

00007092 <.L35>:
    7092:	0c 48       	mov	r8,	r12	;
    7094:	0d 49       	mov	r9,	r13	;
    7096:	0e 45       	mov	r5,	r14	;
    7098:	0f 43       	clr	r15		;
    709a:	b0 13 0e c6 	calla	#50702		;0x0c60e
    709e:	4e 4c       	mov.b	r12,	r14	;
    70a0:	4d 47       	mov.b	r7,	r13	;
    70a2:	cc 0a       	mova	r10,	r12	;
    70a4:	46 13       	calla	r6		;
    70a6:	35 50 f8 ff 	add	#65528,	r5	;#0xfff8
    70aa:	4c 47       	mov.b	r7,	r12	;
    70ac:	5c 53       	inc.b	r12		;
    70ae:	47 4c       	mov.b	r12,	r7	;
    70b0:	7c 90 1a 00 	cmp.b	#26,	r12	;#0x001a
    70b4:	ee 23       	jnz	$-34     	;abs 0x7092
    70b6:	55 16       	popm.a	#6,	r10	;20-bit words
    70b8:	10 01       	reta			;

000070ba <sx1212SetRxBw>:
    70ba:	0a 14       	pushm.a	#1,	r10	;20-bit words
    70bc:	ca 0c       	mova	r12,	r10	;
    70be:	7c 40 0f 00 	mov.b	#15,	r12	;#0x000f
    70c2:	4c 9d       	cmp.b	r13,	r12	;
    70c4:	04 2c       	jc	$+10     	;abs 0x70ce
    70c6:	8c 01 c6 06 	mova	#67270,	r12	;0x106c6
    70ca:	b0 13 42 46 	calla	#17986		;0x04642

000070ce <.L38>:
    70ce:	7e 40 f3 ff 	mov.b	#65523,	r14	;#0xfff3
    70d2:	7d 40 10 00 	mov.b	#16,	r13	;#0x0010
    70d6:	cc 0a       	mova	r10,	r12	;
    70d8:	b0 13 46 6d 	calla	#27974		;0x06d46
    70dc:	0a 16       	popm.a	#1,	r10	;20-bit words
    70de:	10 01       	reta			;

000070e0 <sx1212Start>:
    70e0:	0a 14       	pushm.a	#1,	r10	;20-bit words
    70e2:	08 14       	pushm.a	#1,	r8	;20-bit words
    70e4:	06 14       	pushm.a	#1,	r6	;20-bit words
    70e6:	04 14       	pushm.a	#1,	r4	;20-bit words
    70e8:	ca 0c       	mova	r12,	r10	;
    70ea:	c8 0d       	mova	r13,	r8	;
    70ec:	7a 0d 00 00 	mova	r13,	0(r10)	;
    70f0:	b0 13 e4 6d 	calla	#28132		;0x06de4
    70f4:	fa 40 30 00 	mov.b	#48,	4(r10)	;#0x0030
    70f8:	04 00 
    70fa:	fa 40 0f 00 	mov.b	#15,	5(r10)	;#0x000f
    70fe:	05 00 
    7100:	3d 08 04 00 	mova	4(r8),	r13	;
    7104:	0c 08       	mova	@r8,	r12	;
    7106:	b0 13 18 4f 	calla	#20248		;0x04f18
    710a:	cc 0a       	mova	r10,	r12	;
    710c:	b0 13 42 6f 	calla	#28482		;0x06f42
    7110:	4d 43       	clr.b	r13		;
    7112:	cc 0a       	mova	r10,	r12	;
    7114:	b0 13 96 6d 	calla	#28054		;0x06d96
    7118:	1d 48 10 00 	mov	16(r8),	r13	;0x00010
    711c:	1e 48 12 00 	mov	18(r8),	r14	;0x00012
    7120:	cc 0a       	mova	r10,	r12	;
    7122:	b0 13 38 70 	calla	#28728		;0x07038
    7126:	1d 48 14 00 	mov	20(r8),	r13	;0x00014
    712a:	1e 48 16 00 	mov	22(r8),	r14	;0x00016
    712e:	cc 0a       	mova	r10,	r12	;
    7130:	b0 13 e2 6f 	calla	#28642		;0x06fe2
    7134:	1d 48 0c 00 	mov	12(r8),	r13	;0x0000c
    7138:	1e 48 0e 00 	mov	14(r8),	r14	;0x0000e
    713c:	cc 0a       	mova	r10,	r12	;
    713e:	b0 13 a4 6f 	calla	#28580		;0x06fa4
    7142:	5d 48 18 00 	mov.b	24(r8),	r13	;0x00018
    7146:	cc 0a       	mova	r10,	r12	;
    7148:	b0 13 ba 70 	calla	#28858		;0x070ba
    714c:	1d 48 1c 00 	mov	28(r8),	r13	;0x0001c
    7150:	1e 48 1e 00 	mov	30(r8),	r14	;0x0001e
    7154:	cc 0a       	mova	r10,	r12	;
    7156:	b0 13 7e 70 	calla	#28798		;0x0707e
    715a:	86 00 46 6d 	mova	#27974,	r6	;0x06d46
    715e:	00 18 c8 93 	cmpx.a	#0,	38(r8)	;r3 As==00, 0x00026
    7162:	26 00 
    7164:	8a 24       	jz	$+278    	;abs 0x727a
    7166:	0c 0a       	mova	@r10,	r12	;
    7168:	34 0c 26 00 	mova	38(r12),r4	;0x00026
    716c:	7e 40 a4 ff 	mov.b	#65444,	r14	;#0xffa4
    7170:	5d 43       	mov.b	#1,	r13	;r3 As==01
    7172:	cc 0a       	mova	r10,	r12	;
    7174:	46 13       	calla	r6		;
    7176:	6c 44       	mov.b	@r4,	r12	;
    7178:	7c f0 06 00 	and.b	#6,	r12	;
    717c:	7c 90 06 00 	cmp.b	#6,	r12	;
    7180:	04 20       	jnz	$+10     	;abs 0x718a
    7182:	8c 01 97 06 	mova	#67223,	r12	;0x10697
    7186:	b0 13 42 46 	calla	#17986		;0x04642

0000718a <.L42>:
    718a:	0c 0a       	mova	@r10,	r12	;
    718c:	cc 93 2b 00 	cmp.b	#0,	43(r12)	;r3 As==00, 0x002b
    7190:	04 34       	jge	$+10     	;abs 0x719a
    7192:	8c 01 97 06 	mova	#67223,	r12	;0x10697
    7196:	b0 13 42 46 	calla	#17986		;0x04642

0000719a <.L43>:
    719a:	6e 44       	mov.b	@r4,	r14	;
    719c:	44 18 0e 5e 	rpt #5 { rlax.w	r14		;
    71a0:	7e f0 80 00 	and.b	#128,	r14	;#0x0080
    71a4:	0c 0a       	mova	@r10,	r12	;
    71a6:	5e dc 2b 00 	bis.b	43(r12),r14	;0x0002b
    71aa:	7d 40 1c 00 	mov.b	#28,	r13	;#0x001c
    71ae:	cc 0a       	mova	r10,	r12	;
    71b0:	46 13       	calla	r6		;
    71b2:	f4 b0 60 00 	bit.b	#96,	0(r4)	;#0x0060
    71b6:	00 00 
    71b8:	0b 20       	jnz	$+24     	;abs 0x71d0
    71ba:	6d 44       	mov.b	@r4,	r13	;
    71bc:	0c 4d       	mov	r13,	r12	;
    71be:	5c 0f       	rrum	#4,	r12	;
    71c0:	5c f3       	and.b	#1,	r12	;r3 As==01
    71c2:	44 18 0c 5c 	rpt #5 { rlax.w	r12		;
    71c6:	7d f0 9f ff 	and.b	#65439,	r13	;#0xff9f
    71ca:	4d dc       	bis.b	r12,	r13	;
    71cc:	c4 4d 00 00 	mov.b	r13,	0(r4)	;

000071d0 <.L44>:
    71d0:	f4 b0 60 00 	bit.b	#96,	0(r4)	;#0x0060
    71d4:	00 00 
    71d6:	07 24       	jz	$+16     	;abs 0x71e6
    71d8:	0c 0a       	mova	@r10,	r12	;
    71da:	5e 4c 2a 00 	mov.b	42(r12),r14	;0x0002a
    71de:	7d 40 1d 00 	mov.b	#29,	r13	;#0x001d
    71e2:	cc 0a       	mova	r10,	r12	;
    71e4:	46 13       	calla	r6		;

000071e6 <.L45>:
    71e6:	d4 b3 00 00 	bit.b	#1,	0(r4)	;r3 As==01
    71ea:	43 20       	jnz	$+136    	;abs 0x7272
    71ec:	4d 43       	clr.b	r13		;

000071ee <.L46>:
    71ee:	6f 44       	mov.b	@r4,	r15	;
    71f0:	0c 4f       	mov	r15,	r12	;
    71f2:	42 18 0c 5c 	rpt #3 { rlax.w	r12		;
    71f6:	7c f0 10 00 	and.b	#16,	r12	;#0x0010
    71fa:	0e 4f       	mov	r15,	r14	;
    71fc:	7e f2       	and.b	#8,	r14	;r2 As==11
    71fe:	4c de       	bis.b	r14,	r12	;
    7200:	0e 4f       	mov	r15,	r14	;
    7202:	5e 0f       	rrum	#4,	r14	;
    7204:	7e f0 06 00 	and.b	#6,	r14	;
    7208:	4e dc       	bis.b	r12,	r14	;
    720a:	4e dd       	bis.b	r13,	r14	;
    720c:	7d 40 1e 00 	mov.b	#30,	r13	;#0x001e
    7210:	cc 0a       	mova	r10,	r12	;
    7212:	46 13       	calla	r6		;
    7214:	6e 44       	mov.b	@r4,	r14	;
    7216:	3e e0 80 00 	xor	#128,	r14	;#0x0080
    721a:	7e f0 80 ff 	and.b	#65408,	r14	;#0xff80
    721e:	7d 40 1f 00 	mov.b	#31,	r13	;#0x001f

00007222 <.L55>:
    7222:	cc 0a       	mova	r10,	r12	;
    7224:	46 13       	calla	r6		;
    7226:	7c 40 03 00 	mov.b	#3,	r12	;
    722a:	5c 98 20 00 	cmp.b	32(r8),	r12	;0x00020
    722e:	04 2c       	jc	$+10     	;abs 0x7238
    7230:	8c 01 ba 06 	mova	#67258,	r12	;0x106ba
    7234:	b0 13 42 46 	calla	#17986		;0x04642

00007238 <.L49>:
    7238:	5e 48 20 00 	mov.b	32(r8),	r14	;0x00020
    723c:	0e 5e       	rla	r14		;
    723e:	7e d0 38 00 	bis.b	#56,	r14	;#0x0038
    7242:	7d 40 12 00 	mov.b	#18,	r13	;#0x0012
    7246:	cc 0a       	mova	r10,	r12	;
    7248:	46 13       	calla	r6		;
    724a:	7e 40 51 00 	mov.b	#81,	r14	;#0x0051
    724e:	7d 40 0e 00 	mov.b	#14,	r13	;#0x000e
    7252:	cc 0a       	mova	r10,	r12	;
    7254:	46 13       	calla	r6		;
    7256:	7e 40 c0 ff 	mov.b	#65472,	r14	;#0xffc0
    725a:	7d 40 0c 00 	mov.b	#12,	r13	;#0x000c
    725e:	cc 0a       	mova	r10,	r12	;
    7260:	46 13       	calla	r6		;
    7262:	fa 40 c0 ff 	mov.b	#65472,	5(r10)	;#0xffc0
    7266:	05 00 
    7268:	04 16       	popm.a	#1,	r4	;20-bit words
    726a:	06 16       	popm.a	#1,	r6	;20-bit words
    726c:	08 16       	popm.a	#1,	r8	;20-bit words
    726e:	0a 16       	popm.a	#1,	r10	;20-bit words
    7270:	10 01       	reta			;

00007272 <.L50>:
    7272:	3d 40 80 ff 	mov	#65408,	r13	;#0xff80
    7276:	80 00 ee 71 	mova	#29166,	r0	;0x071ee

0000727a <.L41>:
    727a:	7e 40 64 00 	mov.b	#100,	r14	;#0x0064
    727e:	5d 43       	mov.b	#1,	r13	;r3 As==01
    7280:	80 00 22 72 	mova	#29218,	r0	;0x07222

00007284 <sx1212ReceiveI>:
    7284:	0a 14       	pushm.a	#1,	r10	;20-bit words
    7286:	08 14       	pushm.a	#1,	r8	;20-bit words
    7288:	06 14       	pushm.a	#1,	r6	;20-bit words
    728a:	c8 0c       	mova	r12,	r8	;
    728c:	ca 0d       	mova	r13,	r10	;
    728e:	c6 0e       	mova	r14,	r6	;
    7290:	7c 40 3f 00 	mov.b	#63,	r12	;#0x003f
    7294:	dc 0d       	cmpa	r13,	r12	;
    7296:	04 2c       	jc	$+10     	;abs 0x72a0
    7298:	8c 01 88 06 	mova	#67208,	r12	;0x10688
    729c:	b0 13 42 46 	calla	#17986		;0x04642

000072a0 <.L58>:
    72a0:	cf 06       	mova	r6,	r15	;
    72a2:	5e 43       	mov.b	#1,	r14	;r3 As==01
    72a4:	7d 40 0a 00 	mov.b	#10,	r13	;#0x000a
    72a8:	3c 40 20 02 	mov	#544,	r12	;#0x0220
    72ac:	b0 13 04 53 	calla	#21252		;0x05304
    72b0:	4d 4a       	mov.b	r10,	r13	;
    72b2:	cc 08       	mova	r8,	r12	;
    72b4:	b0 13 b2 6d 	calla	#28082		;0x06db2
    72b8:	06 16       	popm.a	#1,	r6	;20-bit words
    72ba:	08 16       	popm.a	#1,	r8	;20-bit words
    72bc:	0a 16       	popm.a	#1,	r10	;20-bit words
    72be:	10 01       	reta			;

000072c0 <sx1212StartReceive>:
    72c0:	0a 14       	pushm.a	#1,	r10	;20-bit words
    72c2:	08 14       	pushm.a	#1,	r8	;20-bit words
    72c4:	06 14       	pushm.a	#1,	r6	;20-bit words
    72c6:	04 14       	pushm.a	#1,	r4	;20-bit words
    72c8:	ca 0c       	mova	r12,	r10	;
    72ca:	c6 0d       	mova	r13,	r6	;
    72cc:	c8 0e       	mova	r14,	r8	;
    72ce:	fc 40 80 ff 	mov.b	#65408,	6(r12)	;#0xff80
    72d2:	06 00 
    72d4:	fc 40 30 00 	mov.b	#48,	7(r12)	;#0x0030
    72d8:	07 00 
    72da:	84 00 46 6d 	mova	#27974,	r4	;0x06d46
    72de:	7e 40 b0 ff 	mov.b	#65456,	r14	;#0xffb0
    72e2:	7d 40 0d 00 	mov.b	#13,	r13	;#0x000d
    72e6:	44 13       	calla	r4		;
    72e8:	32 c2       	dint			
    72ea:	03 43       	nop			
    72ec:	03 43       	nop			
    72ee:	ce 08       	mova	r8,	r14	;
    72f0:	cd 06       	mova	r6,	r13	;
    72f2:	cc 0a       	mova	r10,	r12	;
    72f4:	b0 13 84 72 	calla	#29316		;0x07284
    72f8:	03 43       	nop			
    72fa:	03 43       	nop			
    72fc:	32 d2       	eint			
    72fe:	03 43       	nop			
    7300:	88 00 96 6d 	mova	#28054,	r8	;0x06d96
    7304:	7d 40 20 00 	mov.b	#32,	r13	;#0x0020
    7308:	cc 0a       	mova	r10,	r12	;
    730a:	48 13       	calla	r8		;
    730c:	7c 40 05 00 	mov.b	#5,	r12	;
    7310:	b0 13 9e 48 	calla	#18590		;0x0489e
    7314:	7d 40 40 00 	mov.b	#64,	r13	;#0x0040
    7318:	cc 0a       	mova	r10,	r12	;
    731a:	48 13       	calla	r8		;
    731c:	4d 43       	clr.b	r13		;
    731e:	3c 40 20 b2 	mov	#45600,	r12	;#0xb220
    7322:	b0 13 c2 6e 	calla	#28354		;0x06ec2
    7326:	c6 0c       	mova	r12,	r6	;
    7328:	60 0c 98 ef 	mova	r12,	&61336	; 0x0ef98
    732c:	9c 00 00 00 	cmpa	#0,	r12	;
    7330:	0a 20       	jnz	$+22     	;abs 0x7346
    7332:	7d 40 60 00 	mov.b	#96,	r13	;#0x0060
    7336:	cc 0a       	mova	r10,	r12	;
    7338:	48 13       	calla	r8		;
    733a:	7e 40 51 00 	mov.b	#81,	r14	;#0x0051
    733e:	7d 40 0e 00 	mov.b	#14,	r13	;#0x000e
    7342:	cc 0a       	mova	r10,	r12	;
    7344:	44 13       	calla	r4		;

00007346 <.L60>:
    7346:	60 06 98 ef 	mova	r6,	&61336	; 0x0ef98
    734a:	cc 06       	mova	r6,	r12	;
    734c:	04 16       	popm.a	#1,	r4	;20-bit words
    734e:	06 16       	popm.a	#1,	r6	;20-bit words
    7350:	08 16       	popm.a	#1,	r8	;20-bit words
    7352:	0a 16       	popm.a	#1,	r10	;20-bit words
    7354:	10 01       	reta			;

00007356 <sx1212FifoRead>:
    7356:	6a 14       	pushm.a	#7,	r10	;20-bit words
    7358:	b1 00 04 00 	suba	#4,	r1	;
    735c:	c4 0c       	mova	r12,	r4	;
    735e:	c5 0e       	mova	r14,	r5	;
    7360:	ed 0e       	adda	r14,	r13	;
    7362:	71 0d 00 00 	mova	r13,	0(r1)	;
    7366:	5a 43       	mov.b	#1,	r10	;r3 As==01
    7368:	79 43       	mov.b	#-1,	r9	;r3 As==11

0000736a <.L64>:
    736a:	00 18 c1 95 	cmpx.a	r5,	0(r1)	;
    736e:	00 00 
    7370:	04 20       	jnz	$+10     	;abs 0x737a
    7372:	a1 00 04 00 	adda	#4,	r1	;
    7376:	64 16       	popm.a	#7,	r10	;20-bit words
    7378:	10 01       	reta			;

0000737a <.L65>:
    737a:	08 04       	mova	@r4,	r8	;
    737c:	3c 08 08 00 	mova	8(r8),	r12	;
    7380:	c6 0c       	mova	r12,	r6	;
    7382:	00 18 76 f0 	andx.a	#4095,	r6	;0x00fff
    7386:	ff 0f 
    7388:	17 46 02 00 	mov	2(r6),	r7	;
    738c:	0c 14       	pushm.a	#1,	r12	;20-bit words
    738e:	40 18 3c 41 	popx.w	r12		;
    7392:	40 18 3d 41 	popx.w	r13		;
    7396:	b0 13 bc c5 	calla	#50620		;0x0c5bc
    739a:	0d 12       	push	r13		;
    739c:	0c 12       	push	r12		;
    739e:	0c 16       	popm.a	#1,	r12	;20-bit words
    73a0:	40 18 0d 4c 	movx.w	r12,	r13	;
    73a4:	0c 4a       	mov	r10,	r12	;
    73a6:	b0 13 9c c4 	calla	#50332		;0x0c49c
    73aa:	07 cc       	bic	r12,	r7	;
    73ac:	86 47 02 00 	mov	r7,	2(r6)	;
    73b0:	4d 49       	mov.b	r9,	r13	;
    73b2:	0c 08       	mova	@r8,	r12	;
    73b4:	b0 13 92 58 	calla	#22674		;0x05892
    73b8:	c5 4c 00 00 	mov.b	r12,	0(r5)	;
    73bc:	0c 04       	mova	@r4,	r12	;
    73be:	3c 0c 08 00 	mova	8(r12),	r12	;
    73c2:	c6 0c       	mova	r12,	r6	;
    73c4:	00 18 76 f0 	andx.a	#4095,	r6	;0x00fff
    73c8:	ff 0f 
    73ca:	18 46 02 00 	mov	2(r6),	r8	;
    73ce:	0c 14       	pushm.a	#1,	r12	;20-bit words
    73d0:	40 18 3c 41 	popx.w	r12		;
    73d4:	40 18 3d 41 	popx.w	r13		;
    73d8:	b0 13 bc c5 	calla	#50620		;0x0c5bc
    73dc:	0d 12       	push	r13		;
    73de:	0c 12       	push	r12		;
    73e0:	0c 16       	popm.a	#1,	r12	;20-bit words
    73e2:	40 18 0d 4c 	movx.w	r12,	r13	;
    73e6:	0c 4a       	mov	r10,	r12	;
    73e8:	b0 13 9c c4 	calla	#50332		;0x0c49c
    73ec:	0c d8       	bis	r8,	r12	;
    73ee:	86 4c 02 00 	mov	r12,	2(r6)	;
    73f2:	a5 00 01 00 	adda	#1,	r5	;
    73f6:	80 00 6a 73 	mova	#29546,	r0	;0x0736a

000073fa <sx1212StopReceive>:
    73fa:	0a 14       	pushm.a	#1,	r10	;20-bit words
    73fc:	ca 0c       	mova	r12,	r10	;
    73fe:	7e 40 51 00 	mov.b	#81,	r14	;#0x0051
    7402:	7d 40 0e 00 	mov.b	#14,	r13	;#0x000e
    7406:	b0 13 46 6d 	calla	#27974		;0x06d46
    740a:	4d 43       	clr.b	r13		;
    740c:	cc 0a       	mova	r10,	r12	;
    740e:	b0 13 96 6d 	calla	#28054		;0x06d96
    7412:	0a 16       	popm.a	#1,	r10	;20-bit words
    7414:	10 01       	reta			;

00007416 <send_complete_cb>:
    7416:	00 18 c2 43 	movx.a	#0,	&0x0c86e;r3 As==00
    741a:	6e c8 
    741c:	40 18 f2 d0 	bisx.b	#3,	&0x0efa4;
    7420:	03 00 a4 ef 
    7424:	40 18 1c 42 	movx.w	&0x0c882,r12	;
    7428:	82 c8 
    742a:	4d 43       	clr.b	r13		;
    742c:	0d 9c       	cmp	r12,	r13	;
    742e:	06 34       	jge	$+14     	;abs 0x743c
    7430:	40 18 a2 d3 	bisx.w	#2,	&0x0efa0;r3 As==10
    7434:	a0 ef 
    7436:	40 18 82 dd 	bisx.w	r13,	&0x0efa2;
    743a:	a2 ef 

0000743c <.L2>:
    743c:	2c 00 9c ef 	mova	&61340,	r12	;0x0ef9c
    7440:	cc 93 04 00 	cmp.b	#0,	4(r12)	;r3 As==00
    7444:	04 24       	jz	$+10     	;abs 0x744e
    7446:	8d 0f fe ff 	mova	#-2,	r13	;0xfffffffe
    744a:	b0 13 12 47 	calla	#18194		;0x04712

0000744e <.L1>:
    744e:	10 01       	reta			;

00007450 <elyUARTCfgMarkDirty>:
    7450:	01 18 d2 92 	cmpx.a	&0x0ef9c,&0x11a74;
    7454:	9c ef 74 1a 
    7458:	04 20       	jnz	$+10     	;abs 0x7462
    745a:	8c 01 2b 07 	mova	#67371,	r12	;0x1072b
    745e:	b0 13 42 46 	calla	#17986		;0x04642

00007462 <.L7>:
    7462:	5d 43       	mov.b	#1,	r13	;r3 As==01
    7464:	4e 43       	clr.b	r14		;
    7466:	2c 00 9c ef 	mova	&61340,	r12	;0x0ef9c
    746a:	b0 13 9e 49 	calla	#18846		;0x0499e
    746e:	10 01       	reta			;

00007470 <elyUARTPostI>:
    7470:	0a 14       	pushm.a	#1,	r10	;20-bit words
    7472:	cd 0c       	mova	r12,	r13	;
    7474:	8c 00 72 c8 	mova	#51314,	r12	;0x0c872
    7478:	b0 13 f0 4a 	calla	#19184		;0x04af0
    747c:	ca 0c       	mova	r12,	r10	;
    747e:	9c 00 00 00 	cmpa	#0,	r12	;
    7482:	09 20       	jnz	$+20     	;abs 0x7496
    7484:	6d 43       	mov.b	#2,	r13	;r3 As==10
    7486:	4e 43       	clr.b	r14		;
    7488:	2c 00 9c ef 	mova	&61340,	r12	;0x0ef9c
    748c:	b0 13 ca 49 	calla	#18890		;0x049ca

00007490 <.L8>:
    7490:	cc 0a       	mova	r10,	r12	;
    7492:	0a 16       	popm.a	#1,	r10	;20-bit words
    7494:	10 01       	reta			;

00007496 <.L9>:
    7496:	8c 01 1e 07 	mova	#67358,	r12	;0x1071e
    749a:	b0 13 42 46 	calla	#17986		;0x04642
    749e:	80 00 90 74 	mova	#29840,	r0	;0x07490

000074a2 <elyUARTPost>:
    74a2:	0a 14       	pushm.a	#1,	r10	;20-bit words
    74a4:	32 c2       	dint			
    74a6:	03 43       	nop			
    74a8:	03 43       	nop			
    74aa:	0e 4d       	mov	r13,	r14	;
    74ac:	cd 0c       	mova	r12,	r13	;
    74ae:	8c 00 72 c8 	mova	#51314,	r12	;0x0c872
    74b2:	b0 13 76 4a 	calla	#19062		;0x04a76
    74b6:	ca 0c       	mova	r12,	r10	;
    74b8:	6d 43       	mov.b	#2,	r13	;r3 As==10
    74ba:	4e 43       	clr.b	r14		;
    74bc:	2c 00 9c ef 	mova	&61340,	r12	;0x0ef9c
    74c0:	b0 13 ca 49 	calla	#18890		;0x049ca
    74c4:	03 43       	nop			
    74c6:	03 43       	nop			
    74c8:	32 d2       	eint			
    74ca:	03 43       	nop			
    74cc:	cc 0a       	mova	r10,	r12	;
    74ce:	0a 16       	popm.a	#1,	r10	;20-bit words
    74d0:	10 01       	reta			;

000074d2 <UARTThd>:
    74d2:	0a 14       	pushm.a	#1,	r10	;20-bit words
    74d4:	08 14       	pushm.a	#1,	r8	;20-bit words
    74d6:	06 14       	pushm.a	#1,	r6	;20-bit words
    74d8:	80 18 d2 42 	movx.a	&0x11a74,&0x0ef9c;
    74dc:	74 1a 9c ef 
    74e0:	40 18 f2 40 	movx.b	#7,	&0x0efa4;
    74e4:	07 00 a4 ef 
    74e8:	32 c2       	dint			
    74ea:	03 43       	nop			
    74ec:	03 43       	nop			
    74ee:	00 18 c2 93 	cmpx.a	#0,	&0x0c86e;r3 As==00
    74f2:	6e c8 
    74f4:	06 20       	jnz	$+14     	;abs 0x7502
    74f6:	40 18 1c 42 	movx.w	&0x0c882,r12	;
    74fa:	82 c8 
    74fc:	4d 43       	clr.b	r13		;
    74fe:	0d 9c       	cmp	r12,	r13	;
    7500:	06 34       	jge	$+14     	;abs 0x750e

00007502 <.L14>:
    7502:	40 18 a2 d3 	bisx.w	#2,	&0x0efa0;r3 As==10
    7506:	a0 ef 
    7508:	40 18 82 d3 	bisx.w	#0,	&0x0efa2;r3 As==00
    750c:	a2 ef 

0000750e <.L15>:
    750e:	03 43       	nop			
    7510:	03 43       	nop			
    7512:	32 d2       	eint			
    7514:	03 43       	nop			
    7516:	40 18 92 d3 	bisx.w	#1,	&0x0efa0;r3 As==01
    751a:	a0 ef 
    751c:	40 18 82 d3 	bisx.w	#0,	&0x0efa2;r3 As==00
    7520:	a2 ef 
    7522:	8d 01 54 07 	mova	#67412,	r13	;0x10754
    7526:	8c 01 42 1c 	mova	#72770,	r12	;0x11c42
    752a:	b0 13 bc 4d 	calla	#19900		;0x04dbc
    752e:	8c 01 de 1b 	mova	#72670,	r12	;0x11bde
    7532:	b0 13 b4 a5 	calla	#42420		;0x0a5b4
    7536:	2a 01 44 08 	mova	&67652,	r10	;0x10844
    753a:	86 00 6c c8 	mova	#51308,	r6	;0x0c86c
    753e:	88 00 54 c8 	mova	#51284,	r8	;0x0c854

00007542 <.L16>:
    7542:	40 18 d2 b3 	bitx.b	#1,	&0x0efa0;r3 As==01
    7546:	a0 ef 
    7548:	3d 24       	jz	$+124    	;abs 0x75c4
    754a:	32 c2       	dint			
    754c:	03 43       	nop			
    754e:	03 43       	nop			
    7550:	5c 4a 26 00 	mov.b	38(r10),r12	;0x00026
    7554:	4f 4c       	mov.b	r12,	r15	;
    7556:	7f f0 03 00 	and.b	#3,	r15	;
    755a:	6d 46       	mov.b	@r6,	r13	;
    755c:	7d f0 ec ff 	and.b	#65516,	r13	;#0xffec
    7560:	0e 4c       	mov	r12,	r14	;
    7562:	5e 07       	rrum	#2,	r14	;
    7564:	5e f3       	and.b	#1,	r14	;r3 As==01
    7566:	43 18 0e 5e 	rpt #4 { rlax.w	r14		;
    756a:	4d df       	bis.b	r15,	r13	;
    756c:	4d de       	bis.b	r14,	r13	;
    756e:	5c 0b       	rrum	#3,	r12	;
    7570:	5c f3       	and.b	#1,	r12	;r3 As==01
    7572:	44 18 0c 5c 	rpt #5 { rlax.w	r12		;
    7576:	7d f0 df ff 	and.b	#65503,	r13	;#0xffdf
    757a:	4d dc       	bis.b	r12,	r13	;
    757c:	c6 4d 00 00 	mov.b	r13,	0(r6)	;
    7580:	5d 4a 23 00 	mov.b	35(r10),r13	;0x00023
    7584:	47 18 0d 5d 	rpt #8 { rlax.w	r13		;
    7588:	5c 4a 25 00 	mov.b	37(r10),r12	;0x00025
    758c:	47 18 0c 5c 	rpt #8 { rlax.w	r12		;
    7590:	5e 4a 24 00 	mov.b	36(r10),r14	;0x00024
    7594:	0c de       	bis	r14,	r12	;
    7596:	5e 4a 22 00 	mov.b	34(r10),r14	;0x00022
    759a:	0e dd       	bis	r13,	r14	;
    759c:	88 4e 14 00 	mov	r14,	20(r8)	; 0x0014
    75a0:	88 4c 16 00 	mov	r12,	22(r8)	; 0x0016
    75a4:	03 43       	nop			
    75a6:	03 43       	nop			
    75a8:	32 d2       	eint			
    75aa:	03 43       	nop			
    75ac:	8d 00 54 c8 	mova	#51284,	r13	;0x0c854
    75b0:	8c 01 de 1b 	mova	#72670,	r12	;0x11bde
    75b4:	b0 13 f2 4f 	calla	#20466		;0x04ff2
    75b8:	40 18 92 c3 	bicx.w	#1,	&0x0efa0;r3 As==01
    75bc:	a0 ef 
    75be:	40 18 82 c3 	bicx.w	#0,	&0x0efa2;r3 As==00
    75c2:	a2 ef 

000075c4 <.L17>:
    75c4:	40 18 e2 b3 	bitx.b	#2,	&0x0efa0;r3 As==10
    75c8:	a0 ef 
    75ca:	31 24       	jz	$+100    	;abs 0x762e
    75cc:	00 18 c2 93 	cmpx.a	#0,	&0x0c86e;r3 As==00
    75d0:	6e c8 
    75d2:	1d 20       	jnz	$+60     	;abs 0x760e
    75d4:	32 c2       	dint			
    75d6:	03 43       	nop			
    75d8:	03 43       	nop			
    75da:	3e 43       	mov	#-1,	r14	;r3 As==11
    75dc:	8d 00 6e c8 	mova	#51310,	r13	;0x0c86e
    75e0:	8c 00 72 c8 	mova	#51314,	r12	;0x0c872
    75e4:	b0 13 4e 4b 	calla	#19278		;0x04b4e
    75e8:	9c 00 00 00 	cmpa	#0,	r12	;
    75ec:	0c 24       	jz	$+26     	;abs 0x7606
    75ee:	40 18 a2 c3 	bicx.w	#2,	&0x0efa0;r3 As==10
    75f2:	a0 ef 
    75f4:	40 18 82 c3 	bicx.w	#0,	&0x0efa2;r3 As==00
    75f8:	a2 ef 
    75fa:	03 43       	nop			
    75fc:	03 43       	nop			
    75fe:	32 d2       	eint			
    7600:	03 43       	nop			
    7602:	80 00 42 75 	mova	#30018,	r0	;0x07542

00007606 <.L22>:
    7606:	03 43       	nop			
    7608:	03 43       	nop			
    760a:	32 d2       	eint			
    760c:	03 43       	nop			

0000760e <.L21>:
    760e:	2d 00 6e c8 	mova	&51310,	r13	;0x0c86e
    7612:	8c 01 de 1b 	mova	#72670,	r12	;0x11bde
    7616:	b0 13 06 a5 	calla	#42246		;0x0a506
    761a:	c0 1f f2 f0 	andx.b	#-4,	&0x0efa4;0xffffc
    761e:	fc ff a4 ef 
    7622:	40 18 a2 c3 	bicx.w	#2,	&0x0efa0;r3 As==10
    7626:	a0 ef 
    7628:	40 18 82 c3 	bicx.w	#0,	&0x0efa2;r3 As==00
    762c:	a2 ef 

0000762e <.L19>:
    762e:	40 18 e2 b2 	bitx.b	#4,	&0x0efa0;r2 As==10
    7632:	a0 ef 
    7634:	08 24       	jz	$+18     	;abs 0x7646
    7636:	b0 13 be a5 	calla	#42430		;0x0a5be
    763a:	40 18 a2 c2 	bicx.w	#4,	&0x0efa0;r2 As==10
    763e:	a0 ef 
    7640:	40 18 82 c3 	bicx.w	#0,	&0x0efa2;r3 As==00
    7644:	a2 ef 

00007646 <.L24>:
    7646:	4e 43       	clr.b	r14		;
    7648:	5c 42 a4 ef 	mov.b	&0xefa4,r12	;0xefa4
    764c:	0d 43       	clr	r13		;
    764e:	b0 13 12 4a 	calla	#18962		;0x04a12
    7652:	40 18 82 dc 	bisx.w	r12,	&0x0efa0;
    7656:	a0 ef 
    7658:	40 18 82 dd 	bisx.w	r13,	&0x0efa2;
    765c:	a2 ef 
    765e:	80 00 42 75 	mova	#30018,	r0	;0x07542

00007662 <fw_allocator>:
    7662:	0a 14       	pushm.a	#1,	r10	;20-bit words
    7664:	2e 00 c2 c8 	mova	&51394,	r14	;0x0c8c2
    7668:	ca 0e       	mova	r14,	r10	;
    766a:	ea 0c       	adda	r12,	r10	;
    766c:	3c 40 24 04 	mov	#1060,	r12	;#0x0424
    7670:	dc 0a       	cmpa	r10,	r12	;
    7672:	07 28       	jnc	$+16     	;abs 0x7682
    7674:	cc 0e       	mova	r14,	r12	;
    7676:	ac 00 c6 c8 	adda	#51398,	r12	;0x0c8c6
    767a:	60 0a c2 c8 	mova	r10,	&51394	; 0x0c8c2

0000767e <.L1>:
    767e:	0a 16       	popm.a	#1,	r10	;20-bit words
    7680:	10 01       	reta			;

00007682 <.L3>:
    7682:	4c 43       	clr.b	r12		;
    7684:	80 00 7e 76 	mova	#30334,	r0	;0x0767e

00007688 <elyFWGetBufferI>:
    7688:	8c 00 b6 c8 	mova	#51382,	r12	;0x0c8b6
    768c:	b0 13 64 4c 	calla	#19556		;0x04c64
    7690:	ce 0c       	mova	r12,	r14	;
    7692:	9c 00 00 00 	cmpa	#0,	r12	;
    7696:	06 24       	jz	$+14     	;abs 0x76a4
    7698:	41 18 b2 53 	addx.w	#-1,	&0x10a3c;r3 As==11
    769c:	3c 0a 
    769e:	b0 13 a6 c3 	calla	#50086		;0x0c3a6
    76a2:	ce 0c       	mova	r12,	r14	;

000076a4 <.L4>:
    76a4:	cc 0e       	mova	r14,	r12	;
    76a6:	10 01       	reta			;

000076a8 <elyFWGetBuffer>:
    76a8:	32 c2       	dint			
    76aa:	03 43       	nop			
    76ac:	03 43       	nop			
    76ae:	b0 13 88 76 	calla	#30344		;0x07688
    76b2:	03 43       	nop			
    76b4:	03 43       	nop			
    76b6:	32 d2       	eint			
    76b8:	03 43       	nop			
    76ba:	10 01       	reta			;

000076bc <elyFWFreeBufferI>:
    76bc:	cd 0c       	mova	r12,	r13	;
    76be:	8c 00 b6 c8 	mova	#51382,	r12	;0x0c8b6
    76c2:	b0 13 b2 4c 	calla	#19634		;0x04cb2
    76c6:	8c 01 3c 0a 	mova	#68156,	r12	;0x10a3c
    76ca:	b0 13 32 49 	calla	#18738		;0x04932
    76ce:	10 01       	reta			;

000076d0 <elyFWFreeBuffer>:
    76d0:	32 c2       	dint			
    76d2:	03 43       	nop			
    76d4:	03 43       	nop			
    76d6:	b0 13 bc 76 	calla	#30396		;0x076bc
    76da:	b0 13 c8 47 	calla	#18376		;0x047c8
    76de:	03 43       	nop			
    76e0:	03 43       	nop			
    76e2:	32 d2       	eint			
    76e4:	03 43       	nop			
    76e6:	10 01       	reta			;

000076e8 <port_lock>:
    76e8:	32 c2       	dint			
    76ea:	03 43       	nop			
    76ec:	03 43       	nop			
    76ee:	10 01       	reta			;

000076f0 <port_unlock>:
    76f0:	03 43       	nop			
    76f2:	03 43       	nop			
    76f4:	32 d2       	eint			
    76f6:	03 43       	nop			
    76f8:	10 01       	reta			;

000076fa <reset>:
    76fa:	b0 13 b2 c3 	calla	#50098		;0x0c3b2
    76fe:	b0 13 da c0 	calla	#49370		;0x0c0da
    7702:	00 18 c2 43 	movx.a	#0,	&0x0efb8;r3 As==00
    7706:	b8 ef 
    7708:	c0 1f b2 40 	movx.w	#-23224,&0x00120;0xfa548
    770c:	48 a5 20 01 
    7710:	10 01       	reta			;

00007712 <write_failure>:
    7712:	2d 4d       	mov	@r13,	r13	;
    7714:	0e 4d       	mov	r13,	r14	;
    7716:	5e 07       	rrum	#2,	r14	;
    7718:	7e f0 3f 00 	and.b	#63,	r14	;#0x003f
    771c:	cc 4e 00 00 	mov.b	r14,	0(r12)	;
    7720:	5d f3       	and.b	#1,	r13	;r3 As==01
    7722:	0d 93       	cmp	#0,	r13	;r3 As==00
    7724:	12 24       	jz	$+38     	;abs 0x774a
    7726:	6e 43       	mov.b	#2,	r14	;r3 As==10

00007728 <.L5>:
    7728:	cc 4e 01 00 	mov.b	r14,	1(r12)	;
    772c:	2e 01 44 08 	mova	&67652,	r14	;0x10844
    7730:	dc 4e 51 00 	mov.b	81(r14),2(r12)	;0x00051
    7734:	02 00 
    7736:	dc 4e 50 00 	mov.b	80(r14),3(r12)	;0x00050
    773a:	03 00 
    773c:	0d 93       	cmp	#0,	r13	;r3 As==00
    773e:	04 24       	jz	$+10     	;abs 0x7748
    7740:	7d 40 06 00 	mov.b	#6,	r13	;
    7744:	b0 13 36 a8 	calla	#43062		;0x0a836

00007748 <.L4>:
    7748:	10 01       	reta			;

0000774a <.L7>:
    774a:	0e 4d       	mov	r13,	r14	;
    774c:	80 00 28 77 	mova	#30504,	r0	;0x07728

00007750 <store_telem>:
    7750:	6a 14       	pushm.a	#7,	r10	;20-bit words
    7752:	b1 00 02 00 	suba	#2,	r1	;
    7756:	c8 0c       	mova	r12,	r8	;
    7758:	29 4d       	mov	@r13,	r9	;
    775a:	91 4d 02 00 	mov	2(r13),	0(r1)	;
    775e:	00 00 
    7760:	04 49       	mov	r9,	r4	;
    7762:	54 0f       	rrum	#4,	r4	;
    7764:	54 0f       	rrum	#4,	r4	;
    7766:	4c 49       	mov.b	r9,	r12	;
    7768:	4e 4c       	mov.b	r12,	r14	;
    776a:	6e f3       	and.b	#2,	r14	;r3 As==10
    776c:	47 4e       	mov.b	r14,	r7	;
    776e:	07 93       	cmp	#0,	r7	;r3 As==00
    7770:	17 24       	jz	$+48     	;abs 0x77a0
    7772:	65 42       	mov.b	#4,	r5	;r2 As==10

00007774 <.L12>:
    7774:	40 18 1c b3 	bitx.w	#1,	r12	;r3 As==01
    7778:	16 24       	jz	$+46     	;abs 0x77a6
    777a:	6c 43       	mov.b	#2,	r12	;r3 As==10

0000777c <.L13>:
    777c:	44 8e       	sub.b	r14,	r4	;
    777e:	44 8c       	sub.b	r12,	r4	;
    7780:	46 44       	mov.b	r4,	r6	;
    7782:	b0 13 a8 76 	calla	#30376		;0x076a8
    7786:	ca 0c       	mova	r12,	r10	;
    7788:	9c 00 00 00 	cmpa	#0,	r12	;
    778c:	0f 20       	jnz	$+32     	;abs 0x77ac
    778e:	cc 08       	mova	r8,	r12	;
    7790:	b0 13 b2 c3 	calla	#50098		;0x0c3b2
    7794:	b0 13 da c0 	calla	#49370		;0x0c0da

00007798 <.L11>:
    7798:	a1 00 02 00 	adda	#2,	r1	;
    779c:	64 16       	popm.a	#7,	r10	;20-bit words
    779e:	10 01       	reta			;

000077a0 <.L17>:
    77a0:	65 43       	mov.b	#2,	r5	;r3 As==10
    77a2:	80 00 74 77 	mova	#30580,	r0	;0x07774

000077a6 <.L18>:
    77a6:	4c 43       	clr.b	r12		;
    77a8:	80 00 7c 77 	mova	#30588,	r0	;0x0777c

000077ac <.L14>:
    77ac:	0c 44       	mov	r4,	r12	;
    77ae:	40 18 04 4c 	movx.w	r12,	r4	;
    77b2:	40 18 0d 45 	movx.w	r5,	r13	;
    77b6:	ce 04       	mova	r4,	r14	;
    77b8:	ed 08       	adda	r8,	r13	;
    77ba:	cc 0a       	mova	r10,	r12	;
    77bc:	ac 00 05 00 	adda	#5,	r12	;
    77c0:	b0 13 5e c6 	calla	#50782		;0x0c65e
    77c4:	40 18 3e 40 	movx.w	#251,	r14	;0x000fb
    77c8:	fb 00 
    77ca:	40 18 0e 86 	subx.w	r6,	r14	;
    77ce:	4e 0e       	rlam.a	#4,	r14	;
    77d0:	4e 0d       	rram.a	#4,	r14	;
    77d2:	cc 04       	mova	r4,	r12	;
    77d4:	ac 00 05 00 	adda	#5,	r12	;
    77d8:	4d 43       	clr.b	r13		;
    77da:	ec 0a       	adda	r10,	r12	;
    77dc:	b0 13 7c c6 	calla	#50812		;0x0c67c
    77e0:	40 18 82 49 	movx.w	r9,	&0x0efac;
    77e4:	ac ef 
    77e6:	40 18 a2 41 	movx.w	@r1,	&0x0efae;
    77ea:	ae ef 
    77ec:	cc 08       	mova	r8,	r12	;
    77ee:	b0 13 b2 c3 	calla	#50098		;0x0c3b2
    77f2:	b0 13 da c0 	calla	#49370		;0x0c0da
    77f6:	b0 13 e8 76 	calla	#30440		;0x076e8
    77fa:	07 93       	cmp	#0,	r7	;r3 As==00
    77fc:	09 24       	jz	$+20     	;abs 0x7810
    77fe:	8d 00 b8 7c 	mova	#31928,	r13	;0x07cb8

00007802 <.L16>:
    7802:	cc 0a       	mova	r10,	r12	;
    7804:	b0 13 b8 a3 	calla	#41912		;0x0a3b8
    7808:	b0 13 f0 76 	calla	#30448		;0x076f0
    780c:	80 00 98 77 	mova	#30616,	r0	;0x07798

00007810 <.L19>:
    7810:	8d 00 18 78 	mova	#30744,	r13	;0x07818
    7814:	80 00 02 78 	mova	#30722,	r0	;0x07802

00007818 <store_telem_noreply_cb>:
    7818:	b0 13 b2 c3 	calla	#50098		;0x0c3b2
    781c:	b0 13 bc 76 	calla	#30396		;0x076bc
    7820:	10 01       	reta			;

00007822 <upload_fw_noreply_cb>:
    7822:	b0 13 18 78 	calla	#30744		;0x07818
    7826:	10 01       	reta			;

00007828 <verify_fw>:
    7828:	2a 14       	pushm.a	#3,	r10	;20-bit words
    782a:	06 14       	pushm.a	#1,	r6	;20-bit words
    782c:	b1 00 04 00 	suba	#4,	r1	;
    7830:	c6 0c       	mova	r12,	r6	;
    7832:	29 4d       	mov	@r13,	r9	;
    7834:	1a 4d 02 00 	mov	2(r13),	r10	;
    7838:	8e 00 b2 c3 	mova	#50098,	r14	;0x0c3b2
    783c:	88 00 da c0 	mova	#49370,	r8	;0x0c0da
    7840:	40 18 29 b3 	bitx.w	#2,	r9	;r3 As==10
    7844:	47 24       	jz	$+144    	;abs 0x78d4
    7846:	5d 4c 04 00 	mov.b	4(r12),	r13	;
    784a:	47 18 0d 5d 	rpt #8 { rlax.w	r13		;
    784e:	56 4c 05 00 	mov.b	5(r12),	r6	;
    7852:	06 dd       	bis	r13,	r6	;
    7854:	40 18 82 46 	movx.w	r6,	&0x0efaa;
    7858:	aa ef 
    785a:	4e 13       	calla	r14		;
    785c:	48 13       	calla	r8		;
    785e:	b0 13 14 a9 	calla	#43284		;0x0a914
    7862:	c8 0c       	mova	r12,	r8	;
    7864:	40 18 82 49 	movx.w	r9,	&0x0efb0;
    7868:	b0 ef 
    786a:	40 18 82 4a 	movx.w	r10,	&0x0efb2;
    786e:	b2 ef 
    7870:	8a 00 e8 76 	mova	#30440,	r10	;0x076e8
    7874:	4a 13       	calla	r10		;
    7876:	4d 43       	clr.b	r13		;
    7878:	cc 01       	mova	r1,	r12	;
    787a:	b0 13 4a b3 	calla	#45898		;0x0b34a
    787e:	86 00 f0 76 	mova	#30448,	r6	;0x076f0
    7882:	46 13       	calla	r6		;
    7884:	0c 01       	mova	@r1,	r12	;
    7886:	bc 40 00 04 	mov	#1024,	0(r12)	;#0x0400
    788a:	00 00 
    788c:	9c 43 02 00 	mov	#1,	2(r12)	;r3 As==01
    7890:	fc d0 03 00 	bis.b	#3,	4(r12)	;
    7894:	04 00 
    7896:	1d 4c 04 00 	mov	4(r12),	r13	;
    789a:	7d f0 03 00 	and.b	#3,	r13	;
    789e:	3d d0 00 f0 	bis	#61440,	r13	;#0xf000
    78a2:	8c 4d 04 00 	mov	r13,	4(r12)	;
    78a6:	5d 4c 06 00 	mov.b	6(r12),	r13	;
    78aa:	7d d0 03 00 	bis.b	#3,	r13	;
    78ae:	6d c2       	bic.b	#4,	r13	;r2 As==10
    78b0:	cc 4d 06 00 	mov.b	r13,	6(r12)	;
    78b4:	7c 08 08 00 	mova	r8,	8(r12)	;
    78b8:	00 18 fc 40 	movx.a	#31960,	12(r12)	;0x07cd8, 0x0000c
    78bc:	d8 7c 0c 00 
    78c0:	4a 13       	calla	r10		;
    78c2:	0c 01       	mova	@r1,	r12	;
    78c4:	b0 13 26 b3 	calla	#45862		;0x0b326
    78c8:	46 13       	calla	r6		;

000078ca <.L22>:
    78ca:	a1 00 04 00 	adda	#4,	r1	;
    78ce:	06 16       	popm.a	#1,	r6	;20-bit words
    78d0:	28 16       	popm.a	#3,	r10	;20-bit words
    78d2:	10 01       	reta			;

000078d4 <.L23>:
    78d4:	4e 13       	calla	r14		;
    78d6:	48 13       	calla	r8		;
    78d8:	80 00 ca 78 	mova	#30922,	r0	;0x078ca

000078dc <write_success>:
    78dc:	0a 14       	pushm.a	#1,	r10	;20-bit words
    78de:	2d 4d       	mov	@r13,	r13	;
    78e0:	0f 4d       	mov	r13,	r15	;
    78e2:	5f 07       	rrum	#2,	r15	;
    78e4:	7f f0 3f 00 	and.b	#63,	r15	;#0x003f
    78e8:	cc 4f 00 00 	mov.b	r15,	0(r12)	;
    78ec:	2a 01 44 08 	mova	&67652,	r10	;0x10844
    78f0:	dc 4a 51 00 	mov.b	81(r10),2(r12)	;0x00051
    78f4:	02 00 
    78f6:	dc 4a 50 00 	mov.b	80(r10),3(r12)	;0x00050
    78fa:	03 00 
    78fc:	dc 43 04 00 	mov.b	#1,	4(r12)	;r3 As==01
    7900:	40 18 1d b3 	bitx.w	#1,	r13	;r3 As==01
    7904:	09 24       	jz	$+20     	;abs 0x7918
    7906:	fc 40 03 00 	mov.b	#3,	1(r12)	;
    790a:	01 00 
    790c:	7d 40 07 00 	mov.b	#7,	r13	;
    7910:	b0 13 36 a8 	calla	#43062		;0x0a836

00007914 <.L25>:
    7914:	0a 16       	popm.a	#1,	r10	;20-bit words
    7916:	10 01       	reta			;

00007918 <.L26>:
    7918:	dc 43 01 00 	mov.b	#1,	1(r12)	;r3 As==01
    791c:	80 00 14 79 	mova	#30996,	r0	;0x07914

00007920 <cancel_fw_eeprom_cb>:
    7920:	40 18 1c 42 	movx.w	&0x0efa8,r12	;
    7924:	a8 ef 
    7926:	4d 43       	clr.b	r13		;
    7928:	0d 9c       	cmp	r12,	r13	;
    792a:	04 38       	jl	$+10     	;abs 0x7934
    792c:	8c 00 a8 ef 	mova	#61352,	r12	;0x0efa8
    7930:	b0 13 32 49 	calla	#18738		;0x04932

00007934 <.L28>:
    7934:	10 01       	reta			;

00007936 <elyMainMBPost>:
    7936:	0e 4d       	mov	r13,	r14	;
    7938:	cd 0c       	mova	r12,	r13	;
    793a:	8c 01 3e 0a 	mova	#68158,	r12	;0x10a3e
    793e:	b0 13 dc 4a 	calla	#19164		;0x04adc
    7942:	10 01       	reta			;

00007944 <elyCmdParse>:
    7944:	2a 14       	pushm.a	#3,	r10	;20-bit words
    7946:	ca 0d       	mova	r13,	r10	;
    7948:	6d 4d       	mov.b	@r13,	r13	;
    794a:	09 4d       	mov	r13,	r9	;
    794c:	59 0f       	rrum	#4,	r9	;
    794e:	59 0b       	rrum	#3,	r9	;
    7950:	0e 4d       	mov	r13,	r14	;
    7952:	5e 0f       	rrum	#4,	r14	;
    7954:	5e 07       	rrum	#2,	r14	;
    7956:	5e f3       	and.b	#1,	r14	;r3 As==01
    7958:	08 4d       	mov	r13,	r8	;
    795a:	78 f0 3f 00 	and.b	#63,	r8	;#0x003f
    795e:	5b 4a 01 00 	mov.b	1(r10),	r11	;
    7962:	4e 93       	cmp.b	#0,	r14	;r3 As==00
    7964:	07 24       	jz	$+16     	;abs 0x7974
    7966:	5f 4a 02 00 	mov.b	2(r10),	r15	;
    796a:	47 18 0f 5f 	rpt #8 { rlax.w	r15		;
    796e:	5a 4a 03 00 	mov.b	3(r10),	r10	;
    7972:	0f da       	bis	r10,	r15	;

00007974 <.L34>:
    7974:	4d 4e       	mov.b	r14,	r13	;
    7976:	5d f3       	and.b	#1,	r13	;r3 As==01
    7978:	4d 5d       	rla.b	r13		;
    797a:	7d f0 03 00 	and.b	#3,	r13	;
    797e:	0e 48       	mov	r8,	r14	;
    7980:	41 18 0e 5e 	rpt #2 { rlax.w	r14		;
    7984:	4d d9       	bis.b	r9,	r13	;
    7986:	4d de       	bis.b	r14,	r13	;
    7988:	cc 4d 00 00 	mov.b	r13,	0(r12)	;
    798c:	cc 4b 01 00 	mov.b	r11,	1(r12)	;
    7990:	8c 4f 02 00 	mov	r15,	2(r12)	;
    7994:	28 16       	popm.a	#3,	r10	;20-bit words
    7996:	10 01       	reta			;

00007998 <elyCmdValidate>:
    7998:	2a 14       	pushm.a	#3,	r10	;20-bit words
    799a:	29 4c       	mov	@r12,	r9	;
    799c:	ca 0d       	mova	r13,	r10	;
    799e:	0c 49       	mov	r9,	r12	;
    79a0:	5c 07       	rrum	#2,	r12	;
    79a2:	7c f0 3f 00 	and.b	#63,	r12	;#0x003f
    79a6:	08 49       	mov	r9,	r8	;
    79a8:	58 0f       	rrum	#4,	r8	;
    79aa:	58 0f       	rrum	#4,	r8	;
    79ac:	7d 40 30 00 	mov.b	#48,	r13	;#0x0030
    79b0:	0d 9c       	cmp	r12,	r13	;
    79b2:	07 34       	jge	$+16     	;abs 0x79c2
    79b4:	7c 40 89 ff 	mov.b	#65417,	r12	;#0xff89

000079b8 <.L184>:
    79b8:	b0 13 96 a3 	calla	#41878		;0x0a396

000079bc <.L70>:
    79bc:	4a 43       	clr.b	r10		;
    79be:	80 00 bc 7b 	mova	#31676,	r0	;0x07bbc

000079c2 <.L39>:
    79c2:	39 f0 ff 00 	and	#255,	r9	;#0x00ff
    79c6:	4f 49       	mov.b	r9,	r15	;
    79c8:	6f f3       	and.b	#2,	r15	;r3 As==10
    79ca:	4f 93       	cmp.b	#0,	r15	;r3 As==00
    79cc:	0a 24       	jz	$+22     	;abs 0x79e2
    79ce:	2e 01 44 08 	mova	&67652,	r14	;0x10844
    79d2:	da 9e 51 00 	cmp.b	81(r14),2(r10)	;0x00051
    79d6:	02 00 
    79d8:	04 20       	jnz	$+10     	;abs 0x79e2
    79da:	da 9e 50 00 	cmp.b	80(r14),3(r10)	;0x00050
    79de:	03 00 
    79e0:	ed 27       	jz	$-36     	;abs 0x79bc

000079e2 <.L41>:
    79e2:	59 f3       	and.b	#1,	r9	;r3 As==01
    79e4:	09 93       	cmp	#0,	r9	;r3 As==00
    79e6:	2b 24       	jz	$+88     	;abs 0x7a3e
    79e8:	6d 43       	mov.b	#2,	r13	;r3 As==10

000079ea <.L42>:
    79ea:	40 18 4e 48 	movx.b	r8,	r14	;
    79ee:	40 18 4e 8f 	subx.b	r15,	r14	;
    79f2:	4e 8d       	sub.b	r13,	r14	;
    79f4:	4d 4e       	mov.b	r14,	r13	;
    79f6:	7c 90 17 00 	cmp.b	#23,	r12	;#0x0017
    79fa:	57 24       	jz	$+176    	;abs 0x7aaa
    79fc:	7f 40 17 00 	mov.b	#23,	r15	;#0x0017
    7a00:	4f 9c       	cmp.b	r12,	r15	;
    7a02:	76 28       	jnc	$+238    	;abs 0x7af0
    7a04:	7c 90 0b 00 	cmp.b	#11,	r12	;#0x000b
    7a08:	50 24       	jz	$+162    	;abs 0x7aaa
    7a0a:	7f 40 0b 00 	mov.b	#11,	r15	;#0x000b
    7a0e:	4f 9c       	cmp.b	r12,	r15	;
    7a10:	38 28       	jnc	$+114    	;abs 0x7a82
    7a12:	7c 90 05 00 	cmp.b	#5,	r12	;
    7a16:	e3 24       	jz	$+456    	;abs 0x7bde
    7a18:	7f 40 05 00 	mov.b	#5,	r15	;
    7a1c:	4f 9c       	cmp.b	r12,	r15	;
    7a1e:	12 28       	jnc	$+38     	;abs 0x7a44
    7a20:	6c 93       	cmp.b	#2,	r12	;r3 As==10
    7a22:	c7 24       	jz	$+400    	;abs 0x7bb2
    7a24:	6c 93       	cmp.b	#2,	r12	;r3 As==10
    7a26:	27 28       	jnc	$+80     	;abs 0x7a76
    7a28:	7c 90 03 00 	cmp.b	#3,	r12	;
    7a2c:	24 24       	jz	$+74     	;abs 0x7a76
    7a2e:	6c 92       	cmp.b	#4,	r12	;r2 As==10
    7a30:	86 24       	jz	$+270    	;abs 0x7b3e

00007a32 <.L43>:
    7a32:	8c 01 6d 07 	mova	#67437,	r12	;0x1076d
    7a36:	b0 13 42 46 	calla	#17986		;0x04642
    7a3a:	80 00 b6 7b 	mova	#31670,	r0	;0x07bb6

00007a3e <.L71>:
    7a3e:	0d 49       	mov	r9,	r13	;
    7a40:	80 00 ea 79 	mova	#31210,	r0	;0x079ea

00007a44 <.L48>:
    7a44:	7c 92       	cmp.b	#8,	r12	;r2 As==11
    7a46:	17 24       	jz	$+48     	;abs 0x7a76
    7a48:	7f 42       	mov.b	#8,	r15	;r2 As==11
    7a4a:	4f 9c       	cmp.b	r12,	r15	;
    7a4c:	0e 28       	jnc	$+30     	;abs 0x7a6a
    7a4e:	7c 90 06 00 	cmp.b	#6,	r12	;
    7a52:	bb 24       	jz	$+376    	;abs 0x7bca
    7a54:	7c 90 07 00 	cmp.b	#7,	r12	;
    7a58:	ec 23       	jnz	$-38     	;abs 0x7a32
    7a5a:	7e 50 fe ff 	add.b	#65534,	r14	;#0xfffe
    7a5e:	7f 40 f9 ff 	mov.b	#65529,	r15	;#0xfff9
    7a62:	4f 9e       	cmp.b	r14,	r15	;
    7a64:	a8 2c       	jc	$+338    	;abs 0x7bb6
    7a66:	80 00 7a 7a 	mova	#31354,	r0	;0x07a7a

00007a6a <.L52>:
    7a6a:	7c 90 09 00 	cmp.b	#9,	r12	;
    7a6e:	1d 24       	jz	$+60     	;abs 0x7aaa
    7a70:	7c 90 0a 00 	cmp.b	#10,	r12	;#0x000a
    7a74:	de 23       	jnz	$-66     	;abs 0x7a32

00007a76 <.L50>:
    7a76:	0d 93       	cmp	#0,	r13	;r3 As==00
    7a78:	9e 24       	jz	$+318    	;abs 0x7bb6

00007a7a <.L67>:
    7a7a:	7c 40 8a ff 	mov.b	#65418,	r12	;#0xff8a
    7a7e:	80 00 b8 79 	mova	#31160,	r0	;0x079b8

00007a82 <.L46>:
    7a82:	7c 90 11 00 	cmp.b	#17,	r12	;#0x0011
    7a86:	11 24       	jz	$+36     	;abs 0x7aaa
    7a88:	7f 40 11 00 	mov.b	#17,	r15	;#0x0011
    7a8c:	4f 9c       	cmp.b	r12,	r15	;
    7a8e:	19 28       	jnc	$+52     	;abs 0x7ac2
    7a90:	7c 90 0e 00 	cmp.b	#14,	r12	;#0x000e
    7a94:	f0 27       	jz	$-30     	;abs 0x7a76
    7a96:	7f 40 0e 00 	mov.b	#14,	r15	;#0x000e
    7a9a:	4f 9c       	cmp.b	r12,	r15	;
    7a9c:	0a 28       	jnc	$+22     	;abs 0x7ab2
    7a9e:	7c 90 0c 00 	cmp.b	#12,	r12	;#0x000c
    7aa2:	e9 27       	jz	$-44     	;abs 0x7a76
    7aa4:	7c 90 0d 00 	cmp.b	#13,	r12	;#0x000d
    7aa8:	c4 23       	jnz	$-118    	;abs 0x7a32

00007aaa <.L181>:
    7aaa:	6e 92       	cmp.b	#4,	r14	;r2 As==10
    7aac:	e6 23       	jnz	$-50     	;abs 0x7a7a
    7aae:	80 00 b6 7b 	mova	#31670,	r0	;0x07bb6

00007ab2 <.L56>:
    7ab2:	7c 90 0f 00 	cmp.b	#15,	r12	;#0x000f
    7ab6:	f9 27       	jz	$-12     	;abs 0x7aaa
    7ab8:	7c 90 10 00 	cmp.b	#16,	r12	;#0x0010
    7abc:	dc 27       	jz	$-70     	;abs 0x7a76
    7abe:	80 00 32 7a 	mova	#31282,	r0	;0x07a32

00007ac2 <.L55>:
    7ac2:	7c 90 14 00 	cmp.b	#20,	r12	;#0x0014
    7ac6:	d7 27       	jz	$-80     	;abs 0x7a76
    7ac8:	7f 40 14 00 	mov.b	#20,	r15	;#0x0014
    7acc:	4f 9c       	cmp.b	r12,	r15	;
    7ace:	08 28       	jnc	$+18     	;abs 0x7ae0
    7ad0:	7c 90 12 00 	cmp.b	#18,	r12	;#0x0012
    7ad4:	d0 27       	jz	$-94     	;abs 0x7a76
    7ad6:	7c 90 13 00 	cmp.b	#19,	r12	;#0x0013
    7ada:	e7 27       	jz	$-48     	;abs 0x7aaa
    7adc:	80 00 32 7a 	mova	#31282,	r0	;0x07a32

00007ae0 <.L57>:
    7ae0:	7c 90 15 00 	cmp.b	#21,	r12	;#0x0015
    7ae4:	66 24       	jz	$+206    	;abs 0x7bb2
    7ae6:	7c 90 16 00 	cmp.b	#22,	r12	;#0x0016
    7aea:	c5 27       	jz	$-116    	;abs 0x7a76
    7aec:	80 00 32 7a 	mova	#31282,	r0	;0x07a32

00007af0 <.L45>:
    7af0:	7f 40 26 00 	mov.b	#38,	r15	;#0x0026
    7af4:	4f 9c       	cmp.b	r12,	r15	;
    7af6:	3a 28       	jnc	$+118    	;abs 0x7b6c
    7af8:	7c 90 25 00 	cmp.b	#37,	r12	;#0x0025
    7afc:	bc 2f       	jc	$-134    	;abs 0x7a76
    7afe:	7c 90 1d 00 	cmp.b	#29,	r12	;#0x001d
    7b02:	57 24       	jz	$+176    	;abs 0x7bb2
    7b04:	7f 40 1d 00 	mov.b	#29,	r15	;#0x001d
    7b08:	4f 9c       	cmp.b	r12,	r15	;
    7b0a:	1f 28       	jnc	$+64     	;abs 0x7b4a
    7b0c:	7c 90 1a 00 	cmp.b	#26,	r12	;#0x001a
    7b10:	16 24       	jz	$+46     	;abs 0x7b3e
    7b12:	7d 40 1a 00 	mov.b	#26,	r13	;#0x001a
    7b16:	4d 9c       	cmp.b	r12,	r13	;
    7b18:	0c 28       	jnc	$+26     	;abs 0x7b32
    7b1a:	7c 90 18 00 	cmp.b	#24,	r12	;#0x0018
    7b1e:	49 24       	jz	$+148    	;abs 0x7bb2
    7b20:	7c 90 19 00 	cmp.b	#25,	r12	;#0x0019
    7b24:	86 23       	jnz	$-242    	;abs 0x7a32

00007b26 <.L61>:
    7b26:	7e 50 fc ff 	add.b	#65532,	r14	;#0xfffc
    7b2a:	7c 40 f7 ff 	mov.b	#65527,	r12	;#0xfff7
    7b2e:	80 00 42 7b 	mova	#31554,	r0	;0x07b42

00007b32 <.L60>:
    7b32:	7c 90 1b 00 	cmp.b	#27,	r12	;#0x001b
    7b36:	f7 27       	jz	$-16     	;abs 0x7b26
    7b38:	7c 90 1c 00 	cmp.b	#28,	r12	;#0x001c
    7b3c:	7a 23       	jnz	$-266    	;abs 0x7a32

00007b3e <.L51>:
    7b3e:	7c 40 fb ff 	mov.b	#65531,	r12	;#0xfffb

00007b42 <.L183>:
    7b42:	4c 9e       	cmp.b	r14,	r12	;
    7b44:	38 2c       	jc	$+114    	;abs 0x7bb6
    7b46:	80 00 7a 7a 	mova	#31354,	r0	;0x07a7a

00007b4a <.L59>:
    7b4a:	7f 40 22 00 	mov.b	#34,	r15	;#0x0022
    7b4e:	4f 9c       	cmp.b	r12,	r15	;
    7b50:	05 28       	jnc	$+12     	;abs 0x7b5c
    7b52:	7c 90 1f 00 	cmp.b	#31,	r12	;#0x001f
    7b56:	8f 2b       	jnc	$-224    	;abs 0x7a76
    7b58:	80 00 3e 7b 	mova	#31550,	r0	;0x07b3e

00007b5c <.L62>:
    7b5c:	7c 90 23 00 	cmp.b	#35,	r12	;#0x0023
    7b60:	8a 27       	jz	$-234    	;abs 0x7a76
    7b62:	7c 90 24 00 	cmp.b	#36,	r12	;#0x0024
    7b66:	a1 27       	jz	$-188    	;abs 0x7aaa
    7b68:	80 00 32 7a 	mova	#31282,	r0	;0x07a32

00007b6c <.L58>:
    7b6c:	7c 90 2b 00 	cmp.b	#43,	r12	;#0x002b
    7b70:	28 24       	jz	$+82     	;abs 0x7bc2
    7b72:	7f 40 2b 00 	mov.b	#43,	r15	;#0x002b
    7b76:	4f 9c       	cmp.b	r12,	r15	;
    7b78:	0e 28       	jnc	$+30     	;abs 0x7b96
    7b7a:	7c 90 28 00 	cmp.b	#40,	r12	;#0x0028
    7b7e:	7b 27       	jz	$-264    	;abs 0x7a76
    7b80:	7c 90 28 00 	cmp.b	#40,	r12	;#0x0028
    7b84:	16 28       	jnc	$+46     	;abs 0x7bb2
    7b86:	7c 90 29 00 	cmp.b	#41,	r12	;#0x0029
    7b8a:	13 24       	jz	$+40     	;abs 0x7bb2
    7b8c:	7c 90 2a 00 	cmp.b	#42,	r12	;#0x002a
    7b90:	ca 27       	jz	$-106    	;abs 0x7b26
    7b92:	80 00 32 7a 	mova	#31282,	r0	;0x07a32

00007b96 <.L64>:
    7b96:	7c 90 2e 00 	cmp.b	#46,	r12	;#0x002e
    7b9a:	d1 27       	jz	$-92     	;abs 0x7b3e
    7b9c:	7c 90 2e 00 	cmp.b	#46,	r12	;#0x002e
    7ba0:	6a 2b       	jnc	$-298    	;abs 0x7a76
    7ba2:	7c 90 2f 00 	cmp.b	#47,	r12	;#0x002f
    7ba6:	16 24       	jz	$+46     	;abs 0x7bd4
    7ba8:	7c 90 30 00 	cmp.b	#48,	r12	;#0x0030
    7bac:	c8 27       	jz	$-110    	;abs 0x7b3e
    7bae:	80 00 32 7a 	mova	#31282,	r0	;0x07a32

00007bb2 <.L49>:
    7bb2:	5e 93       	cmp.b	#1,	r14	;r3 As==01
    7bb4:	62 23       	jnz	$-314    	;abs 0x7a7a

00007bb6 <.L66>:
    7bb6:	09 93       	cmp	#0,	r9	;r3 As==00
    7bb8:	1c 20       	jnz	$+58     	;abs 0x7bf2

00007bba <.L69>:
    7bba:	5a 43       	mov.b	#1,	r10	;r3 As==01

00007bbc <.L40>:
    7bbc:	4c 4a       	mov.b	r10,	r12	;
    7bbe:	28 16       	popm.a	#3,	r10	;20-bit words
    7bc0:	10 01       	reta			;

00007bc2 <.L63>:
    7bc2:	6e 93       	cmp.b	#2,	r14	;r3 As==10
    7bc4:	f8 27       	jz	$-14     	;abs 0x7bb6
    7bc6:	80 00 7a 7a 	mova	#31354,	r0	;0x07a7a

00007bca <.L53>:
    7bca:	7e 90 03 00 	cmp.b	#3,	r14	;
    7bce:	f3 27       	jz	$-24     	;abs 0x7bb6
    7bd0:	80 00 7a 7a 	mova	#31354,	r0	;0x07a7a

00007bd4 <.L65>:
    7bd4:	7e c2       	bic.b	#8,	r14	;r2 As==11
    7bd6:	6e 93       	cmp.b	#2,	r14	;r3 As==10
    7bd8:	68 23       	jnz	$-302    	;abs 0x7aaa
    7bda:	80 00 b6 7b 	mova	#31670,	r0	;0x07bb6

00007bde <.L47>:
    7bde:	4c 4e       	mov.b	r14,	r12	;
    7be0:	7c 53       	add.b	#-1,	r12	;r3 As==11
    7be2:	7d 40 fa ff 	mov.b	#65530,	r13	;#0xfffa
    7be6:	4d 9c       	cmp.b	r12,	r13	;
    7be8:	48 2b       	jnc	$-366    	;abs 0x7a7a
    7bea:	1e b3       	bit	#1,	r14	;r3 As==01
    7bec:	e4 23       	jnz	$-54     	;abs 0x7bb6
    7bee:	80 00 7a 7a 	mova	#31354,	r0	;0x07a7a

00007bf2 <.L68>:
    7bf2:	0d 48       	mov	r8,	r13	;
    7bf4:	2d 53       	incd	r13		;
    7bf6:	4d 0e       	rlam.a	#4,	r13	;
    7bf8:	4d 0d       	rram.a	#4,	r13	;
    7bfa:	cc 0a       	mova	r10,	r12	;
    7bfc:	b0 13 aa a8 	calla	#43178		;0x0a8aa
    7c00:	4a 4c       	mov.b	r12,	r10	;
    7c02:	0a 93       	cmp	#0,	r10	;r3 As==00
    7c04:	da 23       	jnz	$-74     	;abs 0x7bba
    7c06:	7c 40 8b ff 	mov.b	#65419,	r12	;#0xff8b
    7c0a:	b0 13 96 a3 	calla	#41878		;0x0a396
    7c0e:	80 00 bc 7b 	mova	#31676,	r0	;0x07bbc

00007c12 <elyCmdDispatch>:
    7c12:	0a 14       	pushm.a	#1,	r10	;20-bit words
    7c14:	b1 00 08 00 	suba	#8,	r1	;
    7c18:	2f 4c       	mov	@r12,	r15	;
    7c1a:	91 4c 02 00 	mov	2(r12),	6(r1)	;
    7c1e:	06 00 
    7c20:	cc 0d       	mova	r13,	r12	;
    7c22:	0e 4f       	mov	r15,	r14	;
    7c24:	5e 07       	rrum	#2,	r14	;
    7c26:	7e f0 3f 00 	and.b	#63,	r14	;#0x003f
    7c2a:	81 4f 04 00 	mov	r15,	4(r1)	;
    7c2e:	0f 43       	clr	r15		;
    7c30:	0a 4e       	mov	r14,	r10	;
    7c32:	0b 4f       	mov	r15,	r11	;
    7c34:	0a 5a       	rla	r10		;
    7c36:	0b 6b       	rlc	r11		;
    7c38:	0a 5a       	rla	r10		;
    7c3a:	0b 6b       	rlc	r11		;
    7c3c:	81 4a 00 00 	mov	r10,	0(r1)	;
    7c40:	81 4b 02 00 	mov	r11,	2(r1)	;
    7c44:	cd 01       	mova	r1,	r13	;
    7c46:	ad 00 04 00 	adda	#4,	r13	;
    7c4a:	0a 01       	mova	@r1,	r10	;
    7c4c:	80 18 5a 4a 	movx.a	67452(r10),r10	;0x1077c
    7c50:	7c 07 
    7c52:	4a 13       	calla	r10		;
    7c54:	a1 00 08 00 	adda	#8,	r1	;
    7c58:	0a 16       	popm.a	#1,	r10	;20-bit words
    7c5a:	10 01       	reta			;

00007c5c <elyCmdSendReplyI>:
    7c5c:	2a 14       	pushm.a	#3,	r10	;20-bit words
    7c5e:	09 4d       	mov	r13,	r9	;
    7c60:	58 4c 01 00 	mov.b	1(r12),	r8	;
    7c64:	b0 13 b2 c3 	calla	#50098		;0x0c3b2
    7c68:	ca 0c       	mova	r12,	r10	;
    7c6a:	0e 49       	mov	r9,	r14	;
    7c6c:	0d 48       	mov	r8,	r13	;
    7c6e:	2d 52       	add	#4,	r13	;r2 As==10
    7c70:	b0 13 9c c1 	calla	#49564		;0x0c19c
    7c74:	0d 49       	mov	r9,	r13	;
    7c76:	cc 0a       	mova	r10,	r12	;
    7c78:	b0 13 fc c0 	calla	#49404		;0x0c0fc
    7c7c:	4c 93       	cmp.b	#0,	r12	;r3 As==00
    7c7e:	11 24       	jz	$+36     	;abs 0x7ca2
    7c80:	5c 93       	cmp.b	#1,	r12	;r3 As==01
    7c82:	14 20       	jnz	$+42     	;abs 0x7cac
    7c84:	cc 0a       	mova	r10,	r12	;
    7c86:	b0 13 a8 b3 	calla	#45992		;0x0b3a8

00007c8a <.L199>:
    7c8a:	9c 00 00 00 	cmpa	#0,	r12	;
    7c8e:	07 24       	jz	$+16     	;abs 0x7c9e
    7c90:	8c 01 5c 07 	mova	#67420,	r12	;0x1075c
    7c94:	b0 13 42 46 	calla	#17986		;0x04642
    7c98:	cc 0a       	mova	r10,	r12	;
    7c9a:	b0 13 d0 76 	calla	#30416		;0x076d0

00007c9e <.L186>:
    7c9e:	28 16       	popm.a	#3,	r10	;20-bit words
    7ca0:	10 01       	reta			;

00007ca2 <.L188>:
    7ca2:	cc 0a       	mova	r10,	r12	;
    7ca4:	b0 13 70 74 	calla	#29808		;0x07470
    7ca8:	80 00 8a 7c 	mova	#31882,	r0	;0x07c8a

00007cac <.L196>:
    7cac:	8c 01 5c 07 	mova	#67420,	r12	;0x1075c
    7cb0:	b0 13 42 46 	calla	#17986		;0x04642
    7cb4:	80 00 9e 7c 	mova	#31902,	r0	;0x07c9e

00007cb8 <store_telem_reply_cb>:
    7cb8:	0a 14       	pushm.a	#1,	r10	;20-bit words
    7cba:	08 14       	pushm.a	#1,	r8	;20-bit words
    7cbc:	c8 0c       	mova	r12,	r8	;
    7cbe:	8a 00 ac ef 	mova	#61356,	r10	;0x0efac
    7cc2:	cd 0a       	mova	r10,	r13	;
    7cc4:	b0 13 dc 78 	calla	#30940		;0x078dc
    7cc8:	1d 4a 02 00 	mov	2(r10),	r13	;
    7ccc:	cc 08       	mova	r8,	r12	;
    7cce:	b0 13 5c 7c 	calla	#31836		;0x07c5c
    7cd2:	08 16       	popm.a	#1,	r8	;20-bit words
    7cd4:	0a 16       	popm.a	#1,	r10	;20-bit words
    7cd6:	10 01       	reta			;

00007cd8 <verify_fw_cb>:
    7cd8:	2a 14       	pushm.a	#3,	r10	;20-bit words
    7cda:	06 14       	pushm.a	#1,	r6	;20-bit words
    7cdc:	b0 13 36 a9 	calla	#43318		;0x0a936
    7ce0:	09 4c       	mov	r12,	r9	;
    7ce2:	b0 13 88 76 	calla	#30344		;0x07688
    7ce6:	c6 0c       	mova	r12,	r6	;
    7ce8:	9c 00 00 00 	cmpa	#0,	r12	;
    7cec:	10 24       	jz	$+34     	;abs 0x7d0e
    7cee:	88 00 b4 ef 	mova	#61364,	r8	;0x0efb4
    7cf2:	8a 00 5c 7c 	mova	#31836,	r10	;0x07c5c
    7cf6:	8d 00 b0 ef 	mova	#61360,	r13	;0x0efb0
    7cfa:	40 18 19 92 	cmpx.w	&0x0efaa,r9	;
    7cfe:	aa ef 
    7d00:	09 20       	jnz	$+20     	;abs 0x7d14
    7d02:	b0 13 dc 78 	calla	#30940		;0x078dc

00007d06 <.L207>:
    7d06:	1d 48 02 00 	mov	2(r8),	r13	;
    7d0a:	cc 06       	mova	r6,	r12	;
    7d0c:	4a 13       	calla	r10		;

00007d0e <.L201>:
    7d0e:	06 16       	popm.a	#1,	r6	;20-bit words
    7d10:	28 16       	popm.a	#3,	r10	;20-bit words
    7d12:	10 01       	reta			;

00007d14 <.L203>:
    7d14:	b0 13 12 77 	calla	#30482		;0x07712
    7d18:	80 00 06 7d 	mova	#32006,	r0	;0x07d06

00007d1c <upload_fw_reply_cb>:
    7d1c:	0a 14       	pushm.a	#1,	r10	;20-bit words
    7d1e:	08 14       	pushm.a	#1,	r8	;20-bit words
    7d20:	c8 0c       	mova	r12,	r8	;
    7d22:	8a 00 b4 ef 	mova	#61364,	r10	;0x0efb4
    7d26:	cd 0a       	mova	r10,	r13	;
    7d28:	b0 13 dc 78 	calla	#30940		;0x078dc
    7d2c:	1d 4a 02 00 	mov	2(r10),	r13	;
    7d30:	cc 08       	mova	r8,	r12	;
    7d32:	b0 13 5c 7c 	calla	#31836		;0x07c5c
    7d36:	08 16       	popm.a	#1,	r8	;20-bit words
    7d38:	0a 16       	popm.a	#1,	r10	;20-bit words
    7d3a:	10 01       	reta			;

00007d3c <elyCmdSendReply>:
    7d3c:	b1 00 08 00 	suba	#8,	r1	;
    7d40:	71 0c 04 00 	mova	r12,	4(r1)	;
    7d44:	71 0d 00 00 	mova	r13,	0(r1)	;
    7d48:	b0 13 e8 76 	calla	#30440		;0x076e8
    7d4c:	0d 01       	mova	@r1,	r13	;
    7d4e:	3c 01 04 00 	mova	4(r1),	r12	;
    7d52:	b0 13 5c 7c 	calla	#31836		;0x07c5c
    7d56:	b0 13 f0 76 	calla	#30448		;0x076f0
    7d5a:	a1 00 08 00 	adda	#8,	r1	;
    7d5e:	10 01       	reta			;

00007d60 <get_sx1212_reg>:
    7d60:	6a 14       	pushm.a	#7,	r10	;20-bit words
    7d62:	c8 0c       	mova	r12,	r8	;
    7d64:	27 4d       	mov	@r13,	r7	;
    7d66:	19 4d 02 00 	mov	2(r13),	r9	;
    7d6a:	05 47       	mov	r7,	r5	;
    7d6c:	55 07       	rrum	#2,	r5	;
    7d6e:	75 f0 3f 00 	and.b	#63,	r5	;#0x003f
    7d72:	37 f0 ff 00 	and	#255,	r7	;#0x00ff
    7d76:	8a 00 b2 c3 	mova	#50098,	r10	;0x0c3b2
    7d7a:	86 00 da c0 	mova	#49370,	r6	;0x0c0da
    7d7e:	40 18 27 b3 	bitx.w	#2,	r7	;r3 As==10
    7d82:	07 24       	jz	$+16     	;abs 0x7d92
    7d84:	b0 13 a8 76 	calla	#30376		;0x076a8
    7d88:	c4 0c       	mova	r12,	r4	;
    7d8a:	9c 00 00 00 	cmpa	#0,	r12	;
    7d8e:	05 20       	jnz	$+12     	;abs 0x7d9a
    7d90:	cc 08       	mova	r8,	r12	;

00007d92 <.L211>:
    7d92:	4a 13       	calla	r10		;
    7d94:	46 13       	calla	r6		;
    7d96:	80 00 de 7d 	mova	#32222,	r0	;0x07dde

00007d9a <.L212>:
    7d9a:	cc 45 00 00 	mov.b	r5,	0(r12)	;
    7d9e:	2c 01 44 08 	mova	&67652,	r12	;0x10844
    7da2:	d4 4c 51 00 	mov.b	81(r12),2(r4)	;0x00051
    7da6:	02 00 
    7da8:	d4 4c 50 00 	mov.b	80(r12),3(r4)	;0x00050
    7dac:	03 00 
    7dae:	5d 48 04 00 	mov.b	4(r8),	r13	;
    7db2:	8c 01 5e 1c 	mova	#72798,	r12	;0x11c5e
    7db6:	b0 13 5c 6f 	calla	#28508		;0x06f5c
    7dba:	c4 4c 04 00 	mov.b	r12,	4(r4)	;
    7dbe:	cc 08       	mova	r8,	r12	;
    7dc0:	4a 13       	calla	r10		;
    7dc2:	46 13       	calla	r6		;
    7dc4:	40 18 17 b3 	bitx.w	#1,	r7	;r3 As==01
    7dc8:	0c 24       	jz	$+26     	;abs 0x7de2
    7dca:	e4 42 01 00 	mov.b	#4,	1(r4)	;r2 As==10
    7dce:	7d 42       	mov.b	#8,	r13	;r2 As==11
    7dd0:	cc 04       	mova	r4,	r12	;
    7dd2:	b0 13 36 a8 	calla	#43062		;0x0a836

00007dd6 <.L215>:
    7dd6:	0d 49       	mov	r9,	r13	;
    7dd8:	cc 04       	mova	r4,	r12	;
    7dda:	b0 13 3c 7d 	calla	#32060		;0x07d3c

00007dde <.L210>:
    7dde:	64 16       	popm.a	#7,	r10	;20-bit words
    7de0:	10 01       	reta			;

00007de2 <.L214>:
    7de2:	e4 43 01 00 	mov.b	#2,	1(r4)	;r3 As==10
    7de6:	80 00 d6 7d 	mova	#32214,	r0	;0x07dd6

00007dea <gen_success>:
    7dea:	2a 14       	pushm.a	#3,	r10	;20-bit words
    7dec:	b1 00 04 00 	suba	#4,	r1	;
    7df0:	28 4c       	mov	@r12,	r8	;
    7df2:	19 4c 02 00 	mov	2(r12),	r9	;
    7df6:	b0 13 a8 76 	calla	#30376		;0x076a8
    7dfa:	ca 0c       	mova	r12,	r10	;
    7dfc:	9c 00 00 00 	cmpa	#0,	r12	;
    7e00:	0b 24       	jz	$+24     	;abs 0x7e18
    7e02:	81 48 00 00 	mov	r8,	0(r1)	;
    7e06:	81 49 02 00 	mov	r9,	2(r1)	;
    7e0a:	cd 01       	mova	r1,	r13	;
    7e0c:	b0 13 dc 78 	calla	#30940		;0x078dc
    7e10:	0d 49       	mov	r9,	r13	;
    7e12:	cc 0a       	mova	r10,	r12	;
    7e14:	b0 13 3c 7d 	calla	#32060		;0x07d3c

00007e18 <.L216>:
    7e18:	a1 00 04 00 	adda	#4,	r1	;
    7e1c:	28 16       	popm.a	#3,	r10	;20-bit words
    7e1e:	10 01       	reta			;

00007e20 <get_telem>:
    7e20:	6a 14       	pushm.a	#7,	r10	;20-bit words
    7e22:	b1 00 1a 00 	suba	#26,	r1	;0x0001a
    7e26:	c6 0c       	mova	r12,	r6	;
    7e28:	25 4d       	mov	@r13,	r5	;
    7e2a:	91 4d 02 00 	mov	2(r13),	8(r1)	;
    7e2e:	08 00 
    7e30:	0d 45       	mov	r5,	r13	;
    7e32:	5d 0f       	rrum	#4,	r13	;
    7e34:	5d 0f       	rrum	#4,	r13	;
    7e36:	4c 45       	mov.b	r5,	r12	;
    7e38:	4e 4c       	mov.b	r12,	r14	;
    7e3a:	6e f3       	and.b	#2,	r14	;r3 As==10
    7e3c:	4f 4e       	mov.b	r14,	r15	;
    7e3e:	81 4f 06 00 	mov	r15,	6(r1)	;
    7e42:	0f 93       	cmp	#0,	r15	;r3 As==00
    7e44:	41 24       	jz	$+132    	;abs 0x7ec8
    7e46:	6f 42       	mov.b	#4,	r15	;r2 As==10

00007e48 <.L222>:
    7e48:	40 18 1c b3 	bitx.w	#1,	r12	;r3 As==01
    7e4c:	40 24       	jz	$+130    	;abs 0x7ece
    7e4e:	6c 43       	mov.b	#2,	r12	;r3 As==10

00007e50 <.L223>:
    7e50:	4d 8e       	sub.b	r14,	r13	;
    7e52:	4d 8c       	sub.b	r12,	r13	;
    7e54:	4c 4d       	mov.b	r13,	r12	;
    7e56:	7c c2       	bic.b	#8,	r12	;r2 As==11
    7e58:	6c 92       	cmp.b	#4,	r12	;r2 As==10
    7e5a:	6d 20       	jnz	$+220    	;abs 0x7f36
    7e5c:	40 18 0c 4f 	movx.w	r15,	r12	;
    7e60:	ce 06       	mova	r6,	r14	;
    7e62:	ee 0c       	adda	r12,	r14	;
    7e64:	d1 4e 02 00 	mov.b	2(r14),	22(r1)	; 0x0016
    7e68:	16 00 
    7e6a:	d1 4e 03 00 	mov.b	3(r14),	23(r1)	; 0x0017
    7e6e:	17 00 
    7e70:	6d 92       	cmp.b	#4,	r13	;r2 As==10
    7e72:	30 20       	jnz	$+98     	;abs 0x7ed4

00007e74 <.L238>:
    7e74:	54 43       	mov.b	#1,	r4	;r3 As==01

00007e76 <.L226>:
    7e76:	cc 06       	mova	r6,	r12	;
    7e78:	b0 13 b2 c3 	calla	#50098		;0x0c3b2
    7e7c:	b0 13 da c0 	calla	#49370		;0x0c0da
    7e80:	b0 13 e8 76 	calla	#30440		;0x076e8
    7e84:	81 4a 0e 00 	mov	r10,	14(r1)	; 0x000e
    7e88:	81 49 10 00 	mov	r9,	16(r1)	; 0x0010
    7e8c:	81 48 12 00 	mov	r8,	18(r1)	; 0x0012
    7e90:	81 47 14 00 	mov	r7,	20(r1)	; 0x0014
    7e94:	c1 44 18 00 	mov.b	r4,	24(r1)	; 0x0018
    7e98:	cc 01       	mova	r1,	r12	;
    7e9a:	ac 00 0e 00 	adda	#14,	r12	;0x0000e
    7e9e:	b0 13 b6 a3 	calla	#41910		;0x0a3b6
    7ea2:	b0 13 f0 76 	calla	#30448		;0x076f0
    7ea6:	81 93 06 00 	cmp	#0,	6(r1)	;r3 As==00
    7eaa:	0a 24       	jz	$+22     	;abs 0x7ec0
    7eac:	81 45 0a 00 	mov	r5,	10(r1)	; 0x000a
    7eb0:	91 41 08 00 	mov	8(r1),	12(r1)	; 0x000c
    7eb4:	0c 00 
    7eb6:	cc 01       	mova	r1,	r12	;
    7eb8:	ac 00 0a 00 	adda	#10,	r12	;0x0000a
    7ebc:	b0 13 ea 7d 	calla	#32234		;0x07dea

00007ec0 <.L221>:
    7ec0:	a1 00 1a 00 	adda	#26,	r1	;0x0001a
    7ec4:	64 16       	popm.a	#7,	r10	;20-bit words
    7ec6:	10 01       	reta			;

00007ec8 <.L231>:
    7ec8:	6f 43       	mov.b	#2,	r15	;r3 As==10
    7eca:	80 00 48 7e 	mova	#32328,	r0	;0x07e48

00007ece <.L232>:
    7ece:	4c 43       	clr.b	r12		;
    7ed0:	80 00 50 7e 	mova	#32336,	r0	;0x07e50

00007ed4 <.L225>:
    7ed4:	d1 43 19 00 	mov.b	#1,	25(r1)	;r3 As==01, 0x0019
    7ed8:	0e 4f       	mov	r15,	r14	;
    7eda:	3e 50 0b 00 	add	#11,	r14	;#0x000b
    7ede:	4e 0e       	rlam.a	#4,	r14	;
    7ee0:	4e 0d       	rram.a	#4,	r14	;
    7ee2:	ee 06       	adda	r6,	r14	;
    7ee4:	5e 4e ff ff 	mov.b	-1(r14),r14	;
    7ee8:	81 4e 04 00 	mov	r14,	4(r1)	;
    7eec:	ac 00 07 00 	adda	#7,	r12	;
    7ef0:	ce 06       	mova	r6,	r14	;
    7ef2:	ee 0c       	adda	r12,	r14	;
    7ef4:	44 43       	clr.b	r4		;

00007ef6 <.L227>:
    7ef6:	6c 4e       	mov.b	@r14,	r12	;
    7ef8:	0d 44       	mov	r4,	r13	;
    7efa:	71 0e 00 00 	mova	r14,	0(r1)	;
    7efe:	b0 13 9c c4 	calla	#50332		;0x0c49c
    7f02:	0d 4c       	mov	r12,	r13	;
    7f04:	0b 4c       	mov	r12,	r11	;
    7f06:	4e 18 0c 11 	rpt #15 { rrax.w	r12		;
    7f0a:	0a dd       	bis	r13,	r10	;
    7f0c:	09 dc       	bis	r12,	r9	;
    7f0e:	1c 41 04 00 	mov	4(r1),	r12	;
    7f12:	0d 44       	mov	r4,	r13	;
    7f14:	b0 13 9c c4 	calla	#50332		;0x0c49c
    7f18:	0d 4c       	mov	r12,	r13	;
    7f1a:	0b 4c       	mov	r12,	r11	;
    7f1c:	4e 18 0c 11 	rpt #15 { rrax.w	r12		;
    7f20:	08 dd       	bis	r13,	r8	;
    7f22:	07 dc       	bis	r12,	r7	;
    7f24:	0e 01       	mova	@r1,	r14	;
    7f26:	ae 0f ff ff 	adda	#1048575,r14	;0xfffff
    7f2a:	34 52       	add	#8,	r4	;r2 As==11
    7f2c:	34 90 20 00 	cmp	#32,	r4	;#0x0020
    7f30:	e2 23       	jnz	$-58     	;abs 0x7ef6
    7f32:	80 00 74 7e 	mova	#32372,	r0	;0x07e74

00007f36 <.L224>:
    7f36:	6c 42       	mov.b	#4,	r12	;r2 As==10
    7f38:	4c 9d       	cmp.b	r13,	r12	;
    7f3a:	30 2c       	jc	$+98     	;abs 0x7f9c
    7f3c:	d1 43 19 00 	mov.b	#1,	25(r1)	;r3 As==01, 0x0019
    7f40:	0c 4f       	mov	r15,	r12	;
    7f42:	3c 50 09 00 	add	#9,	r12	;
    7f46:	4c 0e       	rlam.a	#4,	r12	;
    7f48:	4c 0d       	rram.a	#4,	r12	;
    7f4a:	ec 06       	adda	r6,	r12	;
    7f4c:	5c 4c ff ff 	mov.b	-1(r12),r12	;
    7f50:	81 4c 04 00 	mov	r12,	4(r1)	;
    7f54:	40 18 0e 4f 	movx.w	r15,	r14	;
    7f58:	ae 00 05 00 	adda	#5,	r14	;
    7f5c:	ee 06       	adda	r6,	r14	;
    7f5e:	44 43       	clr.b	r4		;

00007f60 <.L228>:
    7f60:	6c 4e       	mov.b	@r14,	r12	;
    7f62:	0d 44       	mov	r4,	r13	;
    7f64:	71 0e 00 00 	mova	r14,	0(r1)	;
    7f68:	b0 13 9c c4 	calla	#50332		;0x0c49c
    7f6c:	0d 4c       	mov	r12,	r13	;
    7f6e:	0b 4c       	mov	r12,	r11	;
    7f70:	4e 18 0c 11 	rpt #15 { rrax.w	r12		;
    7f74:	0a dd       	bis	r13,	r10	;
    7f76:	09 dc       	bis	r12,	r9	;
    7f78:	1c 41 04 00 	mov	4(r1),	r12	;
    7f7c:	0d 44       	mov	r4,	r13	;
    7f7e:	b0 13 9c c4 	calla	#50332		;0x0c49c
    7f82:	0d 4c       	mov	r12,	r13	;
    7f84:	0b 4c       	mov	r12,	r11	;
    7f86:	4e 18 0c 11 	rpt #15 { rrax.w	r12		;
    7f8a:	08 dd       	bis	r13,	r8	;
    7f8c:	07 dc       	bis	r12,	r7	;
    7f8e:	0e 01       	mova	@r1,	r14	;
    7f90:	ae 0f ff ff 	adda	#1048575,r14	;0xfffff
    7f94:	34 52       	add	#8,	r4	;r2 As==11
    7f96:	34 90 20 00 	cmp	#32,	r4	;#0x0020
    7f9a:	e2 23       	jnz	$-58     	;abs 0x7f60

00007f9c <.L239>:
    7f9c:	44 43       	clr.b	r4		;
    7f9e:	80 00 76 7e 	mova	#32374,	r0	;0x07e76

00007fa2 <install_fw>:
    7fa2:	4a 14       	pushm.a	#5,	r10	;20-bit words
    7fa4:	04 14       	pushm.a	#1,	r4	;20-bit words
    7fa6:	b1 00 04 00 	suba	#4,	r1	;
    7faa:	c6 0c       	mova	r12,	r6	;
    7fac:	27 4d       	mov	@r13,	r7	;
    7fae:	1a 4d 02 00 	mov	2(r13),	r10	;
    7fb2:	09 47       	mov	r7,	r9	;
    7fb4:	84 00 b2 c3 	mova	#50098,	r4	;0x0c3b2
    7fb8:	44 13       	calla	r4		;
    7fba:	88 00 da c0 	mova	#49370,	r8	;0x0c0da
    7fbe:	48 13       	calla	r8		;
    7fc0:	40 18 27 b3 	bitx.w	#2,	r7	;r3 As==10
    7fc4:	13 24       	jz	$+40     	;abs 0x7fec
    7fc6:	81 47 00 00 	mov	r7,	0(r1)	;
    7fca:	81 4a 02 00 	mov	r10,	2(r1)	;
    7fce:	cc 01       	mova	r1,	r12	;
    7fd0:	b0 13 ea 7d 	calla	#32234		;0x07dea

00007fd4 <.L242>:
    7fd4:	40 18 d2 43 	movx.b	#1,	&0x019fc;r3 As==01
    7fd8:	fc 19 
    7fda:	c0 1f b2 40 	movx.w	#-23224,&0x00120;0xfa548
    7fde:	48 a5 20 01 
    7fe2:	a1 00 04 00 	adda	#4,	r1	;
    7fe6:	04 16       	popm.a	#1,	r4	;20-bit words
    7fe8:	46 16       	popm.a	#5,	r10	;20-bit words
    7fea:	10 01       	reta			;

00007fec <.L241>:
    7fec:	cc 06       	mova	r6,	r12	;
    7fee:	44 13       	calla	r4		;
    7ff0:	48 13       	calla	r8		;
    7ff2:	80 00 d4 7f 	mova	#32724,	r0	;0x07fd4

00007ff6 <cancel_fw>:
    7ff6:	6a 14       	pushm.a	#7,	r10	;20-bit words
    7ff8:	b1 00 08 00 	suba	#8,	r1	;
    7ffc:	2a 4d       	mov	@r13,	r10	;
    7ffe:	17 4d 02 00 	mov	2(r13),	r7	;
    8002:	b0 13 b2 c3 	calla	#50098		;0x0c3b2
    8006:	b0 13 da c0 	calla	#49370		;0x0c0da
    800a:	38 40 00 04 	mov	#1024,	r8	;#0x0400
    800e:	59 43       	mov.b	#1,	r9	;r3 As==01
    8010:	84 00 e8 76 	mova	#30440,	r4	;0x076e8
    8014:	85 00 4a b3 	mova	#45898,	r5	;0x0b34a

00008018 <.L248>:
    8018:	44 13       	calla	r4		;
    801a:	4d 43       	clr.b	r13		;
    801c:	cc 01       	mova	r1,	r12	;
    801e:	ac 00 04 00 	adda	#4,	r12	;
    8022:	45 13       	calla	r5		;
    8024:	86 00 f0 76 	mova	#30448,	r6	;0x076f0
    8028:	46 13       	calla	r6		;
    802a:	3c 01 04 00 	mova	4(r1),	r12	;
    802e:	8c 48 00 00 	mov	r8,	0(r12)	;
    8032:	8c 49 02 00 	mov	r9,	2(r12)	;
    8036:	5d 4c 04 00 	mov.b	4(r12),	r13	;
    803a:	6d c3       	bic.b	#2,	r13	;r3 As==10
    803c:	5d d3       	bis.b	#1,	r13	;r3 As==01
    803e:	cc 4d 04 00 	mov.b	r13,	4(r12)	;
    8042:	1d 4c 04 00 	mov	4(r12),	r13	;
    8046:	7d f0 03 00 	and.b	#3,	r13	;
    804a:	3d d0 00 02 	bis	#512,	r13	;#0x0200
    804e:	8c 4d 04 00 	mov	r13,	4(r12)	;
    8052:	fc f0 f8 ff 	and.b	#65528,	6(r12)	;#0xfff8
    8056:	06 00 
    8058:	00 18 fc 40 	movx.a	#61350,	8(r12)	;0x0efa6
    805c:	a6 ef 08 00 
    8060:	00 18 fc 40 	movx.a	#31008,	12(r12)	;0x07920, 0x0000c
    8064:	20 79 0c 00 
    8068:	44 13       	calla	r4		;
    806a:	3c 01 04 00 	mova	4(r1),	r12	;
    806e:	b0 13 26 b3 	calla	#45862		;0x0b326
    8072:	46 13       	calla	r6		;
    8074:	4d 43       	clr.b	r13		;
    8076:	8c 00 a8 ef 	mova	#61352,	r12	;0x0efa8
    807a:	b0 13 b6 48 	calla	#18614		;0x048b6
    807e:	38 50 80 00 	add	#128,	r8	;#0x0080
    8082:	09 63       	adc	r9		;
    8084:	08 93       	cmp	#0,	r8	;r3 As==00
    8086:	c8 23       	jnz	$-110    	;abs 0x8018
    8088:	29 93       	cmp	#2,	r9	;r3 As==10
    808a:	c6 23       	jnz	$-114    	;abs 0x8018
    808c:	40 18 2a b3 	bitx.w	#2,	r10	;r3 As==10
    8090:	07 24       	jz	$+16     	;abs 0x80a0
    8092:	81 4a 00 00 	mov	r10,	0(r1)	;
    8096:	81 47 02 00 	mov	r7,	2(r1)	;
    809a:	cc 01       	mova	r1,	r12	;
    809c:	b0 13 ea 7d 	calla	#32234		;0x07dea

000080a0 <.L243>:
    80a0:	a1 00 08 00 	adda	#8,	r1	;
    80a4:	64 16       	popm.a	#7,	r10	;20-bit words
    80a6:	10 01       	reta			;

000080a8 <reset_event>:
    80a8:	3a 14       	pushm.a	#4,	r10	;20-bit words
    80aa:	b1 00 04 00 	suba	#4,	r1	;
    80ae:	c8 0c       	mova	r12,	r8	;
    80b0:	29 4d       	mov	@r13,	r9	;
    80b2:	1a 4d 02 00 	mov	2(r13),	r10	;
    80b6:	07 49       	mov	r9,	r7	;
    80b8:	b0 13 a6 a3 	calla	#41894		;0x0a3a6
    80bc:	40 18 29 b3 	bitx.w	#2,	r9	;r3 As==10
    80c0:	07 24       	jz	$+16     	;abs 0x80d0
    80c2:	81 49 00 00 	mov	r9,	0(r1)	;
    80c6:	81 4a 02 00 	mov	r10,	2(r1)	;
    80ca:	cc 01       	mova	r1,	r12	;
    80cc:	b0 13 ea 7d 	calla	#32234		;0x07dea

000080d0 <.L251>:
    80d0:	cc 08       	mova	r8,	r12	;
    80d2:	b0 13 b2 c3 	calla	#50098		;0x0c3b2
    80d6:	b0 13 da c0 	calla	#49370		;0x0c0da
    80da:	a1 00 04 00 	adda	#4,	r1	;
    80de:	37 16       	popm.a	#4,	r10	;20-bit words
    80e0:	10 01       	reta			;

000080e2 <reset_chan>:
    80e2:	3a 14       	pushm.a	#4,	r10	;20-bit words
    80e4:	b1 00 04 00 	suba	#4,	r1	;
    80e8:	c8 0c       	mova	r12,	r8	;
    80ea:	29 4d       	mov	@r13,	r9	;
    80ec:	1a 4d 02 00 	mov	2(r13),	r10	;
    80f0:	07 49       	mov	r9,	r7	;
    80f2:	b0 13 b4 a3 	calla	#41908		;0x0a3b4
    80f6:	40 18 29 b3 	bitx.w	#2,	r9	;r3 As==10
    80fa:	07 24       	jz	$+16     	;abs 0x810a
    80fc:	81 49 00 00 	mov	r9,	0(r1)	;
    8100:	81 4a 02 00 	mov	r10,	2(r1)	;
    8104:	cc 01       	mova	r1,	r12	;
    8106:	b0 13 ea 7d 	calla	#32234		;0x07dea

0000810a <.L256>:
    810a:	cc 08       	mova	r8,	r12	;
    810c:	b0 13 b2 c3 	calla	#50098		;0x0c3b2
    8110:	b0 13 da c0 	calla	#49370		;0x0c0da
    8114:	a1 00 04 00 	adda	#4,	r1	;
    8118:	37 16       	popm.a	#4,	r10	;20-bit words
    811a:	10 01       	reta			;

0000811c <gen_failure>:
    811c:	2a 14       	pushm.a	#3,	r10	;20-bit words
    811e:	b1 00 04 00 	suba	#4,	r1	;
    8122:	28 4c       	mov	@r12,	r8	;
    8124:	19 4c 02 00 	mov	2(r12),	r9	;
    8128:	b0 13 a8 76 	calla	#30376		;0x076a8
    812c:	ca 0c       	mova	r12,	r10	;
    812e:	9c 00 00 00 	cmpa	#0,	r12	;
    8132:	0b 24       	jz	$+24     	;abs 0x814a
    8134:	81 48 00 00 	mov	r8,	0(r1)	;
    8138:	81 49 02 00 	mov	r9,	2(r1)	;
    813c:	cd 01       	mova	r1,	r13	;
    813e:	b0 13 12 77 	calla	#30482		;0x07712
    8142:	0d 49       	mov	r9,	r13	;
    8144:	cc 0a       	mova	r10,	r12	;
    8146:	b0 13 3c 7d 	calla	#32060		;0x07d3c

0000814a <.L260>:
    814a:	a1 00 04 00 	adda	#4,	r1	;
    814e:	28 16       	popm.a	#3,	r10	;20-bit words
    8150:	10 01       	reta			;

00008152 <upload_fw>:
    8152:	6a 14       	pushm.a	#7,	r10	;20-bit words
    8154:	b1 00 14 00 	suba	#20,	r1	;0x00014
    8158:	c6 0c       	mova	r12,	r6	;
    815a:	27 4d       	mov	@r13,	r7	;
    815c:	91 4d 02 00 	mov	2(r13),	8(r1)	;
    8160:	08 00 
    8162:	0a 47       	mov	r7,	r10	;
    8164:	5a 0f       	rrum	#4,	r10	;
    8166:	5a 0f       	rrum	#4,	r10	;
    8168:	81 4a 0a 00 	mov	r10,	10(r1)	; 0x000a
    816c:	4a 47       	mov.b	r7,	r10	;
    816e:	81 4a 00 00 	mov	r10,	0(r1)	;
    8172:	0c 4a       	mov	r10,	r12	;
    8174:	6c f3       	and.b	#2,	r12	;r3 As==10
    8176:	45 4c       	mov.b	r12,	r5	;
    8178:	05 93       	cmp	#0,	r5	;r3 As==00
    817a:	3b 24       	jz	$+120    	;abs 0x81f2
    817c:	6d 42       	mov.b	#4,	r13	;r2 As==10

0000817e <.L266>:
    817e:	00 18 c1 4d 	movx.a	r13,	4(r1)	;
    8182:	04 00 
    8184:	3a 01 04 00 	mova	4(r1),	r10	;
    8188:	ea 06       	adda	r6,	r10	;
    818a:	78 40 18 00 	mov.b	#24,	r8	;#0x0018
    818e:	44 43       	clr.b	r4		;
    8190:	09 44       	mov	r4,	r9	;

00008192 <.L267>:
    8192:	6c 4a       	mov.b	@r10,	r12	;
    8194:	0d 43       	clr	r13		;
    8196:	0e 48       	mov	r8,	r14	;
    8198:	0f 43       	clr	r15		;
    819a:	b0 13 e6 c4 	calla	#50406		;0x0c4e6
    819e:	0c d4       	bis	r4,	r12	;
    81a0:	0d d9       	bis	r9,	r13	;
    81a2:	04 4c       	mov	r12,	r4	;
    81a4:	09 4d       	mov	r13,	r9	;
    81a6:	aa 00 01 00 	adda	#1,	r10	;
    81aa:	38 50 f8 ff 	add	#65528,	r8	;#0xfff8
    81ae:	38 90 f8 ff 	cmp	#65528,	r8	;#0xfff8
    81b2:	ef 23       	jnz	$-32     	;abs 0x8192
    81b4:	3c 50 00 bc 	add	#48128,	r12	;#0xbc00
    81b8:	0a 4d       	mov	r13,	r10	;
    81ba:	3a 63       	addc	#-1,	r10	;r3 As==11
    81bc:	0a 93       	cmp	#0,	r10	;r3 As==00
    81be:	04 20       	jnz	$+10     	;abs 0x81c8
    81c0:	3d 40 ff fb 	mov	#64511,	r13	;#0xfbff
    81c4:	0d 9c       	cmp	r12,	r13	;
    81c6:	1e 2c       	jc	$+62     	;abs 0x8204

000081c8 <.L280>:
    81c8:	05 93       	cmp	#0,	r5	;r3 As==00
    81ca:	16 24       	jz	$+46     	;abs 0x81f8
    81cc:	81 47 0c 00 	mov	r7,	12(r1)	; 0x000c
    81d0:	91 41 08 00 	mov	8(r1),	14(r1)	; 0x000e
    81d4:	0e 00 
    81d6:	cc 01       	mova	r1,	r12	;
    81d8:	ac 00 0c 00 	adda	#12,	r12	;0x0000c
    81dc:	b0 13 1c 81 	calla	#33052		;0x0811c

000081e0 <.L283>:
    81e0:	cc 06       	mova	r6,	r12	;
    81e2:	b0 13 b2 c3 	calla	#50098		;0x0c3b2
    81e6:	b0 13 da c0 	calla	#49370		;0x0c0da

000081ea <.L265>:
    81ea:	a1 00 14 00 	adda	#20,	r1	;0x00014
    81ee:	64 16       	popm.a	#7,	r10	;20-bit words
    81f0:	10 01       	reta			;

000081f2 <.L277>:
    81f2:	6d 43       	mov.b	#2,	r13	;r3 As==10
    81f4:	80 00 7e 81 	mova	#33150,	r0	;0x0817e

000081f8 <.L270>:
    81f8:	7c 40 8c ff 	mov.b	#65420,	r12	;#0xff8c
    81fc:	b0 13 96 a3 	calla	#41878		;0x0a396
    8200:	80 00 e0 81 	mova	#33248,	r0	;0x081e0

00008204 <.L282>:
    8204:	b0 13 a8 76 	calla	#30376		;0x076a8
    8208:	c8 0c       	mova	r12,	r8	;
    820a:	9c 00 00 00 	cmpa	#0,	r12	;
    820e:	e8 27       	jz	$-46     	;abs 0x81e0
    8210:	b0 13 e8 76 	calla	#30440		;0x076e8
    8214:	0d 4a       	mov	r10,	r13	;
    8216:	cc 01       	mova	r1,	r12	;
    8218:	ac 00 10 00 	adda	#16,	r12	;0x00010
    821c:	b0 13 4a b3 	calla	#45898		;0x0b34a
    8220:	b0 13 f0 76 	calla	#30448		;0x076f0
    8224:	3e 01 10 00 	mova	16(r1),	r14	;0x00010
    8228:	1c 41 0a 00 	mov	10(r1),	r12	;0x0000a
    822c:	0c 85       	sub	r5,	r12	;
    822e:	40 18 91 b3 	bitx.w	#1,	0(r1)	;r3 As==01
    8232:	00 00 
    8234:	01 24       	jz	$+4      	;abs 0x8238
    8236:	6a 43       	mov.b	#2,	r10	;r3 As==10

00008238 <.L274>:
    8238:	0c 8a       	sub	r10,	r12	;
    823a:	3c 50 fc ff 	add	#65532,	r12	;#0xfffc
    823e:	0a 4c       	mov	r12,	r10	;
    8240:	4a 0e       	rlam.a	#4,	r10	;
    8242:	4a 0d       	rram.a	#4,	r10	;
    8244:	80 18 7a f0 	andx.a	#131071,r10	;0x1ffff
    8248:	ff ff 
    824a:	71 0a 00 00 	mova	r10,	0(r1)	;
    824e:	0c 4a       	mov	r10,	r12	;
    8250:	41 18 0c 5c 	rpt #2 { rlax.w	r12		;
    8254:	1d 4e 04 00 	mov	4(r14),	r13	;
    8258:	7d f0 03 00 	and.b	#3,	r13	;
    825c:	0d dc       	bis	r12,	r13	;
    825e:	8e 4d 04 00 	mov	r13,	4(r14)	;
    8262:	0f 4a       	mov	r10,	r15	;
    8264:	5f 03       	rrum	#1,	r15	;
    8266:	4c 18 0f 11 	rpt #13 { rrax.w	r15		;
    826a:	5d 4e 06 00 	mov.b	6(r14),	r13	;
    826e:	7d f0 f8 ff 	and.b	#65528,	r13	;#0xfff8
    8272:	0a 01       	mova	@r1,	r10	;
    8274:	0a 14       	pushm.a	#1,	r10	;20-bit words
    8276:	0c 17       	popm	#1,	r12	;16-bit words
    8278:	0c 17       	popm	#1,	r12	;16-bit words
    827a:	5c f3       	and.b	#1,	r12	;r3 As==01
    827c:	41 18 0c 5c 	rpt #2 { rlax.w	r12		;
    8280:	4d df       	bis.b	r15,	r13	;
    8282:	4d dc       	bis.b	r12,	r13	;
    8284:	ce 4d 06 00 	mov.b	r13,	6(r14)	;
    8288:	3d 01 04 00 	mova	4(r1),	r13	;
    828c:	ad 00 04 00 	adda	#4,	r13	;
    8290:	ce 0a       	mova	r10,	r14	;
    8292:	ed 06       	adda	r6,	r13	;
    8294:	cc 08       	mova	r8,	r12	;
    8296:	b0 13 5e c6 	calla	#50782		;0x0c65e
    829a:	cc 06       	mova	r6,	r12	;
    829c:	b0 13 b2 c3 	calla	#50098		;0x0c3b2
    82a0:	b0 13 da c0 	calla	#49370		;0x0c0da
    82a4:	40 18 82 47 	movx.w	r7,	&0x0efb4;
    82a8:	b4 ef 
    82aa:	40 18 92 41 	movx.w	8(r1),	&0x0efb6;
    82ae:	08 00 b6 ef 
    82b2:	3c 01 10 00 	mova	16(r1),	r12	;0x00010
    82b6:	34 50 00 c0 	add	#49152,	r4	;#0xc000
    82ba:	8c 44 00 00 	mov	r4,	0(r12)	;
    82be:	09 63       	adc	r9		;
    82c0:	8c 49 02 00 	mov	r9,	2(r12)	;
    82c4:	ec c3 04 00 	bic.b	#2,	4(r12)	;r3 As==10
    82c8:	7c 08 08 00 	mova	r8,	8(r12)	;
    82cc:	05 93       	cmp	#0,	r5	;r3 As==00
    82ce:	0e 24       	jz	$+30     	;abs 0x82ec
    82d0:	8e 00 1c 7d 	mova	#32028,	r14	;0x07d1c

000082d4 <.L275>:
    82d4:	7c 0e 0c 00 	mova	r14,	12(r12)	; 0x0000c
    82d8:	b0 13 e8 76 	calla	#30440		;0x076e8
    82dc:	3c 01 10 00 	mova	16(r1),	r12	;0x00010
    82e0:	b0 13 26 b3 	calla	#45862		;0x0b326
    82e4:	b0 13 f0 76 	calla	#30448		;0x076f0
    82e8:	80 00 ea 81 	mova	#33258,	r0	;0x081ea

000082ec <.L279>:
    82ec:	8e 00 22 78 	mova	#30754,	r14	;0x07822
    82f0:	80 00 d4 82 	mova	#33492,	r0	;0x082d4

000082f4 <set_log>:
    82f4:	3a 14       	pushm.a	#4,	r10	;20-bit words
    82f6:	b1 00 04 00 	suba	#4,	r1	;
    82fa:	2a 4d       	mov	@r13,	r10	;
    82fc:	18 4d 02 00 	mov	2(r13),	r8	;
    8300:	49 4a       	mov.b	r10,	r9	;
    8302:	69 f3       	and.b	#2,	r9	;r3 As==10
    8304:	39 f0 ff 00 	and	#255,	r9	;#0x00ff
    8308:	09 93       	cmp	#0,	r9	;r3 As==00
    830a:	1a 20       	jnz	$+54     	;abs 0x8340
    830c:	6e 43       	mov.b	#2,	r14	;r3 As==10

0000830e <.L285>:
    830e:	40 18 0e 4e 	movx.w	r14,	r14	;
    8312:	ee 0c       	adda	r12,	r14	;
    8314:	67 4e       	mov.b	@r14,	r7	;
    8316:	b0 13 b2 c3 	calla	#50098		;0x0c3b2
    831a:	b0 13 da c0 	calla	#49370		;0x0c0da
    831e:	7c 40 1f 00 	mov.b	#31,	r12	;#0x001f
    8322:	4c 97       	cmp.b	r7,	r12	;
    8324:	16 2c       	jc	$+46     	;abs 0x8352
    8326:	09 93       	cmp	#0,	r9	;r3 As==00
    8328:	0e 24       	jz	$+30     	;abs 0x8346
    832a:	81 4a 00 00 	mov	r10,	0(r1)	;
    832e:	81 48 02 00 	mov	r8,	2(r1)	;
    8332:	cc 01       	mova	r1,	r12	;
    8334:	b0 13 1c 81 	calla	#33052		;0x0811c

00008338 <.L284>:
    8338:	a1 00 04 00 	adda	#4,	r1	;
    833c:	37 16       	popm.a	#4,	r10	;20-bit words
    833e:	10 01       	reta			;

00008340 <.L289>:
    8340:	6e 42       	mov.b	#4,	r14	;r2 As==10
    8342:	80 00 0e 83 	mova	#33550,	r0	;0x0830e

00008346 <.L287>:
    8346:	7c 40 8c ff 	mov.b	#65420,	r12	;#0xff8c
    834a:	b0 13 96 a3 	calla	#41878		;0x0a396
    834e:	80 00 38 83 	mova	#33592,	r0	;0x08338

00008352 <.L286>:
    8352:	2c 01 40 08 	mova	&67648,	r12	;0x10840
    8356:	cc 47 4d 00 	mov.b	r7,	77(r12)	; 0x004d
    835a:	b0 13 e8 76 	calla	#30440		;0x076e8
    835e:	4c 47       	mov.b	r7,	r12	;
    8360:	b0 13 9a a3 	calla	#41882		;0x0a39a
    8364:	b0 13 f0 76 	calla	#30448		;0x076f0
    8368:	09 93       	cmp	#0,	r9	;r3 As==00
    836a:	e6 27       	jz	$-50     	;abs 0x8338
    836c:	81 4a 00 00 	mov	r10,	0(r1)	;
    8370:	81 48 02 00 	mov	r8,	2(r1)	;
    8374:	cc 01       	mova	r1,	r12	;
    8376:	b0 13 ea 7d 	calla	#32234		;0x07dea
    837a:	80 00 38 83 	mova	#33592,	r0	;0x08338

0000837e <set_err>:
    837e:	3a 14       	pushm.a	#4,	r10	;20-bit words
    8380:	b1 00 04 00 	suba	#4,	r1	;
    8384:	2a 4d       	mov	@r13,	r10	;
    8386:	18 4d 02 00 	mov	2(r13),	r8	;
    838a:	49 4a       	mov.b	r10,	r9	;
    838c:	69 f3       	and.b	#2,	r9	;r3 As==10
    838e:	39 f0 ff 00 	and	#255,	r9	;#0x00ff
    8392:	09 93       	cmp	#0,	r9	;r3 As==00
    8394:	1a 20       	jnz	$+54     	;abs 0x83ca
    8396:	6e 43       	mov.b	#2,	r14	;r3 As==10

00008398 <.L294>:
    8398:	40 18 0e 4e 	movx.w	r14,	r14	;
    839c:	ee 0c       	adda	r12,	r14	;
    839e:	67 4e       	mov.b	@r14,	r7	;
    83a0:	b0 13 b2 c3 	calla	#50098		;0x0c3b2
    83a4:	b0 13 da c0 	calla	#49370		;0x0c0da
    83a8:	7c 40 1f 00 	mov.b	#31,	r12	;#0x001f
    83ac:	4c 97       	cmp.b	r7,	r12	;
    83ae:	16 2c       	jc	$+46     	;abs 0x83dc
    83b0:	09 93       	cmp	#0,	r9	;r3 As==00
    83b2:	0e 24       	jz	$+30     	;abs 0x83d0
    83b4:	81 4a 00 00 	mov	r10,	0(r1)	;
    83b8:	81 48 02 00 	mov	r8,	2(r1)	;
    83bc:	cc 01       	mova	r1,	r12	;
    83be:	b0 13 1c 81 	calla	#33052		;0x0811c

000083c2 <.L293>:
    83c2:	a1 00 04 00 	adda	#4,	r1	;
    83c6:	37 16       	popm.a	#4,	r10	;20-bit words
    83c8:	10 01       	reta			;

000083ca <.L298>:
    83ca:	6e 42       	mov.b	#4,	r14	;r2 As==10
    83cc:	80 00 98 83 	mova	#33688,	r0	;0x08398

000083d0 <.L296>:
    83d0:	7c 40 8c ff 	mov.b	#65420,	r12	;#0xff8c
    83d4:	b0 13 96 a3 	calla	#41878		;0x0a396
    83d8:	80 00 c2 83 	mova	#33730,	r0	;0x083c2

000083dc <.L295>:
    83dc:	2c 01 40 08 	mova	&67648,	r12	;0x10840
    83e0:	cc 47 4c 00 	mov.b	r7,	76(r12)	; 0x004c
    83e4:	b0 13 e8 76 	calla	#30440		;0x076e8
    83e8:	4c 47       	mov.b	r7,	r12	;
    83ea:	b0 13 98 a3 	calla	#41880		;0x0a398
    83ee:	b0 13 f0 76 	calla	#30448		;0x076f0
    83f2:	09 93       	cmp	#0,	r9	;r3 As==00
    83f4:	e6 27       	jz	$-50     	;abs 0x83c2
    83f6:	81 4a 00 00 	mov	r10,	0(r1)	;
    83fa:	81 48 02 00 	mov	r8,	2(r1)	;
    83fe:	cc 01       	mova	r1,	r12	;
    8400:	b0 13 ea 7d 	calla	#32234		;0x07dea
    8404:	80 00 c2 83 	mova	#33730,	r0	;0x083c2

00008408 <unlog_event>:
    8408:	6a 14       	pushm.a	#7,	r10	;20-bit words
    840a:	b1 00 04 00 	suba	#4,	r1	;
    840e:	c8 0c       	mova	r12,	r8	;
    8410:	29 4d       	mov	@r13,	r9	;
    8412:	16 4d 02 00 	mov	2(r13),	r6	;
    8416:	05 49       	mov	r9,	r5	;
    8418:	55 0f       	rrum	#4,	r5	;
    841a:	55 0f       	rrum	#4,	r5	;
    841c:	4c 49       	mov.b	r9,	r12	;
    841e:	40 18 1c b3 	bitx.w	#1,	r12	;r3 As==01
    8422:	1f 24       	jz	$+64     	;abs 0x8462
    8424:	6e 43       	mov.b	#2,	r14	;r3 As==10

00008426 <.L303>:
    8426:	6c f3       	and.b	#2,	r12	;r3 As==10
    8428:	47 4c       	mov.b	r12,	r7	;
    842a:	45 8c       	sub.b	r12,	r5	;
    842c:	45 8e       	sub.b	r14,	r5	;
    842e:	35 f0 ff 00 	and	#255,	r5	;#0x00ff
    8432:	07 93       	cmp	#0,	r7	;r3 As==00
    8434:	19 24       	jz	$+52     	;abs 0x8468
    8436:	6a 42       	mov.b	#4,	r10	;r2 As==10

00008438 <.L304>:
    8438:	40 18 04 4a 	movx.w	r10,	r4	;
    843c:	e4 08       	adda	r8,	r4	;
    843e:	cc 04       	mova	r4,	r12	;
    8440:	0e 4a       	mov	r10,	r14	;
    8442:	05 5a       	add	r10,	r5	;

00008444 <.L305>:
    8444:	0e 95       	cmp	r5,	r14	;
    8446:	13 38       	jl	$+40     	;abs 0x846e

00008448 <.L311>:
    8448:	0a 95       	cmp	r5,	r10	;
    844a:	33 38       	jl	$+104    	;abs 0x84b2
    844c:	07 93       	cmp	#0,	r7	;r3 As==00
    844e:	1f 24       	jz	$+64     	;abs 0x848e
    8450:	81 49 00 00 	mov	r9,	0(r1)	;
    8454:	81 46 02 00 	mov	r6,	2(r1)	;
    8458:	cc 01       	mova	r1,	r12	;
    845a:	b0 13 ea 7d 	calla	#32234		;0x07dea
    845e:	80 00 8e 84 	mova	#33934,	r0	;0x0848e

00008462 <.L314>:
    8462:	4e 43       	clr.b	r14		;
    8464:	80 00 26 84 	mova	#33830,	r0	;0x08426

00008468 <.L315>:
    8468:	6a 43       	mov.b	#2,	r10	;r3 As==10
    846a:	80 00 38 84 	mova	#33848,	r0	;0x08438

0000846e <.L310>:
    846e:	ac 00 01 00 	adda	#1,	r12	;
    8472:	7d 40 bf ff 	mov.b	#65471,	r13	;#0xffbf
    8476:	5d 9c ff ff 	cmp.b	-1(r12),r13	;
    847a:	18 28       	jnc	$+50     	;abs 0x84ac
    847c:	07 93       	cmp	#0,	r7	;r3 As==00
    847e:	10 24       	jz	$+34     	;abs 0x84a0
    8480:	81 49 00 00 	mov	r9,	0(r1)	;
    8484:	81 46 02 00 	mov	r6,	2(r1)	;
    8488:	cc 01       	mova	r1,	r12	;
    848a:	b0 13 1c 81 	calla	#33052		;0x0811c

0000848e <.L313>:
    848e:	cc 08       	mova	r8,	r12	;
    8490:	b0 13 b2 c3 	calla	#50098		;0x0c3b2
    8494:	b0 13 da c0 	calla	#49370		;0x0c0da
    8498:	a1 00 04 00 	adda	#4,	r1	;
    849c:	64 16       	popm.a	#7,	r10	;20-bit words
    849e:	10 01       	reta			;

000084a0 <.L307>:
    84a0:	7c 40 8c ff 	mov.b	#65420,	r12	;#0xff8c
    84a4:	b0 13 96 a3 	calla	#41878		;0x0a396
    84a8:	80 00 8e 84 	mova	#33934,	r0	;0x0848e

000084ac <.L306>:
    84ac:	1e 53       	inc	r14		;
    84ae:	80 00 44 84 	mova	#33860,	r0	;0x08444

000084b2 <.L312>:
    84b2:	6c 44       	mov.b	@r4,	r12	;
    84b4:	b0 13 a4 a3 	calla	#41892		;0x0a3a4
    84b8:	1a 53       	inc	r10		;
    84ba:	a4 00 01 00 	adda	#1,	r4	;
    84be:	80 00 48 84 	mova	#33864,	r0	;0x08448

000084c2 <log_event>:
    84c2:	6a 14       	pushm.a	#7,	r10	;20-bit words
    84c4:	b1 00 08 00 	suba	#8,	r1	;
    84c8:	c8 0c       	mova	r12,	r8	;
    84ca:	29 4d       	mov	@r13,	r9	;
    84cc:	15 4d 02 00 	mov	2(r13),	r5	;
    84d0:	0d 49       	mov	r9,	r13	;
    84d2:	5d 0f       	rrum	#4,	r13	;
    84d4:	5d 0f       	rrum	#4,	r13	;
    84d6:	4c 49       	mov.b	r9,	r12	;
    84d8:	40 18 1c b3 	bitx.w	#1,	r12	;r3 As==01
    84dc:	23 24       	jz	$+72     	;abs 0x8524
    84de:	6e 43       	mov.b	#2,	r14	;r3 As==10

000084e0 <.L320>:
    84e0:	6c f3       	and.b	#2,	r12	;r3 As==10
    84e2:	47 4c       	mov.b	r12,	r7	;
    84e4:	4d 8c       	sub.b	r12,	r13	;
    84e6:	4d 8e       	sub.b	r14,	r13	;
    84e8:	3d f0 ff 00 	and	#255,	r13	;#0x00ff
    84ec:	07 93       	cmp	#0,	r7	;r3 As==00
    84ee:	1d 24       	jz	$+60     	;abs 0x852a
    84f0:	6a 42       	mov.b	#4,	r10	;r2 As==10

000084f2 <.L321>:
    84f2:	40 18 04 4a 	movx.w	r10,	r4	;
    84f6:	e4 08       	adda	r8,	r4	;
    84f8:	c6 04       	mova	r4,	r6	;
    84fa:	0e 4a       	mov	r10,	r14	;
    84fc:	0d 5a       	add	r10,	r13	;

000084fe <.L322>:
    84fe:	0e 9d       	cmp	r13,	r14	;
    8500:	17 38       	jl	$+48     	;abs 0x8530
    8502:	86 00 a2 a3 	mova	#41890,	r6	;0x0a3a2

00008506 <.L329>:
    8506:	0a 9d       	cmp	r13,	r10	;
    8508:	44 38       	jl	$+138    	;abs 0x8592
    850a:	07 93       	cmp	#0,	r7	;r3 As==00
    850c:	30 24       	jz	$+98     	;abs 0x856e
    850e:	81 49 04 00 	mov	r9,	4(r1)	;
    8512:	81 45 06 00 	mov	r5,	6(r1)	;
    8516:	cc 01       	mova	r1,	r12	;
    8518:	ac 00 04 00 	adda	#4,	r12	;
    851c:	b0 13 ea 7d 	calla	#32234		;0x07dea
    8520:	80 00 6e 85 	mova	#34158,	r0	;0x0856e

00008524 <.L332>:
    8524:	4e 43       	clr.b	r14		;
    8526:	80 00 e0 84 	mova	#34016,	r0	;0x084e0

0000852a <.L333>:
    852a:	6a 43       	mov.b	#2,	r10	;r3 As==10
    852c:	80 00 f2 84 	mova	#34034,	r0	;0x084f2

00008530 <.L328>:
    8530:	6c 46       	mov.b	@r6,	r12	;
    8532:	4f 4c       	mov.b	r12,	r15	;
    8534:	7f 50 40 00 	add.b	#64,	r15	;#0x0040
    8538:	7b 40 32 00 	mov.b	#50,	r11	;#0x0032
    853c:	4b 9f       	cmp.b	r15,	r11	;
    853e:	0c 28       	jnc	$+26     	;abs 0x8558
    8540:	7f 50 ed ff 	add.b	#65517,	r15	;#0xffed
    8544:	7b 40 0c 00 	mov.b	#12,	r11	;#0x000c
    8548:	4b 9f       	cmp.b	r15,	r11	;
    854a:	06 2c       	jc	$+14     	;abs 0x8558
    854c:	a6 00 01 00 	adda	#1,	r6	;
    8550:	7c 50 1d 00 	add.b	#29,	r12	;#0x001d
    8554:	4b 9c       	cmp.b	r12,	r11	;
    8556:	1a 28       	jnc	$+54     	;abs 0x858c

00008558 <.L323>:
    8558:	07 93       	cmp	#0,	r7	;r3 As==00
    855a:	12 24       	jz	$+38     	;abs 0x8580
    855c:	81 49 04 00 	mov	r9,	4(r1)	;
    8560:	81 45 06 00 	mov	r5,	6(r1)	;
    8564:	cc 01       	mova	r1,	r12	;
    8566:	ac 00 04 00 	adda	#4,	r12	;
    856a:	b0 13 1c 81 	calla	#33052		;0x0811c

0000856e <.L331>:
    856e:	cc 08       	mova	r8,	r12	;
    8570:	b0 13 b2 c3 	calla	#50098		;0x0c3b2
    8574:	b0 13 da c0 	calla	#49370		;0x0c0da
    8578:	a1 00 08 00 	adda	#8,	r1	;
    857c:	64 16       	popm.a	#7,	r10	;20-bit words
    857e:	10 01       	reta			;

00008580 <.L325>:
    8580:	7c 40 8c ff 	mov.b	#65420,	r12	;#0xff8c
    8584:	b0 13 96 a3 	calla	#41878		;0x0a396
    8588:	80 00 6e 85 	mova	#34158,	r0	;0x0856e

0000858c <.L324>:
    858c:	1e 53       	inc	r14		;
    858e:	80 00 fe 84 	mova	#34046,	r0	;0x084fe

00008592 <.L330>:
    8592:	6c 44       	mov.b	@r4,	r12	;
    8594:	71 0d 00 00 	mova	r13,	0(r1)	;
    8598:	46 13       	calla	r6		;
    859a:	1a 53       	inc	r10		;
    859c:	a4 00 01 00 	adda	#1,	r4	;
    85a0:	0d 01       	mova	@r1,	r13	;
    85a2:	80 00 06 85 	mova	#34054,	r0	;0x08506

000085a6 <event_unsub>:
    85a6:	6a 14       	pushm.a	#7,	r10	;20-bit words
    85a8:	b1 00 04 00 	suba	#4,	r1	;
    85ac:	c8 0c       	mova	r12,	r8	;
    85ae:	29 4d       	mov	@r13,	r9	;
    85b0:	16 4d 02 00 	mov	2(r13),	r6	;
    85b4:	05 49       	mov	r9,	r5	;
    85b6:	55 0f       	rrum	#4,	r5	;
    85b8:	55 0f       	rrum	#4,	r5	;
    85ba:	4c 49       	mov.b	r9,	r12	;
    85bc:	40 18 1c b3 	bitx.w	#1,	r12	;r3 As==01
    85c0:	1f 24       	jz	$+64     	;abs 0x8600
    85c2:	6e 43       	mov.b	#2,	r14	;r3 As==10

000085c4 <.L338>:
    85c4:	6c f3       	and.b	#2,	r12	;r3 As==10
    85c6:	47 4c       	mov.b	r12,	r7	;
    85c8:	45 8c       	sub.b	r12,	r5	;
    85ca:	45 8e       	sub.b	r14,	r5	;
    85cc:	35 f0 ff 00 	and	#255,	r5	;#0x00ff
    85d0:	07 93       	cmp	#0,	r7	;r3 As==00
    85d2:	19 24       	jz	$+52     	;abs 0x8606
    85d4:	6a 42       	mov.b	#4,	r10	;r2 As==10

000085d6 <.L339>:
    85d6:	40 18 04 4a 	movx.w	r10,	r4	;
    85da:	e4 08       	adda	r8,	r4	;
    85dc:	cc 04       	mova	r4,	r12	;
    85de:	0e 4a       	mov	r10,	r14	;
    85e0:	05 5a       	add	r10,	r5	;

000085e2 <.L340>:
    85e2:	0e 95       	cmp	r5,	r14	;
    85e4:	13 38       	jl	$+40     	;abs 0x860c

000085e6 <.L346>:
    85e6:	0a 95       	cmp	r5,	r10	;
    85e8:	33 38       	jl	$+104    	;abs 0x8650
    85ea:	07 93       	cmp	#0,	r7	;r3 As==00
    85ec:	1f 24       	jz	$+64     	;abs 0x862c
    85ee:	81 49 00 00 	mov	r9,	0(r1)	;
    85f2:	81 46 02 00 	mov	r6,	2(r1)	;
    85f6:	cc 01       	mova	r1,	r12	;
    85f8:	b0 13 ea 7d 	calla	#32234		;0x07dea
    85fc:	80 00 2c 86 	mova	#34348,	r0	;0x0862c

00008600 <.L349>:
    8600:	4e 43       	clr.b	r14		;
    8602:	80 00 c4 85 	mova	#34244,	r0	;0x085c4

00008606 <.L350>:
    8606:	6a 43       	mov.b	#2,	r10	;r3 As==10
    8608:	80 00 d6 85 	mova	#34262,	r0	;0x085d6

0000860c <.L345>:
    860c:	ac 00 01 00 	adda	#1,	r12	;
    8610:	7d 40 bf ff 	mov.b	#65471,	r13	;#0xffbf
    8614:	5d 9c ff ff 	cmp.b	-1(r12),r13	;
    8618:	18 28       	jnc	$+50     	;abs 0x864a
    861a:	07 93       	cmp	#0,	r7	;r3 As==00
    861c:	10 24       	jz	$+34     	;abs 0x863e
    861e:	81 49 00 00 	mov	r9,	0(r1)	;
    8622:	81 46 02 00 	mov	r6,	2(r1)	;
    8626:	cc 01       	mova	r1,	r12	;
    8628:	b0 13 1c 81 	calla	#33052		;0x0811c

0000862c <.L348>:
    862c:	cc 08       	mova	r8,	r12	;
    862e:	b0 13 b2 c3 	calla	#50098		;0x0c3b2
    8632:	b0 13 da c0 	calla	#49370		;0x0c0da
    8636:	a1 00 04 00 	adda	#4,	r1	;
    863a:	64 16       	popm.a	#7,	r10	;20-bit words
    863c:	10 01       	reta			;

0000863e <.L342>:
    863e:	7c 40 8c ff 	mov.b	#65420,	r12	;#0xff8c
    8642:	b0 13 96 a3 	calla	#41878		;0x0a396
    8646:	80 00 2c 86 	mova	#34348,	r0	;0x0862c

0000864a <.L341>:
    864a:	1e 53       	inc	r14		;
    864c:	80 00 e2 85 	mova	#34274,	r0	;0x085e2

00008650 <.L347>:
    8650:	6c 44       	mov.b	@r4,	r12	;
    8652:	b0 13 a0 a3 	calla	#41888		;0x0a3a0
    8656:	1a 53       	inc	r10		;
    8658:	a4 00 01 00 	adda	#1,	r4	;
    865c:	80 00 e6 85 	mova	#34278,	r0	;0x085e6

00008660 <event_sub>:
    8660:	6a 14       	pushm.a	#7,	r10	;20-bit words
    8662:	b1 00 08 00 	suba	#8,	r1	;
    8666:	c8 0c       	mova	r12,	r8	;
    8668:	27 4d       	mov	@r13,	r7	;
    866a:	14 4d 02 00 	mov	2(r13),	r4	;
    866e:	0a 47       	mov	r7,	r10	;
    8670:	5a 0f       	rrum	#4,	r10	;
    8672:	5a 0f       	rrum	#4,	r10	;
    8674:	4c 47       	mov.b	r7,	r12	;
    8676:	40 18 1c b3 	bitx.w	#1,	r12	;r3 As==01
    867a:	2a 24       	jz	$+86     	;abs 0x86d0
    867c:	6d 43       	mov.b	#2,	r13	;r3 As==10

0000867e <.L355>:
    867e:	6c f3       	and.b	#2,	r12	;r3 As==10
    8680:	45 4c       	mov.b	r12,	r5	;
    8682:	4a 8c       	sub.b	r12,	r10	;
    8684:	4a 8d       	sub.b	r13,	r10	;
    8686:	3a f0 ff 00 	and	#255,	r10	;#0x00ff
    868a:	05 93       	cmp	#0,	r5	;r3 As==00
    868c:	24 24       	jz	$+74     	;abs 0x86d6
    868e:	69 42       	mov.b	#4,	r9	;r2 As==10

00008690 <.L356>:
    8690:	40 18 06 49 	movx.w	r9,	r6	;
    8694:	e6 08       	adda	r8,	r6	;
    8696:	cc 06       	mova	r6,	r12	;
    8698:	0e 49       	mov	r9,	r14	;
    869a:	0a 59       	add	r9,	r10	;

0000869c <.L357>:
    869c:	0e 9a       	cmp	r10,	r14	;
    869e:	1e 38       	jl	$+62     	;abs 0x86dc
    86a0:	05 93       	cmp	#0,	r5	;r3 As==00
    86a2:	4d 24       	jz	$+156    	;abs 0x873e
    86a4:	5e 48 02 00 	mov.b	2(r8),	r14	;
    86a8:	47 18 0e 5e 	rpt #8 { rlax.w	r14		;
    86ac:	5c 48 03 00 	mov.b	3(r8),	r12	;

000086b0 <.L374>:
    86b0:	0e dc       	bis	r12,	r14	;

000086b2 <.L366>:
    86b2:	09 9a       	cmp	r10,	r9	;
    86b4:	4e 38       	jl	$+158    	;abs 0x8752
    86b6:	05 93       	cmp	#0,	r5	;r3 As==00
    86b8:	30 24       	jz	$+98     	;abs 0x871a
    86ba:	81 47 04 00 	mov	r7,	4(r1)	;
    86be:	81 44 06 00 	mov	r4,	6(r1)	;
    86c2:	cc 01       	mova	r1,	r12	;
    86c4:	ac 00 04 00 	adda	#4,	r12	;
    86c8:	b0 13 ea 7d 	calla	#32234		;0x07dea
    86cc:	80 00 1a 87 	mova	#34586,	r0	;0x0871a

000086d0 <.L369>:
    86d0:	4d 43       	clr.b	r13		;
    86d2:	80 00 7e 86 	mova	#34430,	r0	;0x0867e

000086d6 <.L370>:
    86d6:	69 43       	mov.b	#2,	r9	;r3 As==10
    86d8:	80 00 90 86 	mova	#34448,	r0	;0x08690

000086dc <.L363>:
    86dc:	6d 4c       	mov.b	@r12,	r13	;
    86de:	4f 4d       	mov.b	r13,	r15	;
    86e0:	7f 50 40 00 	add.b	#64,	r15	;#0x0040
    86e4:	7b 40 32 00 	mov.b	#50,	r11	;#0x0032
    86e8:	4b 9f       	cmp.b	r15,	r11	;
    86ea:	0c 28       	jnc	$+26     	;abs 0x8704
    86ec:	7f 50 ed ff 	add.b	#65517,	r15	;#0xffed
    86f0:	7b 40 0c 00 	mov.b	#12,	r11	;#0x000c
    86f4:	4b 9f       	cmp.b	r15,	r11	;
    86f6:	06 2c       	jc	$+14     	;abs 0x8704
    86f8:	ac 00 01 00 	adda	#1,	r12	;
    86fc:	7d 50 1d 00 	add.b	#29,	r13	;#0x001d
    8700:	4b 9d       	cmp.b	r13,	r11	;
    8702:	1a 28       	jnc	$+54     	;abs 0x8738

00008704 <.L358>:
    8704:	05 93       	cmp	#0,	r5	;r3 As==00
    8706:	12 24       	jz	$+38     	;abs 0x872c
    8708:	81 47 04 00 	mov	r7,	4(r1)	;
    870c:	81 44 06 00 	mov	r4,	6(r1)	;
    8710:	cc 01       	mova	r1,	r12	;
    8712:	ac 00 04 00 	adda	#4,	r12	;
    8716:	b0 13 1c 81 	calla	#33052		;0x0811c

0000871a <.L368>:
    871a:	cc 08       	mova	r8,	r12	;
    871c:	b0 13 b2 c3 	calla	#50098		;0x0c3b2
    8720:	b0 13 da c0 	calla	#49370		;0x0c0da
    8724:	a1 00 08 00 	adda	#8,	r1	;
    8728:	64 16       	popm.a	#7,	r10	;20-bit words
    872a:	10 01       	reta			;

0000872c <.L360>:
    872c:	7c 40 8c ff 	mov.b	#65420,	r12	;#0xff8c
    8730:	b0 13 96 a3 	calla	#41878		;0x0a396
    8734:	80 00 1a 87 	mova	#34586,	r0	;0x0871a

00008738 <.L359>:
    8738:	1e 53       	inc	r14		;
    873a:	80 00 9c 86 	mova	#34460,	r0	;0x0869c

0000873e <.L364>:
    873e:	2c 01 44 08 	mova	&67652,	r12	;0x10844
    8742:	5e 4c 55 00 	mov.b	85(r12),r14	;0x00055
    8746:	47 18 0e 5e 	rpt #8 { rlax.w	r14		;
    874a:	5c 4c 54 00 	mov.b	84(r12),r12	;0x00054
    874e:	80 00 b0 86 	mova	#34480,	r0	;0x086b0

00008752 <.L367>:
    8752:	0d 4e       	mov	r14,	r13	;
    8754:	6c 46       	mov.b	@r6,	r12	;
    8756:	71 0e 00 00 	mova	r14,	0(r1)	;
    875a:	b0 13 9e a3 	calla	#41886		;0x0a39e
    875e:	19 53       	inc	r9		;
    8760:	a6 00 01 00 	adda	#1,	r6	;
    8764:	0e 01       	mova	@r1,	r14	;
    8766:	80 00 b2 86 	mova	#34482,	r0	;0x086b2

0000876a <unlog_chan>:
    876a:	6a 14       	pushm.a	#7,	r10	;20-bit words
    876c:	b1 00 06 00 	suba	#6,	r1	;
    8770:	c6 0c       	mova	r12,	r6	;
    8772:	2a 4d       	mov	@r13,	r10	;
    8774:	18 4d 02 00 	mov	2(r13),	r8	;
    8778:	0f 4a       	mov	r10,	r15	;
    877a:	5f 0f       	rrum	#4,	r15	;
    877c:	5f 0f       	rrum	#4,	r15	;
    877e:	4e 4a       	mov.b	r10,	r14	;
    8780:	0d 4e       	mov	r14,	r13	;
    8782:	5d f3       	and.b	#1,	r13	;r3 As==01
    8784:	0d 93       	cmp	#0,	r13	;r3 As==00
    8786:	2a 24       	jz	$+86     	;abs 0x87dc
    8788:	67 43       	mov.b	#2,	r7	;r3 As==10

0000878a <.L376>:
    878a:	6e f3       	and.b	#2,	r14	;r3 As==10
    878c:	49 4e       	mov.b	r14,	r9	;
    878e:	09 93       	cmp	#0,	r9	;r3 As==00
    8790:	28 24       	jz	$+82     	;abs 0x87e2
    8792:	6c 42       	mov.b	#4,	r12	;r2 As==10

00008794 <.L377>:
    8794:	0b 4c       	mov	r12,	r11	;
    8796:	05 4f       	mov	r15,	r5	;
    8798:	05 5c       	add	r12,	r5	;
    879a:	0d 93       	cmp	#0,	r13	;r3 As==00
    879c:	01 24       	jz	$+4      	;abs 0x87a0
    879e:	6d 43       	mov.b	#2,	r13	;r3 As==10

000087a0 <.L379>:
    87a0:	05 8d       	sub	r13,	r5	;
    87a2:	81 45 00 00 	mov	r5,	0(r1)	;
    87a6:	40 18 04 4c 	movx.w	r12,	r4	;
    87aa:	e4 06       	adda	r6,	r4	;
    87ac:	cc 04       	mova	r4,	r12	;

000087ae <.L380>:
    87ae:	2b 91       	cmp	@r1,	r11	;
    87b0:	1b 38       	jl	$+56     	;abs 0x87e8
    87b2:	40 18 4d 4f 	movx.b	r15,	r13	;
    87b6:	40 18 4d 8e 	subx.b	r14,	r13	;
    87ba:	4d 87       	sub.b	r7,	r13	;
    87bc:	cc 04       	mova	r4,	r12	;
    87be:	b0 13 ae a3 	calla	#41902		;0x0a3ae
    87c2:	09 93       	cmp	#0,	r9	;r3 As==00
    87c4:	25 24       	jz	$+76     	;abs 0x8810
    87c6:	81 4a 02 00 	mov	r10,	2(r1)	;
    87ca:	81 48 04 00 	mov	r8,	4(r1)	;
    87ce:	cc 01       	mova	r1,	r12	;
    87d0:	ac 00 02 00 	adda	#2,	r12	;
    87d4:	b0 13 ea 7d 	calla	#32234		;0x07dea
    87d8:	80 00 10 88 	mova	#34832,	r0	;0x08810

000087dc <.L387>:
    87dc:	07 4d       	mov	r13,	r7	;
    87de:	80 00 8a 87 	mova	#34698,	r0	;0x0878a

000087e2 <.L388>:
    87e2:	6c 43       	mov.b	#2,	r12	;r3 As==10
    87e4:	80 00 94 87 	mova	#34708,	r0	;0x08794

000087e8 <.L385>:
    87e8:	6d 4c       	mov.b	@r12,	r13	;
    87ea:	7d 50 c0 ff 	add.b	#65472,	r13	;#0xffc0
    87ee:	ac 00 01 00 	adda	#1,	r12	;
    87f2:	75 40 3f 00 	mov.b	#63,	r5	;#0x003f
    87f6:	45 9d       	cmp.b	r13,	r5	;
    87f8:	1a 2c       	jc	$+54     	;abs 0x882e
    87fa:	09 93       	cmp	#0,	r9	;r3 As==00
    87fc:	12 24       	jz	$+38     	;abs 0x8822
    87fe:	81 4a 02 00 	mov	r10,	2(r1)	;
    8802:	81 48 04 00 	mov	r8,	4(r1)	;
    8806:	cc 01       	mova	r1,	r12	;
    8808:	ac 00 02 00 	adda	#2,	r12	;
    880c:	b0 13 1c 81 	calla	#33052		;0x0811c

00008810 <.L386>:
    8810:	cc 06       	mova	r6,	r12	;
    8812:	b0 13 b2 c3 	calla	#50098		;0x0c3b2
    8816:	b0 13 da c0 	calla	#49370		;0x0c0da
    881a:	a1 00 06 00 	adda	#6,	r1	;
    881e:	64 16       	popm.a	#7,	r10	;20-bit words
    8820:	10 01       	reta			;

00008822 <.L382>:
    8822:	7c 40 8c ff 	mov.b	#65420,	r12	;#0xff8c
    8826:	b0 13 96 a3 	calla	#41878		;0x0a396
    882a:	80 00 10 88 	mova	#34832,	r0	;0x08810

0000882e <.L381>:
    882e:	1b 53       	inc	r11		;
    8830:	80 00 ae 87 	mova	#34734,	r0	;0x087ae

00008834 <log_chan>:
    8834:	6a 14       	pushm.a	#7,	r10	;20-bit words
    8836:	b1 00 14 00 	suba	#20,	r1	;0x00014
    883a:	c5 0c       	mova	r12,	r5	;
    883c:	29 4d       	mov	@r13,	r9	;
    883e:	91 4d 02 00 	mov	2(r13),	4(r1)	;
    8842:	04 00 
    8844:	0a 49       	mov	r9,	r10	;
    8846:	5a 0f       	rrum	#4,	r10	;
    8848:	5a 0f       	rrum	#4,	r10	;
    884a:	4c 49       	mov.b	r9,	r12	;
    884c:	40 18 1c b3 	bitx.w	#1,	r12	;r3 As==01
    8850:	64 24       	jz	$+202    	;abs 0x891a
    8852:	6d 43       	mov.b	#2,	r13	;r3 As==10

00008854 <.L393>:
    8854:	6c f3       	and.b	#2,	r12	;r3 As==10
    8856:	47 4c       	mov.b	r12,	r7	;
    8858:	4a 8c       	sub.b	r12,	r10	;
    885a:	4a 8d       	sub.b	r13,	r10	;
    885c:	48 4a       	mov.b	r10,	r8	;
    885e:	07 93       	cmp	#0,	r7	;r3 As==00
    8860:	5f 24       	jz	$+192    	;abs 0x8920
    8862:	6c 42       	mov.b	#4,	r12	;r2 As==10

00008864 <.L394>:
    8864:	0f 4c       	mov	r12,	r15	;
    8866:	2f 52       	add	#4,	r15	;r2 As==10
    8868:	04 4f       	mov	r15,	r4	;
    886a:	44 0e       	rlam.a	#4,	r4	;
    886c:	44 0d       	rram.a	#4,	r4	;
    886e:	ce 04       	mova	r4,	r14	;
    8870:	ee 05       	adda	r5,	r14	;
    8872:	08 5c       	add	r12,	r8	;

00008874 <.L395>:
    8874:	0f 98       	cmp	r8,	r15	;
    8876:	57 38       	jl	$+176    	;abs 0x8926
    8878:	04 4c       	mov	r12,	r4	;
    887a:	4c 18 04 54 	rpt #13 { rlax.w	r4		;
    887e:	04 8c       	sub	r12,	r4	;
    8880:	81 44 0a 00 	mov	r4,	10(r1)	; 0x000a
    8884:	66 42       	mov.b	#4,	r6	;r2 As==10
    8886:	48 43       	clr.b	r8		;
    8888:	04 48       	mov	r8,	r4	;
    888a:	4d 4c       	mov.b	r12,	r13	;
    888c:	0e 43       	clr	r14		;
    888e:	81 4d 06 00 	mov	r13,	6(r1)	;
    8892:	81 4e 08 00 	mov	r14,	8(r1)	;
    8896:	0e 12       	push	r14		;
    8898:	0d 12       	push	r13		;
    889a:	0c 16       	popm.a	#1,	r12	;20-bit words
    889c:	ec 05       	adda	r5,	r12	;
    889e:	71 0c 0c 00 	mova	r12,	12(r1)	; 0x0000c

000088a2 <.L402>:
    88a2:	36 53       	add	#-1,	r6	;r3 As==11
    88a4:	36 93       	cmp	#-1,	r6	;r3 As==11
    88a6:	73 20       	jnz	$+232    	;abs 0x898e
    88a8:	7e 40 64 00 	mov.b	#100,	r14	;#0x0064
    88ac:	4f 43       	clr.b	r15		;
    88ae:	0c 48       	mov	r8,	r12	;
    88b0:	0d 44       	mov	r4,	r13	;
    88b2:	b0 13 66 c4 	calla	#50278		;0x0c466
    88b6:	06 4c       	mov	r12,	r6	;
    88b8:	08 4d       	mov	r13,	r8	;
    88ba:	0e 4c       	mov	r12,	r14	;
    88bc:	0e 5c       	add	r12,	r14	;
    88be:	0d 6d       	rlc	r13		;
    88c0:	0e 56       	add	r6,	r14	;
    88c2:	04 4d       	mov	r13,	r4	;
    88c4:	04 68       	addc	r8,	r4	;
    88c6:	0c 4e       	mov	r14,	r12	;
    88c8:	0d 44       	mov	r4,	r13	;
    88ca:	71 0e 00 00 	mova	r14,	0(r1)	;
    88ce:	b0 13 ca c4 	calla	#50378		;0x0c4ca
    88d2:	0e 01       	mova	@r1,	r14	;
    88d4:	0e 5c       	add	r12,	r14	;
    88d6:	0d 64       	addc	r4,	r13	;
    88d8:	1b 41 06 00 	mov	6(r1),	r11	;
    88dc:	1c 41 08 00 	mov	8(r1),	r12	;
    88e0:	0c 12       	push	r12		;
    88e2:	0b 12       	push	r11		;
    88e4:	04 16       	popm.a	#1,	r4	;20-bit words
    88e6:	cc 04       	mova	r4,	r12	;
    88e8:	ac 00 04 00 	adda	#4,	r12	;
    88ec:	0e 56       	add	r6,	r14	;
    88ee:	0f 4d       	mov	r13,	r15	;
    88f0:	0f 68       	addc	r8,	r15	;
    88f2:	4d 4a       	mov.b	r10,	r13	;
    88f4:	7d 50 fc ff 	add.b	#65532,	r13	;#0xfffc
    88f8:	ec 05       	adda	r5,	r12	;
    88fa:	b0 13 ac a3 	calla	#41900		;0x0a3ac
    88fe:	07 93       	cmp	#0,	r7	;r3 As==00
    8900:	34 24       	jz	$+106    	;abs 0x896a
    8902:	81 49 10 00 	mov	r9,	16(r1)	; 0x0010
    8906:	91 41 04 00 	mov	4(r1),	18(r1)	; 0x0012
    890a:	12 00 
    890c:	cc 01       	mova	r1,	r12	;
    890e:	ac 00 10 00 	adda	#16,	r12	;0x00010
    8912:	b0 13 ea 7d 	calla	#32234		;0x07dea
    8916:	80 00 6a 89 	mova	#35178,	r0	;0x0896a

0000891a <.L405>:
    891a:	4d 43       	clr.b	r13		;
    891c:	80 00 54 88 	mova	#34900,	r0	;0x08854

00008920 <.L406>:
    8920:	6c 43       	mov.b	#2,	r12	;r3 As==10
    8922:	80 00 64 88 	mova	#34916,	r0	;0x08864

00008926 <.L401>:
    8926:	6d 4e       	mov.b	@r14,	r13	;
    8928:	46 4d       	mov.b	r13,	r6	;
    892a:	76 50 c0 ff 	add.b	#65472,	r6	;#0xffc0
    892e:	7b 40 36 00 	mov.b	#54,	r11	;#0x0036
    8932:	4b 96       	cmp.b	r6,	r11	;
    8934:	0e 28       	jnc	$+30     	;abs 0x8952
    8936:	76 50 ef ff 	add.b	#65519,	r6	;#0xffef
    893a:	74 40 0e 00 	mov.b	#14,	r4	;#0x000e
    893e:	44 96       	cmp.b	r6,	r4	;
    8940:	08 2c       	jc	$+18     	;abs 0x8952
    8942:	ae 00 01 00 	adda	#1,	r14	;
    8946:	7d 50 9d ff 	add.b	#65437,	r13	;#0xff9d
    894a:	76 40 0c 00 	mov.b	#12,	r6	;#0x000c
    894e:	46 9d       	cmp.b	r13,	r6	;
    8950:	1b 28       	jnc	$+56     	;abs 0x8988

00008952 <.L396>:
    8952:	07 93       	cmp	#0,	r7	;r3 As==00
    8954:	13 24       	jz	$+40     	;abs 0x897c
    8956:	81 49 10 00 	mov	r9,	16(r1)	; 0x0010
    895a:	91 41 04 00 	mov	4(r1),	18(r1)	; 0x0012
    895e:	12 00 
    8960:	cc 01       	mova	r1,	r12	;
    8962:	ac 00 10 00 	adda	#16,	r12	;0x00010
    8966:	b0 13 1c 81 	calla	#33052		;0x0811c

0000896a <.L404>:
    896a:	cc 05       	mova	r5,	r12	;
    896c:	b0 13 b2 c3 	calla	#50098		;0x0c3b2
    8970:	b0 13 da c0 	calla	#49370		;0x0c0da
    8974:	a1 00 14 00 	adda	#20,	r1	;0x00014
    8978:	64 16       	popm.a	#7,	r10	;20-bit words
    897a:	10 01       	reta			;

0000897c <.L398>:
    897c:	7c 40 8c ff 	mov.b	#65420,	r12	;#0xff8c
    8980:	b0 13 96 a3 	calla	#41878		;0x0a396
    8984:	80 00 6a 89 	mova	#35178,	r0	;0x0896a

00008988 <.L397>:
    8988:	1f 53       	inc	r15		;
    898a:	80 00 74 88 	mova	#34932,	r0	;0x08874

0000898e <.L403>:
    898e:	1e 41 0a 00 	mov	10(r1),	r14	;0x0000a
    8992:	0e 56       	add	r6,	r14	;
    8994:	42 18 0e 5e 	rpt #3 { rlax.w	r14		;
    8998:	3f 01 0c 00 	mova	12(r1),	r15	;0x0000c
    899c:	6c 4f       	mov.b	@r15,	r12	;
    899e:	0d 43       	clr	r13		;
    89a0:	0f 43       	clr	r15		;
    89a2:	b0 13 e6 c4 	calla	#50406		;0x0c4e6
    89a6:	08 dc       	bis	r12,	r8	;
    89a8:	04 dd       	bis	r13,	r4	;
    89aa:	80 00 a2 88 	mova	#34978,	r0	;0x088a2

000089ae <channel_unsub>:
    89ae:	5a 14       	pushm.a	#6,	r10	;20-bit words
    89b0:	b1 00 04 00 	suba	#4,	r1	;
    89b4:	c8 0c       	mova	r12,	r8	;
    89b6:	2a 4d       	mov	@r13,	r10	;
    89b8:	17 4d 02 00 	mov	2(r13),	r7	;
    89bc:	0d 4a       	mov	r10,	r13	;
    89be:	5d 0f       	rrum	#4,	r13	;
    89c0:	5d 0f       	rrum	#4,	r13	;
    89c2:	4c 4a       	mov.b	r10,	r12	;
    89c4:	40 18 1c b3 	bitx.w	#1,	r12	;r3 As==01
    89c8:	1e 24       	jz	$+62     	;abs 0x8a06
    89ca:	6e 43       	mov.b	#2,	r14	;r3 As==10

000089cc <.L411>:
    89cc:	6c f3       	and.b	#2,	r12	;r3 As==10
    89ce:	49 4c       	mov.b	r12,	r9	;
    89d0:	4d 8c       	sub.b	r12,	r13	;
    89d2:	4d 8e       	sub.b	r14,	r13	;
    89d4:	4f 4d       	mov.b	r13,	r15	;
    89d6:	09 93       	cmp	#0,	r9	;r3 As==00
    89d8:	19 24       	jz	$+52     	;abs 0x8a0c
    89da:	6c 42       	mov.b	#4,	r12	;r2 As==10

000089dc <.L412>:
    89dc:	40 18 06 4c 	movx.w	r12,	r6	;
    89e0:	e6 08       	adda	r8,	r6	;
    89e2:	ce 06       	mova	r6,	r14	;
    89e4:	0f 5c       	add	r12,	r15	;

000089e6 <.L413>:
    89e6:	0c 9f       	cmp	r15,	r12	;
    89e8:	14 38       	jl	$+42     	;abs 0x8a12
    89ea:	cc 06       	mova	r6,	r12	;
    89ec:	b0 13 aa a3 	calla	#41898		;0x0a3aa
    89f0:	09 93       	cmp	#0,	r9	;r3 As==00
    89f2:	21 24       	jz	$+68     	;abs 0x8a36
    89f4:	81 4a 00 00 	mov	r10,	0(r1)	;
    89f8:	81 47 02 00 	mov	r7,	2(r1)	;
    89fc:	cc 01       	mova	r1,	r12	;
    89fe:	b0 13 ea 7d 	calla	#32234		;0x07dea
    8a02:	80 00 36 8a 	mova	#35382,	r0	;0x08a36

00008a06 <.L420>:
    8a06:	4e 43       	clr.b	r14		;
    8a08:	80 00 cc 89 	mova	#35276,	r0	;0x089cc

00008a0c <.L421>:
    8a0c:	6c 43       	mov.b	#2,	r12	;r3 As==10
    8a0e:	80 00 dc 89 	mova	#35292,	r0	;0x089dc

00008a12 <.L418>:
    8a12:	6b 4e       	mov.b	@r14,	r11	;
    8a14:	7b 50 c0 ff 	add.b	#65472,	r11	;#0xffc0
    8a18:	ae 00 01 00 	adda	#1,	r14	;
    8a1c:	75 40 3f 00 	mov.b	#63,	r5	;#0x003f
    8a20:	45 9b       	cmp.b	r11,	r5	;
    8a22:	18 2c       	jc	$+50     	;abs 0x8a54
    8a24:	09 93       	cmp	#0,	r9	;r3 As==00
    8a26:	10 24       	jz	$+34     	;abs 0x8a48
    8a28:	81 4a 00 00 	mov	r10,	0(r1)	;
    8a2c:	81 47 02 00 	mov	r7,	2(r1)	;
    8a30:	cc 01       	mova	r1,	r12	;
    8a32:	b0 13 1c 81 	calla	#33052		;0x0811c

00008a36 <.L419>:
    8a36:	cc 08       	mova	r8,	r12	;
    8a38:	b0 13 b2 c3 	calla	#50098		;0x0c3b2
    8a3c:	b0 13 da c0 	calla	#49370		;0x0c0da
    8a40:	a1 00 04 00 	adda	#4,	r1	;
    8a44:	55 16       	popm.a	#6,	r10	;20-bit words
    8a46:	10 01       	reta			;

00008a48 <.L415>:
    8a48:	7c 40 8c ff 	mov.b	#65420,	r12	;#0xff8c
    8a4c:	b0 13 96 a3 	calla	#41878		;0x0a396
    8a50:	80 00 36 8a 	mova	#35382,	r0	;0x08a36

00008a54 <.L414>:
    8a54:	1c 53       	inc	r12		;
    8a56:	80 00 e6 89 	mova	#35302,	r0	;0x089e6

00008a5a <channel_sub>:
    8a5a:	6a 14       	pushm.a	#7,	r10	;20-bit words
    8a5c:	b1 00 14 00 	suba	#20,	r1	;0x00014
    8a60:	c5 0c       	mova	r12,	r5	;
    8a62:	29 4d       	mov	@r13,	r9	;
    8a64:	91 4d 02 00 	mov	2(r13),	4(r1)	;
    8a68:	04 00 
    8a6a:	0a 49       	mov	r9,	r10	;
    8a6c:	5a 0f       	rrum	#4,	r10	;
    8a6e:	5a 0f       	rrum	#4,	r10	;
    8a70:	4c 49       	mov.b	r9,	r12	;
    8a72:	40 18 1c b3 	bitx.w	#1,	r12	;r3 As==01
    8a76:	64 24       	jz	$+202    	;abs 0x8b40
    8a78:	6d 43       	mov.b	#2,	r13	;r3 As==10

00008a7a <.L426>:
    8a7a:	6c f3       	and.b	#2,	r12	;r3 As==10
    8a7c:	47 4c       	mov.b	r12,	r7	;
    8a7e:	4a 8c       	sub.b	r12,	r10	;
    8a80:	4a 8d       	sub.b	r13,	r10	;
    8a82:	48 4a       	mov.b	r10,	r8	;
    8a84:	07 93       	cmp	#0,	r7	;r3 As==00
    8a86:	5f 24       	jz	$+192    	;abs 0x8b46
    8a88:	6c 42       	mov.b	#4,	r12	;r2 As==10

00008a8a <.L427>:
    8a8a:	0f 4c       	mov	r12,	r15	;
    8a8c:	2f 52       	add	#4,	r15	;r2 As==10
    8a8e:	04 4f       	mov	r15,	r4	;
    8a90:	44 0e       	rlam.a	#4,	r4	;
    8a92:	44 0d       	rram.a	#4,	r4	;
    8a94:	ce 04       	mova	r4,	r14	;
    8a96:	ee 05       	adda	r5,	r14	;
    8a98:	08 5c       	add	r12,	r8	;

00008a9a <.L428>:
    8a9a:	0f 98       	cmp	r8,	r15	;
    8a9c:	57 38       	jl	$+176    	;abs 0x8b4c
    8a9e:	04 4c       	mov	r12,	r4	;
    8aa0:	4c 18 04 54 	rpt #13 { rlax.w	r4		;
    8aa4:	04 8c       	sub	r12,	r4	;
    8aa6:	81 44 0a 00 	mov	r4,	10(r1)	; 0x000a
    8aaa:	66 42       	mov.b	#4,	r6	;r2 As==10
    8aac:	48 43       	clr.b	r8		;
    8aae:	04 48       	mov	r8,	r4	;
    8ab0:	4d 4c       	mov.b	r12,	r13	;
    8ab2:	0e 43       	clr	r14		;
    8ab4:	81 4d 06 00 	mov	r13,	6(r1)	;
    8ab8:	81 4e 08 00 	mov	r14,	8(r1)	;
    8abc:	0e 12       	push	r14		;
    8abe:	0d 12       	push	r13		;
    8ac0:	0c 16       	popm.a	#1,	r12	;20-bit words
    8ac2:	ec 05       	adda	r5,	r12	;
    8ac4:	71 0c 0c 00 	mova	r12,	12(r1)	; 0x0000c

00008ac8 <.L435>:
    8ac8:	36 53       	add	#-1,	r6	;r3 As==11
    8aca:	36 93       	cmp	#-1,	r6	;r3 As==11
    8acc:	73 20       	jnz	$+232    	;abs 0x8bb4
    8ace:	7e 40 64 00 	mov.b	#100,	r14	;#0x0064
    8ad2:	4f 43       	clr.b	r15		;
    8ad4:	0c 48       	mov	r8,	r12	;
    8ad6:	0d 44       	mov	r4,	r13	;
    8ad8:	b0 13 66 c4 	calla	#50278		;0x0c466
    8adc:	06 4c       	mov	r12,	r6	;
    8ade:	08 4d       	mov	r13,	r8	;
    8ae0:	0e 4c       	mov	r12,	r14	;
    8ae2:	0e 5c       	add	r12,	r14	;
    8ae4:	0d 6d       	rlc	r13		;
    8ae6:	0e 56       	add	r6,	r14	;
    8ae8:	04 4d       	mov	r13,	r4	;
    8aea:	04 68       	addc	r8,	r4	;
    8aec:	0c 4e       	mov	r14,	r12	;
    8aee:	0d 44       	mov	r4,	r13	;
    8af0:	71 0e 00 00 	mova	r14,	0(r1)	;
    8af4:	b0 13 ca c4 	calla	#50378		;0x0c4ca
    8af8:	0e 01       	mova	@r1,	r14	;
    8afa:	0e 5c       	add	r12,	r14	;
    8afc:	0d 64       	addc	r4,	r13	;
    8afe:	1b 41 06 00 	mov	6(r1),	r11	;
    8b02:	1c 41 08 00 	mov	8(r1),	r12	;
    8b06:	0c 12       	push	r12		;
    8b08:	0b 12       	push	r11		;
    8b0a:	04 16       	popm.a	#1,	r4	;20-bit words
    8b0c:	cc 04       	mova	r4,	r12	;
    8b0e:	ac 00 04 00 	adda	#4,	r12	;
    8b12:	0e 56       	add	r6,	r14	;
    8b14:	0f 4d       	mov	r13,	r15	;
    8b16:	0f 68       	addc	r8,	r15	;
    8b18:	4d 4a       	mov.b	r10,	r13	;
    8b1a:	7d 50 fc ff 	add.b	#65532,	r13	;#0xfffc
    8b1e:	ec 05       	adda	r5,	r12	;
    8b20:	b0 13 a8 a3 	calla	#41896		;0x0a3a8
    8b24:	07 93       	cmp	#0,	r7	;r3 As==00
    8b26:	34 24       	jz	$+106    	;abs 0x8b90
    8b28:	81 49 10 00 	mov	r9,	16(r1)	; 0x0010
    8b2c:	91 41 04 00 	mov	4(r1),	18(r1)	; 0x0012
    8b30:	12 00 
    8b32:	cc 01       	mova	r1,	r12	;
    8b34:	ac 00 10 00 	adda	#16,	r12	;0x00010
    8b38:	b0 13 ea 7d 	calla	#32234		;0x07dea
    8b3c:	80 00 90 8b 	mova	#35728,	r0	;0x08b90

00008b40 <.L438>:
    8b40:	4d 43       	clr.b	r13		;
    8b42:	80 00 7a 8a 	mova	#35450,	r0	;0x08a7a

00008b46 <.L439>:
    8b46:	6c 43       	mov.b	#2,	r12	;r3 As==10
    8b48:	80 00 8a 8a 	mova	#35466,	r0	;0x08a8a

00008b4c <.L434>:
    8b4c:	6d 4e       	mov.b	@r14,	r13	;
    8b4e:	46 4d       	mov.b	r13,	r6	;
    8b50:	76 50 c0 ff 	add.b	#65472,	r6	;#0xffc0
    8b54:	7b 40 36 00 	mov.b	#54,	r11	;#0x0036
    8b58:	4b 96       	cmp.b	r6,	r11	;
    8b5a:	0e 28       	jnc	$+30     	;abs 0x8b78
    8b5c:	76 50 ef ff 	add.b	#65519,	r6	;#0xffef
    8b60:	74 40 0e 00 	mov.b	#14,	r4	;#0x000e
    8b64:	44 96       	cmp.b	r6,	r4	;
    8b66:	08 2c       	jc	$+18     	;abs 0x8b78
    8b68:	ae 00 01 00 	adda	#1,	r14	;
    8b6c:	7d 50 9d ff 	add.b	#65437,	r13	;#0xff9d
    8b70:	76 40 0c 00 	mov.b	#12,	r6	;#0x000c
    8b74:	46 9d       	cmp.b	r13,	r6	;
    8b76:	1b 28       	jnc	$+56     	;abs 0x8bae

00008b78 <.L429>:
    8b78:	07 93       	cmp	#0,	r7	;r3 As==00
    8b7a:	13 24       	jz	$+40     	;abs 0x8ba2
    8b7c:	81 49 10 00 	mov	r9,	16(r1)	; 0x0010
    8b80:	91 41 04 00 	mov	4(r1),	18(r1)	; 0x0012
    8b84:	12 00 
    8b86:	cc 01       	mova	r1,	r12	;
    8b88:	ac 00 10 00 	adda	#16,	r12	;0x00010
    8b8c:	b0 13 1c 81 	calla	#33052		;0x0811c

00008b90 <.L437>:
    8b90:	cc 05       	mova	r5,	r12	;
    8b92:	b0 13 b2 c3 	calla	#50098		;0x0c3b2
    8b96:	b0 13 da c0 	calla	#49370		;0x0c0da
    8b9a:	a1 00 14 00 	adda	#20,	r1	;0x00014
    8b9e:	64 16       	popm.a	#7,	r10	;20-bit words
    8ba0:	10 01       	reta			;

00008ba2 <.L431>:
    8ba2:	7c 40 8c ff 	mov.b	#65420,	r12	;#0xff8c
    8ba6:	b0 13 96 a3 	calla	#41878		;0x0a396
    8baa:	80 00 90 8b 	mova	#35728,	r0	;0x08b90

00008bae <.L430>:
    8bae:	1f 53       	inc	r15		;
    8bb0:	80 00 9a 8a 	mova	#35482,	r0	;0x08a9a

00008bb4 <.L436>:
    8bb4:	1e 41 0a 00 	mov	10(r1),	r14	;0x0000a
    8bb8:	0e 56       	add	r6,	r14	;
    8bba:	42 18 0e 5e 	rpt #3 { rlax.w	r14		;
    8bbe:	3f 01 0c 00 	mova	12(r1),	r15	;0x0000c
    8bc2:	6c 4f       	mov.b	@r15,	r12	;
    8bc4:	0d 43       	clr	r13		;
    8bc6:	0f 43       	clr	r15		;
    8bc8:	b0 13 e6 c4 	calla	#50406		;0x0c4e6
    8bcc:	08 dc       	bis	r12,	r8	;
    8bce:	04 dd       	bis	r13,	r4	;
    8bd0:	80 00 c8 8a 	mova	#35528,	r0	;0x08ac8

00008bd4 <reload_config>:
    8bd4:	3a 14       	pushm.a	#4,	r10	;20-bit words
    8bd6:	b1 00 04 00 	suba	#4,	r1	;
    8bda:	28 4d       	mov	@r13,	r8	;
    8bdc:	1a 4d 02 00 	mov	2(r13),	r10	;
    8be0:	47 48       	mov.b	r8,	r7	;
    8be2:	67 f3       	and.b	#2,	r7	;r3 As==10
    8be4:	37 f0 ff 00 	and	#255,	r7	;#0x00ff
    8be8:	07 93       	cmp	#0,	r7	;r3 As==00
    8bea:	1c 20       	jnz	$+58     	;abs 0x8c24
    8bec:	6e 43       	mov.b	#2,	r14	;r3 As==10

00008bee <.L444>:
    8bee:	40 18 0e 4e 	movx.w	r14,	r14	;
    8bf2:	ee 0c       	adda	r12,	r14	;
    8bf4:	69 4e       	mov.b	@r14,	r9	;
    8bf6:	b0 13 b2 c3 	calla	#50098		;0x0c3b2
    8bfa:	b0 13 da c0 	calla	#49370		;0x0c0da
    8bfe:	4c 49       	mov.b	r9,	r12	;
    8c00:	7c 53       	add.b	#-1,	r12	;r3 As==11
    8c02:	7d 40 03 00 	mov.b	#3,	r13	;
    8c06:	4d 9c       	cmp.b	r12,	r13	;
    8c08:	16 2c       	jc	$+46     	;abs 0x8c36
    8c0a:	07 93       	cmp	#0,	r7	;r3 As==00
    8c0c:	0e 24       	jz	$+30     	;abs 0x8c2a
    8c0e:	81 48 00 00 	mov	r8,	0(r1)	;
    8c12:	81 4a 02 00 	mov	r10,	2(r1)	;
    8c16:	cc 01       	mova	r1,	r12	;
    8c18:	b0 13 1c 81 	calla	#33052		;0x0811c

00008c1c <.L443>:
    8c1c:	a1 00 04 00 	adda	#4,	r1	;
    8c20:	37 16       	popm.a	#4,	r10	;20-bit words
    8c22:	10 01       	reta			;

00008c24 <.L448>:
    8c24:	6e 42       	mov.b	#4,	r14	;r2 As==10
    8c26:	80 00 ee 8b 	mova	#35822,	r0	;0x08bee

00008c2a <.L446>:
    8c2a:	7c 40 8c ff 	mov.b	#65420,	r12	;#0xff8c
    8c2e:	b0 13 96 a3 	calla	#41878		;0x0a396
    8c32:	80 00 1c 8c 	mova	#35868,	r0	;0x08c1c

00008c36 <.L445>:
    8c36:	2a 01 40 08 	mova	&67648,	r10	;0x10840
    8c3a:	88 00 fe a2 	mova	#41726,	r8	;0x0a2fe
    8c3e:	7f 40 56 00 	mov.b	#86,	r15	;#0x0056
    8c42:	4e 43       	clr.b	r14		;
    8c44:	cd 0a       	mova	r10,	r13	;
    8c46:	4c 49       	mov.b	r9,	r12	;
    8c48:	48 13       	calla	r8		;
    8c4a:	7f 40 0a 00 	mov.b	#10,	r15	;#0x000a
    8c4e:	7e 40 80 ff 	mov.b	#65408,	r14	;#0xff80
    8c52:	cd 0a       	mova	r10,	r13	;
    8c54:	ad 00 80 00 	adda	#128,	r13	;0x00080
    8c58:	4c 49       	mov.b	r9,	r12	;
    8c5a:	48 13       	calla	r8		;
    8c5c:	7f 40 15 00 	mov.b	#21,	r15	;#0x0015
    8c60:	7e 40 c0 ff 	mov.b	#65472,	r14	;#0xffc0
    8c64:	cd 0a       	mova	r10,	r13	;
    8c66:	ad 00 c0 00 	adda	#192,	r13	;0x000c0
    8c6a:	4c 49       	mov.b	r9,	r12	;
    8c6c:	48 13       	calla	r8		;
    8c6e:	ca 49 69 00 	mov.b	r9,	105(r10); 0x0069
    8c72:	00 18 c2 43 	movx.a	#0,	&0x0efb8;r3 As==00
    8c76:	b8 ef 
    8c78:	c0 1f b2 40 	movx.w	#-23224,&0x00120;0xfa548
    8c7c:	48 a5 20 01 
    8c80:	80 00 1c 8c 	mova	#35868,	r0	;0x08c1c

00008c84 <set_u32>:
    8c84:	b1 00 02 00 	suba	#2,	r1	;
    8c88:	00 18 d1 41 	movx.a	2(r1),	0(r1)	;
    8c8c:	02 00 00 00 
    8c90:	6a 14       	pushm.a	#7,	r10	;20-bit words
    8c92:	b1 00 14 00 	suba	#20,	r1	;0x00014
    8c96:	3c f0 ff 00 	and	#255,	r12	;#0x00ff
    8c9a:	81 4c 0a 00 	mov	r12,	10(r1)	; 0x000a
    8c9e:	2a 4e       	mov	@r14,	r10	;
    8ca0:	1c 4e 02 00 	mov	2(r14),	r12	;
    8ca4:	81 4f 34 00 	mov	r15,	52(r1)	; 0x0034
    8ca8:	81 4f 0c 00 	mov	r15,	12(r1)	; 0x000c
    8cac:	1b 41 36 00 	mov	54(r1),	r11	;0x00036
    8cb0:	91 41 38 00 	mov	56(r1),	14(r1)	;0x00038, 0x000e
    8cb4:	0e 00 
    8cb6:	15 41 3a 00 	mov	58(r1),	r5	;0x0003a
    8cba:	81 4c 08 00 	mov	r12,	8(r1)	;
    8cbe:	49 4a       	mov.b	r10,	r9	;
    8cc0:	69 f3       	and.b	#2,	r9	;r3 As==10
    8cc2:	39 f0 ff 00 	and	#255,	r9	;#0x00ff
    8cc6:	09 93       	cmp	#0,	r9	;r3 As==00
    8cc8:	44 20       	jnz	$+138    	;abs 0x8d52
    8cca:	6c 43       	mov.b	#2,	r12	;r3 As==10

00008ccc <.L450>:
    8ccc:	40 18 04 4c 	movx.w	r12,	r4	;
    8cd0:	e4 0d       	adda	r13,	r4	;
    8cd2:	71 04 04 00 	mova	r4,	4(r1)	;
    8cd6:	76 40 18 00 	mov.b	#24,	r6	;#0x0018
    8cda:	48 43       	clr.b	r8		;
    8cdc:	07 48       	mov	r8,	r7	;

00008cde <.L451>:
    8cde:	3e 01 04 00 	mova	4(r1),	r14	;
    8ce2:	6c 4e       	mov.b	@r14,	r12	;
    8ce4:	0d 43       	clr	r13		;
    8ce6:	0e 46       	mov	r6,	r14	;
    8ce8:	0f 43       	clr	r15		;
    8cea:	71 0b 00 00 	mova	r11,	0(r1)	;
    8cee:	b0 13 e6 c4 	calla	#50406		;0x0c4e6
    8cf2:	0c d8       	bis	r8,	r12	;
    8cf4:	0d d7       	bis	r7,	r13	;
    8cf6:	08 4c       	mov	r12,	r8	;
    8cf8:	07 4d       	mov	r13,	r7	;
    8cfa:	00 18 d1 53 	incx.a	4(r1)		;
    8cfe:	04 00 
    8d00:	36 50 f8 ff 	add	#65528,	r6	;#0xfff8
    8d04:	0b 01       	mova	@r1,	r11	;
    8d06:	36 90 f8 ff 	cmp	#65528,	r6	;#0xfff8
    8d0a:	e9 23       	jnz	$-44     	;abs 0x8cde
    8d0c:	0b 9d       	cmp	r13,	r11	;
    8d0e:	0c 28       	jnc	$+26     	;abs 0x8d28
    8d10:	0d 9b       	cmp	r11,	r13	;
    8d12:	03 20       	jnz	$+8      	;abs 0x8d1a
    8d14:	81 9c 0c 00 	cmp	r12,	12(r1)	; 0x000c
    8d18:	07 28       	jnc	$+16     	;abs 0x8d28

00008d1a <.L459>:
    8d1a:	0d 95       	cmp	r5,	r13	;
    8d1c:	05 28       	jnc	$+12     	;abs 0x8d28
    8d1e:	05 9d       	cmp	r13,	r5	;
    8d20:	21 20       	jnz	$+68     	;abs 0x8d64
    8d22:	1c 91 0e 00 	cmp	14(r1),	r12	;0x0000e
    8d26:	1e 2c       	jc	$+62     	;abs 0x8d64

00008d28 <.L452>:
    8d28:	09 93       	cmp	#0,	r9	;r3 As==00
    8d2a:	16 24       	jz	$+46     	;abs 0x8d58
    8d2c:	81 4a 10 00 	mov	r10,	16(r1)	; 0x0010
    8d30:	91 41 08 00 	mov	8(r1),	18(r1)	; 0x0012
    8d34:	12 00 
    8d36:	cc 01       	mova	r1,	r12	;
    8d38:	ac 00 10 00 	adda	#16,	r12	;0x00010
    8d3c:	b0 13 1c 81 	calla	#33052		;0x0811c

00008d40 <.L449>:
    8d40:	a1 00 14 00 	adda	#20,	r1	;0x00014
    8d44:	64 16       	popm.a	#7,	r10	;20-bit words
    8d46:	00 18 e1 41 	movx.a	@r1,	2(r1)	;
    8d4a:	02 00 
    8d4c:	a1 00 02 00 	adda	#2,	r1	;
    8d50:	10 01       	reta			;

00008d52 <.L458>:
    8d52:	6c 42       	mov.b	#4,	r12	;r2 As==10
    8d54:	80 00 cc 8c 	mova	#36044,	r0	;0x08ccc

00008d58 <.L456>:
    8d58:	7c 40 8c ff 	mov.b	#65420,	r12	;#0xff8c
    8d5c:	b0 13 96 a3 	calla	#41878		;0x0a396
    8d60:	80 00 40 8d 	mova	#36160,	r0	;0x08d40

00008d64 <.L454>:
    8d64:	40 18 1c 41 	movx.w	10(r1),	r12	;0x0000a
    8d68:	0a 00 
    8d6a:	80 18 5c 52 	addx.a	&0x10840,r12	;
    8d6e:	40 08 
    8d70:	ec 44 03 00 	mov.b	@r4,	3(r12)	;
    8d74:	dc 44 01 00 	mov.b	1(r4),	2(r12)	;
    8d78:	02 00 
    8d7a:	dc 44 02 00 	mov.b	2(r4),	1(r12)	;
    8d7e:	01 00 
    8d80:	dc 44 03 00 	mov.b	3(r4),	0(r12)	;
    8d84:	00 00 
    8d86:	09 93       	cmp	#0,	r9	;r3 As==00
    8d88:	db 27       	jz	$-72     	;abs 0x8d40
    8d8a:	81 4a 10 00 	mov	r10,	16(r1)	; 0x0010
    8d8e:	91 41 08 00 	mov	8(r1),	18(r1)	; 0x0012
    8d92:	12 00 
    8d94:	cc 01       	mova	r1,	r12	;
    8d96:	ac 00 10 00 	adda	#16,	r12	;0x00010
    8d9a:	b0 13 ea 7d 	calla	#32234		;0x07dea
    8d9e:	80 00 40 8d 	mova	#36160,	r0	;0x08d40

00008da2 <set_baud>:
    8da2:	0a 14       	pushm.a	#1,	r10	;20-bit words
    8da4:	b1 00 0a 00 	suba	#10,	r1	;0x0000a
    8da8:	ca 0c       	mova	r12,	r10	;
    8daa:	a1 4d 06 00 	mov	@r13,	6(r1)	;
    8dae:	91 4d 02 00 	mov	2(r13),	8(r1)	;
    8db2:	08 00 
    8db4:	91 43 02 00 	mov	#1,	2(r1)	;r3 As==01
    8db8:	81 43 04 00 	mov	#0,	4(r1)	;r3 As==00
    8dbc:	b1 40 0f 00 	mov	#15,	0(r1)	;#0x000f
    8dc0:	00 00 
    8dc2:	3f 40 40 42 	mov	#16960,	r15	;#0x4240
    8dc6:	ce 01       	mova	r1,	r14	;
    8dc8:	ae 00 06 00 	adda	#6,	r14	;
    8dcc:	cd 0c       	mova	r12,	r13	;
    8dce:	7c 40 22 00 	mov.b	#34,	r12	;#0x0022
    8dd2:	b0 13 84 8c 	calla	#35972		;0x08c84
    8dd6:	cc 0a       	mova	r10,	r12	;
    8dd8:	b0 13 b2 c3 	calla	#50098		;0x0c3b2
    8ddc:	b0 13 da c0 	calla	#49370		;0x0c0da
    8de0:	b0 13 50 74 	calla	#29776		;0x07450
    8de4:	a1 00 0a 00 	adda	#10,	r1	;0x0000a
    8de8:	0a 16       	popm.a	#1,	r10	;20-bit words
    8dea:	10 01       	reta			;

00008dec <set_rx_dev>:
    8dec:	0a 14       	pushm.a	#1,	r10	;20-bit words
    8dee:	b1 00 0a 00 	suba	#10,	r1	;0x0000a
    8df2:	ca 0c       	mova	r12,	r10	;
    8df4:	a1 4d 06 00 	mov	@r13,	6(r1)	;
    8df8:	91 4d 02 00 	mov	2(r13),	8(r1)	;
    8dfc:	08 00 
    8dfe:	b1 40 e8 80 	mov	#33000,	2(r1)	;#0x80e8
    8e02:	02 00 
    8e04:	81 43 04 00 	mov	#0,	4(r1)	;r3 As==00
    8e08:	b1 40 03 00 	mov	#3,	0(r1)	;
    8e0c:	00 00 
    8e0e:	3f 40 40 0d 	mov	#3392,	r15	;#0x0d40
    8e12:	ce 01       	mova	r1,	r14	;
    8e14:	ae 00 06 00 	adda	#6,	r14	;
    8e18:	cd 0c       	mova	r12,	r13	;
    8e1a:	7c 40 0c 00 	mov.b	#12,	r12	;#0x000c
    8e1e:	b0 13 84 8c 	calla	#35972		;0x08c84
    8e22:	cc 0a       	mova	r10,	r12	;
    8e24:	b0 13 b2 c3 	calla	#50098		;0x0c3b2
    8e28:	b0 13 da c0 	calla	#49370		;0x0c0da
    8e2c:	7c 40 20 00 	mov.b	#32,	r12	;#0x0020
    8e30:	4d 43       	clr.b	r13		;
    8e32:	b0 13 06 b4 	calla	#46086		;0x0b406
    8e36:	7c 40 ca ff 	mov.b	#65482,	r12	;#0xffca
    8e3a:	b0 13 9c a3 	calla	#41884		;0x0a39c
    8e3e:	a1 00 0a 00 	adda	#10,	r1	;0x0000a
    8e42:	0a 16       	popm.a	#1,	r10	;20-bit words
    8e44:	10 01       	reta			;

00008e46 <set_tx_dev>:
    8e46:	0a 14       	pushm.a	#1,	r10	;20-bit words
    8e48:	b1 00 0a 00 	suba	#10,	r1	;0x0000a
    8e4c:	ca 0c       	mova	r12,	r10	;
    8e4e:	a1 4d 06 00 	mov	@r13,	6(r1)	;
    8e52:	91 4d 02 00 	mov	2(r13),	8(r1)	;
    8e56:	08 00 
    8e58:	b1 40 58 02 	mov	#600,	2(r1)	;#0x0258
    8e5c:	02 00 
    8e5e:	81 43 04 00 	mov	#0,	4(r1)	;r3 As==00
    8e62:	b1 40 03 00 	mov	#3,	0(r1)	;
    8e66:	00 00 
    8e68:	3f 40 40 0d 	mov	#3392,	r15	;#0x0d40
    8e6c:	ce 01       	mova	r1,	r14	;
    8e6e:	ae 00 06 00 	adda	#6,	r14	;
    8e72:	cd 0c       	mova	r12,	r13	;
    8e74:	7c 42       	mov.b	#8,	r12	;r2 As==11
    8e76:	b0 13 84 8c 	calla	#35972		;0x08c84
    8e7a:	cc 0a       	mova	r10,	r12	;
    8e7c:	b0 13 b2 c3 	calla	#50098		;0x0c3b2
    8e80:	b0 13 da c0 	calla	#49370		;0x0c0da
    8e84:	7c 40 10 00 	mov.b	#16,	r12	;#0x0010
    8e88:	4d 43       	clr.b	r13		;
    8e8a:	b0 13 06 b4 	calla	#46086		;0x0b406
    8e8e:	7c 40 c9 ff 	mov.b	#65481,	r12	;#0xffc9
    8e92:	b0 13 9c a3 	calla	#41884		;0x0a39c
    8e96:	a1 00 0a 00 	adda	#10,	r1	;0x0000a
    8e9a:	0a 16       	popm.a	#1,	r10	;20-bit words
    8e9c:	10 01       	reta			;

00008e9e <set_rx_br>:
    8e9e:	0a 14       	pushm.a	#1,	r10	;20-bit words
    8ea0:	b1 00 0a 00 	suba	#10,	r1	;0x0000a
    8ea4:	ca 0c       	mova	r12,	r10	;
    8ea6:	a1 4d 06 00 	mov	@r13,	6(r1)	;
    8eaa:	91 4d 02 00 	mov	2(r13),	8(r1)	;
    8eae:	08 00 
    8eb0:	b1 40 0c 03 	mov	#780,	2(r1)	;#0x030c
    8eb4:	02 00 
    8eb6:	81 43 04 00 	mov	#0,	4(r1)	;r3 As==00
    8eba:	a1 43 00 00 	mov	#2,	0(r1)	;r3 As==10
    8ebe:	3f 40 f0 49 	mov	#18928,	r15	;#0x49f0
    8ec2:	ce 01       	mova	r1,	r14	;
    8ec4:	ae 00 06 00 	adda	#6,	r14	;
    8ec8:	cd 0c       	mova	r12,	r13	;
    8eca:	7c 40 1c 00 	mov.b	#28,	r12	;#0x001c
    8ece:	b0 13 84 8c 	calla	#35972		;0x08c84
    8ed2:	cc 0a       	mova	r10,	r12	;
    8ed4:	b0 13 b2 c3 	calla	#50098		;0x0c3b2
    8ed8:	b0 13 da c0 	calla	#49370		;0x0c0da
    8edc:	7c 42       	mov.b	#8,	r12	;r2 As==11
    8ede:	4d 43       	clr.b	r13		;
    8ee0:	b0 13 06 b4 	calla	#46086		;0x0b406
    8ee4:	7c 40 c8 ff 	mov.b	#65480,	r12	;#0xffc8
    8ee8:	b0 13 9c a3 	calla	#41884		;0x0a39c
    8eec:	a1 00 0a 00 	adda	#10,	r1	;0x0000a
    8ef0:	0a 16       	popm.a	#1,	r10	;20-bit words
    8ef2:	10 01       	reta			;

00008ef4 <set_tx_br>:
    8ef4:	0a 14       	pushm.a	#1,	r10	;20-bit words
    8ef6:	b1 00 0a 00 	suba	#10,	r1	;0x0000a
    8efa:	ca 0c       	mova	r12,	r10	;
    8efc:	a1 4d 06 00 	mov	@r13,	6(r1)	;
    8f00:	91 4d 02 00 	mov	2(r13),	8(r1)	;
    8f04:	08 00 
    8f06:	b1 40 b0 04 	mov	#1200,	2(r1)	;#0x04b0
    8f0a:	02 00 
    8f0c:	81 43 04 00 	mov	#0,	4(r1)	;r3 As==00
    8f10:	a1 42 00 00 	mov	#4,	0(r1)	;r2 As==10
    8f14:	3f 40 e0 93 	mov	#37856,	r15	;#0x93e0
    8f18:	ce 01       	mova	r1,	r14	;
    8f1a:	ae 00 06 00 	adda	#6,	r14	;
    8f1e:	cd 0c       	mova	r12,	r13	;
    8f20:	7c 40 18 00 	mov.b	#24,	r12	;#0x0018
    8f24:	b0 13 84 8c 	calla	#35972		;0x08c84
    8f28:	cc 0a       	mova	r10,	r12	;
    8f2a:	b0 13 b2 c3 	calla	#50098		;0x0c3b2
    8f2e:	b0 13 da c0 	calla	#49370		;0x0c0da
    8f32:	6c 42       	mov.b	#4,	r12	;r2 As==10
    8f34:	4d 43       	clr.b	r13		;
    8f36:	b0 13 06 b4 	calla	#46086		;0x0b406
    8f3a:	7c 40 c7 ff 	mov.b	#65479,	r12	;#0xffc7
    8f3e:	b0 13 9c a3 	calla	#41884		;0x0a39c
    8f42:	a1 00 0a 00 	adda	#10,	r1	;0x0000a
    8f46:	0a 16       	popm.a	#1,	r10	;20-bit words
    8f48:	10 01       	reta			;

00008f4a <set_rx_freq>:
    8f4a:	0a 14       	pushm.a	#1,	r10	;20-bit words
    8f4c:	b1 00 0a 00 	suba	#10,	r1	;0x0000a
    8f50:	ca 0c       	mova	r12,	r10	;
    8f52:	a1 4d 06 00 	mov	@r13,	6(r1)	;
    8f56:	91 4d 02 00 	mov	2(r13),	8(r1)	;
    8f5a:	08 00 
    8f5c:	b1 40 40 44 	mov	#17472,	2(r1)	;#0x4440
    8f60:	02 00 
    8f62:	b1 40 3d 1b 	mov	#6973,	4(r1)	;#0x1b3d
    8f66:	04 00 
    8f68:	b1 40 12 1c 	mov	#7186,	0(r1)	;#0x1c12
    8f6c:	00 00 
    8f6e:	3f 40 c0 e3 	mov	#58304,	r15	;#0xe3c0
    8f72:	ce 01       	mova	r1,	r14	;
    8f74:	ae 00 06 00 	adda	#6,	r14	;
    8f78:	cd 0c       	mova	r12,	r13	;
    8f7a:	6c 42       	mov.b	#4,	r12	;r2 As==10
    8f7c:	b0 13 84 8c 	calla	#35972		;0x08c84
    8f80:	cc 0a       	mova	r10,	r12	;
    8f82:	b0 13 b2 c3 	calla	#50098		;0x0c3b2
    8f86:	b0 13 da c0 	calla	#49370		;0x0c0da
    8f8a:	6c 43       	mov.b	#2,	r12	;r3 As==10
    8f8c:	4d 43       	clr.b	r13		;
    8f8e:	b0 13 06 b4 	calla	#46086		;0x0b406
    8f92:	7c 40 c6 ff 	mov.b	#65478,	r12	;#0xffc6
    8f96:	b0 13 9c a3 	calla	#41884		;0x0a39c
    8f9a:	a1 00 0a 00 	adda	#10,	r1	;0x0000a
    8f9e:	0a 16       	popm.a	#1,	r10	;20-bit words
    8fa0:	10 01       	reta			;

00008fa2 <set_tx_freq>:
    8fa2:	0a 14       	pushm.a	#1,	r10	;20-bit words
    8fa4:	b1 00 0a 00 	suba	#10,	r1	;0x0000a
    8fa8:	ca 0c       	mova	r12,	r10	;
    8faa:	a1 4d 06 00 	mov	@r13,	6(r1)	;
    8fae:	91 4d 02 00 	mov	2(r13),	8(r1)	;
    8fb2:	08 00 
    8fb4:	b1 40 40 da 	mov	#55872,	2(r1)	;#0xda40
    8fb8:	02 00 
    8fba:	b1 40 8e 33 	mov	#13198,	4(r1)	;#0x338e
    8fbe:	04 00 
    8fc0:	b1 40 ec 38 	mov	#14572,	0(r1)	;#0x38ec
    8fc4:	00 00 
    8fc6:	3f 40 c0 24 	mov	#9408,	r15	;#0x24c0
    8fca:	ce 01       	mova	r1,	r14	;
    8fcc:	ae 00 06 00 	adda	#6,	r14	;
    8fd0:	cd 0c       	mova	r12,	r13	;
    8fd2:	4c 43       	clr.b	r12		;
    8fd4:	b0 13 84 8c 	calla	#35972		;0x08c84
    8fd8:	cc 0a       	mova	r10,	r12	;
    8fda:	b0 13 b2 c3 	calla	#50098		;0x0c3b2
    8fde:	b0 13 da c0 	calla	#49370		;0x0c0da
    8fe2:	5c 43       	mov.b	#1,	r12	;r3 As==01
    8fe4:	4d 43       	clr.b	r13		;
    8fe6:	b0 13 06 b4 	calla	#46086		;0x0b406
    8fea:	7c 40 c5 ff 	mov.b	#65477,	r12	;#0xffc5
    8fee:	b0 13 9c a3 	calla	#41884		;0x0a39c
    8ff2:	a1 00 0a 00 	adda	#10,	r1	;0x0000a
    8ff6:	0a 16       	popm.a	#1,	r10	;20-bit words
    8ff8:	10 01       	reta			;

00008ffa <set_tx_pow>:
    8ffa:	5a 14       	pushm.a	#6,	r10	;20-bit words
    8ffc:	b1 00 04 00 	suba	#4,	r1	;
    9000:	ca 0c       	mova	r12,	r10	;
    9002:	29 4d       	mov	@r13,	r9	;
    9004:	15 4d 02 00 	mov	2(r13),	r5	;
    9008:	47 49       	mov.b	r9,	r7	;
    900a:	67 f3       	and.b	#2,	r7	;r3 As==10
    900c:	37 f0 ff 00 	and	#255,	r7	;#0x00ff
    9010:	07 93       	cmp	#0,	r7	;r3 As==00
    9012:	1d 20       	jnz	$+60     	;abs 0x904e
    9014:	6c 43       	mov.b	#2,	r12	;r3 As==10

00009016 <.L472>:
    9016:	40 18 0c 4c 	movx.w	r12,	r12	;
    901a:	ec 0a       	adda	r10,	r12	;
    901c:	6d 4c       	mov.b	@r12,	r13	;
    901e:	88 00 b2 c3 	mova	#50098,	r8	;0x0c3b2
    9022:	86 00 da c0 	mova	#49370,	r6	;0x0c0da
    9026:	7c 40 82 ff 	mov.b	#65410,	r12	;#0xff82
    902a:	4c 9d       	cmp.b	r13,	r12	;
    902c:	19 2c       	jc	$+52     	;abs 0x9060
    902e:	07 93       	cmp	#0,	r7	;r3 As==00
    9030:	11 24       	jz	$+36     	;abs 0x9054
    9032:	81 49 00 00 	mov	r9,	0(r1)	;
    9036:	81 45 02 00 	mov	r5,	2(r1)	;
    903a:	cc 01       	mova	r1,	r12	;
    903c:	b0 13 1c 81 	calla	#33052		;0x0811c

00009040 <.L477>:
    9040:	cc 0a       	mova	r10,	r12	;
    9042:	48 13       	calla	r8		;
    9044:	46 13       	calla	r6		;
    9046:	a1 00 04 00 	adda	#4,	r1	;
    904a:	55 16       	popm.a	#6,	r10	;20-bit words
    904c:	10 01       	reta			;

0000904e <.L478>:
    904e:	6c 42       	mov.b	#4,	r12	;r2 As==10
    9050:	80 00 16 90 	mova	#36886,	r0	;0x09016

00009054 <.L474>:
    9054:	7c 40 8c ff 	mov.b	#65420,	r12	;#0xff8c
    9058:	b0 13 96 a3 	calla	#41878		;0x0a396
    905c:	80 00 40 90 	mova	#36928,	r0	;0x09040

00009060 <.L473>:
    9060:	2c 01 40 08 	mova	&67648,	r12	;0x10840
    9064:	cc 4d 21 00 	mov.b	r13,	33(r12)	; 0x0021
    9068:	3c 40 00 01 	mov	#256,	r12	;#0x0100
    906c:	4d 43       	clr.b	r13		;
    906e:	b0 13 06 b4 	calla	#46086		;0x0b406
    9072:	07 93       	cmp	#0,	r7	;r3 As==00
    9074:	e5 27       	jz	$-52     	;abs 0x9040
    9076:	81 49 00 00 	mov	r9,	0(r1)	;
    907a:	81 45 02 00 	mov	r5,	2(r1)	;
    907e:	cc 01       	mova	r1,	r12	;
    9080:	b0 13 ea 7d 	calla	#32234		;0x07dea
    9084:	80 00 40 90 	mova	#36928,	r0	;0x09040

00009088 <set_gpo>:
    9088:	3a 14       	pushm.a	#4,	r10	;20-bit words
    908a:	b1 00 04 00 	suba	#4,	r1	;
    908e:	2a 4d       	mov	@r13,	r10	;
    9090:	18 4d 02 00 	mov	2(r13),	r8	;
    9094:	49 4a       	mov.b	r10,	r9	;
    9096:	69 f3       	and.b	#2,	r9	;r3 As==10
    9098:	39 f0 ff 00 	and	#255,	r9	;#0x00ff
    909c:	09 93       	cmp	#0,	r9	;r3 As==00
    909e:	17 20       	jnz	$+48     	;abs 0x90ce
    90a0:	6e 43       	mov.b	#2,	r14	;r3 As==10

000090a2 <.L483>:
    90a2:	ee 0c       	adda	r12,	r14	;
    90a4:	67 4e       	mov.b	@r14,	r7	;
    90a6:	b0 13 b2 c3 	calla	#50098		;0x0c3b2
    90aa:	b0 13 da c0 	calla	#49370		;0x0c0da
    90ae:	5c 43       	mov.b	#1,	r12	;r3 As==01
    90b0:	4c 97       	cmp.b	r7,	r12	;
    90b2:	16 2c       	jc	$+46     	;abs 0x90e0
    90b4:	09 93       	cmp	#0,	r9	;r3 As==00
    90b6:	0e 24       	jz	$+30     	;abs 0x90d4
    90b8:	81 4a 00 00 	mov	r10,	0(r1)	;
    90bc:	81 48 02 00 	mov	r8,	2(r1)	;
    90c0:	cc 01       	mova	r1,	r12	;
    90c2:	b0 13 1c 81 	calla	#33052		;0x0811c

000090c6 <.L482>:
    90c6:	a1 00 04 00 	adda	#4,	r1	;
    90ca:	37 16       	popm.a	#4,	r10	;20-bit words
    90cc:	10 01       	reta			;

000090ce <.L488>:
    90ce:	6e 42       	mov.b	#4,	r14	;r2 As==10
    90d0:	80 00 a2 90 	mova	#37026,	r0	;0x090a2

000090d4 <.L485>:
    90d4:	7c 40 8c ff 	mov.b	#65420,	r12	;#0xff8c
    90d8:	b0 13 96 a3 	calla	#41878		;0x0a396
    90dc:	80 00 c6 90 	mova	#37062,	r0	;0x090c6

000090e0 <.L484>:
    90e0:	2c 01 44 08 	mova	&67652,	r12	;0x10844
    90e4:	cc 97 61 00 	cmp.b	r7,	97(r12)	; 0x0061
    90e8:	16 24       	jz	$+46     	;abs 0x9116
    90ea:	0c 47       	mov	r7,	r12	;
    90ec:	4c 18 0c 5c 	rpt #13 { rlax.w	r12		;
    90f0:	3c f0 00 20 	and	#8192,	r12	;#0x2000
    90f4:	40 18 1d 42 	movx.w	&0x00222,r13	;
    90f8:	22 02 
    90fa:	3d f0 ff df 	and	#57343,	r13	;#0xdfff
    90fe:	0c dd       	bis	r13,	r12	;
    9100:	40 18 82 4c 	movx.w	r12,	&0x00222;
    9104:	22 02 
    9106:	7c 40 c3 ff 	mov.b	#65475,	r12	;#0xffc3
    910a:	b0 13 9c a3 	calla	#41884		;0x0a39c
    910e:	2c 01 40 08 	mova	&67648,	r12	;0x10840
    9112:	cc 47 61 00 	mov.b	r7,	97(r12)	; 0x0061

00009116 <.L487>:
    9116:	09 93       	cmp	#0,	r9	;r3 As==00
    9118:	d6 27       	jz	$-82     	;abs 0x90c6
    911a:	81 4a 00 00 	mov	r10,	0(r1)	;
    911e:	81 48 02 00 	mov	r8,	2(r1)	;
    9122:	cc 01       	mova	r1,	r12	;
    9124:	b0 13 ea 7d 	calla	#32234		;0x07dea
    9128:	80 00 c6 90 	mova	#37062,	r0	;0x090c6

0000912c <get_log>:
    912c:	6a 14       	pushm.a	#7,	r10	;20-bit words
    912e:	c8 0c       	mova	r12,	r8	;
    9130:	25 4d       	mov	@r13,	r5	;
    9132:	19 4d 02 00 	mov	2(r13),	r9	;
    9136:	07 45       	mov	r5,	r7	;
    9138:	57 07       	rrum	#2,	r7	;
    913a:	77 f0 3f 00 	and.b	#63,	r7	;#0x003f
    913e:	8a 00 b2 c3 	mova	#50098,	r10	;0x0c3b2
    9142:	4a 13       	calla	r10		;
    9144:	86 00 da c0 	mova	#49370,	r6	;0x0c0da
    9148:	46 13       	calla	r6		;
    914a:	35 f0 ff 00 	and	#255,	r5	;#0x00ff
    914e:	40 18 25 b3 	bitx.w	#2,	r5	;r3 As==10
    9152:	09 24       	jz	$+20     	;abs 0x9166
    9154:	b0 13 a8 76 	calla	#30376		;0x076a8
    9158:	c4 0c       	mova	r12,	r4	;
    915a:	9c 00 00 00 	cmpa	#0,	r12	;
    915e:	05 20       	jnz	$+12     	;abs 0x916a
    9160:	cc 08       	mova	r8,	r12	;
    9162:	4a 13       	calla	r10		;
    9164:	46 13       	calla	r6		;

00009166 <.L492>:
    9166:	64 16       	popm.a	#7,	r10	;20-bit words
    9168:	10 01       	reta			;

0000916a <.L494>:
    916a:	cc 47 00 00 	mov.b	r7,	0(r12)	;
    916e:	2e 01 44 08 	mova	&67652,	r14	;0x10844
    9172:	dc 4e 51 00 	mov.b	81(r14),2(r12)	;0x00051
    9176:	02 00 
    9178:	dc 4e 50 00 	mov.b	80(r14),3(r12)	;0x00050
    917c:	03 00 
    917e:	dc 4e 4d 00 	mov.b	77(r14),4(r12)	;0x0004d
    9182:	04 00 
    9184:	40 18 15 b3 	bitx.w	#1,	r5	;r3 As==01
    9188:	0d 24       	jz	$+28     	;abs 0x91a4
    918a:	fc 40 03 00 	mov.b	#3,	1(r12)	;
    918e:	01 00 
    9190:	7d 40 07 00 	mov.b	#7,	r13	;
    9194:	b0 13 36 a8 	calla	#43062		;0x0a836

00009198 <.L496>:
    9198:	0d 49       	mov	r9,	r13	;
    919a:	cc 04       	mova	r4,	r12	;
    919c:	b0 13 3c 7d 	calla	#32060		;0x07d3c
    91a0:	80 00 66 91 	mova	#37222,	r0	;0x09166

000091a4 <.L495>:
    91a4:	dc 43 01 00 	mov.b	#1,	1(r12)	;r3 As==01
    91a8:	80 00 98 91 	mova	#37272,	r0	;0x09198

000091ac <get_err>:
    91ac:	5a 14       	pushm.a	#6,	r10	;20-bit words
    91ae:	c8 0c       	mova	r12,	r8	;
    91b0:	25 4d       	mov	@r13,	r5	;
    91b2:	19 4d 02 00 	mov	2(r13),	r9	;
    91b6:	07 45       	mov	r5,	r7	;
    91b8:	57 07       	rrum	#2,	r7	;
    91ba:	77 f0 3f 00 	and.b	#63,	r7	;#0x003f
    91be:	35 f0 ff 00 	and	#255,	r5	;#0x00ff
    91c2:	8a 00 b2 c3 	mova	#50098,	r10	;0x0c3b2
    91c6:	40 18 25 b3 	bitx.w	#2,	r5	;r3 As==10
    91ca:	06 24       	jz	$+14     	;abs 0x91d8
    91cc:	b0 13 a8 76 	calla	#30376		;0x076a8
    91d0:	c6 0c       	mova	r12,	r6	;
    91d2:	9c 00 00 00 	cmpa	#0,	r12	;
    91d6:	06 20       	jnz	$+14     	;abs 0x91e4

000091d8 <.L501>:
    91d8:	cc 08       	mova	r8,	r12	;
    91da:	4a 13       	calla	r10		;
    91dc:	b0 13 da c0 	calla	#49370		;0x0c0da
    91e0:	55 16       	popm.a	#6,	r10	;20-bit words
    91e2:	10 01       	reta			;

000091e4 <.L502>:
    91e4:	cc 47 00 00 	mov.b	r7,	0(r12)	;
    91e8:	2e 01 44 08 	mova	&67652,	r14	;0x10844
    91ec:	dc 4e 51 00 	mov.b	81(r14),2(r12)	;0x00051
    91f0:	02 00 
    91f2:	dc 4e 50 00 	mov.b	80(r14),3(r12)	;0x00050
    91f6:	03 00 
    91f8:	dc 4e 4c 00 	mov.b	76(r14),4(r12)	;0x0004c
    91fc:	04 00 
    91fe:	40 18 15 b3 	bitx.w	#1,	r5	;r3 As==01
    9202:	0d 24       	jz	$+28     	;abs 0x921e
    9204:	fc 40 03 00 	mov.b	#3,	1(r12)	;
    9208:	01 00 
    920a:	7d 40 07 00 	mov.b	#7,	r13	;
    920e:	b0 13 36 a8 	calla	#43062		;0x0a836

00009212 <.L505>:
    9212:	0d 49       	mov	r9,	r13	;
    9214:	cc 06       	mova	r6,	r12	;
    9216:	b0 13 3c 7d 	calla	#32060		;0x07d3c
    921a:	80 00 d8 91 	mova	#37336,	r0	;0x091d8

0000921e <.L504>:
    921e:	dc 43 01 00 	mov.b	#1,	1(r12)	;r3 As==01
    9222:	80 00 12 92 	mova	#37394,	r0	;0x09212

00009226 <get_time>:
    9226:	4a 14       	pushm.a	#5,	r10	;20-bit words
    9228:	27 4d       	mov	@r13,	r7	;
    922a:	19 4d 02 00 	mov	2(r13),	r9	;
    922e:	08 47       	mov	r7,	r8	;
    9230:	58 07       	rrum	#2,	r8	;
    9232:	78 f0 3f 00 	and.b	#63,	r8	;#0x003f
    9236:	06 47       	mov	r7,	r6	;
    9238:	56 0f       	rrum	#4,	r6	;
    923a:	56 0f       	rrum	#4,	r6	;
    923c:	b0 13 b2 c3 	calla	#50098		;0x0c3b2
    9240:	b0 13 da c0 	calla	#49370		;0x0c0da
    9244:	37 f0 ff 00 	and	#255,	r7	;#0x00ff
    9248:	40 18 27 b3 	bitx.w	#2,	r7	;r3 As==10
    924c:	32 24       	jz	$+102    	;abs 0x92b2
    924e:	b0 13 a8 76 	calla	#30376		;0x076a8
    9252:	ca 0c       	mova	r12,	r10	;
    9254:	9c 00 00 00 	cmpa	#0,	r12	;
    9258:	2c 24       	jz	$+90     	;abs 0x92b2
    925a:	cc 48 00 00 	mov.b	r8,	0(r12)	;
    925e:	28 01 44 08 	mova	&67652,	r8	;0x10844
    9262:	dc 48 51 00 	mov.b	81(r8),	2(r12)	;0x00051
    9266:	02 00 
    9268:	dc 48 50 00 	mov.b	80(r8),	3(r12)	;0x00050
    926c:	03 00 
    926e:	66 53       	incd.b	r6		;
    9270:	cc 46 01 00 	mov.b	r6,	1(r12)	;
    9274:	cc 08       	mova	r8,	r12	;
    9276:	ac 00 76 00 	adda	#118,	r12	;0x00076
    927a:	ce 0a       	mova	r10,	r14	;
    927c:	ae 00 04 00 	adda	#4,	r14	;
    9280:	a8 00 72 00 	adda	#114,	r8	;0x00072

00009284 <.L513>:
    9284:	ee 4c 00 00 	mov.b	@r12,	0(r14)	;
    9288:	ac 0f ff ff 	adda	#1048575,r12	;0xfffff
    928c:	ae 00 01 00 	adda	#1,	r14	;
    9290:	dc 08       	cmpa	r8,	r12	;
    9292:	f8 23       	jnz	$-14     	;abs 0x9284
    9294:	40 18 17 b3 	bitx.w	#1,	r7	;r3 As==01
    9298:	08 24       	jz	$+18     	;abs 0x92aa
    929a:	5d 4a 01 00 	mov.b	1(r10),	r13	;
    929e:	2d 52       	add	#4,	r13	;r2 As==10
    92a0:	40 18 0d 4d 	movx.w	r13,	r13	;
    92a4:	cc 0a       	mova	r10,	r12	;
    92a6:	b0 13 36 a8 	calla	#43062		;0x0a836

000092aa <.L514>:
    92aa:	0d 49       	mov	r9,	r13	;
    92ac:	cc 0a       	mova	r10,	r12	;
    92ae:	b0 13 3c 7d 	calla	#32060		;0x07d3c

000092b2 <.L509>:
    92b2:	46 16       	popm.a	#5,	r10	;20-bit words
    92b4:	10 01       	reta			;

000092b6 <set_time>:
    92b6:	5a 14       	pushm.a	#6,	r10	;20-bit words
    92b8:	2a 4d       	mov	@r13,	r10	;
    92ba:	19 4d 02 00 	mov	2(r13),	r9	;
    92be:	05 4a       	mov	r10,	r5	;
    92c0:	55 07       	rrum	#2,	r5	;
    92c2:	75 f0 3f 00 	and.b	#63,	r5	;#0x003f
    92c6:	06 4a       	mov	r10,	r6	;
    92c8:	56 0f       	rrum	#4,	r6	;
    92ca:	56 0f       	rrum	#4,	r6	;
    92cc:	3a f0 ff 00 	and	#255,	r10	;#0x00ff
    92d0:	47 4a       	mov.b	r10,	r7	;
    92d2:	67 f3       	and.b	#2,	r7	;r3 As==10
    92d4:	37 f0 ff 00 	and	#255,	r7	;#0x00ff
    92d8:	07 93       	cmp	#0,	r7	;r3 As==00
    92da:	3a 24       	jz	$+118    	;abs 0x9350
    92dc:	6e 42       	mov.b	#4,	r14	;r2 As==10

000092de <.L523>:
    92de:	28 01 40 08 	mova	&67648,	r8	;0x10840
    92e2:	40 18 0e 4e 	movx.w	r14,	r14	;
    92e6:	ee 0c       	adda	r12,	r14	;
    92e8:	e8 4e 76 00 	mov.b	@r14,	118(r8)	; 0x0076
    92ec:	d8 4e 01 00 	mov.b	1(r14),	117(r8)	; 0x0075
    92f0:	75 00 
    92f2:	d8 4e 02 00 	mov.b	2(r14),	116(r8)	; 0x0074
    92f6:	74 00 
    92f8:	d8 4e 03 00 	mov.b	3(r14),	115(r8)	; 0x0073
    92fc:	73 00 
    92fe:	b0 13 b2 c3 	calla	#50098		;0x0c3b2
    9302:	b0 13 da c0 	calla	#49370		;0x0c0da
    9306:	07 93       	cmp	#0,	r7	;r3 As==00
    9308:	21 24       	jz	$+68     	;abs 0x934c
    930a:	b0 13 a8 76 	calla	#30376		;0x076a8
    930e:	c8 0c       	mova	r12,	r8	;
    9310:	9c 00 00 00 	cmpa	#0,	r12	;
    9314:	1b 24       	jz	$+56     	;abs 0x934c
    9316:	cc 45 00 00 	mov.b	r5,	0(r12)	;
    931a:	2e 01 44 08 	mova	&67652,	r14	;0x10844
    931e:	dc 4e 51 00 	mov.b	81(r14),2(r12)	;0x00051
    9322:	02 00 
    9324:	dc 4e 50 00 	mov.b	80(r14),3(r12)	;0x00050
    9328:	03 00 
    932a:	76 50 fe ff 	add.b	#65534,	r6	;#0xfffe
    932e:	4d 46       	mov.b	r6,	r13	;
    9330:	cc 46 01 00 	mov.b	r6,	1(r12)	;
    9334:	40 18 1a b3 	bitx.w	#1,	r10	;r3 As==01
    9338:	05 24       	jz	$+12     	;abs 0x9344
    933a:	2d 52       	add	#4,	r13	;r2 As==10
    933c:	4d 0e       	rlam.a	#4,	r13	;
    933e:	4d 0d       	rram.a	#4,	r13	;
    9340:	b0 13 36 a8 	calla	#43062		;0x0a836

00009344 <.L527>:
    9344:	0d 49       	mov	r9,	r13	;
    9346:	cc 08       	mova	r8,	r12	;
    9348:	b0 13 3c 7d 	calla	#32060		;0x07d3c

0000934c <.L522>:
    934c:	55 16       	popm.a	#6,	r10	;20-bit words
    934e:	10 01       	reta			;

00009350 <.L528>:
    9350:	6e 43       	mov.b	#2,	r14	;r3 As==10
    9352:	80 00 de 92 	mova	#37598,	r0	;0x092de

00009356 <get_chan>:
    9356:	6a 14       	pushm.a	#7,	r10	;20-bit words
    9358:	b1 00 04 00 	suba	#4,	r1	;
    935c:	ca 0c       	mova	r12,	r10	;
    935e:	2e 4d       	mov	@r13,	r14	;
    9360:	17 4d 02 00 	mov	2(r13),	r7	;
    9364:	09 4e       	mov	r14,	r9	;
    9366:	59 07       	rrum	#2,	r9	;
    9368:	79 f0 3f 00 	and.b	#63,	r9	;#0x003f
    936c:	45 4e       	mov.b	r14,	r5	;
    936e:	88 00 b2 c3 	mova	#50098,	r8	;0x0c3b2
    9372:	86 00 da c0 	mova	#49370,	r6	;0x0c0da
    9376:	40 18 25 b3 	bitx.w	#2,	r5	;r3 As==10
    937a:	1d 24       	jz	$+60     	;abs 0x93b6
    937c:	5c 4c 04 00 	mov.b	4(r12),	r12	;
    9380:	4d 4c       	mov.b	r12,	r13	;
    9382:	7d 50 c0 ff 	add.b	#65472,	r13	;#0xffc0
    9386:	7f 40 36 00 	mov.b	#54,	r15	;#0x0036
    938a:	4f 9d       	cmp.b	r13,	r15	;
    938c:	0c 28       	jnc	$+26     	;abs 0x93a6
    938e:	7d 50 ef ff 	add.b	#65519,	r13	;#0xffef
    9392:	7f 40 0e 00 	mov.b	#14,	r15	;#0x000e
    9396:	4f 9d       	cmp.b	r13,	r15	;
    9398:	06 2c       	jc	$+14     	;abs 0x93a6
    939a:	7c 50 9d ff 	add.b	#65437,	r12	;#0xff9d
    939e:	7d 40 0c 00 	mov.b	#12,	r13	;#0x000c
    93a2:	4d 9c       	cmp.b	r12,	r13	;
    93a4:	0c 28       	jnc	$+26     	;abs 0x93be

000093a6 <.L537>:
    93a6:	81 4e 00 00 	mov	r14,	0(r1)	;
    93aa:	81 47 02 00 	mov	r7,	2(r1)	;
    93ae:	cc 01       	mova	r1,	r12	;
    93b0:	b0 13 1c 81 	calla	#33052		;0x0811c

000093b4 <.L543>:
    93b4:	cc 0a       	mova	r10,	r12	;

000093b6 <.L536>:
    93b6:	48 13       	calla	r8		;
    93b8:	46 13       	calla	r6		;
    93ba:	80 00 20 94 	mova	#37920,	r0	;0x09420

000093be <.L538>:
    93be:	b0 13 a8 76 	calla	#30376		;0x076a8
    93c2:	c4 0c       	mova	r12,	r4	;
    93c4:	9c 00 00 00 	cmpa	#0,	r12	;
    93c8:	f5 27       	jz	$-20     	;abs 0x93b4
    93ca:	cc 49 00 00 	mov.b	r9,	0(r12)	;
    93ce:	2c 01 44 08 	mova	&67652,	r12	;0x10844
    93d2:	d4 4c 51 00 	mov.b	81(r12),2(r4)	;0x00051
    93d6:	02 00 
    93d8:	d4 4c 50 00 	mov.b	80(r12),3(r4)	;0x00050
    93dc:	03 00 
    93de:	5d 4a 04 00 	mov.b	4(r10),	r13	;
    93e2:	cc 04       	mova	r4,	r12	;
    93e4:	ac 00 04 00 	adda	#4,	r12	;
    93e8:	b0 13 b0 a3 	calla	#41904		;0x0a3b0
    93ec:	c9 0c       	mova	r12,	r9	;
    93ee:	cc 0a       	mova	r10,	r12	;
    93f0:	48 13       	calla	r8		;
    93f2:	46 13       	calla	r6		;
    93f4:	09 14       	pushm.a	#1,	r9	;20-bit words
    93f6:	40 18 3c 41 	popx.w	r12		;
    93fa:	40 18 3d 41 	popx.w	r13		;
    93fe:	40 18 15 b3 	bitx.w	#1,	r5	;r3 As==01
    9402:	12 24       	jz	$+38     	;abs 0x9428
    9404:	7c 50 03 00 	add.b	#3,	r12	;
    9408:	c4 4c 01 00 	mov.b	r12,	1(r4)	;
    940c:	cd 09       	mova	r9,	r13	;
    940e:	ad 00 07 00 	adda	#7,	r13	;
    9412:	cc 04       	mova	r4,	r12	;
    9414:	b0 13 36 a8 	calla	#43062		;0x0a836

00009418 <.L542>:
    9418:	0d 47       	mov	r7,	r13	;
    941a:	cc 04       	mova	r4,	r12	;
    941c:	b0 13 3c 7d 	calla	#32060		;0x07d3c

00009420 <.L535>:
    9420:	a1 00 04 00 	adda	#4,	r1	;
    9424:	64 16       	popm.a	#7,	r10	;20-bit words
    9426:	10 01       	reta			;

00009428 <.L541>:
    9428:	5c 53       	inc.b	r12		;
    942a:	c4 4c 01 00 	mov.b	r12,	1(r4)	;
    942e:	80 00 18 94 	mova	#37912,	r0	;0x09418

00009432 <get_u32>:
    9432:	6a 14       	pushm.a	#7,	r10	;20-bit words
    9434:	b1 00 0e 00 	suba	#14,	r1	;0x0000e
    9438:	46 4c       	mov.b	r12,	r6	;
    943a:	2c 4d       	mov	@r13,	r12	;
    943c:	91 4d 02 00 	mov	2(r13),	12(r1)	; 0x000c
    9440:	0c 00 
    9442:	07 4e       	mov	r14,	r7	;
    9444:	08 4f       	mov	r15,	r8	;
    9446:	91 41 2e 00 	mov	46(r1),	8(r1)	;0x0002e
    944a:	08 00 
    944c:	15 41 30 00 	mov	48(r1),	r5	;0x00030
    9450:	09 4c       	mov	r12,	r9	;
    9452:	59 07       	rrum	#2,	r9	;
    9454:	79 f0 3f 00 	and.b	#63,	r9	;#0x003f
    9458:	3c f0 ff 00 	and	#255,	r12	;#0x00ff
    945c:	81 4c 0a 00 	mov	r12,	10(r1)	; 0x000a
    9460:	40 18 2c b3 	bitx.w	#2,	r12	;r3 As==10
    9464:	71 24       	jz	$+228    	;abs 0x9548
    9466:	b0 13 a8 76 	calla	#30376		;0x076a8
    946a:	ca 0c       	mova	r12,	r10	;
    946c:	9c 00 00 00 	cmpa	#0,	r12	;
    9470:	6b 24       	jz	$+216    	;abs 0x9548
    9472:	cc 49 00 00 	mov.b	r9,	0(r12)	;
    9476:	2c 01 44 08 	mova	&67652,	r12	;0x10844
    947a:	da 4c 51 00 	mov.b	81(r12),2(r10)	;0x00051
    947e:	02 00 
    9480:	da 4c 50 00 	mov.b	80(r12),3(r10)	;0x00050
    9484:	03 00 
    9486:	00 18 c1 46 	movx.a	r6,	4(r1)	;
    948a:	04 00 
    948c:	3b 01 04 00 	mova	4(r1),	r11	;
    9490:	eb 0c       	adda	r12,	r11	;
    9492:	44 43       	clr.b	r4		;
    9494:	09 44       	mov	r4,	r9	;
    9496:	06 44       	mov	r4,	r6	;

00009498 <.L548>:
    9498:	6c 4b       	mov.b	@r11,	r12	;
    949a:	0d 43       	clr	r13		;
    949c:	0e 44       	mov	r4,	r14	;
    949e:	0f 43       	clr	r15		;
    94a0:	71 0b 00 00 	mova	r11,	0(r1)	;
    94a4:	b0 13 e6 c4 	calla	#50406		;0x0c4e6
    94a8:	0c d9       	bis	r9,	r12	;
    94aa:	0d d6       	bis	r6,	r13	;
    94ac:	09 4c       	mov	r12,	r9	;
    94ae:	06 4d       	mov	r13,	r6	;
    94b0:	0b 01       	mova	@r1,	r11	;
    94b2:	ab 00 01 00 	adda	#1,	r11	;
    94b6:	34 52       	add	#8,	r4	;r2 As==11
    94b8:	34 90 20 00 	cmp	#32,	r4	;#0x0020
    94bc:	ed 23       	jnz	$-36     	;abs 0x9498
    94be:	08 9d       	cmp	r13,	r8	;
    94c0:	04 28       	jnc	$+10     	;abs 0x94ca
    94c2:	0d 98       	cmp	r8,	r13	;
    94c4:	45 20       	jnz	$+140    	;abs 0x9550
    94c6:	07 9c       	cmp	r12,	r7	;
    94c8:	43 2c       	jc	$+136    	;abs 0x9550

000094ca <.L557>:
    94ca:	36 01 04 00 	mova	4(r1),	r6	;
    94ce:	80 18 56 52 	addx.a	&0x10840,r6	;
    94d2:	40 08 
    94d4:	49 43       	clr.b	r9		;

000094d6 <.L551>:
    94d6:	0c 47       	mov	r7,	r12	;
    94d8:	0d 48       	mov	r8,	r13	;
    94da:	0e 49       	mov	r9,	r14	;
    94dc:	0f 43       	clr	r15		;
    94de:	b0 13 0e c6 	calla	#50702		;0x0c60e
    94e2:	c6 4c 00 00 	mov.b	r12,	0(r6)	;
    94e6:	39 52       	add	#8,	r9	;r2 As==11
    94e8:	a6 00 01 00 	adda	#1,	r6	;
    94ec:	39 90 20 00 	cmp	#32,	r9	;#0x0020
    94f0:	f2 23       	jnz	$-26     	;abs 0x94d6
    94f2:	09 47       	mov	r7,	r9	;
    94f4:	06 48       	mov	r8,	r6	;

000094f6 <.L552>:
    94f6:	0c 49       	mov	r9,	r12	;
    94f8:	0d 46       	mov	r6,	r13	;
    94fa:	7e 40 18 00 	mov.b	#24,	r14	;#0x0018
    94fe:	b0 13 0e c6 	calla	#50702		;0x0c60e
    9502:	ca 4c 04 00 	mov.b	r12,	4(r10)	;
    9506:	0c 49       	mov	r9,	r12	;
    9508:	0d 46       	mov	r6,	r13	;
    950a:	7e 40 10 00 	mov.b	#16,	r14	;#0x0010
    950e:	b0 13 0e c6 	calla	#50702		;0x0c60e
    9512:	ca 4c 05 00 	mov.b	r12,	5(r10)	;
    9516:	0c 49       	mov	r9,	r12	;
    9518:	0d 46       	mov	r6,	r13	;
    951a:	b0 13 d4 c5 	calla	#50644		;0x0c5d4
    951e:	ca 4c 06 00 	mov.b	r12,	6(r10)	;
    9522:	ca 49 07 00 	mov.b	r9,	7(r10)	;
    9526:	40 18 91 b3 	bitx.w	#1,	10(r1)	;r3 As==01, 0x0000a
    952a:	0a 00 
    952c:	32 24       	jz	$+102    	;abs 0x9592
    952e:	fa 40 06 00 	mov.b	#6,	1(r10)	;
    9532:	01 00 
    9534:	7d 40 0a 00 	mov.b	#10,	r13	;#0x000a
    9538:	cc 0a       	mova	r10,	r12	;
    953a:	b0 13 36 a8 	calla	#43062		;0x0a836

0000953e <.L556>:
    953e:	1d 41 0c 00 	mov	12(r1),	r13	;0x0000c
    9542:	cc 0a       	mova	r10,	r12	;
    9544:	b0 13 3c 7d 	calla	#32060		;0x07d3c

00009548 <.L544>:
    9548:	a1 00 0e 00 	adda	#14,	r1	;0x0000e
    954c:	64 16       	popm.a	#7,	r10	;20-bit words
    954e:	10 01       	reta			;

00009550 <.L549>:
    9550:	0d 95       	cmp	r5,	r13	;
    9552:	05 28       	jnc	$+12     	;abs 0x955e
    9554:	05 9d       	cmp	r13,	r5	;
    9556:	cf 23       	jnz	$-96     	;abs 0x94f6
    9558:	1c 91 08 00 	cmp	8(r1),	r12	;
    955c:	cc 2f       	jc	$-102    	;abs 0x94f6

0000955e <.L558>:
    955e:	36 01 04 00 	mova	4(r1),	r6	;
    9562:	80 18 56 52 	addx.a	&0x10840,r6	;
    9566:	40 08 
    9568:	49 43       	clr.b	r9		;

0000956a <.L554>:
    956a:	1c 41 08 00 	mov	8(r1),	r12	;
    956e:	0d 45       	mov	r5,	r13	;
    9570:	0e 49       	mov	r9,	r14	;
    9572:	0f 43       	clr	r15		;
    9574:	b0 13 0e c6 	calla	#50702		;0x0c60e
    9578:	c6 4c 00 00 	mov.b	r12,	0(r6)	;
    957c:	39 52       	add	#8,	r9	;r2 As==11
    957e:	a6 00 01 00 	adda	#1,	r6	;
    9582:	39 90 20 00 	cmp	#32,	r9	;#0x0020
    9586:	f1 23       	jnz	$-28     	;abs 0x956a
    9588:	19 41 08 00 	mov	8(r1),	r9	;
    958c:	06 45       	mov	r5,	r6	;
    958e:	80 00 f6 94 	mova	#38134,	r0	;0x094f6

00009592 <.L555>:
    9592:	ea 42 01 00 	mov.b	#4,	1(r10)	;r2 As==10
    9596:	80 00 3e 95 	mova	#38206,	r0	;0x0953e

0000959a <get_baud>:
    959a:	19 14       	pushm.a	#2,	r9	;20-bit words
    959c:	b1 00 08 00 	suba	#8,	r1	;
    95a0:	28 4d       	mov	@r13,	r8	;
    95a2:	19 4d 02 00 	mov	2(r13),	r9	;
    95a6:	b0 13 b2 c3 	calla	#50098		;0x0c3b2
    95aa:	b0 13 da c0 	calla	#49370		;0x0c0da
    95ae:	81 48 04 00 	mov	r8,	4(r1)	;
    95b2:	81 49 06 00 	mov	r9,	6(r1)	;
    95b6:	91 43 00 00 	mov	#1,	0(r1)	;r3 As==01
    95ba:	81 43 02 00 	mov	#0,	2(r1)	;r3 As==00
    95be:	3e 40 40 42 	mov	#16960,	r14	;#0x4240
    95c2:	7f 40 0f 00 	mov.b	#15,	r15	;#0x000f
    95c6:	cd 01       	mova	r1,	r13	;
    95c8:	ad 00 04 00 	adda	#4,	r13	;
    95cc:	7c 40 22 00 	mov.b	#34,	r12	;#0x0022
    95d0:	b0 13 32 94 	calla	#37938		;0x09432
    95d4:	a1 00 08 00 	adda	#8,	r1	;
    95d8:	18 16       	popm.a	#2,	r9	;20-bit words
    95da:	10 01       	reta			;

000095dc <get_rx_dev>:
    95dc:	19 14       	pushm.a	#2,	r9	;20-bit words
    95de:	b1 00 08 00 	suba	#8,	r1	;
    95e2:	28 4d       	mov	@r13,	r8	;
    95e4:	19 4d 02 00 	mov	2(r13),	r9	;
    95e8:	b0 13 b2 c3 	calla	#50098		;0x0c3b2
    95ec:	b0 13 da c0 	calla	#49370		;0x0c0da
    95f0:	81 48 04 00 	mov	r8,	4(r1)	;
    95f4:	81 49 06 00 	mov	r9,	6(r1)	;
    95f8:	b1 40 e8 80 	mov	#33000,	0(r1)	;#0x80e8
    95fc:	00 00 
    95fe:	81 43 02 00 	mov	#0,	2(r1)	;r3 As==00
    9602:	3e 40 40 0d 	mov	#3392,	r14	;#0x0d40
    9606:	7f 40 03 00 	mov.b	#3,	r15	;
    960a:	cd 01       	mova	r1,	r13	;
    960c:	ad 00 04 00 	adda	#4,	r13	;
    9610:	7c 40 0c 00 	mov.b	#12,	r12	;#0x000c
    9614:	b0 13 32 94 	calla	#37938		;0x09432
    9618:	a1 00 08 00 	adda	#8,	r1	;
    961c:	18 16       	popm.a	#2,	r9	;20-bit words
    961e:	10 01       	reta			;

00009620 <get_tx_dev>:
    9620:	19 14       	pushm.a	#2,	r9	;20-bit words
    9622:	b1 00 08 00 	suba	#8,	r1	;
    9626:	28 4d       	mov	@r13,	r8	;
    9628:	19 4d 02 00 	mov	2(r13),	r9	;
    962c:	b0 13 b2 c3 	calla	#50098		;0x0c3b2
    9630:	b0 13 da c0 	calla	#49370		;0x0c0da
    9634:	81 48 04 00 	mov	r8,	4(r1)	;
    9638:	81 49 06 00 	mov	r9,	6(r1)	;
    963c:	b1 40 58 02 	mov	#600,	0(r1)	;#0x0258
    9640:	00 00 
    9642:	81 43 02 00 	mov	#0,	2(r1)	;r3 As==00
    9646:	3e 40 40 0d 	mov	#3392,	r14	;#0x0d40
    964a:	7f 40 03 00 	mov.b	#3,	r15	;
    964e:	cd 01       	mova	r1,	r13	;
    9650:	ad 00 04 00 	adda	#4,	r13	;
    9654:	7c 42       	mov.b	#8,	r12	;r2 As==11
    9656:	b0 13 32 94 	calla	#37938		;0x09432
    965a:	a1 00 08 00 	adda	#8,	r1	;
    965e:	18 16       	popm.a	#2,	r9	;20-bit words
    9660:	10 01       	reta			;

00009662 <get_rx_br>:
    9662:	19 14       	pushm.a	#2,	r9	;20-bit words
    9664:	b1 00 08 00 	suba	#8,	r1	;
    9668:	28 4d       	mov	@r13,	r8	;
    966a:	19 4d 02 00 	mov	2(r13),	r9	;
    966e:	b0 13 b2 c3 	calla	#50098		;0x0c3b2
    9672:	b0 13 da c0 	calla	#49370		;0x0c0da
    9676:	81 48 04 00 	mov	r8,	4(r1)	;
    967a:	81 49 06 00 	mov	r9,	6(r1)	;
    967e:	b1 40 0c 03 	mov	#780,	0(r1)	;#0x030c
    9682:	00 00 
    9684:	81 43 02 00 	mov	#0,	2(r1)	;r3 As==00
    9688:	3e 40 f0 49 	mov	#18928,	r14	;#0x49f0
    968c:	6f 43       	mov.b	#2,	r15	;r3 As==10
    968e:	cd 01       	mova	r1,	r13	;
    9690:	ad 00 04 00 	adda	#4,	r13	;
    9694:	7c 40 1c 00 	mov.b	#28,	r12	;#0x001c
    9698:	b0 13 32 94 	calla	#37938		;0x09432
    969c:	a1 00 08 00 	adda	#8,	r1	;
    96a0:	18 16       	popm.a	#2,	r9	;20-bit words
    96a2:	10 01       	reta			;

000096a4 <get_tx_br>:
    96a4:	19 14       	pushm.a	#2,	r9	;20-bit words
    96a6:	b1 00 08 00 	suba	#8,	r1	;
    96aa:	28 4d       	mov	@r13,	r8	;
    96ac:	19 4d 02 00 	mov	2(r13),	r9	;
    96b0:	b0 13 b2 c3 	calla	#50098		;0x0c3b2
    96b4:	b0 13 da c0 	calla	#49370		;0x0c0da
    96b8:	81 48 04 00 	mov	r8,	4(r1)	;
    96bc:	81 49 06 00 	mov	r9,	6(r1)	;
    96c0:	b1 40 b0 04 	mov	#1200,	0(r1)	;#0x04b0
    96c4:	00 00 
    96c6:	81 43 02 00 	mov	#0,	2(r1)	;r3 As==00
    96ca:	3e 40 e0 93 	mov	#37856,	r14	;#0x93e0
    96ce:	6f 42       	mov.b	#4,	r15	;r2 As==10
    96d0:	cd 01       	mova	r1,	r13	;
    96d2:	ad 00 04 00 	adda	#4,	r13	;
    96d6:	7c 40 18 00 	mov.b	#24,	r12	;#0x0018
    96da:	b0 13 32 94 	calla	#37938		;0x09432
    96de:	a1 00 08 00 	adda	#8,	r1	;
    96e2:	18 16       	popm.a	#2,	r9	;20-bit words
    96e4:	10 01       	reta			;

000096e6 <get_rx_freq>:
    96e6:	19 14       	pushm.a	#2,	r9	;20-bit words
    96e8:	b1 00 08 00 	suba	#8,	r1	;
    96ec:	28 4d       	mov	@r13,	r8	;
    96ee:	19 4d 02 00 	mov	2(r13),	r9	;
    96f2:	b0 13 b2 c3 	calla	#50098		;0x0c3b2
    96f6:	b0 13 da c0 	calla	#49370		;0x0c0da
    96fa:	81 48 04 00 	mov	r8,	4(r1)	;
    96fe:	81 49 06 00 	mov	r9,	6(r1)	;
    9702:	b1 40 40 44 	mov	#17472,	0(r1)	;#0x4440
    9706:	00 00 
    9708:	b1 40 3d 1b 	mov	#6973,	2(r1)	;#0x1b3d
    970c:	02 00 
    970e:	3e 40 c0 e3 	mov	#58304,	r14	;#0xe3c0
    9712:	3f 40 12 1c 	mov	#7186,	r15	;#0x1c12
    9716:	cd 01       	mova	r1,	r13	;
    9718:	ad 00 04 00 	adda	#4,	r13	;
    971c:	6c 42       	mov.b	#4,	r12	;r2 As==10
    971e:	b0 13 32 94 	calla	#37938		;0x09432
    9722:	a1 00 08 00 	adda	#8,	r1	;
    9726:	18 16       	popm.a	#2,	r9	;20-bit words
    9728:	10 01       	reta			;

0000972a <get_tx_freq>:
    972a:	19 14       	pushm.a	#2,	r9	;20-bit words
    972c:	b1 00 08 00 	suba	#8,	r1	;
    9730:	28 4d       	mov	@r13,	r8	;
    9732:	19 4d 02 00 	mov	2(r13),	r9	;
    9736:	b0 13 b2 c3 	calla	#50098		;0x0c3b2
    973a:	b0 13 da c0 	calla	#49370		;0x0c0da
    973e:	81 48 04 00 	mov	r8,	4(r1)	;
    9742:	81 49 06 00 	mov	r9,	6(r1)	;
    9746:	b1 40 40 da 	mov	#55872,	0(r1)	;#0xda40
    974a:	00 00 
    974c:	b1 40 8e 33 	mov	#13198,	2(r1)	;#0x338e
    9750:	02 00 
    9752:	3e 40 c0 24 	mov	#9408,	r14	;#0x24c0
    9756:	3f 40 ec 38 	mov	#14572,	r15	;#0x38ec
    975a:	cd 01       	mova	r1,	r13	;
    975c:	ad 00 04 00 	adda	#4,	r13	;
    9760:	4c 43       	clr.b	r12		;
    9762:	b0 13 32 94 	calla	#37938		;0x09432
    9766:	a1 00 08 00 	adda	#8,	r1	;
    976a:	18 16       	popm.a	#2,	r9	;20-bit words
    976c:	10 01       	reta			;

0000976e <get_tx_pow>:
    976e:	4a 14       	pushm.a	#5,	r10	;20-bit words
    9770:	c8 0c       	mova	r12,	r8	;
    9772:	29 4d       	mov	@r13,	r9	;
    9774:	16 4d 02 00 	mov	2(r13),	r6	;
    9778:	07 49       	mov	r9,	r7	;
    977a:	57 07       	rrum	#2,	r7	;
    977c:	77 f0 3f 00 	and.b	#63,	r7	;#0x003f
    9780:	b0 13 b2 c3 	calla	#50098		;0x0c3b2
    9784:	b0 13 da c0 	calla	#49370		;0x0c0da
    9788:	39 f0 ff 00 	and	#255,	r9	;#0x00ff
    978c:	40 18 29 b3 	bitx.w	#2,	r9	;r3 As==10
    9790:	22 24       	jz	$+70     	;abs 0x97d6
    9792:	b0 13 a8 76 	calla	#30376		;0x076a8
    9796:	ca 0c       	mova	r12,	r10	;
    9798:	9c 00 00 00 	cmpa	#0,	r12	;
    979c:	1c 24       	jz	$+58     	;abs 0x97d6
    979e:	cc 47 00 00 	mov.b	r7,	0(r12)	;
    97a2:	2c 01 44 08 	mova	&67652,	r12	;0x10844
    97a6:	da 4c 51 00 	mov.b	81(r12),2(r10)	;0x00051
    97aa:	02 00 
    97ac:	da 4c 50 00 	mov.b	80(r12),3(r10)	;0x00050
    97b0:	03 00 
    97b2:	da 4c 21 00 	mov.b	33(r12),4(r10)	;0x00021
    97b6:	04 00 
    97b8:	40 18 19 b3 	bitx.w	#1,	r9	;r3 As==01
    97bc:	0e 24       	jz	$+30     	;abs 0x97da
    97be:	fa 40 03 00 	mov.b	#3,	1(r10)	;
    97c2:	01 00 
    97c4:	7d 40 07 00 	mov.b	#7,	r13	;
    97c8:	cc 08       	mova	r8,	r12	;
    97ca:	b0 13 36 a8 	calla	#43062		;0x0a836

000097ce <.L577>:
    97ce:	0d 46       	mov	r6,	r13	;
    97d0:	cc 0a       	mova	r10,	r12	;
    97d2:	b0 13 3c 7d 	calla	#32060		;0x07d3c

000097d6 <.L572>:
    97d6:	46 16       	popm.a	#5,	r10	;20-bit words
    97d8:	10 01       	reta			;

000097da <.L576>:
    97da:	da 43 01 00 	mov.b	#1,	1(r10)	;r3 As==01
    97de:	80 00 ce 97 	mova	#38862,	r0	;0x097ce

000097e2 <set_block>:
    97e2:	6a 14       	pushm.a	#7,	r10	;20-bit words
    97e4:	b1 00 12 00 	suba	#18,	r1	;0x00012
    97e8:	71 0c 08 00 	mova	r12,	8(r1)	;
    97ec:	25 4d       	mov	@r13,	r5	;
    97ee:	19 4d 02 00 	mov	2(r13),	r9	;
    97f2:	08 45       	mov	r5,	r8	;
    97f4:	58 0f       	rrum	#4,	r8	;
    97f6:	58 0f       	rrum	#4,	r8	;
    97f8:	4f 45       	mov.b	r5,	r15	;
    97fa:	4b 4f       	mov.b	r15,	r11	;
    97fc:	6b f3       	and.b	#2,	r11	;r3 As==10
    97fe:	47 4b       	mov.b	r11,	r7	;
    9800:	07 93       	cmp	#0,	r7	;r3 As==00
    9802:	27 24       	jz	$+80     	;abs 0x9852
    9804:	6d 42       	mov.b	#4,	r13	;r2 As==10

00009806 <.L582>:
    9806:	40 18 06 4d 	movx.w	r13,	r6	;
    980a:	3c 01 08 00 	mova	8(r1),	r12	;
    980e:	ec 06       	adda	r6,	r12	;
    9810:	6a 4c       	mov.b	@r12,	r10	;
    9812:	81 4a 0c 00 	mov	r10,	12(r1)	; 0x000c
    9816:	5a 4c 01 00 	mov.b	1(r12),	r10	;
    981a:	40 18 1f b3 	bitx.w	#1,	r15	;r3 As==01
    981e:	1c 24       	jz	$+58     	;abs 0x9858
    9820:	6d 43       	mov.b	#2,	r13	;r3 As==10

00009822 <.L583>:
    9822:	71 0b 00 00 	mova	r11,	0(r1)	;
    9826:	71 0d 04 00 	mova	r13,	4(r1)	;
    982a:	b0 13 a8 76 	calla	#30376		;0x076a8
    982e:	c4 0c       	mova	r12,	r4	;
    9830:	8e 00 b2 c3 	mova	#50098,	r14	;0x0c3b2
    9834:	0b 01       	mova	@r1,	r11	;
    9836:	3d 01 04 00 	mova	4(r1),	r13	;
    983a:	9c 00 00 00 	cmpa	#0,	r12	;
    983e:	0f 20       	jnz	$+32     	;abs 0x985e

00009840 <.L590>:
    9840:	3c 01 08 00 	mova	8(r1),	r12	;
    9844:	4e 13       	calla	r14		;
    9846:	b0 13 da c0 	calla	#49370		;0x0c0da

0000984a <.L581>:
    984a:	a1 00 12 00 	adda	#18,	r1	;0x00012
    984e:	64 16       	popm.a	#7,	r10	;20-bit words
    9850:	10 01       	reta			;

00009852 <.L592>:
    9852:	6d 43       	mov.b	#2,	r13	;r3 As==10
    9854:	80 00 06 98 	mova	#38918,	r0	;0x09806

00009858 <.L593>:
    9858:	4d 43       	clr.b	r13		;
    985a:	80 00 22 98 	mova	#38946,	r0	;0x09822

0000985e <.L584>:
    985e:	1c 41 0c 00 	mov	12(r1),	r12	;0x0000c
    9862:	7c 53       	add.b	#-1,	r12	;r3 As==11
    9864:	7f 40 03 00 	mov.b	#3,	r15	;
    9868:	4f 9c       	cmp.b	r12,	r15	;
    986a:	23 28       	jnc	$+72     	;abs 0x98b2
    986c:	78 50 fe ff 	add.b	#65534,	r8	;#0xfffe
    9870:	40 18 4f 48 	movx.b	r8,	r15	;
    9874:	40 18 4f 8b 	subx.b	r11,	r15	;
    9878:	4f 8d       	sub.b	r13,	r15	;
    987a:	4c 4f       	mov.b	r15,	r12	;
    987c:	40 18 3d 40 	movx.w	#87,	r13	;0x00057
    9880:	57 00 
    9882:	40 18 0d 8c 	subx.w	r12,	r13	;
    9886:	0a 9d       	cmp	r13,	r10	;
    9888:	02 38       	jl	$+6      	;abs 0x988e
    988a:	4a 93       	cmp.b	#0,	r10	;r3 As==00
    988c:	12 34       	jge	$+38     	;abs 0x98b2

0000988e <.L587>:
    988e:	40 18 3d 40 	movx.w	#139,	r13	;0x0008b
    9892:	8b 00 
    9894:	40 18 0d 8c 	subx.w	r12,	r13	;
    9898:	0a 9d       	cmp	r13,	r10	;
    989a:	04 38       	jl	$+10     	;abs 0x98a4
    989c:	7d 40 bf ff 	mov.b	#65471,	r13	;#0xffbf
    98a0:	4d 9a       	cmp.b	r10,	r13	;
    98a2:	07 2c       	jc	$+16     	;abs 0x98b2

000098a4 <.L588>:
    98a4:	40 18 3d 40 	movx.w	#214,	r13	;0x000d6
    98a8:	d6 00 
    98aa:	40 18 0d 8c 	subx.w	r12,	r13	;
    98ae:	0a 9d       	cmp	r13,	r10	;
    98b0:	16 38       	jl	$+46     	;abs 0x98de

000098b2 <.L586>:
    98b2:	07 93       	cmp	#0,	r7	;r3 As==00
    98b4:	c5 27       	jz	$-116    	;abs 0x9840
    98b6:	81 45 0e 00 	mov	r5,	14(r1)	; 0x000e
    98ba:	81 49 10 00 	mov	r9,	16(r1)	; 0x0010
    98be:	cd 01       	mova	r1,	r13	;
    98c0:	ad 00 0e 00 	adda	#14,	r13	;0x0000e
    98c4:	cc 04       	mova	r4,	r12	;
    98c6:	71 0e 04 00 	mova	r14,	4(r1)	;
    98ca:	b0 13 12 77 	calla	#30482		;0x07712
    98ce:	0d 49       	mov	r9,	r13	;
    98d0:	cc 04       	mova	r4,	r12	;
    98d2:	b0 13 3c 7d 	calla	#32060		;0x07d3c
    98d6:	3e 01 04 00 	mova	4(r1),	r14	;
    98da:	80 00 40 98 	mova	#38976,	r0	;0x09840

000098de <.L589>:
    98de:	cd 06       	mova	r6,	r13	;
    98e0:	ad 00 02 00 	adda	#2,	r13	;
    98e4:	40 18 0e 4f 	movx.w	r15,	r14	;
    98e8:	00 18 5d 51 	addx.a	8(r1),	r13	;
    98ec:	08 00 
    98ee:	c8 04       	mova	r4,	r8	;
    98f0:	a8 00 04 00 	adda	#4,	r8	;
    98f4:	cc 08       	mova	r8,	r12	;
    98f6:	71 0f 04 00 	mova	r15,	4(r1)	;
    98fa:	b0 13 5e c6 	calla	#50782		;0x0c65e
    98fe:	86 00 b2 c3 	mova	#50098,	r6	;0x0c3b2
    9902:	3c 01 08 00 	mova	8(r1),	r12	;
    9906:	46 13       	calla	r6		;
    9908:	b0 13 da c0 	calla	#49370		;0x0c0da
    990c:	3f 01 04 00 	mova	4(r1),	r15	;
    9910:	4e 4a       	mov.b	r10,	r14	;
    9912:	cd 08       	mova	r8,	r13	;
    9914:	1a 41 0c 00 	mov	12(r1),	r10	;0x0000c
    9918:	4c 4a       	mov.b	r10,	r12	;
    991a:	b0 13 44 a3 	calla	#41796		;0x0a344
    991e:	07 93       	cmp	#0,	r7	;r3 As==00
    9920:	10 24       	jz	$+34     	;abs 0x9942
    9922:	81 45 0e 00 	mov	r5,	14(r1)	; 0x000e
    9926:	81 49 10 00 	mov	r9,	16(r1)	; 0x0010
    992a:	cd 01       	mova	r1,	r13	;
    992c:	ad 00 0e 00 	adda	#14,	r13	;0x0000e
    9930:	cc 04       	mova	r4,	r12	;
    9932:	b0 13 dc 78 	calla	#30940		;0x078dc
    9936:	0d 49       	mov	r9,	r13	;
    9938:	cc 04       	mova	r4,	r12	;
    993a:	b0 13 3c 7d 	calla	#32060		;0x07d3c
    993e:	80 00 4a 98 	mova	#38986,	r0	;0x0984a

00009942 <.L591>:
    9942:	cc 04       	mova	r4,	r12	;
    9944:	46 13       	calla	r6		;
    9946:	b0 13 d0 76 	calla	#30416		;0x076d0
    994a:	80 00 4a 98 	mova	#38986,	r0	;0x0984a

0000994e <get_block>:
    994e:	6a 14       	pushm.a	#7,	r10	;20-bit words
    9950:	b1 00 0e 00 	suba	#14,	r1	;0x0000e
    9954:	26 4d       	mov	@r13,	r6	;
    9956:	18 4d 02 00 	mov	2(r13),	r8	;
    995a:	07 46       	mov	r6,	r7	;
    995c:	57 07       	rrum	#2,	r7	;
    995e:	77 f0 3f 00 	and.b	#63,	r7	;#0x003f
    9962:	c1 47 09 00 	mov.b	r7,	9(r1)	;
    9966:	45 46       	mov.b	r6,	r5	;
    9968:	8f 00 b2 c3 	mova	#50098,	r15	;0x0c3b2
    996c:	84 00 da c0 	mova	#49370,	r4	;0x0c0da
    9970:	40 18 25 b3 	bitx.w	#2,	r5	;r3 As==10
    9974:	0e 24       	jz	$+30     	;abs 0x9992
    9976:	71 0c 04 00 	mova	r12,	4(r1)	;
    997a:	71 0f 00 00 	mova	r15,	0(r1)	;
    997e:	b0 13 a8 76 	calla	#30376		;0x076a8
    9982:	ca 0c       	mova	r12,	r10	;
    9984:	3e 01 04 00 	mova	4(r1),	r14	;
    9988:	0f 01       	mova	@r1,	r15	;
    998a:	9c 00 00 00 	cmpa	#0,	r12	;
    998e:	05 20       	jnz	$+12     	;abs 0x999a
    9990:	cc 0e       	mova	r14,	r12	;

00009992 <.L598>:
    9992:	4f 13       	calla	r15		;
    9994:	44 13       	calla	r4		;
    9996:	80 00 1c 9a 	mova	#39452,	r0	;0x09a1c

0000999a <.L599>:
    999a:	57 4e 04 00 	mov.b	4(r14),	r7	;
    999e:	5d 4e 05 00 	mov.b	5(r14),	r13	;
    99a2:	59 4e 06 00 	mov.b	6(r14),	r9	;
    99a6:	cc 0e       	mova	r14,	r12	;
    99a8:	71 0d 04 00 	mova	r13,	4(r1)	;
    99ac:	4f 13       	calla	r15		;
    99ae:	44 13       	calla	r4		;
    99b0:	3d 01 04 00 	mova	4(r1),	r13	;
    99b4:	6c 42       	mov.b	#4,	r12	;r2 As==10
    99b6:	4c 97       	cmp.b	r7,	r12	;
    99b8:	23 28       	jnc	$+72     	;abs 0x9a00
    99ba:	40 18 3c 40 	movx.w	#87,	r12	;0x00057
    99be:	57 00 
    99c0:	40 18 0c 89 	subx.w	r9,	r12	;
    99c4:	0d 9c       	cmp	r12,	r13	;
    99c6:	04 38       	jl	$+10     	;abs 0x99d0
    99c8:	7e 40 5f 00 	mov.b	#95,	r14	;#0x005f
    99cc:	4e 9d       	cmp.b	r13,	r14	;
    99ce:	18 2c       	jc	$+50     	;abs 0x9a00

000099d0 <.L602>:
    99d0:	4c 4d       	mov.b	r13,	r12	;
    99d2:	7c 50 89 ff 	add.b	#65417,	r12	;#0xff89
    99d6:	7e 42       	mov.b	#8,	r14	;r2 As==11
    99d8:	4e 9c       	cmp.b	r12,	r14	;
    99da:	12 2c       	jc	$+38     	;abs 0x9a00
    99dc:	40 18 3c 40 	movx.w	#139,	r12	;0x0008b
    99e0:	8b 00 
    99e2:	40 18 0c 89 	subx.w	r9,	r12	;
    99e6:	0d 9c       	cmp	r12,	r13	;
    99e8:	04 38       	jl	$+10     	;abs 0x99f2
    99ea:	7c 40 bf ff 	mov.b	#65471,	r12	;#0xffbf
    99ee:	4c 9d       	cmp.b	r13,	r12	;
    99f0:	07 2c       	jc	$+16     	;abs 0x9a00

000099f2 <.L603>:
    99f2:	40 18 3c 40 	movx.w	#214,	r12	;0x000d6
    99f6:	d6 00 
    99f8:	40 18 0c 89 	subx.w	r9,	r12	;
    99fc:	0d 9c       	cmp	r12,	r13	;
    99fe:	12 38       	jl	$+38     	;abs 0x9a24

00009a00 <.L601>:
    9a00:	81 46 0a 00 	mov	r6,	10(r1)	; 0x000a
    9a04:	81 48 0c 00 	mov	r8,	12(r1)	; 0x000c
    9a08:	cd 01       	mova	r1,	r13	;
    9a0a:	ad 00 0a 00 	adda	#10,	r13	;0x0000a
    9a0e:	cc 0a       	mova	r10,	r12	;
    9a10:	b0 13 12 77 	calla	#30482		;0x07712

00009a14 <.L606>:
    9a14:	0d 48       	mov	r8,	r13	;
    9a16:	cc 0a       	mova	r10,	r12	;
    9a18:	b0 13 3c 7d 	calla	#32060		;0x07d3c

00009a1c <.L597>:
    9a1c:	a1 00 0e 00 	adda	#14,	r1	;0x0000e
    9a20:	64 16       	popm.a	#7,	r10	;20-bit words
    9a22:	10 01       	reta			;

00009a24 <.L604>:
    9a24:	4f 49       	mov.b	r9,	r15	;
    9a26:	4e 4d       	mov.b	r13,	r14	;
    9a28:	cd 0a       	mova	r10,	r13	;
    9a2a:	ad 00 04 00 	adda	#4,	r13	;
    9a2e:	4c 47       	mov.b	r7,	r12	;
    9a30:	b0 13 fe a2 	calla	#41726		;0x0a2fe
    9a34:	da 41 09 00 	mov.b	9(r1),	0(r10)	;
    9a38:	00 00 
    9a3a:	2c 01 44 08 	mova	&67652,	r12	;0x10844
    9a3e:	da 4c 51 00 	mov.b	81(r12),2(r10)	;0x00051
    9a42:	02 00 
    9a44:	da 4c 50 00 	mov.b	80(r12),3(r10)	;0x00050
    9a48:	03 00 
    9a4a:	40 18 15 b3 	bitx.w	#1,	r5	;r3 As==01
    9a4e:	0e 24       	jz	$+30     	;abs 0x9a6c
    9a50:	4e 49       	mov.b	r9,	r14	;
    9a52:	6e 53       	incd.b	r14		;
    9a54:	ca 4e 01 00 	mov.b	r14,	1(r10)	;
    9a58:	0d 49       	mov	r9,	r13	;
    9a5a:	3d 50 06 00 	add	#6,	r13	;
    9a5e:	4d 0e       	rlam.a	#4,	r13	;
    9a60:	4d 0d       	rram.a	#4,	r13	;
    9a62:	cc 0a       	mova	r10,	r12	;
    9a64:	b0 13 36 a8 	calla	#43062		;0x0a836
    9a68:	80 00 14 9a 	mova	#39444,	r0	;0x09a14

00009a6c <.L605>:
    9a6c:	ca 49 01 00 	mov.b	r9,	1(r10)	;
    9a70:	80 00 14 9a 	mova	#39444,	r0	;0x09a14

00009a74 <set_regs>:
    9a74:	6a 14       	pushm.a	#7,	r10	;20-bit words
    9a76:	b1 00 12 00 	suba	#18,	r1	;0x00012
    9a7a:	c4 0c       	mova	r12,	r4	;
    9a7c:	25 4d       	mov	@r13,	r5	;
    9a7e:	18 4d 02 00 	mov	2(r13),	r8	;
    9a82:	0c 45       	mov	r5,	r12	;
    9a84:	5c 0f       	rrum	#4,	r12	;
    9a86:	5c 0f       	rrum	#4,	r12	;
    9a88:	4e 45       	mov.b	r5,	r14	;
    9a8a:	49 4e       	mov.b	r14,	r9	;
    9a8c:	69 f3       	and.b	#2,	r9	;r3 As==10
    9a8e:	39 f0 ff 00 	and	#255,	r9	;#0x00ff
    9a92:	09 93       	cmp	#0,	r9	;r3 As==00
    9a94:	57 24       	jz	$+176    	;abs 0x9b44
    9a96:	57 44 04 00 	mov.b	4(r4),	r7	;
    9a9a:	7d 40 05 00 	mov.b	#5,	r13	;

00009a9e <.L609>:
    9a9e:	40 18 1e b3 	bitx.w	#1,	r14	;r3 As==01
    9aa2:	56 24       	jz	$+174    	;abs 0x9b50
    9aa4:	6e 43       	mov.b	#2,	r14	;r3 As==10

00009aa6 <.L610>:
    9aa6:	0c 8e       	sub	r14,	r12	;
    9aa8:	0c 89       	sub	r9,	r12	;
    9aaa:	0e 4c       	mov	r12,	r14	;
    9aac:	5e 03       	rrum	#1,	r14	;
    9aae:	4d 18 0e 11 	rpt #14 { rrax.w	r14		;
    9ab2:	0c 5e       	add	r14,	r12	;
    9ab4:	0c 11       	rra	r12		;
    9ab6:	81 4c 0a 00 	mov	r12,	10(r1)	; 0x000a
    9aba:	71 0d 02 00 	mova	r13,	2(r1)	;
    9abe:	b0 13 a8 76 	calla	#30376		;0x076a8
    9ac2:	ca 0c       	mova	r12,	r10	;
    9ac4:	3d 01 02 00 	mova	2(r1),	r13	;
    9ac8:	9c 00 00 00 	cmpa	#0,	r12	;
    9acc:	6d 24       	jz	$+220    	;abs 0x9ba8
    9ace:	16 41 0a 00 	mov	10(r1),	r6	;0x0000a
    9ad2:	76 f0 ff 00 	and.b	#255,	r6	;#0x00ff
    9ad6:	06 56       	rla	r6		;
    9ad8:	81 46 0c 00 	mov	r6,	12(r1)	; 0x000c
    9adc:	00 18 c1 4d 	movx.a	r13,	6(r1)	;
    9ae0:	06 00 
    9ae2:	3b 01 06 00 	mova	6(r1),	r11	;
    9ae6:	eb 0c       	adda	r12,	r11	;
    9ae8:	36 01 06 00 	mova	6(r1),	r6	;
    9aec:	e6 04       	adda	r4,	r6	;
    9aee:	4d 43       	clr.b	r13		;
    9af0:	4c 47       	mov.b	r7,	r12	;
    9af2:	7c 53       	add.b	#-1,	r12	;r3 As==11
    9af4:	c1 4c 01 00 	mov.b	r12,	1(r1)	;

00009af8 <.L612>:
    9af8:	1d 91 0c 00 	cmp	12(r1),	r13	;0x0000c
    9afc:	2c 38       	jl	$+90     	;abs 0x9b56
    9afe:	86 00 b2 c3 	mova	#50098,	r6	;0x0c3b2
    9b02:	cc 04       	mova	r4,	r12	;
    9b04:	46 13       	calla	r6		;
    9b06:	b0 13 da c0 	calla	#49370		;0x0c0da
    9b0a:	3d 01 06 00 	mova	6(r1),	r13	;
    9b0e:	ad 0f ff ff 	adda	#1048575,r13	;0xfffff
    9b12:	1f 41 0a 00 	mov	10(r1),	r15	;0x0000a
    9b16:	4e 4f       	mov.b	r15,	r14	;
    9b18:	ed 0a       	adda	r10,	r13	;
    9b1a:	4c 47       	mov.b	r7,	r12	;
    9b1c:	b0 13 92 a2 	calla	#41618		;0x0a292
    9b20:	09 93       	cmp	#0,	r9	;r3 As==00
    9b22:	55 24       	jz	$+172    	;abs 0x9bce
    9b24:	81 45 0e 00 	mov	r5,	14(r1)	; 0x000e
    9b28:	81 48 10 00 	mov	r8,	16(r1)	; 0x0010
    9b2c:	cd 01       	mova	r1,	r13	;
    9b2e:	ad 00 0e 00 	adda	#14,	r13	;0x0000e
    9b32:	cc 0a       	mova	r10,	r12	;
    9b34:	b0 13 dc 78 	calla	#30940		;0x078dc
    9b38:	0d 48       	mov	r8,	r13	;
    9b3a:	cc 0a       	mova	r10,	r12	;
    9b3c:	b0 13 3c 7d 	calla	#32060		;0x07d3c
    9b40:	80 00 b2 9b 	mova	#39858,	r0	;0x09bb2

00009b44 <.L608>:
    9b44:	57 44 02 00 	mov.b	2(r4),	r7	;
    9b48:	7d 40 03 00 	mov.b	#3,	r13	;
    9b4c:	80 00 9e 9a 	mova	#39582,	r0	;0x09a9e

00009b50 <.L619>:
    9b50:	4e 43       	clr.b	r14		;
    9b52:	80 00 a6 9a 	mova	#39590,	r0	;0x09aa6

00009b56 <.L617>:
    9b56:	6c 46       	mov.b	@r6,	r12	;
    9b58:	7e 40 03 00 	mov.b	#3,	r14	;
    9b5c:	5e 91 01 00 	cmp.b	1(r1),	r14	;
    9b60:	13 28       	jnc	$+40     	;abs 0x9b88
    9b62:	4e 4c       	mov.b	r12,	r14	;
    9b64:	7e 50 aa ff 	add.b	#65450,	r14	;#0xffaa
    9b68:	7f 40 29 00 	mov.b	#41,	r15	;#0x0029
    9b6c:	4f 9e       	cmp.b	r14,	r15	;
    9b6e:	0c 2c       	jc	$+26     	;abs 0x9b88
    9b70:	7e 50 cc ff 	add.b	#65484,	r14	;#0xffcc
    9b74:	7f 40 35 00 	mov.b	#53,	r15	;#0x0035
    9b78:	4f 9e       	cmp.b	r14,	r15	;
    9b7a:	06 2c       	jc	$+14     	;abs 0x9b88
    9b7c:	a6 00 02 00 	adda	#2,	r6	;
    9b80:	7e 40 d4 ff 	mov.b	#65492,	r14	;#0xffd4
    9b84:	4e 9c       	cmp.b	r12,	r14	;
    9b86:	19 2c       	jc	$+52     	;abs 0x9bba

00009b88 <.L614>:
    9b88:	09 93       	cmp	#0,	r9	;r3 As==00
    9b8a:	0e 24       	jz	$+30     	;abs 0x9ba8
    9b8c:	81 45 0e 00 	mov	r5,	14(r1)	; 0x000e
    9b90:	81 48 10 00 	mov	r8,	16(r1)	; 0x0010
    9b94:	cd 01       	mova	r1,	r13	;
    9b96:	ad 00 0e 00 	adda	#14,	r13	;0x0000e
    9b9a:	cc 0a       	mova	r10,	r12	;
    9b9c:	b0 13 12 77 	calla	#30482		;0x07712
    9ba0:	0d 48       	mov	r8,	r13	;
    9ba2:	cc 0a       	mova	r10,	r12	;
    9ba4:	b0 13 3c 7d 	calla	#32060		;0x07d3c

00009ba8 <.L616>:
    9ba8:	cc 04       	mova	r4,	r12	;
    9baa:	b0 13 b2 c3 	calla	#50098		;0x0c3b2
    9bae:	b0 13 da c0 	calla	#49370		;0x0c0da

00009bb2 <.L607>:
    9bb2:	a1 00 12 00 	adda	#18,	r1	;0x00012
    9bb6:	64 16       	popm.a	#7,	r10	;20-bit words
    9bb8:	10 01       	reta			;

00009bba <.L615>:
    9bba:	cb 4c ff ff 	mov.b	r12,	-1(r11)	; 0xffff
    9bbe:	db 46 ff ff 	mov.b	-1(r6),	0(r11)	;
    9bc2:	00 00 
    9bc4:	2d 53       	incd	r13		;
    9bc6:	ab 00 02 00 	adda	#2,	r11	;
    9bca:	80 00 f8 9a 	mova	#39672,	r0	;0x09af8

00009bce <.L618>:
    9bce:	cc 0a       	mova	r10,	r12	;
    9bd0:	46 13       	calla	r6		;
    9bd2:	b0 13 d0 76 	calla	#30416		;0x076d0
    9bd6:	80 00 b2 9b 	mova	#39858,	r0	;0x09bb2

00009bda <get_regs>:
    9bda:	6a 14       	pushm.a	#7,	r10	;20-bit words
    9bdc:	b1 00 0e 00 	suba	#14,	r1	;0x0000e
    9be0:	c4 0c       	mova	r12,	r4	;
    9be2:	29 4d       	mov	@r13,	r9	;
    9be4:	17 4d 02 00 	mov	2(r13),	r7	;
    9be8:	0d 49       	mov	r9,	r13	;
    9bea:	5d 07       	rrum	#2,	r13	;
    9bec:	7d f0 3f 00 	and.b	#63,	r13	;#0x003f
    9bf0:	c1 4d 09 00 	mov.b	r13,	9(r1)	;
    9bf4:	05 49       	mov	r9,	r5	;
    9bf6:	55 0f       	rrum	#4,	r5	;
    9bf8:	55 0f       	rrum	#4,	r5	;
    9bfa:	48 49       	mov.b	r9,	r8	;
    9bfc:	40 18 28 b3 	bitx.w	#2,	r8	;r3 As==10
    9c00:	07 24       	jz	$+16     	;abs 0x9c10
    9c02:	b0 13 a8 76 	calla	#30376		;0x076a8
    9c06:	ca 0c       	mova	r12,	r10	;
    9c08:	9c 00 00 00 	cmpa	#0,	r12	;
    9c0c:	07 20       	jnz	$+16     	;abs 0x9c1c

00009c0e <.L635>:
    9c0e:	cc 04       	mova	r4,	r12	;

00009c10 <.L624>:
    9c10:	b0 13 b2 c3 	calla	#50098		;0x0c3b2
    9c14:	b0 13 da c0 	calla	#49370		;0x0c0da
    9c18:	80 00 ae 9c 	mova	#40110,	r0	;0x09cae

00009c1c <.L625>:
    9c1c:	5f 44 04 00 	mov.b	4(r4),	r15	;
    9c20:	81 4f 00 00 	mov	r15,	0(r1)	;
    9c24:	58 f3       	and.b	#1,	r8	;r3 As==01
    9c26:	08 93       	cmp	#0,	r8	;r3 As==00
    9c28:	46 24       	jz	$+142    	;abs 0x9cb6
    9c2a:	6c 43       	mov.b	#2,	r12	;r3 As==10

00009c2c <.L627>:
    9c2c:	45 8c       	sub.b	r12,	r5	;
    9c2e:	c1 45 08 00 	mov.b	r5,	8(r1)	;
    9c32:	46 45       	mov.b	r5,	r6	;
    9c34:	76 50 fd ff 	add.b	#65533,	r6	;#0xfffd
    9c38:	45 46       	mov.b	r6,	r5	;
    9c3a:	81 45 02 00 	mov	r5,	2(r1)	;
    9c3e:	cf 0a       	mova	r10,	r15	;
    9c40:	af 00 04 00 	adda	#4,	r15	;
    9c44:	71 0f 04 00 	mova	r15,	4(r1)	;
    9c48:	cb 0f       	mova	r15,	r11	;
    9c4a:	ce 04       	mova	r4,	r14	;
    9c4c:	ae 00 05 00 	adda	#5,	r14	;
    9c50:	4d 43       	clr.b	r13		;

00009c52 <.L628>:
    9c52:	1d 91 02 00 	cmp	2(r1),	r13	;
    9c56:	32 38       	jl	$+102    	;abs 0x9cbc
    9c58:	cc 04       	mova	r4,	r12	;
    9c5a:	b0 13 b2 c3 	calla	#50098		;0x0c3b2
    9c5e:	b0 13 da c0 	calla	#49370		;0x0c0da
    9c62:	da 41 09 00 	mov.b	9(r1),	0(r10)	;
    9c66:	00 00 
    9c68:	2c 01 44 08 	mova	&67652,	r12	;0x10844
    9c6c:	da 4c 51 00 	mov.b	81(r12),2(r10)	;0x00051
    9c70:	02 00 
    9c72:	da 4c 50 00 	mov.b	80(r12),3(r10)	;0x00050
    9c76:	03 00 
    9c78:	4e 46       	mov.b	r6,	r14	;
    9c7a:	3d 01 04 00 	mova	4(r1),	r13	;
    9c7e:	25 41       	mov	@r1,	r5	;
    9c80:	4c 45       	mov.b	r5,	r12	;
    9c82:	b0 13 36 a2 	calla	#41526		;0x0a236
    9c86:	08 93       	cmp	#0,	r8	;r3 As==00
    9c88:	4d 24       	jz	$+156    	;abs 0x9d24
    9c8a:	5f 41 08 00 	mov.b	8(r1),	r15	;
    9c8e:	7f 53       	add.b	#-1,	r15	;r3 As==11
    9c90:	ca 4f 01 00 	mov.b	r15,	1(r10)	;
    9c94:	1d 41 02 00 	mov	2(r1),	r13	;
    9c98:	3d 50 06 00 	add	#6,	r13	;
    9c9c:	4d 0e       	rlam.a	#4,	r13	;
    9c9e:	4d 0d       	rram.a	#4,	r13	;
    9ca0:	cc 0a       	mova	r10,	r12	;
    9ca2:	b0 13 36 a8 	calla	#43062		;0x0a836

00009ca6 <.L633>:
    9ca6:	0d 47       	mov	r7,	r13	;
    9ca8:	cc 0a       	mova	r10,	r12	;
    9caa:	b0 13 3c 7d 	calla	#32060		;0x07d3c

00009cae <.L623>:
    9cae:	a1 00 0e 00 	adda	#14,	r1	;0x0000e
    9cb2:	64 16       	popm.a	#7,	r10	;20-bit words
    9cb4:	10 01       	reta			;

00009cb6 <.L634>:
    9cb6:	0c 48       	mov	r8,	r12	;
    9cb8:	80 00 2c 9c 	mova	#39980,	r0	;0x09c2c

00009cbc <.L631>:
    9cbc:	6c 4e       	mov.b	@r14,	r12	;
    9cbe:	25 41       	mov	@r1,	r5	;
    9cc0:	6f 42       	mov.b	#4,	r15	;r2 As==10
    9cc2:	4f 95       	cmp.b	r5,	r15	;
    9cc4:	18 28       	jnc	$+50     	;abs 0x9cf6
    9cc6:	4f 4c       	mov.b	r12,	r15	;
    9cc8:	7f 50 aa ff 	add.b	#65450,	r15	;#0xffaa
    9ccc:	75 40 09 00 	mov.b	#9,	r5	;
    9cd0:	45 9f       	cmp.b	r15,	r5	;
    9cd2:	11 2c       	jc	$+36     	;abs 0x9cf6
    9cd4:	7f 50 df ff 	add.b	#65503,	r15	;#0xffdf
    9cd8:	75 42       	mov.b	#8,	r5	;r2 As==11
    9cda:	45 9f       	cmp.b	r15,	r5	;
    9cdc:	0c 2c       	jc	$+26     	;abs 0x9cf6
    9cde:	7f 50 ed ff 	add.b	#65517,	r15	;#0xffed
    9ce2:	75 40 35 00 	mov.b	#53,	r5	;#0x0035
    9ce6:	45 9f       	cmp.b	r15,	r5	;
    9ce8:	06 2c       	jc	$+14     	;abs 0x9cf6
    9cea:	ae 00 01 00 	adda	#1,	r14	;
    9cee:	7f 40 d4 ff 	mov.b	#65492,	r15	;#0xffd4
    9cf2:	4f 9c       	cmp.b	r12,	r15	;
    9cf4:	10 2c       	jc	$+34     	;abs 0x9d16

00009cf6 <.L629>:
    9cf6:	81 49 0a 00 	mov	r9,	10(r1)	; 0x000a
    9cfa:	81 47 0c 00 	mov	r7,	12(r1)	; 0x000c
    9cfe:	cd 01       	mova	r1,	r13	;
    9d00:	ad 00 0a 00 	adda	#10,	r13	;0x0000a
    9d04:	cc 0a       	mova	r10,	r12	;
    9d06:	b0 13 12 77 	calla	#30482		;0x07712
    9d0a:	0d 47       	mov	r7,	r13	;
    9d0c:	cc 0a       	mova	r10,	r12	;
    9d0e:	b0 13 3c 7d 	calla	#32060		;0x07d3c
    9d12:	80 00 0e 9c 	mova	#39950,	r0	;0x09c0e

00009d16 <.L630>:
    9d16:	cb 4c 00 00 	mov.b	r12,	0(r11)	;
    9d1a:	1d 53       	inc	r13		;
    9d1c:	ab 00 01 00 	adda	#1,	r11	;
    9d20:	80 00 52 9c 	mova	#40018,	r0	;0x09c52

00009d24 <.L632>:
    9d24:	ca 46 01 00 	mov.b	r6,	1(r10)	;
    9d28:	80 00 a6 9c 	mova	#40102,	r0	;0x09ca6

00009d2c <get_active_bank>:
    9d2c:	4a 14       	pushm.a	#5,	r10	;20-bit words
    9d2e:	29 4d       	mov	@r13,	r9	;
    9d30:	17 4d 02 00 	mov	2(r13),	r7	;
    9d34:	48 49       	mov.b	r9,	r8	;
    9d36:	58 f3       	and.b	#1,	r8	;r3 As==01
    9d38:	06 49       	mov	r9,	r6	;
    9d3a:	56 07       	rrum	#2,	r6	;
    9d3c:	76 f0 3f 00 	and.b	#63,	r6	;#0x003f
    9d40:	b0 13 b2 c3 	calla	#50098		;0x0c3b2
    9d44:	b0 13 da c0 	calla	#49370		;0x0c0da
    9d48:	39 f0 ff 00 	and	#255,	r9	;#0x00ff
    9d4c:	40 18 29 b3 	bitx.w	#2,	r9	;r3 As==10
    9d50:	22 24       	jz	$+70     	;abs 0x9d96
    9d52:	b0 13 a8 76 	calla	#30376		;0x076a8
    9d56:	ca 0c       	mova	r12,	r10	;
    9d58:	9c 00 00 00 	cmpa	#0,	r12	;
    9d5c:	1c 24       	jz	$+58     	;abs 0x9d96
    9d5e:	cc 46 00 00 	mov.b	r6,	0(r12)	;
    9d62:	48 58       	rla.b	r8		;
    9d64:	58 53       	inc.b	r8		;
    9d66:	cc 48 01 00 	mov.b	r8,	1(r12)	;
    9d6a:	2e 01 44 08 	mova	&67652,	r14	;0x10844
    9d6e:	dc 4e 51 00 	mov.b	81(r14),2(r12)	;0x00051
    9d72:	02 00 
    9d74:	dc 4e 50 00 	mov.b	80(r14),3(r12)	;0x00050
    9d78:	03 00 
    9d7a:	dc 4e 69 00 	mov.b	105(r14),4(r12)	;0x00069
    9d7e:	04 00 
    9d80:	40 18 19 b3 	bitx.w	#1,	r9	;r3 As==01
    9d84:	04 24       	jz	$+10     	;abs 0x9d8e
    9d86:	7d 40 07 00 	mov.b	#7,	r13	;
    9d8a:	b0 13 36 a8 	calla	#43062		;0x0a836

00009d8e <.L640>:
    9d8e:	0d 47       	mov	r7,	r13	;
    9d90:	cc 0a       	mova	r10,	r12	;
    9d92:	b0 13 3c 7d 	calla	#32060		;0x07d3c

00009d96 <.L636>:
    9d96:	46 16       	popm.a	#5,	r10	;20-bit words
    9d98:	10 01       	reta			;

00009d9a <get_gpo>:
    9d9a:	4a 14       	pushm.a	#5,	r10	;20-bit words
    9d9c:	29 4d       	mov	@r13,	r9	;
    9d9e:	17 4d 02 00 	mov	2(r13),	r7	;
    9da2:	48 49       	mov.b	r9,	r8	;
    9da4:	58 f3       	and.b	#1,	r8	;r3 As==01
    9da6:	06 49       	mov	r9,	r6	;
    9da8:	56 07       	rrum	#2,	r6	;
    9daa:	76 f0 3f 00 	and.b	#63,	r6	;#0x003f
    9dae:	b0 13 b2 c3 	calla	#50098		;0x0c3b2
    9db2:	b0 13 da c0 	calla	#49370		;0x0c0da
    9db6:	39 f0 ff 00 	and	#255,	r9	;#0x00ff
    9dba:	40 18 29 b3 	bitx.w	#2,	r9	;r3 As==10
    9dbe:	22 24       	jz	$+70     	;abs 0x9e04
    9dc0:	b0 13 a8 76 	calla	#30376		;0x076a8
    9dc4:	ca 0c       	mova	r12,	r10	;
    9dc6:	9c 00 00 00 	cmpa	#0,	r12	;
    9dca:	1c 24       	jz	$+58     	;abs 0x9e04
    9dcc:	cc 46 00 00 	mov.b	r6,	0(r12)	;
    9dd0:	48 58       	rla.b	r8		;
    9dd2:	58 53       	inc.b	r8		;
    9dd4:	cc 48 01 00 	mov.b	r8,	1(r12)	;
    9dd8:	2e 01 44 08 	mova	&67652,	r14	;0x10844
    9ddc:	dc 4e 51 00 	mov.b	81(r14),2(r12)	;0x00051
    9de0:	02 00 
    9de2:	dc 4e 50 00 	mov.b	80(r14),3(r12)	;0x00050
    9de6:	03 00 
    9de8:	dc 4e 61 00 	mov.b	97(r14),4(r12)	;0x00061
    9dec:	04 00 
    9dee:	40 18 19 b3 	bitx.w	#1,	r9	;r3 As==01
    9df2:	04 24       	jz	$+10     	;abs 0x9dfc
    9df4:	7d 40 07 00 	mov.b	#7,	r13	;
    9df8:	b0 13 36 a8 	calla	#43062		;0x0a836

00009dfc <.L651>:
    9dfc:	0d 47       	mov	r7,	r13	;
    9dfe:	cc 0a       	mova	r10,	r12	;
    9e00:	b0 13 3c 7d 	calla	#32060		;0x07d3c

00009e04 <.L647>:
    9e04:	46 16       	popm.a	#5,	r10	;20-bit words
    9e06:	10 01       	reta			;

00009e08 <CmdThd>:
    9e08:	0a 14       	pushm.a	#1,	r10	;20-bit words
    9e0a:	08 14       	pushm.a	#1,	r8	;20-bit words
    9e0c:	26 14       	pushm.a	#3,	r6	;20-bit words
    9e0e:	b1 00 04 00 	suba	#4,	r1	;
    9e12:	88 00 bc 4b 	mova	#19388,	r8	;0x04bbc
    9e16:	8a 00 a6 c3 	mova	#50086,	r10	;0x0c3a6

00009e1a <.L662>:
    9e1a:	00 18 c2 93 	cmpx.a	#0,	&0x0efb8;r3 As==00
    9e1e:	b8 ef 
    9e20:	06 20       	jnz	$+14     	;abs 0x9e2e
    9e22:	4e 43       	clr.b	r14		;
    9e24:	8d 00 b8 ef 	mova	#61368,	r13	;0x0efb8
    9e28:	8c 01 3e 0a 	mova	#68158,	r12	;0x10a3e
    9e2c:	48 13       	calla	r8		;

00009e2e <.L659>:
    9e2e:	2c 00 b8 ef 	mova	&61368,	r12	;0x0efb8
    9e32:	4a 13       	calla	r10		;
    9e34:	c6 0c       	mova	r12,	r6	;
    9e36:	cd 0c       	mova	r12,	r13	;
    9e38:	cc 01       	mova	r1,	r12	;
    9e3a:	b0 13 44 79 	calla	#31044		;0x07944
    9e3e:	24 41       	mov	@r1,	r4	;
    9e40:	15 41 02 00 	mov	2(r1),	r5	;
    9e44:	cd 06       	mova	r6,	r13	;
    9e46:	cc 01       	mova	r1,	r12	;
    9e48:	b0 13 98 79 	calla	#31128		;0x07998
    9e4c:	4c 93       	cmp.b	#0,	r12	;r3 As==00
    9e4e:	0d 24       	jz	$+28     	;abs 0x9e6a
    9e50:	81 44 00 00 	mov	r4,	0(r1)	;
    9e54:	81 45 02 00 	mov	r5,	2(r1)	;
    9e58:	cd 06       	mova	r6,	r13	;
    9e5a:	cc 01       	mova	r1,	r12	;
    9e5c:	b0 13 12 7c 	calla	#31762		;0x07c12

00009e60 <.L661>:
    9e60:	00 18 c2 43 	movx.a	#0,	&0x0efb8;r3 As==00
    9e64:	b8 ef 
    9e66:	80 00 1a 9e 	mova	#40474,	r0	;0x09e1a

00009e6a <.L660>:
    9e6a:	2c 00 b8 ef 	mova	&61368,	r12	;0x0efb8
    9e6e:	b0 13 da c0 	calla	#49370		;0x0c0da
    9e72:	80 00 60 9e 	mova	#40544,	r0	;0x09e60

00009e76 <clamp>:
    9e76:	1a 14       	pushm.a	#2,	r10	;20-bit words
    9e78:	3c f0 ff 00 	and	#255,	r12	;#0x00ff
    9e7c:	49 4d       	mov.b	r13,	r9	;
    9e7e:	4a 4e       	mov.b	r14,	r10	;
    9e80:	4c 99       	cmp.b	r9,	r12	;
    9e82:	07 2c       	jc	$+16     	;abs 0x9e92
    9e84:	7c 40 88 ff 	mov.b	#65416,	r12	;#0xff88
    9e88:	b0 13 96 a3 	calla	#41878		;0x0a396
    9e8c:	0c 49       	mov	r9,	r12	;

00009e8e <.L3>:
    9e8e:	19 16       	popm.a	#2,	r10	;20-bit words
    9e90:	10 01       	reta			;

00009e92 <.L2>:
    9e92:	4a 9c       	cmp.b	r12,	r10	;
    9e94:	fc 2f       	jc	$-6      	;abs 0x9e8e
    9e96:	7c 40 88 ff 	mov.b	#65416,	r12	;#0xff88
    9e9a:	b0 13 96 a3 	calla	#41878		;0x0a396
    9e9e:	0c 4a       	mov	r10,	r12	;
    9ea0:	80 00 8e 9e 	mova	#40590,	r0	;0x09e8e

00009ea4 <fram_reg_cb>:
    9ea4:	40 18 5c 42 	movx.b	&0x0efec,r12	;
    9ea8:	ec ef 
    9eaa:	7c 53       	add.b	#-1,	r12	;r3 As==11
    9eac:	40 18 c2 4c 	movx.b	r12,	&0x0efec;
    9eb0:	ec ef 
    9eb2:	4c 93       	cmp.b	#0,	r12	;r3 As==00
    9eb4:	0a 20       	jnz	$+22     	;abs 0x9eca
    9eb6:	40 18 1c 42 	movx.w	&0x0efee,r12	;
    9eba:	ee ef 
    9ebc:	4d 43       	clr.b	r13		;
    9ebe:	0d 9c       	cmp	r12,	r13	;
    9ec0:	04 38       	jl	$+10     	;abs 0x9eca
    9ec2:	8c 00 ee ef 	mova	#61422,	r12	;0x0efee
    9ec6:	b0 13 32 49 	calla	#18738		;0x04932

00009eca <.L4>:
    9eca:	10 01       	reta			;

00009ecc <fram_block_cb>:
    9ecc:	40 18 1c 42 	movx.w	&0x0efee,r12	;
    9ed0:	ee ef 
    9ed2:	4d 43       	clr.b	r13		;
    9ed4:	0d 9c       	cmp	r12,	r13	;
    9ed6:	04 38       	jl	$+10     	;abs 0x9ee0
    9ed8:	8c 00 ee ef 	mova	#61422,	r12	;0x0efee
    9edc:	b0 13 32 49 	calla	#18738		;0x04932

00009ee0 <.L6>:
    9ee0:	10 01       	reta			;

00009ee2 <fram_reg>:
    9ee2:	2a 14       	pushm.a	#3,	r10	;20-bit words
    9ee4:	06 14       	pushm.a	#1,	r6	;20-bit words
    9ee6:	b1 00 04 00 	suba	#4,	r1	;
    9eea:	4a 4c       	mov.b	r12,	r10	;
    9eec:	49 4d       	mov.b	r13,	r9	;
    9eee:	48 4e       	mov.b	r14,	r8	;
    9ef0:	c6 0f       	mova	r15,	r6	;
    9ef2:	32 c2       	dint			
    9ef4:	03 43       	nop			
    9ef6:	03 43       	nop			
    9ef8:	4d 43       	clr.b	r13		;
    9efa:	cc 01       	mova	r1,	r12	;
    9efc:	b0 13 4a b3 	calla	#45898		;0x0b34a
    9f00:	03 43       	nop			
    9f02:	03 43       	nop			
    9f04:	32 d2       	eint			
    9f06:	03 43       	nop			
    9f08:	0c 01       	mova	@r1,	r12	;
    9f0a:	39 53       	add	#-1,	r9	;r3 As==11
    9f0c:	47 18 09 59 	rpt #8 { rlax.w	r9		;
    9f10:	0e 49       	mov	r9,	r14	;
    9f12:	0f 49       	mov	r9,	r15	;
    9f14:	4e 18 0f 11 	rpt #15 { rrax.w	r15		;
    9f18:	48 48       	mov.b	r8,	r8	;
    9f1a:	09 43       	clr	r9		;
    9f1c:	0d 48       	mov	r8,	r13	;
    9f1e:	0d 53       	add	#0,	r13	;r3 As==00
    9f20:	19 63       	addc	#1,	r9	;r3 As==01
    9f22:	0d 5e       	add	r14,	r13	;
    9f24:	8c 4d 00 00 	mov	r13,	0(r12)	;
    9f28:	09 6f       	addc	r15,	r9	;
    9f2a:	8c 49 02 00 	mov	r9,	2(r12)	;
    9f2e:	5a f3       	and.b	#1,	r10	;r3 As==01
    9f30:	4a 5a       	rla.b	r10		;
    9f32:	5d 4c 04 00 	mov.b	4(r12),	r13	;
    9f36:	6d c3       	bic.b	#2,	r13	;r3 As==10
    9f38:	4d da       	bis.b	r10,	r13	;
    9f3a:	cc 4d 04 00 	mov.b	r13,	4(r12)	;
    9f3e:	1d 4c 04 00 	mov	4(r12),	r13	;
    9f42:	7d f0 03 00 	and.b	#3,	r13	;
    9f46:	2d d2       	bis	#4,	r13	;r2 As==10
    9f48:	8c 4d 04 00 	mov	r13,	4(r12)	;
    9f4c:	fc f0 f8 ff 	and.b	#65528,	6(r12)	;#0xfff8
    9f50:	06 00 
    9f52:	7c 06 08 00 	mova	r6,	8(r12)	;
    9f56:	00 18 fc 40 	movx.a	#40612,	12(r12)	;0x09ea4, 0x0000c
    9f5a:	a4 9e 0c 00 
    9f5e:	32 c2       	dint			
    9f60:	03 43       	nop			
    9f62:	03 43       	nop			
    9f64:	b0 13 26 b3 	calla	#45862		;0x0b326
    9f68:	03 43       	nop			
    9f6a:	03 43       	nop			
    9f6c:	32 d2       	eint			
    9f6e:	03 43       	nop			
    9f70:	a1 00 04 00 	adda	#4,	r1	;
    9f74:	06 16       	popm.a	#1,	r6	;20-bit words
    9f76:	28 16       	popm.a	#3,	r10	;20-bit words
    9f78:	10 01       	reta			;

00009f7a <fram_block>:
    9f7a:	2a 14       	pushm.a	#3,	r10	;20-bit words
    9f7c:	06 14       	pushm.a	#1,	r6	;20-bit words
    9f7e:	b1 00 08 00 	suba	#8,	r1	;
    9f82:	4a 4c       	mov.b	r12,	r10	;
    9f84:	49 4d       	mov.b	r13,	r9	;
    9f86:	48 4e       	mov.b	r14,	r8	;
    9f88:	c6 0f       	mova	r15,	r6	;
    9f8a:	32 c2       	dint			
    9f8c:	03 43       	nop			
    9f8e:	03 43       	nop			
    9f90:	4d 43       	clr.b	r13		;
    9f92:	cc 01       	mova	r1,	r12	;
    9f94:	ac 00 04 00 	adda	#4,	r12	;
    9f98:	b0 13 4a b3 	calla	#45898		;0x0b34a
    9f9c:	03 43       	nop			
    9f9e:	03 43       	nop			
    9fa0:	32 d2       	eint			
    9fa2:	03 43       	nop			
    9fa4:	3c 01 04 00 	mova	4(r1),	r12	;
    9fa8:	39 53       	add	#-1,	r9	;r3 As==11
    9faa:	47 18 09 59 	rpt #8 { rlax.w	r9		;
    9fae:	0e 49       	mov	r9,	r14	;
    9fb0:	0f 49       	mov	r9,	r15	;
    9fb2:	4e 18 0f 11 	rpt #15 { rrax.w	r15		;
    9fb6:	48 48       	mov.b	r8,	r8	;
    9fb8:	09 43       	clr	r9		;
    9fba:	0d 48       	mov	r8,	r13	;
    9fbc:	0d 53       	add	#0,	r13	;r3 As==00
    9fbe:	19 63       	addc	#1,	r9	;r3 As==01
    9fc0:	0d 5e       	add	r14,	r13	;
    9fc2:	8c 4d 00 00 	mov	r13,	0(r12)	;
    9fc6:	09 6f       	addc	r15,	r9	;
    9fc8:	8c 49 02 00 	mov	r9,	2(r12)	;
    9fcc:	5a f3       	and.b	#1,	r10	;r3 As==01
    9fce:	4a 5a       	rla.b	r10		;
    9fd0:	5d 4c 04 00 	mov.b	4(r12),	r13	;
    9fd4:	6d c3       	bic.b	#2,	r13	;r3 As==10
    9fd6:	4d da       	bis.b	r10,	r13	;
    9fd8:	cc 4d 04 00 	mov.b	r13,	4(r12)	;
    9fdc:	5d 41 1c 00 	mov.b	28(r1),	r13	;0x0001c
    9fe0:	00 18 c1 4d 	movx.a	r13,	0(r1)	;
    9fe4:	00 00 
    9fe6:	2d 41       	mov	@r1,	r13	;
    9fe8:	41 18 0d 5d 	rpt #2 { rlax.w	r13		;
    9fec:	1e 4c 04 00 	mov	4(r12),	r14	;
    9ff0:	7e f0 03 00 	and.b	#3,	r14	;
    9ff4:	0e dd       	bis	r13,	r14	;
    9ff6:	8c 4e 04 00 	mov	r14,	4(r12)	;
    9ffa:	2e 41       	mov	@r1,	r14	;
    9ffc:	0f 4e       	mov	r14,	r15	;
    9ffe:	5f 03       	rrum	#1,	r15	;
    a000:	4c 18 0f 11 	rpt #13 { rrax.w	r15		;
    a004:	5e 4c 06 00 	mov.b	6(r12),	r14	;
    a008:	7e f0 f8 ff 	and.b	#65528,	r14	;#0xfff8
    a00c:	0a 01       	mova	@r1,	r10	;
    a00e:	0a 14       	pushm.a	#1,	r10	;20-bit words
    a010:	0d 17       	popm	#1,	r13	;16-bit words
    a012:	0d 17       	popm	#1,	r13	;16-bit words
    a014:	5d f3       	and.b	#1,	r13	;r3 As==01
    a016:	41 18 0d 5d 	rpt #2 { rlax.w	r13		;
    a01a:	4e df       	bis.b	r15,	r14	;
    a01c:	4e dd       	bis.b	r13,	r14	;
    a01e:	cc 4e 06 00 	mov.b	r14,	6(r12)	;
    a022:	7c 06 08 00 	mova	r6,	8(r12)	;
    a026:	00 18 fc 40 	movx.a	#40652,	12(r12)	;0x09ecc, 0x0000c
    a02a:	cc 9e 0c 00 
    a02e:	32 c2       	dint			
    a030:	03 43       	nop			
    a032:	03 43       	nop			
    a034:	b0 13 26 b3 	calla	#45862		;0x0b326
    a038:	03 43       	nop			
    a03a:	03 43       	nop			
    a03c:	32 d2       	eint			
    a03e:	03 43       	nop			
    a040:	a1 00 08 00 	adda	#8,	r1	;
    a044:	06 16       	popm.a	#1,	r6	;20-bit words
    a046:	28 16       	popm.a	#3,	r10	;20-bit words
    a048:	10 01       	reta			;

0000a04a <elyClampReg>:
    a04a:	4e 4c       	mov.b	r12,	r14	;
    a04c:	4c 4d       	mov.b	r13,	r12	;
    a04e:	7e 90 24 00 	cmp.b	#36,	r14	;#0x0024
    a052:	8d 24       	jz	$+284    	;abs 0xa16e
    a054:	7f 40 24 00 	mov.b	#36,	r15	;#0x0024
    a058:	4f 9e       	cmp.b	r14,	r15	;
    a05a:	3b 28       	jnc	$+120    	;abs 0xa0d2
    a05c:	7e 90 0f 00 	cmp.b	#15,	r14	;#0x000f
    a060:	78 24       	jz	$+242    	;abs 0xa152
    a062:	7f 40 0f 00 	mov.b	#15,	r15	;#0x000f
    a066:	4f 9e       	cmp.b	r14,	r15	;
    a068:	13 28       	jnc	$+40     	;abs 0xa090
    a06a:	7e 90 07 00 	cmp.b	#7,	r14	;
    a06e:	6b 24       	jz	$+216    	;abs 0xa146
    a070:	7e 90 0b 00 	cmp.b	#11,	r14	;#0x000b
    a074:	6e 24       	jz	$+222    	;abs 0xa152
    a076:	7e 90 03 00 	cmp.b	#3,	r14	;
    a07a:	14 20       	jnz	$+42     	;abs 0xa0a4
    a07c:	7e 40 38 00 	mov.b	#56,	r14	;#0x0038
    a080:	7d 40 33 00 	mov.b	#51,	r13	;#0x0033

0000a084 <.L92>:
    a084:	b0 13 76 9e 	calla	#40566		;0x09e76

0000a088 <.L91>:
    a088:	3c f0 ff 00 	and	#255,	r12	;#0x00ff
    a08c:	80 00 90 a1 	mova	#41360,	r0	;0x0a190

0000a090 <.L15>:
    a090:	7e 90 1f 00 	cmp.b	#31,	r14	;#0x001f
    a094:	5e 24       	jz	$+190    	;abs 0xa152
    a096:	7f 40 1f 00 	mov.b	#31,	r15	;#0x001f
    a09a:	4f 9e       	cmp.b	r14,	r15	;
    a09c:	10 28       	jnc	$+34     	;abs 0xa0be
    a09e:	7e 90 1b 00 	cmp.b	#27,	r14	;#0x001b
    a0a2:	57 24       	jz	$+176    	;abs 0xa152

0000a0a4 <.L11>:
    a0a4:	4d 4e       	mov.b	r14,	r13	;
    a0a6:	7d 50 7f 00 	add.b	#127,	r13	;#0x007f
    a0aa:	7f 40 3d 00 	mov.b	#61,	r15	;#0x003d
    a0ae:	4f 9d       	cmp.b	r13,	r15	;
    a0b0:	b8 28       	jnc	$+370    	;abs 0xa222
    a0b2:	4d 4c       	mov.b	r12,	r13	;
    a0b4:	4c 4e       	mov.b	r14,	r12	;
    a0b6:	b0 13 c0 bf 	calla	#49088		;0x0bfc0
    a0ba:	80 00 88 a0 	mova	#41096,	r0	;0x0a088

0000a0be <.L20>:
    a0be:	7e 90 21 00 	cmp.b	#33,	r14	;#0x0021
    a0c2:	4b 24       	jz	$+152    	;abs 0xa15a
    a0c4:	7e 90 22 00 	cmp.b	#34,	r14	;#0x0022
    a0c8:	ed 23       	jnz	$-36     	;abs 0xa0a4

0000a0ca <.L23>:
    a0ca:	7e 43       	mov.b	#-1,	r14	;r3 As==11
    a0cc:	5d 43       	mov.b	#1,	r13	;r3 As==01
    a0ce:	80 00 84 a0 	mova	#41092,	r0	;0x0a084

0000a0d2 <.L13>:
    a0d2:	7e 90 3a 00 	cmp.b	#58,	r14	;#0x003a
    a0d6:	4b 24       	jz	$+152    	;abs 0xa16e
    a0d8:	7f 40 3a 00 	mov.b	#58,	r15	;#0x003a
    a0dc:	4f 9e       	cmp.b	r14,	r15	;
    a0de:	12 28       	jnc	$+38     	;abs 0xa104
    a0e0:	7f 40 33 00 	mov.b	#51,	r15	;#0x0033
    a0e4:	4f 9e       	cmp.b	r14,	r15	;
    a0e6:	09 28       	jnc	$+20     	;abs 0xa0fa
    a0e8:	7e 90 2a 00 	cmp.b	#42,	r14	;#0x002a
    a0ec:	44 2c       	jc	$+138    	;abs 0xa176
    a0ee:	7e 90 25 00 	cmp.b	#37,	r14	;#0x0025
    a0f2:	d8 23       	jnz	$-78     	;abs 0xa0a4

0000a0f4 <.L38>:
    a0f4:	4c 43       	clr.b	r12		;
    a0f6:	80 00 90 a1 	mova	#41360,	r0	;0x0a190

0000a0fa <.L25>:
    a0fa:	7e 90 38 00 	cmp.b	#56,	r14	;#0x0038
    a0fe:	e5 27       	jz	$-52     	;abs 0xa0ca
    a100:	80 00 a4 a0 	mova	#41124,	r0	;0x0a0a4

0000a104 <.L24>:
    a104:	7e 90 40 00 	cmp.b	#64,	r14	;#0x0040
    a108:	7d 24       	jz	$+252    	;abs 0xa204
    a10a:	7f 40 40 00 	mov.b	#64,	r15	;#0x0040
    a10e:	4f 9e       	cmp.b	r14,	r15	;
    a110:	05 28       	jnc	$+12     	;abs 0xa11c
    a112:	7e 90 3b 00 	cmp.b	#59,	r14	;#0x003b
    a116:	ee 27       	jz	$-34     	;abs 0xa0f4
    a118:	80 00 a4 a0 	mova	#41124,	r0	;0x0a0a4

0000a11c <.L29>:
    a11c:	4d 4e       	mov.b	r14,	r13	;
    a11e:	7d 50 ba ff 	add.b	#65466,	r13	;#0xffba
    a122:	7f 40 05 00 	mov.b	#5,	r15	;
    a126:	4f 9d       	cmp.b	r13,	r15	;
    a128:	bd 2b       	jnc	$-132    	;abs 0xa0a4
    a12a:	4d 4c       	mov.b	r12,	r13	;
    a12c:	40 18 8d 11 	sxtx.w	r13		;
    a130:	7d 90 b0 ff 	cmp.b	#65456,	r13	;#0xffb0
    a134:	6a 34       	jge	$+214    	;abs 0xa20a
    a136:	7c 40 88 ff 	mov.b	#65416,	r12	;#0xff88
    a13a:	b0 13 96 a3 	calla	#41878		;0x0a396
    a13e:	7c 40 b0 00 	mov.b	#176,	r12	;#0x00b0
    a142:	80 00 90 a1 	mova	#41360,	r0	;0x0a190

0000a146 <.L16>:
    a146:	7e 40 1c 00 	mov.b	#28,	r14	;#0x001c
    a14a:	7d 40 1b 00 	mov.b	#27,	r13	;#0x001b
    a14e:	80 00 84 a0 	mova	#41092,	r0	;0x0a084

0000a152 <.L19>:
    a152:	4e 43       	clr.b	r14		;

0000a154 <.L93>:
    a154:	4d 43       	clr.b	r13		;
    a156:	80 00 84 a0 	mova	#41092,	r0	;0x0a084

0000a15a <.L22>:
    a15a:	7e 40 82 ff 	mov.b	#65410,	r14	;#0xff82
    a15e:	7d 40 3b 00 	mov.b	#59,	r13	;#0x003b
    a162:	b0 13 76 9e 	calla	#40566		;0x09e76
    a166:	3c f0 ff 00 	and	#255,	r12	;#0x00ff
    a16a:	80 00 ca a0 	mova	#41162,	r0	;0x0a0ca

0000a16e <.L12>:
    a16e:	7e 40 0f 00 	mov.b	#15,	r14	;#0x000f
    a172:	80 00 54 a1 	mova	#41300,	r0	;0x0a154

0000a176 <.L26>:
    a176:	40 18 3c b0 	bitx.w	#16,	r12	;0x00010
    a17a:	10 00 
    a17c:	0a 24       	jz	$+22     	;abs 0xa192
    a17e:	3c 90 10 00 	cmp	#16,	r12	;#0x0010
    a182:	07 24       	jz	$+16     	;abs 0xa192
    a184:	7c 40 88 ff 	mov.b	#65416,	r12	;#0xff88
    a188:	b0 13 96 a3 	calla	#41878		;0x0a396
    a18c:	7c 40 10 00 	mov.b	#16,	r12	;#0x0010

0000a190 <.L27>:
    a190:	10 01       	reta			;

0000a192 <.L31>:
    a192:	40 18 3c b2 	bitx.w	#8,	r12	;r2 As==11
    a196:	09 24       	jz	$+20     	;abs 0xa1aa
    a198:	3c 92       	cmp	#8,	r12	;r2 As==11
    a19a:	07 24       	jz	$+16     	;abs 0xa1aa
    a19c:	7c 40 88 ff 	mov.b	#65416,	r12	;#0xff88
    a1a0:	b0 13 96 a3 	calla	#41878		;0x0a396
    a1a4:	7c 42       	mov.b	#8,	r12	;r2 As==11
    a1a6:	80 00 90 a1 	mova	#41360,	r0	;0x0a190

0000a1aa <.L32>:
    a1aa:	40 18 2c b2 	bitx.w	#4,	r12	;r2 As==10
    a1ae:	09 24       	jz	$+20     	;abs 0xa1c2
    a1b0:	2c 92       	cmp	#4,	r12	;r2 As==10
    a1b2:	07 24       	jz	$+16     	;abs 0xa1c2
    a1b4:	7c 40 88 ff 	mov.b	#65416,	r12	;#0xff88
    a1b8:	b0 13 96 a3 	calla	#41878		;0x0a396
    a1bc:	6c 42       	mov.b	#4,	r12	;r2 As==10
    a1be:	80 00 90 a1 	mova	#41360,	r0	;0x0a190

0000a1c2 <.L33>:
    a1c2:	40 18 2c b3 	bitx.w	#2,	r12	;r3 As==10
    a1c6:	09 24       	jz	$+20     	;abs 0xa1da
    a1c8:	2c 93       	cmp	#2,	r12	;r3 As==10
    a1ca:	07 24       	jz	$+16     	;abs 0xa1da
    a1cc:	7c 40 88 ff 	mov.b	#65416,	r12	;#0xff88
    a1d0:	b0 13 96 a3 	calla	#41878		;0x0a396
    a1d4:	6c 43       	mov.b	#2,	r12	;r3 As==10
    a1d6:	80 00 90 a1 	mova	#41360,	r0	;0x0a190

0000a1da <.L34>:
    a1da:	40 18 1c b3 	bitx.w	#1,	r12	;r3 As==01
    a1de:	09 24       	jz	$+20     	;abs 0xa1f2
    a1e0:	1c 93       	cmp	#1,	r12	;r3 As==01
    a1e2:	07 24       	jz	$+16     	;abs 0xa1f2
    a1e4:	7c 40 88 ff 	mov.b	#65416,	r12	;#0xff88
    a1e8:	b0 13 96 a3 	calla	#41878		;0x0a396
    a1ec:	5c 43       	mov.b	#1,	r12	;r3 As==01
    a1ee:	80 00 90 a1 	mova	#41360,	r0	;0x0a190

0000a1f2 <.L35>:
    a1f2:	7c b0 d0 ff 	bit.b	#65488,	r12	;#0xffd0
    a1f6:	cc 27       	jz	$-102    	;abs 0xa190
    a1f8:	7c 40 88 ff 	mov.b	#65416,	r12	;#0xff88
    a1fc:	b0 13 96 a3 	calla	#41878		;0x0a396
    a200:	80 00 f4 a0 	mova	#41204,	r0	;0x0a0f4

0000a204 <.L28>:
    a204:	6e 42       	mov.b	#4,	r14	;r2 As==10
    a206:	80 00 54 a1 	mova	#41300,	r0	;0x0a154

0000a20a <.L36>:
    a20a:	7e 40 7d 00 	mov.b	#125,	r14	;#0x007d
    a20e:	4e 9d       	cmp.b	r13,	r14	;
    a210:	bf 37       	jge	$-128    	;abs 0xa190
    a212:	7c 40 88 ff 	mov.b	#65416,	r12	;#0xff88
    a216:	b0 13 96 a3 	calla	#41878		;0x0a396
    a21a:	7c 40 7d 00 	mov.b	#125,	r12	;#0x007d
    a21e:	80 00 90 a1 	mova	#41360,	r0	;0x0a190

0000a222 <.L37>:
    a222:	7d 40 c0 ff 	mov.b	#65472,	r13	;#0xffc0
    a226:	4d 9e       	cmp.b	r14,	r13	;
    a228:	b3 2f       	jc	$-152    	;abs 0xa190
    a22a:	4d 4c       	mov.b	r12,	r13	;
    a22c:	4c 4e       	mov.b	r14,	r12	;
    a22e:	b0 13 8e aa 	calla	#43662		;0x0aa8e
    a232:	80 00 88 a0 	mova	#41096,	r0	;0x0a088

0000a236 <elyRegGet>:
    a236:	5a 14       	pushm.a	#6,	r10	;20-bit words
    a238:	49 4c       	mov.b	r12,	r9	;
    a23a:	ca 0d       	mova	r13,	r10	;
    a23c:	47 4e       	mov.b	r14,	r7	;
    a23e:	40 18 c2 47 	movx.b	r7,	&0x0efec;
    a242:	ec ef 
    a244:	09 93       	cmp	#0,	r9	;r3 As==00
    a246:	17 24       	jz	$+48     	;abs 0xa276
    a248:	45 43       	clr.b	r5		;
    a24a:	88 00 e2 9e 	mova	#40674,	r8	;0x09ee2
    a24e:	56 43       	mov.b	#1,	r6	;r3 As==01

0000a250 <.L96>:
    a250:	05 97       	cmp	r7,	r5	;
    a252:	15 38       	jl	$+44     	;abs 0xa27e
    a254:	4d 43       	clr.b	r13		;
    a256:	8c 00 ee ef 	mova	#61422,	r12	;0x0efee
    a25a:	b0 13 b6 48 	calla	#18614		;0x048b6
    a25e:	80 00 7a a2 	mova	#41594,	r0	;0x0a27a

0000a262 <.L98>:
    a262:	6d 4a       	mov.b	@r10,	r13	;
    a264:	40 18 0c 4d 	movx.w	r13,	r12	;
    a268:	40 18 da 4c 	movx.b	52458(r12),0(r10)	;0x0ccea
    a26c:	ea cc 00 00 
    a270:	19 53       	inc	r9		;
    a272:	aa 00 01 00 	adda	#1,	r10	;

0000a276 <.L97>:
    a276:	09 97       	cmp	r7,	r9	;
    a278:	f4 3b       	jl	$-22     	;abs 0xa262

0000a27a <.L94>:
    a27a:	55 16       	popm.a	#6,	r10	;20-bit words
    a27c:	10 01       	reta			;

0000a27e <.L100>:
    a27e:	cf 0a       	mova	r10,	r15	;
    a280:	6e 4a       	mov.b	@r10,	r14	;
    a282:	4d 49       	mov.b	r9,	r13	;
    a284:	4c 46       	mov.b	r6,	r12	;
    a286:	48 13       	calla	r8		;
    a288:	15 53       	inc	r5		;
    a28a:	aa 00 01 00 	adda	#1,	r10	;
    a28e:	80 00 50 a2 	mova	#41552,	r0	;0x0a250

0000a292 <elyRegSet>:
    a292:	6a 14       	pushm.a	#7,	r10	;20-bit words
    a294:	b1 00 06 00 	suba	#6,	r1	;
    a298:	47 4c       	mov.b	r12,	r7	;
    a29a:	3e f0 ff 00 	and	#255,	r14	;#0x00ff
    a29e:	40 18 c2 4e 	movx.b	r14,	&0x0efec;
    a2a2:	ec ef 
    a2a4:	0e 5e       	rla	r14		;
    a2a6:	81 4e 04 00 	mov	r14,	4(r1)	;
    a2aa:	c6 0d       	mova	r13,	r6	;
    a2ac:	ca 0d       	mova	r13,	r10	;
    a2ae:	aa 00 01 00 	adda	#1,	r10	;
    a2b2:	49 43       	clr.b	r9		;
    a2b4:	84 00 4a a0 	mova	#41034,	r4	;0x0a04a
    a2b8:	88 00 e2 9e 	mova	#40674,	r8	;0x09ee2
    a2bc:	45 49       	mov.b	r9,	r5	;

0000a2be <.L102>:
    a2be:	19 91 04 00 	cmp	4(r1),	r9	;
    a2c2:	09 38       	jl	$+20     	;abs 0xa2d6
    a2c4:	4d 43       	clr.b	r13		;
    a2c6:	8c 00 ee ef 	mova	#61422,	r12	;0x0efee
    a2ca:	b0 13 b6 48 	calla	#18614		;0x048b6
    a2ce:	a1 00 06 00 	adda	#6,	r1	;
    a2d2:	64 16       	popm.a	#7,	r10	;20-bit words
    a2d4:	10 01       	reta			;

0000a2d6 <.L103>:
    a2d6:	6e 46       	mov.b	@r6,	r14	;
    a2d8:	6d 4a       	mov.b	@r10,	r13	;
    a2da:	4c 4e       	mov.b	r14,	r12	;
    a2dc:	71 0e 00 00 	mova	r14,	0(r1)	;
    a2e0:	44 13       	calla	r4		;
    a2e2:	ca 4c 00 00 	mov.b	r12,	0(r10)	;
    a2e6:	cf 0a       	mova	r10,	r15	;
    a2e8:	0e 01       	mova	@r1,	r14	;
    a2ea:	4d 47       	mov.b	r7,	r13	;
    a2ec:	4c 45       	mov.b	r5,	r12	;
    a2ee:	48 13       	calla	r8		;
    a2f0:	29 53       	incd	r9		;
    a2f2:	a6 00 02 00 	adda	#2,	r6	;
    a2f6:	aa 00 02 00 	adda	#2,	r10	;
    a2fa:	80 00 be a2 	mova	#41662,	r0	;0x0a2be

0000a2fe <elyRegGetBlock>:
    a2fe:	b1 00 02 00 	suba	#2,	r1	;
    a302:	4b 4c       	mov.b	r12,	r11	;
    a304:	cc 0d       	mova	r13,	r12	;
    a306:	3e f0 ff 00 	and	#255,	r14	;#0x00ff
    a30a:	3f f0 ff 00 	and	#255,	r15	;#0x00ff
    a30e:	0b 93       	cmp	#0,	r11	;r3 As==00
    a310:	0b 20       	jnz	$+24     	;abs 0xa328
    a312:	40 18 0d 4e 	movx.w	r14,	r13	;
    a316:	40 18 0e 4f 	movx.w	r15,	r14	;
    a31a:	ad 00 ea cc 	adda	#52458,	r13	;0x0ccea
    a31e:	b0 13 5e c6 	calla	#50782		;0x0c65e

0000a322 <.L104>:
    a322:	a1 00 02 00 	adda	#2,	r1	;
    a326:	10 01       	reta			;

0000a328 <.L105>:
    a328:	c1 4f 00 00 	mov.b	r15,	0(r1)	;
    a32c:	cf 0d       	mova	r13,	r15	;
    a32e:	4d 4b       	mov.b	r11,	r13	;
    a330:	5c 43       	mov.b	#1,	r12	;r3 As==01
    a332:	b0 13 7a 9f 	calla	#40826		;0x09f7a
    a336:	4d 43       	clr.b	r13		;
    a338:	8c 00 ee ef 	mova	#61422,	r12	;0x0efee
    a33c:	b0 13 b6 48 	calla	#18614		;0x048b6
    a340:	80 00 22 a3 	mova	#41762,	r0	;0x0a322

0000a344 <elyRegSetBlock>:
    a344:	6a 14       	pushm.a	#7,	r10	;20-bit words
    a346:	b1 00 02 00 	suba	#2,	r1	;
    a34a:	49 4c       	mov.b	r12,	r9	;
    a34c:	ca 0d       	mova	r13,	r10	;
    a34e:	45 4e       	mov.b	r14,	r5	;
    a350:	44 4f       	mov.b	r15,	r4	;
    a352:	c6 0d       	mova	r13,	r6	;
    a354:	47 43       	clr.b	r7		;
    a356:	88 00 4a a0 	mova	#41034,	r8	;0x0a04a

0000a35a <.L108>:
    a35a:	07 94       	cmp	r4,	r7	;
    a35c:	11 38       	jl	$+36     	;abs 0xa380
    a35e:	c1 44 00 00 	mov.b	r4,	0(r1)	;
    a362:	cf 0a       	mova	r10,	r15	;
    a364:	4e 45       	mov.b	r5,	r14	;
    a366:	4d 49       	mov.b	r9,	r13	;
    a368:	4c 43       	clr.b	r12		;
    a36a:	b0 13 7a 9f 	calla	#40826		;0x09f7a
    a36e:	4d 43       	clr.b	r13		;
    a370:	8c 00 ee ef 	mova	#61422,	r12	;0x0efee
    a374:	b0 13 b6 48 	calla	#18614		;0x048b6
    a378:	a1 00 02 00 	adda	#2,	r1	;
    a37c:	64 16       	popm.a	#7,	r10	;20-bit words
    a37e:	10 01       	reta			;

0000a380 <.L109>:
    a380:	6d 46       	mov.b	@r6,	r13	;
    a382:	4c 47       	mov.b	r7,	r12	;
    a384:	4c 55       	add.b	r5,	r12	;
    a386:	48 13       	calla	r8		;
    a388:	c6 4c 00 00 	mov.b	r12,	0(r6)	;
    a38c:	17 53       	inc	r7		;
    a38e:	a6 00 01 00 	adda	#1,	r6	;
    a392:	80 00 5a a3 	mova	#41818,	r0	;0x0a35a

0000a396 <elyErrorSignal>:
    a396:	10 01       	reta			;

0000a398 <elyErrorSetRptLvlS>:
    a398:	10 01       	reta			;

0000a39a <elyErrorSetLogLvlS>:
    a39a:	10 01       	reta			;

0000a39c <elyEventSignal>:
    a39c:	10 01       	reta			;

0000a39e <elyEventSubscribe>:
    a39e:	10 01       	reta			;

0000a3a0 <elyEventUnsubscribe>:
    a3a0:	10 01       	reta			;

0000a3a2 <elyEventLog>:
    a3a2:	10 01       	reta			;

0000a3a4 <elyEventUnlog>:
    a3a4:	10 01       	reta			;

0000a3a6 <elyEventReset>:
    a3a6:	10 01       	reta			;

0000a3a8 <elyChanSubscribe>:
    a3a8:	10 01       	reta			;

0000a3aa <elyChanUnsubscribe>:
    a3aa:	10 01       	reta			;

0000a3ac <elyChanLog>:
    a3ac:	10 01       	reta			;

0000a3ae <elyChanUnlog>:
    a3ae:	10 01       	reta			;

0000a3b0 <elyChanGetValue>:
    a3b0:	6c 42       	mov.b	#4,	r12	;r2 As==10
    a3b2:	10 01       	reta			;

0000a3b4 <elyChanReset>:
    a3b4:	10 01       	reta			;

0000a3b6 <elyTelemUpdateConfigS>:
    a3b6:	10 01       	reta			;

0000a3b8 <elyTelemPostBufferS>:
    a3b8:	41 18 d2 43 	movx.b	#1,	&0x11ac2;r3 As==01
    a3bc:	c2 1a 
    a3be:	4d 13       	calla	r13		;
    a3c0:	41 18 c2 43 	movx.b	#0,	&0x11ac2;r3 As==00
    a3c4:	c2 1a 
    a3c6:	b0 13 a4 47 	calla	#18340		;0x047a4
    a3ca:	4c 93       	cmp.b	#0,	r12	;r3 As==00
    a3cc:	02 24       	jz	$+6      	;abs 0xa3d2
    a3ce:	b0 13 b4 47 	calla	#18356		;0x047b4

0000a3d2 <.L2>:
    a3d2:	10 01       	reta			;

0000a3d4 <calc_next_buff>:
    a3d4:	0a 14       	pushm.a	#1,	r10	;20-bit words
    a3d6:	08 14       	pushm.a	#1,	r8	;20-bit words
    a3d8:	c0 18 5c 42 	movx.b	&0x10a52,r12	;
    a3dc:	52 0a 
    a3de:	5c 93       	cmp.b	#1,	r12	;r3 As==01
    a3e0:	2f 24       	jz	$+96     	;abs 0xa440
    a3e2:	6c 93       	cmp.b	#2,	r12	;r3 As==10
    a3e4:	59 20       	jnz	$+180    	;abs 0xa498
    a3e6:	2c 00 04 f0 	mova	&61444,	r12	;0x0f004
    a3ea:	60 0c fc ef 	mova	r12,	&61436	; 0x0effc
    a3ee:	00 18 c2 43 	movx.a	#0,	&0x0f000;r3 As==00
    a3f2:	00 f0 
    a3f4:	28 00 08 f0 	mova	&61448,	r8	;0x0f008
    a3f8:	4e 43       	clr.b	r14		;
    a3fa:	4d 43       	clr.b	r13		;
    a3fc:	5b 43       	mov.b	#1,	r11	;r3 As==01

0000a3fe <.L5>:
    a3fe:	d8 0e       	cmpa	r14,	r8	;
    a400:	0f 20       	jnz	$+32     	;abs 0xa420

0000a402 <.L33>:
    a402:	0d 93       	cmp	#0,	r13	;r3 As==00
    a404:	04 24       	jz	$+10     	;abs 0xa40e
    a406:	60 0e 00 f0 	mova	r14,	&61440	; 0x0f000
    a40a:	60 0c 04 f0 	mova	r12,	&61444	; 0x0f004

0000a40e <.L11>:
    a40e:	41 18 d2 43 	movx.b	#1,	&0x10a52;r3 As==01
    a412:	52 0a 
    a414:	9e 00 00 00 	cmpa	#0,	r14	;
    a418:	13 24       	jz	$+40     	;abs 0xa440

0000a41a <.L1>:
    a41a:	08 16       	popm.a	#1,	r8	;20-bit words
    a41c:	0a 16       	popm.a	#1,	r10	;20-bit words
    a41e:	10 01       	reta			;

0000a420 <.L6>:
    a420:	6f 4c       	mov.b	@r12,	r15	;
    a422:	7f 90 c0 ff 	cmp.b	#65472,	r15	;#0xffc0
    a426:	ed 27       	jz	$-36     	;abs 0xa402
    a428:	ca 0e       	mova	r14,	r10	;
    a42a:	aa 00 01 00 	adda	#1,	r10	;
    a42e:	7f 90 db ff 	cmp.b	#65499,	r15	;#0xffdb
    a432:	e7 27       	jz	$-48     	;abs 0xa402
    a434:	ac 00 01 00 	adda	#1,	r12	;
    a438:	0d 4b       	mov	r11,	r13	;
    a43a:	ce 0a       	mova	r10,	r14	;
    a43c:	80 00 fe a3 	mova	#41982,	r0	;0x0a3fe

0000a440 <.L3>:
    a440:	2c 00 04 f0 	mova	&61444,	r12	;0x0f004
    a444:	cd 0c       	mova	r12,	r13	;
    a446:	ad 00 01 00 	adda	#1,	r13	;
    a44a:	60 0d 04 f0 	mova	r13,	&61444	; 0x0f004
    a44e:	6c 4c       	mov.b	@r12,	r12	;
    a450:	7c 90 c0 ff 	cmp.b	#65472,	r12	;#0xffc0
    a454:	12 24       	jz	$+38     	;abs 0xa47a
    a456:	7c 90 db ff 	cmp.b	#65499,	r12	;#0xffdb
    a45a:	15 20       	jnz	$+44     	;abs 0xa486
    a45c:	80 18 f2 40 	movx.a	#67726,	&0x0effc;0x1088e
    a460:	8e 08 fc ef 

0000a464 <.L17>:
    a464:	00 18 e2 43 	movx.a	#2,	&0x0f000;r3 As==10
    a468:	00 f0 
    a46a:	00 18 d2 53 	incx.a	&0xf008		;
    a46e:	08 f0 
    a470:	41 18 e2 43 	movx.b	#2,	&0x10a52;r3 As==10
    a474:	52 0a 
    a476:	80 00 1a a4 	mova	#42010,	r0	;0x0a41a

0000a47a <.L15>:
    a47a:	80 18 f2 40 	movx.a	#67724,	&0x0effc;0x1088c
    a47e:	8c 08 fc ef 
    a482:	80 00 64 a4 	mova	#42084,	r0	;0x0a464

0000a486 <.L31>:
    a486:	8c 01 7d 08 	mova	#67709,	r12	;0x1087d
    a48a:	b0 13 42 46 	calla	#17986		;0x04642
    a48e:	00 18 f2 53 	addx.a	#-1,	&0x0f008;r3 As==11
    a492:	08 f0 
    a494:	80 00 64 a4 	mova	#42084,	r0	;0x0a464

0000a498 <.L30>:
    a498:	8c 01 7d 08 	mova	#67709,	r12	;0x1087d
    a49c:	b0 13 42 46 	calla	#17986		;0x04642
    a4a0:	80 00 1a a4 	mova	#42010,	r0	;0x0a41a

0000a4a4 <elyUARTDLLTxCB>:
    a4a4:	40 18 c2 93 	cmpx.b	#0,	&0x0eff6;r3 As==00
    a4a8:	f6 ef 
    a4aa:	04 24       	jz	$+10     	;abs 0xa4b4
    a4ac:	40 18 c2 43 	movx.b	#0,	&0x0eff6;r3 As==00
    a4b0:	f6 ef 

0000a4b2 <.L34>:
    a4b2:	10 01       	reta			;

0000a4b4 <.L35>:
    a4b4:	2e 00 fc ef 	mova	&61436,	r14	;0x0effc
    a4b8:	2d 00 00 f0 	mova	&61440,	r13	;0x0f000
    a4bc:	b0 13 3c 50 	calla	#20540		;0x0503c
    a4c0:	2c 00 08 f0 	mova	&61448,	r12	;0x0f008
    a4c4:	9c 00 00 00 	cmpa	#0,	r12	;
    a4c8:	05 20       	jnz	$+12     	;abs 0xa4d4
    a4ca:	40 18 d2 43 	movx.b	#1,	&0x0eff6;r3 As==01
    a4ce:	f6 ef 
    a4d0:	80 00 b2 a4 	mova	#42162,	r0	;0x0a4b2

0000a4d4 <.L37>:
    a4d4:	00 18 5c 82 	subx.a	&0x0f000,r12	;
    a4d8:	00 f0 
    a4da:	60 0c 08 f0 	mova	r12,	&61448	; 0x0f008
    a4de:	9c 00 00 00 	cmpa	#0,	r12	;
    a4e2:	0d 20       	jnz	$+28     	;abs 0xa4fe
    a4e4:	2c 00 0c f0 	mova	&61452,	r12	;0x0f00c
    a4e8:	b0 13 74 c1 	calla	#49524		;0x0c174
    a4ec:	80 18 f2 40 	movx.a	#67708,	&0x0effc;0x1087c
    a4f0:	7c 08 fc ef 
    a4f4:	00 18 d2 43 	movx.a	#1,	&0x0f000;r3 As==01
    a4f8:	00 f0 
    a4fa:	80 00 b2 a4 	mova	#42162,	r0	;0x0a4b2

0000a4fe <.L38>:
    a4fe:	b0 13 d4 a3 	calla	#41940		;0x0a3d4
    a502:	80 00 b2 a4 	mova	#42162,	r0	;0x0a4b2

0000a506 <elyUARTDLLStartTx>:
    a506:	0a 14       	pushm.a	#1,	r10	;20-bit words
    a508:	08 14       	pushm.a	#1,	r8	;20-bit words
    a50a:	c8 0c       	mova	r12,	r8	;
    a50c:	ca 0d       	mova	r13,	r10	;
    a50e:	cc 0d       	mova	r13,	r12	;
    a510:	b0 13 8a c2 	calla	#49802		;0x0c28a
    a514:	60 0c 08 f0 	mova	r12,	&61448	; 0x0f008
    a518:	9c 00 00 00 	cmpa	#0,	r12	;
    a51c:	04 24       	jz	$+10     	;abs 0xa526
    a51e:	00 18 c2 9c 	cmpx.a	r12,	&0x0ef62;
    a522:	62 ef 
    a524:	04 2c       	jc	$+10     	;abs 0xa52e

0000a526 <.L40>:
    a526:	8c 01 6a 08 	mova	#67690,	r12	;0x1086a
    a52a:	b0 13 42 46 	calla	#17986		;0x04642

0000a52e <.L41>:
    a52e:	2c 00 08 f0 	mova	&61448,	r12	;0x0f008
    a532:	9c 00 00 00 	cmpa	#0,	r12	;
    a536:	04 24       	jz	$+10     	;abs 0xa540
    a538:	00 18 c2 9c 	cmpx.a	r12,	&0x0ef62;
    a53c:	62 ef 
    a53e:	07 2c       	jc	$+16     	;abs 0xa54e

0000a540 <.L42>:
    a540:	8c 01 6a 08 	mova	#67690,	r12	;0x1086a
    a544:	b0 13 42 46 	calla	#17986		;0x04642
    a548:	cc 0a       	mova	r10,	r12	;
    a54a:	b0 13 54 c1 	calla	#49492		;0x0c154

0000a54e <.L43>:
    a54e:	60 0a 04 f0 	mova	r10,	&61444	; 0x0f004
    a552:	60 0a 0c f0 	mova	r10,	&61452	; 0x0f00c
    a556:	41 18 e2 43 	movx.b	#2,	&0x10a52;r3 As==10
    a55a:	52 0a 
    a55c:	8a 00 d4 a3 	mova	#41940,	r10	;0x0a3d4
    a560:	4a 13       	calla	r10		;
    a562:	32 c2       	dint			
    a564:	03 43       	nop			
    a566:	03 43       	nop			
    a568:	2e 00 fc ef 	mova	&61436,	r14	;0x0effc
    a56c:	2d 00 00 f0 	mova	&61440,	r13	;0x0f000
    a570:	cc 08       	mova	r8,	r12	;
    a572:	b0 13 3c 50 	calla	#20540		;0x0503c
    a576:	2c 00 08 f0 	mova	&61448,	r12	;0x0f008
    a57a:	00 18 5c 82 	subx.a	&0x0f000,r12	;
    a57e:	00 f0 
    a580:	60 0c 08 f0 	mova	r12,	&61448	; 0x0f008
    a584:	9c 00 00 00 	cmpa	#0,	r12	;
    a588:	12 20       	jnz	$+38     	;abs 0xa5ae
    a58a:	2c 00 0c f0 	mova	&61452,	r12	;0x0f00c
    a58e:	b0 13 74 c1 	calla	#49524		;0x0c174
    a592:	80 18 f2 40 	movx.a	#67689,	&0x0effc;0x10869
    a596:	69 08 fc ef 
    a59a:	00 18 d2 43 	movx.a	#1,	&0x0f000;r3 As==01
    a59e:	00 f0 

0000a5a0 <.L52>:
    a5a0:	03 43       	nop			
    a5a2:	03 43       	nop			
    a5a4:	32 d2       	eint			
    a5a6:	03 43       	nop			
    a5a8:	08 16       	popm.a	#1,	r8	;20-bit words
    a5aa:	0a 16       	popm.a	#1,	r10	;20-bit words
    a5ac:	10 01       	reta			;

0000a5ae <.L44>:
    a5ae:	4a 13       	calla	r10		;
    a5b0:	80 00 a0 a5 	mova	#42400,	r0	;0x0a5a0

0000a5b4 <elyUARTDLLRxInit>:
    a5b4:	80 18 d2 42 	movx.a	&0x11a74,&0x0eff8;
    a5b8:	74 1a f8 ef 
    a5bc:	10 01       	reta			;

0000a5be <elyUARTDLLRxHandleBuffer>:
    a5be:	6a 14       	pushm.a	#7,	r10	;20-bit words
    a5c0:	28 00 10 f0 	mova	&61456,	r8	;0x0f010
    a5c4:	8e 00 1a f0 	mova	#61466,	r14	;0x0f01a
    a5c8:	1c 4e 02 02 	mov	514(r14),r12	;0x00202
    a5cc:	0d 4c       	mov	r12,	r13	;
    a5ce:	1d 53       	inc	r13		;
    a5d0:	8e 4d 02 02 	mov	r13,	514(r14); 0x0202
    a5d4:	5c f3       	and.b	#1,	r12	;r3 As==01
    a5d6:	0d 43       	clr	r13		;
    a5d8:	b0 13 be c4 	calla	#50366		;0x0c4be
    a5dc:	0d 12       	push	r13		;
    a5de:	0c 12       	push	r12		;
    a5e0:	0a 16       	popm.a	#1,	r10	;20-bit words
    a5e2:	aa 00 1a f0 	adda	#61466,	r10	;0x0f01a
    a5e6:	c5 0a       	mova	r10,	r5	;
    a5e8:	e5 08       	adda	r8,	r5	;
    a5ea:	87 00 d0 c0 	mova	#49360,	r7	;0x0c0d0
    a5ee:	84 00 a2 c2 	mova	#49826,	r4	;0x0c2a2
    a5f2:	86 00 8a c2 	mova	#49802,	r6	;0x0c28a

0000a5f6 <.L55>:
    a5f6:	da 05       	cmpa	r5,	r10	;
    a5f8:	13 28       	jnc	$+40     	;abs 0xa620
    a5fa:	7c 40 ff 00 	mov.b	#255,	r12	;#0x00ff
    a5fe:	dc 08       	cmpa	r8,	r12	;
    a600:	0d 28       	jnc	$+28     	;abs 0xa61c
    a602:	2c 00 ea cd 	mova	&52714,	r12	;0x0cdea
    a606:	9c 00 00 00 	cmpa	#0,	r12	;
    a60a:	05 24       	jz	$+12     	;abs 0xa616
    a60c:	b0 13 da c0 	calla	#49370		;0x0c0da
    a610:	00 18 c2 43 	movx.a	#0,	&0x0cdea;r3 As==00
    a614:	ea cd 

0000a616 <.L78>:
    a616:	40 18 c2 43 	movx.b	#0,	&0x0f018;r3 As==00
    a61a:	18 f0 

0000a61c <.L54>:
    a61c:	64 16       	popm.a	#7,	r10	;20-bit words
    a61e:	10 01       	reta			;

0000a620 <.L76>:
    a620:	69 4a       	mov.b	@r10,	r9	;
    a622:	40 18 c2 93 	cmpx.b	#0,	&0x0f018;r3 As==00
    a626:	18 f0 
    a628:	18 20       	jnz	$+50     	;abs 0xa65a
    a62a:	00 18 c2 93 	cmpx.a	#0,	&0x0cdea;r3 As==00
    a62e:	ea cd 
    a630:	03 20       	jnz	$+8      	;abs 0xa638
    a632:	47 13       	calla	r7		;
    a634:	60 0c ea cd 	mova	r12,	&52714	; 0x0cdea

0000a638 <.L57>:
    a638:	2c 00 ea cd 	mova	&52714,	r12	;0x0cdea
    a63c:	9c 00 00 00 	cmpa	#0,	r12	;
    a640:	ed 27       	jz	$-36     	;abs 0xa61c
    a642:	60 0c 14 f0 	mova	r12,	&61460	; 0x0f014
    a646:	00 18 f2 40 	movx.a	#6,	&0x0eff2;
    a64a:	06 00 f2 ef 
    a64e:	40 18 e2 43 	movx.b	#2,	&0x0f018;r3 As==10
    a652:	18 f0 
    a654:	40 18 d2 43 	movx.b	#1,	&0x0eff0;r3 As==01
    a658:	f0 ef 

0000a65a <.L56>:
    a65a:	40 18 5c 42 	movx.b	&0x0f018,r12	;
    a65e:	18 f0 
    a660:	5c 93       	cmp.b	#1,	r12	;r3 As==01
    a662:	08 24       	jz	$+18     	;abs 0xa674
    a664:	6c 93       	cmp.b	#2,	r12	;r3 As==10
    a666:	48 24       	jz	$+146    	;abs 0xa6f8
    a668:	8c 01 5b 08 	mova	#67675,	r12	;0x1085b
    a66c:	b0 13 42 46 	calla	#17986		;0x04642
    a670:	80 00 ae a6 	mova	#42670,	r0	;0x0a6ae

0000a674 <.L61>:
    a674:	79 90 dc ff 	cmp.b	#65500,	r9	;#0xffdc
    a678:	08 24       	jz	$+18     	;abs 0xa68a
    a67a:	79 90 dd ff 	cmp.b	#65501,	r9	;#0xffdd
    a67e:	30 24       	jz	$+98     	;abs 0xa6e0

0000a680 <.L86>:
    a680:	40 18 c2 43 	movx.b	#0,	&0x0f018;r3 As==00
    a684:	18 f0 
    a686:	80 00 f6 a5 	mova	#42486,	r0	;0x0a5f6

0000a68a <.L64>:
    a68a:	2c 00 14 f0 	mova	&61460,	r12	;0x0f014
    a68e:	cd 0c       	mova	r12,	r13	;
    a690:	ad 00 01 00 	adda	#1,	r13	;
    a694:	60 0d 14 f0 	mova	r13,	&61460	; 0x0f014
    a698:	fc 40 c0 ff 	mov.b	#65472,	0(r12)	;#0xffc0
    a69c:	00 00 

0000a69e <.L66>:
    a69e:	00 18 f2 53 	addx.a	#-1,	&0x0eff2;r3 As==11
    a6a2:	f2 ef 
    a6a4:	40 18 e2 43 	movx.b	#2,	&0x0f018;r3 As==10
    a6a8:	18 f0 

0000a6aa <.L85>:
    a6aa:	aa 00 01 00 	adda	#1,	r10	;

0000a6ae <.L68>:
    a6ae:	00 18 c2 93 	cmpx.a	#0,	&0x0eff2;r3 As==00
    a6b2:	f2 ef 
    a6b4:	a0 23       	jnz	$-190    	;abs 0xa5f6
    a6b6:	40 18 c2 93 	cmpx.b	#0,	&0x0eff0;r3 As==00
    a6ba:	f0 ef 
    a6bc:	9c 27       	jz	$-198    	;abs 0xa5f6
    a6be:	2c 00 ea cd 	mova	&52714,	r12	;0x0cdea
    a6c2:	44 13       	calla	r4		;
    a6c4:	4c 93       	cmp.b	#0,	r12	;r3 As==00
    a6c6:	4d 24       	jz	$+156    	;abs 0xa762
    a6c8:	2c 00 ea cd 	mova	&52714,	r12	;0x0cdea
    a6cc:	46 13       	calla	r6		;
    a6ce:	ac 0f fa ff 	adda	#1048570,r12	;0xffffa
    a6d2:	60 0c f2 ef 	mova	r12,	&61426	; 0x0eff2
    a6d6:	40 18 c2 43 	movx.b	#0,	&0x0eff0;r3 As==00
    a6da:	f0 ef 
    a6dc:	80 00 f6 a5 	mova	#42486,	r0	;0x0a5f6

0000a6e0 <.L65>:
    a6e0:	2c 00 14 f0 	mova	&61460,	r12	;0x0f014
    a6e4:	cd 0c       	mova	r12,	r13	;
    a6e6:	ad 00 01 00 	adda	#1,	r13	;
    a6ea:	60 0d 14 f0 	mova	r13,	&61460	; 0x0f014
    a6ee:	fc 40 db ff 	mov.b	#65499,	0(r12)	;#0xffdb
    a6f2:	00 00 
    a6f4:	80 00 9e a6 	mova	#42654,	r0	;0x0a69e

0000a6f8 <.L62>:
    a6f8:	79 90 c0 ff 	cmp.b	#65472,	r9	;#0xffc0
    a6fc:	0c 24       	jz	$+26     	;abs 0xa716
    a6fe:	79 90 db ff 	cmp.b	#65499,	r9	;#0xffdb
    a702:	1b 20       	jnz	$+56     	;abs 0xa73a
    a704:	00 18 c2 93 	cmpx.a	#0,	&0x0eff2;r3 As==00
    a708:	f2 ef 
    a70a:	ba 27       	jz	$-138    	;abs 0xa680
    a70c:	40 18 d2 43 	movx.b	#1,	&0x0f018;r3 As==01
    a710:	18 f0 
    a712:	80 00 aa a6 	mova	#42666,	r0	;0x0a6aa

0000a716 <.L70>:
    a716:	00 18 c2 93 	cmpx.a	#0,	&0x0eff2;r3 As==00
    a71a:	f2 ef 
    a71c:	07 20       	jnz	$+16     	;abs 0xa72c
    a71e:	2c 00 ea cd 	mova	&52714,	r12	;0x0cdea
    a722:	b0 13 82 c3 	calla	#50050		;0x0c382
    a726:	00 18 c2 43 	movx.a	#0,	&0x0cdea;r3 As==00
    a72a:	ea cd 

0000a72c <.L73>:
    a72c:	40 18 c2 43 	movx.b	#0,	&0x0f018;r3 As==00
    a730:	18 f0 
    a732:	aa 00 01 00 	adda	#1,	r10	;
    a736:	80 00 f6 a5 	mova	#42486,	r0	;0x0a5f6

0000a73a <.L84>:
    a73a:	2c 00 f2 ef 	mova	&61426,	r12	;0x0eff2
    a73e:	9c 00 00 00 	cmpa	#0,	r12	;
    a742:	9e 27       	jz	$-194    	;abs 0xa680
    a744:	2e 00 14 f0 	mova	&61460,	r14	;0x0f014
    a748:	cd 0e       	mova	r14,	r13	;
    a74a:	ad 00 01 00 	adda	#1,	r13	;
    a74e:	60 0d 14 f0 	mova	r13,	&61460	; 0x0f014
    a752:	ce 49 00 00 	mov.b	r9,	0(r14)	;
    a756:	ac 0f ff ff 	adda	#1048575,r12	;0xfffff
    a75a:	60 0c f2 ef 	mova	r12,	&61426	; 0x0eff2
    a75e:	80 00 aa a6 	mova	#42666,	r0	;0x0a6aa

0000a762 <.L75>:
    a762:	40 18 c2 4c 	movx.b	r12,	&0x0f018;
    a766:	18 f0 
    a768:	80 00 f6 a5 	mova	#42486,	r0	;0x0a5f6

0000a76c <elyUARTDLLTimeoutCB>:
    a76c:	8c 01 de 1b 	mova	#72670,	r12	;0x11bde
    a770:	b0 13 ec 50 	calla	#20716		;0x050ec
    a774:	3d 40 00 01 	mov	#256,	r13	;#0x0100
    a778:	fd 0c       	suba	r12,	r13	;
    a77a:	60 0d 10 f0 	mova	r13,	&61456	; 0x0f010
    a77e:	6d 42       	mov.b	#4,	r13	;r2 As==10
    a780:	4e 43       	clr.b	r14		;
    a782:	2c 00 f8 ef 	mova	&61432,	r12	;0x0eff8
    a786:	b0 13 ca 49 	calla	#18890		;0x049ca
    a78a:	10 01       	reta			;

0000a78c <elyUARTDLLRxCharCB>:
    a78c:	0a 14       	pushm.a	#1,	r10	;20-bit words
    a78e:	08 14       	pushm.a	#1,	r8	;20-bit words
    a790:	c8 0c       	mova	r12,	r8	;
    a792:	0a 4d       	mov	r13,	r10	;
    a794:	7c 40 ff 00 	mov.b	#255,	r12	;#0x00ff
    a798:	0c 9d       	cmp	r13,	r12	;
    a79a:	04 2c       	jc	$+10     	;abs 0xa7a4
    a79c:	8c 01 48 08 	mova	#67656,	r12	;0x10848
    a7a0:	b0 13 42 46 	calla	#17986		;0x04642

0000a7a4 <.L89>:
    a7a4:	8e 00 1a f0 	mova	#61466,	r14	;0x0f01a
    a7a8:	40 18 82 43 	movx.w	#0,	&0x0f21c;r3 As==00
    a7ac:	1c f2 
    a7ae:	40 18 92 43 	movx.w	#1,	&0x0f21a;r3 As==01
    a7b2:	1a f2 
    a7b4:	ce 4a 00 00 	mov.b	r10,	0(r14)	;
    a7b8:	ae 00 01 00 	adda	#1,	r14	;
    a7bc:	7d 40 ff 00 	mov.b	#255,	r13	;#0x00ff
    a7c0:	cc 08       	mova	r8,	r12	;
    a7c2:	b0 13 94 50 	calla	#20628		;0x05094
    a7c6:	3d 40 e8 03 	mov	#1000,	r13	;#0x03e8
    a7ca:	8c 01 42 1c 	mova	#72770,	r12	;0x11c42
    a7ce:	b0 13 06 4e 	calla	#19974		;0x04e06
    a7d2:	08 16       	popm.a	#1,	r8	;20-bit words
    a7d4:	0a 16       	popm.a	#1,	r10	;20-bit words
    a7d6:	10 01       	reta			;

0000a7d8 <elyUARTDLLRxCB>:
    a7d8:	0a 14       	pushm.a	#1,	r10	;20-bit words
    a7da:	08 14       	pushm.a	#1,	r8	;20-bit words
    a7dc:	ca 0c       	mova	r12,	r10	;
    a7de:	8e 00 1a f0 	mova	#61466,	r14	;0x0f01a
    a7e2:	1c 4e 00 02 	mov	512(r14),r12	;0x00200
    a7e6:	0d 4c       	mov	r12,	r13	;
    a7e8:	1d 53       	inc	r13		;
    a7ea:	8e 4d 00 02 	mov	r13,	512(r14); 0x0200
    a7ee:	5c f3       	and.b	#1,	r12	;r3 As==01
    a7f0:	0d 43       	clr	r13		;
    a7f2:	b0 13 be c4 	calla	#50366		;0x0c4be
    a7f6:	0d 12       	push	r13		;
    a7f8:	0c 12       	push	r12		;
    a7fa:	0e 16       	popm.a	#1,	r14	;20-bit words
    a7fc:	38 40 00 01 	mov	#256,	r8	;#0x0100
    a800:	ae 00 1a f0 	adda	#61466,	r14	;0x0f01a
    a804:	cd 08       	mova	r8,	r13	;
    a806:	cc 0a       	mova	r10,	r12	;
    a808:	b0 13 94 50 	calla	#20628		;0x05094
    a80c:	8a 01 42 1c 	mova	#72770,	r10	;0x11c42
    a810:	cc 0a       	mova	r10,	r12	;
    a812:	b0 13 4c 4e 	calla	#20044		;0x04e4c
    a816:	3d 40 e8 03 	mov	#1000,	r13	;#0x03e8
    a81a:	cc 0a       	mova	r10,	r12	;
    a81c:	b0 13 06 4e 	calla	#19974		;0x04e06
    a820:	60 08 10 f0 	mova	r8,	&61456	; 0x0f010
    a824:	6d 42       	mov.b	#4,	r13	;r2 As==10
    a826:	4e 43       	clr.b	r14		;
    a828:	2c 00 f8 ef 	mova	&61432,	r12	;0x0eff8
    a82c:	b0 13 ca 49 	calla	#18890		;0x049ca
    a830:	08 16       	popm.a	#1,	r8	;20-bit words
    a832:	0a 16       	popm.a	#1,	r10	;20-bit words
    a834:	10 01       	reta			;

0000a836 <crcGenX25>:
    a836:	0a 14       	pushm.a	#1,	r10	;20-bit words
    a838:	08 14       	pushm.a	#1,	r8	;20-bit words
    a83a:	06 14       	pushm.a	#1,	r6	;20-bit words
    a83c:	ca 0c       	mova	r12,	r10	;
    a83e:	c8 0d       	mova	r13,	r8	;
    a840:	40 18 c2 93 	cmpx.b	#0,	&0x0f21e;r3 As==00
    a844:	1e f2 
    a846:	04 24       	jz	$+10     	;abs 0xa850
    a848:	8c 01 ad 08 	mova	#67757,	r12	;0x108ad
    a84c:	b0 13 42 46 	calla	#17986		;0x04642

0000a850 <.L2>:
    a850:	5c 43       	mov.b	#1,	r12	;r3 As==01
    a852:	dc 08       	cmpa	r8,	r12	;
    a854:	04 28       	jnc	$+10     	;abs 0xa85e
    a856:	8c 01 ad 08 	mova	#67757,	r12	;0x108ad
    a85a:	b0 13 42 46 	calla	#17986		;0x04642

0000a85e <.L3>:
    a85e:	40 18 b2 43 	movx.w	#-1,	&0x00154;r3 As==11
    a862:	54 01 
    a864:	ce 0a       	mova	r10,	r14	;
    a866:	cc 08       	mova	r8,	r12	;
    a868:	ac 0f fe ff 	adda	#1048574,r12	;0xffffe

0000a86c <.L4>:
    a86c:	00 18 46 4e 	movx.a	r14,	r6	;
    a870:	00 18 46 8a 	subx.a	r10,	r6	;
    a874:	d6 0c       	cmpa	r12,	r6	;
    a876:	12 28       	jnc	$+38     	;abs 0xa89c
    a878:	ec 0a       	adda	r10,	r12	;
    a87a:	40 18 5d 42 	movx.b	&0x00157,r13	;
    a87e:	57 01 
    a880:	7d e3       	xor.b	#-1,	r13	;r3 As==11
    a882:	cc 4d 00 00 	mov.b	r13,	0(r12)	;
    a886:	ea 08       	adda	r8,	r10	;
    a888:	40 18 5c 42 	movx.b	&0x00156,r12	;
    a88c:	56 01 
    a88e:	7c e3       	xor.b	#-1,	r12	;r3 As==11
    a890:	ca 4c ff ff 	mov.b	r12,	-1(r10)	; 0xffff
    a894:	06 16       	popm.a	#1,	r6	;20-bit words
    a896:	08 16       	popm.a	#1,	r8	;20-bit words
    a898:	0a 16       	popm.a	#1,	r10	;20-bit words
    a89a:	10 01       	reta			;

0000a89c <.L5>:
    a89c:	40 18 e2 4e 	movx.b	@r14,	&0x00150;
    a8a0:	50 01 
    a8a2:	ae 00 01 00 	adda	#1,	r14	;
    a8a6:	80 00 6c a8 	mova	#43116,	r0	;0x0a86c

0000a8aa <crcCheckX25>:
    a8aa:	0a 14       	pushm.a	#1,	r10	;20-bit words
    a8ac:	08 14       	pushm.a	#1,	r8	;20-bit words
    a8ae:	06 14       	pushm.a	#1,	r6	;20-bit words
    a8b0:	ca 0c       	mova	r12,	r10	;
    a8b2:	c8 0d       	mova	r13,	r8	;
    a8b4:	40 18 c2 93 	cmpx.b	#0,	&0x0f21e;r3 As==00
    a8b8:	1e f2 
    a8ba:	04 24       	jz	$+10     	;abs 0xa8c4
    a8bc:	8c 01 a1 08 	mova	#67745,	r12	;0x108a1
    a8c0:	b0 13 42 46 	calla	#17986		;0x04642

0000a8c4 <.L7>:
    a8c4:	40 18 b2 43 	movx.w	#-1,	&0x00154;r3 As==11
    a8c8:	54 01 
    a8ca:	ce 0a       	mova	r10,	r14	;
    a8cc:	cc 08       	mova	r8,	r12	;
    a8ce:	ac 0f fe ff 	adda	#1048574,r12	;0xffffe

0000a8d2 <.L8>:
    a8d2:	00 18 46 4e 	movx.a	r14,	r6	;
    a8d6:	00 18 46 8a 	subx.a	r10,	r6	;
    a8da:	d6 0c       	cmpa	r12,	r6	;
    a8dc:	14 28       	jnc	$+42     	;abs 0xa906
    a8de:	ec 0a       	adda	r10,	r12	;
    a8e0:	6d 4c       	mov.b	@r12,	r13	;
    a8e2:	47 18 0d 5d 	rpt #8 { rlax.w	r13		;
    a8e6:	ea 08       	adda	r8,	r10	;
    a8e8:	5a 4a ff ff 	mov.b	-1(r10),r10	;
    a8ec:	0d da       	bis	r10,	r13	;
    a8ee:	40 18 1e 42 	movx.w	&0x00156,r14	;
    a8f2:	56 01 
    a8f4:	3e e3       	inv	r14		;
    a8f6:	5c 43       	mov.b	#1,	r12	;r3 As==01
    a8f8:	0d 9e       	cmp	r14,	r13	;
    a8fa:	01 24       	jz	$+4      	;abs 0xa8fe
    a8fc:	4c 43       	clr.b	r12		;

0000a8fe <.L10>:
    a8fe:	06 16       	popm.a	#1,	r6	;20-bit words
    a900:	08 16       	popm.a	#1,	r8	;20-bit words
    a902:	0a 16       	popm.a	#1,	r10	;20-bit words
    a904:	10 01       	reta			;

0000a906 <.L9>:
    a906:	40 18 e2 4e 	movx.b	@r14,	&0x00150;
    a90a:	50 01 
    a90c:	ae 00 01 00 	adda	#1,	r14	;
    a910:	80 00 d2 a8 	mova	#43218,	r0	;0x0a8d2

0000a914 <crcStart>:
    a914:	40 18 c2 93 	cmpx.b	#0,	&0x0f21e;r3 As==00
    a918:	1e f2 
    a91a:	04 24       	jz	$+10     	;abs 0xa924
    a91c:	8c 01 98 08 	mova	#67736,	r12	;0x10898
    a920:	b0 13 42 46 	calla	#17986		;0x04642

0000a924 <.L12>:
    a924:	40 18 b2 43 	movx.w	#-1,	&0x00154;r3 As==11
    a928:	54 01 
    a92a:	40 18 d2 43 	movx.b	#1,	&0x0f21e;r3 As==01
    a92e:	1e f2 
    a930:	8c 00 50 01 	mova	#336,	r12	;0x00150
    a934:	10 01       	reta			;

0000a936 <crcStop>:
    a936:	40 18 d2 93 	cmpx.b	#1,	&0x0f21e;r3 As==01
    a93a:	1e f2 
    a93c:	04 24       	jz	$+10     	;abs 0xa946
    a93e:	8c 01 90 08 	mova	#67728,	r12	;0x10890
    a942:	b0 13 42 46 	calla	#17986		;0x04642

0000a946 <.L14>:
    a946:	40 18 c2 43 	movx.b	#0,	&0x0f21e;r3 As==00
    a94a:	1e f2 
    a94c:	40 18 1c 42 	movx.w	&0x00156,r12	;
    a950:	56 01 
    a952:	3c e3       	inv	r12		;
    a954:	10 01       	reta			;

0000a956 <crcGenSDLP>:
    a956:	0a 14       	pushm.a	#1,	r10	;20-bit words
    a958:	08 14       	pushm.a	#1,	r8	;20-bit words
    a95a:	06 14       	pushm.a	#1,	r6	;20-bit words
    a95c:	ca 0c       	mova	r12,	r10	;
    a95e:	c8 0d       	mova	r13,	r8	;
    a960:	5c 43       	mov.b	#1,	r12	;r3 As==01
    a962:	dc 0d       	cmpa	r13,	r12	;
    a964:	04 28       	jnc	$+10     	;abs 0xa96e
    a966:	8c 01 b7 08 	mova	#67767,	r12	;0x108b7
    a96a:	b0 13 42 46 	calla	#17986		;0x04642

0000a96e <.L2>:
    a96e:	40 18 b2 43 	movx.w	#-1,	&0x00154;r3 As==11
    a972:	54 01 
    a974:	ce 0a       	mova	r10,	r14	;
    a976:	cc 08       	mova	r8,	r12	;
    a978:	ac 0f fe ff 	adda	#1048574,r12	;0xffffe

0000a97c <.L3>:
    a97c:	00 18 46 4e 	movx.a	r14,	r6	;
    a980:	00 18 46 8a 	subx.a	r10,	r6	;
    a984:	d6 0c       	cmpa	r12,	r6	;
    a986:	0e 28       	jnc	$+30     	;abs 0xa9a4
    a988:	ec 0a       	adda	r10,	r12	;
    a98a:	40 18 dc 42 	movx.b	&0x00155,0(r12)	;
    a98e:	55 01 00 00 
    a992:	ea 08       	adda	r8,	r10	;
    a994:	4f 18 da 42 	movx.b	&0x00154,-1(r10)	; 0xfffff
    a998:	54 01 ff ff 
    a99c:	06 16       	popm.a	#1,	r6	;20-bit words
    a99e:	08 16       	popm.a	#1,	r8	;20-bit words
    a9a0:	0a 16       	popm.a	#1,	r10	;20-bit words
    a9a2:	10 01       	reta			;

0000a9a4 <.L4>:
    a9a4:	40 18 e2 4e 	movx.b	@r14,	&0x00152;
    a9a8:	52 01 
    a9aa:	ae 00 01 00 	adda	#1,	r14	;
    a9ae:	80 00 7c a9 	mova	#43388,	r0	;0x0a97c

0000a9b2 <rxfifothresh_callback>:
    a9b2:	3d 40 00 10 	mov	#4096,	r13	;#0x1000
    a9b6:	4e 43       	clr.b	r14		;
    a9b8:	2c 01 3a 20 	mova	&73786,	r12	;0x1203a
    a9bc:	b0 13 ca 49 	calla	#18890		;0x049ca
    a9c0:	10 01       	reta			;

0000a9c2 <txlvl_callback>:
    a9c2:	3d 40 00 80 	mov	#32768,	r13	;#0x8000
    a9c6:	4e 43       	clr.b	r14		;
    a9c8:	2c 01 3a 20 	mova	&73786,	r12	;0x1203a
    a9cc:	b0 13 ca 49 	calla	#18890		;0x049ca
    a9d0:	10 01       	reta			;

0000a9d2 <write_cb>:
    a9d2:	1a 14       	pushm.a	#2,	r10	;20-bit words
    a9d4:	2c 01 4c 1c 	mova	&72780,	r12	;0x11c4c
    a9d8:	3c 0c 22 00 	mova	34(r12),r12	;0x00022
    a9dc:	ca 0c       	mova	r12,	r10	;
    a9de:	00 18 7a f0 	andx.a	#4095,	r10	;0x00fff
    a9e2:	ff 0f 
    a9e4:	19 4a 02 00 	mov	2(r10),	r9	;
    a9e8:	0c 14       	pushm.a	#1,	r12	;20-bit words
    a9ea:	40 18 3c 41 	popx.w	r12		;
    a9ee:	40 18 3d 41 	popx.w	r13		;
    a9f2:	b0 13 bc c5 	calla	#50620		;0x0c5bc
    a9f6:	0d 12       	push	r13		;
    a9f8:	0c 12       	push	r12		;
    a9fa:	0c 16       	popm.a	#1,	r12	;20-bit words
    a9fc:	40 18 0d 4c 	movx.w	r12,	r13	;
    aa00:	5c 43       	mov.b	#1,	r12	;r3 As==01
    aa02:	b0 13 9c c4 	calla	#50332		;0x0c49c
    aa06:	0c d9       	bis	r9,	r12	;
    aa08:	8a 4c 02 00 	mov	r12,	2(r10)	;
    aa0c:	8a 00 ca 49 	mova	#18890,	r10	;0x049ca
    aa10:	40 18 92 92 	cmpx.w	&0x0ce18,&0x0ce16;
    aa14:	18 ce 16 ce 
    aa18:	14 20       	jnz	$+42     	;abs 0xaa42
    aa1a:	c0 1f b2 f0 	andx.w	#-4097,	&0x00222;0xfefff
    aa1e:	ff ef 22 02 
    aa22:	6d 43       	mov.b	#2,	r13	;r3 As==10
    aa24:	3c 40 20 02 	mov	#544,	r12	;#0x0220
    aa28:	b0 13 f2 53 	calla	#21490		;0x053f2
    aa2c:	3d 40 00 20 	mov	#8192,	r13	;#0x2000
    aa30:	5e 43       	mov.b	#1,	r14	;r3 As==01
    aa32:	2c 01 3a 20 	mova	&73786,	r12	;0x1203a
    aa36:	4a 13       	calla	r10		;
    aa38:	40 18 82 43 	movx.w	#0,	&0x0ce16;r3 As==00
    aa3c:	16 ce 

0000aa3e <.L3>:
    aa3e:	19 16       	popm.a	#2,	r10	;20-bit words
    aa40:	10 01       	reta			;

0000aa42 <.L4>:
    aa42:	3d 40 00 20 	mov	#8192,	r13	;#0x2000
    aa46:	4e 43       	clr.b	r14		;
    aa48:	2c 01 3a 20 	mova	&73786,	r12	;0x1203a
    aa4c:	4a 13       	calla	r10		;
    aa4e:	80 00 3e aa 	mova	#43582,	r0	;0x0aa3e

0000aa52 <elyRFChangeTxSyncS>:
    aa52:	0a 14       	pushm.a	#1,	r10	;20-bit words
    aa54:	2a 01 44 08 	mova	&67652,	r10	;0x10844
    aa58:	ea b2 c4 00 	bit.b	#4,	196(r10);r2 As==10, 0x00c4
    aa5c:	16 20       	jnz	$+46     	;abs 0xaa8a
    aa5e:	5d 4a 11 00 	mov.b	17(r10),r13	;0x00011
    aa62:	47 18 0d 5d 	rpt #8 { rlax.w	r13		;
    aa66:	5e 4a 10 00 	mov.b	16(r10),r14	;0x00010
    aa6a:	0d de       	bis	r14,	r13	;
    aa6c:	5e 4a 13 00 	mov.b	19(r10),r14	;0x00013
    aa70:	47 18 0e 5e 	rpt #8 { rlax.w	r14		;
    aa74:	5a 4a 12 00 	mov.b	18(r10),r10	;0x00012
    aa78:	0e da       	bis	r10,	r14	;
    aa7a:	8c 4d 18 00 	mov	r13,	24(r12)	; 0x0018
    aa7e:	8c 4e 1a 00 	mov	r14,	26(r12)	; 0x001a
    aa82:	8c 01 4c 1c 	mova	#72780,	r12	;0x11c4c
    aa86:	b0 13 5a 69 	calla	#26970		;0x0695a

0000aa8a <.L6>:
    aa8a:	0a 16       	popm.a	#1,	r10	;20-bit words
    aa8c:	10 01       	reta			;

0000aa8e <elyRFDLLClampReg>:
    aa8e:	1a 14       	pushm.a	#2,	r10	;20-bit words
    aa90:	49 4c       	mov.b	r12,	r9	;
    aa92:	4a 4d       	mov.b	r13,	r10	;
    aa94:	4c 49       	mov.b	r9,	r12	;
    aa96:	7c 50 40 00 	add.b	#64,	r12	;#0x0040
    aa9a:	7d 40 14 00 	mov.b	#20,	r13	;#0x0014
    aa9e:	4d 9c       	cmp.b	r12,	r13	;
    aaa0:	04 2c       	jc	$+10     	;abs 0xaaaa
    aaa2:	8c 01 e5 08 	mova	#67813,	r12	;0x108e5
    aaa6:	b0 13 42 46 	calla	#17986		;0x04642

0000aaaa <.L9>:
    aaaa:	79 90 c3 ff 	cmp.b	#65475,	r9	;#0xffc3
    aaae:	57 24       	jz	$+176    	;abs 0xab5e
    aab0:	7d 40 c3 ff 	mov.b	#65475,	r13	;#0xffc3
    aab4:	4d 99       	cmp.b	r9,	r13	;
    aab6:	0d 28       	jnc	$+28     	;abs 0xaad2
    aab8:	79 90 c1 ff 	cmp.b	#65473,	r9	;#0xffc1
    aabc:	30 24       	jz	$+98     	;abs 0xab1e
    aabe:	7d 40 c1 ff 	mov.b	#65473,	r13	;#0xffc1
    aac2:	4d 99       	cmp.b	r9,	r13	;
    aac4:	38 28       	jnc	$+114    	;abs 0xab36
    aac6:	79 90 c0 ff 	cmp.b	#65472,	r9	;#0xffc0
    aaca:	1d 24       	jz	$+60     	;abs 0xab06

0000aacc <.L10>:
    aacc:	4c 4a       	mov.b	r10,	r12	;
    aace:	19 16       	popm.a	#2,	r10	;20-bit words
    aad0:	10 01       	reta			;

0000aad2 <.L12>:
    aad2:	79 90 c7 ff 	cmp.b	#65479,	r9	;#0xffc7
    aad6:	49 24       	jz	$+148    	;abs 0xab6a
    aad8:	79 90 c7 ff 	cmp.b	#65479,	r9	;#0xffc7
    aadc:	f7 2b       	jnc	$-16     	;abs 0xaacc
    aade:	79 50 35 00 	add.b	#53,	r9	;#0x0035
    aae2:	7c 42       	mov.b	#8,	r12	;r2 As==11
    aae4:	4c 99       	cmp.b	r9,	r12	;
    aae6:	f2 2b       	jnc	$-26     	;abs 0xaacc
    aae8:	40 18 3a b0 	bitx.w	#16,	r10	;0x00010
    aaec:	10 00 
    aaee:	41 24       	jz	$+132    	;abs 0xab72
    aaf0:	3a 90 10 00 	cmp	#16,	r10	;#0x0010
    aaf4:	3e 24       	jz	$+126    	;abs 0xab72
    aaf6:	7c 40 88 ff 	mov.b	#65416,	r12	;#0xff88
    aafa:	b0 13 96 a3 	calla	#41878		;0x0a396
    aafe:	7a 40 10 00 	mov.b	#16,	r10	;#0x0010
    ab02:	80 00 cc aa 	mova	#43724,	r0	;0x0aacc

0000ab06 <.L15>:
    ab06:	7d 40 06 00 	mov.b	#6,	r13	;
    ab0a:	4d 9a       	cmp.b	r10,	r13	;
    ab0c:	df 2b       	jnc	$-64     	;abs 0xaacc
    ab0e:	7c 40 88 ff 	mov.b	#65416,	r12	;#0xff88
    ab12:	b0 13 96 a3 	calla	#41878		;0x0a396
    ab16:	7a 40 07 00 	mov.b	#7,	r10	;
    ab1a:	80 00 cc aa 	mova	#43724,	r0	;0x0aacc

0000ab1e <.L13>:
    ab1e:	7c 40 40 00 	mov.b	#64,	r12	;#0x0040
    ab22:	4c 9a       	cmp.b	r10,	r12	;
    ab24:	d3 2f       	jc	$-88     	;abs 0xaacc
    ab26:	7c 40 88 ff 	mov.b	#65416,	r12	;#0xff88
    ab2a:	b0 13 96 a3 	calla	#41878		;0x0a396
    ab2e:	7a 40 40 00 	mov.b	#64,	r10	;#0x0040
    ab32:	80 00 cc aa 	mova	#43724,	r0	;0x0aacc

0000ab36 <.L14>:
    ab36:	4c 4a       	mov.b	r10,	r12	;
    ab38:	7c f0 38 00 	and.b	#56,	r12	;#0x0038
    ab3c:	7c 90 38 00 	cmp.b	#56,	r12	;#0x0038
    ab40:	02 20       	jnz	$+6      	;abs 0xab46
    ab42:	7a f0 f7 00 	and.b	#247,	r10	;#0x00f7

0000ab46 <.L18>:
    ab46:	4c 4a       	mov.b	r10,	r12	;
    ab48:	7c f0 07 00 	and.b	#7,	r12	;
    ab4c:	7d 40 05 00 	mov.b	#5,	r13	;
    ab50:	4d 9c       	cmp.b	r12,	r13	;
    ab52:	bc 2f       	jc	$-134    	;abs 0xaacc
    ab54:	7a f0 fc 00 	and.b	#252,	r10	;#0x00fc
    ab58:	1a d3       	bis	#1,	r10	;r3 As==01
    ab5a:	80 00 cc aa 	mova	#43724,	r0	;0x0aacc

0000ab5e <.L11>:
    ab5e:	4c 4a       	mov.b	r10,	r12	;
    ab60:	7c f0 03 00 	and.b	#3,	r12	;
    ab64:	7c 90 03 00 	cmp.b	#3,	r12	;
    ab68:	b1 23       	jnz	$-156    	;abs 0xaacc

0000ab6a <.L16>:
    ab6a:	7a f0 fe 00 	and.b	#254,	r10	;#0x00fe
    ab6e:	80 00 cc aa 	mova	#43724,	r0	;0x0aacc

0000ab72 <.L19>:
    ab72:	40 18 3a b2 	bitx.w	#8,	r10	;r2 As==11
    ab76:	09 24       	jz	$+20     	;abs 0xab8a
    ab78:	3a 92       	cmp	#8,	r10	;r2 As==11
    ab7a:	07 24       	jz	$+16     	;abs 0xab8a
    ab7c:	7c 40 88 ff 	mov.b	#65416,	r12	;#0xff88
    ab80:	b0 13 96 a3 	calla	#41878		;0x0a396
    ab84:	7a 42       	mov.b	#8,	r10	;r2 As==11
    ab86:	80 00 cc aa 	mova	#43724,	r0	;0x0aacc

0000ab8a <.L20>:
    ab8a:	40 18 2a b2 	bitx.w	#4,	r10	;r2 As==10
    ab8e:	09 24       	jz	$+20     	;abs 0xaba2
    ab90:	2a 92       	cmp	#4,	r10	;r2 As==10
    ab92:	07 24       	jz	$+16     	;abs 0xaba2
    ab94:	7c 40 88 ff 	mov.b	#65416,	r12	;#0xff88
    ab98:	b0 13 96 a3 	calla	#41878		;0x0a396
    ab9c:	6a 42       	mov.b	#4,	r10	;r2 As==10
    ab9e:	80 00 cc aa 	mova	#43724,	r0	;0x0aacc

0000aba2 <.L21>:
    aba2:	40 18 2a b3 	bitx.w	#2,	r10	;r3 As==10
    aba6:	09 24       	jz	$+20     	;abs 0xabba
    aba8:	2a 93       	cmp	#2,	r10	;r3 As==10
    abaa:	07 24       	jz	$+16     	;abs 0xabba
    abac:	7c 40 88 ff 	mov.b	#65416,	r12	;#0xff88
    abb0:	b0 13 96 a3 	calla	#41878		;0x0a396
    abb4:	6a 43       	mov.b	#2,	r10	;r3 As==10
    abb6:	80 00 cc aa 	mova	#43724,	r0	;0x0aacc

0000abba <.L22>:
    abba:	40 18 1a b3 	bitx.w	#1,	r10	;r3 As==01
    abbe:	09 24       	jz	$+20     	;abs 0xabd2
    abc0:	1a 93       	cmp	#1,	r10	;r3 As==01
    abc2:	07 24       	jz	$+16     	;abs 0xabd2
    abc4:	7c 40 88 ff 	mov.b	#65416,	r12	;#0xff88
    abc8:	b0 13 96 a3 	calla	#41878		;0x0a396
    abcc:	5a 43       	mov.b	#1,	r10	;r3 As==01
    abce:	80 00 cc aa 	mova	#43724,	r0	;0x0aacc

0000abd2 <.L23>:
    abd2:	7a b0 d0 ff 	bit.b	#65488,	r10	;#0xffd0
    abd6:	7a 27       	jz	$-266    	;abs 0xaacc
    abd8:	7c 40 88 ff 	mov.b	#65416,	r12	;#0xff88
    abdc:	b0 13 96 a3 	calla	#41878		;0x0a396
    abe0:	4a 43       	clr.b	r10		;
    abe2:	80 00 cc aa 	mova	#43724,	r0	;0x0aacc

0000abe6 <elyRFDLLBuildFrame>:
    abe6:	6a 14       	pushm.a	#7,	r10	;20-bit words
    abe8:	8a 00 9e 49 	mova	#18846,	r10	;0x0499e
    abec:	3d 40 00 04 	mov	#1024,	r13	;#0x0400
    abf0:	4e 43       	clr.b	r14		;
    abf2:	2c 01 3a 20 	mova	&73786,	r12	;0x1203a
    abf6:	4a 13       	calla	r10		;
    abf8:	24 01 44 08 	mova	&67652,	r4	;0x10844
    abfc:	5c 44 ca 00 	mov.b	202(r4),r12	;0x000ca
    ac00:	5d 44 c9 00 	mov.b	201(r4),r13	;0x000c9
    ac04:	86 01 53 0a 	mova	#68179,	r6	;0x10a53
    ac08:	0f 4d       	mov	r13,	r15	;
    ac0a:	5f 0f       	rrum	#4,	r15	;
    ac0c:	6f d6       	bis.b	@r6,	r15	;
    ac0e:	0e 4c       	mov	r12,	r14	;
    ac10:	43 18 0e 5e 	rpt #4 { rlax.w	r14		;
    ac14:	7e f0 30 00 	and.b	#48,	r14	;#0x0030
    ac18:	4f de       	bis.b	r14,	r15	;
    ac1a:	c6 4f 00 00 	mov.b	r15,	0(r6)	;
    ac1e:	43 18 0d 5d 	rpt #4 { rlax.w	r13		;
    ac22:	5d d6 01 00 	bis.b	1(r6),	r13	;
    ac26:	0c 11       	rra	r12		;
    ac28:	7c f0 0e 00 	and.b	#14,	r12	;#0x000e
    ac2c:	4d dc       	bis.b	r12,	r13	;
    ac2e:	c6 4d 01 00 	mov.b	r13,	1(r6)	;
    ac32:	40 18 5e 42 	movx.b	&0x0ce10,r14	;
    ac36:	10 ce 
    ac38:	c6 4e 02 00 	mov.b	r14,	2(r6)	;
    ac3c:	8c 00 0e ce 	mova	#52750,	r12	;0x0ce0e
    ac40:	6d 4c       	mov.b	@r12,	r13	;
    ac42:	c6 4d 03 00 	mov.b	r13,	3(r6)	;
    ac46:	5e 53       	inc.b	r14		;
    ac48:	40 18 c2 4e 	movx.b	r14,	&0x0ce10;
    ac4c:	10 ce 
    ac4e:	5d 53       	inc.b	r13		;
    ac50:	cc 4d 00 00 	mov.b	r13,	0(r12)	;
    ac54:	5c 46 04 00 	mov.b	4(r6),	r12	;
    ac58:	7c f0 bf ff 	and.b	#65471,	r12	;#0xffbf
    ac5c:	7c d0 07 00 	bis.b	#7,	r12	;
    ac60:	c6 4c 04 00 	mov.b	r12,	4(r6)	;
    ac64:	41 18 f2 43 	movx.b	#-1,	&0x10a58;r3 As==11
    ac68:	58 0a 
    ac6a:	40 18 c2 93 	cmpx.b	#0,	&0x0f234;r3 As==00
    ac6e:	34 f2 
    ac70:	44 20       	jnz	$+138    	;abs 0xacfa
    ac72:	3e 43       	mov	#-1,	r14	;r3 As==11
    ac74:	8d 00 30 f2 	mova	#62000,	r13	;0x0f230
    ac78:	8c 00 08 cf 	mova	#53000,	r12	;0x0cf08
    ac7c:	b0 13 bc 4b 	calla	#19388		;0x04bbc
    ac80:	9c 00 00 00 	cmpa	#0,	r12	;
    ac84:	04 24       	jz	$+10     	;abs 0xac8e
    ac86:	8c 01 d2 08 	mova	#67794,	r12	;0x108d2
    ac8a:	b0 13 42 46 	calla	#17986		;0x04642

0000ac8e <.L60>:
    ac8e:	2c 00 30 f2 	mova	&62000,	r12	;0x0f230
    ac92:	b0 13 8a c2 	calla	#49802		;0x0c28a
    ac96:	60 0c 2c f2 	mova	r12,	&61996	; 0x0f22c
    ac9a:	f6 f0 f8 ff 	and.b	#65528,	4(r6)	;#0xfff8
    ac9e:	04 00 
    aca0:	41 18 c2 43 	movx.b	#0,	&0x10a58;r3 As==00
    aca4:	58 0a 
    aca6:	00 18 c2 43 	movx.a	#0,	&0x0f228;r3 As==00
    acaa:	28 f2 
    acac:	00 18 c2 43 	movx.a	#0,	&0x0f224;r3 As==00
    acb0:	24 f2 
    acb2:	00 18 c2 43 	movx.a	#0,	&0x0f220;r3 As==00
    acb6:	20 f2 
    acb8:	59 43       	mov.b	#1,	r9	;r3 As==01

0000acba <.L59>:
    acba:	40 18 d2 43 	movx.b	#1,	&0x0f234;r3 As==01
    acbe:	34 f2 
    acc0:	7a 40 06 00 	mov.b	#6,	r10	;
    acc4:	85 00 54 c1 	mova	#49492,	r5	;0x0c154
    acc8:	87 00 bc 4b 	mova	#19388,	r7	;0x04bbc

0000accc <.L61>:
    accc:	28 00 12 ce 	mova	&52754,	r8	;0x0ce12
    acd0:	da 08       	cmpa	r8,	r10	;
    acd2:	16 20       	jnz	$+46     	;abs 0xad00
    acd4:	c4 93 c2 00 	cmp.b	#0,	194(r4)	;r3 As==00, 0x00c2
    acd8:	07 34       	jge	$+16     	;abs 0xace8
    acda:	40 18 1d 42 	movx.w	&0x0ce18,r13	;
    acde:	18 ce 
    ace0:	8c 01 53 0a 	mova	#68179,	r12	;0x10a53
    ace4:	b0 13 56 a9 	calla	#43350		;0x0a956

0000ace8 <.L77>:
    ace8:	3d 40 00 08 	mov	#2048,	r13	;#0x0800
    acec:	4e 43       	clr.b	r14		;
    acee:	2c 01 3a 20 	mova	&73786,	r12	;0x1203a
    acf2:	b0 13 9e 49 	calla	#18846		;0x0499e
    acf6:	64 16       	popm.a	#7,	r10	;20-bit words
    acf8:	10 01       	reta			;

0000acfa <.L78>:
    acfa:	49 43       	clr.b	r9		;
    acfc:	80 00 ba ac 	mova	#44218,	r0	;0x0acba

0000ad00 <.L76>:
    ad00:	40 18 5c 42 	movx.b	&0x0f234,r12	;
    ad04:	34 f2 
    ad06:	6c 93       	cmp.b	#2,	r12	;r3 As==10
    ad08:	14 24       	jz	$+42     	;abs 0xad32
    ad0a:	7c 90 03 00 	cmp.b	#3,	r12	;
    ad0e:	86 24       	jz	$+270    	;abs 0xae1c
    ad10:	5c 93       	cmp.b	#1,	r12	;r3 As==01
    ad12:	bb 20       	jnz	$+376    	;abs 0xae8a
    ad14:	00 18 c2 93 	cmpx.a	#0,	&0x0f228;r3 As==00
    ad18:	28 f2 
    ad1a:	06 24       	jz	$+14     	;abs 0xad28
    ad1c:	40 18 f2 40 	movx.b	#3,	&0x0f234;
    ad20:	03 00 34 f2 
    ad24:	80 00 cc ac 	mova	#44236,	r0	;0x0accc

0000ad28 <.L66>:
    ad28:	40 18 e2 43 	movx.b	#2,	&0x0f234;r3 As==10
    ad2c:	34 f2 
    ad2e:	80 00 cc ac 	mova	#44236,	r0	;0x0accc

0000ad32 <.L63>:
    ad32:	00 18 d2 92 	cmpx.a	&0x0f22c,&0x0f220;
    ad36:	2c f2 20 f2 
    ad3a:	5f 20       	jnz	$+192    	;abs 0xadfa
    ad3c:	00 18 c2 43 	movx.a	#0,	&0x0f220;r3 As==00
    ad40:	20 f2 
    ad42:	2c 00 30 f2 	mova	&62000,	r12	;0x0f230
    ad46:	45 13       	calla	r5		;
    ad48:	09 93       	cmp	#0,	r9	;r3 As==00
    ad4a:	14 20       	jnz	$+42     	;abs 0xad74
    ad4c:	cc 0a       	mova	r10,	r12	;
    ad4e:	ac 0f fa ff 	adda	#1048570,r12	;0xffffa
    ad52:	0c 14       	pushm.a	#1,	r12	;20-bit words
    ad54:	40 18 3c 41 	popx.w	r12		;
    ad58:	40 18 3d 41 	popx.w	r13		;
    ad5c:	b0 13 d4 c5 	calla	#50644		;0x0c5d4
    ad60:	0d 12       	push	r13		;
    ad62:	0c 12       	push	r12		;
    ad64:	0c 16       	popm.a	#1,	r12	;20-bit words
    ad66:	c6 dc 04 00 	bis.b	r12,	4(r6)	;
    ad6a:	4c 4a       	mov.b	r10,	r12	;
    ad6c:	7c 50 fa ff 	add.b	#65530,	r12	;#0xfffa
    ad70:	c6 4c 05 00 	mov.b	r12,	5(r6)	;

0000ad74 <.L69>:
    ad74:	7e 40 64 00 	mov.b	#100,	r14	;#0x0064
    ad78:	8d 00 30 f2 	mova	#62000,	r13	;0x0f230
    ad7c:	8c 00 08 cf 	mova	#53000,	r12	;0x0cf08
    ad80:	47 13       	calla	r7		;
    ad82:	9c 00 00 00 	cmpa	#0,	r12	;
    ad86:	32 24       	jz	$+102    	;abs 0xadec
    ad88:	2e 00 12 ce 	mova	&52754,	r14	;0x0ce12
    ad8c:	00 18 4c 4e 	movx.a	r14,	r12	;
    ad90:	00 18 4c 8a 	subx.a	r10,	r12	;
    ad94:	7d 40 06 00 	mov.b	#6,	r13	;
    ad98:	dd 0c       	cmpa	r12,	r13	;
    ad9a:	23 2c       	jc	$+72     	;abs 0xade2
    ad9c:	60 0c 28 f2 	mova	r12,	&61992	; 0x0f228

0000ada0 <.L72>:
    ada0:	28 00 28 f2 	mova	&61992,	r8	;0x0f228
    ada4:	89 00 f0 cd 	mova	#52720,	r9	;0x0cdf0
    ada8:	cc 08       	mova	r8,	r12	;
    adaa:	ac 0f f9 ff 	adda	#1048569,r12	;0xffff9
    adae:	0c 14       	pushm.a	#1,	r12	;20-bit words
    adb0:	40 18 3c 41 	popx.w	r12		;
    adb4:	40 18 3d 41 	popx.w	r13		;
    adb8:	b0 13 d4 c5 	calla	#50644		;0x0c5d4
    adbc:	0d 12       	push	r13		;
    adbe:	0c 12       	push	r12		;
    adc0:	0c 16       	popm.a	#1,	r12	;20-bit words
    adc2:	c9 4c 04 00 	mov.b	r12,	4(r9)	;
    adc6:	78 50 f9 ff 	add.b	#65529,	r8	;#0xfff9
    adca:	c9 48 05 00 	mov.b	r8,	5(r9)	;
    adce:	00 18 c2 43 	movx.a	#0,	&0x0f224;r3 As==00
    add2:	24 f2 
    add4:	40 18 f2 40 	movx.b	#3,	&0x0f234;
    add8:	03 00 34 f2 
    addc:	59 43       	mov.b	#1,	r9	;r3 As==01
    adde:	80 00 cc ac 	mova	#44236,	r0	;0x0accc

0000ade2 <.L71>:
    ade2:	ee 0c       	adda	r12,	r14	;
    ade4:	60 0e 28 f2 	mova	r14,	&61992	; 0x0f228
    ade8:	80 00 a0 ad 	mova	#44448,	r0	;0x0ada0

0000adec <.L70>:
    adec:	2c 00 30 f2 	mova	&62000,	r12	;0x0f230
    adf0:	b0 13 8a c2 	calla	#49802		;0x0c28a
    adf4:	60 0c 2c f2 	mova	r12,	&61996	; 0x0f22c
    adf8:	59 43       	mov.b	#1,	r9	;r3 As==01

0000adfa <.L68>:
    adfa:	2c 00 20 f2 	mova	&61984,	r12	;0x0f220
    adfe:	cd 0c       	mova	r12,	r13	;
    ae00:	ad 00 01 00 	adda	#1,	r13	;
    ae04:	60 0d 20 f2 	mova	r13,	&61984	; 0x0f220
    ae08:	00 18 5c 52 	addx.a	&0x0f230,r12	;
    ae0c:	30 f2 
    ae0e:	41 18 ea 4c 	movx.b	@r12,	68179(r10); 0x10a53
    ae12:	53 0a 
    ae14:	aa 00 01 00 	adda	#1,	r10	;
    ae18:	80 00 cc ac 	mova	#44236,	r0	;0x0accc

0000ae1c <.L64>:
    ae1c:	2c 00 24 f2 	mova	&61988,	r12	;0x0f224
    ae20:	ce 0a       	mova	r10,	r14	;
    ae22:	ae 00 01 00 	adda	#1,	r14	;
    ae26:	aa 01 53 0a 	adda	#68179,	r10	;0x10a53
    ae2a:	7d 40 05 00 	mov.b	#5,	r13	;
    ae2e:	dd 0c       	cmpa	r12,	r13	;
    ae30:	23 28       	jnc	$+72     	;abs 0xae78
    ae32:	cd 0c       	mova	r12,	r13	;
    ae34:	ad 00 01 00 	adda	#1,	r13	;
    ae38:	60 0d 24 f2 	mova	r13,	&61988	; 0x0f224
    ae3c:	40 18 da 4c 	movx.b	52720(r12),0(r10)	;0x0cdf0
    ae40:	f0 cd 00 00 

0000ae44 <.L83>:
    ae44:	ca 0e       	mova	r14,	r10	;
    ae46:	00 18 d2 92 	cmpx.a	&0x0f228,&0x0f224;
    ae4a:	28 f2 24 f2 
    ae4e:	3e 23       	jnz	$-386    	;abs 0xaccc
    ae50:	de 08       	cmpa	r8,	r14	;
    ae52:	04 24       	jz	$+10     	;abs 0xae5c
    ae54:	8c 01 d2 08 	mova	#67794,	r12	;0x108d2
    ae58:	b0 13 42 46 	calla	#17986		;0x04642

0000ae5c <.L75>:
    ae5c:	00 18 c2 43 	movx.a	#0,	&0x0f228;r3 As==00
    ae60:	28 f2 
    ae62:	3e 43       	mov	#-1,	r14	;r3 As==11
    ae64:	3c 40 00 04 	mov	#1024,	r12	;#0x0400
    ae68:	4d 43       	clr.b	r13		;
    ae6a:	b0 13 12 4a 	calla	#18962		;0x04a12
    ae6e:	40 18 c2 43 	movx.b	#0,	&0x0f234;r3 As==00
    ae72:	34 f2 
    ae74:	80 00 cc ac 	mova	#44236,	r0	;0x0accc

0000ae78 <.L73>:
    ae78:	fa 40 aa ff 	mov.b	#65450,	0(r10)	;#0xffaa
    ae7c:	00 00 
    ae7e:	ac 00 01 00 	adda	#1,	r12	;
    ae82:	60 0c 24 f2 	mova	r12,	&61988	; 0x0f224
    ae86:	80 00 44 ae 	mova	#44612,	r0	;0x0ae44

0000ae8a <.L82>:
    ae8a:	8c 01 d2 08 	mova	#67794,	r12	;0x108d2
    ae8e:	b0 13 42 46 	calla	#17986		;0x04642
    ae92:	80 00 cc ac 	mova	#44236,	r0	;0x0accc

0000ae96 <elyRFDLLRxInit>:
    ae96:	0a 14       	pushm.a	#1,	r10	;20-bit words
    ae98:	ca 0c       	mova	r12,	r10	;
    ae9a:	b0 13 fa 73 	calla	#29690		;0x073fa
    ae9e:	8e 00 b2 a9 	mova	#43442,	r14	;0x0a9b2
    aea2:	7d 40 05 00 	mov.b	#5,	r13	;
    aea6:	cc 0a       	mova	r10,	r12	;
    aea8:	b0 13 c0 72 	calla	#29376		;0x072c0
    aeac:	40 18 c2 43 	movx.b	#0,	&0x0ce0d;r3 As==00
    aeb0:	0d ce 
    aeb2:	3d 40 00 60 	mov	#24576,	r13	;#0x6000
    aeb6:	4e 43       	clr.b	r14		;
    aeb8:	2c 01 3a 20 	mova	&73786,	r12	;0x1203a
    aebc:	b0 13 9e 49 	calla	#18846		;0x0499e
    aec0:	0a 16       	popm.a	#1,	r10	;20-bit words
    aec2:	10 01       	reta			;

0000aec4 <elyRFDLLHandleRxFifo>:
    aec4:	0a 14       	pushm.a	#1,	r10	;20-bit words
    aec6:	08 14       	pushm.a	#1,	r8	;20-bit words
    aec8:	06 14       	pushm.a	#1,	r6	;20-bit words
    aeca:	ca 0c       	mova	r12,	r10	;
    aecc:	86 00 56 73 	mova	#29526,	r6	;0x07356
    aed0:	40 18 c2 93 	cmpx.b	#0,	&0x0ce0d;r3 As==00
    aed4:	0d ce 
    aed6:	58 20       	jnz	$+178    	;abs 0xaf88
    aed8:	88 00 08 ce 	mova	#52744,	r8	;0x0ce08
    aedc:	ce 08       	mova	r8,	r14	;
    aede:	7d 40 05 00 	mov.b	#5,	r13	;
    aee2:	46 13       	calla	r6		;
    aee4:	2c 01 44 08 	mova	&67652,	r12	;0x10844
    aee8:	6d 48       	mov.b	@r8,	r13	;
    aeea:	5d ec ca 00 	xor.b	202(r12),r13	;0x000ca
    aeee:	3d b0 03 00 	bit	#3,	r13	;
    aef2:	05 20       	jnz	$+12     	;abs 0xaefe
    aef4:	40 18 d2 9c 	cmpx.b	201(r12),&0x0ce09;0x000c9
    aef8:	c9 00 09 ce 
    aefc:	07 24       	jz	$+16     	;abs 0xaf0c

0000aefe <.L98>:
    aefe:	cc 0a       	mova	r10,	r12	;
    af00:	b0 13 96 ae 	calla	#44694		;0x0ae96

0000af04 <.L96>:
    af04:	06 16       	popm.a	#1,	r6	;20-bit words
    af06:	08 16       	popm.a	#1,	r8	;20-bit words
    af08:	0a 16       	popm.a	#1,	r10	;20-bit words
    af0a:	10 01       	reta			;

0000af0c <.L99>:
    af0c:	5c 48 02 00 	mov.b	2(r8),	r12	;
    af10:	47 18 0c 5c 	rpt #8 { rlax.w	r12		;
    af14:	3c f0 00 03 	and	#768,	r12	;#0x0300
    af18:	58 48 03 00 	mov.b	3(r8),	r8	;
    af1c:	0c d8       	bis	r8,	r12	;
    af1e:	3c 50 fc ff 	add	#65532,	r12	;#0xfffc
    af22:	40 18 82 4c 	movx.w	r12,	&0x0ce00;
    af26:	00 ce 
    af28:	32 c2       	dint			
    af2a:	03 43       	nop			
    af2c:	03 43       	nop			
    af2e:	b0 13 e6 c0 	calla	#49382		;0x0c0e6
    af32:	60 0c 04 ce 	mova	r12,	&52740	; 0x0ce04
    af36:	9c 00 00 00 	cmpa	#0,	r12	;
    af3a:	e1 27       	jz	$-60     	;abs 0xaefe
    af3c:	40 18 1d 42 	movx.w	&0x0ce00,r13	;
    af40:	00 ce 
    af42:	7c 40 3f 00 	mov.b	#63,	r12	;#0x003f
    af46:	0c 9d       	cmp	r13,	r12	;
    af48:	02 2c       	jc	$+6      	;abs 0xaf4e
    af4a:	7d 40 20 00 	mov.b	#32,	r13	;#0x0020

0000af4e <.L101>:
    af4e:	40 18 c2 4d 	movx.b	r13,	&0x0cdfe;
    af52:	fe cd 
    af54:	40 18 82 43 	movx.w	#0,	&0x0ce02;r3 As==00
    af58:	02 ce 
    af5a:	8e 00 b2 a9 	mova	#43442,	r14	;0x0a9b2
    af5e:	40 18 0d 4d 	movx.w	r13,	r13	;
    af62:	cc 0a       	mova	r10,	r12	;
    af64:	b0 13 84 72 	calla	#29316		;0x07284
    af68:	3d 40 00 20 	mov	#8192,	r13	;#0x2000
    af6c:	4e 43       	clr.b	r14		;
    af6e:	2c 01 3a 20 	mova	&73786,	r12	;0x1203a
    af72:	b0 13 ca 49 	calla	#18890		;0x049ca
    af76:	40 18 d2 43 	movx.b	#1,	&0x0ce0d;r3 As==01
    af7a:	0d ce 

0000af7c <.L107>:
    af7c:	03 43       	nop			
    af7e:	03 43       	nop			
    af80:	32 d2       	eint			
    af82:	03 43       	nop			
    af84:	80 00 04 af 	mova	#44804,	r0	;0x0af04

0000af88 <.L97>:
    af88:	40 18 1e 42 	movx.w	&0x0ce02,r14	;
    af8c:	02 ce 
    af8e:	00 18 5e 52 	addx.a	&0x0ce04,r14	;
    af92:	04 ce 
    af94:	40 18 5f 42 	movx.b	&0x0cdfe,r15	;
    af98:	fe cd 
    af9a:	40 18 0d 4f 	movx.w	r15,	r13	;
    af9e:	46 13       	calla	r6		;
    afa0:	40 18 5c 42 	movx.b	&0x0cdfe,r12	;
    afa4:	fe cd 
    afa6:	40 18 1c 52 	addx.w	&0x0ce02,r12	;
    afaa:	02 ce 
    afac:	40 18 82 4c 	movx.w	r12,	&0x0ce02;
    afb0:	02 ce 
    afb2:	40 18 1d 42 	movx.w	&0x0ce00,r13	;
    afb6:	00 ce 
    afb8:	0c 9d       	cmp	r13,	r12	;
    afba:	1d 2c       	jc	$+60     	;abs 0xaff6
    afbc:	32 c2       	dint			
    afbe:	03 43       	nop			
    afc0:	03 43       	nop			
    afc2:	0d 8c       	sub	r12,	r13	;
    afc4:	7c 40 3f 00 	mov.b	#63,	r12	;#0x003f
    afc8:	0c 9d       	cmp	r13,	r12	;
    afca:	02 2c       	jc	$+6      	;abs 0xafd0
    afcc:	7d 40 30 00 	mov.b	#48,	r13	;#0x0030

0000afd0 <.L103>:
    afd0:	40 18 c2 4d 	movx.b	r13,	&0x0cdfe;
    afd4:	fe cd 
    afd6:	8e 00 b2 a9 	mova	#43442,	r14	;0x0a9b2
    afda:	40 18 0d 4d 	movx.w	r13,	r13	;
    afde:	cc 0a       	mova	r10,	r12	;
    afe0:	b0 13 84 72 	calla	#29316		;0x07284
    afe4:	3d 40 00 20 	mov	#8192,	r13	;#0x2000
    afe8:	4e 43       	clr.b	r14		;
    afea:	2c 01 3a 20 	mova	&73786,	r12	;0x1203a
    afee:	b0 13 ca 49 	calla	#18890		;0x049ca
    aff2:	80 00 7c af 	mova	#44924,	r0	;0x0af7c

0000aff6 <.L102>:
    aff6:	2c 00 04 ce 	mova	&52740,	r12	;0x0ce04
    affa:	b0 13 94 c3 	calla	#50068		;0x0c394
    affe:	cc 0a       	mova	r10,	r12	;
    b000:	b0 13 96 ae 	calla	#44694		;0x0ae96
    b004:	3d 40 00 20 	mov	#8192,	r13	;#0x2000
    b008:	4e 43       	clr.b	r14		;
    b00a:	2c 01 3a 20 	mova	&73786,	r12	;0x1203a
    b00e:	b0 13 9e 49 	calla	#18846		;0x0499e
    b012:	80 00 04 af 	mova	#44804,	r0	;0x0af04

0000b016 <elyRFDLLTxInit>:
    b016:	32 c2       	dint			
    b018:	03 43       	nop			
    b01a:	03 43       	nop			
    b01c:	2e 01 44 08 	mova	&67652,	r14	;0x10844
    b020:	5d 4e c1 00 	mov.b	193(r14),r13	;0x000c1
    b024:	47 18 0d 5d 	rpt #8 { rlax.w	r13		;
    b028:	5f 4e c0 00 	mov.b	192(r14),r15	;0x000c0
    b02c:	0d df       	bis	r15,	r13	;
    b02e:	40 18 82 4d 	movx.w	r13,	&0x0ce18;
    b032:	18 ce 
    b034:	5e 4e c4 00 	mov.b	196(r14),r14	;0x000c4
    b038:	40 18 3e b0 	bitx.w	#32,	r14	;0x00020
    b03c:	20 00 
    b03e:	02 24       	jz	$+6      	;abs 0xb044
    b040:	3d 50 fc ff 	add	#65532,	r13	;#0xfffc

0000b044 <.L109>:
    b044:	00 18 c2 4d 	movx.a	r13,	&0x0ce12;
    b048:	12 ce 
    b04a:	40 18 2e b2 	bitx.w	#4,	r14	;r2 As==10
    b04e:	06 24       	jz	$+14     	;abs 0xb05c
    b050:	3d 40 1d fc 	mov	#64541,	r13	;#0xfc1d
    b054:	3e 40 cf 1a 	mov	#6863,	r14	;#0x1acf
    b058:	b0 13 5a 69 	calla	#26970		;0x0695a

0000b05c <.L111>:
    b05c:	03 43       	nop			
    b05e:	03 43       	nop			
    b060:	32 d2       	eint			
    b062:	03 43       	nop			
    b064:	10 01       	reta			;

0000b066 <elyRFDLLInitiateTransmit>:
    b066:	b1 00 04 00 	suba	#4,	r1	;
    b06a:	40 18 b2 d0 	bisx.w	#4096,	&0x00222;0x01000
    b06e:	00 10 22 02 
    b072:	40 18 1d 42 	movx.w	&0x0ce18,r13	;
    b076:	18 ce 
    b078:	00 18 f1 40 	movx.a	#43474,	0(r1)	;0x0a9d2
    b07c:	d2 a9 00 00 
    b080:	8f 00 c2 a9 	mova	#43458,	r15	;0x0a9c2
    b084:	8e 01 53 0a 	mova	#68179,	r14	;0x10a53
    b088:	b0 13 56 6c 	calla	#27734		;0x06c56
    b08c:	40 18 82 4c 	movx.w	r12,	&0x0ce16;
    b090:	16 ce 
    b092:	a1 00 04 00 	adda	#4,	r1	;
    b096:	10 01       	reta			;

0000b098 <elyRFDLLHandleTxFifo>:
    b098:	0a 14       	pushm.a	#1,	r10	;20-bit words
    b09a:	40 18 1e 42 	movx.w	&0x0ce16,r14	;
    b09e:	16 ce 
    b0a0:	40 18 1a 42 	movx.w	&0x0ce18,r10	;
    b0a4:	18 ce 
    b0a6:	0a 8e       	sub	r14,	r10	;
    b0a8:	7d 40 1f 00 	mov.b	#31,	r13	;#0x001f
    b0ac:	0d 9a       	cmp	r10,	r13	;
    b0ae:	01 2c       	jc	$+4      	;abs 0xb0b2
    b0b0:	0a 4d       	mov	r13,	r10	;

0000b0b2 <.L117>:
    b0b2:	32 c2       	dint			
    b0b4:	03 43       	nop			
    b0b6:	03 43       	nop			
    b0b8:	40 18 0e 4e 	movx.w	r14,	r14	;
    b0bc:	8f 00 d2 a9 	mova	#43474,	r15	;0x0a9d2
    b0c0:	ae 01 53 0a 	adda	#68179,	r14	;0x10a53
    b0c4:	40 18 0d 4a 	movx.w	r10,	r13	;
    b0c8:	b0 13 d6 6b 	calla	#27606		;0x06bd6
    b0cc:	40 18 82 5a 	addx.w	r10,	&0x0ce16;
    b0d0:	16 ce 
    b0d2:	03 43       	nop			
    b0d4:	03 43       	nop			
    b0d6:	32 d2       	eint			
    b0d8:	03 43       	nop			
    b0da:	0a 16       	popm.a	#1,	r10	;20-bit words
    b0dc:	10 01       	reta			;

0000b0de <fram_mpool_alloc>:
    b0de:	0a 14       	pushm.a	#1,	r10	;20-bit words
    b0e0:	2e 00 3a ce 	mova	&52794,	r14	;0x0ce3a
    b0e4:	ca 0e       	mova	r14,	r10	;
    b0e6:	ea 0c       	adda	r12,	r10	;
    b0e8:	7c 40 48 00 	mov.b	#72,	r12	;#0x0048
    b0ec:	dc 0a       	cmpa	r10,	r12	;
    b0ee:	07 28       	jnc	$+16     	;abs 0xb0fe
    b0f0:	cc 0e       	mova	r14,	r12	;
    b0f2:	ac 00 3e ce 	adda	#52798,	r12	;0x0ce3e
    b0f6:	60 0a 3a ce 	mova	r10,	&52794	; 0x0ce3a

0000b0fa <.L1>:
    b0fa:	0a 16       	popm.a	#1,	r10	;20-bit words
    b0fc:	10 01       	reta			;

0000b0fe <.L3>:
    b0fe:	4c 43       	clr.b	r12		;
    b100:	80 00 fa b0 	mova	#45306,	r0	;0x0b0fa

0000b104 <addr_cb>:
    b104:	2a 14       	pushm.a	#3,	r10	;20-bit words
    b106:	06 14       	pushm.a	#1,	r6	;20-bit words
    b108:	b1 00 08 00 	suba	#8,	r1	;
    b10c:	c8 0c       	mova	r12,	r8	;
    b10e:	2c 00 36 f2 	mova	&62006,	r12	;0x0f236
    b112:	5e 4c 04 00 	mov.b	4(r12),	r14	;
    b116:	4d 4e       	mov.b	r14,	r13	;
    b118:	5d f3       	and.b	#1,	r13	;r3 As==01
    b11a:	36 0c 08 00 	mova	8(r12),	r6	;
    b11e:	5a 4c 06 00 	mov.b	6(r12),	r10	;
    b122:	59 4c 10 00 	mov.b	16(r12),r9	;0x00010
    b126:	1c 4c 04 00 	mov	4(r12),	r12	;
    b12a:	40 18 2e b3 	bitx.w	#2,	r14	;r3 As==10
    b12e:	37 24       	jz	$+112    	;abs 0xb19e
    b130:	4d 93       	cmp.b	#0,	r13	;r3 As==00
    b132:	1c 24       	jz	$+58     	;abs 0xb16c
    b134:	b0 13 94 c5 	calla	#50580		;0x0c594
    b138:	0d 4a       	mov	r10,	r13	;
    b13a:	4d 18 0d 5d 	rpt #14 { rlax.w	r13		;
    b13e:	0d dc       	bis	r12,	r13	;
    b140:	81 4d 04 00 	mov	r13,	4(r1)	;
    b144:	5a 07       	rrum	#2,	r10	;
    b146:	5a f3       	and.b	#1,	r10	;r3 As==01
    b148:	81 4a 06 00 	mov	r10,	6(r1)	;
    b14c:	00 18 f1 40 	movx.a	#45654,	0(r1)	;0x0b256
    b150:	56 b2 00 00 
    b154:	cf 06       	mova	r6,	r15	;
    b156:	3e 01 04 00 	mova	4(r1),	r14	;
    b15a:	4d 49       	mov.b	r9,	r13	;
    b15c:	cc 08       	mova	r8,	r12	;
    b15e:	b0 13 bc 59 	calla	#22972		;0x059bc

0000b162 <.L4>:
    b162:	a1 00 08 00 	adda	#8,	r1	;
    b166:	06 16       	popm.a	#1,	r6	;20-bit words
    b168:	28 16       	popm.a	#3,	r10	;20-bit words
    b16a:	10 01       	reta			;

0000b16c <.L6>:
    b16c:	b0 13 94 c5 	calla	#50580		;0x0c594
    b170:	0d 4a       	mov	r10,	r13	;
    b172:	4d 18 0d 5d 	rpt #14 { rlax.w	r13		;
    b176:	0d dc       	bis	r12,	r13	;
    b178:	81 4d 04 00 	mov	r13,	4(r1)	;
    b17c:	5a 07       	rrum	#2,	r10	;
    b17e:	5a f3       	and.b	#1,	r10	;r3 As==01
    b180:	81 4a 06 00 	mov	r10,	6(r1)	;
    b184:	00 18 f1 40 	movx.a	#45654,	0(r1)	;0x0b256
    b188:	56 b2 00 00 
    b18c:	cf 06       	mova	r6,	r15	;
    b18e:	3e 01 04 00 	mova	4(r1),	r14	;
    b192:	4d 49       	mov.b	r9,	r13	;
    b194:	cc 08       	mova	r8,	r12	;
    b196:	b0 13 a2 5a 	calla	#23202		;0x05aa2
    b19a:	80 00 62 b1 	mova	#45410,	r0	;0x0b162

0000b19e <.L5>:
    b19e:	4d 93       	cmp.b	#0,	r13	;r3 As==00
    b1a0:	19 24       	jz	$+52     	;abs 0xb1d4
    b1a2:	b0 13 94 c5 	calla	#50580		;0x0c594
    b1a6:	0d 4a       	mov	r10,	r13	;
    b1a8:	4d 18 0d 5d 	rpt #14 { rlax.w	r13		;
    b1ac:	0d dc       	bis	r12,	r13	;
    b1ae:	81 4d 04 00 	mov	r13,	4(r1)	;
    b1b2:	5a 07       	rrum	#2,	r10	;
    b1b4:	5a f3       	and.b	#1,	r10	;r3 As==01
    b1b6:	81 4a 06 00 	mov	r10,	6(r1)	;
    b1ba:	00 18 f1 40 	movx.a	#45654,	0(r1)	;0x0b256
    b1be:	56 b2 00 00 
    b1c2:	cf 06       	mova	r6,	r15	;
    b1c4:	3e 01 04 00 	mova	4(r1),	r14	;
    b1c8:	4d 49       	mov.b	r9,	r13	;
    b1ca:	cc 08       	mova	r8,	r12	;
    b1cc:	b0 13 4e 5c 	calla	#23630		;0x05c4e
    b1d0:	80 00 62 b1 	mova	#45410,	r0	;0x0b162

0000b1d4 <.L8>:
    b1d4:	b0 13 94 c5 	calla	#50580		;0x0c594
    b1d8:	0d 4a       	mov	r10,	r13	;
    b1da:	4d 18 0d 5d 	rpt #14 { rlax.w	r13		;
    b1de:	0d dc       	bis	r12,	r13	;
    b1e0:	81 4d 04 00 	mov	r13,	4(r1)	;
    b1e4:	5a 07       	rrum	#2,	r10	;
    b1e6:	5a f3       	and.b	#1,	r10	;r3 As==01
    b1e8:	81 4a 06 00 	mov	r10,	6(r1)	;
    b1ec:	00 18 f1 40 	movx.a	#45654,	0(r1)	;0x0b256
    b1f0:	56 b2 00 00 
    b1f4:	cf 06       	mova	r6,	r15	;
    b1f6:	3e 01 04 00 	mova	4(r1),	r14	;
    b1fa:	4d 49       	mov.b	r9,	r13	;
    b1fc:	cc 08       	mova	r8,	r12	;
    b1fe:	b0 13 f4 5c 	calla	#23796		;0x05cf4
    b202:	80 00 62 b1 	mova	#45410,	r0	;0x0b162

0000b206 <fram_handle_request>:
    b206:	0a 14       	pushm.a	#1,	r10	;20-bit words
    b208:	b1 00 04 00 	suba	#4,	r1	;
    b20c:	ca 0c       	mova	r12,	r10	;
    b20e:	5c 43       	mov.b	#1,	r12	;r3 As==01
    b210:	1c 9a 02 00 	cmp	2(r10),	r12	;
    b214:	04 2c       	jc	$+10     	;abs 0xb21e
    b216:	8c 01 37 09 	mova	#67895,	r12	;0x10937
    b21a:	b0 13 42 46 	calla	#17986		;0x04642

0000b21e <.L10>:
    b21e:	60 0a 36 f2 	mova	r10,	&62006	; 0x0f236
    b222:	2c 4a       	mov	@r10,	r12	;
    b224:	1d 4a 02 00 	mov	2(r10),	r13	;
    b228:	7e 40 10 00 	mov.b	#16,	r14	;#0x0010
    b22c:	b0 13 0e c6 	calla	#50702		;0x0c60e
    b230:	4d 4c       	mov.b	r12,	r13	;
    b232:	7d d0 50 00 	bis.b	#80,	r13	;#0x0050
    b236:	ca 4d 10 00 	mov.b	r13,	16(r10)	; 0x0010
    b23a:	00 18 f1 40 	movx.a	#45316,	0(r1)	;0x0b104
    b23e:	04 b1 00 00 
    b242:	cf 0a       	mova	r10,	r15	;
    b244:	6e 43       	mov.b	#2,	r14	;r3 As==10
    b246:	8c 01 a0 1b 	mova	#72608,	r12	;0x11ba0
    b24a:	b0 13 8a 5b 	calla	#23434		;0x05b8a
    b24e:	a1 00 04 00 	adda	#4,	r1	;
    b252:	0a 16       	popm.a	#1,	r10	;20-bit words
    b254:	10 01       	reta			;

0000b256 <end_cb>:
    b256:	0a 14       	pushm.a	#1,	r10	;20-bit words
    b258:	b1 00 04 00 	suba	#4,	r1	;
    b25c:	ca 0d       	mova	r13,	r10	;
    b25e:	b0 13 9c 5d 	calla	#23964		;0x05d9c
    b262:	40 18 d2 53 	incx.b	&0xce28		;
    b266:	28 ce 
    b268:	2d 00 36 f2 	mova	&62006,	r13	;0x0f236
    b26c:	8c 00 1c ce 	mova	#52764,	r12	;0x0ce1c
    b270:	b0 13 b2 4c 	calla	#19634		;0x04cb2
    b274:	8c 00 1a ce 	mova	#52762,	r12	;0x0ce1a
    b278:	b0 13 32 49 	calla	#18738		;0x04932
    b27c:	2c 00 36 f2 	mova	&62006,	r12	;0x0f236
    b280:	3e 0c 0c 00 	mova	12(r12),r14	;0x0000c
    b284:	9e 00 00 00 	cmpa	#0,	r14	;
    b288:	02 24       	jz	$+6      	;abs 0xb28e
    b28a:	cc 0a       	mova	r10,	r12	;
    b28c:	4e 13       	calla	r14		;

0000b28e <.L14>:
    b28e:	40 18 5c 42 	movx.b	&0x0ce28,r12	;
    b292:	28 ce 
    b294:	40 18 c2 9c 	cmpx.b	r12,	&0x0ce29;
    b298:	29 ce 
    b29a:	13 24       	jz	$+40     	;abs 0xb2c2
    b29c:	7c f0 03 00 	and.b	#3,	r12	;
    b2a0:	0d 43       	clr	r13		;
    b2a2:	0e 4c       	mov	r12,	r14	;
    b2a4:	0f 4d       	mov	r13,	r15	;
    b2a6:	0e 5e       	rla	r14		;
    b2a8:	0f 6f       	rlc	r15		;
    b2aa:	0e 5e       	rla	r14		;
    b2ac:	0f 6f       	rlc	r15		;
    b2ae:	81 4e 00 00 	mov	r14,	0(r1)	;
    b2b2:	81 4f 02 00 	mov	r15,	2(r1)	;
    b2b6:	0d 01       	mova	@r1,	r13	;
    b2b8:	00 18 5c 4d 	movx.a	52778(r13),r12	;0x0ce2a
    b2bc:	2a ce 
    b2be:	b0 13 06 b2 	calla	#45574		;0x0b206

0000b2c2 <.L13>:
    b2c2:	a1 00 04 00 	adda	#4,	r1	;
    b2c6:	0a 16       	popm.a	#1,	r10	;20-bit words
    b2c8:	10 01       	reta			;

0000b2ca <elyFramPostRequestI>:
    b2ca:	0a 14       	pushm.a	#1,	r10	;20-bit words
    b2cc:	b1 00 04 00 	suba	#4,	r1	;
    b2d0:	ca 0c       	mova	r12,	r10	;
    b2d2:	40 18 5c 42 	movx.b	&0x0ce29,r12	;
    b2d6:	29 ce 
    b2d8:	40 18 5d 42 	movx.b	&0x0ce28,r13	;
    b2dc:	28 ce 
    b2de:	0c 8d       	sub	r13,	r12	;
    b2e0:	2c 92       	cmp	#4,	r12	;r2 As==10
    b2e2:	04 20       	jnz	$+10     	;abs 0xb2ec
    b2e4:	8c 01 23 09 	mova	#67875,	r12	;0x10923
    b2e8:	b0 13 42 46 	calla	#17986		;0x04642

0000b2ec <.L20>:
    b2ec:	40 18 5c 42 	movx.b	&0x0ce29,r12	;
    b2f0:	29 ce 
    b2f2:	4e 4c       	mov.b	r12,	r14	;
    b2f4:	5e 53       	inc.b	r14		;
    b2f6:	40 18 c2 4e 	movx.b	r14,	&0x0ce29;
    b2fa:	29 ce 
    b2fc:	7c f0 03 00 	and.b	#3,	r12	;
    b300:	0d 43       	clr	r13		;
    b302:	0e 4c       	mov	r12,	r14	;
    b304:	0f 4d       	mov	r13,	r15	;
    b306:	0e 5e       	rla	r14		;
    b308:	0f 6f       	rlc	r15		;
    b30a:	0e 5e       	rla	r14		;
    b30c:	0f 6f       	rlc	r15		;
    b30e:	81 4e 00 00 	mov	r14,	0(r1)	;
    b312:	81 4f 02 00 	mov	r15,	2(r1)	;
    b316:	0c 01       	mova	@r1,	r12	;
    b318:	00 18 cc 4a 	movx.a	r10,	-12758(r12); 0xfce2a
    b31c:	2a ce 
    b31e:	a1 00 04 00 	adda	#4,	r1	;
    b322:	0a 16       	popm.a	#1,	r10	;20-bit words
    b324:	10 01       	reta			;

0000b326 <elyFramPostRequestS>:
    b326:	0a 14       	pushm.a	#1,	r10	;20-bit words
    b328:	ca 0c       	mova	r12,	r10	;
    b32a:	8e 00 ca b2 	mova	#45770,	r14	;0x0b2ca
    b32e:	40 18 d2 92 	cmpx.b	&0x0ce28,&0x0ce29;
    b332:	28 ce 29 ce 
    b336:	06 20       	jnz	$+14     	;abs 0xb344
    b338:	4e 13       	calla	r14		;
    b33a:	cc 0a       	mova	r10,	r12	;
    b33c:	b0 13 06 b2 	calla	#45574		;0x0b206

0000b340 <.L21>:
    b340:	0a 16       	popm.a	#1,	r10	;20-bit words
    b342:	10 01       	reta			;

0000b344 <.L22>:
    b344:	4e 13       	calla	r14		;
    b346:	80 00 40 b3 	mova	#45888,	r0	;0x0b340

0000b34a <elyFramGetRequestTimeoutS>:
    b34a:	0a 14       	pushm.a	#1,	r10	;20-bit words
    b34c:	08 14       	pushm.a	#1,	r8	;20-bit words
    b34e:	c8 0c       	mova	r12,	r8	;
    b350:	8c 00 1a ce 	mova	#52762,	r12	;0x0ce1a
    b354:	b0 13 e0 48 	calla	#18656		;0x048e0
    b358:	ca 0c       	mova	r12,	r10	;
    b35a:	9c 00 00 00 	cmpa	#0,	r12	;
    b35e:	10 20       	jnz	$+34     	;abs 0xb380
    b360:	8c 00 1c ce 	mova	#52764,	r12	;0x0ce1c
    b364:	b0 13 64 4c 	calla	#19556		;0x04c64
    b368:	78 0c 00 00 	mova	r12,	0(r8)	;
    b36c:	9c 00 00 00 	cmpa	#0,	r12	;
    b370:	04 20       	jnz	$+10     	;abs 0xb37a
    b372:	8c 01 f6 08 	mova	#67830,	r12	;0x108f6
    b376:	b0 13 42 46 	calla	#17986		;0x04642

0000b37a <.L30>:
    b37a:	0c 08       	mova	@r8,	r12	;
    b37c:	dc c3 04 00 	bic.b	#1,	4(r12)	;r3 As==01

0000b380 <.L28>:
    b380:	cc 0a       	mova	r10,	r12	;
    b382:	08 16       	popm.a	#1,	r8	;20-bit words
    b384:	0a 16       	popm.a	#1,	r10	;20-bit words
    b386:	10 01       	reta			;

0000b388 <elyFramInit>:
    b388:	8d 01 54 12 	mova	#70228,	r13	;0x11254
    b38c:	8c 01 a0 1b 	mova	#72608,	r12	;0x11ba0
    b390:	b0 13 92 4e 	calla	#20114		;0x04e92
    b394:	10 01       	reta			;

0000b396 <port_lock>:
    b396:	32 c2       	dint			
    b398:	03 43       	nop			
    b39a:	03 43       	nop			
    b39c:	10 01       	reta			;

0000b39e <port_unlock>:
    b39e:	03 43       	nop			
    b3a0:	03 43       	nop			
    b3a2:	32 d2       	eint			
    b3a4:	03 43       	nop			
    b3a6:	10 01       	reta			;

0000b3a8 <elyRFPostI>:
    b3a8:	0a 14       	pushm.a	#1,	r10	;20-bit words
    b3aa:	cd 0c       	mova	r12,	r13	;
    b3ac:	8c 00 08 cf 	mova	#53000,	r12	;0x0cf08
    b3b0:	b0 13 f0 4a 	calla	#19184		;0x04af0
    b3b4:	ca 0c       	mova	r12,	r10	;
    b3b6:	9c 00 00 00 	cmpa	#0,	r12	;
    b3ba:	07 20       	jnz	$+16     	;abs 0xb3ca
    b3bc:	3d 40 00 04 	mov	#1024,	r13	;#0x0400
    b3c0:	4e 43       	clr.b	r14		;
    b3c2:	2c 01 3a 20 	mova	&73786,	r12	;0x1203a
    b3c6:	b0 13 ca 49 	calla	#18890		;0x049ca

0000b3ca <.L3>:
    b3ca:	cc 0a       	mova	r10,	r12	;
    b3cc:	0a 16       	popm.a	#1,	r10	;20-bit words
    b3ce:	10 01       	reta			;

0000b3d0 <elyRFPost>:
    b3d0:	1a 14       	pushm.a	#2,	r10	;20-bit words
    b3d2:	ca 0c       	mova	r12,	r10	;
    b3d4:	09 4d       	mov	r13,	r9	;
    b3d6:	b0 13 96 b3 	calla	#45974		;0x0b396
    b3da:	0e 49       	mov	r9,	r14	;
    b3dc:	cd 0a       	mova	r10,	r13	;
    b3de:	8c 00 08 cf 	mova	#53000,	r12	;0x0cf08
    b3e2:	b0 13 76 4a 	calla	#19062		;0x04a76
    b3e6:	ca 0c       	mova	r12,	r10	;
    b3e8:	9c 00 00 00 	cmpa	#0,	r12	;
    b3ec:	07 20       	jnz	$+16     	;abs 0xb3fc
    b3ee:	3d 40 00 04 	mov	#1024,	r13	;#0x0400
    b3f2:	4e 43       	clr.b	r14		;
    b3f4:	2c 01 3a 20 	mova	&73786,	r12	;0x1203a
    b3f8:	b0 13 ca 49 	calla	#18890		;0x049ca

0000b3fc <.L6>:
    b3fc:	b0 13 9e b3 	calla	#45982		;0x0b39e
    b400:	cc 0a       	mova	r10,	r12	;
    b402:	19 16       	popm.a	#2,	r10	;20-bit words
    b404:	10 01       	reta			;

0000b406 <elyRFCfgMarkDirty>:
    b406:	1a 14       	pushm.a	#2,	r10	;20-bit words
    b408:	0a 4c       	mov	r12,	r10	;
    b40a:	09 4d       	mov	r13,	r9	;
    b40c:	81 18 d2 92 	cmpx.a	&0x1203a,&0x11a74;
    b410:	3a 20 74 1a 
    b414:	04 20       	jnz	$+10     	;abs 0xb41e
    b416:	8c 01 ad 09 	mova	#68013,	r12	;0x109ad
    b41a:	b0 13 42 46 	calla	#17986		;0x04642

0000b41e <.L11>:
    b41e:	3a b0 ff 03 	bit	#1023,	r10	;#0x03ff
    b422:	04 20       	jnz	$+10     	;abs 0xb42c
    b424:	8c 01 ad 09 	mova	#68013,	r12	;0x109ad
    b428:	b0 13 42 46 	calla	#17986		;0x04642

0000b42c <.L12>:
    b42c:	0d 4a       	mov	r10,	r13	;
    b42e:	0e 49       	mov	r9,	r14	;
    b430:	2c 01 3a 20 	mova	&73786,	r12	;0x1203a
    b434:	b0 13 9e 49 	calla	#18846		;0x0499e
    b438:	19 16       	popm.a	#2,	r10	;20-bit words
    b43a:	10 01       	reta			;

0000b43c <elyRFChangeTxFreqS>:
    b43c:	0a 14       	pushm.a	#1,	r10	;20-bit words
    b43e:	08 14       	pushm.a	#1,	r8	;20-bit words
    b440:	ca 0c       	mova	r12,	r10	;
    b442:	b0 13 96 b3 	calla	#45974		;0x0b396
    b446:	2e 01 44 08 	mova	&67652,	r14	;0x10844
    b44a:	5d 4e 01 00 	mov.b	1(r14),	r13	;
    b44e:	47 18 0d 5d 	rpt #8 { rlax.w	r13		;
    b452:	6c 4e       	mov.b	@r14,	r12	;
    b454:	0d dc       	bis	r12,	r13	;
    b456:	5c 4e 03 00 	mov.b	3(r14),	r12	;
    b45a:	47 18 0c 5c 	rpt #8 { rlax.w	r12		;
    b45e:	5e 4e 02 00 	mov.b	2(r14),	r14	;
    b462:	0c de       	bis	r14,	r12	;
    b464:	3e 40 ec 38 	mov	#14572,	r14	;#0x38ec
    b468:	0e 9c       	cmp	r12,	r14	;
    b46a:	4b 28       	jnc	$+152    	;abs 0xb502
    b46c:	0c 9e       	cmp	r14,	r12	;
    b46e:	04 20       	jnz	$+10     	;abs 0xb478
    b470:	3e 40 c0 24 	mov	#9408,	r14	;#0x24c0
    b474:	0e 9d       	cmp	r13,	r14	;
    b476:	45 28       	jnc	$+140    	;abs 0xb502

0000b478 <.L19>:
    b478:	8a 4d 0c 00 	mov	r13,	12(r10)	; 0x000c
    b47c:	8a 4c 0e 00 	mov	r12,	14(r10)	; 0x000e

0000b480 <.L16>:
    b480:	3c 40 8e 33 	mov	#13198,	r12	;#0x338e
    b484:	1c 9a 0e 00 	cmp	14(r10),r12	;0x0000e
    b488:	2f 28       	jnc	$+96     	;abs 0xb4e8
    b48a:	8a 9c 0e 00 	cmp	r12,	14(r10)	; 0x000e
    b48e:	05 20       	jnz	$+12     	;abs 0xb49a
    b490:	3e 40 3f da 	mov	#55871,	r14	;#0xda3f
    b494:	1e 9a 0c 00 	cmp	12(r10),r14	;0x0000c
    b498:	27 28       	jnc	$+80     	;abs 0xb4e8

0000b49a <.L20>:
    b49a:	ba 40 40 da 	mov	#55872,	12(r10)	;#0xda40, 0x000c
    b49e:	0c 00 
    b4a0:	ba 40 8e 33 	mov	#13198,	14(r10)	;#0x338e, 0x000e
    b4a4:	0e 00 
    b4a6:	28 01 40 08 	mova	&67648,	r8	;0x10840
    b4aa:	f8 40 40 00 	mov.b	#64,	0(r8)	;#0x0040
    b4ae:	00 00 
    b4b0:	1c 4a 0c 00 	mov	12(r10),r12	;0x0000c
    b4b4:	1d 4a 0e 00 	mov	14(r10),r13	;0x0000e
    b4b8:	b0 13 d4 c5 	calla	#50644		;0x0c5d4
    b4bc:	c8 4c 01 00 	mov.b	r12,	1(r8)	;
    b4c0:	1c 4a 0c 00 	mov	12(r10),r12	;0x0000c
    b4c4:	1d 4a 0e 00 	mov	14(r10),r13	;0x0000e
    b4c8:	7e 40 10 00 	mov.b	#16,	r14	;#0x0010
    b4cc:	b0 13 0e c6 	calla	#50702		;0x0c60e
    b4d0:	c8 4c 02 00 	mov.b	r12,	2(r8)	;
    b4d4:	1c 4a 0c 00 	mov	12(r10),r12	;0x0000c
    b4d8:	1d 4a 0e 00 	mov	14(r10),r13	;0x0000e
    b4dc:	7e 40 18 00 	mov.b	#24,	r14	;#0x0018
    b4e0:	b0 13 0e c6 	calla	#50702		;0x0c60e
    b4e4:	c8 4c 03 00 	mov.b	r12,	3(r8)	;

0000b4e8 <.L17>:
    b4e8:	b0 13 9e b3 	calla	#45982		;0x0b39e
    b4ec:	1d 4a 0c 00 	mov	12(r10),r13	;0x0000c
    b4f0:	1e 4a 0e 00 	mov	14(r10),r14	;0x0000e
    b4f4:	8c 01 4c 1c 	mova	#72780,	r12	;0x11c4c
    b4f8:	b0 13 6c 68 	calla	#26732		;0x0686c
    b4fc:	08 16       	popm.a	#1,	r8	;20-bit words
    b4fe:	0a 16       	popm.a	#1,	r10	;20-bit words
    b500:	10 01       	reta			;

0000b502 <.L14>:
    b502:	ba 40 c0 24 	mov	#9408,	12(r10)	;#0x24c0, 0x000c
    b506:	0c 00 
    b508:	ba 40 ec 38 	mov	#14572,	14(r10)	;#0x38ec, 0x000e
    b50c:	0e 00 
    b50e:	28 01 40 08 	mova	&67648,	r8	;0x10840
    b512:	f8 40 c0 ff 	mov.b	#65472,	0(r8)	;#0xffc0
    b516:	00 00 
    b518:	1c 4a 0c 00 	mov	12(r10),r12	;0x0000c
    b51c:	1d 4a 0e 00 	mov	14(r10),r13	;0x0000e
    b520:	b0 13 d4 c5 	calla	#50644		;0x0c5d4
    b524:	c8 4c 01 00 	mov.b	r12,	1(r8)	;
    b528:	1c 4a 0c 00 	mov	12(r10),r12	;0x0000c
    b52c:	1d 4a 0e 00 	mov	14(r10),r13	;0x0000e
    b530:	7e 40 10 00 	mov.b	#16,	r14	;#0x0010
    b534:	b0 13 0e c6 	calla	#50702		;0x0c60e
    b538:	c8 4c 02 00 	mov.b	r12,	2(r8)	;
    b53c:	1c 4a 0c 00 	mov	12(r10),r12	;0x0000c
    b540:	1d 4a 0e 00 	mov	14(r10),r13	;0x0000e
    b544:	7e 40 18 00 	mov.b	#24,	r14	;#0x0018
    b548:	b0 13 0e c6 	calla	#50702		;0x0c60e
    b54c:	c8 4c 03 00 	mov.b	r12,	3(r8)	;
    b550:	80 00 80 b4 	mova	#46208,	r0	;0x0b480

0000b554 <elyRFChangeRxFreqS>:
    b554:	0a 14       	pushm.a	#1,	r10	;20-bit words
    b556:	08 14       	pushm.a	#1,	r8	;20-bit words
    b558:	ca 0c       	mova	r12,	r10	;
    b55a:	b0 13 96 b3 	calla	#45974		;0x0b396
    b55e:	2e 01 44 08 	mova	&67652,	r14	;0x10844
    b562:	5d 4e 05 00 	mov.b	5(r14),	r13	;
    b566:	47 18 0d 5d 	rpt #8 { rlax.w	r13		;
    b56a:	5c 4e 04 00 	mov.b	4(r14),	r12	;
    b56e:	0d dc       	bis	r12,	r13	;
    b570:	5c 4e 07 00 	mov.b	7(r14),	r12	;
    b574:	47 18 0c 5c 	rpt #8 { rlax.w	r12		;
    b578:	5e 4e 06 00 	mov.b	6(r14),	r14	;
    b57c:	0c de       	bis	r14,	r12	;
    b57e:	3e 40 12 1c 	mov	#7186,	r14	;#0x1c12
    b582:	0e 9c       	cmp	r12,	r14	;
    b584:	4b 28       	jnc	$+152    	;abs 0xb61c
    b586:	0c 9e       	cmp	r14,	r12	;
    b588:	04 20       	jnz	$+10     	;abs 0xb592
    b58a:	3e 40 c0 e3 	mov	#58304,	r14	;#0xe3c0
    b58e:	0e 9d       	cmp	r13,	r14	;
    b590:	45 28       	jnc	$+140    	;abs 0xb61c

0000b592 <.L27>:
    b592:	8a 4d 10 00 	mov	r13,	16(r10)	; 0x0010
    b596:	8a 4c 12 00 	mov	r12,	18(r10)	; 0x0012

0000b59a <.L24>:
    b59a:	3c 40 3d 1b 	mov	#6973,	r12	;#0x1b3d
    b59e:	1c 9a 12 00 	cmp	18(r10),r12	;0x00012
    b5a2:	2f 28       	jnc	$+96     	;abs 0xb602
    b5a4:	8a 9c 12 00 	cmp	r12,	18(r10)	; 0x0012
    b5a8:	05 20       	jnz	$+12     	;abs 0xb5b4
    b5aa:	3e 40 3f 44 	mov	#17471,	r14	;#0x443f
    b5ae:	1e 9a 10 00 	cmp	16(r10),r14	;0x00010
    b5b2:	27 28       	jnc	$+80     	;abs 0xb602

0000b5b4 <.L28>:
    b5b4:	ba 40 40 44 	mov	#17472,	16(r10)	;#0x4440, 0x0010
    b5b8:	10 00 
    b5ba:	ba 40 3d 1b 	mov	#6973,	18(r10)	;#0x1b3d, 0x0012
    b5be:	12 00 
    b5c0:	28 01 40 08 	mova	&67648,	r8	;0x10840
    b5c4:	f8 40 40 00 	mov.b	#64,	4(r8)	;#0x0040
    b5c8:	04 00 
    b5ca:	1c 4a 10 00 	mov	16(r10),r12	;0x00010
    b5ce:	1d 4a 12 00 	mov	18(r10),r13	;0x00012
    b5d2:	b0 13 d4 c5 	calla	#50644		;0x0c5d4
    b5d6:	c8 4c 05 00 	mov.b	r12,	5(r8)	;
    b5da:	1c 4a 10 00 	mov	16(r10),r12	;0x00010
    b5de:	1d 4a 12 00 	mov	18(r10),r13	;0x00012
    b5e2:	7e 40 10 00 	mov.b	#16,	r14	;#0x0010
    b5e6:	b0 13 0e c6 	calla	#50702		;0x0c60e
    b5ea:	c8 4c 06 00 	mov.b	r12,	6(r8)	;
    b5ee:	1c 4a 10 00 	mov	16(r10),r12	;0x00010
    b5f2:	1d 4a 12 00 	mov	18(r10),r13	;0x00012
    b5f6:	7e 40 18 00 	mov.b	#24,	r14	;#0x0018
    b5fa:	b0 13 0e c6 	calla	#50702		;0x0c60e
    b5fe:	c8 4c 07 00 	mov.b	r12,	7(r8)	;

0000b602 <.L25>:
    b602:	b0 13 9e b3 	calla	#45982		;0x0b39e
    b606:	1d 4a 10 00 	mov	16(r10),r13	;0x00010
    b60a:	1e 4a 12 00 	mov	18(r10),r14	;0x00012
    b60e:	8c 01 5e 1c 	mova	#72798,	r12	;0x11c5e
    b612:	b0 13 38 70 	calla	#28728		;0x07038
    b616:	08 16       	popm.a	#1,	r8	;20-bit words
    b618:	0a 16       	popm.a	#1,	r10	;20-bit words
    b61a:	10 01       	reta			;

0000b61c <.L22>:
    b61c:	ba 40 c0 e3 	mov	#58304,	16(r10)	;#0xe3c0, 0x0010
    b620:	10 00 
    b622:	ba 40 12 1c 	mov	#7186,	18(r10)	;#0x1c12, 0x0012
    b626:	12 00 
    b628:	28 01 40 08 	mova	&67648,	r8	;0x10840
    b62c:	f8 40 c0 ff 	mov.b	#65472,	4(r8)	;#0xffc0
    b630:	04 00 
    b632:	1c 4a 10 00 	mov	16(r10),r12	;0x00010
    b636:	1d 4a 12 00 	mov	18(r10),r13	;0x00012
    b63a:	b0 13 d4 c5 	calla	#50644		;0x0c5d4
    b63e:	c8 4c 05 00 	mov.b	r12,	5(r8)	;
    b642:	1c 4a 10 00 	mov	16(r10),r12	;0x00010
    b646:	1d 4a 12 00 	mov	18(r10),r13	;0x00012
    b64a:	7e 40 10 00 	mov.b	#16,	r14	;#0x0010
    b64e:	b0 13 0e c6 	calla	#50702		;0x0c60e
    b652:	c8 4c 06 00 	mov.b	r12,	6(r8)	;
    b656:	1c 4a 10 00 	mov	16(r10),r12	;0x00010
    b65a:	1d 4a 12 00 	mov	18(r10),r13	;0x00012
    b65e:	7e 40 18 00 	mov.b	#24,	r14	;#0x0018
    b662:	b0 13 0e c6 	calla	#50702		;0x0c60e
    b666:	c8 4c 07 00 	mov.b	r12,	7(r8)	;
    b66a:	80 00 9a b5 	mova	#46490,	r0	;0x0b59a

0000b66e <elyRFChangeTxBRS>:
    b66e:	0a 14       	pushm.a	#1,	r10	;20-bit words
    b670:	08 14       	pushm.a	#1,	r8	;20-bit words
    b672:	ca 0c       	mova	r12,	r10	;
    b674:	b0 13 96 b3 	calla	#45974		;0x0b396
    b678:	2e 01 44 08 	mova	&67652,	r14	;0x10844
    b67c:	5d 4e 19 00 	mov.b	25(r14),r13	;0x00019
    b680:	47 18 0d 5d 	rpt #8 { rlax.w	r13		;
    b684:	5c 4e 18 00 	mov.b	24(r14),r12	;0x00018
    b688:	0d dc       	bis	r12,	r13	;
    b68a:	5c 4e 1b 00 	mov.b	27(r14),r12	;0x0001b
    b68e:	47 18 0c 5c 	rpt #8 { rlax.w	r12		;
    b692:	5e 4e 1a 00 	mov.b	26(r14),r14	;0x0001a
    b696:	0c de       	bis	r14,	r12	;
    b698:	6e 42       	mov.b	#4,	r14	;r2 As==10
    b69a:	0e 9c       	cmp	r12,	r14	;
    b69c:	45 28       	jnc	$+140    	;abs 0xb728
    b69e:	0c 9e       	cmp	r14,	r12	;
    b6a0:	04 20       	jnz	$+10     	;abs 0xb6aa
    b6a2:	3e 40 e0 93 	mov	#37856,	r14	;#0x93e0
    b6a6:	0e 9d       	cmp	r13,	r14	;
    b6a8:	3f 28       	jnc	$+128    	;abs 0xb728

0000b6aa <.L35>:
    b6aa:	8a 4d 08 00 	mov	r13,	8(r10)	;
    b6ae:	8a 4c 0a 00 	mov	r12,	10(r10)	; 0x000a

0000b6b2 <.L32>:
    b6b2:	8a 93 0a 00 	cmp	#0,	10(r10)	;r3 As==00, 0x000a
    b6b6:	2b 20       	jnz	$+88     	;abs 0xb70e
    b6b8:	3c 40 af 04 	mov	#1199,	r12	;#0x04af
    b6bc:	1c 9a 08 00 	cmp	8(r10),	r12	;
    b6c0:	26 28       	jnc	$+78     	;abs 0xb70e
    b6c2:	ba 40 b0 04 	mov	#1200,	8(r10)	;#0x04b0
    b6c6:	08 00 
    b6c8:	8a 43 0a 00 	mov	#0,	10(r10)	;r3 As==00, 0x000a
    b6cc:	28 01 40 08 	mova	&67648,	r8	;0x10840
    b6d0:	f8 40 b0 ff 	mov.b	#65456,	24(r8)	;#0xffb0, 0x0018
    b6d4:	18 00 
    b6d6:	1c 4a 08 00 	mov	8(r10),	r12	;
    b6da:	1d 4a 0a 00 	mov	10(r10),r13	;0x0000a
    b6de:	b0 13 d4 c5 	calla	#50644		;0x0c5d4
    b6e2:	c8 4c 19 00 	mov.b	r12,	25(r8)	; 0x0019
    b6e6:	1c 4a 08 00 	mov	8(r10),	r12	;
    b6ea:	1d 4a 0a 00 	mov	10(r10),r13	;0x0000a
    b6ee:	7e 40 10 00 	mov.b	#16,	r14	;#0x0010
    b6f2:	b0 13 0e c6 	calla	#50702		;0x0c60e
    b6f6:	c8 4c 1a 00 	mov.b	r12,	26(r8)	; 0x001a
    b6fa:	1c 4a 08 00 	mov	8(r10),	r12	;
    b6fe:	1d 4a 0a 00 	mov	10(r10),r13	;0x0000a
    b702:	7e 40 18 00 	mov.b	#24,	r14	;#0x0018
    b706:	b0 13 0e c6 	calla	#50702		;0x0c60e
    b70a:	c8 4c 1b 00 	mov.b	r12,	27(r8)	; 0x001b

0000b70e <.L33>:
    b70e:	b0 13 9e b3 	calla	#45982		;0x0b39e
    b712:	1d 4a 08 00 	mov	8(r10),	r13	;
    b716:	1e 4a 0a 00 	mov	10(r10),r14	;0x0000a
    b71a:	8c 01 4c 1c 	mova	#72780,	r12	;0x11c4c
    b71e:	b0 13 a8 67 	calla	#26536		;0x067a8
    b722:	08 16       	popm.a	#1,	r8	;20-bit words
    b724:	0a 16       	popm.a	#1,	r10	;20-bit words
    b726:	10 01       	reta			;

0000b728 <.L30>:
    b728:	ba 40 e0 93 	mov	#37856,	8(r10)	;#0x93e0
    b72c:	08 00 
    b72e:	aa 42 0a 00 	mov	#4,	10(r10)	;r2 As==10, 0x000a
    b732:	28 01 40 08 	mova	&67648,	r8	;0x10840
    b736:	f8 40 e0 ff 	mov.b	#65504,	24(r8)	;#0xffe0, 0x0018
    b73a:	18 00 
    b73c:	1c 4a 08 00 	mov	8(r10),	r12	;
    b740:	1d 4a 0a 00 	mov	10(r10),r13	;0x0000a
    b744:	b0 13 d4 c5 	calla	#50644		;0x0c5d4
    b748:	c8 4c 19 00 	mov.b	r12,	25(r8)	; 0x0019
    b74c:	1c 4a 08 00 	mov	8(r10),	r12	;
    b750:	1d 4a 0a 00 	mov	10(r10),r13	;0x0000a
    b754:	7e 40 10 00 	mov.b	#16,	r14	;#0x0010
    b758:	b0 13 0e c6 	calla	#50702		;0x0c60e
    b75c:	c8 4c 1a 00 	mov.b	r12,	26(r8)	; 0x001a
    b760:	1c 4a 08 00 	mov	8(r10),	r12	;
    b764:	1d 4a 0a 00 	mov	10(r10),r13	;0x0000a
    b768:	7e 40 18 00 	mov.b	#24,	r14	;#0x0018
    b76c:	b0 13 0e c6 	calla	#50702		;0x0c60e
    b770:	c8 4c 1b 00 	mov.b	r12,	27(r8)	; 0x001b
    b774:	80 00 b2 b6 	mova	#46770,	r0	;0x0b6b2

0000b778 <elyRFChangeRxBRS>:
    b778:	0a 14       	pushm.a	#1,	r10	;20-bit words
    b77a:	08 14       	pushm.a	#1,	r8	;20-bit words
    b77c:	ca 0c       	mova	r12,	r10	;
    b77e:	b0 13 96 b3 	calla	#45974		;0x0b396
    b782:	2e 01 44 08 	mova	&67652,	r14	;0x10844
    b786:	5d 4e 1d 00 	mov.b	29(r14),r13	;0x0001d
    b78a:	47 18 0d 5d 	rpt #8 { rlax.w	r13		;
    b78e:	5c 4e 1c 00 	mov.b	28(r14),r12	;0x0001c
    b792:	0d dc       	bis	r12,	r13	;
    b794:	5c 4e 1f 00 	mov.b	31(r14),r12	;0x0001f
    b798:	47 18 0c 5c 	rpt #8 { rlax.w	r12		;
    b79c:	5e 4e 1e 00 	mov.b	30(r14),r14	;0x0001e
    b7a0:	0c de       	bis	r14,	r12	;
    b7a2:	6e 43       	mov.b	#2,	r14	;r3 As==10
    b7a4:	0e 9c       	cmp	r12,	r14	;
    b7a6:	45 28       	jnc	$+140    	;abs 0xb832
    b7a8:	0c 9e       	cmp	r14,	r12	;
    b7aa:	04 20       	jnz	$+10     	;abs 0xb7b4
    b7ac:	3e 40 f0 49 	mov	#18928,	r14	;#0x49f0
    b7b0:	0e 9d       	cmp	r13,	r14	;
    b7b2:	3f 28       	jnc	$+128    	;abs 0xb832

0000b7b4 <.L43>:
    b7b4:	8a 4d 0c 00 	mov	r13,	12(r10)	; 0x000c
    b7b8:	8a 4c 0e 00 	mov	r12,	14(r10)	; 0x000e

0000b7bc <.L40>:
    b7bc:	8a 93 0e 00 	cmp	#0,	14(r10)	;r3 As==00, 0x000e
    b7c0:	2b 20       	jnz	$+88     	;abs 0xb818
    b7c2:	3c 40 0b 03 	mov	#779,	r12	;#0x030b
    b7c6:	1c 9a 0c 00 	cmp	12(r10),r12	;0x0000c
    b7ca:	26 28       	jnc	$+78     	;abs 0xb818
    b7cc:	ba 40 0c 03 	mov	#780,	12(r10)	;#0x030c, 0x000c
    b7d0:	0c 00 
    b7d2:	8a 43 0e 00 	mov	#0,	14(r10)	;r3 As==00, 0x000e
    b7d6:	28 01 40 08 	mova	&67648,	r8	;0x10840
    b7da:	f8 40 0c 00 	mov.b	#12,	28(r8)	;#0x000c, 0x001c
    b7de:	1c 00 
    b7e0:	1c 4a 0c 00 	mov	12(r10),r12	;0x0000c
    b7e4:	1d 4a 0e 00 	mov	14(r10),r13	;0x0000e
    b7e8:	b0 13 d4 c5 	calla	#50644		;0x0c5d4
    b7ec:	c8 4c 1d 00 	mov.b	r12,	29(r8)	; 0x001d
    b7f0:	1c 4a 0c 00 	mov	12(r10),r12	;0x0000c
    b7f4:	1d 4a 0e 00 	mov	14(r10),r13	;0x0000e
    b7f8:	7e 40 10 00 	mov.b	#16,	r14	;#0x0010
    b7fc:	b0 13 0e c6 	calla	#50702		;0x0c60e
    b800:	c8 4c 1e 00 	mov.b	r12,	30(r8)	; 0x001e
    b804:	1c 4a 0c 00 	mov	12(r10),r12	;0x0000c
    b808:	1d 4a 0e 00 	mov	14(r10),r13	;0x0000e
    b80c:	7e 40 18 00 	mov.b	#24,	r14	;#0x0018
    b810:	b0 13 0e c6 	calla	#50702		;0x0c60e
    b814:	c8 4c 1f 00 	mov.b	r12,	31(r8)	; 0x001f

0000b818 <.L41>:
    b818:	b0 13 9e b3 	calla	#45982		;0x0b39e
    b81c:	1d 4a 0c 00 	mov	12(r10),r13	;0x0000c
    b820:	1e 4a 0e 00 	mov	14(r10),r14	;0x0000e
    b824:	8c 01 5e 1c 	mova	#72798,	r12	;0x11c5e
    b828:	b0 13 a4 6f 	calla	#28580		;0x06fa4
    b82c:	08 16       	popm.a	#1,	r8	;20-bit words
    b82e:	0a 16       	popm.a	#1,	r10	;20-bit words
    b830:	10 01       	reta			;

0000b832 <.L38>:
    b832:	ba 40 f0 49 	mov	#18928,	12(r10)	;#0x49f0, 0x000c
    b836:	0c 00 
    b838:	aa 43 0e 00 	mov	#2,	14(r10)	;r3 As==10, 0x000e
    b83c:	28 01 40 08 	mova	&67648,	r8	;0x10840
    b840:	f8 40 f0 ff 	mov.b	#65520,	28(r8)	;#0xfff0, 0x001c
    b844:	1c 00 
    b846:	1c 4a 0c 00 	mov	12(r10),r12	;0x0000c
    b84a:	1d 4a 0e 00 	mov	14(r10),r13	;0x0000e
    b84e:	b0 13 d4 c5 	calla	#50644		;0x0c5d4
    b852:	c8 4c 1d 00 	mov.b	r12,	29(r8)	; 0x001d
    b856:	1c 4a 0c 00 	mov	12(r10),r12	;0x0000c
    b85a:	1d 4a 0e 00 	mov	14(r10),r13	;0x0000e
    b85e:	7e 40 10 00 	mov.b	#16,	r14	;#0x0010
    b862:	b0 13 0e c6 	calla	#50702		;0x0c60e
    b866:	c8 4c 1e 00 	mov.b	r12,	30(r8)	; 0x001e
    b86a:	1c 4a 0c 00 	mov	12(r10),r12	;0x0000c
    b86e:	1d 4a 0e 00 	mov	14(r10),r13	;0x0000e
    b872:	7e 40 18 00 	mov.b	#24,	r14	;#0x0018
    b876:	b0 13 0e c6 	calla	#50702		;0x0c60e
    b87a:	c8 4c 1f 00 	mov.b	r12,	31(r8)	; 0x001f
    b87e:	80 00 bc b7 	mova	#47036,	r0	;0x0b7bc

0000b882 <elyRFChangeTxDevS>:
    b882:	0a 14       	pushm.a	#1,	r10	;20-bit words
    b884:	08 14       	pushm.a	#1,	r8	;20-bit words
    b886:	ca 0c       	mova	r12,	r10	;
    b888:	b0 13 96 b3 	calla	#45974		;0x0b396
    b88c:	2e 01 44 08 	mova	&67652,	r14	;0x10844
    b890:	5d 4e 09 00 	mov.b	9(r14),	r13	;
    b894:	47 18 0d 5d 	rpt #8 { rlax.w	r13		;
    b898:	5c 4e 08 00 	mov.b	8(r14),	r12	;
    b89c:	0d dc       	bis	r12,	r13	;
    b89e:	5c 4e 0b 00 	mov.b	11(r14),r12	;0x0000b
    b8a2:	47 18 0c 5c 	rpt #8 { rlax.w	r12		;
    b8a6:	5e 4e 0a 00 	mov.b	10(r14),r14	;0x0000a
    b8aa:	0c de       	bis	r14,	r12	;
    b8ac:	7e 40 03 00 	mov.b	#3,	r14	;
    b8b0:	0e 9c       	cmp	r12,	r14	;
    b8b2:	45 28       	jnc	$+140    	;abs 0xb93e
    b8b4:	0c 9e       	cmp	r14,	r12	;
    b8b6:	04 20       	jnz	$+10     	;abs 0xb8c0
    b8b8:	3e 40 40 0d 	mov	#3392,	r14	;#0x0d40
    b8bc:	0e 9d       	cmp	r13,	r14	;
    b8be:	3f 28       	jnc	$+128    	;abs 0xb93e

0000b8c0 <.L51>:
    b8c0:	8a 4d 10 00 	mov	r13,	16(r10)	; 0x0010
    b8c4:	8a 4c 12 00 	mov	r12,	18(r10)	; 0x0012

0000b8c8 <.L48>:
    b8c8:	8a 93 12 00 	cmp	#0,	18(r10)	;r3 As==00, 0x0012
    b8cc:	2b 20       	jnz	$+88     	;abs 0xb924
    b8ce:	3c 40 57 02 	mov	#599,	r12	;#0x0257
    b8d2:	1c 9a 10 00 	cmp	16(r10),r12	;0x00010
    b8d6:	26 28       	jnc	$+78     	;abs 0xb924
    b8d8:	ba 40 58 02 	mov	#600,	16(r10)	;#0x0258, 0x0010
    b8dc:	10 00 
    b8de:	8a 43 12 00 	mov	#0,	18(r10)	;r3 As==00, 0x0012
    b8e2:	28 01 40 08 	mova	&67648,	r8	;0x10840
    b8e6:	f8 40 58 00 	mov.b	#88,	8(r8)	;#0x0058
    b8ea:	08 00 
    b8ec:	1c 4a 10 00 	mov	16(r10),r12	;0x00010
    b8f0:	1d 4a 12 00 	mov	18(r10),r13	;0x00012
    b8f4:	b0 13 d4 c5 	calla	#50644		;0x0c5d4
    b8f8:	c8 4c 09 00 	mov.b	r12,	9(r8)	;
    b8fc:	1c 4a 10 00 	mov	16(r10),r12	;0x00010
    b900:	1d 4a 12 00 	mov	18(r10),r13	;0x00012
    b904:	7e 40 10 00 	mov.b	#16,	r14	;#0x0010
    b908:	b0 13 0e c6 	calla	#50702		;0x0c60e
    b90c:	c8 4c 0a 00 	mov.b	r12,	10(r8)	; 0x000a
    b910:	1c 4a 10 00 	mov	16(r10),r12	;0x00010
    b914:	1d 4a 12 00 	mov	18(r10),r13	;0x00012
    b918:	7e 40 18 00 	mov.b	#24,	r14	;#0x0018
    b91c:	b0 13 0e c6 	calla	#50702		;0x0c60e
    b920:	c8 4c 0b 00 	mov.b	r12,	11(r8)	; 0x000b

0000b924 <.L49>:
    b924:	b0 13 9e b3 	calla	#45982		;0x0b39e
    b928:	1d 4a 10 00 	mov	16(r10),r13	;0x00010
    b92c:	1e 4a 12 00 	mov	18(r10),r14	;0x00012
    b930:	8c 01 4c 1c 	mova	#72780,	r12	;0x11c4c
    b934:	b0 13 0e 68 	calla	#26638		;0x0680e
    b938:	08 16       	popm.a	#1,	r8	;20-bit words
    b93a:	0a 16       	popm.a	#1,	r10	;20-bit words
    b93c:	10 01       	reta			;

0000b93e <.L46>:
    b93e:	ba 40 40 0d 	mov	#3392,	16(r10)	;#0x0d40, 0x0010
    b942:	10 00 
    b944:	ba 40 03 00 	mov	#3,	18(r10)	; 0x0012
    b948:	12 00 
    b94a:	28 01 40 08 	mova	&67648,	r8	;0x10840
    b94e:	f8 40 40 00 	mov.b	#64,	8(r8)	;#0x0040
    b952:	08 00 
    b954:	1c 4a 10 00 	mov	16(r10),r12	;0x00010
    b958:	1d 4a 12 00 	mov	18(r10),r13	;0x00012
    b95c:	b0 13 d4 c5 	calla	#50644		;0x0c5d4
    b960:	c8 4c 09 00 	mov.b	r12,	9(r8)	;
    b964:	1c 4a 10 00 	mov	16(r10),r12	;0x00010
    b968:	1d 4a 12 00 	mov	18(r10),r13	;0x00012
    b96c:	7e 40 10 00 	mov.b	#16,	r14	;#0x0010
    b970:	b0 13 0e c6 	calla	#50702		;0x0c60e
    b974:	c8 4c 0a 00 	mov.b	r12,	10(r8)	; 0x000a
    b978:	1c 4a 10 00 	mov	16(r10),r12	;0x00010
    b97c:	1d 4a 12 00 	mov	18(r10),r13	;0x00012
    b980:	7e 40 18 00 	mov.b	#24,	r14	;#0x0018
    b984:	b0 13 0e c6 	calla	#50702		;0x0c60e
    b988:	c8 4c 0b 00 	mov.b	r12,	11(r8)	; 0x000b
    b98c:	80 00 c8 b8 	mova	#47304,	r0	;0x0b8c8

0000b990 <elyRFChangeRxDevS>:
    b990:	0a 14       	pushm.a	#1,	r10	;20-bit words
    b992:	08 14       	pushm.a	#1,	r8	;20-bit words
    b994:	ca 0c       	mova	r12,	r10	;
    b996:	b0 13 96 b3 	calla	#45974		;0x0b396
    b99a:	2e 01 44 08 	mova	&67652,	r14	;0x10844
    b99e:	5d 4e 0d 00 	mov.b	13(r14),r13	;0x0000d
    b9a2:	47 18 0d 5d 	rpt #8 { rlax.w	r13		;
    b9a6:	5c 4e 0c 00 	mov.b	12(r14),r12	;0x0000c
    b9aa:	0d dc       	bis	r12,	r13	;
    b9ac:	5c 4e 0f 00 	mov.b	15(r14),r12	;0x0000f
    b9b0:	47 18 0c 5c 	rpt #8 { rlax.w	r12		;
    b9b4:	5e 4e 0e 00 	mov.b	14(r14),r14	;0x0000e
    b9b8:	0c de       	bis	r14,	r12	;
    b9ba:	7e 40 03 00 	mov.b	#3,	r14	;
    b9be:	0e 9c       	cmp	r12,	r14	;
    b9c0:	45 28       	jnc	$+140    	;abs 0xba4c
    b9c2:	0c 9e       	cmp	r14,	r12	;
    b9c4:	04 20       	jnz	$+10     	;abs 0xb9ce
    b9c6:	3e 40 40 0d 	mov	#3392,	r14	;#0x0d40
    b9ca:	0e 9d       	cmp	r13,	r14	;
    b9cc:	3f 28       	jnc	$+128    	;abs 0xba4c

0000b9ce <.L59>:
    b9ce:	8a 4d 14 00 	mov	r13,	20(r10)	; 0x0014
    b9d2:	8a 4c 16 00 	mov	r12,	22(r10)	; 0x0016

0000b9d6 <.L56>:
    b9d6:	8a 93 16 00 	cmp	#0,	22(r10)	;r3 As==00, 0x0016
    b9da:	2b 20       	jnz	$+88     	;abs 0xba32
    b9dc:	3c 40 e7 80 	mov	#32999,	r12	;#0x80e7
    b9e0:	1c 9a 14 00 	cmp	20(r10),r12	;0x00014
    b9e4:	26 28       	jnc	$+78     	;abs 0xba32
    b9e6:	ba 40 e8 80 	mov	#33000,	20(r10)	;#0x80e8, 0x0014
    b9ea:	14 00 
    b9ec:	8a 43 16 00 	mov	#0,	22(r10)	;r3 As==00, 0x0016
    b9f0:	28 01 40 08 	mova	&67648,	r8	;0x10840
    b9f4:	f8 40 e8 ff 	mov.b	#65512,	12(r8)	;#0xffe8, 0x000c
    b9f8:	0c 00 
    b9fa:	1c 4a 14 00 	mov	20(r10),r12	;0x00014
    b9fe:	1d 4a 16 00 	mov	22(r10),r13	;0x00016
    ba02:	b0 13 d4 c5 	calla	#50644		;0x0c5d4
    ba06:	c8 4c 0d 00 	mov.b	r12,	13(r8)	; 0x000d
    ba0a:	1c 4a 14 00 	mov	20(r10),r12	;0x00014
    ba0e:	1d 4a 16 00 	mov	22(r10),r13	;0x00016
    ba12:	7e 40 10 00 	mov.b	#16,	r14	;#0x0010
    ba16:	b0 13 0e c6 	calla	#50702		;0x0c60e
    ba1a:	c8 4c 0e 00 	mov.b	r12,	14(r8)	; 0x000e
    ba1e:	1c 4a 14 00 	mov	20(r10),r12	;0x00014
    ba22:	1d 4a 16 00 	mov	22(r10),r13	;0x00016
    ba26:	7e 40 18 00 	mov.b	#24,	r14	;#0x0018
    ba2a:	b0 13 0e c6 	calla	#50702		;0x0c60e
    ba2e:	c8 4c 0f 00 	mov.b	r12,	15(r8)	; 0x000f

0000ba32 <.L57>:
    ba32:	b0 13 9e b3 	calla	#45982		;0x0b39e
    ba36:	1d 4a 14 00 	mov	20(r10),r13	;0x00014
    ba3a:	1e 4a 16 00 	mov	22(r10),r14	;0x00016
    ba3e:	8c 01 5e 1c 	mova	#72798,	r12	;0x11c5e
    ba42:	b0 13 e2 6f 	calla	#28642		;0x06fe2
    ba46:	08 16       	popm.a	#1,	r8	;20-bit words
    ba48:	0a 16       	popm.a	#1,	r10	;20-bit words
    ba4a:	10 01       	reta			;

0000ba4c <.L54>:
    ba4c:	ba 40 40 0d 	mov	#3392,	20(r10)	;#0x0d40, 0x0014
    ba50:	14 00 
    ba52:	ba 40 03 00 	mov	#3,	22(r10)	; 0x0016
    ba56:	16 00 
    ba58:	28 01 40 08 	mova	&67648,	r8	;0x10840
    ba5c:	f8 40 40 00 	mov.b	#64,	12(r8)	;#0x0040, 0x000c
    ba60:	0c 00 
    ba62:	1c 4a 14 00 	mov	20(r10),r12	;0x00014
    ba66:	1d 4a 16 00 	mov	22(r10),r13	;0x00016
    ba6a:	b0 13 d4 c5 	calla	#50644		;0x0c5d4
    ba6e:	c8 4c 0d 00 	mov.b	r12,	13(r8)	; 0x000d
    ba72:	1c 4a 14 00 	mov	20(r10),r12	;0x00014
    ba76:	1d 4a 16 00 	mov	22(r10),r13	;0x00016
    ba7a:	7e 40 10 00 	mov.b	#16,	r14	;#0x0010
    ba7e:	b0 13 0e c6 	calla	#50702		;0x0c60e
    ba82:	c8 4c 0e 00 	mov.b	r12,	14(r8)	; 0x000e
    ba86:	1c 4a 14 00 	mov	20(r10),r12	;0x00014
    ba8a:	1d 4a 16 00 	mov	22(r10),r13	;0x00016
    ba8e:	7e 40 18 00 	mov.b	#24,	r14	;#0x0018
    ba92:	b0 13 0e c6 	calla	#50702		;0x0c60e
    ba96:	c8 4c 0f 00 	mov.b	r12,	15(r8)	; 0x000f
    ba9a:	80 00 d6 b9 	mova	#47574,	r0	;0x0b9d6

0000ba9e <elyRFChangeRxSyncS>:
    ba9e:	0a 14       	pushm.a	#1,	r10	;20-bit words
    baa0:	ca 0c       	mova	r12,	r10	;
    baa2:	b0 13 96 b3 	calla	#45974		;0x0b396
    baa6:	2e 01 44 08 	mova	&67652,	r14	;0x10844
    baaa:	5d 4e 15 00 	mov.b	21(r14),r13	;0x00015
    baae:	47 18 0d 5d 	rpt #8 { rlax.w	r13		;
    bab2:	5c 4e 17 00 	mov.b	23(r14),r12	;0x00017
    bab6:	47 18 0c 5c 	rpt #8 { rlax.w	r12		;
    baba:	5f 4e 16 00 	mov.b	22(r14),r15	;0x00016
    babe:	0c df       	bis	r15,	r12	;
    bac0:	5e 4e 14 00 	mov.b	20(r14),r14	;0x00014
    bac4:	0e dd       	bis	r13,	r14	;
    bac6:	8a 4e 1c 00 	mov	r14,	28(r10)	; 0x001c
    baca:	8a 4c 1e 00 	mov	r12,	30(r10)	; 0x001e
    bace:	b0 13 9e b3 	calla	#45982		;0x0b39e
    bad2:	1d 4a 1c 00 	mov	28(r10),r13	;0x0001c
    bad6:	1e 4a 1e 00 	mov	30(r10),r14	;0x0001e
    bada:	8c 01 5e 1c 	mova	#72798,	r12	;0x11c5e
    bade:	b0 13 7e 70 	calla	#28798		;0x0707e
    bae2:	0a 16       	popm.a	#1,	r10	;20-bit words
    bae4:	10 01       	reta			;

0000bae6 <elyRFChangeTxPowerS>:
    bae6:	fc 40 7f 00 	mov.b	#127,	21(r12)	;#0x007f, 0x0015
    baea:	15 00 
    baec:	7d 40 7f 00 	mov.b	#127,	r13	;#0x007f
    baf0:	8c 01 4c 1c 	mova	#72780,	r12	;0x11c4c
    baf4:	b0 13 4e 69 	calla	#26958		;0x0694e
    baf8:	10 01       	reta			;

0000bafa <elyRFChangeRxFilterParamsS>:
    bafa:	2e 01 44 08 	mova	&67652,	r14	;0x10844
    bafe:	5d 4e 20 00 	mov.b	32(r14),r13	;0x00020
    bb02:	7d f0 0f 00 	and.b	#15,	r13	;#0x000f
    bb06:	4e 4d       	mov.b	r13,	r14	;
    bb08:	0f 43       	clr	r15		;
    bb0a:	8c 4e 18 00 	mov	r14,	24(r12)	; 0x0018
    bb0e:	8c 4f 1a 00 	mov	r15,	26(r12)	; 0x001a
    bb12:	8c 01 5e 1c 	mova	#72798,	r12	;0x11c5e
    bb16:	b0 13 ba 70 	calla	#28858		;0x070ba
    bb1a:	10 01       	reta			;

0000bb1c <RFThd>:
    bb1c:	6a 14       	pushm.a	#7,	r10	;20-bit words
    bb1e:	b1 00 08 00 	suba	#8,	r1	;
    bb22:	81 18 d2 42 	movx.a	&0x11a74,&0x1203a;
    bb26:	74 1a 3a 20 
    bb2a:	88 00 96 b3 	mova	#45974,	r8	;0x0b396
    bb2e:	48 13       	calla	r8		;
    bb30:	26 01 44 08 	mova	&67652,	r6	;0x10844
    bb34:	84 00 b2 ce 	mova	#52914,	r4	;0x0ceb2
    bb38:	5d 46 19 00 	mov.b	25(r6),	r13	;0x00019
    bb3c:	47 18 0d 5d 	rpt #8 { rlax.w	r13		;
    bb40:	5c 46 1b 00 	mov.b	27(r6),	r12	;0x0001b
    bb44:	47 18 0c 5c 	rpt #8 { rlax.w	r12		;
    bb48:	5e 46 1a 00 	mov.b	26(r6),	r14	;0x0001a
    bb4c:	0c de       	bis	r14,	r12	;
    bb4e:	5e 46 18 00 	mov.b	24(r6),	r14	;0x00018
    bb52:	0e dd       	bis	r13,	r14	;
    bb54:	84 4e 08 00 	mov	r14,	8(r4)	;
    bb58:	84 4c 0a 00 	mov	r12,	10(r4)	; 0x000a
    bb5c:	5d 46 01 00 	mov.b	1(r6),	r13	;
    bb60:	47 18 0d 5d 	rpt #8 { rlax.w	r13		;
    bb64:	5c 46 03 00 	mov.b	3(r6),	r12	;
    bb68:	47 18 0c 5c 	rpt #8 { rlax.w	r12		;
    bb6c:	5e 46 02 00 	mov.b	2(r6),	r14	;
    bb70:	0c de       	bis	r14,	r12	;
    bb72:	6e 46       	mov.b	@r6,	r14	;
    bb74:	0e dd       	bis	r13,	r14	;
    bb76:	84 4e 0c 00 	mov	r14,	12(r4)	; 0x000c
    bb7a:	84 4c 0e 00 	mov	r12,	14(r4)	; 0x000e
    bb7e:	5d 46 09 00 	mov.b	9(r6),	r13	;
    bb82:	47 18 0d 5d 	rpt #8 { rlax.w	r13		;
    bb86:	5c 46 0b 00 	mov.b	11(r6),	r12	;0x0000b
    bb8a:	47 18 0c 5c 	rpt #8 { rlax.w	r12		;
    bb8e:	5e 46 0a 00 	mov.b	10(r6),	r14	;0x0000a
    bb92:	0c de       	bis	r14,	r12	;
    bb94:	5e 46 08 00 	mov.b	8(r6),	r14	;
    bb98:	0e dd       	bis	r13,	r14	;
    bb9a:	84 4e 10 00 	mov	r14,	16(r4)	; 0x0010
    bb9e:	84 4c 12 00 	mov	r12,	18(r4)	; 0x0012
    bba2:	5c 46 20 00 	mov.b	32(r6),	r12	;0x00020
    bba6:	5c 0f       	rrum	#4,	r12	;
    bba8:	7c f0 03 00 	and.b	#3,	r12	;
    bbac:	c4 4c 14 00 	mov.b	r12,	20(r4)	; 0x0014
    bbb0:	5c 46 21 00 	mov.b	33(r6),	r12	;0x00021
    bbb4:	0c 5c       	rla	r12		;
    bbb6:	3c 50 60 ff 	add	#65376,	r12	;#0xff60
    bbba:	0c 11       	rra	r12		;
    bbbc:	3c 50 15 00 	add	#21,	r12	;#0x0015
    bbc0:	4c 0e       	rlam.a	#4,	r12	;
    bbc2:	4c 0d       	rram.a	#4,	r12	;
    bbc4:	c0 18 d4 4c 	movx.b	67921(r12),21(r4)	;0x10951, 0x00015
    bbc8:	51 09 15 00 
    bbcc:	5d 46 11 00 	mov.b	17(r6),	r13	;0x00011
    bbd0:	47 18 0d 5d 	rpt #8 { rlax.w	r13		;
    bbd4:	5c 46 13 00 	mov.b	19(r6),	r12	;0x00013
    bbd8:	47 18 0c 5c 	rpt #8 { rlax.w	r12		;
    bbdc:	5e 46 12 00 	mov.b	18(r6),	r14	;0x00012
    bbe0:	0c de       	bis	r14,	r12	;
    bbe2:	5e 46 10 00 	mov.b	16(r6),	r14	;0x00010
    bbe6:	0e dd       	bis	r13,	r14	;
    bbe8:	84 4e 18 00 	mov	r14,	24(r4)	; 0x0018
    bbec:	84 4c 1a 00 	mov	r12,	26(r4)	; 0x001a
    bbf0:	8a 00 9e b3 	mova	#45982,	r10	;0x0b39e
    bbf4:	4a 13       	calla	r10		;
    bbf6:	8c 01 4c 1c 	mova	#72780,	r12	;0x11c4c
    bbfa:	b0 13 c4 69 	calla	#27076		;0x069c4
    bbfe:	cd 04       	mova	r4,	r13	;
    bc00:	8c 01 4c 1c 	mova	#72780,	r12	;0x11c4c
    bc04:	b0 13 d4 69 	calla	#27092		;0x069d4
    bc08:	8c 01 4c 1c 	mova	#72780,	r12	;0x11c4c
    bc0c:	b0 13 16 b0 	calla	#45078		;0x0b016
    bc10:	48 13       	calla	r8		;
    bc12:	84 00 86 ce 	mova	#52870,	r4	;0x0ce86
    bc16:	5d 46 1d 00 	mov.b	29(r6),	r13	;0x0001d
    bc1a:	47 18 0d 5d 	rpt #8 { rlax.w	r13		;
    bc1e:	5c 46 1f 00 	mov.b	31(r6),	r12	;0x0001f
    bc22:	47 18 0c 5c 	rpt #8 { rlax.w	r12		;
    bc26:	5e 46 1e 00 	mov.b	30(r6),	r14	;0x0001e
    bc2a:	0c de       	bis	r14,	r12	;
    bc2c:	5e 46 1c 00 	mov.b	28(r6),	r14	;0x0001c
    bc30:	0e dd       	bis	r13,	r14	;
    bc32:	84 4e 0c 00 	mov	r14,	12(r4)	; 0x000c
    bc36:	84 4c 0e 00 	mov	r12,	14(r4)	; 0x000e
    bc3a:	5d 46 05 00 	mov.b	5(r6),	r13	;
    bc3e:	47 18 0d 5d 	rpt #8 { rlax.w	r13		;
    bc42:	5c 46 07 00 	mov.b	7(r6),	r12	;
    bc46:	47 18 0c 5c 	rpt #8 { rlax.w	r12		;
    bc4a:	5e 46 06 00 	mov.b	6(r6),	r14	;
    bc4e:	0c de       	bis	r14,	r12	;
    bc50:	5e 46 04 00 	mov.b	4(r6),	r14	;
    bc54:	0e dd       	bis	r13,	r14	;
    bc56:	84 4e 10 00 	mov	r14,	16(r4)	; 0x0010
    bc5a:	84 4c 12 00 	mov	r12,	18(r4)	; 0x0012
    bc5e:	5d 46 0d 00 	mov.b	13(r6),	r13	;0x0000d
    bc62:	47 18 0d 5d 	rpt #8 { rlax.w	r13		;
    bc66:	5c 46 0f 00 	mov.b	15(r6),	r12	;0x0000f
    bc6a:	47 18 0c 5c 	rpt #8 { rlax.w	r12		;
    bc6e:	5e 46 0e 00 	mov.b	14(r6),	r14	;0x0000e
    bc72:	0c de       	bis	r14,	r12	;
    bc74:	5e 46 0c 00 	mov.b	12(r6),	r14	;0x0000c
    bc78:	0e dd       	bis	r13,	r14	;
    bc7a:	84 4e 14 00 	mov	r14,	20(r4)	; 0x0014
    bc7e:	84 4c 16 00 	mov	r12,	22(r4)	; 0x0016
    bc82:	5c 46 20 00 	mov.b	32(r6),	r12	;0x00020
    bc86:	7c f0 0f 00 	and.b	#15,	r12	;#0x000f
    bc8a:	4d 4c       	mov.b	r12,	r13	;
    bc8c:	0e 43       	clr	r14		;
    bc8e:	84 4d 18 00 	mov	r13,	24(r4)	; 0x0018
    bc92:	84 4e 1a 00 	mov	r14,	26(r4)	; 0x001a
    bc96:	5d 46 15 00 	mov.b	21(r6),	r13	;0x00015
    bc9a:	47 18 0d 5d 	rpt #8 { rlax.w	r13		;
    bc9e:	5c 46 17 00 	mov.b	23(r6),	r12	;0x00017
    bca2:	47 18 0c 5c 	rpt #8 { rlax.w	r12		;
    bca6:	5e 46 16 00 	mov.b	22(r6),	r14	;0x00016
    bcaa:	0c de       	bis	r14,	r12	;
    bcac:	56 46 14 00 	mov.b	20(r6),	r6	;0x00014
    bcb0:	06 dd       	bis	r13,	r6	;
    bcb2:	84 46 1c 00 	mov	r6,	28(r4)	; 0x001c
    bcb6:	84 4c 1e 00 	mov	r12,	30(r4)	; 0x001e
    bcba:	4a 13       	calla	r10		;
    bcbc:	cd 04       	mova	r4,	r13	;
    bcbe:	8c 01 5e 1c 	mova	#72798,	r12	;0x11c5e
    bcc2:	b0 13 e0 70 	calla	#28896		;0x070e0
    bcc6:	8c 01 5e 1c 	mova	#72798,	r12	;0x11c5e
    bcca:	b0 13 96 ae 	calla	#44694		;0x0ae96
    bcce:	40 18 b2 40 	movx.w	#8192,	&0x0f23a;0x02000
    bcd2:	00 20 3a f2 
    bcd6:	40 18 92 43 	movx.w	#1,	&0x0f23c;r3 As==01
    bcda:	3c f2 
    bcdc:	48 13       	calla	r8		;
    bcde:	40 18 1c 42 	movx.w	&0x0cf18,r12	;
    bce2:	18 cf 
    bce4:	4d 43       	clr.b	r13		;
    bce6:	0d 9c       	cmp	r12,	r13	;
    bce8:	07 34       	jge	$+16     	;abs 0xbcf8
    bcea:	40 18 b2 40 	movx.w	#9216,	&0x0f23a;0x02400
    bcee:	00 24 3a f2 
    bcf2:	40 18 92 43 	movx.w	#1,	&0x0f23c;r3 As==01
    bcf6:	3c f2 

0000bcf8 <.L68>:
    bcf8:	4a 13       	calla	r10		;
    bcfa:	89 00 c4 ae 	mova	#44740,	r9	;0x0aec4
    bcfe:	44 43       	clr.b	r4		;
    bd00:	45 43       	clr.b	r5		;

0000bd02 <.L94>:
    bd02:	40 18 1c 42 	movx.w	&0x0f23a,r12	;
    bd06:	3a f2 
    bd08:	3c f0 00 30 	and	#12288,	r12	;#0x3000
    bd0c:	3c 90 00 30 	cmp	#12288,	r12	;#0x3000
    bd10:	0a 20       	jnz	$+22     	;abs 0xbd26
    bd12:	8c 01 5e 1c 	mova	#72798,	r12	;0x11c5e
    bd16:	49 13       	calla	r9		;
    bd18:	c0 1f b2 f0 	andx.w	#-12289,&0x0f23a;0xfcfff
    bd1c:	ff cf 3a f2 
    bd20:	40 18 82 c3 	bicx.w	#0,	&0x0f23c;r3 As==00
    bd24:	3c f2 

0000bd26 <.L69>:
    bd26:	40 18 1d 42 	movx.w	&0x0f23a,r13	;
    bd2a:	3a f2 
    bd2c:	3d f0 00 28 	and	#10240,	r13	;#0x2800
    bd30:	40 18 1c 42 	movx.w	&0x0f23c,r12	;
    bd34:	3c f2 
    bd36:	5c f3       	and.b	#1,	r12	;r3 As==01
    bd38:	3d 90 00 28 	cmp	#10240,	r13	;#0x2800
    bd3c:	0d 20       	jnz	$+28     	;abs 0xbd58
    bd3e:	1c 93       	cmp	#1,	r12	;r3 As==01
    bd40:	0b 20       	jnz	$+24     	;abs 0xbd58
    bd42:	8c 01 4c 1c 	mova	#72780,	r12	;0x11c4c
    bd46:	b0 13 66 b0 	calla	#45158		;0x0b066
    bd4a:	c0 1f b2 f0 	andx.w	#-10241,&0x0f23a;0xfd7ff
    bd4e:	ff d7 3a f2 
    bd52:	40 18 92 c3 	bicx.w	#1,	&0x0f23c;r3 As==01
    bd56:	3c f2 

0000bd58 <.L70>:
    bd58:	40 18 1c 42 	movx.w	&0x0f23a,r12	;
    bd5c:	3a f2 
    bd5e:	3c f0 00 a0 	and	#40960,	r12	;#0xa000
    bd62:	3c 90 00 a0 	cmp	#40960,	r12	;#0xa000
    bd66:	0b 20       	jnz	$+24     	;abs 0xbd7e
    bd68:	8c 01 4c 1c 	mova	#72780,	r12	;0x11c4c
    bd6c:	b0 13 98 b0 	calla	#45208		;0x0b098
    bd70:	40 18 b2 f0 	andx.w	#24575,	&0x0f23a;0x05fff
    bd74:	ff 5f 3a f2 
    bd78:	40 18 82 c3 	bicx.w	#0,	&0x0f23c;r3 As==00
    bd7c:	3c f2 

0000bd7e <.L71>:
    bd7e:	40 18 1c 42 	movx.w	&0x0f23a,r12	;
    bd82:	3a f2 
    bd84:	40 18 1d 42 	movx.w	&0x0f23c,r13	;
    bd88:	3c f2 
    bd8a:	5d f3       	and.b	#1,	r13	;r3 As==01
    bd8c:	40 18 3c b0 	bitx.w	#1024,	r12	;0x00400
    bd90:	00 04 
    bd92:	11 24       	jz	$+36     	;abs 0xbdb6
    bd94:	1d 93       	cmp	#1,	r13	;r3 As==01
    bd96:	0f 20       	jnz	$+32     	;abs 0xbdb6
    bd98:	3c b0 00 08 	bit	#2048,	r12	;#0x0800
    bd9c:	0c 20       	jnz	$+26     	;abs 0xbdb6
    bd9e:	b0 13 e6 ab 	calla	#44006		;0x0abe6
    bda2:	40 18 1c 42 	movx.w	&0x0f23a,r12	;
    bda6:	3a f2 
    bda8:	3c f0 ff fb 	and	#64511,	r12	;#0xfbff
    bdac:	3c d0 00 08 	bis	#2048,	r12	;#0x0800
    bdb0:	40 18 82 4c 	movx.w	r12,	&0x0f23a;
    bdb4:	3a f2 

0000bdb6 <.L72>:
    bdb6:	40 18 1c 42 	movx.w	&0x0f23a,r12	;
    bdba:	3a f2 
    bdbc:	40 18 1d 42 	movx.w	&0x0f23c,r13	;
    bdc0:	3c f2 
    bdc2:	5d f3       	and.b	#1,	r13	;r3 As==01
    bdc4:	40 18 3c b0 	bitx.w	#8192,	r12	;0x02000
    bdc8:	00 20 
    bdca:	02 24       	jz	$+6      	;abs 0xbdd0
    bdcc:	1d 93       	cmp	#1,	r13	;r3 As==01
    bdce:	19 24       	jz	$+52     	;abs 0xbe02

0000bdd0 <.L79>:
    bdd0:	40 18 1c 42 	movx.w	&0x0f23a,r12	;
    bdd4:	3a f2 
    bdd6:	0d 4c       	mov	r12,	r13	;
    bdd8:	3d f0 00 60 	and	#24576,	r13	;#0x6000
    bddc:	3d 90 00 60 	cmp	#24576,	r13	;#0x6000
    bde0:	03 20       	jnz	$+8      	;abs 0xbde8
    bde2:	3c b0 aa 00 	bit	#170,	r12	;#0x00aa
    bde6:	b0 20       	jnz	$+354    	;abs 0xbf48

0000bde8 <.L77>:
    bde8:	4e 43       	clr.b	r14		;
    bdea:	3c 43       	mov	#-1,	r12	;r3 As==11
    bdec:	5d 43       	mov.b	#1,	r13	;r3 As==01
    bdee:	b0 13 12 4a 	calla	#18962		;0x04a12
    bdf2:	40 18 82 dc 	bisx.w	r12,	&0x0f23a;
    bdf6:	3a f2 
    bdf8:	40 18 82 dd 	bisx.w	r13,	&0x0f23c;
    bdfc:	3c f2 
    bdfe:	80 00 02 bd 	mova	#48386,	r0	;0x0bd02

0000be02 <.L108>:
    be02:	3c b0 55 01 	bit	#341,	r12	;#0x0155
    be06:	e4 27       	jz	$-54     	;abs 0xbdd0
    be08:	8a 00 2c c6 	mova	#50732,	r10	;0x0c62c
    be0c:	88 00 42 46 	mova	#17986,	r8	;0x04642
    be10:	80 00 3c be 	mova	#48700,	r0	;0x0be3c

0000be14 <.L93>:
    be14:	06 44       	mov	r4,	r6	;
    be16:	07 45       	mov	r5,	r7	;
    be18:	40 18 16 81 	subx.w	4(r1),	r6	;
    be1c:	04 00 
    be1e:	40 18 17 71 	subcx.w	6(r1),	r7	;
    be22:	06 00 
    be24:	16 f1 04 00 	and	4(r1),	r6	;
    be28:	36 90 10 00 	cmp	#16,	r6	;#0x0010
    be2c:	14 20       	jnz	$+42     	;abs 0xbe56
    be2e:	8c 00 b2 ce 	mova	#52914,	r12	;0x0ceb2
    be32:	b0 13 82 b8 	calla	#47234		;0x0b882

0000be36 <.L92>:
    be36:	40 18 82 c6 	bicx.w	r6,	&0x0f23a;
    be3a:	3a f2 

0000be3c <.L112>:
    be3c:	40 18 1c 42 	movx.w	&0x0f23a,r12	;
    be40:	3a f2 
    be42:	3c f0 55 01 	and	#341,	r12	;#0x0155
    be46:	81 4c 04 00 	mov	r12,	4(r1)	;
    be4a:	81 43 06 00 	mov	#0,	6(r1)	;r3 As==00
    be4e:	0c 93       	cmp	#0,	r12	;r3 As==00
    be50:	e1 23       	jnz	$-60     	;abs 0xbe14
    be52:	80 00 d0 bd 	mova	#48592,	r0	;0x0bdd0

0000be56 <.L82>:
    be56:	7e 40 10 00 	mov.b	#16,	r14	;#0x0010
    be5a:	4f 43       	clr.b	r15		;
    be5c:	0c 46       	mov	r6,	r12	;
    be5e:	4d 43       	clr.b	r13		;
    be60:	4a 13       	calla	r10		;
    be62:	5e 43       	mov.b	#1,	r14	;r3 As==01
    be64:	0e 9c       	cmp	r12,	r14	;
    be66:	09 28       	jnc	$+20     	;abs 0xbe7a
    be68:	06 9e       	cmp	r14,	r6	;
    be6a:	13 24       	jz	$+40     	;abs 0xbe92
    be6c:	26 92       	cmp	#4,	r6	;r2 As==10
    be6e:	17 24       	jz	$+48     	;abs 0xbe9e

0000be70 <.L80>:
    be70:	8c 01 4b 09 	mova	#67915,	r12	;0x1094b
    be74:	48 13       	calla	r8		;
    be76:	80 00 36 be 	mova	#48694,	r0	;0x0be36

0000be7a <.L83>:
    be7a:	36 90 40 00 	cmp	#64,	r6	;#0x0040
    be7e:	15 24       	jz	$+44     	;abs 0xbeaa
    be80:	36 90 00 01 	cmp	#256,	r6	;#0x0100
    be84:	f5 23       	jnz	$-20     	;abs 0xbe70

0000be86 <.L90>:
    be86:	8c 00 b2 ce 	mova	#52914,	r12	;0x0ceb2
    be8a:	b0 13 e6 ba 	calla	#47846		;0x0bae6
    be8e:	80 00 36 be 	mova	#48694,	r0	;0x0be36

0000be92 <.L109>:
    be92:	8c 00 b2 ce 	mova	#52914,	r12	;0x0ceb2
    be96:	b0 13 3c b4 	calla	#46140		;0x0b43c
    be9a:	80 00 36 be 	mova	#48694,	r0	;0x0be36

0000be9e <.L110>:
    be9e:	8c 00 b2 ce 	mova	#52914,	r12	;0x0ceb2
    bea2:	b0 13 6e b6 	calla	#46702		;0x0b66e
    bea6:	80 00 36 be 	mova	#48694,	r0	;0x0be36

0000beaa <.L111>:
    beaa:	8c 00 b2 ce 	mova	#52914,	r12	;0x0ceb2
    beae:	b0 13 52 aa 	calla	#43602		;0x0aa52
    beb2:	80 00 86 be 	mova	#48774,	r0	;0x0be86

0000beb6 <.L107>:
    beb6:	06 44       	mov	r4,	r6	;
    beb8:	07 45       	mov	r5,	r7	;
    beba:	40 18 26 81 	subx.w	@r1,	r6	;
    bebe:	40 18 17 71 	subcx.w	2(r1),	r7	;
    bec2:	02 00 
    bec4:	26 f1       	and	@r1,	r6	;
    bec6:	36 92       	cmp	#8,	r6	;r2 As==11
    bec8:	14 20       	jnz	$+42     	;abs 0xbef2
    beca:	8c 00 86 ce 	mova	#52870,	r12	;0x0ce86
    bece:	b0 13 78 b7 	calla	#46968		;0x0b778

0000bed2 <.L106>:
    bed2:	40 18 82 c6 	bicx.w	r6,	&0x0f23a;
    bed6:	3a f2 

0000bed8 <.L116>:
    bed8:	40 18 1e 42 	movx.w	&0x0f23a,r14	;
    bedc:	3a f2 
    bede:	7e f0 aa 00 	and.b	#170,	r14	;#0x00aa
    bee2:	81 4e 00 00 	mov	r14,	0(r1)	;
    bee6:	81 43 02 00 	mov	#0,	2(r1)	;r3 As==00
    beea:	0e 93       	cmp	#0,	r14	;r3 As==00
    beec:	e4 23       	jnz	$-54     	;abs 0xbeb6
    beee:	80 00 e8 bd 	mova	#48616,	r0	;0x0bde8

0000bef2 <.L98>:
    bef2:	7e 42       	mov.b	#8,	r14	;r2 As==11
    bef4:	4f 43       	clr.b	r15		;
    bef6:	0c 46       	mov	r6,	r12	;
    bef8:	4d 43       	clr.b	r13		;
    befa:	4a 13       	calla	r10		;
    befc:	5d 43       	mov.b	#1,	r13	;r3 As==01
    befe:	0d 9c       	cmp	r12,	r13	;
    bf00:	07 28       	jnc	$+16     	;abs 0xbf10
    bf02:	26 93       	cmp	#2,	r6	;r3 As==10
    bf04:	15 24       	jz	$+44     	;abs 0xbf30

0000bf06 <.L96>:
    bf06:	8c 01 4b 09 	mova	#67915,	r12	;0x1094b
    bf0a:	48 13       	calla	r8		;
    bf0c:	80 00 d2 be 	mova	#48850,	r0	;0x0bed2

0000bf10 <.L99>:
    bf10:	36 90 20 00 	cmp	#32,	r6	;#0x0020
    bf14:	13 24       	jz	$+40     	;abs 0xbf3c
    bf16:	36 90 80 00 	cmp	#128,	r6	;#0x0080
    bf1a:	f5 23       	jnz	$-20     	;abs 0xbf06
    bf1c:	8c 00 86 ce 	mova	#52870,	r12	;0x0ce86
    bf20:	b0 13 9e ba 	calla	#47774		;0x0ba9e
    bf24:	8c 00 86 ce 	mova	#52870,	r12	;0x0ce86
    bf28:	b0 13 fa ba 	calla	#47866		;0x0bafa
    bf2c:	80 00 d2 be 	mova	#48850,	r0	;0x0bed2

0000bf30 <.L113>:
    bf30:	8c 00 86 ce 	mova	#52870,	r12	;0x0ce86
    bf34:	b0 13 54 b5 	calla	#46420		;0x0b554
    bf38:	80 00 d2 be 	mova	#48850,	r0	;0x0bed2

0000bf3c <.L114>:
    bf3c:	8c 00 86 ce 	mova	#52870,	r12	;0x0ce86
    bf40:	b0 13 90 b9 	calla	#47504		;0x0b990
    bf44:	80 00 d2 be 	mova	#48850,	r0	;0x0bed2

0000bf48 <.L95>:
    bf48:	8a 00 2c c6 	mova	#50732,	r10	;0x0c62c
    bf4c:	88 00 42 46 	mova	#17986,	r8	;0x04642
    bf50:	80 00 d8 be 	mova	#48856,	r0	;0x0bed8

0000bf54 <nl_allocator>:
    bf54:	0a 14       	pushm.a	#1,	r10	;20-bit words
    bf56:	2e 00 58 cf 	mova	&53080,	r14	;0x0cf58
    bf5a:	ca 0e       	mova	r14,	r10	;
    bf5c:	ea 0c       	adda	r12,	r10	;
    bf5e:	3c 40 00 20 	mov	#8192,	r12	;#0x2000
    bf62:	dc 0a       	cmpa	r10,	r12	;
    bf64:	07 28       	jnc	$+16     	;abs 0xbf74
    bf66:	cc 0e       	mova	r14,	r12	;
    bf68:	ac 00 61 cf 	adda	#53089,	r12	;0x0cf61
    bf6c:	60 0a 58 cf 	mova	r10,	&53080	; 0x0cf58

0000bf70 <.L1>:
    bf70:	0a 16       	popm.a	#1,	r10	;20-bit words
    bf72:	10 01       	reta			;

0000bf74 <.L3>:
    bf74:	4c 43       	clr.b	r12		;
    bf76:	80 00 70 bf 	mova	#49008,	r0	;0x0bf70

0000bf7a <clamp>:
    bf7a:	1a 14       	pushm.a	#2,	r10	;20-bit words
    bf7c:	3c f0 ff 00 	and	#255,	r12	;#0x00ff
    bf80:	49 4d       	mov.b	r13,	r9	;
    bf82:	4a 4e       	mov.b	r14,	r10	;
    bf84:	4c 99       	cmp.b	r9,	r12	;
    bf86:	07 2c       	jc	$+16     	;abs 0xbf96
    bf88:	7c 40 88 ff 	mov.b	#65416,	r12	;#0xff88
    bf8c:	b0 13 96 a3 	calla	#41878		;0x0a396
    bf90:	0c 49       	mov	r9,	r12	;

0000bf92 <.L6>:
    bf92:	19 16       	popm.a	#2,	r10	;20-bit words
    bf94:	10 01       	reta			;

0000bf96 <.L5>:
    bf96:	4a 9c       	cmp.b	r12,	r10	;
    bf98:	fc 2f       	jc	$-6      	;abs 0xbf92
    bf9a:	7c 40 88 ff 	mov.b	#65416,	r12	;#0xff88
    bf9e:	b0 13 96 a3 	calla	#41878		;0x0a396
    bfa2:	0c 4a       	mov	r10,	r12	;
    bfa4:	80 00 92 bf 	mova	#49042,	r0	;0x0bf92

0000bfa8 <uart_pass>:
    bfa8:	4d 43       	clr.b	r13		;
    bfaa:	b0 13 a2 74 	calla	#29858		;0x074a2
    bfae:	10 01       	reta			;

0000bfb0 <fw>:
    bfb0:	4d 43       	clr.b	r13		;
    bfb2:	b0 13 36 79 	calla	#31030		;0x07936
    bfb6:	10 01       	reta			;

0000bfb8 <rf_pass>:
    bfb8:	4d 43       	clr.b	r13		;
    bfba:	b0 13 d0 b3 	calla	#46032		;0x0b3d0
    bfbe:	10 01       	reta			;

0000bfc0 <elyNLClampReg>:
    bfc0:	1a 14       	pushm.a	#2,	r10	;20-bit words
    bfc2:	49 4c       	mov.b	r12,	r9	;
    bfc4:	4a 4d       	mov.b	r13,	r10	;
    bfc6:	4c 49       	mov.b	r9,	r12	;
    bfc8:	7c 50 80 ff 	add.b	#65408,	r12	;#0xff80
    bfcc:	7d 40 09 00 	mov.b	#9,	r13	;
    bfd0:	4d 9c       	cmp.b	r12,	r13	;
    bfd2:	04 2c       	jc	$+10     	;abs 0xbfdc
    bfd4:	8c 01 db 09 	mova	#68059,	r12	;0x109db
    bfd8:	b0 13 42 46 	calla	#17986		;0x04642

0000bfdc <.L14>:
    bfdc:	79 90 83 ff 	cmp.b	#65411,	r9	;#0xff83
    bfe0:	35 24       	jz	$+108    	;abs 0xc04c
    bfe2:	7d 40 83 ff 	mov.b	#65411,	r13	;#0xff83
    bfe6:	4d 99       	cmp.b	r9,	r13	;
    bfe8:	09 28       	jnc	$+20     	;abs 0xbffc
    bfea:	79 90 80 ff 	cmp.b	#65408,	r9	;#0xff80
    bfee:	20 24       	jz	$+66     	;abs 0xc030
    bff0:	79 90 81 ff 	cmp.b	#65409,	r9	;#0xff81
    bff4:	26 24       	jz	$+78     	;abs 0xc042

0000bff6 <.L15>:
    bff6:	4c 4a       	mov.b	r10,	r12	;
    bff8:	19 16       	popm.a	#2,	r10	;20-bit words
    bffa:	10 01       	reta			;

0000bffc <.L17>:
    bffc:	79 90 85 ff 	cmp.b	#65413,	r9	;#0xff85
    c000:	29 24       	jz	$+84     	;abs 0xc054
    c002:	79 90 85 ff 	cmp.b	#65413,	r9	;#0xff85
    c006:	f7 2b       	jnc	$-16     	;abs 0xbff6
    c008:	79 50 79 00 	add.b	#121,	r9	;#0x0079
    c00c:	5c 43       	mov.b	#1,	r12	;r3 As==01
    c00e:	4c 99       	cmp.b	r9,	r12	;
    c010:	f2 2b       	jnc	$-26     	;abs 0xbff6
    c012:	40 18 3a b0 	bitx.w	#16,	r10	;0x00010
    c016:	10 00 
    c018:	21 24       	jz	$+68     	;abs 0xc05c
    c01a:	3a 90 10 00 	cmp	#16,	r10	;#0x0010
    c01e:	1e 24       	jz	$+62     	;abs 0xc05c
    c020:	7c 40 88 ff 	mov.b	#65416,	r12	;#0xff88
    c024:	b0 13 96 a3 	calla	#41878		;0x0a396
    c028:	7a 40 10 00 	mov.b	#16,	r10	;#0x0010
    c02c:	80 00 f6 bf 	mova	#49142,	r0	;0x0bff6

0000c030 <.L18>:
    c030:	7e 43       	mov.b	#-1,	r14	;r3 As==11
    c032:	7d 40 07 00 	mov.b	#7,	r13	;

0000c036 <.L61>:
    c036:	4c 4a       	mov.b	r10,	r12	;
    c038:	b0 13 7a bf 	calla	#49018		;0x0bf7a
    c03c:	4a 4c       	mov.b	r12,	r10	;
    c03e:	80 00 f6 bf 	mova	#49142,	r0	;0x0bff6

0000c042 <.L19>:
    c042:	7e 40 10 00 	mov.b	#16,	r14	;#0x0010

0000c046 <.L62>:
    c046:	4d 43       	clr.b	r13		;
    c048:	80 00 36 c0 	mova	#49206,	r0	;0x0c036

0000c04c <.L16>:
    c04c:	7e 40 07 00 	mov.b	#7,	r14	;
    c050:	80 00 46 c0 	mova	#49222,	r0	;0x0c046

0000c054 <.L20>:
    c054:	7e 40 3f 00 	mov.b	#63,	r14	;#0x003f
    c058:	80 00 46 c0 	mova	#49222,	r0	;0x0c046

0000c05c <.L22>:
    c05c:	40 18 3a b2 	bitx.w	#8,	r10	;r2 As==11
    c060:	09 24       	jz	$+20     	;abs 0xc074
    c062:	3a 92       	cmp	#8,	r10	;r2 As==11
    c064:	07 24       	jz	$+16     	;abs 0xc074
    c066:	7c 40 88 ff 	mov.b	#65416,	r12	;#0xff88
    c06a:	b0 13 96 a3 	calla	#41878		;0x0a396
    c06e:	7a 42       	mov.b	#8,	r10	;r2 As==11
    c070:	80 00 f6 bf 	mova	#49142,	r0	;0x0bff6

0000c074 <.L23>:
    c074:	40 18 2a b2 	bitx.w	#4,	r10	;r2 As==10
    c078:	09 24       	jz	$+20     	;abs 0xc08c
    c07a:	2a 92       	cmp	#4,	r10	;r2 As==10
    c07c:	07 24       	jz	$+16     	;abs 0xc08c
    c07e:	7c 40 88 ff 	mov.b	#65416,	r12	;#0xff88
    c082:	b0 13 96 a3 	calla	#41878		;0x0a396
    c086:	6a 42       	mov.b	#4,	r10	;r2 As==10
    c088:	80 00 f6 bf 	mova	#49142,	r0	;0x0bff6

0000c08c <.L24>:
    c08c:	40 18 2a b3 	bitx.w	#2,	r10	;r3 As==10
    c090:	09 24       	jz	$+20     	;abs 0xc0a4
    c092:	2a 93       	cmp	#2,	r10	;r3 As==10
    c094:	07 24       	jz	$+16     	;abs 0xc0a4
    c096:	7c 40 88 ff 	mov.b	#65416,	r12	;#0xff88
    c09a:	b0 13 96 a3 	calla	#41878		;0x0a396
    c09e:	6a 43       	mov.b	#2,	r10	;r3 As==10
    c0a0:	80 00 f6 bf 	mova	#49142,	r0	;0x0bff6

0000c0a4 <.L25>:
    c0a4:	40 18 1a b3 	bitx.w	#1,	r10	;r3 As==01
    c0a8:	09 24       	jz	$+20     	;abs 0xc0bc
    c0aa:	1a 93       	cmp	#1,	r10	;r3 As==01
    c0ac:	07 24       	jz	$+16     	;abs 0xc0bc
    c0ae:	7c 40 88 ff 	mov.b	#65416,	r12	;#0xff88
    c0b2:	b0 13 96 a3 	calla	#41878		;0x0a396
    c0b6:	5a 43       	mov.b	#1,	r10	;r3 As==01
    c0b8:	80 00 f6 bf 	mova	#49142,	r0	;0x0bff6

0000c0bc <.L26>:
    c0bc:	7a b0 d0 ff 	bit.b	#65488,	r10	;#0xffd0
    c0c0:	9a 27       	jz	$-202    	;abs 0xbff6
    c0c2:	7c 40 88 ff 	mov.b	#65416,	r12	;#0xff88
    c0c6:	b0 13 96 a3 	calla	#41878		;0x0a396
    c0ca:	4a 43       	clr.b	r10		;
    c0cc:	80 00 f6 bf 	mova	#49142,	r0	;0x0bff6

0000c0d0 <elyNLGetBuffer>:
    c0d0:	8c 00 4c cf 	mova	#53068,	r12	;0x0cf4c
    c0d4:	b0 13 9e 4c 	calla	#19614		;0x04c9e
    c0d8:	10 01       	reta			;

0000c0da <elyNLFreeBuffer>:
    c0da:	cd 0c       	mova	r12,	r13	;
    c0dc:	8c 00 4c cf 	mova	#53068,	r12	;0x0cf4c
    c0e0:	b0 13 de 4c 	calla	#19678		;0x04cde
    c0e4:	10 01       	reta			;

0000c0e6 <elyNLGetBufferI>:
    c0e6:	8c 00 4c cf 	mova	#53068,	r12	;0x0cf4c
    c0ea:	b0 13 64 4c 	calla	#19556		;0x04c64
    c0ee:	10 01       	reta			;

0000c0f0 <elyNLFreeBufferI>:
    c0f0:	cd 0c       	mova	r12,	r13	;
    c0f2:	8c 00 4c cf 	mova	#53068,	r12	;0x0cf4c
    c0f6:	b0 13 b2 4c 	calla	#19634		;0x04cb2
    c0fa:	10 01       	reta			;

0000c0fc <elyNLGetDest>:
    c0fc:	2c 01 44 08 	mova	&67652,	r12	;0x10844
    c100:	5e 4c 83 00 	mov.b	131(r12),r14	;0x00083
    c104:	47 18 0e 5e 	rpt #8 { rlax.w	r14		;
    c108:	5c 4c 82 00 	mov.b	130(r12),r12	;0x00082
    c10c:	0e dc       	bis	r12,	r14	;
    c10e:	5c 43       	mov.b	#1,	r12	;r3 As==01
    c110:	0e 9d       	cmp	r13,	r14	;
    c112:	01 24       	jz	$+4      	;abs 0xc116
    c114:	4c 43       	clr.b	r12		;

0000c116 <.L73>:
    c116:	10 01       	reta			;

0000c118 <is_fw_buf>:
    c118:	0a 14       	pushm.a	#1,	r10	;20-bit words
    c11a:	6d 4c       	mov.b	@r12,	r13	;
    c11c:	0e 4d       	mov	r13,	r14	;
    c11e:	47 18 0e 5e 	rpt #8 { rlax.w	r14		;
    c122:	3e f0 00 07 	and	#1792,	r14	;#0x0700
    c126:	5c 4c 01 00 	mov.b	1(r12),	r12	;
    c12a:	0c de       	bis	r14,	r12	;
    c12c:	2a 01 44 08 	mova	&67652,	r10	;0x10844
    c130:	5e 4a 51 00 	mov.b	81(r10),r14	;0x00051
    c134:	47 18 0e 5e 	rpt #8 { rlax.w	r14		;
    c138:	5a 4a 50 00 	mov.b	80(r10),r10	;0x00050
    c13c:	0e da       	bis	r10,	r14	;
    c13e:	0c 9e       	cmp	r14,	r12	;
    c140:	06 20       	jnz	$+14     	;abs 0xc14e
    c142:	0c 4d       	mov	r13,	r12	;
    c144:	5c 0f       	rrum	#4,	r12	;
    c146:	5c e3       	xor.b	#1,	r12	;r3 As==01
    c148:	5c f3       	and.b	#1,	r12	;r3 As==01

0000c14a <.L75>:
    c14a:	0a 16       	popm.a	#1,	r10	;20-bit words
    c14c:	10 01       	reta			;

0000c14e <.L76>:
    c14e:	4c 43       	clr.b	r12		;
    c150:	80 00 4a c1 	mova	#49482,	r0	;0x0c14a

0000c154 <elyNLFreeBufferChecked>:
    c154:	0a 14       	pushm.a	#1,	r10	;20-bit words
    c156:	ca 0c       	mova	r12,	r10	;
    c158:	b0 13 18 c1 	calla	#49432		;0x0c118
    c15c:	4c 93       	cmp.b	#0,	r12	;r3 As==00
    c15e:	05 24       	jz	$+12     	;abs 0xc16a
    c160:	cc 0a       	mova	r10,	r12	;
    c162:	b0 13 d0 76 	calla	#30416		;0x076d0

0000c166 <.L77>:
    c166:	0a 16       	popm.a	#1,	r10	;20-bit words
    c168:	10 01       	reta			;

0000c16a <.L78>:
    c16a:	cc 0a       	mova	r10,	r12	;
    c16c:	b0 13 da c0 	calla	#49370		;0x0c0da
    c170:	80 00 66 c1 	mova	#49510,	r0	;0x0c166

0000c174 <elyNLFreeBufferCheckedI>:
    c174:	0a 14       	pushm.a	#1,	r10	;20-bit words
    c176:	ca 0c       	mova	r12,	r10	;
    c178:	b0 13 18 c1 	calla	#49432		;0x0c118
    c17c:	4c 93       	cmp.b	#0,	r12	;r3 As==00
    c17e:	05 24       	jz	$+12     	;abs 0xc18a
    c180:	cc 0a       	mova	r10,	r12	;
    c182:	b0 13 bc 76 	calla	#30396		;0x076bc

0000c186 <.L80>:
    c186:	0a 16       	popm.a	#1,	r10	;20-bit words
    c188:	10 01       	reta			;

0000c18a <.L81>:
    c18a:	cc 0a       	mova	r10,	r12	;
    c18c:	b0 13 f0 c0 	calla	#49392		;0x0c0f0
    c190:	80 00 86 c1 	mova	#49542,	r0	;0x0c186

0000c194 <elyNLInit>:
    c194:	00 18 c2 43 	movx.a	#0,	&0x0f23e;r3 As==00
    c198:	3e f2 
    c19a:	10 01       	reta			;

0000c19c <elyNLSetHeader>:
    c19c:	0a 14       	pushm.a	#1,	r10	;20-bit words
    c19e:	2e 01 44 08 	mova	&67652,	r14	;0x10844
    c1a2:	5f 4e 51 00 	mov.b	81(r14),r15	;0x00051
    c1a6:	47 18 0f 5f 	rpt #8 { rlax.w	r15		;
    c1aa:	5a 4e 50 00 	mov.b	80(r14),r10	;0x00050
    c1ae:	0f da       	bis	r10,	r15	;
    c1b0:	0b 4f       	mov	r15,	r11	;
    c1b2:	5b 0f       	rrum	#4,	r11	;
    c1b4:	5b 0f       	rrum	#4,	r11	;
    c1b6:	cc 4b 00 00 	mov.b	r11,	0(r12)	;
    c1ba:	cc 4f 01 00 	mov.b	r15,	1(r12)	;
    c1be:	40 18 1f 42 	movx.w	&0x0f23e,r15	;
    c1c2:	3e f2 
    c1c4:	3f 53       	add	#-1,	r15	;r3 As==11
    c1c6:	0d 5f       	add	r15,	r13	;
    c1c8:	0f 4d       	mov	r13,	r15	;
    c1ca:	5f 0f       	rrum	#4,	r15	;
    c1cc:	5f 0f       	rrum	#4,	r15	;
    c1ce:	cc 4f 04 00 	mov.b	r15,	4(r12)	;
    c1d2:	cc 4d 05 00 	mov.b	r13,	5(r12)	;
    c1d6:	5d 4e 86 00 	mov.b	134(r14),r13	;0x00086
    c1da:	40 18 2d b2 	bitx.w	#4,	r13	;r2 As==10
    c1de:	36 24       	jz	$+110    	;abs 0xc24c
    c1e0:	32 c2       	dint			
    c1e2:	03 43       	nop			
    c1e4:	03 43       	nop			
    c1e6:	dc 4e 85 00 	mov.b	133(r14),2(r12)	;0x00085
    c1ea:	02 00 
    c1ec:	dc 4e 84 00 	mov.b	132(r14),3(r12)	;0x00084
    c1f0:	03 00 
    c1f2:	03 43       	nop			
    c1f4:	03 43       	nop			
    c1f6:	32 d2       	eint			
    c1f8:	03 43       	nop			

0000c1fa <.L86>:
    c1fa:	40 18 1f 42 	movx.w	&0x0cf5e,r15	;
    c1fe:	5e cf 
    c200:	1f 53       	inc	r15		;
    c202:	3f f0 ff 3f 	and	#16383,	r15	;#0x3fff
    c206:	40 18 82 4f 	movx.w	r15,	&0x0cf5e;
    c20a:	5e cf 
    c20c:	40 18 2d b3 	bitx.w	#2,	r13	;r3 As==10
    c210:	1b 24       	jz	$+56     	;abs 0xc248
    c212:	fc d2 00 00 	bis.b	#8,	0(r12)	;r2 As==11
    c216:	40 18 1d b3 	bitx.w	#1,	r13	;r3 As==01
    c21a:	26 24       	jz	$+78     	;abs 0xc268
    c21c:	fc 40 2c 00 	mov.b	#44,	6(r12)	;#0x002c
    c220:	06 00 
    c222:	32 c2       	dint			
    c224:	03 43       	nop			
    c226:	03 43       	nop			
    c228:	dc 4e 76 00 	mov.b	118(r14),7(r12)	;0x00076
    c22c:	07 00 
    c22e:	dc 4e 75 00 	mov.b	117(r14),8(r12)	;0x00075
    c232:	08 00 
    c234:	dc 4e 74 00 	mov.b	116(r14),9(r12)	;0x00074
    c238:	09 00 
    c23a:	dc 4e 73 00 	mov.b	115(r14),10(r12)	;0x00073, 0x000a
    c23e:	0a 00 

0000c240 <.L92>:
    c240:	03 43       	nop			
    c242:	03 43       	nop			
    c244:	32 d2       	eint			
    c246:	03 43       	nop			

0000c248 <.L84>:
    c248:	0a 16       	popm.a	#1,	r10	;20-bit words
    c24a:	10 01       	reta			;

0000c24c <.L85>:
    c24c:	40 18 1f 42 	movx.w	&0x0cf5e,r15	;
    c250:	5e cf 
    c252:	0b 4f       	mov	r15,	r11	;
    c254:	5b 0f       	rrum	#4,	r11	;
    c256:	5b 0f       	rrum	#4,	r11	;
    c258:	7b d0 c0 ff 	bis.b	#65472,	r11	;#0xffc0
    c25c:	cc 4b 02 00 	mov.b	r11,	2(r12)	;
    c260:	cc 4f 03 00 	mov.b	r15,	3(r12)	;
    c264:	80 00 fa c1 	mova	#49658,	r0	;0x0c1fa

0000c268 <.L88>:
    c268:	32 c2       	dint			
    c26a:	03 43       	nop			
    c26c:	03 43       	nop			
    c26e:	dc 4e 76 00 	mov.b	118(r14),6(r12)	;0x00076
    c272:	06 00 
    c274:	dc 4e 75 00 	mov.b	117(r14),7(r12)	;0x00075
    c278:	07 00 
    c27a:	dc 4e 74 00 	mov.b	116(r14),8(r12)	;0x00074
    c27e:	08 00 
    c280:	dc 4e 73 00 	mov.b	115(r14),9(r12)	;0x00073
    c284:	09 00 
    c286:	80 00 40 c2 	mova	#49728,	r0	;0x0c240

0000c28a <elyNLGetLength>:
    c28a:	5d 4c 04 00 	mov.b	4(r12),	r13	;
    c28e:	47 18 0d 5d 	rpt #8 { rlax.w	r13		;
    c292:	5c 4c 05 00 	mov.b	5(r12),	r12	;
    c296:	0c dd       	bis	r13,	r12	;
    c298:	3c 50 07 00 	add	#7,	r12	;
    c29c:	4c 0e       	rlam.a	#4,	r12	;
    c29e:	4c 0d       	rram.a	#4,	r12	;
    c2a0:	10 01       	reta			;

0000c2a2 <elyNLValidate>:
    c2a2:	0a 14       	pushm.a	#1,	r10	;20-bit words
    c2a4:	fc b0 e0 ff 	bit.b	#65504,	0(r12)	;#0xffe0
    c2a8:	00 00 
    c2aa:	07 24       	jz	$+16     	;abs 0xc2ba
    c2ac:	7c 40 a0 ff 	mov.b	#65440,	r12	;#0xffa0

0000c2b0 <.L98>:
    c2b0:	b0 13 96 a3 	calla	#41878		;0x0a396
    c2b4:	4c 43       	clr.b	r12		;

0000c2b6 <.L96>:
    c2b6:	0a 16       	popm.a	#1,	r10	;20-bit words
    c2b8:	10 01       	reta			;

0000c2ba <.L95>:
    c2ba:	32 c2       	dint			
    c2bc:	03 43       	nop			
    c2be:	03 43       	nop			
    c2c0:	b0 13 8a c2 	calla	#49802		;0x0c28a
    c2c4:	2a 01 44 08 	mova	&67652,	r10	;0x10844
    c2c8:	5e 4a 81 00 	mov.b	129(r10),r14	;0x00081
    c2cc:	47 18 0e 5e 	rpt #8 { rlax.w	r14		;
    c2d0:	5a 4a 80 00 	mov.b	128(r10),r10	;0x00080
    c2d4:	0e da       	bis	r10,	r14	;
    c2d6:	40 18 0e 4e 	movx.w	r14,	r14	;
    c2da:	de 0c       	cmpa	r12,	r14	;
    c2dc:	08 2c       	jc	$+18     	;abs 0xc2ee
    c2de:	03 43       	nop			
    c2e0:	03 43       	nop			
    c2e2:	32 d2       	eint			
    c2e4:	03 43       	nop			
    c2e6:	7c 40 a1 ff 	mov.b	#65441,	r12	;#0xffa1
    c2ea:	80 00 b0 c2 	mova	#49840,	r0	;0x0c2b0

0000c2ee <.L97>:
    c2ee:	03 43       	nop			
    c2f0:	03 43       	nop			
    c2f2:	32 d2       	eint			
    c2f4:	03 43       	nop			
    c2f6:	5c 43       	mov.b	#1,	r12	;r3 As==01
    c2f8:	80 00 b6 c2 	mova	#49846,	r0	;0x0c2b6

0000c2fc <nl_route>:
    c2fc:	0a 14       	pushm.a	#1,	r10	;20-bit words
    c2fe:	08 14       	pushm.a	#1,	r8	;20-bit words
    c300:	06 14       	pushm.a	#1,	r6	;20-bit words
    c302:	04 14       	pushm.a	#1,	r4	;20-bit words
    c304:	ca 0c       	mova	r12,	r10	;
    c306:	c4 0d       	mova	r13,	r4	;
    c308:	c6 0e       	mova	r14,	r6	;
    c30a:	c8 0f       	mova	r15,	r8	;
    c30c:	b0 13 a2 c2 	calla	#49826		;0x0c2a2
    c310:	4c 93       	cmp.b	#0,	r12	;r3 As==00
    c312:	08 20       	jnz	$+18     	;abs 0xc324

0000c314 <.L108>:
    c314:	cc 0a       	mova	r10,	r12	;
    c316:	b0 13 da c0 	calla	#49370		;0x0c0da

0000c31a <.L99>:
    c31a:	04 16       	popm.a	#1,	r4	;20-bit words
    c31c:	06 16       	popm.a	#1,	r6	;20-bit words
    c31e:	08 16       	popm.a	#1,	r8	;20-bit words
    c320:	0a 16       	popm.a	#1,	r10	;20-bit words
    c322:	10 01       	reta			;

0000c324 <.L100>:
    c324:	6e 4a       	mov.b	@r10,	r14	;
    c326:	0d 4e       	mov	r14,	r13	;
    c328:	47 18 0d 5d 	rpt #8 { rlax.w	r13		;
    c32c:	3d f0 00 07 	and	#1792,	r13	;#0x0700
    c330:	5c 4a 01 00 	mov.b	1(r10),	r12	;
    c334:	0d dc       	bis	r12,	r13	;
    c336:	2c 01 44 08 	mova	&67652,	r12	;0x10844
    c33a:	5f 4c 51 00 	mov.b	81(r12),r15	;0x00051
    c33e:	47 18 0f 5f 	rpt #8 { rlax.w	r15		;
    c342:	5c 4c 50 00 	mov.b	80(r12),r12	;0x00050
    c346:	0f dc       	bis	r12,	r15	;
    c348:	0d 9f       	cmp	r15,	r13	;
    c34a:	17 20       	jnz	$+48     	;abs 0xc37a
    c34c:	40 18 3e b0 	bitx.w	#16,	r14	;0x00010
    c350:	10 00 
    c352:	0b 24       	jz	$+24     	;abs 0xc36a
    c354:	cc 0a       	mova	r10,	r12	;
    c356:	46 13       	calla	r6		;

0000c358 <.L106>:
    c358:	9c 00 00 00 	cmpa	#0,	r12	;
    c35c:	de 27       	jz	$-66     	;abs 0xc31a
    c35e:	8c 01 d2 09 	mova	#68050,	r12	;0x109d2
    c362:	b0 13 42 46 	calla	#17986		;0x04642
    c366:	80 00 14 c3 	mova	#49940,	r0	;0x0c314

0000c36a <.L103>:
    c36a:	7e d0 10 00 	bis.b	#16,	r14	;#0x0010
    c36e:	ca 4e 00 00 	mov.b	r14,	0(r10)	;
    c372:	cc 0a       	mova	r10,	r12	;
    c374:	48 13       	calla	r8		;
    c376:	80 00 58 c3 	mova	#50008,	r0	;0x0c358

0000c37a <.L102>:
    c37a:	cc 0a       	mova	r10,	r12	;
    c37c:	44 13       	calla	r4		;
    c37e:	80 00 58 c3 	mova	#50008,	r0	;0x0c358

0000c382 <elyNLRouteUART>:
    c382:	8f 00 a8 bf 	mova	#49064,	r15	;0x0bfa8
    c386:	8e 00 b0 bf 	mova	#49072,	r14	;0x0bfb0
    c38a:	8d 00 b8 bf 	mova	#49080,	r13	;0x0bfb8
    c38e:	b0 13 fc c2 	calla	#49916		;0x0c2fc
    c392:	10 01       	reta			;

0000c394 <elyNLRouteRF>:
    c394:	8f 00 b8 bf 	mova	#49080,	r15	;0x0bfb8
    c398:	8e 00 b0 bf 	mova	#49072,	r14	;0x0bfb0
    c39c:	8d 00 a8 bf 	mova	#49064,	r13	;0x0bfa8
    c3a0:	b0 13 fc c2 	calla	#49916		;0x0c2fc
    c3a4:	10 01       	reta			;

0000c3a6 <elyNLToFW>:
    c3a6:	2e 00 3e f2 	mova	&62014,	r14	;0x0f23e
    c3aa:	ae 00 06 00 	adda	#6,	r14	;
    c3ae:	ec 0e       	adda	r14,	r12	;
    c3b0:	10 01       	reta			;

0000c3b2 <elyNLFromFW>:
    c3b2:	8e 0f fa ff 	mova	#-6,	r14	;0xfffffffa
    c3b6:	00 18 5e 82 	subx.a	&0x0f23e,r14	;
    c3ba:	3e f2 
    c3bc:	ec 0e       	adda	r14,	r12	;
    c3be:	10 01       	reta			;

0000c3c0 <main>:
    c3c0:	40 18 b2 40 	movx.w	#23168,	&0x0015c;0x05a80
    c3c4:	80 5a 5c 01 
    c3c8:	b0 13 6c 4d 	calla	#19820		;0x04d6c
    c3cc:	b0 13 94 c1 	calla	#49556		;0x0c194
    c3d0:	b0 13 88 b3 	calla	#45960		;0x0b388
    c3d4:	b0 13 32 45 	calla	#17714		;0x04532

0000c3d8 <.L3>:
    c3d8:	80 00 d8 c3 	mova	#50136,	r0	;0x0c3d8

0000c3dc <udivmodsi4>:
    c3dc:	5a 14       	pushm.a	#6,	r10	;20-bit words

0000c3de <.LCFI0>:
    c3de:	0a 4c       	mov	r12,	r10	;
    c3e0:	0b 4d       	mov	r13,	r11	;

0000c3e2 <.LVL1>:
    c3e2:	7d 40 21 00 	mov.b	#33,	r13	;#0x0021

0000c3e6 <.Loc.35.1>:
    c3e6:	58 43       	mov.b	#1,	r8	;r3 As==01
    c3e8:	49 43       	clr.b	r9		;

0000c3ea <.Loc.38.1>:
    c3ea:	07 4b       	mov	r11,	r7	;

0000c3ec <.L2>:
    c3ec:	0f 9b       	cmp	r11,	r15	;
    c3ee:	11 28       	jnc	$+36     	;abs 0xc412
    c3f0:	07 9f       	cmp	r15,	r7	;
    c3f2:	02 20       	jnz	$+6      	;abs 0xc3f8
    c3f4:	0e 9a       	cmp	r10,	r14	;
    c3f6:	0d 28       	jnc	$+28     	;abs 0xc412

0000c3f8 <.L20>:
    c3f8:	4c 43       	clr.b	r12		;

0000c3fa <.LVL3>:
    c3fa:	0d 4c       	mov	r12,	r13	;

0000c3fc <.L5>:
    c3fc:	07 48       	mov	r8,	r7	;
    c3fe:	07 d9       	bis	r9,	r7	;
    c400:	07 93       	cmp	#0,	r7	;r3 As==00
    c402:	1a 20       	jnz	$+54     	;abs 0xc438

0000c404 <.L6>:
    c404:	81 93 1c 00 	cmp	#0,	28(r1)	;r3 As==00, 0x001c
    c408:	02 24       	jz	$+6      	;abs 0xc40e
    c40a:	0c 4a       	mov	r10,	r12	;
    c40c:	0d 4b       	mov	r11,	r13	;

0000c40e <.L1>:
    c40e:	55 16       	popm.a	#6,	r10	;20-bit words
    c410:	10 01       	reta			;

0000c412 <.L3>:
    c412:	3d 53       	add	#-1,	r13	;r3 As==11

0000c414 <.Loc.38.1>:
    c414:	0d 93       	cmp	#0,	r13	;r3 As==00
    c416:	24 24       	jz	$+74     	;abs 0xc460

0000c418 <.Loc.38.1>:
    c418:	0f 93       	cmp	#0,	r15	;r3 As==00
    c41a:	ee 3b       	jl	$-34     	;abs 0xc3f8

0000c41c <.Loc.40.1>:
    c41c:	05 4e       	mov	r14,	r5	;
    c41e:	06 4f       	mov	r15,	r6	;
    c420:	05 5e       	add	r14,	r5	;
    c422:	06 6f       	addc	r15,	r6	;
    c424:	0e 45       	mov	r5,	r14	;

0000c426 <.LVL7>:
    c426:	0f 46       	mov	r6,	r15	;

0000c428 <.LVL8>:
    c428:	05 48       	mov	r8,	r5	;
    c42a:	06 49       	mov	r9,	r6	;
    c42c:	05 58       	add	r8,	r5	;
    c42e:	06 69       	addc	r9,	r6	;
    c430:	08 45       	mov	r5,	r8	;

0000c432 <.LVL9>:
    c432:	09 46       	mov	r6,	r9	;

0000c434 <.LVL10>:
    c434:	80 00 ec c3 	mova	#50156,	r0	;0x0c3ec

0000c438 <.L12>:
    c438:	0b 9f       	cmp	r15,	r11	;
    c43a:	0a 28       	jnc	$+22     	;abs 0xc450
    c43c:	0f 9b       	cmp	r11,	r15	;
    c43e:	02 20       	jnz	$+6      	;abs 0xc444
    c440:	0a 9e       	cmp	r14,	r10	;
    c442:	06 28       	jnc	$+14     	;abs 0xc450

0000c444 <.L16>:
    c444:	40 18 0a 8e 	subx.w	r14,	r10	;
    c448:	40 18 0b 7f 	subcx.w	r15,	r11	;

0000c44c <.Loc.48.1>:
    c44c:	0c d8       	bis	r8,	r12	;

0000c44e <.LVL13>:
    c44e:	0d d9       	bis	r9,	r13	;

0000c450 <.L10>:
    c450:	12 c3       	clrc			
    c452:	09 10       	rrc	r9		;
    c454:	08 10       	rrc	r8		;

0000c456 <.Loc.51.1>:
    c456:	12 c3       	clrc			
    c458:	0f 10       	rrc	r15		;
    c45a:	0e 10       	rrc	r14		;
    c45c:	80 00 fc c3 	mova	#50172,	r0	;0x0c3fc

0000c460 <.L14>:
    c460:	0c 4d       	mov	r13,	r12	;

0000c462 <.LVL18>:
    c462:	80 00 04 c4 	mova	#50180,	r0	;0x0c404

0000c466 <__mspabi_divlu>:
    c466:	b1 00 02 00 	suba	#2,	r1	;

0000c46a <.LCFI5>:
    c46a:	81 43 00 00 	mov	#0,	0(r1)	;r3 As==00
    c46e:	b0 13 dc c3 	calla	#50140		;0x0c3dc

0000c472 <.LVL46>:
    c472:	a1 00 02 00 	adda	#2,	r1	;
    c476:	10 01       	reta			;

0000c478 <__mspabi_slli_15>:
    c478:	0c 5c       	rla	r12		;

0000c47a <__mspabi_slli_14>:
    c47a:	0c 5c       	rla	r12		;

0000c47c <__mspabi_slli_13>:
    c47c:	0c 5c       	rla	r12		;

0000c47e <__mspabi_slli_12>:
    c47e:	0c 5c       	rla	r12		;

0000c480 <__mspabi_slli_11>:
    c480:	0c 5c       	rla	r12		;

0000c482 <__mspabi_slli_10>:
    c482:	0c 5c       	rla	r12		;

0000c484 <__mspabi_slli_9>:
    c484:	0c 5c       	rla	r12		;

0000c486 <__mspabi_slli_8>:
    c486:	0c 5c       	rla	r12		;

0000c488 <__mspabi_slli_7>:
    c488:	0c 5c       	rla	r12		;

0000c48a <__mspabi_slli_6>:
    c48a:	0c 5c       	rla	r12		;

0000c48c <__mspabi_slli_5>:
    c48c:	0c 5c       	rla	r12		;

0000c48e <__mspabi_slli_4>:
    c48e:	0c 5c       	rla	r12		;

0000c490 <__mspabi_slli_3>:
    c490:	0c 5c       	rla	r12		;

0000c492 <__mspabi_slli_2>:
    c492:	0c 5c       	rla	r12		;

0000c494 <__mspabi_slli_1>:
    c494:	0c 5c       	rla	r12		;
    c496:	10 01       	reta			;

0000c498 <.L11>:
    c498:	3d 53       	add	#-1,	r13	;r3 As==11
    c49a:	0c 5c       	rla	r12		;

0000c49c <__mspabi_slli>:
    c49c:	0d 93       	cmp	#0,	r13	;r3 As==00
    c49e:	fc 23       	jnz	$-6      	;abs 0xc498
    c4a0:	10 01       	reta			;

0000c4a2 <__mspabi_slll_15>:
    c4a2:	0c 5c       	rla	r12		;
    c4a4:	0d 6d       	rlc	r13		;

0000c4a6 <__mspabi_slll_14>:
    c4a6:	0c 5c       	rla	r12		;
    c4a8:	0d 6d       	rlc	r13		;

0000c4aa <__mspabi_slll_13>:
    c4aa:	0c 5c       	rla	r12		;
    c4ac:	0d 6d       	rlc	r13		;

0000c4ae <__mspabi_slll_12>:
    c4ae:	0c 5c       	rla	r12		;
    c4b0:	0d 6d       	rlc	r13		;

0000c4b2 <__mspabi_slll_11>:
    c4b2:	0c 5c       	rla	r12		;
    c4b4:	0d 6d       	rlc	r13		;

0000c4b6 <__mspabi_slll_10>:
    c4b6:	0c 5c       	rla	r12		;
    c4b8:	0d 6d       	rlc	r13		;

0000c4ba <__mspabi_slll_9>:
    c4ba:	0c 5c       	rla	r12		;
    c4bc:	0d 6d       	rlc	r13		;

0000c4be <__mspabi_slll_8>:
    c4be:	0c 5c       	rla	r12		;
    c4c0:	0d 6d       	rlc	r13		;

0000c4c2 <__mspabi_slll_7>:
    c4c2:	0c 5c       	rla	r12		;
    c4c4:	0d 6d       	rlc	r13		;

0000c4c6 <__mspabi_slll_6>:
    c4c6:	0c 5c       	rla	r12		;
    c4c8:	0d 6d       	rlc	r13		;

0000c4ca <__mspabi_slll_5>:
    c4ca:	0c 5c       	rla	r12		;
    c4cc:	0d 6d       	rlc	r13		;

0000c4ce <__mspabi_slll_4>:
    c4ce:	0c 5c       	rla	r12		;
    c4d0:	0d 6d       	rlc	r13		;

0000c4d2 <__mspabi_slll_3>:
    c4d2:	0c 5c       	rla	r12		;
    c4d4:	0d 6d       	rlc	r13		;

0000c4d6 <__mspabi_slll_2>:
    c4d6:	0c 5c       	rla	r12		;
    c4d8:	0d 6d       	rlc	r13		;

0000c4da <__mspabi_slll_1>:
    c4da:	0c 5c       	rla	r12		;
    c4dc:	0d 6d       	rlc	r13		;
    c4de:	10 01       	reta			;

0000c4e0 <.L12>:
    c4e0:	3e 53       	add	#-1,	r14	;r3 As==11
    c4e2:	0c 5c       	rla	r12		;
    c4e4:	0d 6d       	rlc	r13		;

0000c4e6 <__mspabi_slll>:
    c4e6:	0e 93       	cmp	#0,	r14	;r3 As==00
    c4e8:	fb 23       	jnz	$-8      	;abs 0xc4e0
    c4ea:	10 01       	reta			;

0000c4ec <__mspabi_srai_15>:
    c4ec:	0c 11       	rra	r12		;

0000c4ee <__mspabi_srai_14>:
    c4ee:	0c 11       	rra	r12		;

0000c4f0 <__mspabi_srai_13>:
    c4f0:	0c 11       	rra	r12		;

0000c4f2 <__mspabi_srai_12>:
    c4f2:	0c 11       	rra	r12		;

0000c4f4 <__mspabi_srai_11>:
    c4f4:	0c 11       	rra	r12		;

0000c4f6 <__mspabi_srai_10>:
    c4f6:	0c 11       	rra	r12		;

0000c4f8 <__mspabi_srai_9>:
    c4f8:	0c 11       	rra	r12		;

0000c4fa <__mspabi_srai_8>:
    c4fa:	0c 11       	rra	r12		;

0000c4fc <__mspabi_srai_7>:
    c4fc:	0c 11       	rra	r12		;

0000c4fe <__mspabi_srai_6>:
    c4fe:	0c 11       	rra	r12		;

0000c500 <__mspabi_srai_5>:
    c500:	0c 11       	rra	r12		;

0000c502 <__mspabi_srai_4>:
    c502:	0c 11       	rra	r12		;

0000c504 <__mspabi_srai_3>:
    c504:	0c 11       	rra	r12		;

0000c506 <__mspabi_srai_2>:
    c506:	0c 11       	rra	r12		;

0000c508 <__mspabi_srai_1>:
    c508:	0c 11       	rra	r12		;
    c50a:	10 01       	reta			;

0000c50c <.L11>:
    c50c:	3d 53       	add	#-1,	r13	;r3 As==11
    c50e:	0c 11       	rra	r12		;

0000c510 <__mspabi_srai>:
    c510:	0d 93       	cmp	#0,	r13	;r3 As==00
    c512:	fc 23       	jnz	$-6      	;abs 0xc50c
    c514:	10 01       	reta			;

0000c516 <__mspabi_sral_15>:
    c516:	0d 11       	rra	r13		;
    c518:	0c 10       	rrc	r12		;

0000c51a <__mspabi_sral_14>:
    c51a:	0d 11       	rra	r13		;
    c51c:	0c 10       	rrc	r12		;

0000c51e <__mspabi_sral_13>:
    c51e:	0d 11       	rra	r13		;
    c520:	0c 10       	rrc	r12		;

0000c522 <__mspabi_sral_12>:
    c522:	0d 11       	rra	r13		;
    c524:	0c 10       	rrc	r12		;

0000c526 <__mspabi_sral_11>:
    c526:	0d 11       	rra	r13		;
    c528:	0c 10       	rrc	r12		;

0000c52a <__mspabi_sral_10>:
    c52a:	0d 11       	rra	r13		;
    c52c:	0c 10       	rrc	r12		;

0000c52e <__mspabi_sral_9>:
    c52e:	0d 11       	rra	r13		;
    c530:	0c 10       	rrc	r12		;

0000c532 <__mspabi_sral_8>:
    c532:	0d 11       	rra	r13		;
    c534:	0c 10       	rrc	r12		;

0000c536 <__mspabi_sral_7>:
    c536:	0d 11       	rra	r13		;
    c538:	0c 10       	rrc	r12		;

0000c53a <__mspabi_sral_6>:
    c53a:	0d 11       	rra	r13		;
    c53c:	0c 10       	rrc	r12		;

0000c53e <__mspabi_sral_5>:
    c53e:	0d 11       	rra	r13		;
    c540:	0c 10       	rrc	r12		;

0000c542 <__mspabi_sral_4>:
    c542:	0d 11       	rra	r13		;
    c544:	0c 10       	rrc	r12		;

0000c546 <__mspabi_sral_3>:
    c546:	0d 11       	rra	r13		;
    c548:	0c 10       	rrc	r12		;

0000c54a <__mspabi_sral_2>:
    c54a:	0d 11       	rra	r13		;
    c54c:	0c 10       	rrc	r12		;

0000c54e <__mspabi_sral_1>:
    c54e:	0d 11       	rra	r13		;
    c550:	0c 10       	rrc	r12		;
    c552:	10 01       	reta			;

0000c554 <.L12>:
    c554:	3e 53       	add	#-1,	r14	;r3 As==11
    c556:	0d 11       	rra	r13		;
    c558:	0c 10       	rrc	r12		;

0000c55a <__mspabi_sral>:
    c55a:	0e 93       	cmp	#0,	r14	;r3 As==00
    c55c:	fb 23       	jnz	$-8      	;abs 0xc554
    c55e:	10 01       	reta			;

0000c560 <__mspabi_srli_15>:
    c560:	12 c3       	clrc			
    c562:	0c 10       	rrc	r12		;

0000c564 <__mspabi_srli_14>:
    c564:	12 c3       	clrc			
    c566:	0c 10       	rrc	r12		;

0000c568 <__mspabi_srli_13>:
    c568:	12 c3       	clrc			
    c56a:	0c 10       	rrc	r12		;

0000c56c <__mspabi_srli_12>:
    c56c:	12 c3       	clrc			
    c56e:	0c 10       	rrc	r12		;

0000c570 <__mspabi_srli_11>:
    c570:	12 c3       	clrc			
    c572:	0c 10       	rrc	r12		;

0000c574 <__mspabi_srli_10>:
    c574:	12 c3       	clrc			
    c576:	0c 10       	rrc	r12		;

0000c578 <__mspabi_srli_9>:
    c578:	12 c3       	clrc			
    c57a:	0c 10       	rrc	r12		;

0000c57c <__mspabi_srli_8>:
    c57c:	12 c3       	clrc			
    c57e:	0c 10       	rrc	r12		;

0000c580 <__mspabi_srli_7>:
    c580:	12 c3       	clrc			
    c582:	0c 10       	rrc	r12		;

0000c584 <__mspabi_srli_6>:
    c584:	12 c3       	clrc			
    c586:	0c 10       	rrc	r12		;

0000c588 <__mspabi_srli_5>:
    c588:	12 c3       	clrc			
    c58a:	0c 10       	rrc	r12		;

0000c58c <__mspabi_srli_4>:
    c58c:	12 c3       	clrc			
    c58e:	0c 10       	rrc	r12		;

0000c590 <__mspabi_srli_3>:
    c590:	12 c3       	clrc			
    c592:	0c 10       	rrc	r12		;

0000c594 <__mspabi_srli_2>:
    c594:	12 c3       	clrc			
    c596:	0c 10       	rrc	r12		;

0000c598 <__mspabi_srli_1>:
    c598:	12 c3       	clrc			
    c59a:	0c 10       	rrc	r12		;
    c59c:	10 01       	reta			;

0000c59e <.L11>:
    c59e:	3d 53       	add	#-1,	r13	;r3 As==11
    c5a0:	12 c3       	clrc			
    c5a2:	0c 10       	rrc	r12		;

0000c5a4 <__mspabi_srli>:
    c5a4:	0d 93       	cmp	#0,	r13	;r3 As==00
    c5a6:	fb 23       	jnz	$-8      	;abs 0xc59e
    c5a8:	10 01       	reta			;

0000c5aa <__mspabi_srll_15>:
    c5aa:	12 c3       	clrc			
    c5ac:	0d 10       	rrc	r13		;
    c5ae:	0c 10       	rrc	r12		;

0000c5b0 <__mspabi_srll_14>:
    c5b0:	12 c3       	clrc			
    c5b2:	0d 10       	rrc	r13		;
    c5b4:	0c 10       	rrc	r12		;

0000c5b6 <__mspabi_srll_13>:
    c5b6:	12 c3       	clrc			
    c5b8:	0d 10       	rrc	r13		;
    c5ba:	0c 10       	rrc	r12		;

0000c5bc <__mspabi_srll_12>:
    c5bc:	12 c3       	clrc			
    c5be:	0d 10       	rrc	r13		;
    c5c0:	0c 10       	rrc	r12		;

0000c5c2 <__mspabi_srll_11>:
    c5c2:	12 c3       	clrc			
    c5c4:	0d 10       	rrc	r13		;
    c5c6:	0c 10       	rrc	r12		;

0000c5c8 <__mspabi_srll_10>:
    c5c8:	12 c3       	clrc			
    c5ca:	0d 10       	rrc	r13		;
    c5cc:	0c 10       	rrc	r12		;

0000c5ce <__mspabi_srll_9>:
    c5ce:	12 c3       	clrc			
    c5d0:	0d 10       	rrc	r13		;
    c5d2:	0c 10       	rrc	r12		;

0000c5d4 <__mspabi_srll_8>:
    c5d4:	12 c3       	clrc			
    c5d6:	0d 10       	rrc	r13		;
    c5d8:	0c 10       	rrc	r12		;

0000c5da <__mspabi_srll_7>:
    c5da:	12 c3       	clrc			
    c5dc:	0d 10       	rrc	r13		;
    c5de:	0c 10       	rrc	r12		;

0000c5e0 <__mspabi_srll_6>:
    c5e0:	12 c3       	clrc			
    c5e2:	0d 10       	rrc	r13		;
    c5e4:	0c 10       	rrc	r12		;

0000c5e6 <__mspabi_srll_5>:
    c5e6:	12 c3       	clrc			
    c5e8:	0d 10       	rrc	r13		;
    c5ea:	0c 10       	rrc	r12		;

0000c5ec <__mspabi_srll_4>:
    c5ec:	12 c3       	clrc			
    c5ee:	0d 10       	rrc	r13		;
    c5f0:	0c 10       	rrc	r12		;

0000c5f2 <__mspabi_srll_3>:
    c5f2:	12 c3       	clrc			
    c5f4:	0d 10       	rrc	r13		;
    c5f6:	0c 10       	rrc	r12		;

0000c5f8 <__mspabi_srll_2>:
    c5f8:	12 c3       	clrc			
    c5fa:	0d 10       	rrc	r13		;
    c5fc:	0c 10       	rrc	r12		;

0000c5fe <__mspabi_srll_1>:
    c5fe:	12 c3       	clrc			
    c600:	0d 10       	rrc	r13		;
    c602:	0c 10       	rrc	r12		;
    c604:	10 01       	reta			;

0000c606 <.L12>:
    c606:	3e 53       	add	#-1,	r14	;r3 As==11
    c608:	12 c3       	clrc			
    c60a:	0d 10       	rrc	r13		;
    c60c:	0c 10       	rrc	r12		;

0000c60e <__mspabi_srll>:
    c60e:	0e 93       	cmp	#0,	r14	;r3 As==00
    c610:	fa 23       	jnz	$-10     	;abs 0xc606
    c612:	10 01       	reta			;

0000c614 <__cmpsi2>:
    c614:	0f 9d       	cmp	r13,	r15	;
    c616:	05 24       	jz	$+12     	;abs 0xc622
    c618:	02 34       	jge	$+6      	;abs 0xc61e

0000c61a <.L_greater_than>:
    c61a:	2c 43       	mov	#2,	r12	;r3 As==10
    c61c:	10 01       	reta			;

0000c61e <.L_less_than>:
    c61e:	0c 43       	clr	r12		;
    c620:	10 01       	reta			;

0000c622 <.L_compare_low>:
    c622:	0e 9c       	cmp	r12,	r14	;
    c624:	fa 3b       	jl	$-10     	;abs 0xc61a
    c626:	fb 23       	jnz	$-8      	;abs 0xc61e
    c628:	1c 43       	mov	#1,	r12	;r3 As==01
    c62a:	10 01       	reta			;

0000c62c <__ucmpsi2>:
    c62c:	0d 93       	cmp	#0,	r13	;r3 As==00
    c62e:	03 30       	jn	$+8      	;abs 0xc636
    c630:	0f 93       	cmp	#0,	r15	;r3 As==00
    c632:	f5 33       	jn	$-20     	;abs 0xc61e
    c634:	ef 2f       	jc	$-32     	;abs 0xc614

0000c636 <.L_top_bit_set_in_A>:
    c636:	0f 93       	cmp	#0,	r15	;r3 As==00
    c638:	ed 33       	jn	$-36     	;abs 0xc614
    c63a:	ef 2f       	jc	$-32     	;abs 0xc61a

0000c63c <__mspabi_mpyl>:
    c63c:	02 12       	push	r2		;
    c63e:	32 c2       	dint			
    c640:	03 43       	nop			
    c642:	82 4c d0 04 	mov	r12,	&0x04d0	;
    c646:	82 4d d2 04 	mov	r13,	&0x04d2	;
    c64a:	82 4e e0 04 	mov	r14,	&0x04e0	;
    c64e:	82 4f e2 04 	mov	r15,	&0x04e2	;
    c652:	1c 42 e4 04 	mov	&0x04e4,r12	;0x04e4
    c656:	1d 42 e6 04 	mov	&0x04e6,r13	;0x04e6
    c65a:	32 41       	pop	r2		;
    c65c:	10 01       	reta			;

0000c65e <memcpy>:
    c65e:	0a 14       	pushm.a	#1,	r10	;20-bit words

0000c660 <.LCFI0>:
    c660:	ca 0c       	mova	r12,	r10	;
    c662:	ee 0c       	adda	r12,	r14	;

0000c664 <.L2>:
    c664:	da 0e       	cmpa	r14,	r10	;
    c666:	02 20       	jnz	$+6      	;abs 0xc66c

0000c668 <.Loc.111.1>:
    c668:	0a 16       	popm.a	#1,	r10	;20-bit words
    c66a:	10 01       	reta			;

0000c66c <.L3>:
    c66c:	ea 4d 00 00 	mov.b	@r13,	0(r10)	;
    c670:	aa 00 01 00 	adda	#1,	r10	;

0000c674 <.LVL4>:
    c674:	ad 00 01 00 	adda	#1,	r13	;
    c678:	80 00 64 c6 	mova	#50788,	r0	;0x0c664

0000c67c <memset>:
    c67c:	0a 14       	pushm.a	#1,	r10	;20-bit words

0000c67e <.LCFI0>:
    c67e:	ca 0c       	mova	r12,	r10	;
    c680:	ee 0c       	adda	r12,	r14	;

0000c682 <.L2>:
    c682:	da 0e       	cmpa	r14,	r10	;
    c684:	02 20       	jnz	$+6      	;abs 0xc68a

0000c686 <.Loc.104.1>:
    c686:	0a 16       	popm.a	#1,	r10	;20-bit words
    c688:	10 01       	reta			;

0000c68a <.L3>:
    c68a:	ca 4d 00 00 	mov.b	r13,	0(r10)	;
    c68e:	aa 00 01 00 	adda	#1,	r10	;

0000c692 <.LVL4>:
    c692:	80 00 82 c6 	mova	#50818,	r0	;0x0c682

0000c696 <memmove>:
    c696:	0a 14       	pushm.a	#1,	r10	;20-bit words

0000c698 <.LCFI0>:
    c698:	08 14       	pushm.a	#1,	r8	;20-bit words

0000c69a <.LCFI1>:
    c69a:	06 14       	pushm.a	#1,	r6	;20-bit words

0000c69c <.LCFI2>:
    c69c:	c8 0c       	mova	r12,	r8	;
    c69e:	e8 0e       	adda	r14,	r8	;

0000c6a0 <.Loc.69.1>:
    c6a0:	dd 0c       	cmpa	r12,	r13	;
    c6a2:	0c 28       	jnc	$+26     	;abs 0xc6bc

0000c6a4 <.L4>:
    c6a4:	ce 0c       	mova	r12,	r14	;

0000c6a6 <.LVL2>:
    c6a6:	ca 0d       	mova	r13,	r10	;

0000c6a8 <.L3>:
    c6a8:	d8 0e       	cmpa	r14,	r8	;
    c6aa:	12 24       	jz	$+38     	;abs 0xc6d0

0000c6ac <.LVL4>:
    c6ac:	ee 4a 00 00 	mov.b	@r10,	0(r14)	;
    c6b0:	ae 00 01 00 	adda	#1,	r14	;

0000c6b4 <.LVL5>:
    c6b4:	aa 00 01 00 	adda	#1,	r10	;
    c6b8:	80 00 a8 c6 	mova	#50856,	r0	;0x0c6a8

0000c6bc <.L2>:
    c6bc:	ca 0d       	mova	r13,	r10	;
    c6be:	ea 0e       	adda	r14,	r10	;
    c6c0:	dc 0a       	cmpa	r10,	r12	;
    c6c2:	f0 2f       	jc	$-30     	;abs 0xc6a4

0000c6c4 <.LVL7>:
    c6c4:	fe 0a       	suba	r10,	r14	;

0000c6c6 <.L5>:
    c6c6:	c6 0a       	mova	r10,	r6	;
    c6c8:	e6 0e       	adda	r14,	r6	;

0000c6ca <.Loc.74.1>:
    c6ca:	96 00 00 00 	cmpa	#0,	r6	;
    c6ce:	04 20       	jnz	$+10     	;abs 0xc6d8

0000c6d0 <.L9>:
    c6d0:	06 16       	popm.a	#1,	r6	;20-bit words
    c6d2:	08 16       	popm.a	#1,	r8	;20-bit words
    c6d4:	0a 16       	popm.a	#1,	r10	;20-bit words
    c6d6:	10 01       	reta			;

0000c6d8 <.L6>:
    c6d8:	a8 0f ff ff 	adda	#1048575,r8	;0xfffff
    c6dc:	aa 0f ff ff 	adda	#1048575,r10	;0xfffff

0000c6e0 <.LVL12>:
    c6e0:	e8 4a 00 00 	mov.b	@r10,	0(r8)	;
    c6e4:	80 00 c6 c6 	mova	#50886,	r0	;0x0c6c6

Disassembly of section .lower.lowtext:

0000f242 <ISR_MSP430X_ST_ISR>:
    f242:	bf 14       	pushm.a	#12,	r15	;20-bit words
    f244:	41 18 d2 43 	movx.b	#1,	&0x11ac2;r3 As==01
    f248:	c2 1a 
    f24a:	b0 13 52 46 	calla	#18002		;0x04652
    f24e:	41 18 c2 43 	movx.b	#0,	&0x11ac2;r3 As==00
    f252:	c2 1a 
    f254:	b0 13 a4 47 	calla	#18340		;0x047a4
    f258:	4c 93       	cmp.b	#0,	r12	;r3 As==00
    f25a:	02 24       	jz	$+6      	;abs 0xf260
    f25c:	b0 13 b4 47 	calla	#18356		;0x047b4

0000f260 <.L1>:
    f260:	b4 16       	popm.a	#12,	r15	;20-bit words
    f262:	00 13       	reti			

0000f264 <ISR_PORT1_VECTOR>:
    f264:	bf 14       	pushm.a	#12,	r15	;20-bit words
    f266:	b1 00 04 00 	suba	#4,	r1	;
    f26a:	41 18 d2 43 	movx.b	#1,	&0x11ac2;r3 As==01
    f26e:	c2 1a 
    f270:	40 18 1c 42 	movx.w	&0x0020e,r12	;
    f274:	0e 02 
    f276:	12 c3       	clrc			
    f278:	0c 10       	rrc	r12		;
    f27a:	7c 53       	add.b	#-1,	r12	;r3 As==11
    f27c:	3c f0 ff 00 	and	#255,	r12	;#0x00ff
    f280:	0d 43       	clr	r13		;
    f282:	0e 4c       	mov	r12,	r14	;
    f284:	0f 4d       	mov	r13,	r15	;
    f286:	0e 5e       	rla	r14		;
    f288:	0f 6f       	rlc	r15		;
    f28a:	0e 5e       	rla	r14		;
    f28c:	0f 6f       	rlc	r15		;
    f28e:	81 4e 00 00 	mov	r14,	0(r1)	;
    f292:	81 4f 02 00 	mov	r15,	2(r1)	;
    f296:	0d 01       	mova	@r1,	r13	;
    f298:	80 18 5c 4d 	movx.a	72388(r13),r12	;0x11ac4
    f29c:	c4 1a 
    f29e:	9c 00 00 00 	cmpa	#0,	r12	;
    f2a2:	01 24       	jz	$+4      	;abs 0xf2a6
    f2a4:	4c 13       	calla	r12		;

0000f2a6 <.L2>:
    f2a6:	41 18 c2 43 	movx.b	#0,	&0x11ac2;r3 As==00
    f2aa:	c2 1a 
    f2ac:	b0 13 a4 47 	calla	#18340		;0x047a4
    f2b0:	4c 93       	cmp.b	#0,	r12	;r3 As==00
    f2b2:	02 24       	jz	$+6      	;abs 0xf2b8
    f2b4:	b0 13 b4 47 	calla	#18356		;0x047b4

0000f2b8 <.L1>:
    f2b8:	a1 00 04 00 	adda	#4,	r1	;
    f2bc:	b4 16       	popm.a	#12,	r15	;20-bit words
    f2be:	00 13       	reti			

0000f2c0 <ISR_PORT2_VECTOR>:
    f2c0:	bf 14       	pushm.a	#12,	r15	;20-bit words
    f2c2:	b1 00 04 00 	suba	#4,	r1	;
    f2c6:	41 18 d2 43 	movx.b	#1,	&0x11ac2;r3 As==01
    f2ca:	c2 1a 
    f2cc:	40 18 1c 42 	movx.w	&0x0021e,r12	;
    f2d0:	1e 02 
    f2d2:	12 c3       	clrc			
    f2d4:	0c 10       	rrc	r12		;
    f2d6:	7c 53       	add.b	#-1,	r12	;r3 As==11
    f2d8:	3c f0 ff 00 	and	#255,	r12	;#0x00ff
    f2dc:	4c 0e       	rlam.a	#4,	r12	;
    f2de:	4c 0d       	rram.a	#4,	r12	;
    f2e0:	ac 00 08 00 	adda	#8,	r12	;
    f2e4:	0c 14       	pushm.a	#1,	r12	;20-bit words
    f2e6:	40 18 3c 41 	popx.w	r12		;
    f2ea:	40 18 3d 41 	popx.w	r13		;
    f2ee:	0e 4c       	mov	r12,	r14	;
    f2f0:	0f 4d       	mov	r13,	r15	;
    f2f2:	0e 5e       	rla	r14		;
    f2f4:	0f 6f       	rlc	r15		;
    f2f6:	0e 5e       	rla	r14		;
    f2f8:	0f 6f       	rlc	r15		;
    f2fa:	81 4e 00 00 	mov	r14,	0(r1)	;
    f2fe:	81 4f 02 00 	mov	r15,	2(r1)	;
    f302:	0d 01       	mova	@r1,	r13	;
    f304:	80 18 5c 4d 	movx.a	72388(r13),r12	;0x11ac4
    f308:	c4 1a 
    f30a:	9c 00 00 00 	cmpa	#0,	r12	;
    f30e:	01 24       	jz	$+4      	;abs 0xf312
    f310:	4c 13       	calla	r12		;

0000f312 <.L11>:
    f312:	41 18 c2 43 	movx.b	#0,	&0x11ac2;r3 As==00
    f316:	c2 1a 
    f318:	b0 13 a4 47 	calla	#18340		;0x047a4
    f31c:	4c 93       	cmp.b	#0,	r12	;r3 As==00
    f31e:	02 24       	jz	$+6      	;abs 0xf324
    f320:	b0 13 b4 47 	calla	#18356		;0x047b4

0000f324 <.L10>:
    f324:	a1 00 04 00 	adda	#4,	r1	;
    f328:	b4 16       	popm.a	#12,	r15	;20-bit words
    f32a:	00 13       	reti			

0000f32c <ISR_PORT3_VECTOR>:
    f32c:	bf 14       	pushm.a	#12,	r15	;20-bit words
    f32e:	b1 00 04 00 	suba	#4,	r1	;
    f332:	41 18 d2 43 	movx.b	#1,	&0x11ac2;r3 As==01
    f336:	c2 1a 
    f338:	40 18 1c 42 	movx.w	&0x0022e,r12	;
    f33c:	2e 02 
    f33e:	12 c3       	clrc			
    f340:	0c 10       	rrc	r12		;
    f342:	7c 53       	add.b	#-1,	r12	;r3 As==11
    f344:	3c f0 ff 00 	and	#255,	r12	;#0x00ff
    f348:	4c 0e       	rlam.a	#4,	r12	;
    f34a:	4c 0d       	rram.a	#4,	r12	;
    f34c:	ac 00 10 00 	adda	#16,	r12	;0x00010
    f350:	0c 14       	pushm.a	#1,	r12	;20-bit words
    f352:	40 18 3c 41 	popx.w	r12		;
    f356:	40 18 3d 41 	popx.w	r13		;
    f35a:	0e 4c       	mov	r12,	r14	;
    f35c:	0f 4d       	mov	r13,	r15	;
    f35e:	0e 5e       	rla	r14		;
    f360:	0f 6f       	rlc	r15		;
    f362:	0e 5e       	rla	r14		;
    f364:	0f 6f       	rlc	r15		;
    f366:	81 4e 00 00 	mov	r14,	0(r1)	;
    f36a:	81 4f 02 00 	mov	r15,	2(r1)	;
    f36e:	0d 01       	mova	@r1,	r13	;
    f370:	80 18 5c 4d 	movx.a	72388(r13),r12	;0x11ac4
    f374:	c4 1a 
    f376:	9c 00 00 00 	cmpa	#0,	r12	;
    f37a:	01 24       	jz	$+4      	;abs 0xf37e
    f37c:	4c 13       	calla	r12		;

0000f37e <.L20>:
    f37e:	41 18 c2 43 	movx.b	#0,	&0x11ac2;r3 As==00
    f382:	c2 1a 
    f384:	b0 13 a4 47 	calla	#18340		;0x047a4
    f388:	4c 93       	cmp.b	#0,	r12	;r3 As==00
    f38a:	02 24       	jz	$+6      	;abs 0xf390
    f38c:	b0 13 b4 47 	calla	#18356		;0x047b4

0000f390 <.L19>:
    f390:	a1 00 04 00 	adda	#4,	r1	;
    f394:	b4 16       	popm.a	#12,	r15	;20-bit words
    f396:	00 13       	reti			

0000f398 <ISR_PORT4_VECTOR>:
    f398:	bf 14       	pushm.a	#12,	r15	;20-bit words
    f39a:	b1 00 04 00 	suba	#4,	r1	;
    f39e:	41 18 d2 43 	movx.b	#1,	&0x11ac2;r3 As==01
    f3a2:	c2 1a 
    f3a4:	40 18 1c 42 	movx.w	&0x0023e,r12	;
    f3a8:	3e 02 
    f3aa:	12 c3       	clrc			
    f3ac:	0c 10       	rrc	r12		;
    f3ae:	7c 53       	add.b	#-1,	r12	;r3 As==11
    f3b0:	3c f0 ff 00 	and	#255,	r12	;#0x00ff
    f3b4:	4c 0e       	rlam.a	#4,	r12	;
    f3b6:	4c 0d       	rram.a	#4,	r12	;
    f3b8:	ac 00 18 00 	adda	#24,	r12	;0x00018
    f3bc:	0c 14       	pushm.a	#1,	r12	;20-bit words
    f3be:	40 18 3c 41 	popx.w	r12		;
    f3c2:	40 18 3d 41 	popx.w	r13		;
    f3c6:	0e 4c       	mov	r12,	r14	;
    f3c8:	0f 4d       	mov	r13,	r15	;
    f3ca:	0e 5e       	rla	r14		;
    f3cc:	0f 6f       	rlc	r15		;
    f3ce:	0e 5e       	rla	r14		;
    f3d0:	0f 6f       	rlc	r15		;
    f3d2:	81 4e 00 00 	mov	r14,	0(r1)	;
    f3d6:	81 4f 02 00 	mov	r15,	2(r1)	;
    f3da:	0d 01       	mova	@r1,	r13	;
    f3dc:	80 18 5c 4d 	movx.a	72388(r13),r12	;0x11ac4
    f3e0:	c4 1a 
    f3e2:	9c 00 00 00 	cmpa	#0,	r12	;
    f3e6:	01 24       	jz	$+4      	;abs 0xf3ea
    f3e8:	4c 13       	calla	r12		;

0000f3ea <.L29>:
    f3ea:	41 18 c2 43 	movx.b	#0,	&0x11ac2;r3 As==00
    f3ee:	c2 1a 
    f3f0:	b0 13 a4 47 	calla	#18340		;0x047a4
    f3f4:	4c 93       	cmp.b	#0,	r12	;r3 As==00
    f3f6:	02 24       	jz	$+6      	;abs 0xf3fc
    f3f8:	b0 13 b4 47 	calla	#18356		;0x047b4

0000f3fc <.L28>:
    f3fc:	a1 00 04 00 	adda	#4,	r1	;
    f400:	b4 16       	popm.a	#12,	r15	;20-bit words
    f402:	00 13       	reti			

0000f404 <ISR_DMA_VECTOR>:
    f404:	bf 14       	pushm.a	#12,	r15	;20-bit words
    f406:	41 18 d2 43 	movx.b	#1,	&0x11ac2;r3 As==01
    f40a:	c2 1a 
    f40c:	40 18 18 42 	movx.w	&0x0050e,r8	;
    f410:	0e 05 
    f412:	12 c3       	clrc			
    f414:	08 10       	rrc	r8		;
    f416:	78 53       	add.b	#-1,	r8	;r3 As==11
    f418:	49 48       	mov.b	r8,	r9	;
    f41a:	6c 43       	mov.b	#2,	r12	;r3 As==10
    f41c:	4c 98       	cmp.b	r8,	r12	;
    f41e:	30 28       	jnc	$+98     	;abs 0xf480
    f420:	4c 48       	mov.b	r8,	r12	;
    f422:	0d 43       	clr	r13		;
    f424:	b0 13 ce c4 	calla	#50382		;0x0c4ce
    f428:	0d 12       	push	r13		;
    f42a:	0c 12       	push	r12		;
    f42c:	0a 16       	popm.a	#1,	r10	;20-bit words
    f42e:	aa 00 10 05 	adda	#1296,	r10	;0x00510
    f432:	ba f0 ef ff 	and	#65519,	0(r10)	;#0xffef
    f436:	00 00 
    f438:	4d 43       	clr.b	r13		;
    f43a:	4c 48       	mov.b	r8,	r12	;
    f43c:	b0 13 0e 54 	calla	#21518		;0x0540e
    f440:	8a 43 0a 00 	mov	#0,	10(r10)	;r3 As==00, 0x000a
    f444:	ba 40 12 00 	mov	#18,	0(r10)	;#0x0012
    f448:	00 00 
    f44a:	8a 00 7e ef 	mova	#61310,	r10	;0x0ef7e
    f44e:	08 49       	mov	r9,	r8	;
    f450:	09 43       	clr	r9		;
    f452:	0c 48       	mov	r8,	r12	;
    f454:	0d 49       	mov	r9,	r13	;
    f456:	b0 13 d2 c4 	calla	#50386		;0x0c4d2
    f45a:	0d 12       	push	r13		;
    f45c:	0c 12       	push	r12		;
    f45e:	0c 16       	popm.a	#1,	r12	;20-bit words
    f460:	ec 0a       	adda	r10,	r12	;
    f462:	06 0c       	mova	@r12,	r6	;
    f464:	96 00 00 00 	cmpa	#0,	r6	;
    f468:	0b 24       	jz	$+24     	;abs 0xf480
    f46a:	0c 48       	mov	r8,	r12	;
    f46c:	0d 49       	mov	r9,	r13	;
    f46e:	b0 13 d2 c4 	calla	#50386		;0x0c4d2
    f472:	0d 12       	push	r13		;
    f474:	0c 12       	push	r12		;
    f476:	0c 16       	popm.a	#1,	r12	;20-bit words
    f478:	ea 0c       	adda	r12,	r10	;
    f47a:	3c 0a 04 00 	mova	4(r10),	r12	;
    f47e:	46 13       	calla	r6		;

0000f480 <.L4>:
    f480:	41 18 c2 43 	movx.b	#0,	&0x11ac2;r3 As==00
    f484:	c2 1a 
    f486:	b0 13 a4 47 	calla	#18340		;0x047a4
    f48a:	4c 93       	cmp.b	#0,	r12	;r3 As==00
    f48c:	02 24       	jz	$+6      	;abs 0xf492
    f48e:	b0 13 b4 47 	calla	#18356		;0x047b4

0000f492 <.L2>:
    f492:	b4 16       	popm.a	#12,	r15	;20-bit words
    f494:	00 13       	reti			

0000f496 <ISR_USCI_B0_VECTOR>:
    f496:	bf 14       	pushm.a	#12,	r15	;20-bit words
    f498:	41 18 d2 43 	movx.b	#1,	&0x11ac2;r3 As==01
    f49c:	c2 1a 
    f49e:	40 18 1c 42 	movx.w	&0x0066e,r12	;
    f4a2:	6e 06 
    f4a4:	8a 01 a0 1b 	mova	#72608,	r10	;0x11ba0
    f4a8:	3c 90 0e 00 	cmp	#14,	r12	;#0x000e
    f4ac:	74 24       	jz	$+234    	;abs 0xf596
    f4ae:	7d 40 0e 00 	mov.b	#14,	r13	;#0x000e
    f4b2:	0d 9c       	cmp	r12,	r13	;
    f4b4:	60 28       	jnc	$+194    	;abs 0xf576
    f4b6:	3c 90 06 00 	cmp	#6,	r12	;
    f4ba:	6d 24       	jz	$+220    	;abs 0xf596
    f4bc:	7d 40 06 00 	mov.b	#6,	r13	;
    f4c0:	0d 9c       	cmp	r12,	r13	;
    f4c2:	3e 28       	jnc	$+126    	;abs 0xf540
    f4c4:	2c 93       	cmp	#2,	r12	;r3 As==10
    f4c6:	8a 24       	jz	$+278    	;abs 0xf5dc
    f4c8:	2c 92       	cmp	#4,	r12	;r2 As==10
    f4ca:	8c 24       	jz	$+282    	;abs 0xf5e4

0000f4cc <.L117>:
    f4cc:	41 18 82 93 	cmpx.w	#0,	&0x11ba6;r3 As==00
    f4d0:	a6 1b 
    f4d2:	2b 24       	jz	$+88     	;abs 0xf52a
    f4d4:	17 4a 1c 00 	mov	28(r10),r7	;0x0001c
    f4d8:	3c 0a 34 00 	mova	52(r10),r12	;0x00034
    f4dc:	19 4c 0a 00 	mov	10(r12),r9	;0x0000a
    f4e0:	8c 01 d4 1b 	mova	#72660,	r12	;0x11bd4
    f4e4:	b0 13 da 55 	calla	#21978		;0x055da
    f4e8:	40 18 fa b0 	bitx.b	#32,	6(r10)	;0x00020
    f4ec:	20 00 06 00 
    f4f0:	04 24       	jz	$+10     	;abs 0xf4fa
    f4f2:	41 18 f2 40 	movx.b	#5,	&0x11ba0;
    f4f6:	05 00 a0 1b 

0000f4fa <.L135>:
    f4fa:	38 0a 0c 00 	mova	12(r10),r8	;0x0000c
    f4fe:	98 00 00 00 	cmpa	#0,	r8	;
    f502:	09 24       	jz	$+20     	;abs 0xf516
    f504:	40 18 0e 47 	movx.w	r7,	r14	;
    f508:	40 18 0e 89 	subx.w	r9,	r14	;
    f50c:	3d 0a 08 00 	mova	8(r10),	r13	;
    f510:	8c 01 a0 1b 	mova	#72608,	r12	;0x11ba0
    f514:	48 13       	calla	r8		;

0000f516 <.L136>:
    f516:	01 18 c2 93 	cmpx.a	#0,	&0x11bce;r3 As==00
    f51a:	ce 1b 
    f51c:	06 24       	jz	$+14     	;abs 0xf52a
    f51e:	8d 0f fe ff 	mova	#-2,	r13	;0xfffffffe
    f522:	8c 01 ce 1b 	mova	#72654,	r12	;0x11bce
    f526:	b0 13 72 48 	calla	#18546		;0x04872

0000f52a <.L134>:
    f52a:	41 18 c2 43 	movx.b	#0,	&0x11ac2;r3 As==00
    f52e:	c2 1a 
    f530:	b0 13 a4 47 	calla	#18340		;0x047a4
    f534:	4c 93       	cmp.b	#0,	r12	;r3 As==00
    f536:	02 24       	jz	$+6      	;abs 0xf53c
    f538:	b0 13 b4 47 	calla	#18356		;0x047b4

0000f53c <.L116>:
    f53c:	b4 16       	popm.a	#12,	r15	;20-bit words
    f53e:	00 13       	reti			

0000f540 <.L121>:
    f540:	3c 90 0a 00 	cmp	#10,	r12	;#0x000a
    f544:	28 24       	jz	$+82     	;abs 0xf596
    f546:	3c 90 0c 00 	cmp	#12,	r12	;#0x000c
    f54a:	25 24       	jz	$+76     	;abs 0xf596
    f54c:	3c 92       	cmp	#8,	r12	;r2 As==11
    f54e:	be 23       	jnz	$-130    	;abs 0xf4cc
    f550:	41 18 e2 43 	movx.b	#2,	&0x11ba0;r3 As==10
    f554:	a0 1b 
    f556:	01 18 c2 93 	cmpx.a	#0,	&0x11bce;r3 As==00
    f55a:	ce 1b 
    f55c:	06 24       	jz	$+14     	;abs 0xf56a
    f55e:	4d 43       	clr.b	r13		;
    f560:	cc 0a       	mova	r10,	r12	;
    f562:	ac 00 2e 00 	adda	#46,	r12	;0x0002e
    f566:	b0 13 72 48 	calla	#18546		;0x04872

0000f56a <.L130>:
    f56a:	8c 01 d4 1b 	mova	#72660,	r12	;0x11bd4
    f56e:	b0 13 94 55 	calla	#21908		;0x05594
    f572:	80 00 cc f4 	mova	#62668,	r0	;0x0f4cc

0000f576 <.L119>:
    f576:	3c 90 16 00 	cmp	#22,	r12	;#0x0016
    f57a:	38 24       	jz	$+114    	;abs 0xf5ec
    f57c:	7d 40 16 00 	mov.b	#22,	r13	;#0x0016
    f580:	0d 9c       	cmp	r12,	r13	;
    f582:	0f 28       	jnc	$+32     	;abs 0xf5a2
    f584:	3c 90 12 00 	cmp	#18,	r12	;#0x0012
    f588:	06 24       	jz	$+14     	;abs 0xf596
    f58a:	3c 90 14 00 	cmp	#20,	r12	;#0x0014
    f58e:	03 24       	jz	$+8      	;abs 0xf596
    f590:	3c 90 10 00 	cmp	#16,	r12	;#0x0010
    f594:	9b 23       	jnz	$-200    	;abs 0xf4cc

0000f596 <.L127>:
    f596:	8c 01 0a 05 	mova	#66826,	r12	;0x1050a
    f59a:	b0 13 42 46 	calla	#17986		;0x04642
    f59e:	80 00 cc f4 	mova	#62668,	r0	;0x0f4cc

0000f5a2 <.L126>:
    f5a2:	3c 90 1a 00 	cmp	#26,	r12	;#0x001a
    f5a6:	f7 27       	jz	$-16     	;abs 0xf596
    f5a8:	3c 90 1c 00 	cmp	#28,	r12	;#0x001c
    f5ac:	3c 24       	jz	$+122    	;abs 0xf626
    f5ae:	3c 90 18 00 	cmp	#24,	r12	;#0x0018
    f5b2:	8c 23       	jnz	$-230    	;abs 0xf4cc
    f5b4:	40 18 a2 c3 	bicx.w	#2,	&0x0066a;r3 As==10
    f5b8:	6a 06 
    f5ba:	01 18 c2 93 	cmpx.a	#0,	&0x11bce;r3 As==00
    f5be:	ce 1b 
    f5c0:	2a 20       	jnz	$+86     	;abs 0xf616
    f5c2:	38 0a 0c 00 	mova	12(r10),r8	;0x0000c
    f5c6:	98 00 00 00 	cmpa	#0,	r8	;
    f5ca:	20 24       	jz	$+66     	;abs 0xf60c
    f5cc:	1e 4a 1c 00 	mov	28(r10),r14	;0x0001c
    f5d0:	3d 0a 08 00 	mova	8(r10),	r13	;
    f5d4:	cc 0a       	mova	r10,	r12	;
    f5d6:	48 13       	calla	r8		;
    f5d8:	80 00 cc f4 	mova	#62668,	r0	;0x0f4cc

0000f5dc <.L122>:
    f5dc:	aa d3 06 00 	bis	#2,	6(r10)	;r3 As==10
    f5e0:	80 00 cc f4 	mova	#62668,	r0	;0x0f4cc

0000f5e4 <.L123>:
    f5e4:	aa d2 06 00 	bis	#4,	6(r10)	;r2 As==10
    f5e8:	80 00 cc f4 	mova	#62668,	r0	;0x0f4cc

0000f5ec <.L125>:
    f5ec:	40 18 1d 42 	movx.w	&0x0064c,r13	;
    f5f0:	4c 06 
    f5f2:	40 18 1c 4a 	movx.w	28(r10),r12	;0x0001c
    f5f6:	1c 00 
    f5f8:	00 18 5c 5a 	addx.a	24(r10),r12	;0x00018
    f5fc:	18 00 
    f5fe:	cc 4d 00 00 	mov.b	r13,	0(r12)	;
    f602:	40 18 92 c3 	bicx.w	#1,	&0x0066a;r3 As==01
    f606:	6a 06 
    f608:	80 00 cc f4 	mova	#62668,	r0	;0x0f4cc

0000f60c <.L132>:
    f60c:	cc 0a       	mova	r10,	r12	;
    f60e:	b0 13 9c 5d 	calla	#23964		;0x05d9c
    f612:	80 00 cc f4 	mova	#62668,	r0	;0x0f4cc

0000f616 <.L131>:
    f616:	4d 43       	clr.b	r13		;
    f618:	cc 0a       	mova	r10,	r12	;
    f61a:	ac 00 2e 00 	adda	#46,	r12	;0x0002e
    f61e:	b0 13 72 48 	calla	#18546		;0x04872
    f622:	80 00 cc f4 	mova	#62668,	r0	;0x0f4cc

0000f626 <.L128>:
    f626:	ba d0 20 00 	bis	#32,	6(r10)	;#0x0020
    f62a:	06 00 
    f62c:	80 00 cc f4 	mova	#62668,	r0	;0x0f4cc

0000f630 <ISR_USCI_A1_VECTOR>:
    f630:	bf 14       	pushm.a	#12,	r15	;20-bit words
    f632:	41 18 d2 43 	movx.b	#1,	&0x11ac2;r3 As==01
    f636:	c2 1a 
    f638:	40 18 1c 42 	movx.w	&0x005fe,r12	;
    f63c:	fe 05 
    f63e:	2c 92       	cmp	#4,	r12	;r2 As==10
    f640:	78 24       	jz	$+242    	;abs 0xf732
    f642:	6d 42       	mov.b	#4,	r13	;r2 As==10
    f644:	0d 9c       	cmp	r12,	r13	;
    f646:	0d 28       	jnc	$+28     	;abs 0xf662
    f648:	2c 93       	cmp	#2,	r12	;r3 As==10
    f64a:	2b 24       	jz	$+88     	;abs 0xf6a2

0000f64c <.L59>:
    f64c:	41 18 c2 43 	movx.b	#0,	&0x11ac2;r3 As==00
    f650:	c2 1a 
    f652:	b0 13 a4 47 	calla	#18340		;0x047a4
    f656:	4c 93       	cmp.b	#0,	r12	;r3 As==00
    f658:	02 24       	jz	$+6      	;abs 0xf65e
    f65a:	b0 13 b4 47 	calla	#18356		;0x047b4

0000f65e <.L58>:
    f65e:	b4 16       	popm.a	#12,	r15	;20-bit words
    f660:	00 13       	reti			

0000f662 <.L61>:
    f662:	3c 90 06 00 	cmp	#6,	r12	;
    f666:	65 24       	jz	$+204    	;abs 0xf732
    f668:	3c 92       	cmp	#8,	r12	;r2 As==11
    f66a:	f0 23       	jnz	$-30     	;abs 0xf64c
    f66c:	8c 01 de 1b 	mova	#72670,	r12	;0x11bde
    f670:	3e 0c 04 00 	mova	4(r12),	r14	;
    f674:	3e 0e 04 00 	mova	4(r14),	r14	;
    f678:	9e 00 00 00 	cmpa	#0,	r14	;
    f67c:	01 24       	jz	$+4      	;abs 0xf680
    f67e:	4e 13       	calla	r14		;

0000f680 <.L71>:
    f680:	41 18 c2 93 	cmpx.b	#0,	&0x11be6;r3 As==00
    f684:	e6 1b 
    f686:	05 20       	jnz	$+12     	;abs 0xf692
    f688:	4d 43       	clr.b	r13		;
    f68a:	8c 01 ec 1b 	mova	#72684,	r12	;0x11bec
    f68e:	b0 13 72 48 	calla	#18546		;0x04872

0000f692 <.L72>:
    f692:	40 18 b2 c2 	bicx.w	#8,	&0x005fa;r2 As==11
    f696:	fa 05 
    f698:	40 18 b2 c2 	bicx.w	#8,	&0x005fc;r2 As==11
    f69c:	fc 05 
    f69e:	80 00 4c f6 	mova	#63052,	r0	;0x0f64c

0000f6a2 <.L62>:
    f6a2:	8a 01 de 1b 	mova	#72670,	r10	;0x11bde
    f6a6:	40 18 e2 b2 	bitx.b	#4,	&0x005ea;r2 As==10
    f6aa:	ea 05 
    f6ac:	2a 24       	jz	$+86     	;abs 0xf702
    f6ae:	40 18 f2 b2 	bitx.b	#8,	&0x005ea;r2 As==11
    f6b2:	ea 05 
    f6b4:	35 24       	jz	$+108    	;abs 0xf720
    f6b6:	7d 40 40 00 	mov.b	#64,	r13	;#0x0040
    f6ba:	4e 43       	clr.b	r14		;

0000f6bc <.L65>:
    f6bc:	40 18 f2 b0 	bitx.b	#32,	&0x005ea;0x00020
    f6c0:	20 00 ea 05 
    f6c4:	02 24       	jz	$+6      	;abs 0xf6ca
    f6c6:	3d d0 10 00 	bis	#16,	r13	;#0x0010

0000f6ca <.L66>:
    f6ca:	40 18 f2 b0 	bitx.b	#64,	&0x005ea;0x00040
    f6ce:	40 00 ea 05 
    f6d2:	01 24       	jz	$+4      	;abs 0xf6d6
    f6d4:	3d d2       	bis	#8,	r13	;r2 As==11

0000f6d6 <.L67>:
    f6d6:	40 18 f2 b0 	bitx.b	#16,	&0x005ea;0x00010
    f6da:	10 00 ea 05 
    f6de:	01 24       	jz	$+4      	;abs 0xf6e2
    f6e0:	2d d2       	bis	#4,	r13	;r2 As==10

0000f6e2 <.L68>:
    f6e2:	3c 0a 04 00 	mova	4(r10),	r12	;
    f6e6:	38 0c 10 00 	mova	16(r12),r8	;0x00010
    f6ea:	98 00 00 00 	cmpa	#0,	r8	;
    f6ee:	03 24       	jz	$+8      	;abs 0xf6f6
    f6f0:	8c 01 de 1b 	mova	#72670,	r12	;0x11bde
    f6f4:	48 13       	calla	r8		;

0000f6f6 <.L69>:
    f6f6:	8d 0f fe ff 	mova	#-2,	r13	;0xfffffffe
    f6fa:	8c 01 e8 1b 	mova	#72680,	r12	;0x11be8
    f6fe:	b0 13 72 48 	calla	#18546		;0x04872

0000f702 <.L64>:
    f702:	3c 0a 04 00 	mova	4(r10),	r12	;
    f706:	3e 0c 0c 00 	mova	12(r12),r14	;0x0000c
    f70a:	9e 00 00 00 	cmpa	#0,	r14	;
    f70e:	0c 24       	jz	$+26     	;abs 0xf728
    f710:	40 18 1d 42 	movx.w	&0x005ec,r13	;
    f714:	ec 05 
    f716:	8c 01 de 1b 	mova	#72670,	r12	;0x11bde
    f71a:	4e 13       	calla	r14		;
    f71c:	80 00 4c f6 	mova	#63052,	r0	;0x0f64c

0000f720 <.L74>:
    f720:	4d 43       	clr.b	r13		;
    f722:	0e 4d       	mov	r13,	r14	;
    f724:	80 00 bc f6 	mova	#63164,	r0	;0x0f6bc

0000f728 <.L70>:
    f728:	40 18 92 c3 	bicx.w	#1,	&0x005fc;r3 As==01
    f72c:	fc 05 
    f72e:	80 00 4c f6 	mova	#63052,	r0	;0x0f64c

0000f732 <.L60>:
    f732:	8c 01 2c 05 	mova	#66860,	r12	;0x1052c
    f736:	b0 13 42 46 	calla	#17986		;0x04642
    f73a:	80 00 4c f6 	mova	#63052,	r0	;0x0f64c

0000f73e <ISR_TIMER1_A1_VECTOR>:
    f73e:	bf 14       	pushm.a	#12,	r15	;20-bit words
    f740:	41 18 d2 43 	movx.b	#1,	&0x11ac2;r3 As==01
    f744:	c2 1a 
    f746:	40 18 1c 42 	movx.w	&0x003ae,r12	;
    f74a:	ae 03 
    f74c:	3c 90 0e 00 	cmp	#14,	r12	;#0x000e
    f750:	1b 20       	jnz	$+56     	;abs 0xf788
    f752:	8c 01 42 1c 	mova	#72770,	r12	;0x11c42
    f756:	6d 4c       	mov.b	@r12,	r13	;
    f758:	7d 50 fd ff 	add.b	#65533,	r13	;#0xfffd
    f75c:	5e 43       	mov.b	#1,	r14	;r3 As==01
    f75e:	4e 9d       	cmp.b	r13,	r14	;
    f760:	08 28       	jnc	$+18     	;abs 0xf772
    f762:	3e 0c 02 00 	mova	2(r12),	r14	;
    f766:	3e 0e 04 00 	mova	4(r14),	r14	;
    f76a:	9e 00 00 00 	cmpa	#0,	r14	;
    f76e:	01 24       	jz	$+4      	;abs 0xf772
    f770:	4e 13       	calla	r14		;

0000f772 <.L22>:
    f772:	41 18 e2 92 	cmpx.b	#4,	&0x11c42;r2 As==10
    f776:	42 1c 
    f778:	07 20       	jnz	$+16     	;abs 0xf788
    f77a:	41 18 e2 43 	movx.b	#2,	&0x11c42;r3 As==10
    f77e:	42 1c 
    f780:	8c 01 42 1c 	mova	#72770,	r12	;0x11c42
    f784:	b0 13 a4 65 	calla	#26020		;0x065a4

0000f788 <.L20>:
    f788:	41 18 c2 43 	movx.b	#0,	&0x11ac2;r3 As==00
    f78c:	c2 1a 
    f78e:	b0 13 a4 47 	calla	#18340		;0x047a4
    f792:	4c 93       	cmp.b	#0,	r12	;r3 As==00
    f794:	02 24       	jz	$+6      	;abs 0xf79a
    f796:	b0 13 b4 47 	calla	#18356		;0x047b4

0000f79a <.L19>:
    f79a:	b4 16       	popm.a	#12,	r15	;20-bit words
    f79c:	00 13       	reti			
