Archive member included to satisfy reference by file (symbol)

/home/awygle/toolchain/install/bin/../lib/gcc/msp430-elf/6.2.0/libgcc.a(lib2divSI.o)
                              build/obj/hal_spi_lld.o (__mspabi_divul)
/home/awygle/toolchain/install/bin/../lib/gcc/msp430-elf/6.2.0/libgcc.a(slli.o)
                              build/obj/hal_pal.o (__mspabi_slli)
/home/awygle/toolchain/install/bin/../lib/gcc/msp430-elf/6.2.0/libgcc.a(srli.o)
                              build/obj/sx1278.o (__mspabi_srli_8)
/home/awygle/toolchain/install/bin/../lib/gcc/msp430-elf/6.2.0/libgcc.a(cmpsi2.o)
                              build/obj/rf.o (__ucmpsi2)
/home/awygle/toolchain/install/bin/../lib/gcc/msp430-elf/6.2.0/libgcc.a(_udivdi3.o)
                              /home/awygle/toolchain/install/bin/../lib/gcc/msp430-elf/6.2.0/libgcc.a(lib2divSI.o) (__mspabi_divull)
/home/awygle/toolchain/install/bin/../lib/gcc/msp430-elf/6.2.0/libgcc.a(_lshrdi3.o)
                              /home/awygle/toolchain/install/bin/../lib/gcc/msp430-elf/6.2.0/libgcc.a(_udivdi3.o) (__lshrdi3)
/home/awygle/toolchain/install/bin/../lib/gcc/msp430-elf/6.2.0/libgcc.a(_ashldi3.o)
                              /home/awygle/toolchain/install/bin/../lib/gcc/msp430-elf/6.2.0/libgcc.a(_udivdi3.o) (__ashldi3)
/home/awygle/toolchain/install/bin/../lib/gcc/msp430-elf/6.2.0/libgcc.a(_clzdi2.o)
                              /home/awygle/toolchain/install/bin/../lib/gcc/msp430-elf/6.2.0/libgcc.a(_udivdi3.o) (__clzdi2)
/home/awygle/toolchain/install/bin/../lib/gcc/msp430-elf/6.2.0/libgcc.a(_clz.o)
                              /home/awygle/toolchain/install/bin/../lib/gcc/msp430-elf/6.2.0/libgcc.a(_clzdi2.o) (__clz_tab)
/home/awygle/toolchain/install/bin/../lib/gcc/msp430-elf/6.2.0/libmul_f5.a(lib2hw_mul_f5.o)
                              build/obj/hal_buffers.o (__mulhi2_f5)
/home/awygle/toolchain/install/bin/../lib/gcc/msp430-elf/6.2.0/../../../../msp430-elf/lib/libc.a(lib_a-memcpy.o)
                              build/obj/hal_buffers.o (memcpy)
/home/awygle/toolchain/install/bin/../lib/gcc/msp430-elf/6.2.0/libgcc.a(_muldi3.o)
                              /home/awygle/toolchain/install/bin/../lib/gcc/msp430-elf/6.2.0/libmul_f5.a(lib2hw_mul_f5.o) (__mspabi_mpyll)
/home/awygle/toolchain/install/bin/../lib/gcc/msp430-elf/6.2.0/../../../../msp430-elf/lib/libcrt.a(crt_bss.o)
                              build/obj/chmemcore.o (__crt0_init_bss)
/home/awygle/toolchain/install/bin/../lib/gcc/msp430-elf/6.2.0/../../../../msp430-elf/lib/libcrt.a(crt_movedata.o)
                              build/obj/ch.o (__crt0_movedata)
/home/awygle/toolchain/install/bin/../lib/gcc/msp430-elf/6.2.0/../../../../msp430-elf/lib/libcrt.a(crt_main_minrt.o)
                              /home/awygle/toolchain/install/bin/../lib/gcc/msp430-elf/6.2.0/../../../../msp430-elf/lib/crt0-minrt.o (__crt0_call_just_main)
/home/awygle/toolchain/install/bin/../lib/gcc/msp430-elf/6.2.0/../../../../msp430-elf/lib/libc.a(lib_a-memmove.o)
                              /home/awygle/toolchain/install/bin/../lib/gcc/msp430-elf/6.2.0/../../../../msp430-elf/lib/libcrt.a(crt_movedata.o) (memmove)
/home/awygle/toolchain/install/bin/../lib/gcc/msp430-elf/6.2.0/../../../../msp430-elf/lib/libc.a(lib_a-memset.o)
                              /home/awygle/toolchain/install/bin/../lib/gcc/msp430-elf/6.2.0/../../../../msp430-elf/lib/libcrt.a(crt_bss.o) (memset)

Discarded input sections

 .text          0x0000000000000000        0x0 /home/awygle/toolchain/install/bin/../lib/gcc/msp430-elf/6.2.0/../../../../msp430-elf/lib/crt0-minrt.o
 .data          0x0000000000000000        0x0 /home/awygle/toolchain/install/bin/../lib/gcc/msp430-elf/6.2.0/../../../../msp430-elf/lib/crt0-minrt.o
 .bss           0x0000000000000000        0x0 /home/awygle/toolchain/install/bin/../lib/gcc/msp430-elf/6.2.0/../../../../msp430-elf/lib/crt0-minrt.o
 .resetvec      0x0000000000000000        0x2 /home/awygle/toolchain/install/bin/../lib/gcc/msp430-elf/6.2.0/../../../../msp430-elf/lib/crt0-minrt.o
 .text          0x0000000000000000        0x0 build/obj/ch.o
 .bss           0x0000000000000000        0x0 build/obj/ch.o
 .text._dbg_check_disable
                0x0000000000000000       0x1c build/obj/ch.o
 .text._dbg_check_enable
                0x0000000000000000       0x1c build/obj/ch.o
 .text.chSysUnconditionalLock
                0x0000000000000000       0x10 build/obj/ch.o
 .text.chSysUnconditionalUnlock
                0x0000000000000000       0x10 build/obj/ch.o
 .text.chThdSleepUntil
                0x0000000000000000       0x26 build/obj/ch.o
 .text.chSemSignal
                0x0000000000000000       0x24 build/obj/ch.o
 .text.chSemResetI
                0x0000000000000000       0x3c build/obj/ch.o
 .text.chSemReset
                0x0000000000000000       0x2c build/obj/ch.o
 .debug_line.text._dbg_check_disable
                0x0000000000000000       0x39 build/obj/ch.o
 .debug_line.text._dbg_check_enable
                0x0000000000000000       0x39 build/obj/ch.o
 .debug_line.text.chSysUnconditionalLock
                0x0000000000000000       0x31 build/obj/ch.o
 .debug_line.text.chSysUnconditionalUnlock
                0x0000000000000000       0x31 build/obj/ch.o
 .debug_line.text.chThdSleepUntil
                0x0000000000000000       0x2b build/obj/ch.o
 .debug_line.text.chSemSignal
                0x0000000000000000       0x31 build/obj/ch.o
 .debug_line.text.chSemResetI
                0x0000000000000000       0x49 build/obj/ch.o
 .debug_line.text.chSemReset
                0x0000000000000000       0x31 build/obj/ch.o
 .text          0x0000000000000000        0x0 build/obj/chmboxes.o
 .data          0x0000000000000000        0x0 build/obj/chmboxes.o
 .bss           0x0000000000000000        0x0 build/obj/chmboxes.o
 .text.chMBObjectInit
                0x0000000000000000       0x20 build/obj/chmboxes.o
 .text.chMBResetI
                0x0000000000000000       0x32 build/obj/chmboxes.o
 .text.chMBReset
                0x0000000000000000       0x26 build/obj/chmboxes.o
 .text.chMBPostAheadS
                0x0000000000000000       0x54 build/obj/chmboxes.o
 .text.chMBPostAhead
                0x0000000000000000       0x3c build/obj/chmboxes.o
 .text.chMBPostAheadI
                0x0000000000000000       0x50 build/obj/chmboxes.o
 .text.chMBFetchI
                0x0000000000000000       0x48 build/obj/chmboxes.o
 .debug_line.text.chMBObjectInit
                0x0000000000000000       0x3b build/obj/chmboxes.o
 .debug_line.text.chMBResetI
                0x0000000000000000       0x35 build/obj/chmboxes.o
 .debug_line.text.chMBReset
                0x0000000000000000       0x53 build/obj/chmboxes.o
 .debug_line.text.chMBPostAheadS
                0x0000000000000000       0x47 build/obj/chmboxes.o
 .debug_line.text.chMBPostAhead
                0x0000000000000000       0x4d build/obj/chmboxes.o
 .debug_line.text.chMBPostAheadI
                0x0000000000000000       0x4d build/obj/chmboxes.o
 .debug_line.text.chMBFetchI
                0x0000000000000000       0x4d build/obj/chmboxes.o
 .text          0x0000000000000000        0x0 build/obj/chmemcore.o
 .data          0x0000000000000000        0x0 build/obj/chmemcore.o
 .bss           0x0000000000000000        0x4 build/obj/chmemcore.o
 .text._core_init
                0x0000000000000000        0xe build/obj/chmemcore.o
 .text.chCoreAllocAlignedI
                0x0000000000000000       0x3a build/obj/chmemcore.o
 .text.chCoreAllocAligned
                0x0000000000000000       0x30 build/obj/chmemcore.o
 .text.chCoreGetStatusX
                0x0000000000000000        0xa build/obj/chmemcore.o
 .debug_line.text._core_init
                0x0000000000000000       0x23 build/obj/chmemcore.o
 .debug_line.text.chCoreAllocAlignedI
                0x0000000000000000       0x3b build/obj/chmemcore.o
 .debug_line.text.chCoreAllocAligned
                0x0000000000000000       0x4d build/obj/chmemcore.o
 .debug_line.text.chCoreGetStatusX
                0x0000000000000000       0x17 build/obj/chmemcore.o
 .text          0x0000000000000000        0x0 build/obj/chmempools.o
 .data          0x0000000000000000        0x0 build/obj/chmempools.o
 .bss           0x0000000000000000        0x0 build/obj/chmempools.o
 .text.chPoolObjectInit
                0x0000000000000000        0xe build/obj/chmempools.o
 .text.chPoolLoadArray
                0x0000000000000000       0x24 build/obj/chmempools.o
 .text.chGuardedPoolObjectInit
                0x0000000000000000       0x12 build/obj/chmempools.o
 .text.chGuardedPoolAllocTimeoutS
                0x0000000000000000       0x1e build/obj/chmempools.o
 .text.chGuardedPoolAllocTimeout
                0x0000000000000000       0x30 build/obj/chmempools.o
 .text.chGuardedPoolFreeI
                0x0000000000000000       0x24 build/obj/chmempools.o
 .text.chGuardedPoolFree
                0x0000000000000000       0x2e build/obj/chmempools.o
 .text.chGuardedPoolLoadArray
                0x0000000000000000       0x24 build/obj/chmempools.o
 .debug_line.text.chPoolObjectInit
                0x0000000000000000       0x29 build/obj/chmempools.o
 .debug_line.text.chPoolLoadArray
                0x0000000000000000       0x41 build/obj/chmempools.o
 .debug_line.text.chGuardedPoolObjectInit
                0x0000000000000000       0x31 build/obj/chmempools.o
 .debug_line.text.chGuardedPoolAllocTimeoutS
                0x0000000000000000       0x2f build/obj/chmempools.o
 .debug_line.text.chGuardedPoolAllocTimeout
                0x0000000000000000       0x49 build/obj/chmempools.o
 .debug_line.text.chGuardedPoolFreeI
                0x0000000000000000       0x31 build/obj/chmempools.o
 .debug_line.text.chGuardedPoolFree
                0x0000000000000000       0x4f build/obj/chmempools.o
 .debug_line.text.chGuardedPoolLoadArray
                0x0000000000000000       0x3d build/obj/chmempools.o
 .text          0x0000000000000000        0x0 build/obj/chcore.o
 .bss           0x0000000000000000        0x0 build/obj/chcore.o
 .text          0x0000000000000000        0x0 build/obj/osal.o
 .data          0x0000000000000000        0x0 build/obj/osal.o
 .bss           0x0000000000000000        0x0 build/obj/osal.o
 .text.osalThreadDequeueAllI
                0x0000000000000000       0x34 build/obj/osal.o
 .debug_line.text.osalThreadDequeueAllI
                0x0000000000000000       0x41 build/obj/osal.o
 .text          0x0000000000000000        0x0 build/obj/hal.o
 .data          0x0000000000000000        0x0 build/obj/hal.o
 .bss           0x0000000000000000        0x0 build/obj/hal.o
 .text          0x0000000000000000        0x0 build/obj/hal_st.o
 .data          0x0000000000000000        0x0 build/obj/hal_st.o
 .bss           0x0000000000000000        0x0 build/obj/hal_st.o
 .text.stStartAlarm
                0x0000000000000000       0x10 build/obj/hal_st.o
 .text.stStopAlarm
                0x0000000000000000        0x8 build/obj/hal_st.o
 .text.stSetAlarm
                0x0000000000000000        0x6 build/obj/hal_st.o
 .text.stGetAlarm
                0x0000000000000000        0x6 build/obj/hal_st.o
 .debug_line.text.stStartAlarm
                0x0000000000000000       0x2f build/obj/hal_st.o
 .debug_line.text.stStopAlarm
                0x0000000000000000       0x23 build/obj/hal_st.o
 .debug_line.text.stSetAlarm
                0x0000000000000000       0x23 build/obj/hal_st.o
 .debug_line.text.stGetAlarm
                0x0000000000000000       0x17 build/obj/hal_st.o
 .text          0x0000000000000000        0x0 build/obj/hal_buffers.o
 .data          0x0000000000000000        0x0 build/obj/hal_buffers.o
 .bss           0x0000000000000000        0x0 build/obj/hal_buffers.o
 .text.osalSysLock
                0x0000000000000000        0xa build/obj/hal_buffers.o
 .text.osalSysUnlock
                0x0000000000000000        0xc build/obj/hal_buffers.o
 .text.ibqObjectInit
                0x0000000000000000       0x54 build/obj/hal_buffers.o
 .text.ibqResetI
                0x0000000000000000       0x30 build/obj/hal_buffers.o
 .text.ibqGetEmptyBufferI
                0x0000000000000000       0x28 build/obj/hal_buffers.o
 .text.ibqPostFullBufferI
                0x0000000000000000       0x3e build/obj/hal_buffers.o
 .text.ibqGetFullBufferTimeoutS
                0x0000000000000000       0x4a build/obj/hal_buffers.o
 .text.ibqGetFullBufferTimeout
                0x0000000000000000       0x26 build/obj/hal_buffers.o
 .text.ibqReleaseEmptyBufferS
                0x0000000000000000       0x3a build/obj/hal_buffers.o
 .text.ibqReleaseEmptyBuffer
                0x0000000000000000       0x18 build/obj/hal_buffers.o
 .text.ibqGetTimeout
                0x0000000000000000       0x4c build/obj/hal_buffers.o
 .text.ibqReadTimeout
                0x0000000000000000       0xce build/obj/hal_buffers.o
 .text.obqObjectInit
                0x0000000000000000       0x54 build/obj/hal_buffers.o
 .text.obqResetI
                0x0000000000000000       0x32 build/obj/hal_buffers.o
 .text.obqGetFullBufferI
                0x0000000000000000       0x2e build/obj/hal_buffers.o
 .text.obqReleaseEmptyBufferI
                0x0000000000000000       0x32 build/obj/hal_buffers.o
 .text.obqGetEmptyBufferTimeoutS
                0x0000000000000000       0x4c build/obj/hal_buffers.o
 .text.obqGetEmptyBufferTimeout
                0x0000000000000000       0x26 build/obj/hal_buffers.o
 .text.obqPostFullBufferS
                0x0000000000000000       0x46 build/obj/hal_buffers.o
 .text.obqPostFullBuffer
                0x0000000000000000       0x20 build/obj/hal_buffers.o
 .text.obqPutTimeout
                0x0000000000000000       0x60 build/obj/hal_buffers.o
 .text.obqWriteTimeout
                0x0000000000000000       0xd6 build/obj/hal_buffers.o
 .text.obqTryFlushI
                0x0000000000000000       0x5e build/obj/hal_buffers.o
 .text.obqFlush
                0x0000000000000000       0x2c build/obj/hal_buffers.o
 .debug_line.text.osalSysLock
                0x0000000000000000       0x2f build/obj/hal_buffers.o
 .debug_line.text.osalSysUnlock
                0x0000000000000000       0x2f build/obj/hal_buffers.o
 .debug_line.text.ibqObjectInit
                0x0000000000000000       0x6d build/obj/hal_buffers.o
 .debug_line.text.ibqResetI
                0x0000000000000000       0x43 build/obj/hal_buffers.o
 .debug_line.text.ibqGetEmptyBufferI
                0x0000000000000000       0x3d build/obj/hal_buffers.o
 .debug_line.text.ibqPostFullBufferI
                0x0000000000000000       0x43 build/obj/hal_buffers.o
 .debug_line.text.ibqGetFullBufferTimeoutS
                0x0000000000000000       0x5b build/obj/hal_buffers.o
 .debug_line.text.ibqGetFullBufferTimeout
                0x0000000000000000       0x2b build/obj/hal_buffers.o
 .debug_line.text.ibqReleaseEmptyBufferS
                0x0000000000000000       0x49 build/obj/hal_buffers.o
 .debug_line.text.ibqReleaseEmptyBuffer
                0x0000000000000000       0x2b build/obj/hal_buffers.o
 .debug_line.text.ibqGetTimeout
                0x0000000000000000       0x4f build/obj/hal_buffers.o
 .debug_line.text.ibqReadTimeout
                0x0000000000000000       0xdf build/obj/hal_buffers.o
 .debug_line.text.obqObjectInit
                0x0000000000000000       0x6d build/obj/hal_buffers.o
 .debug_line.text.obqResetI
                0x0000000000000000       0x43 build/obj/hal_buffers.o
 .debug_line.text.obqGetFullBufferI
                0x0000000000000000       0x43 build/obj/hal_buffers.o
 .debug_line.text.obqReleaseEmptyBufferI
                0x0000000000000000       0x3d build/obj/hal_buffers.o
 .debug_line.text.obqGetEmptyBufferTimeoutS
                0x0000000000000000       0x5b build/obj/hal_buffers.o
 .debug_line.text.obqGetEmptyBufferTimeout
                0x0000000000000000       0x2b build/obj/hal_buffers.o
 .debug_line.text.obqPostFullBufferS
                0x0000000000000000       0x4f build/obj/hal_buffers.o
 .debug_line.text.obqPostFullBuffer
                0x0000000000000000       0x2b build/obj/hal_buffers.o
 .debug_line.text.obqPutTimeout
                0x0000000000000000       0x61 build/obj/hal_buffers.o
 .debug_line.text.obqWriteTimeout
                0x0000000000000000       0xdf build/obj/hal_buffers.o
 .debug_line.text.obqTryFlushI
                0x0000000000000000       0x73 build/obj/hal_buffers.o
 .debug_line.text.obqFlush
                0x0000000000000000       0x3d build/obj/hal_buffers.o
 .text          0x0000000000000000        0x0 build/obj/hal_queues.o
 .data          0x0000000000000000        0x0 build/obj/hal_queues.o
 .bss           0x0000000000000000        0x0 build/obj/hal_queues.o
 .text.osalSysLock
                0x0000000000000000        0xa build/obj/hal_queues.o
 .text.osalSysUnlock
                0x0000000000000000        0xc build/obj/hal_queues.o
 .text.iqObjectInit
                0x0000000000000000       0x26 build/obj/hal_queues.o
 .text.iqResetI
                0x0000000000000000       0x28 build/obj/hal_queues.o
 .text.iqPutI   0x0000000000000000       0x54 build/obj/hal_queues.o
 .text.iqGetTimeout
                0x0000000000000000       0x66 build/obj/hal_queues.o
 .text.iqReadTimeout
                0x0000000000000000       0xb8 build/obj/hal_queues.o
 .text.oqObjectInit
                0x0000000000000000       0x26 build/obj/hal_queues.o
 .text.oqResetI
                0x0000000000000000       0x2e build/obj/hal_queues.o
 .text.oqPutTimeout
                0x0000000000000000       0x6c build/obj/hal_queues.o
 .text.oqGetI   0x0000000000000000       0x4e build/obj/hal_queues.o
 .text.oqWriteTimeout
                0x0000000000000000       0xb8 build/obj/hal_queues.o
 .debug_line.text.osalSysLock
                0x0000000000000000       0x2f build/obj/hal_queues.o
 .debug_line.text.osalSysUnlock
                0x0000000000000000       0x2f build/obj/hal_queues.o
 .debug_line.text.iqObjectInit
                0x0000000000000000       0x4e build/obj/hal_queues.o
 .debug_line.text.iqResetI
                0x0000000000000000       0x37 build/obj/hal_queues.o
 .debug_line.text.iqPutI
                0x0000000000000000       0x5b build/obj/hal_queues.o
 .debug_line.text.iqGetTimeout
                0x0000000000000000       0x7f build/obj/hal_queues.o
 .debug_line.text.iqReadTimeout
                0x0000000000000000       0xd3 build/obj/hal_queues.o
 .debug_line.text.oqObjectInit
                0x0000000000000000       0x4f build/obj/hal_queues.o
 .debug_line.text.oqResetI
                0x0000000000000000       0x37 build/obj/hal_queues.o
 .debug_line.text.oqPutTimeout
                0x0000000000000000       0x7f build/obj/hal_queues.o
 .debug_line.text.oqGetI
                0x0000000000000000       0x5b build/obj/hal_queues.o
 .debug_line.text.oqWriteTimeout
                0x0000000000000000       0xd3 build/obj/hal_queues.o
 .text          0x0000000000000000        0x0 build/obj/hal_mmcsd.o
 .data          0x0000000000000000        0x0 build/obj/hal_mmcsd.o
 .bss           0x0000000000000000        0x0 build/obj/hal_mmcsd.o
 .text          0x0000000000000000        0x0 build/obj/hal_gpt.o
 .data          0x0000000000000000        0x0 build/obj/hal_gpt.o
 .bss           0x0000000000000000        0x0 build/obj/hal_gpt.o
 .text.gptStop  0x0000000000000000       0x1e build/obj/hal_gpt.o
 .text.gptChangeInterval
                0x0000000000000000        0xa build/obj/hal_gpt.o
 .text.gptStartContinuousI
                0x0000000000000000       0x22 build/obj/hal_gpt.o
 .text.gptStartContinuous
                0x0000000000000000       0x20 build/obj/hal_gpt.o
 .text.gptStartOneShot
                0x0000000000000000       0x20 build/obj/hal_gpt.o
 .text.gptStopTimer
                0x0000000000000000       0x18 build/obj/hal_gpt.o
 .text.gptPolledDelay
                0x0000000000000000       0x14 build/obj/hal_gpt.o
 .debug_line.text.gptStop
                0x0000000000000000       0x37 build/obj/hal_gpt.o
 .debug_line.text.gptChangeInterval
                0x0000000000000000       0x25 build/obj/hal_gpt.o
 .debug_line.text.gptStartContinuousI
                0x0000000000000000       0x2b build/obj/hal_gpt.o
 .debug_line.text.gptStartContinuous
                0x0000000000000000       0x2b build/obj/hal_gpt.o
 .debug_line.text.gptStartOneShot
                0x0000000000000000       0x2b build/obj/hal_gpt.o
 .debug_line.text.gptStopTimer
                0x0000000000000000       0x2b build/obj/hal_gpt.o
 .debug_line.text.gptPolledDelay
                0x0000000000000000       0x2b build/obj/hal_gpt.o
 .text          0x0000000000000000        0x0 build/obj/hal_pal.o
 .data          0x0000000000000000        0x0 build/obj/hal_pal.o
 .bss           0x0000000000000000        0x0 build/obj/hal_pal.o
 .text.palReadBus
                0x0000000000000000       0x18 build/obj/hal_pal.o
 .text.palWriteBus
                0x0000000000000000       0x30 build/obj/hal_pal.o
 .text.palSetBusMode
                0x0000000000000000       0x20 build/obj/hal_pal.o
 .debug_line.text.palReadBus
                0x0000000000000000       0x1d build/obj/hal_pal.o
 .debug_line.text.palWriteBus
                0x0000000000000000       0x1d build/obj/hal_pal.o
 .debug_line.text.palSetBusMode
                0x0000000000000000       0x1d build/obj/hal_pal.o
 .text          0x0000000000000000        0x0 build/obj/hal_spi.o
 .data          0x0000000000000000        0x0 build/obj/hal_spi.o
 .bss           0x0000000000000000        0x0 build/obj/hal_spi.o
 .text.osalThreadSuspendS
                0x0000000000000000        0x8 build/obj/hal_spi.o
 .text.spiStop  0x0000000000000000       0x1e build/obj/hal_spi.o
 .text.spiSelect
                0x0000000000000000       0x18 build/obj/hal_spi.o
 .text.spiUnselect
                0x0000000000000000       0x18 build/obj/hal_spi.o
 .text.spiStartIgnore
                0x0000000000000000       0x26 build/obj/hal_spi.o
 .text.spiStartExchange
                0x0000000000000000       0x36 build/obj/hal_spi.o
 .text.spiStartReceive
                0x0000000000000000       0x32 build/obj/hal_spi.o
 .text.spiIgnore
                0x0000000000000000       0x2e build/obj/hal_spi.o
 .text.spiExchange
                0x0000000000000000       0x42 build/obj/hal_spi.o
 .text.spiSend  0x0000000000000000       0x36 build/obj/hal_spi.o
 .text.spiReceive
                0x0000000000000000       0x36 build/obj/hal_spi.o
 .debug_line.text.osalThreadSuspendS
                0x0000000000000000       0x1d build/obj/hal_spi.o
 .debug_line.text.spiStop
                0x0000000000000000       0x37 build/obj/hal_spi.o
 .debug_line.text.spiSelect
                0x0000000000000000       0x2b build/obj/hal_spi.o
 .debug_line.text.spiUnselect
                0x0000000000000000       0x2b build/obj/hal_spi.o
 .debug_line.text.spiStartIgnore
                0x0000000000000000       0x2b build/obj/hal_spi.o
 .debug_line.text.spiStartExchange
                0x0000000000000000       0x2b build/obj/hal_spi.o
 .debug_line.text.spiStartReceive
                0x0000000000000000       0x2b build/obj/hal_spi.o
 .debug_line.text.spiIgnore
                0x0000000000000000       0x31 build/obj/hal_spi.o
 .debug_line.text.spiExchange
                0x0000000000000000       0x31 build/obj/hal_spi.o
 .debug_line.text.spiSend
                0x0000000000000000       0x31 build/obj/hal_spi.o
 .debug_line.text.spiReceive
                0x0000000000000000       0x31 build/obj/hal_spi.o
 .text          0x0000000000000000        0x0 build/obj/hal_uart.o
 .data          0x0000000000000000        0x0 build/obj/hal_uart.o
 .bss           0x0000000000000000        0x0 build/obj/hal_uart.o
 .text.uartStop
                0x0000000000000000       0x26 build/obj/hal_uart.o
 .text.uartStartSend
                0x0000000000000000       0x2c build/obj/hal_uart.o
 .text.uartStopSend
                0x0000000000000000       0x30 build/obj/hal_uart.o
 .text.uartStopSendI
                0x0000000000000000       0x22 build/obj/hal_uart.o
 .text.uartStartReceive
                0x0000000000000000       0x2c build/obj/hal_uart.o
 .text.uartStopReceive
                0x0000000000000000       0x30 build/obj/hal_uart.o
 .text.uartSendTimeout
                0x0000000000000000       0x4c build/obj/hal_uart.o
 .text.uartSendFullTimeout
                0x0000000000000000       0x4c build/obj/hal_uart.o
 .text.uartReceiveTimeout
                0x0000000000000000       0x46 build/obj/hal_uart.o
 .debug_line.text.uartStop
                0x0000000000000000       0x43 build/obj/hal_uart.o
 .debug_line.text.uartStartSend
                0x0000000000000000       0x31 build/obj/hal_uart.o
 .debug_line.text.uartStopSend
                0x0000000000000000       0x3d build/obj/hal_uart.o
 .debug_line.text.uartStopSendI
                0x0000000000000000       0x37 build/obj/hal_uart.o
 .debug_line.text.uartStartReceive
                0x0000000000000000       0x31 build/obj/hal_uart.o
 .debug_line.text.uartStopReceive
                0x0000000000000000       0x3d build/obj/hal_uart.o
 .debug_line.text.uartSendTimeout
                0x0000000000000000       0x4f build/obj/hal_uart.o
 .debug_line.text.uartSendFullTimeout
                0x0000000000000000       0x4f build/obj/hal_uart.o
 .debug_line.text.uartReceiveTimeout
                0x0000000000000000       0x49 build/obj/hal_uart.o
 .text          0x0000000000000000        0x0 build/obj/hal_lld.o
 .data          0x0000000000000000        0x0 build/obj/hal_lld.o
 .bss           0x0000000000000000        0x0 build/obj/hal_lld.o
 .text          0x0000000000000000        0x0 build/obj/hal_st_lld.o
 .data          0x0000000000000000        0x0 build/obj/hal_st_lld.o
 .bss           0x0000000000000000        0x0 build/obj/hal_st_lld.o
 .text          0x0000000000000000        0x0 build/obj/hal_serial_lld.o
 .data          0x0000000000000000        0x0 build/obj/hal_serial_lld.o
 .bss           0x0000000000000000        0x0 build/obj/hal_serial_lld.o
 .text          0x0000000000000000        0x0 build/obj/hal_pal_lld.o
 .bss           0x0000000000000000        0x0 build/obj/hal_pal_lld.o
 .text          0x0000000000000000        0x0 build/obj/hal_dma_lld.o
 .data          0x0000000000000000        0x0 build/obj/hal_dma_lld.o
 .text.dmaAcquireTimeoutS
                0x0000000000000000       0x32 build/obj/hal_dma_lld.o
 .text.dmaTransfer
                0x0000000000000000       0x2a build/obj/hal_dma_lld.o
 .debug_line.text.dmaAcquireTimeoutS
                0x0000000000000000       0x41 build/obj/hal_dma_lld.o
 .debug_line.text.dmaTransfer
                0x0000000000000000       0x53 build/obj/hal_dma_lld.o
 .text          0x0000000000000000        0x0 build/obj/hal_spi_lld.o
 .text.spi_lld_stop
                0x0000000000000000       0x10 build/obj/hal_spi_lld.o
 .text.spi_lld_ignore
                0x0000000000000000       0x22 build/obj/hal_spi_lld.o
 .text.spi_lld_exchange
                0x0000000000000000       0x22 build/obj/hal_spi_lld.o
 .text.spi_lld_receive
                0x0000000000000000       0x22 build/obj/hal_spi_lld.o
 .rodata        0x0000000000000000        0x2 build/obj/hal_spi_lld.o
 .debug_line.text.spi_lld_stop
                0x0000000000000000       0x23 build/obj/hal_spi_lld.o
 .debug_line.text.spi_lld_ignore
                0x0000000000000000       0x41 build/obj/hal_spi_lld.o
 .debug_line.text.spi_lld_exchange
                0x0000000000000000       0x41 build/obj/hal_spi_lld.o
 .debug_line.text.spi_lld_receive
                0x0000000000000000       0x41 build/obj/hal_spi_lld.o
 .text          0x0000000000000000        0x0 build/obj/hal_i2c_lld.o
 .data          0x0000000000000000        0x0 build/obj/hal_i2c_lld.o
 .bss           0x0000000000000000        0x0 build/obj/hal_i2c_lld.o
 .text          0x0000000000000000        0x0 build/obj/hal_uart_lld.o
 .bss           0x0000000000000000        0x0 build/obj/hal_uart_lld.o
 .text.uart_lld_stop
                0x0000000000000000       0x28 build/obj/hal_uart_lld.o
 .text.uart_lld_stop_send
                0x0000000000000000       0x38 build/obj/hal_uart_lld.o
 .debug_line.text.uart_lld_stop
                0x0000000000000000       0x2f build/obj/hal_uart_lld.o
 .debug_line.text.uart_lld_stop_send
                0x0000000000000000       0x35 build/obj/hal_uart_lld.o
 .text          0x0000000000000000        0x0 build/obj/hal_gpt_lld.o
 .bss           0x0000000000000000        0x0 build/obj/hal_gpt_lld.o
 .text.gpt_lld_stop
                0x0000000000000000       0x14 build/obj/hal_gpt_lld.o
 .text.gpt_lld_polled_delay
                0x0000000000000000       0x1e build/obj/hal_gpt_lld.o
 .debug_line.text.gpt_lld_stop
                0x0000000000000000       0x29 build/obj/hal_gpt_lld.o
 .debug_line.text.gpt_lld_polled_delay
                0x0000000000000000       0x2f build/obj/hal_gpt_lld.o
 .text          0x0000000000000000        0x0 build/obj/hal_adc_lld.o
 .data          0x0000000000000000        0x0 build/obj/hal_adc_lld.o
 .bss           0x0000000000000000        0x0 build/obj/hal_adc_lld.o
 .text          0x0000000000000000        0x0 build/obj/board.o
 .data          0x0000000000000000        0x0 build/obj/board.o
 .bss           0x0000000000000000        0x0 build/obj/board.o
 .text          0x0000000000000000        0x0 build/obj/sx1278.o
 .bss           0x0000000000000000        0x4 build/obj/sx1278.o
 .rodata        0x0000000000000000        0x2 build/obj/sx1278.o
 .text.blocking_callback
                0x0000000000000000       0x14 build/obj/sx1278.o
 .text.sx1278SetFilterParams
                0x0000000000000000       0x10 build/obj/sx1278.o
 .text.sx1278BlockTimeout
                0x0000000000000000      0x18c build/obj/sx1278.o
 .text.sx1278Stop
                0x0000000000000000       0x30 build/obj/sx1278.o
 .text.sx1278Sleep
                0x0000000000000000       0x10 build/obj/sx1278.o
 .text.sx1278Send
                0x0000000000000000      0x1ba build/obj/sx1278.o
 .debug_line.text.blocking_callback
                0x0000000000000000       0x30 build/obj/sx1278.o
 .debug_line.text.sx1278SetFilterParams
                0x0000000000000000       0x1d build/obj/sx1278.o
 .debug_line.text.sx1278BlockTimeout
                0x0000000000000000      0x120 build/obj/sx1278.o
 .debug_line.text.sx1278Stop
                0x0000000000000000       0x3b build/obj/sx1278.o
 .debug_line.text.sx1278Sleep
                0x0000000000000000       0x23 build/obj/sx1278.o
 .debug_line.text.sx1278Send
                0x0000000000000000      0x119 build/obj/sx1278.o
 .text          0x0000000000000000        0x0 build/obj/sx1212.o
 .text.spi_end_cb
                0x0000000000000000       0x16 build/obj/sx1212.o
 .text.spi_mode_data
                0x0000000000000000       0x1a build/obj/sx1212.o
 .text.fifo_read_safe
                0x0000000000000000       0x34 build/obj/sx1212.o
 .text.sx1212Stop
                0x0000000000000000       0x2e build/obj/sx1212.o
 .text.sx1212FifoReadAsync
                0x0000000000000000       0x2c build/obj/sx1212.o
 .text.sx1212StopReceiveI
                0x0000000000000000        0x6 build/obj/sx1212.o
 .text.sx1212ReceiveTimeout
                0x0000000000000000      0x196 build/obj/sx1212.o
 .text.sx1212RSSI
                0x0000000000000000       0x3a build/obj/sx1212.o
 .text.sx1212CLKOUT
                0x0000000000000000       0x14 build/obj/sx1212.o
 .text.sx1212TUNE
                0x0000000000000000        0xa build/obj/sx1212.o
 .debug_line.text.spi_end_cb
                0x0000000000000000       0x1c build/obj/sx1212.o
 .debug_line.text.spi_mode_data
                0x0000000000000000       0x23 build/obj/sx1212.o
 .debug_line.text.fifo_read_safe
                0x0000000000000000       0x3d build/obj/sx1212.o
 .debug_line.text.sx1212Stop
                0x0000000000000000       0x35 build/obj/sx1212.o
 .debug_line.text.sx1212FifoReadAsync
                0x0000000000000000       0x29 build/obj/sx1212.o
 .debug_line.text.sx1212ReceiveTimeout
                0x0000000000000000      0x13d build/obj/sx1212.o
 .debug_line.text.sx1212RSSI
                0x0000000000000000       0x37 build/obj/sx1212.o
 .debug_line.text.sx1212CLKOUT
                0x0000000000000000       0x1d build/obj/sx1212.o
 .debug_line.text.sx1212TUNE
                0x0000000000000000       0x1d build/obj/sx1212.o
 .text          0x0000000000000000        0x0 build/obj/uart.o
 .text.elyUARTCfgMarkDirtyI
                0x0000000000000000        0xe build/obj/uart.o
 .text.elyUARTRxBufReadyI
                0x0000000000000000        0xe build/obj/uart.o
 .debug_line.text.elyUARTCfgMarkDirtyI
                0x0000000000000000       0x1c build/obj/uart.o
 .debug_line.text.elyUARTRxBufReadyI
                0x0000000000000000       0x1c build/obj/uart.o
 .text          0x0000000000000000        0x0 build/obj/main.o
 .text.elyMainMBPostS
                0x0000000000000000       0x1a build/obj/main.o
 .text.elyMainMBPostI
                0x0000000000000000        0xc build/obj/main.o
 .debug_line.text.elyMainMBPostS
                0x0000000000000000       0x22 build/obj/main.o
 .debug_line.text.elyMainMBPostI
                0x0000000000000000       0x1c build/obj/main.o
 .text          0x0000000000000000        0x0 build/obj/mych.o
 .data          0x0000000000000000        0x0 build/obj/mych.o
 .bss           0x0000000000000000        0x0 build/obj/mych.o
 .text.chEvtWaitAnyTimeoutS
                0x0000000000000000       0x58 build/obj/mych.o
 .debug_line.text.chEvtWaitAnyTimeoutS
                0x0000000000000000       0x44 build/obj/mych.o
 .text          0x0000000000000000        0x0 build/obj/cmds.o
 .data          0x0000000000000000        0x0 build/obj/cmds.o
 .text          0x0000000000000000        0x0 build/obj/registers.o
 .data          0x0000000000000000        0x0 build/obj/registers.o
 .text          0x0000000000000000        0x0 build/obj/slip_uart_dll.o
 .text          0x0000000000000000        0x0 build/obj/crc_x25.o
 .data          0x0000000000000000        0x0 build/obj/crc_x25.o
 .bss           0x0000000000000000        0x0 build/obj/crc_x25.o
 .text          0x0000000000000000        0x0 build/obj/crc_sdlp.o
 .data          0x0000000000000000        0x0 build/obj/crc_sdlp.o
 .bss           0x0000000000000000        0x0 build/obj/crc_sdlp.o
 .text.crcCheckSDLP
                0x0000000000000000       0x48 build/obj/crc_sdlp.o
 .debug_line.text.crcCheckSDLP
                0x0000000000000000       0x4e build/obj/crc_sdlp.o
 .text          0x0000000000000000        0x0 build/obj/sdlp.o
 .data          0x0000000000000000        0x0 build/obj/sdlp.o
 .text.packet_callback
                0x0000000000000000       0x78 build/obj/sdlp.o
 .text.header_callback
                0x0000000000000000       0x6a build/obj/sdlp.o
 .debug_line.text.packet_callback
                0x0000000000000000       0x79 build/obj/sdlp.o
 .debug_line.text.header_callback
                0x0000000000000000       0x77 build/obj/sdlp.o
 .text          0x0000000000000000        0x0 build/obj/rf.o
 .text.elyRFCfgMarkDirtyI
                0x0000000000000000        0xe build/obj/rf.o
 .text.elyRFChangeTxSyncS
                0x0000000000000000       0x50 build/obj/rf.o
 .text.elyRFChangeTxFilterParamsS
                0x0000000000000000       0x1c build/obj/rf.o
 .debug_line.text.elyRFCfgMarkDirtyI
                0x0000000000000000       0x1e build/obj/rf.o
 .debug_line.text.elyRFChangeTxSyncS
                0x0000000000000000       0x37 build/obj/rf.o
 .debug_line.text.elyRFChangeTxFilterParamsS
                0x0000000000000000       0x25 build/obj/rf.o
 .text          0x0000000000000000        0x0 build/obj/spp.o
 .data          0x0000000000000000        0x0 build/obj/spp.o
 .text.elyNLChangeMaxLengthS
                0x0000000000000000       0x44 build/obj/spp.o
 .text.elyNLGetPayloadLength
                0x0000000000000000       0x20 build/obj/spp.o
 .debug_line.text.elyNLChangeMaxLengthS
                0x0000000000000000       0x4f build/obj/spp.o
 .debug_line.text.elyNLGetPayloadLength
                0x0000000000000000       0x1d build/obj/spp.o
 .text          0x0000000000000000        0x0 build/obj/msp_vectors.o
 .data          0x0000000000000000        0x0 build/obj/msp_vectors.o
 .bss           0x0000000000000000        0x0 build/obj/msp_vectors.o
 .text          0x0000000000000000        0x0 build/obj/test.o
 .text          0x0000000000000000        0x4 /home/awygle/toolchain/install/bin/../lib/gcc/msp430-elf/6.2.0/libgcc.a(lib2divSI.o)
 .data          0x0000000000000000        0x0 /home/awygle/toolchain/install/bin/../lib/gcc/msp430-elf/6.2.0/libgcc.a(lib2divSI.o)
 .bss           0x0000000000000000        0x0 /home/awygle/toolchain/install/bin/../lib/gcc/msp430-elf/6.2.0/libgcc.a(lib2divSI.o)
 .text.__divsi3
                0x0000000000000000       0x7a /home/awygle/toolchain/install/bin/../lib/gcc/msp430-elf/6.2.0/libgcc.a(lib2divSI.o)
 .text.__modsi3
                0x0000000000000000       0x58 /home/awygle/toolchain/install/bin/../lib/gcc/msp430-elf/6.2.0/libgcc.a(lib2divSI.o)
 .text.__umodsi3
                0x0000000000000000        0xe /home/awygle/toolchain/install/bin/../lib/gcc/msp430-elf/6.2.0/libgcc.a(lib2divSI.o)
 .debug_line.text.__divsi3
                0x0000000000000000       0x58 /home/awygle/toolchain/install/bin/../lib/gcc/msp430-elf/6.2.0/libgcc.a(lib2divSI.o)
 .debug_line.text.__modsi3
                0x0000000000000000       0x41 /home/awygle/toolchain/install/bin/../lib/gcc/msp430-elf/6.2.0/libgcc.a(lib2divSI.o)
 .debug_line.text.__umodsi3
                0x0000000000000000       0x1d /home/awygle/toolchain/install/bin/../lib/gcc/msp430-elf/6.2.0/libgcc.a(lib2divSI.o)
 .data          0x0000000000000000        0x0 /home/awygle/toolchain/install/bin/../lib/gcc/msp430-elf/6.2.0/libgcc.a(slli.o)
 .bss           0x0000000000000000        0x0 /home/awygle/toolchain/install/bin/../lib/gcc/msp430-elf/6.2.0/libgcc.a(slli.o)
 .data          0x0000000000000000        0x0 /home/awygle/toolchain/install/bin/../lib/gcc/msp430-elf/6.2.0/libgcc.a(srli.o)
 .bss           0x0000000000000000        0x0 /home/awygle/toolchain/install/bin/../lib/gcc/msp430-elf/6.2.0/libgcc.a(srli.o)
 .data          0x0000000000000000        0x0 /home/awygle/toolchain/install/bin/../lib/gcc/msp430-elf/6.2.0/libgcc.a(cmpsi2.o)
 .bss           0x0000000000000000        0x0 /home/awygle/toolchain/install/bin/../lib/gcc/msp430-elf/6.2.0/libgcc.a(cmpsi2.o)
 .text          0x0000000000000000        0x0 /home/awygle/toolchain/install/bin/../lib/gcc/msp430-elf/6.2.0/libgcc.a(_udivdi3.o)
 .data          0x0000000000000000        0x0 /home/awygle/toolchain/install/bin/../lib/gcc/msp430-elf/6.2.0/libgcc.a(_udivdi3.o)
 .bss           0x0000000000000000        0x0 /home/awygle/toolchain/install/bin/../lib/gcc/msp430-elf/6.2.0/libgcc.a(_udivdi3.o)
 .text.__udivdi3
                0x0000000000000000      0x3dc /home/awygle/toolchain/install/bin/../lib/gcc/msp430-elf/6.2.0/libgcc.a(_udivdi3.o)
 .debug_line.text.__udivdi3
                0x0000000000000000       0xab /home/awygle/toolchain/install/bin/../lib/gcc/msp430-elf/6.2.0/libgcc.a(_udivdi3.o)
 .text          0x0000000000000000        0x0 /home/awygle/toolchain/install/bin/../lib/gcc/msp430-elf/6.2.0/libgcc.a(_lshrdi3.o)
 .data          0x0000000000000000        0x0 /home/awygle/toolchain/install/bin/../lib/gcc/msp430-elf/6.2.0/libgcc.a(_lshrdi3.o)
 .bss           0x0000000000000000        0x0 /home/awygle/toolchain/install/bin/../lib/gcc/msp430-elf/6.2.0/libgcc.a(_lshrdi3.o)
 .text.__lshrdi3
                0x0000000000000000       0x86 /home/awygle/toolchain/install/bin/../lib/gcc/msp430-elf/6.2.0/libgcc.a(_lshrdi3.o)
 .debug_line.text.__lshrdi3
                0x0000000000000000       0x59 /home/awygle/toolchain/install/bin/../lib/gcc/msp430-elf/6.2.0/libgcc.a(_lshrdi3.o)
 .text          0x0000000000000000        0x0 /home/awygle/toolchain/install/bin/../lib/gcc/msp430-elf/6.2.0/libgcc.a(_ashldi3.o)
 .data          0x0000000000000000        0x0 /home/awygle/toolchain/install/bin/../lib/gcc/msp430-elf/6.2.0/libgcc.a(_ashldi3.o)
 .bss           0x0000000000000000        0x0 /home/awygle/toolchain/install/bin/../lib/gcc/msp430-elf/6.2.0/libgcc.a(_ashldi3.o)
 .text.__ashldi3
                0x0000000000000000       0x8e /home/awygle/toolchain/install/bin/../lib/gcc/msp430-elf/6.2.0/libgcc.a(_ashldi3.o)
 .debug_line.text.__ashldi3
                0x0000000000000000       0x59 /home/awygle/toolchain/install/bin/../lib/gcc/msp430-elf/6.2.0/libgcc.a(_ashldi3.o)
 .text          0x0000000000000000        0x0 /home/awygle/toolchain/install/bin/../lib/gcc/msp430-elf/6.2.0/libgcc.a(_clzdi2.o)
 .data          0x0000000000000000        0x0 /home/awygle/toolchain/install/bin/../lib/gcc/msp430-elf/6.2.0/libgcc.a(_clzdi2.o)
 .bss           0x0000000000000000        0x0 /home/awygle/toolchain/install/bin/../lib/gcc/msp430-elf/6.2.0/libgcc.a(_clzdi2.o)
 .text.__clzdi2
                0x0000000000000000       0x5e /home/awygle/toolchain/install/bin/../lib/gcc/msp430-elf/6.2.0/libgcc.a(_clzdi2.o)
 .debug_line.text.__clzdi2
                0x0000000000000000       0x40 /home/awygle/toolchain/install/bin/../lib/gcc/msp430-elf/6.2.0/libgcc.a(_clzdi2.o)
 .text          0x0000000000000000        0x0 /home/awygle/toolchain/install/bin/../lib/gcc/msp430-elf/6.2.0/libgcc.a(_clz.o)
 .data          0x0000000000000000        0x0 /home/awygle/toolchain/install/bin/../lib/gcc/msp430-elf/6.2.0/libgcc.a(_clz.o)
 .bss           0x0000000000000000        0x0 /home/awygle/toolchain/install/bin/../lib/gcc/msp430-elf/6.2.0/libgcc.a(_clz.o)
 .rodata.__clz_tab
                0x0000000000000000      0x100 /home/awygle/toolchain/install/bin/../lib/gcc/msp430-elf/6.2.0/libgcc.a(_clz.o)
 .text          0x0000000000000000        0x0 /home/awygle/toolchain/install/bin/../lib/gcc/msp430-elf/6.2.0/libmul_f5.a(lib2hw_mul_f5.o)
 .data          0x0000000000000000        0x0 /home/awygle/toolchain/install/bin/../lib/gcc/msp430-elf/6.2.0/libmul_f5.a(lib2hw_mul_f5.o)
 .bss           0x0000000000000000        0x0 /home/awygle/toolchain/install/bin/../lib/gcc/msp430-elf/6.2.0/libmul_f5.a(lib2hw_mul_f5.o)
 .text.__mulsihi2
                0x0000000000000000       0x18 /home/awygle/toolchain/install/bin/../lib/gcc/msp430-elf/6.2.0/libmul_f5.a(lib2hw_mul_f5.o)
 .text.__umulsihi2
                0x0000000000000000       0x18 /home/awygle/toolchain/install/bin/../lib/gcc/msp430-elf/6.2.0/libmul_f5.a(lib2hw_mul_f5.o)
 .text.__muldisi2
                0x0000000000000000       0x28 /home/awygle/toolchain/install/bin/../lib/gcc/msp430-elf/6.2.0/libmul_f5.a(lib2hw_mul_f5.o)
 .text.__umuldisi2
                0x0000000000000000       0x28 /home/awygle/toolchain/install/bin/../lib/gcc/msp430-elf/6.2.0/libmul_f5.a(lib2hw_mul_f5.o)
 .text.__muldi3
                0x0000000000000000        0x4 /home/awygle/toolchain/install/bin/../lib/gcc/msp430-elf/6.2.0/libmul_f5.a(lib2hw_mul_f5.o)
 .text          0x0000000000000000        0x0 /home/awygle/toolchain/install/bin/../lib/gcc/msp430-elf/6.2.0/../../../../msp430-elf/lib/libc.a(lib_a-memcpy.o)
 .data          0x0000000000000000        0x0 /home/awygle/toolchain/install/bin/../lib/gcc/msp430-elf/6.2.0/../../../../msp430-elf/lib/libc.a(lib_a-memcpy.o)
 .bss           0x0000000000000000        0x0 /home/awygle/toolchain/install/bin/../lib/gcc/msp430-elf/6.2.0/../../../../msp430-elf/lib/libc.a(lib_a-memcpy.o)
 .text          0x0000000000000000        0x0 /home/awygle/toolchain/install/bin/../lib/gcc/msp430-elf/6.2.0/libgcc.a(_muldi3.o)
 .data          0x0000000000000000        0x0 /home/awygle/toolchain/install/bin/../lib/gcc/msp430-elf/6.2.0/libgcc.a(_muldi3.o)
 .bss           0x0000000000000000        0x0 /home/awygle/toolchain/install/bin/../lib/gcc/msp430-elf/6.2.0/libgcc.a(_muldi3.o)
 .text.__muldi3
                0x0000000000000000      0x14a /home/awygle/toolchain/install/bin/../lib/gcc/msp430-elf/6.2.0/libgcc.a(_muldi3.o)
 .debug_line.text.__muldi3
                0x0000000000000000       0x55 /home/awygle/toolchain/install/bin/../lib/gcc/msp430-elf/6.2.0/libgcc.a(_muldi3.o)
 .text          0x0000000000000000        0x0 /home/awygle/toolchain/install/bin/../lib/gcc/msp430-elf/6.2.0/../../../../msp430-elf/lib/libcrt.a(crt_bss.o)
 .data          0x0000000000000000        0x0 /home/awygle/toolchain/install/bin/../lib/gcc/msp430-elf/6.2.0/../../../../msp430-elf/lib/libcrt.a(crt_bss.o)
 .bss           0x0000000000000000        0x0 /home/awygle/toolchain/install/bin/../lib/gcc/msp430-elf/6.2.0/../../../../msp430-elf/lib/libcrt.a(crt_bss.o)
 .text          0x0000000000000000        0x0 /home/awygle/toolchain/install/bin/../lib/gcc/msp430-elf/6.2.0/../../../../msp430-elf/lib/libcrt.a(crt_movedata.o)
 .data          0x0000000000000000        0x0 /home/awygle/toolchain/install/bin/../lib/gcc/msp430-elf/6.2.0/../../../../msp430-elf/lib/libcrt.a(crt_movedata.o)
 .bss           0x0000000000000000        0x0 /home/awygle/toolchain/install/bin/../lib/gcc/msp430-elf/6.2.0/../../../../msp430-elf/lib/libcrt.a(crt_movedata.o)
 .text          0x0000000000000000        0x0 /home/awygle/toolchain/install/bin/../lib/gcc/msp430-elf/6.2.0/../../../../msp430-elf/lib/libcrt.a(crt_main_minrt.o)
 .data          0x0000000000000000        0x0 /home/awygle/toolchain/install/bin/../lib/gcc/msp430-elf/6.2.0/../../../../msp430-elf/lib/libcrt.a(crt_main_minrt.o)
 .bss           0x0000000000000000        0x0 /home/awygle/toolchain/install/bin/../lib/gcc/msp430-elf/6.2.0/../../../../msp430-elf/lib/libcrt.a(crt_main_minrt.o)
 .text          0x0000000000000000        0x0 /home/awygle/toolchain/install/bin/../lib/gcc/msp430-elf/6.2.0/../../../../msp430-elf/lib/libc.a(lib_a-memmove.o)
 .data          0x0000000000000000        0x0 /home/awygle/toolchain/install/bin/../lib/gcc/msp430-elf/6.2.0/../../../../msp430-elf/lib/libc.a(lib_a-memmove.o)
 .bss           0x0000000000000000        0x0 /home/awygle/toolchain/install/bin/../lib/gcc/msp430-elf/6.2.0/../../../../msp430-elf/lib/libc.a(lib_a-memmove.o)
 .text          0x0000000000000000        0x0 /home/awygle/toolchain/install/bin/../lib/gcc/msp430-elf/6.2.0/../../../../msp430-elf/lib/libc.a(lib_a-memset.o)
 .data          0x0000000000000000        0x0 /home/awygle/toolchain/install/bin/../lib/gcc/msp430-elf/6.2.0/../../../../msp430-elf/lib/libc.a(lib_a-memset.o)
 .bss           0x0000000000000000        0x0 /home/awygle/toolchain/install/bin/../lib/gcc/msp430-elf/6.2.0/../../../../msp430-elf/lib/libc.a(lib_a-memset.o)
 .text          0x0000000000000000        0x0 /home/awygle/toolchain/install/bin/../lib/gcc/msp430-elf/6.2.0/../../../../msp430-elf/lib/crtn-minrt.o
 .data          0x0000000000000000        0x0 /home/awygle/toolchain/install/bin/../lib/gcc/msp430-elf/6.2.0/../../../../msp430-elf/lib/crtn-minrt.o
 .bss           0x0000000000000000        0x0 /home/awygle/toolchain/install/bin/../lib/gcc/msp430-elf/6.2.0/../../../../msp430-elf/lib/crtn-minrt.o

Memory Configuration

Name             Origin             Length             Attributes
SFR              0x0000000000000000 0x0000000000000010
BSL              0x0000000000001000 0x0000000000000800
PERIPHERAL_8BIT  0x0000000000000010 0x00000000000000f0
PERIPHERAL_16BIT 0x0000000000000100 0x0000000000000100
RAM              0x0000000000001c00 0x0000000000000800
INFOMEM          0x0000000000001800 0x0000000000000200
INFOA            0x0000000000001980 0x0000000000000080
INFOB            0x0000000000001900 0x0000000000000080
INFOC            0x0000000000001880 0x0000000000000080
INFOD            0x0000000000001800 0x0000000000000080
FRAM             0x0000000000004400 0x000000000000bb80 xrw
JTAGSIGNATURE    0x000000000000ff80 0x0000000000000004
BSLSIGNATURE     0x000000000000ff84 0x0000000000000004
IPESIGNATURE     0x000000000000ff88 0x0000000000000008
VECT1            0x000000000000ff90 0x0000000000000002
VECT2            0x000000000000ff92 0x0000000000000002
VECT3            0x000000000000ff94 0x0000000000000002
VECT4            0x000000000000ff96 0x0000000000000002
VECT5            0x000000000000ff98 0x0000000000000002
VECT6            0x000000000000ff9a 0x0000000000000002
VECT7            0x000000000000ff9c 0x0000000000000002
VECT8            0x000000000000ff9e 0x0000000000000002
VECT9            0x000000000000ffa0 0x0000000000000002
VECT10           0x000000000000ffa2 0x0000000000000002
VECT11           0x000000000000ffa4 0x0000000000000002
VECT12           0x000000000000ffa6 0x0000000000000002
VECT13           0x000000000000ffa8 0x0000000000000002
VECT14           0x000000000000ffaa 0x0000000000000002
VECT15           0x000000000000ffac 0x0000000000000002
VECT16           0x000000000000ffae 0x0000000000000002
VECT17           0x000000000000ffb0 0x0000000000000002
VECT18           0x000000000000ffb2 0x0000000000000002
VECT19           0x000000000000ffb4 0x0000000000000002
VECT20           0x000000000000ffb6 0x0000000000000002
VECT21           0x000000000000ffb8 0x0000000000000002
VECT22           0x000000000000ffba 0x0000000000000002
VECT23           0x000000000000ffbc 0x0000000000000002
VECT24           0x000000000000ffbe 0x0000000000000002
VECT25           0x000000000000ffc0 0x0000000000000002
VECT26           0x000000000000ffc2 0x0000000000000002
VECT27           0x000000000000ffc4 0x0000000000000002
VECT28           0x000000000000ffc6 0x0000000000000002
VECT29           0x000000000000ffc8 0x0000000000000002
VECT30           0x000000000000ffca 0x0000000000000002
VECT31           0x000000000000ffcc 0x0000000000000002
VECT32           0x000000000000ffce 0x0000000000000002
VECT33           0x000000000000ffd0 0x0000000000000002
VECT34           0x000000000000ffd2 0x0000000000000002
VECT35           0x000000000000ffd4 0x0000000000000002
VECT36           0x000000000000ffd6 0x0000000000000002
VECT37           0x000000000000ffd8 0x0000000000000002
VECT38           0x000000000000ffda 0x0000000000000002
VECT39           0x000000000000ffdc 0x0000000000000002
VECT40           0x000000000000ffde 0x0000000000000002
VECT41           0x000000000000ffe0 0x0000000000000002
VECT42           0x000000000000ffe2 0x0000000000000002
VECT43           0x000000000000ffe4 0x0000000000000002
VECT44           0x000000000000ffe6 0x0000000000000002
VECT45           0x000000000000ffe8 0x0000000000000002
VECT46           0x000000000000ffea 0x0000000000000002
VECT47           0x000000000000ffec 0x0000000000000002
VECT48           0x000000000000ffee 0x0000000000000002
VECT49           0x000000000000fff0 0x0000000000000002
VECT50           0x000000000000fff2 0x0000000000000002
VECT51           0x000000000000fff4 0x0000000000000002
VECT52           0x000000000000fff6 0x0000000000000002
VECT53           0x000000000000fff8 0x0000000000000002
VECT54           0x000000000000fffa 0x0000000000000002
VECT55           0x000000000000fffc 0x0000000000000002
RESETVEC         0x000000000000fffe 0x0000000000000002
HIFRAM           0x0000000000010000 0x0000000000003fff xrw
*default*        0x0000000000000000 0xffffffffffffffff

Linker script and memory map

LOAD /home/awygle/toolchain/install/bin/../lib/gcc/msp430-elf/6.2.0/../../../../msp430-elf/lib/crt0-minrt.o

.jtagsignature

.bslsignature

.ipe
 *(.ipesignature)
 *(.jtagpassword)

__interrupt_vector_1
                0x000000000000ff90        0x2
 *(__interrupt_vector_1)
 __interrupt_vector_1
                0x000000000000ff90        0x2 build/obj/msp_vectors.o

__interrupt_vector_2
                0x000000000000ff92        0x2
 *(__interrupt_vector_2)
 __interrupt_vector_2
                0x000000000000ff92        0x2 build/obj/msp_vectors.o

__interrupt_vector_3
                0x000000000000ff94        0x2
 *(__interrupt_vector_3)
 __interrupt_vector_3
                0x000000000000ff94        0x2 build/obj/msp_vectors.o

__interrupt_vector_4
                0x000000000000ff96        0x2
 *(__interrupt_vector_4)
 __interrupt_vector_4
                0x000000000000ff96        0x2 build/obj/msp_vectors.o

__interrupt_vector_5
                0x000000000000ff98        0x2
 *(__interrupt_vector_5)
 __interrupt_vector_5
                0x000000000000ff98        0x2 build/obj/msp_vectors.o

__interrupt_vector_6
                0x000000000000ff9a        0x2
 *(__interrupt_vector_6)
 __interrupt_vector_6
                0x000000000000ff9a        0x2 build/obj/msp_vectors.o

__interrupt_vector_7
                0x000000000000ff9c        0x2
 *(__interrupt_vector_7)
 __interrupt_vector_7
                0x000000000000ff9c        0x2 build/obj/msp_vectors.o

__interrupt_vector_8
                0x000000000000ff9e        0x2
 *(__interrupt_vector_8)
 __interrupt_vector_8
                0x000000000000ff9e        0x2 build/obj/msp_vectors.o

__interrupt_vector_9
                0x000000000000ffa0        0x2
 *(__interrupt_vector_9)
 __interrupt_vector_9
                0x000000000000ffa0        0x2 build/obj/msp_vectors.o

__interrupt_vector_10
                0x000000000000ffa2        0x2
 *(__interrupt_vector_10)
 __interrupt_vector_10
                0x000000000000ffa2        0x2 build/obj/msp_vectors.o

__interrupt_vector_11
                0x000000000000ffa4        0x2
 *(__interrupt_vector_11)
 __interrupt_vector_11
                0x000000000000ffa4        0x2 build/obj/msp_vectors.o

__interrupt_vector_12
                0x000000000000ffa6        0x2
 *(__interrupt_vector_12)
 __interrupt_vector_12
                0x000000000000ffa6        0x2 build/obj/msp_vectors.o

__interrupt_vector_13
                0x000000000000ffa8        0x2
 *(__interrupt_vector_13)
 __interrupt_vector_13
                0x000000000000ffa8        0x2 build/obj/msp_vectors.o

__interrupt_vector_14
                0x000000000000ffaa        0x2
 *(__interrupt_vector_14)
 __interrupt_vector_14
                0x000000000000ffaa        0x2 build/obj/msp_vectors.o

__interrupt_vector_15
                0x000000000000ffac        0x2
 *(__interrupt_vector_15)
 __interrupt_vector_15
                0x000000000000ffac        0x2 build/obj/msp_vectors.o

__interrupt_vector_16
                0x000000000000ffae        0x2
 *(__interrupt_vector_16)
 __interrupt_vector_16
                0x000000000000ffae        0x2 build/obj/msp_vectors.o

__interrupt_vector_17
                0x000000000000ffb0        0x2
 *(__interrupt_vector_17)
 __interrupt_vector_17
                0x000000000000ffb0        0x2 build/obj/msp_vectors.o

__interrupt_vector_18
                0x000000000000ffb2        0x2
 *(__interrupt_vector_18)
 __interrupt_vector_18
                0x000000000000ffb2        0x2 build/obj/msp_vectors.o

__interrupt_vector_19
                0x000000000000ffb4        0x2
 *(__interrupt_vector_19)
 __interrupt_vector_19
                0x000000000000ffb4        0x2 build/obj/msp_vectors.o

__interrupt_vector_20
                0x000000000000ffb6        0x2
 *(__interrupt_vector_20)
 __interrupt_vector_20
                0x000000000000ffb6        0x2 build/obj/msp_vectors.o

__interrupt_vector_21
                0x000000000000ffb8        0x2
 *(__interrupt_vector_21)
 __interrupt_vector_21
                0x000000000000ffb8        0x2 build/obj/msp_vectors.o

__interrupt_vector_22
                0x000000000000ffba        0x2
 *(__interrupt_vector_22)
 __interrupt_vector_22
                0x000000000000ffba        0x2 build/obj/msp_vectors.o

__interrupt_vector_23
                0x000000000000ffbc        0x2
 *(__interrupt_vector_23)
 __interrupt_vector_23
                0x000000000000ffbc        0x2 build/obj/msp_vectors.o

__interrupt_vector_24
                0x000000000000ffbe        0x2
 *(__interrupt_vector_24)
 __interrupt_vector_24
                0x000000000000ffbe        0x2 build/obj/msp_vectors.o

__interrupt_vector_25
                0x000000000000ffc0        0x2
 *(__interrupt_vector_25)
 __interrupt_vector_25
                0x000000000000ffc0        0x2 build/obj/msp_vectors.o

__interrupt_vector_26
                0x000000000000ffc2        0x2
 *(__interrupt_vector_26)
 __interrupt_vector_26
                0x000000000000ffc2        0x2 build/obj/msp_vectors.o

__interrupt_vector_27
                0x000000000000ffc4        0x2
 *(__interrupt_vector_27)
 __interrupt_vector_27
                0x000000000000ffc4        0x2 build/obj/msp_vectors.o

__interrupt_vector_28
                0x000000000000ffc6        0x2
 *(__interrupt_vector_28)
 __interrupt_vector_28
                0x000000000000ffc6        0x2 build/obj/msp_vectors.o

__interrupt_vector_29
                0x000000000000ffc8        0x2
 *(__interrupt_vector_29)
 __interrupt_vector_29
                0x000000000000ffc8        0x2 build/obj/msp_vectors.o

__interrupt_vector_30
                0x000000000000ffca        0x2
 *(__interrupt_vector_30)
 __interrupt_vector_30
                0x000000000000ffca        0x2 build/obj/msp_vectors.o

__interrupt_vector_31
                0x000000000000ffcc        0x2
 *(__interrupt_vector_31)
 __interrupt_vector_31
                0x000000000000ffcc        0x2 build/obj/msp_vectors.o
 *(__interrupt_vector_aes256)

__interrupt_vector_32
                0x000000000000ffce        0x2
 *(__interrupt_vector_32)
 __interrupt_vector_32
                0x000000000000ffce        0x2 build/obj/msp_vectors.o
 *(__interrupt_vector_rtc)

__interrupt_vector_33
                0x000000000000ffd0        0x2
 *(__interrupt_vector_33)
 __interrupt_vector_33
                0x000000000000ffd0        0x2 build/obj/hal_pal_lld.o
 *(__interrupt_vector_port4)

__interrupt_vector_34
                0x000000000000ffd2        0x2
 *(__interrupt_vector_34)
 __interrupt_vector_34
                0x000000000000ffd2        0x2 build/obj/hal_pal_lld.o
 *(__interrupt_vector_port3)

__interrupt_vector_35
                0x000000000000ffd4        0x2
 *(__interrupt_vector_35)
 __interrupt_vector_35
                0x000000000000ffd4        0x2 build/obj/msp_vectors.o
 *(__interrupt_vector_timer3_a1)

__interrupt_vector_36
                0x000000000000ffd6        0x2
 *(__interrupt_vector_36)
 __interrupt_vector_36
                0x000000000000ffd6        0x2 build/obj/msp_vectors.o
 *(__interrupt_vector_timer3_a0)

__interrupt_vector_37
                0x000000000000ffd8        0x2
 *(__interrupt_vector_37)
 __interrupt_vector_37
                0x000000000000ffd8        0x2 build/obj/hal_pal_lld.o
 *(__interrupt_vector_port2)

__interrupt_vector_38
                0x000000000000ffda        0x2
 *(__interrupt_vector_38)
 __interrupt_vector_38
                0x000000000000ffda        0x2 build/obj/msp_vectors.o
 *(__interrupt_vector_timer2_a1)

__interrupt_vector_39
                0x000000000000ffdc        0x2
 *(__interrupt_vector_39)
 __interrupt_vector_39
                0x000000000000ffdc        0x2 build/obj/msp_vectors.o
 *(__interrupt_vector_timer2_a0)

__interrupt_vector_40
                0x000000000000ffde        0x2
 *(__interrupt_vector_40)
 __interrupt_vector_40
                0x000000000000ffde        0x2 build/obj/hal_pal_lld.o
 *(__interrupt_vector_port1)

__interrupt_vector_41
                0x000000000000ffe0        0x2
 *(__interrupt_vector_41)
 __interrupt_vector_41
                0x000000000000ffe0        0x2 build/obj/hal_gpt_lld.o
 *(__interrupt_vector_timer1_a1)

__interrupt_vector_42
                0x000000000000ffe2        0x2
 *(__interrupt_vector_42)
 __interrupt_vector_42
                0x000000000000ffe2        0x2 build/obj/msp_vectors.o
 *(__interrupt_vector_timer1_a0)

__interrupt_vector_43
                0x000000000000ffe4        0x2
 *(__interrupt_vector_43)
 __interrupt_vector_43
                0x000000000000ffe4        0x2 build/obj/hal_dma_lld.o
 *(__interrupt_vector_dma)

__interrupt_vector_44
 *(__interrupt_vector_44)
 *(__interrupt_vector_usci_a1)

__interrupt_vector_45
                0x000000000000ffe8        0x2
 *(__interrupt_vector_45)
 __interrupt_vector_45
                0x000000000000ffe8        0x2 build/obj/msp_vectors.o
 *(__interrupt_vector_timer0_a1)

__interrupt_vector_46
                0x000000000000ffea        0x2
 *(__interrupt_vector_46)
 __interrupt_vector_46
                0x000000000000ffea        0x2 build/obj/msp_vectors.o
 *(__interrupt_vector_timer0_a0)

__interrupt_vector_47
                0x000000000000ffec        0x2
 *(__interrupt_vector_47)
 __interrupt_vector_47
                0x000000000000ffec        0x2 build/obj/msp_vectors.o
 *(__interrupt_vector_adc12)

__interrupt_vector_48
                0x000000000000ffee        0x2
 *(__interrupt_vector_48)
 __interrupt_vector_48
                0x000000000000ffee        0x2 build/obj/msp_vectors.o
 *(__interrupt_vector_usci_b0)

__interrupt_vector_49
                0x000000000000fff0        0x2
 *(__interrupt_vector_49)
 __interrupt_vector_49
                0x000000000000fff0        0x2 build/obj/hal_uart_lld.o
 *(__interrupt_vector_usci_a0)

__interrupt_vector_50
                0x000000000000fff2        0x2
 *(__interrupt_vector_50)
 __interrupt_vector_50
                0x000000000000fff2        0x2 build/obj/msp_vectors.o
 *(__interrupt_vector_wdt)

__interrupt_vector_51
                0x000000000000fff4        0x2
 *(__interrupt_vector_51)
 __interrupt_vector_51
                0x000000000000fff4        0x2 build/obj/msp_vectors.o
 *(__interrupt_vector_timer0_b1)

__interrupt_vector_52
                0x000000000000fff6        0x2
 *(__interrupt_vector_52)
 __interrupt_vector_52
                0x000000000000fff6        0x2 build/obj/hal_st_lld.o
 *(__interrupt_vector_timer0_b0)

__interrupt_vector_53
                0x000000000000fff8        0x2
 *(__interrupt_vector_53)
 __interrupt_vector_53
                0x000000000000fff8        0x2 build/obj/msp_vectors.o
 *(__interrupt_vector_comp_e)

__interrupt_vector_54
                0x000000000000fffa        0x2
 *(__interrupt_vector_54)
 __interrupt_vector_54
                0x000000000000fffa        0x2 build/obj/msp_vectors.o
 *(__interrupt_vector_unmi)

__interrupt_vector_55
                0x000000000000fffc        0x2
 *(__interrupt_vector_55)
 __interrupt_vector_55
                0x000000000000fffc        0x2 build/obj/msp_vectors.o
 *(__interrupt_vector_sysnmi)

__reset_vector
 *(__interrupt_vector_56)
 *(__interrupt_vector_reset)
 *(.bootloader)
                0x000000000000fffe                _end = .
                [!provide]                        PROVIDE (end, .)

.text           0x0000000000004400     0x6d54
                0x0000000000004400                PROVIDE (_start, .)
                0x0000000000004400                . = ALIGN (0x2)
 *(SORT(.crt_*))
 .crt_0000start
                0x0000000000004400        0x4 /home/awygle/toolchain/install/bin/../lib/gcc/msp430-elf/6.2.0/../../../../msp430-elf/lib/crt0-minrt.o
                0x0000000000004400                __crt0_start
 .crt_0042disable_watchdog
                0x0000000000004404        0x6 build/obj/test.o
 .crt_0100init_bss
                0x000000000000440a        0xe /home/awygle/toolchain/install/bin/../lib/gcc/msp430-elf/6.2.0/../../../../msp430-elf/lib/libcrt.a(crt_bss.o)
                0x000000000000440a                __crt0_init_bss
 .crt_0300movedata
                0x0000000000004418       0x14 /home/awygle/toolchain/install/bin/../lib/gcc/msp430-elf/6.2.0/../../../../msp430-elf/lib/libcrt.a(crt_movedata.o)
                0x0000000000004418                __crt0_movedata
 .crt_0600call_just_main
                0x000000000000442c        0x6 /home/awygle/toolchain/install/bin/../lib/gcc/msp430-elf/6.2.0/../../../../msp430-elf/lib/libcrt.a(crt_main_minrt.o)
                0x000000000000442c                __crt0_call_just_main
                0x0000000000004432                . = ALIGN (0x2)
 *(.lowtext)
                0x0000000000004432                . = ALIGN (0x2)
 *(.lower.text.* .lower.text)
                0x0000000000004432                . = ALIGN (0x2)
 *(.text .stub .text.* .gnu.linkonce.t.* .text:*)
 .text.port_unlock
                0x0000000000004432        0x8 build/obj/ch.o
 .text.port_suspend
                0x000000000000443a        0x6 build/obj/ch.o
 .text._dbg_check_suspend
                0x0000000000004440       0x1a build/obj/ch.o
                0x0000000000004440                _dbg_check_suspend
 .text._dbg_check_lock
                0x000000000000445a       0x1e build/obj/ch.o
                0x000000000000445a                _dbg_check_lock
 .text._dbg_check_unlock
                0x0000000000004478       0x20 build/obj/ch.o
                0x0000000000004478                _dbg_check_unlock
 .text._dbg_check_lock_from_isr
                0x0000000000004498       0x20 build/obj/ch.o
                0x0000000000004498                _dbg_check_lock_from_isr
 .text._dbg_check_unlock_from_isr
                0x00000000000044b8       0x20 build/obj/ch.o
                0x00000000000044b8                _dbg_check_unlock_from_isr
 .text._dbg_check_enter_isr
                0x00000000000044d8       0x26 build/obj/ch.o
                0x00000000000044d8                _dbg_check_enter_isr
 .text._dbg_check_leave_isr
                0x00000000000044fe       0x28 build/obj/ch.o
                0x00000000000044fe                _dbg_check_leave_isr
 .text.chDbgCheckClassI
                0x0000000000004526       0x1c build/obj/ch.o
                0x0000000000004526                chDbgCheckClassI
 .text.chDbgCheckClassS
                0x0000000000004542       0x1c build/obj/ch.o
                0x0000000000004542                chDbgCheckClassS
 .text.chSysInit
                0x000000000000455e       0x82 build/obj/ch.o
                0x000000000000455e                chSysInit
 .text.chSysHalt
                0x00000000000045e0        0xe build/obj/ch.o
                0x00000000000045e0                chSysHalt
 .text.chSysGetStatusAndLockX
                0x00000000000045ee       0x22 build/obj/ch.o
                0x00000000000045ee                chSysGetStatusAndLockX
 .text.chSchReadyI
                0x0000000000004610       0x2c build/obj/ch.o
                0x0000000000004610                chSchReadyI
 .text.chSysTimerHandlerI
                0x000000000000463c       0x76 build/obj/ch.o
                0x000000000000463c                chSysTimerHandlerI
 .text.chSchIsPreemptionRequired
                0x00000000000046b2       0x18 build/obj/ch.o
                0x00000000000046b2                chSchIsPreemptionRequired
 .text.chSchDoReschedule
                0x00000000000046ca       0x14 build/obj/ch.o
                0x00000000000046ca                chSchDoReschedule
 .text.chSchRescheduleS
                0x00000000000046de       0x12 build/obj/ch.o
                0x00000000000046de                chSchRescheduleS
 .text.chSysRestoreStatusX
                0x00000000000046f0       0x1e build/obj/ch.o
                0x00000000000046f0                chSysRestoreStatusX
 .text.chSchGoSleepTimeoutS
                0x000000000000470e       0x46 build/obj/ch.o
                0x000000000000470e                chSchGoSleepTimeoutS
 .text.chThdSuspendTimeoutS
                0x0000000000004754       0x16 build/obj/ch.o
                0x0000000000004754                chThdSuspendTimeoutS
 .text.chThdResumeI
                0x000000000000476a       0x12 build/obj/ch.o
                0x000000000000476a                chThdResumeI
 .text.chThdSleep
                0x000000000000477c       0x20 build/obj/ch.o
                0x000000000000477c                chThdSleep
 .text.chSemWaitTimeoutS
                0x000000000000479c       0x46 build/obj/ch.o
                0x000000000000479c                chSemWaitTimeoutS
 .text.chSemWaitTimeout
                0x00000000000047e2       0x2e build/obj/ch.o
                0x00000000000047e2                chSemWaitTimeout
 .text.chSemSignalI
                0x0000000000004810       0x34 build/obj/ch.o
                0x0000000000004810                chSemSignalI
 .text.chEvtSignalI
                0x0000000000004844       0x46 build/obj/ch.o
                0x0000000000004844                chEvtSignalI
 .text.chEvtSignal
                0x000000000000488a       0x30 build/obj/ch.o
                0x000000000000488a                chEvtSignal
 .text.chEvtWaitAnyTimeout
                0x00000000000048ba       0x70 build/obj/ch.o
                0x00000000000048ba                chEvtWaitAnyTimeout
 .text.chMBPostS
                0x000000000000492a       0x4a build/obj/chmboxes.o
                0x000000000000492a                chMBPostS
 .text.chMBPost
                0x0000000000004974       0x3c build/obj/chmboxes.o
                0x0000000000004974                chMBPost
 .text.chMBPostI
                0x00000000000049b0       0x44 build/obj/chmboxes.o
                0x00000000000049b0                chMBPostI
 .text.chMBFetchS
                0x00000000000049f4       0x4a build/obj/chmboxes.o
                0x00000000000049f4                chMBFetchS
 .text.chMBFetch
                0x0000000000004a3e       0x3c build/obj/chmboxes.o
                0x0000000000004a3e                chMBFetch
 .text.chPoolAllocI
                0x0000000000004a7a       0x28 build/obj/chmempools.o
                0x0000000000004a7a                chPoolAllocI
 .text.chPoolAlloc
                0x0000000000004aa2       0x28 build/obj/chmempools.o
                0x0000000000004aa2                chPoolAlloc
 .text.chPoolFreeI
                0x0000000000004aca       0x16 build/obj/chmempools.o
                0x0000000000004aca                chPoolFreeI
 .text.chPoolFree
                0x0000000000004ae0       0x28 build/obj/chmempools.o
                0x0000000000004ae0                chPoolFree
 .text._port_switch
                0x0000000000004b08        0xc build/obj/chcore.o
                0x0000000000004b08                _port_switch
 .text._port_thread_start
                0x0000000000004b14       0x16 build/obj/chcore.o
                0x0000000000004b14                _port_thread_start
 .text.osalThreadDequeueNextI
                0x0000000000004b2a       0x26 build/obj/osal.o
                0x0000000000004b2a                osalThreadDequeueNextI
 .text.halInit  0x0000000000004b50       0x22 build/obj/hal.o
                0x0000000000004b50                halInit
 .text.stInit   0x0000000000004b72        0x6 build/obj/hal_st.o
                0x0000000000004b72                stInit
 .text.osalSysLock
                0x0000000000004b78        0xa build/obj/hal_gpt.o
 .text.osalSysUnlock
                0x0000000000004b82        0xc build/obj/hal_gpt.o
 .text.gptInit  0x0000000000004b8e        0x6 build/obj/hal_gpt.o
                0x0000000000004b8e                gptInit
 .text.gptObjectInit
                0x0000000000004b94        0xa build/obj/hal_gpt.o
                0x0000000000004b94                gptObjectInit
 .text.gptStart
                0x0000000000004b9e       0x20 build/obj/hal_gpt.o
                0x0000000000004b9e                gptStart
 .text.gptStartOneShotI
                0x0000000000004bbe       0x20 build/obj/hal_gpt.o
                0x0000000000004bbe                gptStartOneShotI
 .text.gptStopTimerI
                0x0000000000004bde       0x18 build/obj/hal_gpt.o
                0x0000000000004bde                gptStopTimerI
 .text.osalSysLock
                0x0000000000004bf6        0xa build/obj/hal_spi.o
 .text.osalSysUnlock
                0x0000000000004c00        0xc build/obj/hal_spi.o
 .text.spiInit  0x0000000000004c0c        0x6 build/obj/hal_spi.o
                0x0000000000004c0c                spiInit
 .text.spiObjectInit
                0x0000000000004c12        0xe build/obj/hal_spi.o
                0x0000000000004c12                spiObjectInit
 .text.spiStart
                0x0000000000004c20       0x20 build/obj/hal_spi.o
                0x0000000000004c20                spiStart
 .text.spiStartSend
                0x0000000000004c40       0x32 build/obj/hal_spi.o
                0x0000000000004c40                spiStartSend
 .text.osalSysLock
                0x0000000000004c72        0xa build/obj/hal_uart.o
 .text.osalSysUnlock
                0x0000000000004c7c        0xc build/obj/hal_uart.o
 .text.uartInit
                0x0000000000004c88        0x6 build/obj/hal_uart.o
                0x0000000000004c88                uartInit
 .text.uartObjectInit
                0x0000000000004c8e       0x1e build/obj/hal_uart.o
                0x0000000000004c8e                uartObjectInit
 .text.uartStart
                0x0000000000004cac       0x20 build/obj/hal_uart.o
                0x0000000000004cac                uartStart
 .text.uartStartSendI
                0x0000000000004ccc       0x28 build/obj/hal_uart.o
                0x0000000000004ccc                uartStartSendI
 .text.uartStartReceiveI
                0x0000000000004cf4       0x28 build/obj/hal_uart.o
                0x0000000000004cf4                uartStartReceiveI
 .text.uartStopReceiveI
                0x0000000000004d1c       0x20 build/obj/hal_uart.o
                0x0000000000004d1c                uartStopReceiveI
 .text.hal_lld_init
                0x0000000000004d3c       0x3c build/obj/hal_lld.o
                0x0000000000004d3c                hal_lld_init
 .text.ISR_MSP430X_ST_ISR
                0x0000000000004d78       0x36 build/obj/hal_st_lld.o
                0x0000000000004d78                ISR_MSP430X_ST_ISR
 .text.st_lld_init
                0x0000000000004dae       0x18 build/obj/hal_st_lld.o
                0x0000000000004dae                st_lld_init
 .text.ISR_PORT1_VECTOR
                0x0000000000004dc6       0x44 build/obj/hal_pal_lld.o
                0x0000000000004dc6                ISR_PORT1_VECTOR
 .text.ISR_PORT2_VECTOR
                0x0000000000004e0a       0x46 build/obj/hal_pal_lld.o
                0x0000000000004e0a                ISR_PORT2_VECTOR
 .text.ISR_PORT3_VECTOR
                0x0000000000004e50       0x48 build/obj/hal_pal_lld.o
                0x0000000000004e50                ISR_PORT3_VECTOR
 .text.ISR_PORT4_VECTOR
                0x0000000000004e98       0x48 build/obj/hal_pal_lld.o
                0x0000000000004e98                ISR_PORT4_VECTOR
 .text._pal_lld_init
                0x0000000000004ee0       0x5e build/obj/hal_pal_lld.o
                0x0000000000004ee0                _pal_lld_init
 .text._pal_lld_setgroupmode
                0x0000000000004f3e       0xe0 build/obj/hal_pal_lld.o
                0x0000000000004f3e                _pal_lld_setgroupmode
 .text._pal_lld_enablepadevent
                0x000000000000501e       0x9c build/obj/hal_pal_lld.o
                0x000000000000501e                _pal_lld_enablepadevent
 .text._pal_lld_disablepadevent
                0x00000000000050ba       0x1c build/obj/hal_pal_lld.o
                0x00000000000050ba                _pal_lld_disablepadevent
 .text.dma_trigger_set
                0x00000000000050d6       0x36 build/obj/hal_dma_lld.o
 .text.ISR_DMA_VECTOR
                0x000000000000510c       0x70 build/obj/hal_dma_lld.o
                0x000000000000510c                ISR_DMA_VECTOR
 .text.dmaInit  0x000000000000517c        0x6 build/obj/hal_dma_lld.o
                0x000000000000517c                dmaInit
 .text.dmaAcquireI
                0x0000000000005182       0x5c build/obj/hal_dma_lld.o
                0x0000000000005182                dmaAcquireI
 .text.dmaClaimI
                0x00000000000051de       0x42 build/obj/hal_dma_lld.o
                0x00000000000051de                dmaClaimI
 .text.dmaTransferI
                0x0000000000005220       0x70 build/obj/hal_dma_lld.o
                0x0000000000005220                dmaTransferI
 .text.dmaReleaseX
                0x0000000000005290       0x34 build/obj/hal_dma_lld.o
                0x0000000000005290                dmaReleaseX
 .text.dmaCancelI
                0x00000000000052c4       0x32 build/obj/hal_dma_lld.o
                0x00000000000052c4                dmaCancelI
 .text.init_transfer
                0x00000000000052f6       0x68 build/obj/hal_spi_lld.o
 .text.spi_lld_end_of_transfer
                0x000000000000535e       0x56 build/obj/hal_spi_lld.o
 .text.spi_lld_init
                0x00000000000053b4       0x58 build/obj/hal_spi_lld.o
                0x00000000000053b4                spi_lld_init
 .text.spi_lld_select
                0x000000000000540c       0x2e build/obj/hal_spi_lld.o
                0x000000000000540c                spi_lld_select
 .text.spi_lld_unselect
                0x000000000000543a       0x2e build/obj/hal_spi_lld.o
                0x000000000000543a                spi_lld_unselect
 .text.spi_lld_start
                0x0000000000005468       0x84 build/obj/hal_spi_lld.o
                0x0000000000005468                spi_lld_start
 .text.spi_lld_send
                0x00000000000054ec       0x22 build/obj/hal_spi_lld.o
                0x00000000000054ec                spi_lld_send
 .text.spi_lld_polled_exchange
                0x000000000000550e       0x22 build/obj/hal_spi_lld.o
                0x000000000000550e                spi_lld_polled_exchange
 .text.rx_cb    0x0000000000005530       0x3e build/obj/hal_uart_lld.o
 .text.UCBRS    0x000000000000556e      0x1e6 build/obj/hal_uart_lld.o
 .text.tx_cb    0x0000000000005754       0x54 build/obj/hal_uart_lld.o
 .text.ISR_USCI_A0_VECTOR
                0x00000000000057a8       0xee build/obj/hal_uart_lld.o
                0x00000000000057a8                ISR_USCI_A0_VECTOR
 .text.uart_lld_init
                0x0000000000005896       0x5c build/obj/hal_uart_lld.o
                0x0000000000005896                uart_lld_init
 .text.uart_lld_start
                0x00000000000058f2      0x1cc build/obj/hal_uart_lld.o
                0x00000000000058f2                uart_lld_start
 .text.uart_lld_start_send
                0x0000000000005abe       0x4a build/obj/hal_uart_lld.o
                0x0000000000005abe                uart_lld_start_send
 .text.uart_lld_start_receive
                0x0000000000005b08       0x4e build/obj/hal_uart_lld.o
                0x0000000000005b08                uart_lld_start_receive
 .text.uart_lld_stop_receive
                0x0000000000005b56       0x36 build/obj/hal_uart_lld.o
                0x0000000000005b56                uart_lld_stop_receive
 .text.gpt_lld_init
                0x0000000000005b8c       0x10 build/obj/hal_gpt_lld.o
                0x0000000000005b8c                gpt_lld_init
 .text.gpt_lld_start
                0x0000000000005b9c       0x80 build/obj/hal_gpt_lld.o
                0x0000000000005b9c                gpt_lld_start
 .text.gpt_lld_start_timer
                0x0000000000005c1c       0x22 build/obj/hal_gpt_lld.o
                0x0000000000005c1c                gpt_lld_start_timer
 .text.gpt_lld_stop_timer
                0x0000000000005c3e        0xc build/obj/hal_gpt_lld.o
                0x0000000000005c3e                gpt_lld_stop_timer
 .text.ISR_TIMER1_A1_VECTOR
                0x0000000000005c4a       0x64 build/obj/hal_gpt_lld.o
                0x0000000000005c4a                ISR_TIMER1_A1_VECTOR
 .text.boardInit
                0x0000000000005cae        0x4 build/obj/board.o
                0x0000000000005cae                boardInit
 .text.sx1278SetRegister
                0x0000000000005cb2       0x6a build/obj/sx1278.o
                0x0000000000005cb2                sx1278SetRegister
 .text.sx1278SetBitrate
                0x0000000000005d1c       0x48 build/obj/sx1278.o
                0x0000000000005d1c                sx1278SetBitrate
 .text.sx1278SetDeviation
                0x0000000000005d64       0x3c build/obj/sx1278.o
                0x0000000000005d64                sx1278SetDeviation
 .text.sx1278SetFrequency
                0x0000000000005da0       0xc6 build/obj/sx1278.o
                0x0000000000005da0                sx1278SetFrequency
 .text.sx1278SetPower
                0x0000000000005e66        0xc build/obj/sx1278.o
                0x0000000000005e66                sx1278SetPower
 .text.sx1278SetSync
                0x0000000000005e72       0x58 build/obj/sx1278.o
                0x0000000000005e72                sx1278SetSync
 .text.sx1278ObjectInit
                0x0000000000005eca       0x10 build/obj/sx1278.o
                0x0000000000005eca                sx1278ObjectInit
 .text.spi_callback
                0x0000000000005eda       0x3a build/obj/sx1278.o
                0x0000000000005eda                spi_callback
 .text.sx1278Start
                0x0000000000005f14      0x13e build/obj/sx1278.o
                0x0000000000005f14                sx1278Start
 .text.sx1278FifoWriteAsync
                0x0000000000006052       0x9a build/obj/sx1278.o
                0x0000000000006052                sx1278FifoWriteAsync
 .text.sx1278FifoWriteAsyncS
                0x00000000000060ec       0xa8 build/obj/sx1278.o
                0x00000000000060ec                sx1278FifoWriteAsyncS
 .text.sx1278StartTransmit
                0x0000000000006194       0xb2 build/obj/sx1278.o
                0x0000000000006194                sx1278StartTransmit
 .text.sx1278Reset.isra.1
                0x0000000000006246       0x8a build/obj/sx1278.o
 .text.sx1278SetMode.constprop.5
                0x00000000000062d0       0x14 build/obj/sx1278.o
 .text.blockuntil_callback
                0x00000000000062e4       0x14 build/obj/sx1212.o
 .text.sx1212SetRegister.isra.0
                0x00000000000062f8       0x36 build/obj/sx1212.o
 .text.sx1212SetMode
                0x000000000000632e       0x16 build/obj/sx1212.o
 .text.sx1212Reset.isra.2
                0x0000000000006344       0x92 build/obj/sx1212.o
 .text.irq_block_with_timeout.isra.3
                0x00000000000063d6       0x64 build/obj/sx1212.o
 .text.spi_mode_config
                0x000000000000643a       0x18 build/obj/sx1212.o
                0x000000000000643a                spi_mode_config
 .text.sx1212SetBitrate
                0x0000000000006452       0xe4 build/obj/sx1212.o
                0x0000000000006452                sx1212SetBitrate
 .text.sx1212SetDeviation
                0x0000000000006536       0x24 build/obj/sx1212.o
                0x0000000000006536                sx1212SetDeviation
 .text.sx1212SetFrequency
                0x000000000000655a      0x2d8 build/obj/sx1212.o
                0x000000000000655a                sx1212SetFrequency
 .text.sx1212SetSync
                0x0000000000006832       0x3c build/obj/sx1212.o
                0x0000000000006832                sx1212SetSync
 .text.sx1212SetRxBw
                0x000000000000686e       0x18 build/obj/sx1212.o
                0x000000000000686e                sx1212SetRxBw
 .text.sx1212Start
                0x0000000000006886      0x15c build/obj/sx1212.o
                0x0000000000006886                sx1212Start
 .text.sx1212ReceiveI
                0x00000000000069e2       0x34 build/obj/sx1212.o
                0x00000000000069e2                sx1212ReceiveI
 .text.sx1212StartReceive
                0x0000000000006a16       0x8c build/obj/sx1212.o
                0x0000000000006a16                sx1212StartReceive
 .text.sx1212FifoRead
                0x0000000000006aa2       0x72 build/obj/sx1212.o
                0x0000000000006aa2                sx1212FifoRead
 .text.sx1212StopReceive
                0x0000000000006b14       0x1c build/obj/sx1212.o
                0x0000000000006b14                sx1212StopReceive
 .text.send_complete_cb
                0x0000000000006b30       0x3c build/obj/uart.o
                0x0000000000006b30                send_complete_cb
 .text.elyUARTCfgMarkDirty
                0x0000000000006b6c        0xe build/obj/uart.o
                0x0000000000006b6c                elyUARTCfgMarkDirty
 .text.elyUARTPostI
                0x0000000000006b7a       0x24 build/obj/uart.o
                0x0000000000006b7a                elyUARTPostI
 .text.elyUARTPost
                0x0000000000006b9e       0x38 build/obj/uart.o
                0x0000000000006b9e                elyUARTPost
 .text.UARTThd  0x0000000000006bd6      0x166 build/obj/uart.o
                0x0000000000006bd6                UARTThd
 .text.elyMainMBPost
                0x0000000000006d3c        0xe build/obj/main.o
                0x0000000000006d3c                elyMainMBPost
 .text.MainThd  0x0000000000006d4a       0xc0 build/obj/main.o
                0x0000000000006d4a                MainThd
 .text.port_lock
                0x0000000000006e0a        0x6 build/obj/cmds.o
 .text.port_unlock
                0x0000000000006e10        0x8 build/obj/cmds.o
 .text.reset    0x0000000000006e18       0x10 build/obj/cmds.o
 .text.gen_success
                0x0000000000006e28       0x52 build/obj/cmds.o
 .text.gen_failure
                0x0000000000006e7a       0x4c build/obj/cmds.o
 .text.store_telem
                0x0000000000006ec6       0x60 build/obj/cmds.o
 .text.store_telem_noreply_cb
                0x0000000000006f26       0x1a build/obj/cmds.o
 .text.upload_fw_noreply_cb
                0x0000000000006f40       0x1e build/obj/cmds.o
 .text.verify_fw
                0x0000000000006f5e       0x86 build/obj/cmds.o
 .text.get_gpo.part.14
                0x0000000000006fe4        0xa build/obj/cmds.o
 .text.cancel_fw_eeprom_cb
                0x0000000000006fee       0x24 build/obj/cmds.o
 .text.elyCmdParse
                0x0000000000007012       0x2c build/obj/cmds.o
                0x0000000000007012                elyCmdParse
 .text.elyCmdValidate
                0x000000000000703e      0x242 build/obj/cmds.o
                0x000000000000703e                elyCmdValidate
 .text.elyCmdDispatch
                0x0000000000007280       0x30 build/obj/cmds.o
                0x0000000000007280                elyCmdDispatch
 .text.elyCmdSendReplyI
                0x00000000000072b0       0x2c build/obj/cmds.o
                0x00000000000072b0                elyCmdSendReplyI
 .text.store_telem_reply_cb
                0x00000000000072dc       0x28 build/obj/cmds.o
 .text.install_fw
                0x0000000000007304       0x36 build/obj/cmds.o
 .text.cancel_fw
                0x000000000000733a       0xba build/obj/cmds.o
 .text.verify_fw_cb
                0x00000000000073f4       0x34 build/obj/cmds.o
 .text.upload_fw_reply_cb
                0x0000000000007428       0x2a build/obj/cmds.o
 .text.elyCmdSendReply
                0x0000000000007452       0x26 build/obj/cmds.o
                0x0000000000007452                elyCmdSendReply
 .text.get_telem
                0x0000000000007478      0x164 build/obj/cmds.o
 .text.upload_fw
                0x00000000000075dc      0x152 build/obj/cmds.o
 .text.set_log  0x000000000000772e       0x80 build/obj/cmds.o
 .text.get_log  0x00000000000077ae       0x5c build/obj/cmds.o
 .text.set_err  0x000000000000780a       0x80 build/obj/cmds.o
 .text.get_err  0x000000000000788a       0x5c build/obj/cmds.o
 .text.get_time
                0x00000000000078e6       0x70 build/obj/cmds.o
 .text.set_time
                0x0000000000007956       0x8c build/obj/cmds.o
 .text.reset_event
                0x00000000000079e2       0x34 build/obj/cmds.o
 .text.unlog_event
                0x0000000000007a16       0x96 build/obj/cmds.o
 .text.log_event
                0x0000000000007aac       0xb2 build/obj/cmds.o
 .text.event_unsub
                0x0000000000007b5e       0x96 build/obj/cmds.o
 .text.event_sub
                0x0000000000007bf4       0xe8 build/obj/cmds.o
 .text.reset_chan
                0x0000000000007cdc       0x34 build/obj/cmds.o
 .text.get_chan
                0x0000000000007d10       0xae build/obj/cmds.o
 .text.unlog_chan
                0x0000000000007dbe       0x9a build/obj/cmds.o
 .text.log_chan
                0x0000000000007e58      0x132 build/obj/cmds.o
 .text.channel_unsub
                0x0000000000007f8a       0x8e build/obj/cmds.o
 .text.channel_sub
                0x0000000000008018      0x13e build/obj/cmds.o
 .text.reload_config
                0x0000000000008156       0xa6 build/obj/cmds.o
 .text.set_baud
                0x00000000000081fc       0xbe build/obj/cmds.o
 .text.get_baud
                0x00000000000082ba       0x72 build/obj/cmds.o
 .text.set_tx_pow
                0x000000000000832c       0x72 build/obj/cmds.o
 .text.get_tx_pow
                0x000000000000839e       0x5c build/obj/cmds.o
 .text.set_rx_dev
                0x00000000000083fa       0xc4 build/obj/cmds.o
 .text.get_rx_dev
                0x00000000000084be       0x72 build/obj/cmds.o
 .text.set_tx_dev
                0x0000000000008530       0xc6 build/obj/cmds.o
 .text.get_tx_dev
                0x00000000000085f6       0x72 build/obj/cmds.o
 .text.set_rx_br
                0x0000000000008668       0xc2 build/obj/cmds.o
 .text.get_rx_br
                0x000000000000872a       0x72 build/obj/cmds.o
 .text.set_tx_br
                0x000000000000879c       0xc2 build/obj/cmds.o
 .text.get_tx_br
                0x000000000000885e       0x72 build/obj/cmds.o
 .text.set_rx_freq
                0x00000000000088d0       0xc6 build/obj/cmds.o
 .text.get_rx_freq
                0x0000000000008996       0x72 build/obj/cmds.o
 .text.set_tx_freq
                0x0000000000008a08       0xda build/obj/cmds.o
 .text.get_tx_freq
                0x0000000000008ae2       0x70 build/obj/cmds.o
 .text.set_block
                0x0000000000008b52       0x82 build/obj/cmds.o
 .text.get_block
                0x0000000000008bd4       0x98 build/obj/cmds.o
 .text.set_regs
                0x0000000000008c6c       0x8e build/obj/cmds.o
 .text.get_regs
                0x0000000000008cfa       0x98 build/obj/cmds.o
 .text.get_active_bank
                0x0000000000008d92       0x64 build/obj/cmds.o
 .text.set_gpo  0x0000000000008df6       0x88 build/obj/cmds.o
 .text.get_gpo  0x0000000000008e7e       0x64 build/obj/cmds.o
 .text.clamp    0x0000000000008ee2       0x2c build/obj/registers.o
 .text.fram_reg_cb
                0x0000000000008f0e       0x2e build/obj/registers.o
                0x0000000000008f0e                fram_reg_cb
 .text.fram_block_cb
                0x0000000000008f3c       0x20 build/obj/registers.o
                0x0000000000008f3c                fram_block_cb
 .text.fram_reg
                0x0000000000008f5c       0x8a build/obj/registers.o
                0x0000000000008f5c                fram_reg
 .text.fram_block
                0x0000000000008fe6       0xc4 build/obj/registers.o
                0x0000000000008fe6                fram_block
 .text.elyClampReg
                0x00000000000090aa      0x492 build/obj/registers.o
                0x00000000000090aa                elyClampReg
 .text.elyRegGet
                0x000000000000953c       0x90 build/obj/registers.o
                0x000000000000953c                elyRegGet
 .text.elyRegSet
                0x00000000000095cc       0x94 build/obj/registers.o
                0x00000000000095cc                elyRegSet
 .text.elyRegGetBlock
                0x0000000000009660       0x80 build/obj/registers.o
                0x0000000000009660                elyRegGetBlock
 .text.elyRegSetBlock
                0x00000000000096e0       0x8c build/obj/registers.o
                0x00000000000096e0                elyRegSetBlock
 .text.calc_next_buff
                0x000000000000976c       0xa4 build/obj/slip_uart_dll.o
                0x000000000000976c                calc_next_buff
 .text.elyUARTDLLTxCB
                0x0000000000009810       0x6a build/obj/slip_uart_dll.o
                0x0000000000009810                elyUARTDLLTxCB
 .text.elyUARTDLLStartTx
                0x000000000000987a       0x7e build/obj/slip_uart_dll.o
                0x000000000000987a                elyUARTDLLStartTx
 .text.elyUARTDLLRxInit
                0x00000000000098f8        0x8 build/obj/slip_uart_dll.o
                0x00000000000098f8                elyUARTDLLRxInit
 .text.elyUARTDLLRxHandleBuffer
                0x0000000000009900      0x15e build/obj/slip_uart_dll.o
                0x0000000000009900                elyUARTDLLRxHandleBuffer
 .text.elyUARTDLLTimeoutCB
                0x0000000000009a5e       0x28 build/obj/slip_uart_dll.o
                0x0000000000009a5e                elyUARTDLLTimeoutCB
 .text.elyUARTDLLRxCharCB
                0x0000000000009a86       0x44 build/obj/slip_uart_dll.o
                0x0000000000009a86                elyUARTDLLRxCharCB
 .text.elyUARTDLLRxCB
                0x0000000000009aca       0x5c build/obj/slip_uart_dll.o
                0x0000000000009aca                elyUARTDLLRxCB
 .text.crcGenX25
                0x0000000000009b26       0x36 build/obj/crc_x25.o
                0x0000000000009b26                crcGenX25
 .text.crcCheckX25
                0x0000000000009b5c       0x3c build/obj/crc_x25.o
                0x0000000000009b5c                crcCheckX25
 .text.crcStart
                0x0000000000009b98        0xa build/obj/crc_x25.o
                0x0000000000009b98                crcStart
 .text.crcStop  0x0000000000009ba2        0x8 build/obj/crc_x25.o
                0x0000000000009ba2                crcStop
 .text.crcGenSDLP
                0x0000000000009baa       0x2e build/obj/crc_sdlp.o
                0x0000000000009baa                crcGenSDLP
 .text.rxfifothresh_callback
                0x0000000000009bd8       0x18 build/obj/sdlp.o
                0x0000000000009bd8                rxfifothresh_callback
 .text.txlvl_callback
                0x0000000000009bf0       0x18 build/obj/sdlp.o
                0x0000000000009bf0                txlvl_callback
 .text.write_cb
                0x0000000000009c08       0x6e build/obj/sdlp.o
                0x0000000000009c08                write_cb
 .text.elyRFChangeTxSyncS
                0x0000000000009c76       0x42 build/obj/sdlp.o
                0x0000000000009c76                elyRFChangeTxSyncS
 .text.elyDLLClampReg
                0x0000000000009cb8      0x11e build/obj/sdlp.o
                0x0000000000009cb8                elyDLLClampReg
 .text.elyRFDLLBuildFrame
                0x0000000000009dd6      0x21a build/obj/sdlp.o
                0x0000000000009dd6                elyRFDLLBuildFrame
 .text.elyRFDLLRxInit
                0x0000000000009ff0       0x2c build/obj/sdlp.o
                0x0000000000009ff0                elyRFDLLRxInit
 .text.elyRFDLLHandleRxFifo
                0x000000000000a01c      0x13e build/obj/sdlp.o
                0x000000000000a01c                elyRFDLLHandleRxFifo
 .text.elyRFDLLTxInit
                0x000000000000a15a       0x56 build/obj/sdlp.o
                0x000000000000a15a                elyRFDLLTxInit
 .text.elyRFDLLInitiateTransmit
                0x000000000000a1b0       0x26 build/obj/sdlp.o
                0x000000000000a1b0                elyRFDLLInitiateTransmit
 .text.elyRFDLLHandleTxFifo
                0x000000000000a1d6       0x4a build/obj/sdlp.o
                0x000000000000a1d6                elyRFDLLHandleTxFifo
 .text.port_lock
                0x000000000000a220        0x6 build/obj/rf.o
 .text.port_unlock
                0x000000000000a226        0x8 build/obj/rf.o
 .text.elyRFPostI
                0x000000000000a22e       0x26 build/obj/rf.o
                0x000000000000a22e                elyRFPostI
 .text.elyRFPost
                0x000000000000a254       0x3c build/obj/rf.o
                0x000000000000a254                elyRFPost
 .text.elyRFCfgMarkDirty
                0x000000000000a290        0xe build/obj/rf.o
                0x000000000000a290                elyRFCfgMarkDirty
 .text.elyRFChangeTxFreqS
                0x000000000000a29e       0x4e build/obj/rf.o
                0x000000000000a29e                elyRFChangeTxFreqS
 .text.elyRFChangeRxFreqS
                0x000000000000a2ec       0x50 build/obj/rf.o
                0x000000000000a2ec                elyRFChangeRxFreqS
 .text.elyRFChangeTxBRS
                0x000000000000a33c       0x50 build/obj/rf.o
                0x000000000000a33c                elyRFChangeTxBRS
 .text.elyRFChangeRxBRS
                0x000000000000a38c       0x50 build/obj/rf.o
                0x000000000000a38c                elyRFChangeRxBRS
 .text.elyRFChangeTxDevS
                0x000000000000a3dc       0x50 build/obj/rf.o
                0x000000000000a3dc                elyRFChangeTxDevS
 .text.elyRFChangeRxDevS
                0x000000000000a42c       0x50 build/obj/rf.o
                0x000000000000a42c                elyRFChangeRxDevS
 .text.elyRFChangeRxSyncS
                0x000000000000a47c       0x50 build/obj/rf.o
                0x000000000000a47c                elyRFChangeRxSyncS
 .text.elyRFChangeTxPowerS
                0x000000000000a4cc       0x16 build/obj/rf.o
                0x000000000000a4cc                elyRFChangeTxPowerS
 .text.elyRFChangeRxFilterParamsS
                0x000000000000a4e2       0x22 build/obj/rf.o
                0x000000000000a4e2                elyRFChangeRxFilterParamsS
 .text.RFThd    0x000000000000a504      0x3b0 build/obj/rf.o
                0x000000000000a504                RFThd
 .text.nl_allocator
                0x000000000000a8b4       0x20 build/obj/spp.o
                0x000000000000a8b4                nl_allocator
 .text.clamp    0x000000000000a8d4       0x2c build/obj/spp.o
 .text.elyNLClampReg
                0x000000000000a900       0xd6 build/obj/spp.o
                0x000000000000a900                elyNLClampReg
 .text.elyNLGetBuffer
                0x000000000000a9d6        0xa build/obj/spp.o
                0x000000000000a9d6                elyNLGetBuffer
 .text.elyNLFreeBuffer
                0x000000000000a9e0        0xc build/obj/spp.o
                0x000000000000a9e0                elyNLFreeBuffer
 .text.elyNLGetBufferI
                0x000000000000a9ec        0xe build/obj/spp.o
                0x000000000000a9ec                elyNLGetBufferI
 .text.elyNLFreeBufferI
                0x000000000000a9fa       0x16 build/obj/spp.o
                0x000000000000a9fa                elyNLFreeBufferI
 .text.elyNLGetDest
                0x000000000000aa10       0x38 build/obj/spp.o
                0x000000000000aa10                elyNLGetDest
 .text.get_sh_len
                0x000000000000aa48       0x1e build/obj/spp.o
                0x000000000000aa48                get_sh_len
 .text.elyNLSetDest
                0x000000000000aa66       0x48 build/obj/spp.o
                0x000000000000aa66                elyNLSetDest
 .text.elyNLGetLength
                0x000000000000aaae       0x14 build/obj/spp.o
                0x000000000000aaae                elyNLGetLength
 .text.elyNLValidate
                0x000000000000aac2       0x5e build/obj/spp.o
                0x000000000000aac2                elyNLValidate
 .text.elyNLExtract
                0x000000000000ab20       0x12 build/obj/spp.o
                0x000000000000ab20                elyNLExtract
 .text.elyNLPack
                0x000000000000ab32       0xb2 build/obj/spp.o
                0x000000000000ab32                elyNLPack
 .text.Vector1  0x000000000000abe4        0x2 build/obj/msp_vectors.o
                0x000000000000abe4                Vector1
 .text.Vector2  0x000000000000abe6        0x2 build/obj/msp_vectors.o
                0x000000000000abe6                Vector2
 .text.Vector3  0x000000000000abe8        0x2 build/obj/msp_vectors.o
                0x000000000000abe8                Vector3
 .text.Vector4  0x000000000000abea        0x2 build/obj/msp_vectors.o
                0x000000000000abea                Vector4
 .text.Vector5  0x000000000000abec        0x2 build/obj/msp_vectors.o
                0x000000000000abec                Vector5
 .text.Vector6  0x000000000000abee        0x2 build/obj/msp_vectors.o
                0x000000000000abee                Vector6
 .text.Vector7  0x000000000000abf0        0x2 build/obj/msp_vectors.o
                0x000000000000abf0                Vector7
 .text.Vector8  0x000000000000abf2        0x2 build/obj/msp_vectors.o
                0x000000000000abf2                Vector8
 .text.Vector9  0x000000000000abf4        0x2 build/obj/msp_vectors.o
                0x000000000000abf4                Vector9
 .text.Vector10
                0x000000000000abf6        0x2 build/obj/msp_vectors.o
                0x000000000000abf6                Vector10
 .text.Vector11
                0x000000000000abf8        0x2 build/obj/msp_vectors.o
                0x000000000000abf8                Vector11
 .text.Vector12
                0x000000000000abfa        0x2 build/obj/msp_vectors.o
                0x000000000000abfa                Vector12
 .text.Vector13
                0x000000000000abfc        0x2 build/obj/msp_vectors.o
                0x000000000000abfc                Vector13
 .text.Vector14
                0x000000000000abfe        0x2 build/obj/msp_vectors.o
                0x000000000000abfe                Vector14
 .text.Vector15
                0x000000000000ac00        0x2 build/obj/msp_vectors.o
                0x000000000000ac00                Vector15
 .text.Vector16
                0x000000000000ac02        0x2 build/obj/msp_vectors.o
                0x000000000000ac02                Vector16
 .text.Vector17
                0x000000000000ac04        0x2 build/obj/msp_vectors.o
                0x000000000000ac04                Vector17
 .text.Vector18
                0x000000000000ac06        0x2 build/obj/msp_vectors.o
                0x000000000000ac06                Vector18
 .text.Vector19
                0x000000000000ac08        0x2 build/obj/msp_vectors.o
                0x000000000000ac08                Vector19
 .text.Vector20
                0x000000000000ac0a        0x2 build/obj/msp_vectors.o
                0x000000000000ac0a                Vector20
 .text.Vector21
                0x000000000000ac0c        0x2 build/obj/msp_vectors.o
                0x000000000000ac0c                Vector21
 .text.Vector22
                0x000000000000ac0e        0x2 build/obj/msp_vectors.o
                0x000000000000ac0e                Vector22
 .text.Vector23
                0x000000000000ac10        0x2 build/obj/msp_vectors.o
                0x000000000000ac10                Vector23
 .text.Vector24
                0x000000000000ac12        0x2 build/obj/msp_vectors.o
                0x000000000000ac12                Vector24
 .text.Vector25
                0x000000000000ac14        0x2 build/obj/msp_vectors.o
                0x000000000000ac14                Vector25
 .text.Vector26
                0x000000000000ac16        0x2 build/obj/msp_vectors.o
                0x000000000000ac16                Vector26
 .text.Vector27
                0x000000000000ac18        0x2 build/obj/msp_vectors.o
                0x000000000000ac18                Vector27
 .text.Vector28
                0x000000000000ac1a        0x2 build/obj/msp_vectors.o
                0x000000000000ac1a                Vector28
 .text.Vector29
                0x000000000000ac1c        0x2 build/obj/msp_vectors.o
                0x000000000000ac1c                Vector29
 .text.Vector30
                0x000000000000ac1e        0x2 build/obj/msp_vectors.o
                0x000000000000ac1e                Vector30
 .text.Vector31
                0x000000000000ac20        0x2 build/obj/msp_vectors.o
                0x000000000000ac20                Vector31
 .text.Vector32
                0x000000000000ac22        0x2 build/obj/msp_vectors.o
                0x000000000000ac22                Vector32
 .text.Vector35
                0x000000000000ac24        0x2 build/obj/msp_vectors.o
                0x000000000000ac24                Vector35
 .text.Vector36
                0x000000000000ac26        0x2 build/obj/msp_vectors.o
                0x000000000000ac26                Vector36
 .text.Vector38
                0x000000000000ac28        0x2 build/obj/msp_vectors.o
                0x000000000000ac28                Vector38
 .text.Vector39
                0x000000000000ac2a        0x2 build/obj/msp_vectors.o
                0x000000000000ac2a                Vector39
 .text.Vector42
                0x000000000000ac2c        0x2 build/obj/msp_vectors.o
                0x000000000000ac2c                Vector42
 .text.Vector45
                0x000000000000ac2e        0x2 build/obj/msp_vectors.o
                0x000000000000ac2e                Vector45
 .text.Vector46
                0x000000000000ac30        0x2 build/obj/msp_vectors.o
                0x000000000000ac30                Vector46
 .text.Vector47
                0x000000000000ac32        0x2 build/obj/msp_vectors.o
                0x000000000000ac32                Vector47
 .text.Vector48
                0x000000000000ac34        0x2 build/obj/msp_vectors.o
                0x000000000000ac34                Vector48
 .text.Vector50
                0x000000000000ac36        0x2 build/obj/msp_vectors.o
                0x000000000000ac36                Vector50
 .text.Vector51
                0x000000000000ac38        0x2 build/obj/msp_vectors.o
                0x000000000000ac38                Vector51
 .text.Vector53
                0x000000000000ac3a        0x2 build/obj/msp_vectors.o
                0x000000000000ac3a                Vector53
 .text.Vector54
                0x000000000000ac3c        0x2 build/obj/msp_vectors.o
                0x000000000000ac3c                Vector54
 .text.Vector55
                0x000000000000ac3e        0x2 build/obj/msp_vectors.o
                0x000000000000ac3e                Vector55
 .text.Thread2  0x000000000000ac40       0x1a build/obj/test.o
                0x000000000000ac40                Thread2
 .text.elyErrorSignal
                0x000000000000ac5a       0x12 build/obj/test.o
                0x000000000000ac5a                elyErrorSignal
 .text.elyErrorSetLogLvlS
                0x000000000000ac6c        0x2 build/obj/test.o
                0x000000000000ac6c                elyErrorSetLogLvlS
 .text.elyErrorSetRptLvlS
                0x000000000000ac6e        0x2 build/obj/test.o
                0x000000000000ac6e                elyErrorSetRptLvlS
 .text.elyEventSignal
                0x000000000000ac70       0x1e build/obj/test.o
                0x000000000000ac70                elyEventSignal
 .text.elyEventSubscribe
                0x000000000000ac8e       0x1e build/obj/test.o
                0x000000000000ac8e                elyEventSubscribe
 .text.elyEventUnsubscribe
                0x000000000000acac       0x1e build/obj/test.o
                0x000000000000acac                elyEventUnsubscribe
 .text.elyEventLog
                0x000000000000acca       0x1e build/obj/test.o
                0x000000000000acca                elyEventLog
 .text.elyEventUnlog
                0x000000000000ace8       0x1e build/obj/test.o
                0x000000000000ace8                elyEventUnlog
 .text.elyEventReset
                0x000000000000ad06       0x1e build/obj/test.o
                0x000000000000ad06                elyEventReset
 .text.elyChanSubscribe
                0x000000000000ad24       0x4a build/obj/test.o
                0x000000000000ad24                elyChanSubscribe
 .text.elyChanUnsubscribe
                0x000000000000ad6e       0x4a build/obj/test.o
                0x000000000000ad6e                elyChanUnsubscribe
 .text.elyChanLog
                0x000000000000adb8       0x4a build/obj/test.o
                0x000000000000adb8                elyChanLog
 .text.elyChanUnlog
                0x000000000000ae02       0x4a build/obj/test.o
                0x000000000000ae02                elyChanUnlog
 .text.elyChanGetValue
                0x000000000000ae4c        0x8 build/obj/test.o
                0x000000000000ae4c                elyChanGetValue
 .text.elyChanReset
                0x000000000000ae54       0x16 build/obj/test.o
                0x000000000000ae54                elyChanReset
 .text.elyTelemPostBufferS
                0x000000000000ae6a        0x4 build/obj/test.o
                0x000000000000ae6a                elyTelemPostBufferS
 .text.elyTelemUpdateConfigS
                0x000000000000ae6e        0x6 build/obj/test.o
                0x000000000000ae6e                elyTelemUpdateConfigS
 .text.elyFramGetRequest
                0x000000000000ae74       0x26 build/obj/test.o
                0x000000000000ae74                elyFramGetRequest
 .text.elyFramGetRequestTimeoutS
                0x000000000000ae9a       0x26 build/obj/test.o
                0x000000000000ae9a                elyFramGetRequestTimeoutS
 .text.elyFramPostRequest
                0x000000000000aec0       0x12 build/obj/test.o
                0x000000000000aec0                elyFramPostRequest
 .text.startup.main
                0x000000000000aed2       0x10 build/obj/test.o
                0x000000000000aed2                main
 .text.udivmodsi4
                0x000000000000aee2       0x80 /home/awygle/toolchain/install/bin/../lib/gcc/msp430-elf/6.2.0/libgcc.a(lib2divSI.o)
                0x000000000000aee2                udivmodsi4
 .text.__udivsi3
                0x000000000000af62        0xe /home/awygle/toolchain/install/bin/../lib/gcc/msp430-elf/6.2.0/libgcc.a(lib2divSI.o)
                0x000000000000af62                __mspabi_divul
                0x000000000000af62                __mspabi_divlu
 .text          0x000000000000af70       0x74 /home/awygle/toolchain/install/bin/../lib/gcc/msp430-elf/6.2.0/libgcc.a(slli.o)
                0x000000000000af70                __mspabi_slli_15
                0x000000000000af72                __mspabi_slli_14
                0x000000000000af74                __mspabi_slli_13
                0x000000000000af76                __mspabi_slli_12
                0x000000000000af78                __mspabi_slli_11
                0x000000000000af7a                __mspabi_slli_10
                0x000000000000af7c                __mspabi_slli_9
                0x000000000000af7e                __mspabi_slli_8
                0x000000000000af80                __mspabi_slli_7
                0x000000000000af82                __mspabi_slli_6
                0x000000000000af84                __mspabi_slli_5
                0x000000000000af86                __mspabi_slli_4
                0x000000000000af88                __mspabi_slli_3
                0x000000000000af8a                __mspabi_slli_2
                0x000000000000af8c                __mspabi_slli_1
                0x000000000000af94                __mspabi_slli
                0x000000000000af9a                __mspabi_slll_15
                0x000000000000af9e                __mspabi_slll_14
                0x000000000000afa2                __mspabi_slll_13
                0x000000000000afa6                __mspabi_slll_12
                0x000000000000afaa                __mspabi_slll_11
                0x000000000000afae                __mspabi_slll_10
                0x000000000000afb2                __mspabi_slll_9
                0x000000000000afb6                __mspabi_slll_8
                0x000000000000afba                __mspabi_slll_7
                0x000000000000afbe                __mspabi_slll_6
                0x000000000000afc2                __mspabi_slll_5
                0x000000000000afc6                __mspabi_slll_4
                0x000000000000afca                __mspabi_slll_3
                0x000000000000afce                __mspabi_slll_2
                0x000000000000afd2                __mspabi_slll_1
                0x000000000000afde                __mspabi_slll
 .text          0x000000000000afe4       0xb4 /home/awygle/toolchain/install/bin/../lib/gcc/msp430-elf/6.2.0/libgcc.a(srli.o)
                0x000000000000afe4                __mspabi_srli_15
                0x000000000000afe8                __mspabi_srli_14
                0x000000000000afec                __mspabi_srli_13
                0x000000000000aff0                __mspabi_srli_12
                0x000000000000aff4                __mspabi_srli_11
                0x000000000000aff8                __mspabi_srli_10
                0x000000000000affc                __mspabi_srli_9
                0x000000000000b000                __mspabi_srli_8
                0x000000000000b004                __mspabi_srli_7
                0x000000000000b008                __mspabi_srli_6
                0x000000000000b00c                __mspabi_srli_5
                0x000000000000b010                __mspabi_srli_4
                0x000000000000b014                __mspabi_srli_3
                0x000000000000b018                __mspabi_srli_2
                0x000000000000b01c                __mspabi_srli_1
                0x000000000000b028                __mspabi_srli
                0x000000000000b02e                __mspabi_srll_15
                0x000000000000b034                __mspabi_srll_14
                0x000000000000b03a                __mspabi_srll_13
                0x000000000000b040                __mspabi_srll_12
                0x000000000000b046                __mspabi_srll_11
                0x000000000000b04c                __mspabi_srll_10
                0x000000000000b052                __mspabi_srll_9
                0x000000000000b058                __mspabi_srll_8
                0x000000000000b05e                __mspabi_srll_7
                0x000000000000b064                __mspabi_srll_6
                0x000000000000b06a                __mspabi_srll_5
                0x000000000000b070                __mspabi_srll_4
                0x000000000000b076                __mspabi_srll_3
                0x000000000000b07c                __mspabi_srll_2
                0x000000000000b082                __mspabi_srll_1
                0x000000000000b092                __mspabi_srll
 .text          0x000000000000b098       0x28 /home/awygle/toolchain/install/bin/../lib/gcc/msp430-elf/6.2.0/libgcc.a(cmpsi2.o)
                0x000000000000b098                __cmpsi2
                0x000000000000b0b0                __ucmpsi2
 .text.__mulhi2_f5
                0x000000000000b0c0       0x14 /home/awygle/toolchain/install/bin/../lib/gcc/msp430-elf/6.2.0/libmul_f5.a(lib2hw_mul_f5.o)
                0x000000000000b0c0                __mulhi2_f5
                0x000000000000b0c0                __mspabi_mpyi_f5hw
                0x000000000000b0c0                __mspabi_mpyi
 .text.__mulsi2_f5
                0x000000000000b0d4       0x20 /home/awygle/toolchain/install/bin/../lib/gcc/msp430-elf/6.2.0/libmul_f5.a(lib2hw_mul_f5.o)
                0x000000000000b0d4                __mspabi_mpyl
                0x000000000000b0d4                __mspabi_mpyl_f5hw
                0x000000000000b0d4                __mulsi2_f5
 .text.memcpy   0x000000000000b0f4       0x14 /home/awygle/toolchain/install/bin/../lib/gcc/msp430-elf/6.2.0/../../../../msp430-elf/lib/libc.a(lib_a-memcpy.o)
                0x000000000000b0f4                memcpy
 .text.memmove  0x000000000000b108       0x3a /home/awygle/toolchain/install/bin/../lib/gcc/msp430-elf/6.2.0/../../../../msp430-elf/lib/libc.a(lib_a-memmove.o)
                0x000000000000b108                memmove
 .text.memset   0x000000000000b142       0x12 /home/awygle/toolchain/install/bin/../lib/gcc/msp430-elf/6.2.0/../../../../msp430-elf/lib/libc.a(lib_a-memset.o)
                0x000000000000b142                memset
 *(.text.*personality*)
 *(.gnu.warning)
 *(.interp .hash .dynsym .dynstr .gnu.version*)
                [!provide]                        PROVIDE (__etext, .)
                [!provide]                        PROVIDE (_etext, .)
                [!provide]                        PROVIDE (etext, .)
                0x000000000000b154                . = ALIGN (0x2)
 *(.init)
 *(.fini)
 *(.tm_clone_table)

.stack          0x000000000000b154      0xc00
                0x000000000000b154                __main_thread_stack_end__ = .
 *(.stack)
                0x000000000000bd54                . = (. + __idle_stack_size__)
 *fill*         0x000000000000b154      0xc00 
                0x000000000000bd54                PROVIDE (__stack, .)
                0x000000000000bd54                . = ALIGN (0x2)
                0x000000000000bd54                __main_thread_stack_base__ = .

.rodata         0x000000000000bd54       0xd4
                0x000000000000bd54                . = ALIGN (0x2)
 *(.plt)
 *(.rodata .rodata.* .gnu.linkonce.r.* .const .const:*)
 .rodata        0x000000000000bd54       0x39 build/obj/ch.o
 *fill*         0x000000000000bd8d        0x1 
 .rodata        0x000000000000bd8e       0x1e build/obj/board.o
                0x000000000000bd8e                pal_default_config
 .rodata        0x000000000000bdac       0x10 build/obj/sx1212.o
 .rodata        0x000000000000bdbc        0x4 build/obj/registers.o
                0x000000000000bdbc                bank0w
                0x000000000000bdbe                bank0p
 .rodata        0x000000000000bdc0        0x6 build/obj/slip_uart_dll.o
 .rodata        0x000000000000bdc6       0x62 build/obj/test.o
                0x000000000000bdf6                nil_thd_configs
 *(.rodata1)
 *(.lower.rodata.* .lower.rodata)
 *(.gcc_except_table)
 *(.gcc_except_table.*)
                [!provide]                        PROVIDE (__preinit_array_start, .)
 *(.preinit_array)
                [!provide]                        PROVIDE (__preinit_array_end, .)
                [!provide]                        PROVIDE (__init_array_start, .)
 *(SORT(.init_array.*))
 *(.init_array)
                [!provide]                        PROVIDE (__init_array_end, .)
                [!provide]                        PROVIDE (__fini_array_start, .)
 *(.fini_array)
 *(SORT(.fini_array.*))
                [!provide]                        PROVIDE (__fini_array_end, .)

.rodata2        0x000000000000be28       0x44
                0x000000000000be28                . = ALIGN (0x2)
 *(.eh_frame_hdr)
 *(.eh_frame)
 .eh_frame      0x000000000000be28       0x44 /home/awygle/toolchain/install/bin/../lib/gcc/msp430-elf/6.2.0/libgcc.a(_udivdi3.o)
 *crtbegin*.o(.ctors)
 *(EXCLUDE_FILE(*crtend*.o) .ctors)
 *(SORT(.ctors.*))
 *(.ctors)
 *crtbegin*.o(.dtors)
 *(EXCLUDE_FILE(*crtend*.o) .dtors)
 *(SORT(.dtors.*))
 *(.dtors)

.persistent     0x000000000000be6c      0xa24
                0x000000000000be6c                . = ALIGN (0x2)
                [!provide]                        PROVIDE (__persistent_start, .)
 *(.persistent)
 .persistent    0x000000000000be6c       0x22 build/obj/uart.o
                0x000000000000be72                A1_cfg
 .persistent    0x000000000000be8e        0xc build/obj/main.o
 .persistent    0x000000000000be9a       0x60 build/obj/cmds.o
 .persistent    0x000000000000befa      0x100 build/obj/registers.o
 .persistent    0x000000000000bffa      0x814 build/obj/sdlp.o
                0x000000000000bffa                DLLRxPktCfg
                0x000000000000bffb                DLLTxPktCfg
                0x000000000000c003                b_frames
                0x000000000000c004                a_frames
                0x000000000000c005                double_frames
                0x000000000000c006                missed_frames
                0x000000000000c007                seq_no
                0x000000000000c008                fecf
                0x000000000000c009                fec
 .persistent    0x000000000000c80e       0x6a build/obj/rf.o
                0x000000000000c860                rf_spi_cfg
                0x000000000000c86c                rf_mbox
 .persistent    0x000000000000c878        0xc build/obj/spp.o
                0x000000000000c882                elyNLMaxLen
 .persistent    0x000000000000c884        0xc build/obj/test.o
                0x000000000000c884                event_resets
                0x000000000000c886                reported_events
                0x000000000000c88a                logged_events
                0x000000000000c890                . = ALIGN (0x2)
                [!provide]                        PROVIDE (__persistent_end, .)

.data           0x0000000000001c00      0x48c load address 0x000000000000c890
                0x0000000000001c00                . = ALIGN (0x2)
                0x0000000000001c00                PROVIDE (__datastart, .)
 *(.jcr)
 *(.data.rel.ro.local)
 *(.data.rel.ro*)
 *(.dynamic)
 *(.data .data.* .gnu.linkonce.d.*)
 .data          0x0000000000001c00       0x5c build/obj/ch.o
                0x0000000000001c00                nil
 .data          0x0000000000001c5c        0x1 build/obj/chcore.o
                0x0000000000001c5c                __msp430x_in_isr
 *fill*         0x0000000000001c5d        0x1 
 .data          0x0000000000001c5e       0x40 build/obj/hal_pal_lld.o
                0x0000000000001c5e                port_callback_map
 .data          0x0000000000001c9e       0x3a build/obj/hal_spi_lld.o
                0x0000000000001c9e                SPIDA1
 .data          0x0000000000001cd8       0x46 build/obj/hal_uart_lld.o
                0x0000000000001cd8                UARTDA0
 .data          0x0000000000001d1e        0x6 build/obj/hal_gpt_lld.o
                0x0000000000001d1e                GPTDA1
 .data          0x0000000000001d24        0x8 build/obj/sx1278.o
                0x0000000000001d24                SX1278D1
 .data          0x0000000000001d2c       0x14 build/obj/sx1212.o
                0x0000000000001d2c                sending
                0x0000000000001d2e                tr
                0x0000000000001d30                SX1212D1
 .data          0x0000000000001d40       0xb0 build/obj/uart.o
                0x0000000000001d40                waUARTThd
 .data          0x0000000000001df0       0xb0 build/obj/main.o
                0x0000000000001df0                waMainThd
 .data          0x0000000000001ea0        0xa build/obj/slip_uart_dll.o
 .data          0x0000000000001eaa      0x132 build/obj/rf.o
                0x0000000000001eaa                waRFThd
                0x0000000000001fda                rf_thd
 .data          0x0000000000001fdc       0xb0 build/obj/test.o
                0x0000000000001fdc                waThread2
 *(.gnu.linkonce.d.*personality*)
 *(.data1)
 *(.got.plt)
 *(.got)
                0x000000000000208c                . = ALIGN (0x2)
 *(.sdata .sdata.* .gnu.linkonce.s.* D_2 D_1)
                0x000000000000208c                . = ALIGN (0x2)
 *(.lower.data.* .lower.data)
                0x000000000000208c                . = ALIGN (0x2)
                0x000000000000208c                _edata = .
                [!provide]                        PROVIDE (edata, .)
                [!provide]                        PROVIDE (__dataend, .)
                0x000000000000c890                PROVIDE (__romdatastart, LOADADDR (.data))
                0x000000000000048c                PROVIDE (__romdatacopysize, SIZEOF (.data))

.bss            0x000000000000cd1c     0x22c4
                0x000000000000cd1c                . = ALIGN (0x2)
                0x000000000000cd1c                PROVIDE (__bssstart, .)
 *(.dynbss)
 *(.sbss .sbss.*)
 *(.bss .bss.* .gnu.linkonce.b.*)
 .bss           0x000000000000cd1c        0xe build/obj/hal_dma_lld.o
 .bss           0x000000000000cd2a        0x2 build/obj/hal_spi_lld.o
 .bss           0x000000000000cd2c        0x2 build/obj/sx1212.o
 .bss           0x000000000000cd2e       0x1a build/obj/uart.o
 .bss           0x000000000000cd48       0x12 build/obj/main.o
 .bss           0x000000000000cd5a        0xc build/obj/cmds.o
 .bss           0x000000000000cd66        0x4 build/obj/registers.o
 .bss           0x000000000000cd6a      0x216 build/obj/slip_uart_dll.o
 .bss           0x000000000000cf80       0x1e build/obj/sdlp.o
 .bss           0x000000000000cf9e       0x14 build/obj/rf.o
 .bss           0x000000000000cfb2     0x2000 build/obj/spp.o
 .bss           0x000000000000efb2       0x2e build/obj/test.o
 *(.lower.bss.* .lower.bss)
                0x000000000000efe0                . = ALIGN (0x2)
 *(COMMON)
                [!provide]                        PROVIDE (__bssend, .)
                0x00000000000022c4                PROVIDE (__bsssize, SIZEOF (.bss))

.noinit         0x000000000000efe0        0x0
                0x000000000000efe0                . = ALIGN (0x2)
                [!provide]                        PROVIDE (__noinit_start, .)
 *(.noinit)
                0x000000000000efe0                . = ALIGN (0x2)
                [!provide]                        PROVIDE (__noinit_end, .)

.upper.rodata
 *(.upper.rodata.* .upper.rodata)

.upper.data     0x0000000000010000        0x2
                0x0000000000010000                __upper_data_init = LOADADDR (.upper.data)
                0x0000000000010000        0x2 SHORT 0x1
                0x0000000000010002                __high_datastart = .
 *(.upper.data.* .upper.data)
                0x0000000000010002                __high_dataend = .
                0x0000000000000000                __rom_highdatacopysize = (SIZEOF (.upper.data) - 0x2)
                0x0000000000010002                __rom_highdatastart = (LOADADDR (.upper.data) + 0x2)

.upper.bss      0x0000000000010002        0x0
                0x0000000000010002                . = ALIGN (0x2)
                0x0000000000010002                __high_bssstart = .
 *(.upper.bss.* .upper.bss)
                0x0000000000010002                . = ALIGN (0x2)
                0x0000000000010002                __high_bssend = .
                0x0000000000000000                __high_bsssize = SIZEOF (.upper.bss)

.upper.text     0x0000000000010002        0x0
                0x0000000000010002                . = ALIGN (0x2)
 *(.upper.text.* .upper.text)

.info           0x0000000000001800        0x0
                0x0000000000001800                . = ALIGN (0x2)
 *(.info)

.bootloader.flag
                0x00000000000019fc        0x2
                0x00000000000019fc                bootloader = .
                0x00000000000019fc        0x2 SHORT 0x0

.infoA

.infoB

.infoC

.infoD

.MP430.attributes
                0x0000000000000000      0x564
 *(.MSP430.attributes)
 .MSP430.attributes
                0x0000000000000000       0x17 /home/awygle/toolchain/install/bin/../lib/gcc/msp430-elf/6.2.0/../../../../msp430-elf/lib/crt0-minrt.o
 .MSP430.attributes
                0x0000000000000017       0x17 build/obj/ch.o
 .MSP430.attributes
                0x000000000000002e       0x17 build/obj/chmboxes.o
 .MSP430.attributes
                0x0000000000000045       0x17 build/obj/chmemcore.o
 .MSP430.attributes
                0x000000000000005c       0x17 build/obj/chmempools.o
 .MSP430.attributes
                0x0000000000000073       0x17 build/obj/chcore.o
 .MSP430.attributes
                0x000000000000008a       0x17 build/obj/osal.o
 .MSP430.attributes
                0x00000000000000a1       0x17 build/obj/hal.o
 .MSP430.attributes
                0x00000000000000b8       0x17 build/obj/hal_st.o
 .MSP430.attributes
                0x00000000000000cf       0x17 build/obj/hal_buffers.o
 .MSP430.attributes
                0x00000000000000e6       0x17 build/obj/hal_queues.o
 .MSP430.attributes
                0x00000000000000fd       0x17 build/obj/hal_mmcsd.o
 .MSP430.attributes
                0x0000000000000114       0x17 build/obj/hal_gpt.o
 .MSP430.attributes
                0x000000000000012b       0x17 build/obj/hal_pal.o
 .MSP430.attributes
                0x0000000000000142       0x17 build/obj/hal_spi.o
 .MSP430.attributes
                0x0000000000000159       0x17 build/obj/hal_uart.o
 .MSP430.attributes
                0x0000000000000170       0x17 build/obj/hal_lld.o
 .MSP430.attributes
                0x0000000000000187       0x17 build/obj/hal_st_lld.o
 .MSP430.attributes
                0x000000000000019e       0x17 build/obj/hal_serial_lld.o
 .MSP430.attributes
                0x00000000000001b5       0x17 build/obj/hal_pal_lld.o
 .MSP430.attributes
                0x00000000000001cc       0x17 build/obj/hal_dma_lld.o
 .MSP430.attributes
                0x00000000000001e3       0x17 build/obj/hal_spi_lld.o
 .MSP430.attributes
                0x00000000000001fa       0x17 build/obj/hal_i2c_lld.o
 .MSP430.attributes
                0x0000000000000211       0x17 build/obj/hal_uart_lld.o
 .MSP430.attributes
                0x0000000000000228       0x17 build/obj/hal_gpt_lld.o
 .MSP430.attributes
                0x000000000000023f       0x17 build/obj/hal_adc_lld.o
 .MSP430.attributes
                0x0000000000000256       0x17 build/obj/board.o
 .MSP430.attributes
                0x000000000000026d       0x17 build/obj/sx1278.o
 .MSP430.attributes
                0x0000000000000284       0x17 build/obj/sx1212.o
 .MSP430.attributes
                0x000000000000029b       0x17 build/obj/uart.o
 .MSP430.attributes
                0x00000000000002b2       0x17 build/obj/main.o
 .MSP430.attributes
                0x00000000000002c9       0x17 build/obj/mych.o
 .MSP430.attributes
                0x00000000000002e0       0x17 build/obj/cmds.o
 .MSP430.attributes
                0x00000000000002f7       0x17 build/obj/registers.o
 .MSP430.attributes
                0x000000000000030e       0x17 build/obj/slip_uart_dll.o
 .MSP430.attributes
                0x0000000000000325       0x17 build/obj/crc_x25.o
 .MSP430.attributes
                0x000000000000033c       0x17 build/obj/crc_sdlp.o
 .MSP430.attributes
                0x0000000000000353       0x17 build/obj/sdlp.o
 .MSP430.attributes
                0x000000000000036a       0x17 build/obj/rf.o
 .MSP430.attributes
                0x0000000000000381       0x17 build/obj/spp.o
 .MSP430.attributes
                0x0000000000000398       0x17 build/obj/msp_vectors.o
 .MSP430.attributes
                0x00000000000003af       0x17 build/obj/test.o
 .MSP430.attributes
                0x00000000000003c6       0x17 /home/awygle/toolchain/install/bin/../lib/gcc/msp430-elf/6.2.0/libgcc.a(lib2divSI.o)
 .MSP430.attributes
                0x00000000000003dd       0x17 /home/awygle/toolchain/install/bin/../lib/gcc/msp430-elf/6.2.0/libgcc.a(slli.o)
 .MSP430.attributes
                0x00000000000003f4       0x17 /home/awygle/toolchain/install/bin/../lib/gcc/msp430-elf/6.2.0/libgcc.a(srli.o)
 .MSP430.attributes
                0x000000000000040b       0x17 /home/awygle/toolchain/install/bin/../lib/gcc/msp430-elf/6.2.0/libgcc.a(cmpsi2.o)
 .MSP430.attributes
                0x0000000000000422       0x17 /home/awygle/toolchain/install/bin/../lib/gcc/msp430-elf/6.2.0/libgcc.a(_udivdi3.o)
 .MSP430.attributes
                0x0000000000000439       0x17 /home/awygle/toolchain/install/bin/../lib/gcc/msp430-elf/6.2.0/libgcc.a(_lshrdi3.o)
 .MSP430.attributes
                0x0000000000000450       0x17 /home/awygle/toolchain/install/bin/../lib/gcc/msp430-elf/6.2.0/libgcc.a(_ashldi3.o)
 .MSP430.attributes
                0x0000000000000467       0x17 /home/awygle/toolchain/install/bin/../lib/gcc/msp430-elf/6.2.0/libgcc.a(_clzdi2.o)
 .MSP430.attributes
                0x000000000000047e       0x17 /home/awygle/toolchain/install/bin/../lib/gcc/msp430-elf/6.2.0/libgcc.a(_clz.o)
 .MSP430.attributes
                0x0000000000000495       0x17 /home/awygle/toolchain/install/bin/../lib/gcc/msp430-elf/6.2.0/libmul_f5.a(lib2hw_mul_f5.o)
 .MSP430.attributes
                0x00000000000004ac       0x17 /home/awygle/toolchain/install/bin/../lib/gcc/msp430-elf/6.2.0/../../../../msp430-elf/lib/libc.a(lib_a-memcpy.o)
 .MSP430.attributes
                0x00000000000004c3       0x17 /home/awygle/toolchain/install/bin/../lib/gcc/msp430-elf/6.2.0/libgcc.a(_muldi3.o)
 .MSP430.attributes
                0x00000000000004da       0x17 /home/awygle/toolchain/install/bin/../lib/gcc/msp430-elf/6.2.0/../../../../msp430-elf/lib/libcrt.a(crt_bss.o)
 .MSP430.attributes
                0x00000000000004f1       0x17 /home/awygle/toolchain/install/bin/../lib/gcc/msp430-elf/6.2.0/../../../../msp430-elf/lib/libcrt.a(crt_movedata.o)
 .MSP430.attributes
                0x0000000000000508       0x17 /home/awygle/toolchain/install/bin/../lib/gcc/msp430-elf/6.2.0/../../../../msp430-elf/lib/libcrt.a(crt_main_minrt.o)
 .MSP430.attributes
                0x000000000000051f       0x17 /home/awygle/toolchain/install/bin/../lib/gcc/msp430-elf/6.2.0/../../../../msp430-elf/lib/libc.a(lib_a-memmove.o)
 .MSP430.attributes
                0x0000000000000536       0x17 /home/awygle/toolchain/install/bin/../lib/gcc/msp430-elf/6.2.0/../../../../msp430-elf/lib/libc.a(lib_a-memset.o)
 .MSP430.attributes
                0x000000000000054d       0x17 /home/awygle/toolchain/install/bin/../lib/gcc/msp430-elf/6.2.0/../../../../msp430-elf/lib/crtn-minrt.o
 *(.gnu.attributes)
 *(__TI_build_attributes)

.stab
 *(.stab)

.stabstr
 *(.stabstr)

.stab.excl
 *(.stab.excl)

.stab.exclstr
 *(.stab.exclstr)

.stab.index
 *(.stab.index)

.stab.indexstr
 *(.stab.indexstr)

.comment        0x0000000000000000       0x22
 *(.comment)
 .comment       0x0000000000000000       0x11 build/obj/ch.o
                                         0x12 (size before relaxing)
 .comment       0x0000000000000011       0x12 build/obj/chmboxes.o
 .comment       0x0000000000000011       0x12 build/obj/chmemcore.o
 .comment       0x0000000000000011       0x12 build/obj/chmempools.o
 .comment       0x0000000000000011       0x12 build/obj/chcore.o
 .comment       0x0000000000000011       0x12 build/obj/osal.o
 .comment       0x0000000000000011       0x12 build/obj/hal.o
 .comment       0x0000000000000011       0x12 build/obj/hal_st.o
 .comment       0x0000000000000011       0x12 build/obj/hal_buffers.o
 .comment       0x0000000000000011       0x12 build/obj/hal_queues.o
 .comment       0x0000000000000011       0x12 build/obj/hal_mmcsd.o
 .comment       0x0000000000000011       0x12 build/obj/hal_gpt.o
 .comment       0x0000000000000011       0x12 build/obj/hal_pal.o
 .comment       0x0000000000000011       0x12 build/obj/hal_spi.o
 .comment       0x0000000000000011       0x12 build/obj/hal_uart.o
 .comment       0x0000000000000011       0x12 build/obj/hal_lld.o
 .comment       0x0000000000000011       0x12 build/obj/hal_st_lld.o
 .comment       0x0000000000000011       0x12 build/obj/hal_serial_lld.o
 .comment       0x0000000000000011       0x12 build/obj/hal_pal_lld.o
 .comment       0x0000000000000011       0x12 build/obj/hal_dma_lld.o
 .comment       0x0000000000000011       0x12 build/obj/hal_spi_lld.o
 .comment       0x0000000000000011       0x12 build/obj/hal_i2c_lld.o
 .comment       0x0000000000000011       0x12 build/obj/hal_uart_lld.o
 .comment       0x0000000000000011       0x12 build/obj/hal_gpt_lld.o
 .comment       0x0000000000000011       0x12 build/obj/hal_adc_lld.o
 .comment       0x0000000000000011       0x12 build/obj/board.o
 .comment       0x0000000000000011       0x12 build/obj/sx1278.o
 .comment       0x0000000000000011       0x12 build/obj/sx1212.o
 .comment       0x0000000000000011       0x12 build/obj/uart.o
 .comment       0x0000000000000011       0x12 build/obj/main.o
 .comment       0x0000000000000011       0x12 build/obj/mych.o
 .comment       0x0000000000000011       0x12 build/obj/cmds.o
 .comment       0x0000000000000011       0x12 build/obj/registers.o
 .comment       0x0000000000000011       0x12 build/obj/slip_uart_dll.o
 .comment       0x0000000000000011       0x12 build/obj/crc_x25.o
 .comment       0x0000000000000011       0x12 build/obj/crc_sdlp.o
 .comment       0x0000000000000011       0x12 build/obj/sdlp.o
 .comment       0x0000000000000011       0x12 build/obj/rf.o
 .comment       0x0000000000000011       0x12 build/obj/spp.o
 .comment       0x0000000000000011       0x12 build/obj/msp_vectors.o
 .comment       0x0000000000000011       0x12 build/obj/test.o
 .comment       0x0000000000000011       0x12 /home/awygle/toolchain/install/bin/../lib/gcc/msp430-elf/6.2.0/libgcc.a(lib2divSI.o)
 .comment       0x0000000000000011       0x12 /home/awygle/toolchain/install/bin/../lib/gcc/msp430-elf/6.2.0/libgcc.a(_udivdi3.o)
 .comment       0x0000000000000011       0x12 /home/awygle/toolchain/install/bin/../lib/gcc/msp430-elf/6.2.0/libgcc.a(_lshrdi3.o)
 .comment       0x0000000000000011       0x12 /home/awygle/toolchain/install/bin/../lib/gcc/msp430-elf/6.2.0/libgcc.a(_ashldi3.o)
 .comment       0x0000000000000011       0x12 /home/awygle/toolchain/install/bin/../lib/gcc/msp430-elf/6.2.0/libgcc.a(_clzdi2.o)
 .comment       0x0000000000000011       0x12 /home/awygle/toolchain/install/bin/../lib/gcc/msp430-elf/6.2.0/libgcc.a(_clz.o)
 .comment       0x0000000000000011       0x11 /home/awygle/toolchain/install/bin/../lib/gcc/msp430-elf/6.2.0/../../../../msp430-elf/lib/libc.a(lib_a-memcpy.o)
                                         0x12 (size before relaxing)
 .comment       0x0000000000000022       0x12 /home/awygle/toolchain/install/bin/../lib/gcc/msp430-elf/6.2.0/libgcc.a(_muldi3.o)
 .comment       0x0000000000000022       0x12 /home/awygle/toolchain/install/bin/../lib/gcc/msp430-elf/6.2.0/../../../../msp430-elf/lib/libc.a(lib_a-memmove.o)
 .comment       0x0000000000000022       0x12 /home/awygle/toolchain/install/bin/../lib/gcc/msp430-elf/6.2.0/../../../../msp430-elf/lib/libc.a(lib_a-memset.o)

.debug
 *(.debug)

.line
 *(.line)

.debug_srcinfo
 *(.debug_srcinfo)

.debug_sfnames
 *(.debug_sfnames)

.debug_aranges  0x0000000000000000     0x1490
 *(.debug_aranges)
 .debug_aranges
                0x0000000000000000       0x20 /home/awygle/toolchain/install/bin/../lib/gcc/msp430-elf/6.2.0/../../../../msp430-elf/lib/crt0-minrt.o
 .debug_aranges
                0x0000000000000020      0x148 build/obj/ch.o
 .debug_aranges
                0x0000000000000168       0x78 build/obj/chmboxes.o
 .debug_aranges
                0x00000000000001e0       0x38 build/obj/chmemcore.o
 .debug_aranges
                0x0000000000000218       0x78 build/obj/chmempools.o
 .debug_aranges
                0x0000000000000290       0x28 build/obj/chcore.o
 .debug_aranges
                0x00000000000002b8       0x28 build/obj/osal.o
 .debug_aranges
                0x00000000000002e0       0x20 build/obj/hal.o
 .debug_aranges
                0x0000000000000300       0x40 build/obj/hal_st.o
 .debug_aranges
                0x0000000000000340       0xd8 build/obj/hal_buffers.o
 .debug_aranges
                0x0000000000000418       0x78 build/obj/hal_queues.o
 .debug_aranges
                0x0000000000000490       0x18 build/obj/hal_mmcsd.o
 .debug_aranges
                0x00000000000004a8       0x88 build/obj/hal_gpt.o
 .debug_aranges
                0x0000000000000530       0x30 build/obj/hal_pal.o
 .debug_aranges
                0x0000000000000560       0xa0 build/obj/hal_spi.o
 .debug_aranges
                0x0000000000000600       0xa0 build/obj/hal_uart.o
 .debug_aranges
                0x00000000000006a0       0x20 build/obj/hal_lld.o
 .debug_aranges
                0x00000000000006c0       0x28 build/obj/hal_st_lld.o
 .debug_aranges
                0x00000000000006e8       0x18 build/obj/hal_serial_lld.o
 .debug_aranges
                0x0000000000000700       0x58 build/obj/hal_pal_lld.o
 .debug_aranges
                0x0000000000000758       0x68 build/obj/hal_dma_lld.o
 .debug_aranges
                0x00000000000007c0       0x78 build/obj/hal_spi_lld.o
 .debug_aranges
                0x0000000000000838       0x18 build/obj/hal_i2c_lld.o
 .debug_aranges
                0x0000000000000850       0x70 build/obj/hal_uart_lld.o
 .debug_aranges
                0x00000000000008c0       0x50 build/obj/hal_gpt_lld.o
 .debug_aranges
                0x0000000000000910       0x18 build/obj/hal_adc_lld.o
 .debug_aranges
                0x0000000000000928       0x20 build/obj/board.o
 .debug_aranges
                0x0000000000000948       0xb8 build/obj/sx1278.o
 .debug_aranges
                0x0000000000000a00       0xe0 build/obj/sx1212.o
 .debug_aranges
                0x0000000000000ae0       0x50 build/obj/uart.o
 .debug_aranges
                0x0000000000000b30       0x38 build/obj/main.o
 .debug_aranges
                0x0000000000000b68       0x20 build/obj/mych.o
 .debug_aranges
                0x0000000000000b88      0x218 build/obj/cmds.o
 .debug_aranges
                0x0000000000000da0       0x68 build/obj/registers.o
 .debug_aranges
                0x0000000000000e08       0x58 build/obj/slip_uart_dll.o
 .debug_aranges
                0x0000000000000e60       0x38 build/obj/crc_x25.o
 .debug_aranges
                0x0000000000000e98       0x28 build/obj/crc_sdlp.o
 .debug_aranges
                0x0000000000000ec0       0x80 build/obj/sdlp.o
 .debug_aranges
                0x0000000000000f40       0xa8 build/obj/rf.o
 .debug_aranges
                0x0000000000000fe8       0x98 build/obj/spp.o
 .debug_aranges
                0x0000000000001080      0x188 build/obj/msp_vectors.o
 .debug_aranges
                0x0000000000001208       0xd0 build/obj/test.o
 .debug_aranges
                0x00000000000012d8       0x40 /home/awygle/toolchain/install/bin/../lib/gcc/msp430-elf/6.2.0/libgcc.a(lib2divSI.o)
 .debug_aranges
                0x0000000000001318       0x20 /home/awygle/toolchain/install/bin/../lib/gcc/msp430-elf/6.2.0/libgcc.a(_udivdi3.o)
 .debug_aranges
                0x0000000000001338       0x20 /home/awygle/toolchain/install/bin/../lib/gcc/msp430-elf/6.2.0/libgcc.a(_lshrdi3.o)
 .debug_aranges
                0x0000000000001358       0x20 /home/awygle/toolchain/install/bin/../lib/gcc/msp430-elf/6.2.0/libgcc.a(_ashldi3.o)
 .debug_aranges
                0x0000000000001378       0x20 /home/awygle/toolchain/install/bin/../lib/gcc/msp430-elf/6.2.0/libgcc.a(_clzdi2.o)
 .debug_aranges
                0x0000000000001398       0x18 /home/awygle/toolchain/install/bin/../lib/gcc/msp430-elf/6.2.0/libgcc.a(_clz.o)
 .debug_aranges
                0x00000000000013b0       0x20 /home/awygle/toolchain/install/bin/../lib/gcc/msp430-elf/6.2.0/../../../../msp430-elf/lib/libc.a(lib_a-memcpy.o)
 .debug_aranges
                0x00000000000013d0       0x20 /home/awygle/toolchain/install/bin/../lib/gcc/msp430-elf/6.2.0/libgcc.a(_muldi3.o)
 .debug_aranges
                0x00000000000013f0       0x20 /home/awygle/toolchain/install/bin/../lib/gcc/msp430-elf/6.2.0/../../../../msp430-elf/lib/libcrt.a(crt_bss.o)
 .debug_aranges
                0x0000000000001410       0x20 /home/awygle/toolchain/install/bin/../lib/gcc/msp430-elf/6.2.0/../../../../msp430-elf/lib/libcrt.a(crt_movedata.o)
 .debug_aranges
                0x0000000000001430       0x20 /home/awygle/toolchain/install/bin/../lib/gcc/msp430-elf/6.2.0/../../../../msp430-elf/lib/libcrt.a(crt_main_minrt.o)
 .debug_aranges
                0x0000000000001450       0x20 /home/awygle/toolchain/install/bin/../lib/gcc/msp430-elf/6.2.0/../../../../msp430-elf/lib/libc.a(lib_a-memmove.o)
 .debug_aranges
                0x0000000000001470       0x20 /home/awygle/toolchain/install/bin/../lib/gcc/msp430-elf/6.2.0/../../../../msp430-elf/lib/libc.a(lib_a-memset.o)

.debug_pubnames
 *(.debug_pubnames)

.debug_info     0x0000000000000000    0x9a19e
 *(.debug_info .gnu.linkonce.wi.*)
 .debug_info    0x0000000000000000       0x8c /home/awygle/toolchain/install/bin/../lib/gcc/msp430-elf/6.2.0/../../../../msp430-elf/lib/crt0-minrt.o
 .debug_info    0x000000000000008c     0x35d7 build/obj/ch.o
 .debug_info    0x0000000000003663     0x3128 build/obj/chmboxes.o
 .debug_info    0x000000000000678b     0x2ad2 build/obj/chmemcore.o
 .debug_info    0x000000000000925d     0x30a5 build/obj/chmempools.o
 .debug_info    0x000000000000c302     0x29ce build/obj/chcore.o
 .debug_info    0x000000000000ecd0     0x2a71 build/obj/osal.o
 .debug_info    0x0000000000011741     0x33d6 build/obj/hal.o
 .debug_info    0x0000000000014b17     0x3492 build/obj/hal_st.o
 .debug_info    0x0000000000017fa9     0x4942 build/obj/hal_buffers.o
 .debug_info    0x000000000001c8eb     0x3bc8 build/obj/hal_queues.o
 .debug_info    0x00000000000204b3     0x3320 build/obj/hal_mmcsd.o
 .debug_info    0x00000000000237d3     0x37fd build/obj/hal_gpt.o
 .debug_info    0x0000000000026fd0     0x356a build/obj/hal_pal.o
 .debug_info    0x000000000002a53a     0x3a76 build/obj/hal_spi.o
 .debug_info    0x000000000002dfb0     0x3ca0 build/obj/hal_uart.o
 .debug_info    0x0000000000031c50     0x3352 build/obj/hal_lld.o
 .debug_info    0x0000000000034fa2     0x3475 build/obj/hal_st_lld.o
 .debug_info    0x0000000000038417     0x3320 build/obj/hal_serial_lld.o
 .debug_info    0x000000000003b737     0x3758 build/obj/hal_pal_lld.o
 .debug_info    0x000000000003ee8f     0x3925 build/obj/hal_dma_lld.o
 .debug_info    0x00000000000427b4     0x3908 build/obj/hal_spi_lld.o
 .debug_info    0x00000000000460bc     0x3320 build/obj/hal_i2c_lld.o
 .debug_info    0x00000000000493dc     0x3ba6 build/obj/hal_uart_lld.o
 .debug_info    0x000000000004cf82     0x3544 build/obj/hal_gpt_lld.o
 .debug_info    0x00000000000504c6     0x3320 build/obj/hal_adc_lld.o
 .debug_info    0x00000000000537e6     0x3346 build/obj/board.o
 .debug_info    0x0000000000056b2c     0x54ec build/obj/sx1278.o
 .debug_info    0x000000000005c018     0x5a17 build/obj/sx1212.o
 .debug_info    0x0000000000061a2f     0x41e3 build/obj/uart.o
 .debug_info    0x0000000000065c12     0x3da6 build/obj/main.o
 .debug_info    0x00000000000699b8     0x29bb build/obj/mych.o
 .debug_info    0x000000000006c373     0x71b6 build/obj/cmds.o
 .debug_info    0x0000000000073529     0x4a2a build/obj/registers.o
 .debug_info    0x0000000000077f53     0x40b8 build/obj/slip_uart_dll.o
 .debug_info    0x000000000007c00b     0x34a6 build/obj/crc_x25.o
 .debug_info    0x000000000007f4b1     0x33e1 build/obj/crc_sdlp.o
 .debug_info    0x0000000000082892     0x524d build/obj/sdlp.o
 .debug_info    0x0000000000087adf     0x4730 build/obj/rf.o
 .debug_info    0x000000000008c20f     0x3e3e build/obj/spp.o
 .debug_info    0x000000000009004d     0x2854 build/obj/msp_vectors.o
 .debug_info    0x00000000000928a1     0x4183 build/obj/test.o
 .debug_info    0x0000000000096a24      0x276 /home/awygle/toolchain/install/bin/../lib/gcc/msp430-elf/6.2.0/libgcc.a(lib2divSI.o)
 .debug_info    0x0000000000096c9a      0x2ad /home/awygle/toolchain/install/bin/../lib/gcc/msp430-elf/6.2.0/libgcc.a(_udivdi3.o)
 .debug_info    0x0000000000096f47      0x25f /home/awygle/toolchain/install/bin/../lib/gcc/msp430-elf/6.2.0/libgcc.a(_lshrdi3.o)
 .debug_info    0x00000000000971a6      0x25f /home/awygle/toolchain/install/bin/../lib/gcc/msp430-elf/6.2.0/libgcc.a(_ashldi3.o)
 .debug_info    0x0000000000097405      0x26a /home/awygle/toolchain/install/bin/../lib/gcc/msp430-elf/6.2.0/libgcc.a(_clzdi2.o)
 .debug_info    0x000000000009766f      0x16a /home/awygle/toolchain/install/bin/../lib/gcc/msp430-elf/6.2.0/libgcc.a(_clz.o)
 .debug_info    0x00000000000977d9      0x923 /home/awygle/toolchain/install/bin/../lib/gcc/msp430-elf/6.2.0/../../../../msp430-elf/lib/libc.a(lib_a-memcpy.o)
 .debug_info    0x00000000000980fc      0x308 /home/awygle/toolchain/install/bin/../lib/gcc/msp430-elf/6.2.0/libgcc.a(_muldi3.o)
 .debug_info    0x0000000000098404       0x8c /home/awygle/toolchain/install/bin/../lib/gcc/msp430-elf/6.2.0/../../../../msp430-elf/lib/libcrt.a(crt_bss.o)
 .debug_info    0x0000000000098490       0x8c /home/awygle/toolchain/install/bin/../lib/gcc/msp430-elf/6.2.0/../../../../msp430-elf/lib/libcrt.a(crt_movedata.o)
 .debug_info    0x000000000009851c       0x8c /home/awygle/toolchain/install/bin/../lib/gcc/msp430-elf/6.2.0/../../../../msp430-elf/lib/libcrt.a(crt_main_minrt.o)
 .debug_info    0x00000000000985a8      0xe0b /home/awygle/toolchain/install/bin/../lib/gcc/msp430-elf/6.2.0/../../../../msp430-elf/lib/libc.a(lib_a-memmove.o)
 .debug_info    0x00000000000993b3      0xdeb /home/awygle/toolchain/install/bin/../lib/gcc/msp430-elf/6.2.0/../../../../msp430-elf/lib/libc.a(lib_a-memset.o)

.debug_abbrev   0x0000000000000000     0x8272
 *(.debug_abbrev)
 .debug_abbrev  0x0000000000000000       0x14 /home/awygle/toolchain/install/bin/../lib/gcc/msp430-elf/6.2.0/../../../../msp430-elf/lib/crt0-minrt.o
 .debug_abbrev  0x0000000000000014      0x356 build/obj/ch.o
 .debug_abbrev  0x000000000000036a      0x33c build/obj/chmboxes.o
 .debug_abbrev  0x00000000000006a6      0x1f0 build/obj/chmemcore.o
 .debug_abbrev  0x0000000000000896      0x38a build/obj/chmempools.o
 .debug_abbrev  0x0000000000000c20      0x1b0 build/obj/chcore.o
 .debug_abbrev  0x0000000000000dd0      0x1c4 build/obj/osal.o
 .debug_abbrev  0x0000000000000f94      0x1e9 build/obj/hal.o
 .debug_abbrev  0x000000000000117d      0x264 build/obj/hal_st.o
 .debug_abbrev  0x00000000000013e1      0x4c8 build/obj/hal_buffers.o
 .debug_abbrev  0x00000000000018a9      0x43c build/obj/hal_queues.o
 .debug_abbrev  0x0000000000001ce5      0x18f build/obj/hal_mmcsd.o
 .debug_abbrev  0x0000000000001e74      0x24c build/obj/hal_gpt.o
 .debug_abbrev  0x00000000000020c0      0x21a build/obj/hal_pal.o
 .debug_abbrev  0x00000000000022da      0x2ad build/obj/hal_spi.o
 .debug_abbrev  0x0000000000002587      0x3c9 build/obj/hal_uart.o
 .debug_abbrev  0x0000000000002950      0x1c9 build/obj/hal_lld.o
 .debug_abbrev  0x0000000000002b19      0x201 build/obj/hal_st_lld.o
 .debug_abbrev  0x0000000000002d1a      0x18f build/obj/hal_serial_lld.o
 .debug_abbrev  0x0000000000002ea9      0x260 build/obj/hal_pal_lld.o
 .debug_abbrev  0x0000000000003109      0x380 build/obj/hal_dma_lld.o
 .debug_abbrev  0x0000000000003489      0x398 build/obj/hal_spi_lld.o
 .debug_abbrev  0x0000000000003821      0x18f build/obj/hal_i2c_lld.o
 .debug_abbrev  0x00000000000039b0      0x410 build/obj/hal_uart_lld.o
 .debug_abbrev  0x0000000000003dc0      0x273 build/obj/hal_gpt_lld.o
 .debug_abbrev  0x0000000000004033      0x18f build/obj/hal_adc_lld.o
 .debug_abbrev  0x00000000000041c2      0x1b8 build/obj/board.o
 .debug_abbrev  0x000000000000437a      0x5bf build/obj/sx1278.o
 .debug_abbrev  0x0000000000004939      0x570 build/obj/sx1212.o
 .debug_abbrev  0x0000000000004ea9      0x31f build/obj/uart.o
 .debug_abbrev  0x00000000000051c8      0x2c1 build/obj/main.o
 .debug_abbrev  0x0000000000005489      0x1a5 build/obj/mych.o
 .debug_abbrev  0x000000000000562e      0x4b4 build/obj/cmds.o
 .debug_abbrev  0x0000000000005ae2      0x425 build/obj/registers.o
 .debug_abbrev  0x0000000000005f07      0x397 build/obj/slip_uart_dll.o
 .debug_abbrev  0x000000000000629e      0x226 build/obj/crc_x25.o
 .debug_abbrev  0x00000000000064c4      0x208 build/obj/crc_sdlp.o
 .debug_abbrev  0x00000000000066cc      0x3f7 build/obj/sdlp.o
 .debug_abbrev  0x0000000000006ac3      0x38d build/obj/rf.o
 .debug_abbrev  0x0000000000006e50      0x348 build/obj/spp.o
 .debug_abbrev  0x0000000000007198       0x89 build/obj/msp_vectors.o
 .debug_abbrev  0x0000000000007221      0x389 build/obj/test.o
 .debug_abbrev  0x00000000000075aa       0xbe /home/awygle/toolchain/install/bin/../lib/gcc/msp430-elf/6.2.0/libgcc.a(lib2divSI.o)
 .debug_abbrev  0x0000000000007668      0x120 /home/awygle/toolchain/install/bin/../lib/gcc/msp430-elf/6.2.0/libgcc.a(_udivdi3.o)
 .debug_abbrev  0x0000000000007788      0x146 /home/awygle/toolchain/install/bin/../lib/gcc/msp430-elf/6.2.0/libgcc.a(_lshrdi3.o)
 .debug_abbrev  0x00000000000078ce      0x146 /home/awygle/toolchain/install/bin/../lib/gcc/msp430-elf/6.2.0/libgcc.a(_ashldi3.o)
 .debug_abbrev  0x0000000000007a14      0x146 /home/awygle/toolchain/install/bin/../lib/gcc/msp430-elf/6.2.0/libgcc.a(_clzdi2.o)
 .debug_abbrev  0x0000000000007b5a       0xa0 /home/awygle/toolchain/install/bin/../lib/gcc/msp430-elf/6.2.0/libgcc.a(_clz.o)
 .debug_abbrev  0x0000000000007bfa      0x18e /home/awygle/toolchain/install/bin/../lib/gcc/msp430-elf/6.2.0/../../../../msp430-elf/lib/libc.a(lib_a-memcpy.o)
 .debug_abbrev  0x0000000000007d88      0x17b /home/awygle/toolchain/install/bin/../lib/gcc/msp430-elf/6.2.0/libgcc.a(_muldi3.o)
 .debug_abbrev  0x0000000000007f03       0x14 /home/awygle/toolchain/install/bin/../lib/gcc/msp430-elf/6.2.0/../../../../msp430-elf/lib/libcrt.a(crt_bss.o)
 .debug_abbrev  0x0000000000007f17       0x14 /home/awygle/toolchain/install/bin/../lib/gcc/msp430-elf/6.2.0/../../../../msp430-elf/lib/libcrt.a(crt_movedata.o)
 .debug_abbrev  0x0000000000007f2b       0x14 /home/awygle/toolchain/install/bin/../lib/gcc/msp430-elf/6.2.0/../../../../msp430-elf/lib/libcrt.a(crt_main_minrt.o)
 .debug_abbrev  0x0000000000007f3f      0x19c /home/awygle/toolchain/install/bin/../lib/gcc/msp430-elf/6.2.0/../../../../msp430-elf/lib/libc.a(lib_a-memmove.o)
 .debug_abbrev  0x00000000000080db      0x197 /home/awygle/toolchain/install/bin/../lib/gcc/msp430-elf/6.2.0/../../../../msp430-elf/lib/libc.a(lib_a-memset.o)

.debug_line     0x0000000000000000     0xee37
 *(.debug_line .debug_line.* .debug_line_end)
 .debug_line    0x0000000000000000       0x69 /home/awygle/toolchain/install/bin/../lib/gcc/msp430-elf/6.2.0/../../../../msp430-elf/lib/crt0-minrt.o
 .debug_line    0x0000000000000069      0x1cd build/obj/ch.o
 .debug_line.text.port_unlock
                0x0000000000000236       0x23 build/obj/ch.o
 .debug_line.text.port_suspend
                0x0000000000000259       0x23 build/obj/ch.o
 .debug_line.text._dbg_check_suspend
                0x000000000000027c       0x39 build/obj/ch.o
 .debug_line.text._dbg_check_lock
                0x00000000000002b5       0x3f build/obj/ch.o
 .debug_line.text._dbg_check_unlock
                0x00000000000002f4       0x3f build/obj/ch.o
 .debug_line.text._dbg_check_lock_from_isr
                0x0000000000000333       0x3f build/obj/ch.o
 .debug_line.text._dbg_check_unlock_from_isr
                0x0000000000000372       0x3f build/obj/ch.o
 .debug_line.text._dbg_check_enter_isr
                0x00000000000003b1       0x3f build/obj/ch.o
 .debug_line.text._dbg_check_leave_isr
                0x00000000000003f0       0x3f build/obj/ch.o
 .debug_line.text.chDbgCheckClassI
                0x000000000000042f       0x39 build/obj/ch.o
 .debug_line.text.chDbgCheckClassS
                0x0000000000000468       0x39 build/obj/ch.o
 .debug_line.text.chSysInit
                0x00000000000004a1       0x7d build/obj/ch.o
 .debug_line.text.chSysHalt
                0x000000000000051e       0x1f build/obj/ch.o
 .debug_line.text.chSysGetStatusAndLockX
                0x000000000000053d       0x3d build/obj/ch.o
 .debug_line.text.chSchReadyI
                0x000000000000057a       0x3d build/obj/ch.o
 .debug_line.text.chSysTimerHandlerI
                0x00000000000005b7       0x74 build/obj/ch.o
 .debug_line.text.chSchIsPreemptionRequired
                0x000000000000062b       0x1f build/obj/ch.o
 .debug_line.text.chSchDoReschedule
                0x000000000000064a       0x2b build/obj/ch.o
 .debug_line.text.chSchRescheduleS
                0x0000000000000675       0x2b build/obj/ch.o
 .debug_line.text.chSysRestoreStatusX
                0x00000000000006a0       0x3d build/obj/ch.o
 .debug_line.text.chSchGoSleepTimeoutS
                0x00000000000006dd       0x49 build/obj/ch.o
 .debug_line.text.chThdSuspendTimeoutS
                0x0000000000000726       0x2b build/obj/ch.o
 .debug_line.text.chThdResumeI
                0x0000000000000751       0x2b build/obj/ch.o
 .debug_line.text.chThdSleep
                0x000000000000077c       0x2b build/obj/ch.o
 .debug_line.text.chSemWaitTimeoutS
                0x00000000000007a7       0x55 build/obj/ch.o
 .debug_line.text.chSemWaitTimeout
                0x00000000000007fc       0x2b build/obj/ch.o
 .debug_line.text.chSemSignalI
                0x0000000000000827       0x31 build/obj/ch.o
 .debug_line.text.chEvtSignalI
                0x0000000000000858       0x49 build/obj/ch.o
 .debug_line.text.chEvtSignal
                0x00000000000008a1       0x31 build/obj/ch.o
 .debug_line.text.chEvtWaitAnyTimeout
                0x00000000000008d2       0x4f build/obj/ch.o
 .debug_line_end
                0x0000000000000921        0x0 build/obj/ch.o
 .debug_line    0x0000000000000921      0x216 build/obj/chmboxes.o
 .debug_line.text.chMBPostS
                0x0000000000000b37       0x47 build/obj/chmboxes.o
 .debug_line.text.chMBPost
                0x0000000000000b7e       0x4d build/obj/chmboxes.o
 .debug_line.text.chMBPostI
                0x0000000000000bcb       0x4d build/obj/chmboxes.o
 .debug_line.text.chMBFetchS
                0x0000000000000c18       0x47 build/obj/chmboxes.o
 .debug_line.text.chMBFetch
                0x0000000000000c5f       0x49 build/obj/chmboxes.o
 .debug_line_end
                0x0000000000000ca8        0x0 build/obj/chmboxes.o
 .debug_line    0x0000000000000ca8      0x229 build/obj/chmemcore.o
 .debug_line_end
                0x0000000000000ed1        0x0 build/obj/chmemcore.o
 .debug_line    0x0000000000000ed1      0x275 build/obj/chmempools.o
 .debug_line.text.chPoolAllocI
                0x0000000000001146       0x41 build/obj/chmempools.o
 .debug_line.text.chPoolAlloc
                0x0000000000001187       0x4d build/obj/chmempools.o
 .debug_line.text.chPoolFreeI
                0x00000000000011d4       0x29 build/obj/chmempools.o
 .debug_line.text.chPoolFree
                0x00000000000011fd       0x59 build/obj/chmempools.o
 .debug_line_end
                0x0000000000001256        0x0 build/obj/chmempools.o
 .debug_line    0x0000000000001256      0x1b2 build/obj/chcore.o
 .debug_line.text._port_switch
                0x0000000000001408       0x2f build/obj/chcore.o
 .debug_line.text._port_thread_start
                0x0000000000001437       0x41 build/obj/chcore.o
 .debug_line_end
                0x0000000000001478        0x0 build/obj/chcore.o
 .debug_line    0x0000000000001478      0x1de build/obj/osal.o
 .debug_line.text.osalThreadDequeueNextI
                0x0000000000001656       0x2e build/obj/osal.o
 .debug_line_end
                0x0000000000001684        0x0 build/obj/osal.o
 .debug_line    0x0000000000001684      0x2fc build/obj/hal.o
 .debug_line.text.halInit
                0x0000000000001980       0x40 build/obj/hal.o
 .debug_line_end
                0x00000000000019c0        0x0 build/obj/hal.o
 .debug_line    0x00000000000019c0      0x2b0 build/obj/hal_st.o
 .debug_line.text.stInit
                0x0000000000001c70       0x1c build/obj/hal_st.o
 .debug_line_end
                0x0000000000001c8c        0x0 build/obj/hal_st.o
 .debug_line    0x0000000000001c8c      0x351 build/obj/hal_buffers.o
 .debug_line_end
                0x0000000000001fdd        0x0 build/obj/hal_buffers.o
 .debug_line    0x0000000000001fdd      0x32e build/obj/hal_queues.o
 .debug_line_end
                0x000000000000230b        0x0 build/obj/hal_queues.o
 .debug_line    0x000000000000230b      0x275 build/obj/hal_mmcsd.o
 .debug_line_end
                0x0000000000002580        0x0 build/obj/hal_mmcsd.o
 .debug_line    0x0000000000002580      0x2cf build/obj/hal_gpt.o
 .debug_line.text.osalSysLock
                0x000000000000284f       0x2f build/obj/hal_gpt.o
 .debug_line.text.osalSysUnlock
                0x000000000000287e       0x2f build/obj/hal_gpt.o
 .debug_line.text.gptInit
                0x00000000000028ad       0x1e build/obj/hal_gpt.o
 .debug_line.text.gptObjectInit
                0x00000000000028cb       0x25 build/obj/hal_gpt.o
 .debug_line.text.gptStart
                0x00000000000028f0       0x37 build/obj/hal_gpt.o
 .debug_line.text.gptStartOneShotI
                0x0000000000002927       0x2b build/obj/hal_gpt.o
 .debug_line.text.gptStopTimerI
                0x0000000000002952       0x2b build/obj/hal_gpt.o
 .debug_line_end
                0x000000000000297d        0x0 build/obj/hal_gpt.o
 .debug_line    0x000000000000297d      0x2ba build/obj/hal_pal.o
 .debug_line_end
                0x0000000000002c37        0x0 build/obj/hal_pal.o
 .debug_line    0x0000000000002c37      0x31b build/obj/hal_spi.o
 .debug_line.text.osalSysLock
                0x0000000000002f52       0x2f build/obj/hal_spi.o
 .debug_line.text.osalSysUnlock
                0x0000000000002f81       0x2f build/obj/hal_spi.o
 .debug_line.text.spiInit
                0x0000000000002fb0       0x1e build/obj/hal_spi.o
 .debug_line.text.spiObjectInit
                0x0000000000002fce       0x2b build/obj/hal_spi.o
 .debug_line.text.spiStart
                0x0000000000002ff9       0x37 build/obj/hal_spi.o
 .debug_line.text.spiStartSend
                0x0000000000003030       0x2b build/obj/hal_spi.o
 .debug_line_end
                0x000000000000305b        0x0 build/obj/hal_spi.o
 .debug_line    0x000000000000305b      0x31c build/obj/hal_uart.o
 .debug_line.text.osalSysLock
                0x0000000000003377       0x2f build/obj/hal_uart.o
 .debug_line.text.osalSysUnlock
                0x00000000000033a6       0x2f build/obj/hal_uart.o
 .debug_line.text.uartInit
                0x00000000000033d5       0x1e build/obj/hal_uart.o
 .debug_line.text.uartObjectInit
                0x00000000000033f3       0x43 build/obj/hal_uart.o
 .debug_line.text.uartStart
                0x0000000000003436       0x37 build/obj/hal_uart.o
 .debug_line.text.uartStartSendI
                0x000000000000346d       0x2b build/obj/hal_uart.o
 .debug_line.text.uartStartReceiveI
                0x0000000000003498       0x2b build/obj/hal_uart.o
 .debug_line.text.uartStopReceiveI
                0x00000000000034c3       0x37 build/obj/hal_uart.o
 .debug_line_end
                0x00000000000034fa        0x0 build/obj/hal_uart.o
 .debug_line    0x00000000000034fa      0x282 build/obj/hal_lld.o
 .debug_line.text.hal_lld_init
                0x000000000000377c       0x58 build/obj/hal_lld.o
 .debug_line_end
                0x00000000000037d4        0x0 build/obj/hal_lld.o
 .debug_line    0x00000000000037d4      0x2b3 build/obj/hal_st_lld.o
 .debug_line.text.ISR_MSP430X_ST_ISR
                0x0000000000003a87       0x56 build/obj/hal_st_lld.o
 .debug_line.text.st_lld_init
                0x0000000000003add       0x2f build/obj/hal_st_lld.o
 .debug_line_end
                0x0000000000003b0c        0x0 build/obj/hal_st_lld.o
 .debug_line    0x0000000000003b0c      0x275 build/obj/hal_serial_lld.o
 .debug_line_end
                0x0000000000003d81        0x0 build/obj/hal_serial_lld.o
 .debug_line    0x0000000000003d81      0x293 build/obj/hal_pal_lld.o
 .debug_line.text.ISR_PORT1_VECTOR
                0x0000000000004014       0x55 build/obj/hal_pal_lld.o
 .debug_line.text.ISR_PORT2_VECTOR
                0x0000000000004069       0x55 build/obj/hal_pal_lld.o
 .debug_line.text.ISR_PORT3_VECTOR
                0x00000000000040be       0x55 build/obj/hal_pal_lld.o
 .debug_line.text.ISR_PORT4_VECTOR
                0x0000000000004113       0x55 build/obj/hal_pal_lld.o
 .debug_line.text._pal_lld_init
                0x0000000000004168       0x77 build/obj/hal_pal_lld.o
 .debug_line.text._pal_lld_setgroupmode
                0x00000000000041df       0xfd build/obj/hal_pal_lld.o
 .debug_line.text._pal_lld_enablepadevent
                0x00000000000042dc       0x73 build/obj/hal_pal_lld.o
 .debug_line.text._pal_lld_disablepadevent
                0x000000000000434f       0x1d build/obj/hal_pal_lld.o
 .debug_line_end
                0x000000000000436c        0x0 build/obj/hal_pal_lld.o
 .debug_line    0x000000000000436c      0x2b4 build/obj/hal_dma_lld.o
 .debug_line.text.dma_trigger_set
                0x0000000000004620       0x28 build/obj/hal_dma_lld.o
 .debug_line.text.ISR_DMA_VECTOR
                0x0000000000004648       0x6d build/obj/hal_dma_lld.o
 .debug_line.text.dmaInit
                0x00000000000046b5       0x23 build/obj/hal_dma_lld.o
 .debug_line.text.dmaAcquireI
                0x00000000000046d8       0x59 build/obj/hal_dma_lld.o
 .debug_line.text.dmaClaimI
                0x0000000000004731       0x4d build/obj/hal_dma_lld.o
 .debug_line.text.dmaTransferI
                0x000000000000477e       0x53 build/obj/hal_dma_lld.o
 .debug_line.text.dmaReleaseX
                0x00000000000047d1       0x57 build/obj/hal_dma_lld.o
 .debug_line.text.dmaCancelI
                0x0000000000004828       0x3b build/obj/hal_dma_lld.o
 .debug_line_end
                0x0000000000004863        0x0 build/obj/hal_dma_lld.o
 .debug_line    0x0000000000004863      0x300 build/obj/hal_spi_lld.o
 .debug_line.text.init_transfer
                0x0000000000004b63       0x6d build/obj/hal_spi_lld.o
 .debug_line.text.spi_lld_end_of_transfer
                0x0000000000004bd0       0x75 build/obj/hal_spi_lld.o
 .debug_line.text.spi_lld_init
                0x0000000000004c45       0x72 build/obj/hal_spi_lld.o
 .debug_line.text.spi_lld_select
                0x0000000000004cb7       0x23 build/obj/hal_spi_lld.o
 .debug_line.text.spi_lld_unselect
                0x0000000000004cda       0x23 build/obj/hal_spi_lld.o
 .debug_line.text.spi_lld_start
                0x0000000000004cfd       0x65 build/obj/hal_spi_lld.o
 .debug_line.text.spi_lld_send
                0x0000000000004d62       0x41 build/obj/hal_spi_lld.o
 .debug_line.text.spi_lld_polled_exchange
                0x0000000000004da3       0x35 build/obj/hal_spi_lld.o
 .debug_line_end
                0x0000000000004dd8        0x0 build/obj/hal_spi_lld.o
 .debug_line    0x0000000000004dd8      0x275 build/obj/hal_i2c_lld.o
 .debug_line_end
                0x000000000000504d        0x0 build/obj/hal_i2c_lld.o
 .debug_line    0x000000000000504d      0x301 build/obj/hal_uart_lld.o
 .debug_line.text.rx_cb
                0x000000000000534e       0x71 build/obj/hal_uart_lld.o
 .debug_line.text.UCBRS
                0x00000000000053bf      0x1c2 build/obj/hal_uart_lld.o
 .debug_line.text.tx_cb
                0x0000000000005581       0x79 build/obj/hal_uart_lld.o
 .debug_line.text.ISR_USCI_A0_VECTOR
                0x00000000000055fa      0x117 build/obj/hal_uart_lld.o
 .debug_line.text.uart_lld_init
                0x0000000000005711       0x6b build/obj/hal_uart_lld.o
 .debug_line.text.uart_lld_start
                0x000000000000577c      0x121 build/obj/hal_uart_lld.o
 .debug_line.text.uart_lld_start_send
                0x000000000000589d       0x61 build/obj/hal_uart_lld.o
 .debug_line.text.uart_lld_start_receive
                0x00000000000058fe       0x5b build/obj/hal_uart_lld.o
 .debug_line.text.uart_lld_stop_receive
                0x0000000000005959       0x3b build/obj/hal_uart_lld.o
 .debug_line_end
                0x0000000000005994        0x0 build/obj/hal_uart_lld.o
 .debug_line    0x0000000000005994      0x286 build/obj/hal_gpt_lld.o
 .debug_line.text.gpt_lld_init
                0x0000000000005c1a       0x23 build/obj/hal_gpt_lld.o
 .debug_line.text.gpt_lld_start
                0x0000000000005c3d       0x6c build/obj/hal_gpt_lld.o
 .debug_line.text.gpt_lld_start_timer
                0x0000000000005ca9       0x2f build/obj/hal_gpt_lld.o
 .debug_line.text.gpt_lld_stop_timer
                0x0000000000005cd8       0x1d build/obj/hal_gpt_lld.o
 .debug_line.text.ISR_TIMER1_A1_VECTOR
                0x0000000000005cf5       0x6d build/obj/hal_gpt_lld.o
 .debug_line_end
                0x0000000000005d62        0x0 build/obj/hal_gpt_lld.o
 .debug_line    0x0000000000005d62      0x275 build/obj/hal_adc_lld.o
 .debug_line_end
                0x0000000000005fd7        0x0 build/obj/hal_adc_lld.o
 .debug_line    0x0000000000005fd7      0x28d build/obj/board.o
 .debug_line.text.boardInit
                0x0000000000006264       0x1c build/obj/board.o
 .debug_line_end
                0x0000000000006280        0x0 build/obj/board.o
 .debug_line    0x0000000000006280      0x372 build/obj/sx1278.o
 .debug_line.text.sx1278SetRegister
                0x00000000000065f2       0x2f build/obj/sx1278.o
 .debug_line.text.sx1278SetBitrate
                0x0000000000006621       0x35 build/obj/sx1278.o
 .debug_line.text.sx1278SetDeviation
                0x0000000000006656       0x29 build/obj/sx1278.o
 .debug_line.text.sx1278SetFrequency
                0x000000000000667f       0x61 build/obj/sx1278.o
 .debug_line.text.sx1278SetPower
                0x00000000000066e0       0x1d build/obj/sx1278.o
 .debug_line.text.sx1278SetSync
                0x00000000000066fd       0x3b build/obj/sx1278.o
 .debug_line.text.sx1278ObjectInit
                0x0000000000006738       0x29 build/obj/sx1278.o
 .debug_line.text.spi_callback
                0x0000000000006761       0x29 build/obj/sx1278.o
 .debug_line.text.sx1278Start
                0x000000000000678a       0xdc build/obj/sx1278.o
 .debug_line.text.sx1278FifoWriteAsync
                0x0000000000006866       0x35 build/obj/sx1278.o
 .debug_line.text.sx1278FifoWriteAsyncS
                0x000000000000689b       0x35 build/obj/sx1278.o
 .debug_line.text.sx1278StartTransmit
                0x00000000000068d0       0xcb build/obj/sx1278.o
 .debug_line.text.sx1278Reset.isra.1
                0x000000000000699b       0x47 build/obj/sx1278.o
 .debug_line.text.sx1278SetMode.constprop.5
                0x00000000000069e2       0x23 build/obj/sx1278.o
 .debug_line_end
                0x0000000000006a05        0x0 build/obj/sx1278.o
 .debug_line    0x0000000000006a05      0x372 build/obj/sx1212.o
 .debug_line.text.blockuntil_callback
                0x0000000000006d77       0x31 build/obj/sx1212.o
 .debug_line.text.sx1212SetRegister.isra.0
                0x0000000000006da8       0x2f build/obj/sx1212.o
 .debug_line.text.sx1212SetMode
                0x0000000000006dd7       0x23 build/obj/sx1212.o
 .debug_line.text.sx1212Reset.isra.2
                0x0000000000006dfa       0x47 build/obj/sx1212.o
 .debug_line.text.irq_block_with_timeout.isra.3
                0x0000000000006e41       0x77 build/obj/sx1212.o
 .debug_line.text.spi_mode_config
                0x0000000000006eb8       0x22 build/obj/sx1212.o
 .debug_line.text.sx1212SetBitrate
                0x0000000000006eda       0x9d build/obj/sx1212.o
 .debug_line.text.sx1212SetDeviation
                0x0000000000006f77       0x23 build/obj/sx1212.o
 .debug_line.text.sx1212SetFrequency
                0x0000000000006f9a      0x15b build/obj/sx1212.o
 .debug_line.text.sx1212SetSync
                0x00000000000070f5       0x41 build/obj/sx1212.o
 .debug_line.text.sx1212SetRxBw
                0x0000000000007136       0x1d build/obj/sx1212.o
 .debug_line.text.sx1212Start
                0x0000000000007153       0xf9 build/obj/sx1212.o
 .debug_line.text.sx1212ReceiveI
                0x000000000000724c       0x31 build/obj/sx1212.o
 .debug_line.text.sx1212StartReceive
                0x000000000000727d       0x95 build/obj/sx1212.o
 .debug_line.text.sx1212FifoRead
                0x0000000000007312       0x4b build/obj/sx1212.o
 .debug_line.text.sx1212StopReceive
                0x000000000000735d       0x23 build/obj/sx1212.o
 .debug_line_end
                0x0000000000007380        0x0 build/obj/sx1212.o
 .debug_line    0x0000000000007380      0x3e2 build/obj/uart.o
 .debug_line.text.send_complete_cb
                0x0000000000007762       0x58 build/obj/uart.o
 .debug_line.text.elyUARTCfgMarkDirty
                0x00000000000077ba       0x1c build/obj/uart.o
 .debug_line.text.elyUARTPostI
                0x00000000000077d6       0x28 build/obj/uart.o
 .debug_line.text.elyUARTPost
                0x00000000000077fe       0x52 build/obj/uart.o
 .debug_line.text.UARTThd
                0x0000000000007850      0x184 build/obj/uart.o
 .debug_line_end
                0x00000000000079d4        0x0 build/obj/uart.o
 .debug_line    0x00000000000079d4      0x3de build/obj/main.o
 .debug_line.text.elyMainMBPost
                0x0000000000007db2       0x1a build/obj/main.o
 .debug_line.text.MainThd
                0x0000000000007dcc       0xa0 build/obj/main.o
 .debug_line_end
                0x0000000000007e6c        0x0 build/obj/main.o
 .debug_line    0x0000000000007e6c      0x1bc build/obj/mych.o
 .debug_line_end
                0x0000000000008028        0x0 build/obj/mych.o
 .debug_line    0x0000000000008028      0x46d build/obj/cmds.o
 .debug_line.text.port_lock
                0x0000000000008495       0x23 build/obj/cmds.o
 .debug_line.text.port_unlock
                0x00000000000084b8       0x23 build/obj/cmds.o
 .debug_line.text.reset
                0x00000000000084db       0x24 build/obj/cmds.o
 .debug_line.text.gen_success
                0x00000000000084ff       0x78 build/obj/cmds.o
 .debug_line.text.gen_failure
                0x0000000000008577       0x6e build/obj/cmds.o
 .debug_line.text.store_telem
                0x00000000000085e5       0x87 build/obj/cmds.o
 .debug_line.text.store_telem_noreply_cb
                0x000000000000866c       0x2b build/obj/cmds.o
 .debug_line.text.upload_fw_noreply_cb
                0x0000000000008697       0x2b build/obj/cmds.o
 .debug_line.text.verify_fw
                0x00000000000086c2       0x6d build/obj/cmds.o
 .debug_line.text.get_gpo.part.14
                0x000000000000872f       0x1e build/obj/cmds.o
 .debug_line.text.cancel_fw_eeprom_cb
                0x000000000000874d       0x43 build/obj/cmds.o
 .debug_line.text.elyCmdParse
                0x0000000000008790       0x37 build/obj/cmds.o
 .debug_line.text.elyCmdValidate
                0x00000000000087c7      0x12a build/obj/cmds.o
 .debug_line.text.elyCmdDispatch
                0x00000000000088f1       0x25 build/obj/cmds.o
 .debug_line.text.elyCmdSendReplyI
                0x0000000000008916       0x37 build/obj/cmds.o
 .debug_line.text.store_telem_reply_cb
                0x000000000000894d       0x37 build/obj/cmds.o
 .debug_line.text.install_fw
                0x0000000000008984       0x3d build/obj/cmds.o
 .debug_line.text.cancel_fw
                0x00000000000089c1       0xd3 build/obj/cmds.o
 .debug_line.text.verify_fw_cb
                0x0000000000008a94       0x49 build/obj/cmds.o
 .debug_line.text.upload_fw_reply_cb
                0x0000000000008add       0x37 build/obj/cmds.o
 .debug_line.text.elyCmdSendReply
                0x0000000000008b14       0x2b build/obj/cmds.o
 .debug_line.text.get_telem
                0x0000000000008b3f      0x103 build/obj/cmds.o
 .debug_line.text.upload_fw
                0x0000000000008c42       0xd3 build/obj/cmds.o
 .debug_line.text.set_log
                0x0000000000008d15       0x71 build/obj/cmds.o
 .debug_line.text.get_log
                0x0000000000008d86       0x61 build/obj/cmds.o
 .debug_line.text.set_err
                0x0000000000008de7       0x71 build/obj/cmds.o
 .debug_line.text.get_err
                0x0000000000008e58       0x61 build/obj/cmds.o
 .debug_line.text.get_time
                0x0000000000008eb9       0x6f build/obj/cmds.o
 .debug_line.text.set_time
                0x0000000000008f28       0x93 build/obj/cmds.o
 .debug_line.text.reset_event
                0x0000000000008fbb       0x37 build/obj/cmds.o
 .debug_line.text.unlog_event
                0x0000000000008ff2       0xc1 build/obj/cmds.o
 .debug_line.text.log_event
                0x00000000000090b3       0xe1 build/obj/cmds.o
 .debug_line.text.event_unsub
                0x0000000000009194       0xc1 build/obj/cmds.o
 .debug_line.text.event_sub
                0x0000000000009255       0xef build/obj/cmds.o
 .debug_line.text.reset_chan
                0x0000000000009344       0x37 build/obj/cmds.o
 .debug_line.text.get_chan
                0x000000000000937b       0x8d build/obj/cmds.o
 .debug_line.text.unlog_chan
                0x0000000000009408       0xa5 build/obj/cmds.o
 .debug_line.text.log_chan
                0x00000000000094ad       0xe5 build/obj/cmds.o
 .debug_line.text.channel_unsub
                0x0000000000009592       0x9f build/obj/cmds.o
 .debug_line.text.channel_sub
                0x0000000000009631       0xeb build/obj/cmds.o
 .debug_line.text.reload_config
                0x000000000000971c       0x7b build/obj/cmds.o
 .debug_line.text.set_baud
                0x0000000000009797       0x9d build/obj/cmds.o
 .debug_line.text.get_baud
                0x0000000000009834       0x6f build/obj/cmds.o
 .debug_line.text.set_tx_pow
                0x00000000000098a3       0x65 build/obj/cmds.o
 .debug_line.text.get_tx_pow
                0x0000000000009908       0x61 build/obj/cmds.o
 .debug_line.text.set_rx_dev
                0x0000000000009969       0x9d build/obj/cmds.o
 .debug_line.text.get_rx_dev
                0x0000000000009a06       0x6f build/obj/cmds.o
 .debug_line.text.set_tx_dev
                0x0000000000009a75       0x9d build/obj/cmds.o
 .debug_line.text.get_tx_dev
                0x0000000000009b12       0x6f build/obj/cmds.o
 .debug_line.text.set_rx_br
                0x0000000000009b81       0x9d build/obj/cmds.o
 .debug_line.text.get_rx_br
                0x0000000000009c1e       0x6f build/obj/cmds.o
 .debug_line.text.set_tx_br
                0x0000000000009c8d       0x9d build/obj/cmds.o
 .debug_line.text.get_tx_br
                0x0000000000009d2a       0x6f build/obj/cmds.o
 .debug_line.text.set_rx_freq
                0x0000000000009d99       0x9d build/obj/cmds.o
 .debug_line.text.get_rx_freq
                0x0000000000009e36       0x6f build/obj/cmds.o
 .debug_line.text.set_tx_freq
                0x0000000000009ea5       0xa9 build/obj/cmds.o
 .debug_line.text.get_tx_freq
                0x0000000000009f4e       0x6f build/obj/cmds.o
 .debug_line.text.set_block
                0x0000000000009fbd       0x8f build/obj/cmds.o
 .debug_line.text.get_block
                0x000000000000a04c       0x85 build/obj/cmds.o
 .debug_line.text.set_regs
                0x000000000000a0d1       0x9f build/obj/cmds.o
 .debug_line.text.get_regs
                0x000000000000a170       0x83 build/obj/cmds.o
 .debug_line.text.get_active_bank
                0x000000000000a1f3       0x55 build/obj/cmds.o
 .debug_line.text.set_gpo
                0x000000000000a248       0x7d build/obj/cmds.o
 .debug_line.text.get_gpo
                0x000000000000a2c5       0x54 build/obj/cmds.o
 .debug_line_end
                0x000000000000a319        0x0 build/obj/cmds.o
 .debug_line    0x000000000000a319      0x39f build/obj/registers.o
 .debug_line.text.clamp
                0x000000000000a6b8       0x2f build/obj/registers.o
 .debug_line.text.fram_reg_cb
                0x000000000000a6e7       0x45 build/obj/registers.o
 .debug_line.text.fram_block_cb
                0x000000000000a72c       0x39 build/obj/registers.o
 .debug_line.text.fram_reg
                0x000000000000a765       0x71 build/obj/registers.o
 .debug_line.text.fram_block
                0x000000000000a7d6       0x71 build/obj/registers.o
 .debug_line.text.elyClampReg
                0x000000000000a847      0x407 build/obj/registers.o
 .debug_line.text.elyRegGet
                0x000000000000ac4e       0xb9 build/obj/registers.o
 .debug_line.text.elyRegSet
                0x000000000000ad07       0xb9 build/obj/registers.o
 .debug_line.text.elyRegGetBlock
                0x000000000000adc0       0x9b build/obj/registers.o
 .debug_line.text.elyRegSetBlock
                0x000000000000ae5b       0xa5 build/obj/registers.o
 .debug_line_end
                0x000000000000af00        0x0 build/obj/registers.o
 .debug_line    0x000000000000af00      0x3cc build/obj/slip_uart_dll.o
 .debug_line.text.calc_next_buff
                0x000000000000b2cc       0x80 build/obj/slip_uart_dll.o
 .debug_line.text.elyUARTDLLTxCB
                0x000000000000b34c       0x7d build/obj/slip_uart_dll.o
 .debug_line.text.elyUARTDLLStartTx
                0x000000000000b3c9       0xa7 build/obj/slip_uart_dll.o
 .debug_line.text.elyUARTDLLRxInit
                0x000000000000b470       0x1d build/obj/slip_uart_dll.o
 .debug_line.text.elyUARTDLLRxHandleBuffer
                0x000000000000b48d      0x146 build/obj/slip_uart_dll.o
 .debug_line.text.elyUARTDLLTimeoutCB
                0x000000000000b5d3       0x35 build/obj/slip_uart_dll.o
 .debug_line.text.elyUARTDLLRxCharCB
                0x000000000000b608       0x41 build/obj/slip_uart_dll.o
 .debug_line.text.elyUARTDLLRxCB
                0x000000000000b649       0x53 build/obj/slip_uart_dll.o
 .debug_line_end
                0x000000000000b69c        0x0 build/obj/slip_uart_dll.o
 .debug_line    0x000000000000b69c      0x2d9 build/obj/crc_x25.o
 .debug_line.text.crcGenX25
                0x000000000000b975       0x44 build/obj/crc_x25.o
 .debug_line.text.crcCheckX25
                0x000000000000b9b9       0x3f build/obj/crc_x25.o
 .debug_line.text.crcStart
                0x000000000000b9f8       0x1d build/obj/crc_x25.o
 .debug_line.text.crcStop
                0x000000000000ba15       0x17 build/obj/crc_x25.o
 .debug_line_end
                0x000000000000ba2c        0x0 build/obj/crc_x25.o
 .debug_line    0x000000000000ba2c      0x2dc build/obj/crc_sdlp.o
 .debug_line.text.crcGenSDLP
                0x000000000000bd08       0x44 build/obj/crc_sdlp.o
 .debug_line_end
                0x000000000000bd4c        0x0 build/obj/crc_sdlp.o
 .debug_line    0x000000000000bd4c      0x43a build/obj/sdlp.o
 .debug_line.text.rxfifothresh_callback
                0x000000000000c186       0x29 build/obj/sdlp.o
 .debug_line.text.txlvl_callback
                0x000000000000c1af       0x29 build/obj/sdlp.o
 .debug_line.text.write_cb
                0x000000000000c1d8       0x4d build/obj/sdlp.o
 .debug_line.text.elyRFChangeTxSyncS
                0x000000000000c225       0x35 build/obj/sdlp.o
 .debug_line.text.elyDLLClampReg
                0x000000000000c25a       0xdd build/obj/sdlp.o
 .debug_line.text.elyRFDLLBuildFrame
                0x000000000000c337      0x1bd build/obj/sdlp.o
 .debug_line.text.elyRFDLLRxInit
                0x000000000000c4f4       0x2f build/obj/sdlp.o
 .debug_line.text.elyRFDLLHandleRxFifo
                0x000000000000c523      0x13c build/obj/sdlp.o
 .debug_line.text.elyRFDLLTxInit
                0x000000000000c65f       0x6b build/obj/sdlp.o
 .debug_line.text.elyRFDLLInitiateTransmit
                0x000000000000c6ca       0x23 build/obj/sdlp.o
 .debug_line.text.elyRFDLLHandleTxFifo
                0x000000000000c6ed       0x59 build/obj/sdlp.o
 .debug_line_end
                0x000000000000c746        0x0 build/obj/sdlp.o
 .debug_line    0x000000000000c746      0x379 build/obj/rf.o
 .debug_line.text.port_lock
                0x000000000000cabf       0x23 build/obj/rf.o
 .debug_line.text.port_unlock
                0x000000000000cae2       0x23 build/obj/rf.o
 .debug_line.text.elyRFPostI
                0x000000000000cb05       0x2a build/obj/rf.o
 .debug_line.text.elyRFPost
                0x000000000000cb2f       0x36 build/obj/rf.o
 .debug_line.text.elyRFCfgMarkDirty
                0x000000000000cb65       0x1e build/obj/rf.o
 .debug_line.text.elyRFChangeTxFreqS
                0x000000000000cb83       0x36 build/obj/rf.o
 .debug_line.text.elyRFChangeRxFreqS
                0x000000000000cbb9       0x37 build/obj/rf.o
 .debug_line.text.elyRFChangeTxBRS
                0x000000000000cbf0       0x37 build/obj/rf.o
 .debug_line.text.elyRFChangeRxBRS
                0x000000000000cc27       0x37 build/obj/rf.o
 .debug_line.text.elyRFChangeTxDevS
                0x000000000000cc5e       0x37 build/obj/rf.o
 .debug_line.text.elyRFChangeRxDevS
                0x000000000000cc95       0x37 build/obj/rf.o
 .debug_line.text.elyRFChangeRxSyncS
                0x000000000000cccc       0x37 build/obj/rf.o
 .debug_line.text.elyRFChangeTxPowerS
                0x000000000000cd03       0x25 build/obj/rf.o
 .debug_line.text.elyRFChangeRxFilterParamsS
                0x000000000000cd28       0x25 build/obj/rf.o
 .debug_line.text.RFThd
                0x000000000000cd4d      0x265 build/obj/rf.o
 .debug_line_end
                0x000000000000cfb2        0x0 build/obj/rf.o
 .debug_line    0x000000000000cfb2      0x370 build/obj/spp.o
 .debug_line.text.nl_allocator
                0x000000000000d322       0x2e build/obj/spp.o
 .debug_line.text.clamp
                0x000000000000d350       0x2e build/obj/spp.o
 .debug_line.text.elyNLClampReg
                0x000000000000d37e       0xb3 build/obj/spp.o
 .debug_line.text.elyNLGetBuffer
                0x000000000000d431       0x1d build/obj/spp.o
 .debug_line.text.elyNLFreeBuffer
                0x000000000000d44e       0x1d build/obj/spp.o
 .debug_line.text.elyNLGetBufferI
                0x000000000000d46b       0x23 build/obj/spp.o
 .debug_line.text.elyNLFreeBufferI
                0x000000000000d48e       0x23 build/obj/spp.o
 .debug_line.text.elyNLGetDest
                0x000000000000d4b1       0x41 build/obj/spp.o
 .debug_line.text.get_sh_len
                0x000000000000d4f2       0x3b build/obj/spp.o
 .debug_line.text.elyNLSetDest
                0x000000000000d52d       0x59 build/obj/spp.o
 .debug_line.text.elyNLGetLength
                0x000000000000d586       0x1d build/obj/spp.o
 .debug_line.text.elyNLValidate
                0x000000000000d5a3       0x95 build/obj/spp.o
 .debug_line.text.elyNLExtract
                0x000000000000d638       0x1d build/obj/spp.o
 .debug_line.text.elyNLPack
                0x000000000000d655       0xd1 build/obj/spp.o
 .debug_line_end
                0x000000000000d726        0x0 build/obj/spp.o
 .debug_line    0x000000000000d726       0x72 build/obj/msp_vectors.o
 .debug_line.text.Vector1
                0x000000000000d798        0xe build/obj/msp_vectors.o
 .debug_line.text.Vector2
                0x000000000000d7a6       0x16 build/obj/msp_vectors.o
 .debug_line.text.Vector3
                0x000000000000d7bc       0x16 build/obj/msp_vectors.o
 .debug_line.text.Vector4
                0x000000000000d7d2       0x16 build/obj/msp_vectors.o
 .debug_line.text.Vector5
                0x000000000000d7e8       0x16 build/obj/msp_vectors.o
 .debug_line.text.Vector6
                0x000000000000d7fe       0x16 build/obj/msp_vectors.o
 .debug_line.text.Vector7
                0x000000000000d814       0x16 build/obj/msp_vectors.o
 .debug_line.text.Vector8
                0x000000000000d82a       0x16 build/obj/msp_vectors.o
 .debug_line.text.Vector9
                0x000000000000d840       0x16 build/obj/msp_vectors.o
 .debug_line.text.Vector10
                0x000000000000d856       0x16 build/obj/msp_vectors.o
 .debug_line.text.Vector11
                0x000000000000d86c       0x16 build/obj/msp_vectors.o
 .debug_line.text.Vector12
                0x000000000000d882       0x17 build/obj/msp_vectors.o
 .debug_line.text.Vector13
                0x000000000000d899       0x17 build/obj/msp_vectors.o
 .debug_line.text.Vector14
                0x000000000000d8b0       0x17 build/obj/msp_vectors.o
 .debug_line.text.Vector15
                0x000000000000d8c7       0x17 build/obj/msp_vectors.o
 .debug_line.text.Vector16
                0x000000000000d8de       0x17 build/obj/msp_vectors.o
 .debug_line.text.Vector17
                0x000000000000d8f5       0x17 build/obj/msp_vectors.o
 .debug_line.text.Vector18
                0x000000000000d90c       0x17 build/obj/msp_vectors.o
 .debug_line.text.Vector19
                0x000000000000d923       0x17 build/obj/msp_vectors.o
 .debug_line.text.Vector20
                0x000000000000d93a       0x17 build/obj/msp_vectors.o
 .debug_line.text.Vector21
                0x000000000000d951       0x17 build/obj/msp_vectors.o
 .debug_line.text.Vector22
                0x000000000000d968       0x17 build/obj/msp_vectors.o
 .debug_line.text.Vector23
                0x000000000000d97f       0x17 build/obj/msp_vectors.o
 .debug_line.text.Vector24
                0x000000000000d996       0x17 build/obj/msp_vectors.o
 .debug_line.text.Vector25
                0x000000000000d9ad       0x17 build/obj/msp_vectors.o
 .debug_line.text.Vector26
                0x000000000000d9c4       0x17 build/obj/msp_vectors.o
 .debug_line.text.Vector27
                0x000000000000d9db       0x17 build/obj/msp_vectors.o
 .debug_line.text.Vector28
                0x000000000000d9f2       0x17 build/obj/msp_vectors.o
 .debug_line.text.Vector29
                0x000000000000da09       0x17 build/obj/msp_vectors.o
 .debug_line.text.Vector30
                0x000000000000da20       0x17 build/obj/msp_vectors.o
 .debug_line.text.Vector31
                0x000000000000da37       0x17 build/obj/msp_vectors.o
 .debug_line.text.Vector32
                0x000000000000da4e       0x17 build/obj/msp_vectors.o
 .debug_line.text.Vector35
                0x000000000000da65       0x17 build/obj/msp_vectors.o
 .debug_line.text.Vector36
                0x000000000000da7c       0x17 build/obj/msp_vectors.o
 .debug_line.text.Vector38
                0x000000000000da93       0x17 build/obj/msp_vectors.o
 .debug_line.text.Vector39
                0x000000000000daaa       0x17 build/obj/msp_vectors.o
 .debug_line.text.Vector42
                0x000000000000dac1       0x17 build/obj/msp_vectors.o
 .debug_line.text.Vector45
                0x000000000000dad8       0x17 build/obj/msp_vectors.o
 .debug_line.text.Vector46
                0x000000000000daef       0x17 build/obj/msp_vectors.o
 .debug_line.text.Vector47
                0x000000000000db06       0x17 build/obj/msp_vectors.o
 .debug_line.text.Vector48
                0x000000000000db1d       0x17 build/obj/msp_vectors.o
 .debug_line.text.Vector50
                0x000000000000db34       0x17 build/obj/msp_vectors.o
 .debug_line.text.Vector51
                0x000000000000db4b       0x17 build/obj/msp_vectors.o
 .debug_line.text.Vector53
                0x000000000000db62       0x17 build/obj/msp_vectors.o
 .debug_line.text.Vector54
                0x000000000000db79       0x17 build/obj/msp_vectors.o
 .debug_line.text.Vector55
                0x000000000000db90       0x17 build/obj/msp_vectors.o
 .debug_line_end
                0x000000000000dba7        0x0 build/obj/msp_vectors.o
 .debug_line    0x000000000000dba7      0x3ae build/obj/test.o
 .debug_line.text.Thread2
                0x000000000000df55       0x31 build/obj/test.o
 .debug_line.crt_0042disable_watchdog
                0x000000000000df86       0x16 build/obj/test.o
 .debug_line.text.elyErrorSignal
                0x000000000000df9c       0x22 build/obj/test.o
 .debug_line.text.elyErrorSetLogLvlS
                0x000000000000dfbe       0x16 build/obj/test.o
 .debug_line.text.elyErrorSetRptLvlS
                0x000000000000dfd4       0x16 build/obj/test.o
 .debug_line.text.elyEventSignal
                0x000000000000dfea       0x22 build/obj/test.o
 .debug_line.text.elyEventSubscribe
                0x000000000000e00c       0x22 build/obj/test.o
 .debug_line.text.elyEventUnsubscribe
                0x000000000000e02e       0x23 build/obj/test.o
 .debug_line.text.elyEventLog
                0x000000000000e051       0x23 build/obj/test.o
 .debug_line.text.elyEventUnlog
                0x000000000000e074       0x23 build/obj/test.o
 .debug_line.text.elyEventReset
                0x000000000000e097       0x2f build/obj/test.o
 .debug_line.text.elyChanSubscribe
                0x000000000000e0c6       0x3d build/obj/test.o
 .debug_line.text.elyChanUnsubscribe
                0x000000000000e103       0x3d build/obj/test.o
 .debug_line.text.elyChanLog
                0x000000000000e140       0x3d build/obj/test.o
 .debug_line.text.elyChanUnlog
                0x000000000000e17d       0x3d build/obj/test.o
 .debug_line.text.elyChanGetValue
                0x000000000000e1ba       0x1d build/obj/test.o
 .debug_line.text.elyChanReset
                0x000000000000e1d7       0x29 build/obj/test.o
 .debug_line.text.elyTelemPostBufferS
                0x000000000000e200       0x1d build/obj/test.o
 .debug_line.text.elyTelemUpdateConfigS
                0x000000000000e21d       0x1d build/obj/test.o
 .debug_line.text.elyFramGetRequest
                0x000000000000e23a       0x23 build/obj/test.o
 .debug_line.text.elyFramGetRequestTimeoutS
                0x000000000000e25d       0x23 build/obj/test.o
 .debug_line.text.elyFramPostRequest
                0x000000000000e280       0x23 build/obj/test.o
 .debug_line.text.startup.main
                0x000000000000e2a3       0x23 build/obj/test.o
 .debug_line_end
                0x000000000000e2c6        0x0 build/obj/test.o
 .debug_line    0x000000000000e2c6       0x67 /home/awygle/toolchain/install/bin/../lib/gcc/msp430-elf/6.2.0/libgcc.a(lib2divSI.o)
 .debug_line.text.udivmodsi4
                0x000000000000e32d       0x74 /home/awygle/toolchain/install/bin/../lib/gcc/msp430-elf/6.2.0/libgcc.a(lib2divSI.o)
 .debug_line.text.__udivsi3
                0x000000000000e3a1       0x1d /home/awygle/toolchain/install/bin/../lib/gcc/msp430-elf/6.2.0/libgcc.a(lib2divSI.o)
 .debug_line_end
                0x000000000000e3be        0x0 /home/awygle/toolchain/install/bin/../lib/gcc/msp430-elf/6.2.0/libgcc.a(lib2divSI.o)
 .debug_line    0x000000000000e3be       0xa3 /home/awygle/toolchain/install/bin/../lib/gcc/msp430-elf/6.2.0/libgcc.a(_udivdi3.o)
 .debug_line_end
                0x000000000000e461        0x0 /home/awygle/toolchain/install/bin/../lib/gcc/msp430-elf/6.2.0/libgcc.a(_udivdi3.o)
 .debug_line    0x000000000000e461       0xa3 /home/awygle/toolchain/install/bin/../lib/gcc/msp430-elf/6.2.0/libgcc.a(_lshrdi3.o)
 .debug_line_end
                0x000000000000e504        0x0 /home/awygle/toolchain/install/bin/../lib/gcc/msp430-elf/6.2.0/libgcc.a(_lshrdi3.o)
 .debug_line    0x000000000000e504       0xa3 /home/awygle/toolchain/install/bin/../lib/gcc/msp430-elf/6.2.0/libgcc.a(_ashldi3.o)
 .debug_line_end
                0x000000000000e5a7        0x0 /home/awygle/toolchain/install/bin/../lib/gcc/msp430-elf/6.2.0/libgcc.a(_ashldi3.o)
 .debug_line    0x000000000000e5a7       0xa3 /home/awygle/toolchain/install/bin/../lib/gcc/msp430-elf/6.2.0/libgcc.a(_clzdi2.o)
 .debug_line_end
                0x000000000000e64a        0x0 /home/awygle/toolchain/install/bin/../lib/gcc/msp430-elf/6.2.0/libgcc.a(_clzdi2.o)
 .debug_line    0x000000000000e64a       0xa3 /home/awygle/toolchain/install/bin/../lib/gcc/msp430-elf/6.2.0/libgcc.a(_clz.o)
 .debug_line_end
                0x000000000000e6ed        0x0 /home/awygle/toolchain/install/bin/../lib/gcc/msp430-elf/6.2.0/libgcc.a(_clz.o)
 .debug_line    0x000000000000e6ed      0x13c /home/awygle/toolchain/install/bin/../lib/gcc/msp430-elf/6.2.0/../../../../msp430-elf/lib/libc.a(lib_a-memcpy.o)
 .debug_line.text.memcpy
                0x000000000000e829       0x22 /home/awygle/toolchain/install/bin/../lib/gcc/msp430-elf/6.2.0/../../../../msp430-elf/lib/libc.a(lib_a-memcpy.o)
 .debug_line_end
                0x000000000000e84b        0x0 /home/awygle/toolchain/install/bin/../lib/gcc/msp430-elf/6.2.0/../../../../msp430-elf/lib/libc.a(lib_a-memcpy.o)
 .debug_line    0x000000000000e84b       0xa3 /home/awygle/toolchain/install/bin/../lib/gcc/msp430-elf/6.2.0/libgcc.a(_muldi3.o)
 .debug_line_end
                0x000000000000e8ee        0x0 /home/awygle/toolchain/install/bin/../lib/gcc/msp430-elf/6.2.0/libgcc.a(_muldi3.o)
 .debug_line    0x000000000000e8ee       0x7c /home/awygle/toolchain/install/bin/../lib/gcc/msp430-elf/6.2.0/../../../../msp430-elf/lib/libcrt.a(crt_bss.o)
 .debug_line    0x000000000000e96a       0x88 /home/awygle/toolchain/install/bin/../lib/gcc/msp430-elf/6.2.0/../../../../msp430-elf/lib/libcrt.a(crt_movedata.o)
 .debug_line    0x000000000000e9f2       0x70 /home/awygle/toolchain/install/bin/../lib/gcc/msp430-elf/6.2.0/../../../../msp430-elf/lib/libcrt.a(crt_main_minrt.o)
 .debug_line    0x000000000000ea62      0x1ba /home/awygle/toolchain/install/bin/../lib/gcc/msp430-elf/6.2.0/../../../../msp430-elf/lib/libc.a(lib_a-memmove.o)
 .debug_line.text.memmove
                0x000000000000ec1c       0x40 /home/awygle/toolchain/install/bin/../lib/gcc/msp430-elf/6.2.0/../../../../msp430-elf/lib/libc.a(lib_a-memmove.o)
 .debug_line_end
                0x000000000000ec5c        0x0 /home/awygle/toolchain/install/bin/../lib/gcc/msp430-elf/6.2.0/../../../../msp430-elf/lib/libc.a(lib_a-memmove.o)
 .debug_line    0x000000000000ec5c      0x1b9 /home/awygle/toolchain/install/bin/../lib/gcc/msp430-elf/6.2.0/../../../../msp430-elf/lib/libc.a(lib_a-memset.o)
 .debug_line.text.memset
                0x000000000000ee15       0x22 /home/awygle/toolchain/install/bin/../lib/gcc/msp430-elf/6.2.0/../../../../msp430-elf/lib/libc.a(lib_a-memset.o)
 .debug_line_end
                0x000000000000ee37        0x0 /home/awygle/toolchain/install/bin/../lib/gcc/msp430-elf/6.2.0/../../../../msp430-elf/lib/libc.a(lib_a-memset.o)

.debug_frame    0x0000000000000000     0x3564
 *(.debug_frame)
 .debug_frame   0x0000000000000000      0x36c build/obj/ch.o
 .debug_frame   0x000000000000036c      0x154 build/obj/chmboxes.o
 .debug_frame   0x00000000000004c0       0x68 build/obj/chmemcore.o
 .debug_frame   0x0000000000000528      0x14c build/obj/chmempools.o
 .debug_frame   0x0000000000000674       0x34 build/obj/chcore.o
 .debug_frame   0x00000000000006a8       0x48 build/obj/osal.o
 .debug_frame   0x00000000000006f0       0x24 build/obj/hal.o
 .debug_frame   0x0000000000000714       0x64 build/obj/hal_st.o
 .debug_frame   0x0000000000000778      0x2c4 build/obj/hal_buffers.o
 .debug_frame   0x0000000000000a3c      0x168 build/obj/hal_queues.o
 .debug_frame   0x0000000000000ba4      0x148 build/obj/hal_gpt.o
 .debug_frame   0x0000000000000cec       0x70 build/obj/hal_pal.o
 .debug_frame   0x0000000000000d5c      0x1ac build/obj/hal_spi.o
 .debug_frame   0x0000000000000f08      0x1f0 build/obj/hal_uart.o
 .debug_frame   0x00000000000010f8       0x24 build/obj/hal_lld.o
 .debug_frame   0x000000000000111c       0x54 build/obj/hal_st_lld.o
 .debug_frame   0x0000000000001170      0x130 build/obj/hal_pal_lld.o
 .debug_frame   0x00000000000012a0      0x138 build/obj/hal_dma_lld.o
 .debug_frame   0x00000000000013d8      0x114 build/obj/hal_spi_lld.o
 .debug_frame   0x00000000000014ec      0x160 build/obj/hal_uart_lld.o
 .debug_frame   0x000000000000164c       0xb0 build/obj/hal_gpt_lld.o
 .debug_frame   0x00000000000016fc       0x24 build/obj/board.o
 .debug_frame   0x0000000000001720      0x270 build/obj/sx1278.o
 .debug_frame   0x0000000000001990      0x2f4 build/obj/sx1212.o
 .debug_frame   0x0000000000001c84       0xb0 build/obj/uart.o
 .debug_frame   0x0000000000001d34       0x78 build/obj/main.o
 .debug_frame   0x0000000000001dac       0x38 build/obj/mych.o
 .debug_frame   0x0000000000001de4      0x8b4 build/obj/cmds.o
 .debug_frame   0x0000000000002698      0x15c build/obj/registers.o
 .debug_frame   0x00000000000027f4       0xf4 build/obj/slip_uart_dll.o
 .debug_frame   0x00000000000028e8       0x54 build/obj/crc_x25.o
 .debug_frame   0x000000000000293c       0x34 build/obj/crc_sdlp.o
 .debug_frame   0x0000000000002970      0x168 build/obj/sdlp.o
 .debug_frame   0x0000000000002ad8      0x1c8 build/obj/rf.o
 .debug_frame   0x0000000000002ca0      0x16c build/obj/spp.o
 .debug_frame   0x0000000000002e0c      0x2f4 build/obj/msp_vectors.o
 .debug_frame   0x0000000000003100      0x208 build/obj/test.o
 .debug_frame   0x0000000000003308       0xbc /home/awygle/toolchain/install/bin/../lib/gcc/msp430-elf/6.2.0/libgcc.a(lib2divSI.o)
 .debug_frame   0x00000000000033c4       0x40 /home/awygle/toolchain/install/bin/../lib/gcc/msp430-elf/6.2.0/libgcc.a(_udivdi3.o)
 .debug_frame   0x0000000000003404       0x40 /home/awygle/toolchain/install/bin/../lib/gcc/msp430-elf/6.2.0/libgcc.a(_lshrdi3.o)
 .debug_frame   0x0000000000003444       0x40 /home/awygle/toolchain/install/bin/../lib/gcc/msp430-elf/6.2.0/libgcc.a(_ashldi3.o)
 .debug_frame   0x0000000000003484       0x34 /home/awygle/toolchain/install/bin/../lib/gcc/msp430-elf/6.2.0/libgcc.a(_clzdi2.o)
 .debug_frame   0x00000000000034b8       0x24 /home/awygle/toolchain/install/bin/../lib/gcc/msp430-elf/6.2.0/../../../../msp430-elf/lib/libc.a(lib_a-memcpy.o)
 .debug_frame   0x00000000000034dc       0x40 /home/awygle/toolchain/install/bin/../lib/gcc/msp430-elf/6.2.0/libgcc.a(_muldi3.o)
 .debug_frame   0x000000000000351c       0x24 /home/awygle/toolchain/install/bin/../lib/gcc/msp430-elf/6.2.0/../../../../msp430-elf/lib/libc.a(lib_a-memmove.o)
 .debug_frame   0x0000000000003540       0x24 /home/awygle/toolchain/install/bin/../lib/gcc/msp430-elf/6.2.0/../../../../msp430-elf/lib/libc.a(lib_a-memset.o)

.debug_str      0x0000000000000000     0x7b45
 *(.debug_str)
 .debug_str     0x0000000000000000     0x24cf build/obj/ch.o
                                       0x257c (size before relaxing)
 .debug_str     0x00000000000024cf       0xe7 build/obj/chmboxes.o
                                       0x23a3 (size before relaxing)
 .debug_str     0x00000000000025b6       0xa7 build/obj/chmemcore.o
                                       0x230f (size before relaxing)
 .debug_str     0x000000000000265d      0x173 build/obj/chmempools.o
                                       0x241e (size before relaxing)
 .debug_str     0x00000000000027d0       0x4d build/obj/chcore.o
                                       0x228c (size before relaxing)
 .debug_str     0x000000000000281d       0x68 build/obj/osal.o
                                       0x2287 (size before relaxing)
 .debug_str     0x0000000000002885      0x5ee build/obj/hal.o
                                       0x2843 (size before relaxing)
 .debug_str     0x0000000000002e73       0xaa build/obj/hal_st.o
                                       0x288a (size before relaxing)
 .debug_str     0x0000000000002f1d      0x680 build/obj/hal_buffers.o
                                       0x2f8d (size before relaxing)
 .debug_str     0x000000000000359d      0x111 build/obj/hal_queues.o
                                       0x2a18 (size before relaxing)
 .debug_str     0x00000000000036ae       0x2b build/obj/hal_mmcsd.o
                                       0x27f3 (size before relaxing)
 .debug_str     0x00000000000036d9      0x147 build/obj/hal_gpt.o
                                       0x2983 (size before relaxing)
 .debug_str     0x0000000000003820       0xd0 build/obj/hal_pal.o
                                       0x28b7 (size before relaxing)
 .debug_str     0x00000000000038f0      0x161 build/obj/hal_spi.o
                                       0x29a8 (size before relaxing)
 .debug_str     0x0000000000003a51      0x19e build/obj/hal_uart.o
                                       0x29f7 (size before relaxing)
 .debug_str     0x0000000000003bef       0x40 build/obj/hal_lld.o
                                       0x2815 (size before relaxing)
 .debug_str     0x0000000000003c2f       0x8a build/obj/hal_st_lld.o
                                       0x2945 (size before relaxing)
 .debug_str     0x0000000000003cb9       0x3f build/obj/hal_serial_lld.o
                                       0x2807 (size before relaxing)
 .debug_str     0x0000000000003cf8       0xee build/obj/hal_pal_lld.o
                                       0x29ae (size before relaxing)
 .debug_str     0x0000000000003de6      0x11c build/obj/hal_dma_lld.o
                                       0x2a76 (size before relaxing)
 .debug_str     0x0000000000003f02       0xa7 build/obj/hal_spi_lld.o
                                       0x2a0b (size before relaxing)
 .debug_str     0x0000000000003fa9       0x3c build/obj/hal_i2c_lld.o
                                       0x2804 (size before relaxing)
 .debug_str     0x0000000000003fe5       0x8b build/obj/hal_uart_lld.o
                                       0x2a67 (size before relaxing)
 .debug_str     0x0000000000004070       0x59 build/obj/hal_gpt_lld.o
                                       0x292b (size before relaxing)
 .debug_str     0x00000000000040c9       0x3c build/obj/hal_adc_lld.o
                                       0x2804 (size before relaxing)
 .debug_str     0x0000000000004105       0x15 build/obj/board.o
                                       0x27e7 (size before relaxing)
 .debug_str     0x000000000000411a      0x8a3 build/obj/sx1278.o
                                       0x36fc (size before relaxing)
 .debug_str     0x00000000000049bd      0x5a7 build/obj/sx1212.o
                                       0x350c (size before relaxing)
 .debug_str     0x0000000000004f64      0x7d9 build/obj/uart.o
                                       0x340d (size before relaxing)
 .debug_str     0x000000000000573d      0x11e build/obj/main.o
                                       0x2d60 (size before relaxing)
 .debug_str     0x000000000000585b       0x28 build/obj/mych.o
                                       0x225d (size before relaxing)
 .debug_str     0x0000000000005883     0x1128 build/obj/cmds.o
                                       0x4362 (size before relaxing)
 .debug_str     0x00000000000069ab       0xad build/obj/registers.o
                                       0x37dd (size before relaxing)
 .debug_str     0x0000000000006a58      0x1d3 build/obj/slip_uart_dll.o
                                       0x2f59 (size before relaxing)
 .debug_str     0x0000000000006c2b       0x4b build/obj/crc_x25.o
                                       0x284a (size before relaxing)
 .debug_str     0x0000000000006c76       0x30 build/obj/crc_sdlp.o
                                       0x2810 (size before relaxing)
 .debug_str     0x0000000000006ca6      0x231 build/obj/sdlp.o
                                       0x3d20 (size before relaxing)
 .debug_str     0x0000000000006ed7      0x162 build/obj/rf.o
                                       0x34fa (size before relaxing)
 .debug_str     0x0000000000007039       0xe5 build/obj/spp.o
                                       0x32af (size before relaxing)
 .debug_str     0x000000000000711e      0x1a3 build/obj/msp_vectors.o
                                       0x2130 (size before relaxing)
 .debug_str     0x00000000000072c1      0x116 build/obj/test.o
                                       0x2f29 (size before relaxing)
 .debug_str     0x00000000000073d7      0x158 /home/awygle/toolchain/install/bin/../lib/gcc/msp430-elf/6.2.0/libgcc.a(lib2divSI.o)
                                        0x19a (size before relaxing)
 .debug_str     0x000000000000752f      0x19f /home/awygle/toolchain/install/bin/../lib/gcc/msp430-elf/6.2.0/libgcc.a(_udivdi3.o)
                                        0x24e (size before relaxing)
 .debug_str     0x00000000000076ce       0x39 /home/awygle/toolchain/install/bin/../lib/gcc/msp430-elf/6.2.0/libgcc.a(_lshrdi3.o)
                                        0x253 (size before relaxing)
 .debug_str     0x0000000000007707        0xa /home/awygle/toolchain/install/bin/../lib/gcc/msp430-elf/6.2.0/libgcc.a(_ashldi3.o)
                                        0x253 (size before relaxing)
 .debug_str     0x0000000000007711        0xe /home/awygle/toolchain/install/bin/../lib/gcc/msp430-elf/6.2.0/libgcc.a(_clzdi2.o)
                                        0x24b (size before relaxing)
 .debug_str     0x000000000000771f      0x204 /home/awygle/toolchain/install/bin/../lib/gcc/msp430-elf/6.2.0/libgcc.a(_clz.o)
 .debug_str     0x000000000000771f       0xe6 /home/awygle/toolchain/install/bin/../lib/gcc/msp430-elf/6.2.0/../../../../msp430-elf/lib/libc.a(lib_a-memcpy.o)
                                        0x5a8 (size before relaxing)
 .debug_str     0x0000000000007805       0x31 /home/awygle/toolchain/install/bin/../lib/gcc/msp430-elf/6.2.0/libgcc.a(_muldi3.o)
                                        0x261 (size before relaxing)
 .debug_str     0x0000000000007836      0x2c7 /home/awygle/toolchain/install/bin/../lib/gcc/msp430-elf/6.2.0/../../../../msp430-elf/lib/libc.a(lib_a-memmove.o)
                                        0x8c4 (size before relaxing)
 .debug_str     0x0000000000007afd       0x48 /home/awygle/toolchain/install/bin/../lib/gcc/msp430-elf/6.2.0/../../../../msp430-elf/lib/libc.a(lib_a-memset.o)
                                        0x8a9 (size before relaxing)

.debug_loc      0x0000000000000000     0xb125
 *(.debug_loc)
 .debug_loc     0x0000000000000000      0x586 build/obj/ch.o
 .debug_loc     0x0000000000000586      0x460 build/obj/chmboxes.o
 .debug_loc     0x00000000000009e6       0xf6 build/obj/chmemcore.o
 .debug_loc     0x0000000000000adc      0x3ea build/obj/chmempools.o
 .debug_loc     0x0000000000000ec6      0x120 build/obj/osal.o
 .debug_loc     0x0000000000000fe6       0x26 build/obj/hal_st.o
 .debug_loc     0x000000000000100c      0x802 build/obj/hal_buffers.o
 .debug_loc     0x000000000000180e      0x4f9 build/obj/hal_queues.o
 .debug_loc     0x0000000000001d07      0x225 build/obj/hal_gpt.o
 .debug_loc     0x0000000000001f2c       0x99 build/obj/hal_pal.o
 .debug_loc     0x0000000000001fc5      0x3c9 build/obj/hal_spi.o
 .debug_loc     0x000000000000238e      0x51f build/obj/hal_uart.o
 .debug_loc     0x00000000000028ad      0x273 build/obj/hal_pal_lld.o
 .debug_loc     0x0000000000002b20      0x263 build/obj/hal_dma_lld.o
 .debug_loc     0x0000000000002d83      0x362 build/obj/hal_spi_lld.o
 .debug_loc     0x00000000000030e5      0x9a6 build/obj/hal_uart_lld.o
 .debug_loc     0x0000000000003a8b      0x14c build/obj/hal_gpt_lld.o
 .debug_loc     0x0000000000003bd7      0x9bd build/obj/sx1278.o
 .debug_loc     0x0000000000004594     0x1378 build/obj/sx1212.o
 .debug_loc     0x000000000000590c       0xd6 build/obj/uart.o
 .debug_loc     0x00000000000059e2       0xff build/obj/main.o
 .debug_loc     0x0000000000005ae1       0x6c build/obj/mych.o
 .debug_loc     0x0000000000005b4d     0x26ba build/obj/cmds.o
 .debug_loc     0x0000000000008207      0xc09 build/obj/registers.o
 .debug_loc     0x0000000000008e10      0x1b2 build/obj/slip_uart_dll.o
 .debug_loc     0x0000000000008fc2      0x152 build/obj/crc_x25.o
 .debug_loc     0x0000000000009114      0x113 build/obj/crc_sdlp.o
 .debug_loc     0x0000000000009227      0x50e build/obj/sdlp.o
 .debug_loc     0x0000000000009735      0x262 build/obj/rf.o
 .debug_loc     0x0000000000009997      0x534 build/obj/spp.o
 .debug_loc     0x0000000000009ecb      0x464 build/obj/test.o
 .debug_loc     0x000000000000a32f      0x3f0 /home/awygle/toolchain/install/bin/../lib/gcc/msp430-elf/6.2.0/libgcc.a(lib2divSI.o)
 .debug_loc     0x000000000000a71f      0x48a /home/awygle/toolchain/install/bin/../lib/gcc/msp430-elf/6.2.0/libgcc.a(_udivdi3.o)
 .debug_loc     0x000000000000aba9       0x77 /home/awygle/toolchain/install/bin/../lib/gcc/msp430-elf/6.2.0/libgcc.a(_lshrdi3.o)
 .debug_loc     0x000000000000ac20       0x77 /home/awygle/toolchain/install/bin/../lib/gcc/msp430-elf/6.2.0/libgcc.a(_ashldi3.o)
 .debug_loc     0x000000000000ac97       0xed /home/awygle/toolchain/install/bin/../lib/gcc/msp430-elf/6.2.0/libgcc.a(_clzdi2.o)
 .debug_loc     0x000000000000ad84       0xf9 /home/awygle/toolchain/install/bin/../lib/gcc/msp430-elf/6.2.0/../../../../msp430-elf/lib/libc.a(lib_a-memcpy.o)
 .debug_loc     0x000000000000ae7d       0xd8 /home/awygle/toolchain/install/bin/../lib/gcc/msp430-elf/6.2.0/libgcc.a(_muldi3.o)
 .debug_loc     0x000000000000af55      0x149 /home/awygle/toolchain/install/bin/../lib/gcc/msp430-elf/6.2.0/../../../../msp430-elf/lib/libc.a(lib_a-memmove.o)
 .debug_loc     0x000000000000b09e       0x87 /home/awygle/toolchain/install/bin/../lib/gcc/msp430-elf/6.2.0/../../../../msp430-elf/lib/libc.a(lib_a-memset.o)

.debug_macinfo
 *(.debug_macinfo)

.debug_weaknames
 *(.debug_weaknames)

.debug_funcnames
 *(.debug_funcnames)

.debug_typenames
 *(.debug_typenames)

.debug_varnames
 *(.debug_varnames)

.debug_pubtypes
 *(.debug_pubtypes)

.debug_ranges   0x0000000000000000     0x1980
 *(.debug_ranges)
 .debug_ranges  0x0000000000000000      0x138 build/obj/ch.o
 .debug_ranges  0x0000000000000138       0x68 build/obj/chmboxes.o
 .debug_ranges  0x00000000000001a0       0x28 build/obj/chmemcore.o
 .debug_ranges  0x00000000000001c8       0x98 build/obj/chmempools.o
 .debug_ranges  0x0000000000000260       0x18 build/obj/chcore.o
 .debug_ranges  0x0000000000000278       0x18 build/obj/osal.o
 .debug_ranges  0x0000000000000290       0x10 build/obj/hal.o
 .debug_ranges  0x00000000000002a0       0x30 build/obj/hal_st.o
 .debug_ranges  0x00000000000002d0      0x1e8 build/obj/hal_buffers.o
 .debug_ranges  0x00000000000004b8      0x168 build/obj/hal_queues.o
 .debug_ranges  0x0000000000000620       0x78 build/obj/hal_gpt.o
 .debug_ranges  0x0000000000000698       0x20 build/obj/hal_pal.o
 .debug_ranges  0x00000000000006b8       0x90 build/obj/hal_spi.o
 .debug_ranges  0x0000000000000748       0x90 build/obj/hal_uart.o
 .debug_ranges  0x00000000000007d8       0x10 build/obj/hal_lld.o
 .debug_ranges  0x00000000000007e8       0x18 build/obj/hal_st_lld.o
 .debug_ranges  0x0000000000000800       0x48 build/obj/hal_pal_lld.o
 .debug_ranges  0x0000000000000848       0x58 build/obj/hal_dma_lld.o
 .debug_ranges  0x00000000000008a0       0x68 build/obj/hal_spi_lld.o
 .debug_ranges  0x0000000000000908       0xa8 build/obj/hal_uart_lld.o
 .debug_ranges  0x00000000000009b0       0x40 build/obj/hal_gpt_lld.o
 .debug_ranges  0x00000000000009f0       0x10 build/obj/board.o
 .debug_ranges  0x0000000000000a00      0x108 build/obj/sx1278.o
 .debug_ranges  0x0000000000000b08      0x1b8 build/obj/sx1212.o
 .debug_ranges  0x0000000000000cc0       0x40 build/obj/uart.o
 .debug_ranges  0x0000000000000d00       0x48 build/obj/main.o
 .debug_ranges  0x0000000000000d48       0x10 build/obj/mych.o
 .debug_ranges  0x0000000000000d58      0x420 build/obj/cmds.o
 .debug_ranges  0x0000000000001178      0x130 build/obj/registers.o
 .debug_ranges  0x00000000000012a8       0x98 build/obj/slip_uart_dll.o
 .debug_ranges  0x0000000000001340       0x58 build/obj/crc_x25.o
 .debug_ranges  0x0000000000001398       0x48 build/obj/crc_sdlp.o
 .debug_ranges  0x00000000000013e0       0xa0 build/obj/sdlp.o
 .debug_ranges  0x0000000000001480       0xe8 build/obj/rf.o
 .debug_ranges  0x0000000000001568       0xa0 build/obj/spp.o
 .debug_ranges  0x0000000000001608      0x178 build/obj/msp_vectors.o
 .debug_ranges  0x0000000000001780      0x120 build/obj/test.o
 .debug_ranges  0x00000000000018a0       0x30 /home/awygle/toolchain/install/bin/../lib/gcc/msp430-elf/6.2.0/libgcc.a(lib2divSI.o)
 .debug_ranges  0x00000000000018d0       0x28 /home/awygle/toolchain/install/bin/../lib/gcc/msp430-elf/6.2.0/libgcc.a(_udivdi3.o)
 .debug_ranges  0x00000000000018f8       0x10 /home/awygle/toolchain/install/bin/../lib/gcc/msp430-elf/6.2.0/libgcc.a(_lshrdi3.o)
 .debug_ranges  0x0000000000001908       0x10 /home/awygle/toolchain/install/bin/../lib/gcc/msp430-elf/6.2.0/libgcc.a(_ashldi3.o)
 .debug_ranges  0x0000000000001918       0x28 /home/awygle/toolchain/install/bin/../lib/gcc/msp430-elf/6.2.0/libgcc.a(_clzdi2.o)
 .debug_ranges  0x0000000000001940       0x10 /home/awygle/toolchain/install/bin/../lib/gcc/msp430-elf/6.2.0/../../../../msp430-elf/lib/libc.a(lib_a-memcpy.o)
 .debug_ranges  0x0000000000001950       0x10 /home/awygle/toolchain/install/bin/../lib/gcc/msp430-elf/6.2.0/libgcc.a(_muldi3.o)
 .debug_ranges  0x0000000000001960       0x10 /home/awygle/toolchain/install/bin/../lib/gcc/msp430-elf/6.2.0/../../../../msp430-elf/lib/libc.a(lib_a-memmove.o)
 .debug_ranges  0x0000000000001970       0x10 /home/awygle/toolchain/install/bin/../lib/gcc/msp430-elf/6.2.0/../../../../msp430-elf/lib/libc.a(lib_a-memset.o)

.debug_macro
 *(.debug_macro)

/DISCARD/
 *(.note.GNU-stack)
                [!provide]                        PROVIDE (ADC12CTL0, 0x800)
                [!provide]                        PROVIDE (ADC12CTL0_L, 0x800)
                [!provide]                        PROVIDE (ADC12CTL0_H, 0x801)
                [!provide]                        PROVIDE (ADC12CTL1, 0x802)
                [!provide]                        PROVIDE (ADC12CTL1_L, 0x802)
                [!provide]                        PROVIDE (ADC12CTL1_H, 0x803)
                [!provide]                        PROVIDE (ADC12CTL2, 0x804)
                [!provide]                        PROVIDE (ADC12CTL2_L, 0x804)
                [!provide]                        PROVIDE (ADC12CTL2_H, 0x805)
                [!provide]                        PROVIDE (ADC12CTL3, 0x806)
                [!provide]                        PROVIDE (ADC12CTL3_L, 0x806)
                [!provide]                        PROVIDE (ADC12CTL3_H, 0x807)
                [!provide]                        PROVIDE (ADC12LO, 0x808)
                [!provide]                        PROVIDE (ADC12LO_L, 0x808)
                [!provide]                        PROVIDE (ADC12LO_H, 0x809)
                [!provide]                        PROVIDE (ADC12HI, 0x80a)
                [!provide]                        PROVIDE (ADC12HI_L, 0x80a)
                [!provide]                        PROVIDE (ADC12HI_H, 0x80b)
                [!provide]                        PROVIDE (ADC12IFGR0, 0x80c)
                [!provide]                        PROVIDE (ADC12IFGR0_L, 0x80c)
                [!provide]                        PROVIDE (ADC12IFGR0_H, 0x80d)
                [!provide]                        PROVIDE (ADC12IFGR1, 0x80e)
                [!provide]                        PROVIDE (ADC12IFGR1_L, 0x80e)
                [!provide]                        PROVIDE (ADC12IFGR1_H, 0x80f)
                [!provide]                        PROVIDE (ADC12IFGR2, 0x810)
                [!provide]                        PROVIDE (ADC12IFGR2_L, 0x810)
                [!provide]                        PROVIDE (ADC12IFGR2_H, 0x811)
                [!provide]                        PROVIDE (ADC12IER0, 0x812)
                [!provide]                        PROVIDE (ADC12IER0_L, 0x812)
                [!provide]                        PROVIDE (ADC12IER0_H, 0x813)
                [!provide]                        PROVIDE (ADC12IER1, 0x814)
                [!provide]                        PROVIDE (ADC12IER1_L, 0x814)
                [!provide]                        PROVIDE (ADC12IER1_H, 0x815)
                [!provide]                        PROVIDE (ADC12IER2, 0x816)
                [!provide]                        PROVIDE (ADC12IER2_L, 0x816)
                [!provide]                        PROVIDE (ADC12IER2_H, 0x817)
                [!provide]                        PROVIDE (ADC12IV, 0x818)
                [!provide]                        PROVIDE (ADC12IV_L, 0x818)
                [!provide]                        PROVIDE (ADC12IV_H, 0x819)
                [!provide]                        PROVIDE (ADC12MCTL0, 0x820)
                [!provide]                        PROVIDE (ADC12MCTL0_L, 0x820)
                [!provide]                        PROVIDE (ADC12MCTL0_H, 0x821)
                [!provide]                        PROVIDE (ADC12MCTL1, 0x822)
                [!provide]                        PROVIDE (ADC12MCTL1_L, 0x822)
                [!provide]                        PROVIDE (ADC12MCTL1_H, 0x823)
                [!provide]                        PROVIDE (ADC12MCTL2, 0x824)
                [!provide]                        PROVIDE (ADC12MCTL2_L, 0x824)
                [!provide]                        PROVIDE (ADC12MCTL2_H, 0x825)
                [!provide]                        PROVIDE (ADC12MCTL3, 0x826)
                [!provide]                        PROVIDE (ADC12MCTL3_L, 0x826)
                [!provide]                        PROVIDE (ADC12MCTL3_H, 0x827)
                [!provide]                        PROVIDE (ADC12MCTL4, 0x828)
                [!provide]                        PROVIDE (ADC12MCTL4_L, 0x828)
                [!provide]                        PROVIDE (ADC12MCTL4_H, 0x829)
                [!provide]                        PROVIDE (ADC12MCTL5, 0x82a)
                [!provide]                        PROVIDE (ADC12MCTL5_L, 0x82a)
                [!provide]                        PROVIDE (ADC12MCTL5_H, 0x82b)
                [!provide]                        PROVIDE (ADC12MCTL6, 0x82c)
                [!provide]                        PROVIDE (ADC12MCTL6_L, 0x82c)
                [!provide]                        PROVIDE (ADC12MCTL6_H, 0x82d)
                [!provide]                        PROVIDE (ADC12MCTL7, 0x82e)
                [!provide]                        PROVIDE (ADC12MCTL7_L, 0x82e)
                [!provide]                        PROVIDE (ADC12MCTL7_H, 0x82f)
                [!provide]                        PROVIDE (ADC12MCTL8, 0x830)
                [!provide]                        PROVIDE (ADC12MCTL8_L, 0x830)
                [!provide]                        PROVIDE (ADC12MCTL8_H, 0x831)
                [!provide]                        PROVIDE (ADC12MCTL9, 0x832)
                [!provide]                        PROVIDE (ADC12MCTL9_L, 0x832)
                [!provide]                        PROVIDE (ADC12MCTL9_H, 0x833)
                [!provide]                        PROVIDE (ADC12MCTL10, 0x834)
                [!provide]                        PROVIDE (ADC12MCTL10_L, 0x834)
                [!provide]                        PROVIDE (ADC12MCTL10_H, 0x835)
                [!provide]                        PROVIDE (ADC12MCTL11, 0x836)
                [!provide]                        PROVIDE (ADC12MCTL11_L, 0x836)
                [!provide]                        PROVIDE (ADC12MCTL11_H, 0x837)
                [!provide]                        PROVIDE (ADC12MCTL12, 0x838)
                [!provide]                        PROVIDE (ADC12MCTL12_L, 0x838)
                [!provide]                        PROVIDE (ADC12MCTL12_H, 0x839)
                [!provide]                        PROVIDE (ADC12MCTL13, 0x83a)
                [!provide]                        PROVIDE (ADC12MCTL13_L, 0x83a)
                [!provide]                        PROVIDE (ADC12MCTL13_H, 0x83b)
                [!provide]                        PROVIDE (ADC12MCTL14, 0x83c)
                [!provide]                        PROVIDE (ADC12MCTL14_L, 0x83c)
                [!provide]                        PROVIDE (ADC12MCTL14_H, 0x83d)
                [!provide]                        PROVIDE (ADC12MCTL15, 0x83e)
                [!provide]                        PROVIDE (ADC12MCTL15_L, 0x83e)
                [!provide]                        PROVIDE (ADC12MCTL15_H, 0x83f)
                [!provide]                        PROVIDE (ADC12MCTL16, 0x840)
                [!provide]                        PROVIDE (ADC12MCTL16_L, 0x840)
                [!provide]                        PROVIDE (ADC12MCTL16_H, 0x841)
                [!provide]                        PROVIDE (ADC12MCTL17, 0x842)
                [!provide]                        PROVIDE (ADC12MCTL17_L, 0x842)
                [!provide]                        PROVIDE (ADC12MCTL17_H, 0x843)
                [!provide]                        PROVIDE (ADC12MCTL18, 0x844)
                [!provide]                        PROVIDE (ADC12MCTL18_L, 0x844)
                [!provide]                        PROVIDE (ADC12MCTL18_H, 0x845)
                [!provide]                        PROVIDE (ADC12MCTL19, 0x846)
                [!provide]                        PROVIDE (ADC12MCTL19_L, 0x846)
                [!provide]                        PROVIDE (ADC12MCTL19_H, 0x847)
                [!provide]                        PROVIDE (ADC12MCTL20, 0x848)
                [!provide]                        PROVIDE (ADC12MCTL20_L, 0x848)
                [!provide]                        PROVIDE (ADC12MCTL20_H, 0x849)
                [!provide]                        PROVIDE (ADC12MCTL21, 0x84a)
                [!provide]                        PROVIDE (ADC12MCTL21_L, 0x84a)
                [!provide]                        PROVIDE (ADC12MCTL21_H, 0x84b)
                [!provide]                        PROVIDE (ADC12MCTL22, 0x84c)
                [!provide]                        PROVIDE (ADC12MCTL22_L, 0x84c)
                [!provide]                        PROVIDE (ADC12MCTL22_H, 0x84d)
                [!provide]                        PROVIDE (ADC12MCTL23, 0x84e)
                [!provide]                        PROVIDE (ADC12MCTL23_L, 0x84e)
                [!provide]                        PROVIDE (ADC12MCTL23_H, 0x84f)
                [!provide]                        PROVIDE (ADC12MCTL24, 0x850)
                [!provide]                        PROVIDE (ADC12MCTL24_L, 0x850)
                [!provide]                        PROVIDE (ADC12MCTL24_H, 0x851)
                [!provide]                        PROVIDE (ADC12MCTL25, 0x852)
                [!provide]                        PROVIDE (ADC12MCTL25_L, 0x852)
                [!provide]                        PROVIDE (ADC12MCTL25_H, 0x853)
                [!provide]                        PROVIDE (ADC12MCTL26, 0x854)
                [!provide]                        PROVIDE (ADC12MCTL26_L, 0x854)
                [!provide]                        PROVIDE (ADC12MCTL26_H, 0x855)
                [!provide]                        PROVIDE (ADC12MCTL27, 0x856)
                [!provide]                        PROVIDE (ADC12MCTL27_L, 0x856)
                [!provide]                        PROVIDE (ADC12MCTL27_H, 0x857)
                [!provide]                        PROVIDE (ADC12MCTL28, 0x858)
                [!provide]                        PROVIDE (ADC12MCTL28_L, 0x858)
                [!provide]                        PROVIDE (ADC12MCTL28_H, 0x859)
                [!provide]                        PROVIDE (ADC12MCTL29, 0x85a)
                [!provide]                        PROVIDE (ADC12MCTL29_L, 0x85a)
                [!provide]                        PROVIDE (ADC12MCTL29_H, 0x85b)
                [!provide]                        PROVIDE (ADC12MCTL30, 0x85c)
                [!provide]                        PROVIDE (ADC12MCTL30_L, 0x85c)
                [!provide]                        PROVIDE (ADC12MCTL30_H, 0x85d)
                [!provide]                        PROVIDE (ADC12MCTL31, 0x85e)
                [!provide]                        PROVIDE (ADC12MCTL31_L, 0x85e)
                [!provide]                        PROVIDE (ADC12MCTL31_H, 0x85f)
                [!provide]                        PROVIDE (ADC12MEM0, 0x860)
                [!provide]                        PROVIDE (ADC12MEM0_L, 0x860)
                [!provide]                        PROVIDE (ADC12MEM0_H, 0x861)
                [!provide]                        PROVIDE (ADC12MEM1, 0x862)
                [!provide]                        PROVIDE (ADC12MEM1_L, 0x862)
                [!provide]                        PROVIDE (ADC12MEM1_H, 0x863)
                [!provide]                        PROVIDE (ADC12MEM2, 0x864)
                [!provide]                        PROVIDE (ADC12MEM2_L, 0x864)
                [!provide]                        PROVIDE (ADC12MEM2_H, 0x865)
                [!provide]                        PROVIDE (ADC12MEM3, 0x866)
                [!provide]                        PROVIDE (ADC12MEM3_L, 0x866)
                [!provide]                        PROVIDE (ADC12MEM3_H, 0x867)
                [!provide]                        PROVIDE (ADC12MEM4, 0x868)
                [!provide]                        PROVIDE (ADC12MEM4_L, 0x868)
                [!provide]                        PROVIDE (ADC12MEM4_H, 0x869)
                [!provide]                        PROVIDE (ADC12MEM5, 0x86a)
                [!provide]                        PROVIDE (ADC12MEM5_L, 0x86a)
                [!provide]                        PROVIDE (ADC12MEM5_H, 0x86b)
                [!provide]                        PROVIDE (ADC12MEM6, 0x86c)
                [!provide]                        PROVIDE (ADC12MEM6_L, 0x86c)
                [!provide]                        PROVIDE (ADC12MEM6_H, 0x86d)
                [!provide]                        PROVIDE (ADC12MEM7, 0x86e)
                [!provide]                        PROVIDE (ADC12MEM7_L, 0x86e)
                [!provide]                        PROVIDE (ADC12MEM7_H, 0x86f)
                [!provide]                        PROVIDE (ADC12MEM8, 0x870)
                [!provide]                        PROVIDE (ADC12MEM8_L, 0x870)
                [!provide]                        PROVIDE (ADC12MEM8_H, 0x871)
                [!provide]                        PROVIDE (ADC12MEM9, 0x872)
                [!provide]                        PROVIDE (ADC12MEM9_L, 0x872)
                [!provide]                        PROVIDE (ADC12MEM9_H, 0x873)
                [!provide]                        PROVIDE (ADC12MEM10, 0x874)
                [!provide]                        PROVIDE (ADC12MEM10_L, 0x874)
                [!provide]                        PROVIDE (ADC12MEM10_H, 0x875)
                [!provide]                        PROVIDE (ADC12MEM11, 0x876)
                [!provide]                        PROVIDE (ADC12MEM11_L, 0x876)
                [!provide]                        PROVIDE (ADC12MEM11_H, 0x877)
                [!provide]                        PROVIDE (ADC12MEM12, 0x878)
                [!provide]                        PROVIDE (ADC12MEM12_L, 0x878)
                [!provide]                        PROVIDE (ADC12MEM12_H, 0x879)
                [!provide]                        PROVIDE (ADC12MEM13, 0x87a)
                [!provide]                        PROVIDE (ADC12MEM13_L, 0x87a)
                [!provide]                        PROVIDE (ADC12MEM13_H, 0x87b)
                [!provide]                        PROVIDE (ADC12MEM14, 0x87c)
                [!provide]                        PROVIDE (ADC12MEM14_L, 0x87c)
                [!provide]                        PROVIDE (ADC12MEM14_H, 0x87d)
                [!provide]                        PROVIDE (ADC12MEM15, 0x87e)
                [!provide]                        PROVIDE (ADC12MEM15_L, 0x87e)
                [!provide]                        PROVIDE (ADC12MEM15_H, 0x87f)
                [!provide]                        PROVIDE (ADC12MEM16, 0x880)
                [!provide]                        PROVIDE (ADC12MEM16_L, 0x880)
                [!provide]                        PROVIDE (ADC12MEM16_H, 0x881)
                [!provide]                        PROVIDE (ADC12MEM17, 0x882)
                [!provide]                        PROVIDE (ADC12MEM17_L, 0x882)
                [!provide]                        PROVIDE (ADC12MEM17_H, 0x883)
                [!provide]                        PROVIDE (ADC12MEM18, 0x884)
                [!provide]                        PROVIDE (ADC12MEM18_L, 0x884)
                [!provide]                        PROVIDE (ADC12MEM18_H, 0x885)
                [!provide]                        PROVIDE (ADC12MEM19, 0x886)
                [!provide]                        PROVIDE (ADC12MEM19_L, 0x886)
                [!provide]                        PROVIDE (ADC12MEM19_H, 0x887)
                [!provide]                        PROVIDE (ADC12MEM20, 0x888)
                [!provide]                        PROVIDE (ADC12MEM20_L, 0x888)
                [!provide]                        PROVIDE (ADC12MEM20_H, 0x889)
                [!provide]                        PROVIDE (ADC12MEM21, 0x88a)
                [!provide]                        PROVIDE (ADC12MEM21_L, 0x88a)
                [!provide]                        PROVIDE (ADC12MEM21_H, 0x88b)
                [!provide]                        PROVIDE (ADC12MEM22, 0x88c)
                [!provide]                        PROVIDE (ADC12MEM22_L, 0x88c)
                [!provide]                        PROVIDE (ADC12MEM22_H, 0x88d)
                [!provide]                        PROVIDE (ADC12MEM23, 0x88e)
                [!provide]                        PROVIDE (ADC12MEM23_L, 0x88e)
                [!provide]                        PROVIDE (ADC12MEM23_H, 0x88f)
                [!provide]                        PROVIDE (ADC12MEM24, 0x890)
                [!provide]                        PROVIDE (ADC12MEM24_L, 0x890)
                [!provide]                        PROVIDE (ADC12MEM24_H, 0x891)
                [!provide]                        PROVIDE (ADC12MEM25, 0x892)
                [!provide]                        PROVIDE (ADC12MEM25_L, 0x892)
                [!provide]                        PROVIDE (ADC12MEM25_H, 0x893)
                [!provide]                        PROVIDE (ADC12MEM26, 0x894)
                [!provide]                        PROVIDE (ADC12MEM26_L, 0x894)
                [!provide]                        PROVIDE (ADC12MEM26_H, 0x895)
                [!provide]                        PROVIDE (ADC12MEM27, 0x896)
                [!provide]                        PROVIDE (ADC12MEM27_L, 0x896)
                [!provide]                        PROVIDE (ADC12MEM27_H, 0x897)
                [!provide]                        PROVIDE (ADC12MEM28, 0x898)
                [!provide]                        PROVIDE (ADC12MEM28_L, 0x898)
                [!provide]                        PROVIDE (ADC12MEM28_H, 0x899)
                [!provide]                        PROVIDE (ADC12MEM29, 0x89a)
                [!provide]                        PROVIDE (ADC12MEM29_L, 0x89a)
                [!provide]                        PROVIDE (ADC12MEM29_H, 0x89b)
                [!provide]                        PROVIDE (ADC12MEM30, 0x89c)
                [!provide]                        PROVIDE (ADC12MEM30_L, 0x89c)
                [!provide]                        PROVIDE (ADC12MEM30_H, 0x89d)
                [!provide]                        PROVIDE (ADC12MEM31, 0x89e)
                [!provide]                        PROVIDE (ADC12MEM31_L, 0x89e)
                [!provide]                        PROVIDE (ADC12MEM31_H, 0x89f)
                [!provide]                        PROVIDE (AESACTL0, 0x9c0)
                [!provide]                        PROVIDE (AESACTL0_L, 0x9c0)
                [!provide]                        PROVIDE (AESACTL0_H, 0x9c1)
                [!provide]                        PROVIDE (AESACTL1, 0x9c2)
                [!provide]                        PROVIDE (AESACTL1_L, 0x9c2)
                [!provide]                        PROVIDE (AESACTL1_H, 0x9c3)
                [!provide]                        PROVIDE (AESASTAT, 0x9c4)
                [!provide]                        PROVIDE (AESASTAT_L, 0x9c4)
                [!provide]                        PROVIDE (AESASTAT_H, 0x9c5)
                [!provide]                        PROVIDE (AESAKEY, 0x9c6)
                [!provide]                        PROVIDE (AESAKEY_L, 0x9c6)
                [!provide]                        PROVIDE (AESAKEY_H, 0x9c7)
                [!provide]                        PROVIDE (AESADIN, 0x9c8)
                [!provide]                        PROVIDE (AESADIN_L, 0x9c8)
                [!provide]                        PROVIDE (AESADIN_H, 0x9c9)
                [!provide]                        PROVIDE (AESADOUT, 0x9ca)
                [!provide]                        PROVIDE (AESADOUT_L, 0x9ca)
                [!provide]                        PROVIDE (AESADOUT_H, 0x9cb)
                [!provide]                        PROVIDE (AESAXDIN, 0x9cc)
                [!provide]                        PROVIDE (AESAXDIN_L, 0x9cc)
                [!provide]                        PROVIDE (AESAXDIN_H, 0x9cd)
                [!provide]                        PROVIDE (AESAXIN, 0x9ce)
                [!provide]                        PROVIDE (AESAXIN_L, 0x9ce)
                [!provide]                        PROVIDE (AESAXIN_H, 0x9cf)
                [!provide]                        PROVIDE (CAPTIO0CTL, 0x43e)
                [!provide]                        PROVIDE (CAPTIO0CTL_L, 0x43e)
                [!provide]                        PROVIDE (CAPTIO0CTL_H, 0x43f)
                [!provide]                        PROVIDE (CAPTIO1CTL, 0x47e)
                [!provide]                        PROVIDE (CAPTIO1CTL_L, 0x47e)
                [!provide]                        PROVIDE (CAPTIO1CTL_H, 0x47f)
                [!provide]                        PROVIDE (CECTL0, 0x8c0)
                [!provide]                        PROVIDE (CECTL0_L, 0x8c0)
                [!provide]                        PROVIDE (CECTL0_H, 0x8c1)
                [!provide]                        PROVIDE (CECTL1, 0x8c2)
                [!provide]                        PROVIDE (CECTL1_L, 0x8c2)
                [!provide]                        PROVIDE (CECTL1_H, 0x8c3)
                [!provide]                        PROVIDE (CECTL2, 0x8c4)
                [!provide]                        PROVIDE (CECTL2_L, 0x8c4)
                [!provide]                        PROVIDE (CECTL2_H, 0x8c5)
                [!provide]                        PROVIDE (CECTL3, 0x8c6)
                [!provide]                        PROVIDE (CECTL3_L, 0x8c6)
                [!provide]                        PROVIDE (CECTL3_H, 0x8c7)
                [!provide]                        PROVIDE (CEINT, 0x8cc)
                [!provide]                        PROVIDE (CEINT_L, 0x8cc)
                [!provide]                        PROVIDE (CEINT_H, 0x8cd)
                [!provide]                        PROVIDE (CEIV, 0x8ce)
                [!provide]                        PROVIDE (CEIV_L, 0x8ce)
                [!provide]                        PROVIDE (CEIV_H, 0x8cf)
                [!provide]                        PROVIDE (CRCDI, 0x150)
                0x0000000000000150                PROVIDE (CRCDI_L, 0x150)
                [!provide]                        PROVIDE (CRCDI_H, 0x151)
                [!provide]                        PROVIDE (CRCDIRB, 0x152)
                0x0000000000000152                PROVIDE (CRCDIRB_L, 0x152)
                [!provide]                        PROVIDE (CRCDIRB_H, 0x153)
                0x0000000000000154                PROVIDE (CRCINIRES, 0x154)
                0x0000000000000154                PROVIDE (CRCINIRES_L, 0x154)
                0x0000000000000155                PROVIDE (CRCINIRES_H, 0x155)
                0x0000000000000156                PROVIDE (CRCRESR, 0x156)
                0x0000000000000156                PROVIDE (CRCRESR_L, 0x156)
                0x0000000000000157                PROVIDE (CRCRESR_H, 0x157)
                0x0000000000000160                PROVIDE (CSCTL0, 0x160)
                [!provide]                        PROVIDE (CSCTL0_L, 0x160)
                0x0000000000000161                PROVIDE (CSCTL0_H, 0x161)
                0x0000000000000162                PROVIDE (CSCTL1, 0x162)
                [!provide]                        PROVIDE (CSCTL1_L, 0x162)
                [!provide]                        PROVIDE (CSCTL1_H, 0x163)
                0x0000000000000164                PROVIDE (CSCTL2, 0x164)
                [!provide]                        PROVIDE (CSCTL2_L, 0x164)
                [!provide]                        PROVIDE (CSCTL2_H, 0x165)
                0x0000000000000166                PROVIDE (CSCTL3, 0x166)
                [!provide]                        PROVIDE (CSCTL3_L, 0x166)
                [!provide]                        PROVIDE (CSCTL3_H, 0x167)
                0x0000000000000168                PROVIDE (CSCTL4, 0x168)
                [!provide]                        PROVIDE (CSCTL4_L, 0x168)
                [!provide]                        PROVIDE (CSCTL4_H, 0x169)
                [!provide]                        PROVIDE (CSCTL5, 0x16a)
                [!provide]                        PROVIDE (CSCTL5_L, 0x16a)
                [!provide]                        PROVIDE (CSCTL5_H, 0x16b)
                0x000000000000016c                PROVIDE (CSCTL6, 0x16c)
                [!provide]                        PROVIDE (CSCTL6_L, 0x16c)
                [!provide]                        PROVIDE (CSCTL6_H, 0x16d)
                0x0000000000000500                PROVIDE (DMACTL0, 0x500)
                [!provide]                        PROVIDE (DMACTL0_L, 0x500)
                [!provide]                        PROVIDE (DMACTL0_H, 0x501)
                [!provide]                        PROVIDE (DMACTL1, 0x502)
                [!provide]                        PROVIDE (DMACTL1_L, 0x502)
                [!provide]                        PROVIDE (DMACTL1_H, 0x503)
                [!provide]                        PROVIDE (DMACTL2, 0x504)
                [!provide]                        PROVIDE (DMACTL2_L, 0x504)
                [!provide]                        PROVIDE (DMACTL2_H, 0x505)
                [!provide]                        PROVIDE (DMACTL3, 0x506)
                [!provide]                        PROVIDE (DMACTL3_L, 0x506)
                [!provide]                        PROVIDE (DMACTL3_H, 0x507)
                [!provide]                        PROVIDE (DMACTL4, 0x508)
                [!provide]                        PROVIDE (DMACTL4_L, 0x508)
                [!provide]                        PROVIDE (DMACTL4_H, 0x509)
                0x000000000000050e                PROVIDE (DMAIV, 0x50e)
                [!provide]                        PROVIDE (DMAIV_L, 0x50e)
                [!provide]                        PROVIDE (DMAIV_H, 0x50f)
                0x0000000000000510                PROVIDE (DMA0CTL, 0x510)
                [!provide]                        PROVIDE (DMA0CTL_L, 0x510)
                [!provide]                        PROVIDE (DMA0CTL_H, 0x511)
                [!provide]                        PROVIDE (DMA0SA, 0x512)
                [!provide]                        PROVIDE (DMA0SAL, 0x512)
                [!provide]                        PROVIDE (DMA0DA, 0x516)
                [!provide]                        PROVIDE (DMA0DAL, 0x516)
                [!provide]                        PROVIDE (DMA0SZ, 0x51a)
                [!provide]                        PROVIDE (DMA1CTL, 0x520)
                [!provide]                        PROVIDE (DMA1CTL_L, 0x520)
                [!provide]                        PROVIDE (DMA1CTL_H, 0x521)
                [!provide]                        PROVIDE (DMA1SA, 0x522)
                [!provide]                        PROVIDE (DMA1SAL, 0x522)
                [!provide]                        PROVIDE (DMA1DA, 0x526)
                [!provide]                        PROVIDE (DMA1DAL, 0x526)
                [!provide]                        PROVIDE (DMA1SZ, 0x52a)
                [!provide]                        PROVIDE (DMA2CTL, 0x530)
                [!provide]                        PROVIDE (DMA2CTL_L, 0x530)
                [!provide]                        PROVIDE (DMA2CTL_H, 0x531)
                [!provide]                        PROVIDE (DMA2SA, 0x532)
                [!provide]                        PROVIDE (DMA2SAL, 0x532)
                [!provide]                        PROVIDE (DMA2DA, 0x536)
                [!provide]                        PROVIDE (DMA2DAL, 0x536)
                [!provide]                        PROVIDE (DMA2SZ, 0x53a)
                0x0000000000000140                PROVIDE (FRCTL0, 0x140)
                [!provide]                        PROVIDE (FRCTL0_L, 0x140)
                0x0000000000000141                PROVIDE (FRCTL0_H, 0x141)
                [!provide]                        PROVIDE (GCCTL0, 0x144)
                [!provide]                        PROVIDE (GCCTL0_L, 0x144)
                [!provide]                        PROVIDE (GCCTL0_H, 0x145)
                [!provide]                        PROVIDE (GCCTL1, 0x146)
                [!provide]                        PROVIDE (GCCTL1_L, 0x146)
                [!provide]                        PROVIDE (GCCTL1_H, 0x147)
                [!provide]                        PROVIDE (MPUCTL0, 0x5a0)
                [!provide]                        PROVIDE (MPUCTL0_L, 0x5a0)
                [!provide]                        PROVIDE (MPUCTL0_H, 0x5a1)
                [!provide]                        PROVIDE (MPUCTL1, 0x5a2)
                [!provide]                        PROVIDE (MPUCTL1_L, 0x5a2)
                [!provide]                        PROVIDE (MPUCTL1_H, 0x5a3)
                [!provide]                        PROVIDE (MPUSEGB2, 0x5a4)
                [!provide]                        PROVIDE (MPUSEGB2_L, 0x5a4)
                [!provide]                        PROVIDE (MPUSEGB2_H, 0x5a5)
                [!provide]                        PROVIDE (MPUSEGB1, 0x5a6)
                [!provide]                        PROVIDE (MPUSEGB1_L, 0x5a6)
                [!provide]                        PROVIDE (MPUSEGB1_H, 0x5a7)
                [!provide]                        PROVIDE (MPUSAM, 0x5a8)
                [!provide]                        PROVIDE (MPUSAM_L, 0x5a8)
                [!provide]                        PROVIDE (MPUSAM_H, 0x5a9)
                [!provide]                        PROVIDE (MPUIPC0, 0x5aa)
                [!provide]                        PROVIDE (MPUIPC0_L, 0x5aa)
                [!provide]                        PROVIDE (MPUIPC0_H, 0x5ab)
                [!provide]                        PROVIDE (MPUIPSEGB2, 0x5ac)
                [!provide]                        PROVIDE (MPUIPSEGB2_L, 0x5ac)
                [!provide]                        PROVIDE (MPUIPSEGB2_H, 0x5ad)
                [!provide]                        PROVIDE (MPUIPSEGB1, 0x5ae)
                [!provide]                        PROVIDE (MPUIPSEGB1_L, 0x5ae)
                [!provide]                        PROVIDE (MPUIPSEGB1_H, 0x5af)
                [!provide]                        PROVIDE (MPY, 0x4c0)
                [!provide]                        PROVIDE (MPY_L, 0x4c0)
                [!provide]                        PROVIDE (MPY_H, 0x4c1)
                [!provide]                        PROVIDE (MPYS, 0x4c2)
                [!provide]                        PROVIDE (MPYS_L, 0x4c2)
                [!provide]                        PROVIDE (MPYS_H, 0x4c3)
                [!provide]                        PROVIDE (MAC, 0x4c4)
                [!provide]                        PROVIDE (MAC_L, 0x4c4)
                [!provide]                        PROVIDE (MAC_H, 0x4c5)
                [!provide]                        PROVIDE (MACS, 0x4c6)
                [!provide]                        PROVIDE (MACS_L, 0x4c6)
                [!provide]                        PROVIDE (MACS_H, 0x4c7)
                [!provide]                        PROVIDE (OP2, 0x4c8)
                [!provide]                        PROVIDE (OP2_L, 0x4c8)
                [!provide]                        PROVIDE (OP2_H, 0x4c9)
                [!provide]                        PROVIDE (RESLO, 0x4ca)
                [!provide]                        PROVIDE (RESLO_L, 0x4ca)
                [!provide]                        PROVIDE (RESLO_H, 0x4cb)
                [!provide]                        PROVIDE (RESHI, 0x4cc)
                [!provide]                        PROVIDE (RESHI_L, 0x4cc)
                [!provide]                        PROVIDE (RESHI_H, 0x4cd)
                [!provide]                        PROVIDE (SUMEXT, 0x4ce)
                [!provide]                        PROVIDE (SUMEXT_L, 0x4ce)
                [!provide]                        PROVIDE (SUMEXT_H, 0x4cf)
                [!provide]                        PROVIDE (MPY32L, 0x4d0)
                [!provide]                        PROVIDE (MPY32L_L, 0x4d0)
                [!provide]                        PROVIDE (MPY32L_H, 0x4d1)
                [!provide]                        PROVIDE (MPY32H, 0x4d2)
                [!provide]                        PROVIDE (MPY32H_L, 0x4d2)
                [!provide]                        PROVIDE (MPY32H_H, 0x4d3)
                [!provide]                        PROVIDE (MPYS32L, 0x4d4)
                [!provide]                        PROVIDE (MPYS32L_L, 0x4d4)
                [!provide]                        PROVIDE (MPYS32L_H, 0x4d5)
                [!provide]                        PROVIDE (MPYS32H, 0x4d6)
                [!provide]                        PROVIDE (MPYS32H_L, 0x4d6)
                [!provide]                        PROVIDE (MPYS32H_H, 0x4d7)
                [!provide]                        PROVIDE (MAC32L, 0x4d8)
                [!provide]                        PROVIDE (MAC32L_L, 0x4d8)
                [!provide]                        PROVIDE (MAC32L_H, 0x4d9)
                [!provide]                        PROVIDE (MAC32H, 0x4da)
                [!provide]                        PROVIDE (MAC32H_L, 0x4da)
                [!provide]                        PROVIDE (MAC32H_H, 0x4db)
                [!provide]                        PROVIDE (MACS32L, 0x4dc)
                [!provide]                        PROVIDE (MACS32L_L, 0x4dc)
                [!provide]                        PROVIDE (MACS32L_H, 0x4dd)
                [!provide]                        PROVIDE (MACS32H, 0x4de)
                [!provide]                        PROVIDE (MACS32H_L, 0x4de)
                [!provide]                        PROVIDE (MACS32H_H, 0x4df)
                [!provide]                        PROVIDE (OP2L, 0x4e0)
                [!provide]                        PROVIDE (OP2L_L, 0x4e0)
                [!provide]                        PROVIDE (OP2L_H, 0x4e1)
                [!provide]                        PROVIDE (OP2H, 0x4e2)
                [!provide]                        PROVIDE (OP2H_L, 0x4e2)
                [!provide]                        PROVIDE (OP2H_H, 0x4e3)
                [!provide]                        PROVIDE (RES0, 0x4e4)
                [!provide]                        PROVIDE (RES0_L, 0x4e4)
                [!provide]                        PROVIDE (RES0_H, 0x4e5)
                [!provide]                        PROVIDE (RES1, 0x4e6)
                [!provide]                        PROVIDE (RES1_L, 0x4e6)
                [!provide]                        PROVIDE (RES1_H, 0x4e7)
                [!provide]                        PROVIDE (RES2, 0x4e8)
                [!provide]                        PROVIDE (RES2_L, 0x4e8)
                [!provide]                        PROVIDE (RES2_H, 0x4e9)
                [!provide]                        PROVIDE (RES3, 0x4ea)
                [!provide]                        PROVIDE (RES3_L, 0x4ea)
                [!provide]                        PROVIDE (RES3_H, 0x4eb)
                [!provide]                        PROVIDE (MPY32CTL0, 0x4ec)
                [!provide]                        PROVIDE (MPY32CTL0_L, 0x4ec)
                [!provide]                        PROVIDE (MPY32CTL0_H, 0x4ed)
                0x0000000000000120                PROVIDE (PMMCTL0, 0x120)
                [!provide]                        PROVIDE (PMMCTL0_L, 0x120)
                [!provide]                        PROVIDE (PMMCTL0_H, 0x121)
                [!provide]                        PROVIDE (PMMIFG, 0x12a)
                [!provide]                        PROVIDE (PMMIFG_L, 0x12a)
                [!provide]                        PROVIDE (PMMIFG_H, 0x12b)
                0x0000000000000130                PROVIDE (PM5CTL0, 0x130)
                [!provide]                        PROVIDE (PM5CTL0_L, 0x130)
                [!provide]                        PROVIDE (PM5CTL0_H, 0x131)
                [!provide]                        PROVIDE (PAIN, 0x200)
                [!provide]                        PROVIDE (PAIN_L, 0x200)
                [!provide]                        PROVIDE (PAIN_H, 0x201)
                0x0000000000000202                PROVIDE (PAOUT, 0x202)
                [!provide]                        PROVIDE (PAOUT_L, 0x202)
                [!provide]                        PROVIDE (PAOUT_H, 0x203)
                0x0000000000000204                PROVIDE (PADIR, 0x204)
                [!provide]                        PROVIDE (PADIR_L, 0x204)
                [!provide]                        PROVIDE (PADIR_H, 0x205)
                0x0000000000000206                PROVIDE (PAREN, 0x206)
                [!provide]                        PROVIDE (PAREN_L, 0x206)
                [!provide]                        PROVIDE (PAREN_H, 0x207)
                0x000000000000020a                PROVIDE (PASEL0, 0x20a)
                [!provide]                        PROVIDE (PASEL0_L, 0x20a)
                [!provide]                        PROVIDE (PASEL0_H, 0x20b)
                0x000000000000020c                PROVIDE (PASEL1, 0x20c)
                [!provide]                        PROVIDE (PASEL1_L, 0x20c)
                [!provide]                        PROVIDE (PASEL1_H, 0x20d)
                [!provide]                        PROVIDE (PASELC, 0x216)
                [!provide]                        PROVIDE (PASELC_L, 0x216)
                [!provide]                        PROVIDE (PASELC_H, 0x217)
                [!provide]                        PROVIDE (PAIES, 0x218)
                [!provide]                        PROVIDE (PAIES_L, 0x218)
                [!provide]                        PROVIDE (PAIES_H, 0x219)
                [!provide]                        PROVIDE (PAIE, 0x21a)
                [!provide]                        PROVIDE (PAIE_L, 0x21a)
                [!provide]                        PROVIDE (PAIE_H, 0x21b)
                [!provide]                        PROVIDE (PAIFG, 0x21c)
                [!provide]                        PROVIDE (PAIFG_L, 0x21c)
                [!provide]                        PROVIDE (PAIFG_H, 0x21d)
                0x000000000000020e                PROVIDE (P1IV, 0x20e)
                0x000000000000021e                PROVIDE (P2IV, 0x21e)
                [!provide]                        PROVIDE (PBIN, 0x220)
                [!provide]                        PROVIDE (PBIN_L, 0x220)
                [!provide]                        PROVIDE (PBIN_H, 0x221)
                0x0000000000000222                PROVIDE (PBOUT, 0x222)
                [!provide]                        PROVIDE (PBOUT_L, 0x222)
                [!provide]                        PROVIDE (PBOUT_H, 0x223)
                0x0000000000000224                PROVIDE (PBDIR, 0x224)
                [!provide]                        PROVIDE (PBDIR_L, 0x224)
                [!provide]                        PROVIDE (PBDIR_H, 0x225)
                0x0000000000000226                PROVIDE (PBREN, 0x226)
                [!provide]                        PROVIDE (PBREN_L, 0x226)
                [!provide]                        PROVIDE (PBREN_H, 0x227)
                0x000000000000022a                PROVIDE (PBSEL0, 0x22a)
                [!provide]                        PROVIDE (PBSEL0_L, 0x22a)
                [!provide]                        PROVIDE (PBSEL0_H, 0x22b)
                0x000000000000022c                PROVIDE (PBSEL1, 0x22c)
                [!provide]                        PROVIDE (PBSEL1_L, 0x22c)
                [!provide]                        PROVIDE (PBSEL1_H, 0x22d)
                [!provide]                        PROVIDE (PBSELC, 0x236)
                [!provide]                        PROVIDE (PBSELC_L, 0x236)
                [!provide]                        PROVIDE (PBSELC_H, 0x237)
                [!provide]                        PROVIDE (PBIES, 0x238)
                [!provide]                        PROVIDE (PBIES_L, 0x238)
                [!provide]                        PROVIDE (PBIES_H, 0x239)
                [!provide]                        PROVIDE (PBIE, 0x23a)
                [!provide]                        PROVIDE (PBIE_L, 0x23a)
                [!provide]                        PROVIDE (PBIE_H, 0x23b)
                [!provide]                        PROVIDE (PBIFG, 0x23c)
                [!provide]                        PROVIDE (PBIFG_L, 0x23c)
                [!provide]                        PROVIDE (PBIFG_H, 0x23d)
                0x000000000000022e                PROVIDE (P3IV, 0x22e)
                0x000000000000023e                PROVIDE (P4IV, 0x23e)
                [!provide]                        PROVIDE (PJIN, 0x320)
                [!provide]                        PROVIDE (PJIN_L, 0x320)
                [!provide]                        PROVIDE (PJIN_H, 0x321)
                0x0000000000000322                PROVIDE (PJOUT, 0x322)
                [!provide]                        PROVIDE (PJOUT_L, 0x322)
                [!provide]                        PROVIDE (PJOUT_H, 0x323)
                0x0000000000000324                PROVIDE (PJDIR, 0x324)
                [!provide]                        PROVIDE (PJDIR_L, 0x324)
                [!provide]                        PROVIDE (PJDIR_H, 0x325)
                0x0000000000000326                PROVIDE (PJREN, 0x326)
                [!provide]                        PROVIDE (PJREN_L, 0x326)
                [!provide]                        PROVIDE (PJREN_H, 0x327)
                0x000000000000032a                PROVIDE (PJSEL0, 0x32a)
                [!provide]                        PROVIDE (PJSEL0_L, 0x32a)
                [!provide]                        PROVIDE (PJSEL0_H, 0x32b)
                0x000000000000032c                PROVIDE (PJSEL1, 0x32c)
                [!provide]                        PROVIDE (PJSEL1_L, 0x32c)
                [!provide]                        PROVIDE (PJSEL1_H, 0x32d)
                [!provide]                        PROVIDE (PJSELC, 0x336)
                [!provide]                        PROVIDE (PJSELC_L, 0x336)
                [!provide]                        PROVIDE (PJSELC_H, 0x337)
                [!provide]                        PROVIDE (REFCTL0, 0x1b0)
                [!provide]                        PROVIDE (REFCTL0_L, 0x1b0)
                [!provide]                        PROVIDE (REFCTL0_H, 0x1b1)
                [!provide]                        PROVIDE (RTCCTL01, 0x4a0)
                [!provide]                        PROVIDE (RTCCTL01_L, 0x4a0)
                [!provide]                        PROVIDE (RTCCTL01_H, 0x4a1)
                [!provide]                        PROVIDE (RTCCTL23, 0x4a2)
                [!provide]                        PROVIDE (RTCCTL23_L, 0x4a2)
                [!provide]                        PROVIDE (RTCCTL23_H, 0x4a3)
                [!provide]                        PROVIDE (RTCPS0CTL, 0x4a8)
                [!provide]                        PROVIDE (RTCPS0CTL_L, 0x4a8)
                [!provide]                        PROVIDE (RTCPS0CTL_H, 0x4a9)
                [!provide]                        PROVIDE (RTCPS1CTL, 0x4aa)
                [!provide]                        PROVIDE (RTCPS1CTL_L, 0x4aa)
                [!provide]                        PROVIDE (RTCPS1CTL_H, 0x4ab)
                [!provide]                        PROVIDE (RTCPS, 0x4ac)
                [!provide]                        PROVIDE (RTCPS_L, 0x4ac)
                [!provide]                        PROVIDE (RTCPS_H, 0x4ad)
                [!provide]                        PROVIDE (RTCIV, 0x4ae)
                [!provide]                        PROVIDE (RTCTIM0, 0x4b0)
                [!provide]                        PROVIDE (RTCTIM0_L, 0x4b0)
                [!provide]                        PROVIDE (RTCTIM0_H, 0x4b1)
                [!provide]                        PROVIDE (RTCTIM1, 0x4b2)
                [!provide]                        PROVIDE (RTCTIM1_L, 0x4b2)
                [!provide]                        PROVIDE (RTCTIM1_H, 0x4b3)
                [!provide]                        PROVIDE (RTCDATE, 0x4b4)
                [!provide]                        PROVIDE (RTCDATE_L, 0x4b4)
                [!provide]                        PROVIDE (RTCDATE_H, 0x4b5)
                [!provide]                        PROVIDE (RTCYEAR, 0x4b6)
                [!provide]                        PROVIDE (RTCYEAR_L, 0x4b6)
                [!provide]                        PROVIDE (RTCYEAR_H, 0x4b7)
                [!provide]                        PROVIDE (RTCAMINHR, 0x4b8)
                [!provide]                        PROVIDE (RTCAMINHR_L, 0x4b8)
                [!provide]                        PROVIDE (RTCAMINHR_H, 0x4b9)
                [!provide]                        PROVIDE (RTCADOWDAY, 0x4ba)
                [!provide]                        PROVIDE (RTCADOWDAY_L, 0x4ba)
                [!provide]                        PROVIDE (RTCADOWDAY_H, 0x4bb)
                [!provide]                        PROVIDE (BIN2BCD, 0x4bc)
                [!provide]                        PROVIDE (BCD2BIN, 0x4be)
                [!provide]                        PROVIDE (SFRIE1, 0x100)
                [!provide]                        PROVIDE (SFRIE1_L, 0x100)
                [!provide]                        PROVIDE (SFRIE1_H, 0x101)
                [!provide]                        PROVIDE (SFRIFG1, 0x102)
                [!provide]                        PROVIDE (SFRIFG1_L, 0x102)
                [!provide]                        PROVIDE (SFRIFG1_H, 0x103)
                [!provide]                        PROVIDE (SFRRPCR, 0x104)
                [!provide]                        PROVIDE (SFRRPCR_L, 0x104)
                [!provide]                        PROVIDE (SFRRPCR_H, 0x105)
                [!provide]                        PROVIDE (SYSCTL, 0x180)
                [!provide]                        PROVIDE (SYSCTL_L, 0x180)
                [!provide]                        PROVIDE (SYSCTL_H, 0x181)
                [!provide]                        PROVIDE (SYSJMBC, 0x186)
                [!provide]                        PROVIDE (SYSJMBC_L, 0x186)
                [!provide]                        PROVIDE (SYSJMBC_H, 0x187)
                [!provide]                        PROVIDE (SYSJMBI0, 0x188)
                [!provide]                        PROVIDE (SYSJMBI0_L, 0x188)
                [!provide]                        PROVIDE (SYSJMBI0_H, 0x189)
                [!provide]                        PROVIDE (SYSJMBI1, 0x18a)
                [!provide]                        PROVIDE (SYSJMBI1_L, 0x18a)
                [!provide]                        PROVIDE (SYSJMBI1_H, 0x18b)
                [!provide]                        PROVIDE (SYSJMBO0, 0x18c)
                [!provide]                        PROVIDE (SYSJMBO0_L, 0x18c)
                [!provide]                        PROVIDE (SYSJMBO0_H, 0x18d)
                [!provide]                        PROVIDE (SYSJMBO1, 0x18e)
                [!provide]                        PROVIDE (SYSJMBO1_L, 0x18e)
                [!provide]                        PROVIDE (SYSJMBO1_H, 0x18f)
                [!provide]                        PROVIDE (SYSUNIV, 0x19a)
                [!provide]                        PROVIDE (SYSUNIV_L, 0x19a)
                [!provide]                        PROVIDE (SYSUNIV_H, 0x19b)
                [!provide]                        PROVIDE (SYSSNIV, 0x19c)
                [!provide]                        PROVIDE (SYSSNIV_L, 0x19c)
                [!provide]                        PROVIDE (SYSSNIV_H, 0x19d)
                [!provide]                        PROVIDE (SYSRSTIV, 0x19e)
                [!provide]                        PROVIDE (SYSRSTIV_L, 0x19e)
                [!provide]                        PROVIDE (SYSRSTIV_H, 0x19f)
                [!provide]                        PROVIDE (TA0CTL, 0x340)
                [!provide]                        PROVIDE (TA0CCTL0, 0x342)
                [!provide]                        PROVIDE (TA0CCTL1, 0x344)
                [!provide]                        PROVIDE (TA0CCTL2, 0x346)
                [!provide]                        PROVIDE (TA0R, 0x350)
                [!provide]                        PROVIDE (TA0CCR0, 0x352)
                [!provide]                        PROVIDE (TA0CCR1, 0x354)
                [!provide]                        PROVIDE (TA0CCR2, 0x356)
                [!provide]                        PROVIDE (TA0IV, 0x36e)
                [!provide]                        PROVIDE (TA0EX0, 0x360)
                0x0000000000000380                PROVIDE (TA1CTL, 0x380)
                [!provide]                        PROVIDE (TA1CCTL0, 0x382)
                [!provide]                        PROVIDE (TA1CCTL1, 0x384)
                [!provide]                        PROVIDE (TA1CCTL2, 0x386)
                [!provide]                        PROVIDE (TA1R, 0x390)
                [!provide]                        PROVIDE (TA1CCR0, 0x392)
                [!provide]                        PROVIDE (TA1CCR1, 0x394)
                [!provide]                        PROVIDE (TA1CCR2, 0x396)
                0x00000000000003ae                PROVIDE (TA1IV, 0x3ae)
                [!provide]                        PROVIDE (TA1EX0, 0x3a0)
                [!provide]                        PROVIDE (TA2CTL, 0x400)
                [!provide]                        PROVIDE (TA2CCTL0, 0x402)
                [!provide]                        PROVIDE (TA2CCTL1, 0x404)
                [!provide]                        PROVIDE (TA2R, 0x410)
                [!provide]                        PROVIDE (TA2CCR0, 0x412)
                [!provide]                        PROVIDE (TA2CCR1, 0x414)
                [!provide]                        PROVIDE (TA2IV, 0x42e)
                [!provide]                        PROVIDE (TA2EX0, 0x420)
                [!provide]                        PROVIDE (TA3CTL, 0x440)
                [!provide]                        PROVIDE (TA3CCTL0, 0x442)
                [!provide]                        PROVIDE (TA3CCTL1, 0x444)
                [!provide]                        PROVIDE (TA3R, 0x450)
                [!provide]                        PROVIDE (TA3CCR0, 0x452)
                [!provide]                        PROVIDE (TA3CCR1, 0x454)
                [!provide]                        PROVIDE (TA3IV, 0x46e)
                [!provide]                        PROVIDE (TA3EX0, 0x460)
                0x00000000000003c0                PROVIDE (TB0CTL, 0x3c0)
                0x00000000000003c2                PROVIDE (TB0CCTL0, 0x3c2)
                [!provide]                        PROVIDE (TB0CCTL1, 0x3c4)
                [!provide]                        PROVIDE (TB0CCTL2, 0x3c6)
                [!provide]                        PROVIDE (TB0CCTL3, 0x3c8)
                [!provide]                        PROVIDE (TB0CCTL4, 0x3ca)
                [!provide]                        PROVIDE (TB0CCTL5, 0x3cc)
                [!provide]                        PROVIDE (TB0CCTL6, 0x3ce)
                [!provide]                        PROVIDE (TB0R, 0x3d0)
                0x00000000000003d2                PROVIDE (TB0CCR0, 0x3d2)
                [!provide]                        PROVIDE (TB0CCR1, 0x3d4)
                [!provide]                        PROVIDE (TB0CCR2, 0x3d6)
                [!provide]                        PROVIDE (TB0CCR3, 0x3d8)
                [!provide]                        PROVIDE (TB0CCR4, 0x3da)
                [!provide]                        PROVIDE (TB0CCR5, 0x3dc)
                [!provide]                        PROVIDE (TB0CCR6, 0x3de)
                0x00000000000003e0                PROVIDE (TB0EX0, 0x3e0)
                [!provide]                        PROVIDE (TB0IV, 0x3ee)
                0x00000000000005c0                PROVIDE (UCA0CTLW0, 0x5c0)
                [!provide]                        PROVIDE (UCA0CTLW0_L, 0x5c0)
                [!provide]                        PROVIDE (UCA0CTLW0_H, 0x5c1)
                [!provide]                        PROVIDE (UCA0CTLW1, 0x5c2)
                [!provide]                        PROVIDE (UCA0CTLW1_L, 0x5c2)
                [!provide]                        PROVIDE (UCA0CTLW1_H, 0x5c3)
                [!provide]                        PROVIDE (UCA0BRW, 0x5c6)
                [!provide]                        PROVIDE (UCA0BRW_L, 0x5c6)
                [!provide]                        PROVIDE (UCA0BRW_H, 0x5c7)
                [!provide]                        PROVIDE (UCA0MCTLW, 0x5c8)
                [!provide]                        PROVIDE (UCA0MCTLW_L, 0x5c8)
                [!provide]                        PROVIDE (UCA0MCTLW_H, 0x5c9)
                0x00000000000005ca                PROVIDE (UCA0STATW, 0x5ca)
                0x00000000000005cc                PROVIDE (UCA0RXBUF, 0x5cc)
                [!provide]                        PROVIDE (UCA0RXBUF_L, 0x5cc)
                [!provide]                        PROVIDE (UCA0RXBUF_H, 0x5cd)
                0x00000000000005ce                PROVIDE (UCA0TXBUF, 0x5ce)
                [!provide]                        PROVIDE (UCA0TXBUF_L, 0x5ce)
                [!provide]                        PROVIDE (UCA0TXBUF_H, 0x5cf)
                [!provide]                        PROVIDE (UCA0ABCTL, 0x5d0)
                [!provide]                        PROVIDE (UCA0IRCTL, 0x5d2)
                [!provide]                        PROVIDE (UCA0IRCTL_L, 0x5d2)
                [!provide]                        PROVIDE (UCA0IRCTL_H, 0x5d3)
                0x00000000000005da                PROVIDE (UCA0IE, 0x5da)
                [!provide]                        PROVIDE (UCA0IE_L, 0x5da)
                [!provide]                        PROVIDE (UCA0IE_H, 0x5db)
                0x00000000000005dc                PROVIDE (UCA0IFG, 0x5dc)
                [!provide]                        PROVIDE (UCA0IFG_L, 0x5dc)
                [!provide]                        PROVIDE (UCA0IFG_H, 0x5dd)
                0x00000000000005de                PROVIDE (UCA0IV, 0x5de)
                0x00000000000005e0                PROVIDE (UCA1CTLW0, 0x5e0)
                [!provide]                        PROVIDE (UCA1CTLW0_L, 0x5e0)
                [!provide]                        PROVIDE (UCA1CTLW0_H, 0x5e1)
                [!provide]                        PROVIDE (UCA1CTLW1, 0x5e2)
                [!provide]                        PROVIDE (UCA1CTLW1_L, 0x5e2)
                [!provide]                        PROVIDE (UCA1CTLW1_H, 0x5e3)
                [!provide]                        PROVIDE (UCA1BRW, 0x5e6)
                [!provide]                        PROVIDE (UCA1BRW_L, 0x5e6)
                [!provide]                        PROVIDE (UCA1BRW_H, 0x5e7)
                [!provide]                        PROVIDE (UCA1MCTLW, 0x5e8)
                [!provide]                        PROVIDE (UCA1MCTLW_L, 0x5e8)
                [!provide]                        PROVIDE (UCA1MCTLW_H, 0x5e9)
                [!provide]                        PROVIDE (UCA1STATW, 0x5ea)
                [!provide]                        PROVIDE (UCA1RXBUF, 0x5ec)
                [!provide]                        PROVIDE (UCA1RXBUF_L, 0x5ec)
                [!provide]                        PROVIDE (UCA1RXBUF_H, 0x5ed)
                [!provide]                        PROVIDE (UCA1TXBUF, 0x5ee)
                [!provide]                        PROVIDE (UCA1TXBUF_L, 0x5ee)
                [!provide]                        PROVIDE (UCA1TXBUF_H, 0x5ef)
                [!provide]                        PROVIDE (UCA1ABCTL, 0x5f0)
                [!provide]                        PROVIDE (UCA1IRCTL, 0x5f2)
                [!provide]                        PROVIDE (UCA1IRCTL_L, 0x5f2)
                [!provide]                        PROVIDE (UCA1IRCTL_H, 0x5f3)
                [!provide]                        PROVIDE (UCA1IE, 0x5fa)
                [!provide]                        PROVIDE (UCA1IE_L, 0x5fa)
                [!provide]                        PROVIDE (UCA1IE_H, 0x5fb)
                0x00000000000005fc                PROVIDE (UCA1IFG, 0x5fc)
                [!provide]                        PROVIDE (UCA1IFG_L, 0x5fc)
                [!provide]                        PROVIDE (UCA1IFG_H, 0x5fd)
                [!provide]                        PROVIDE (UCA1IV, 0x5fe)
                [!provide]                        PROVIDE (UCB0CTLW0, 0x640)
                [!provide]                        PROVIDE (UCB0CTLW0_L, 0x640)
                [!provide]                        PROVIDE (UCB0CTLW0_H, 0x641)
                [!provide]                        PROVIDE (UCB0CTLW1, 0x642)
                [!provide]                        PROVIDE (UCB0CTLW1_L, 0x642)
                [!provide]                        PROVIDE (UCB0CTLW1_H, 0x643)
                [!provide]                        PROVIDE (UCB0BRW, 0x646)
                [!provide]                        PROVIDE (UCB0BRW_L, 0x646)
                [!provide]                        PROVIDE (UCB0BRW_H, 0x647)
                [!provide]                        PROVIDE (UCB0STATW, 0x648)
                [!provide]                        PROVIDE (UCB0STATW_L, 0x648)
                [!provide]                        PROVIDE (UCB0STATW_H, 0x649)
                [!provide]                        PROVIDE (UCB0TBCNT, 0x64a)
                [!provide]                        PROVIDE (UCB0TBCNT_L, 0x64a)
                [!provide]                        PROVIDE (UCB0TBCNT_H, 0x64b)
                [!provide]                        PROVIDE (UCB0RXBUF, 0x64c)
                [!provide]                        PROVIDE (UCB0RXBUF_L, 0x64c)
                [!provide]                        PROVIDE (UCB0RXBUF_H, 0x64d)
                [!provide]                        PROVIDE (UCB0TXBUF, 0x64e)
                [!provide]                        PROVIDE (UCB0TXBUF_L, 0x64e)
                [!provide]                        PROVIDE (UCB0TXBUF_H, 0x64f)
                [!provide]                        PROVIDE (UCB0I2COA0, 0x654)
                [!provide]                        PROVIDE (UCB0I2COA0_L, 0x654)
                [!provide]                        PROVIDE (UCB0I2COA0_H, 0x655)
                [!provide]                        PROVIDE (UCB0I2COA1, 0x656)
                [!provide]                        PROVIDE (UCB0I2COA1_L, 0x656)
                [!provide]                        PROVIDE (UCB0I2COA1_H, 0x657)
                [!provide]                        PROVIDE (UCB0I2COA2, 0x658)
                [!provide]                        PROVIDE (UCB0I2COA2_L, 0x658)
                [!provide]                        PROVIDE (UCB0I2COA2_H, 0x659)
                [!provide]                        PROVIDE (UCB0I2COA3, 0x65a)
                [!provide]                        PROVIDE (UCB0I2COA3_L, 0x65a)
                [!provide]                        PROVIDE (UCB0I2COA3_H, 0x65b)
                [!provide]                        PROVIDE (UCB0ADDRX, 0x65c)
                [!provide]                        PROVIDE (UCB0ADDRX_L, 0x65c)
                [!provide]                        PROVIDE (UCB0ADDRX_H, 0x65d)
                [!provide]                        PROVIDE (UCB0ADDMASK, 0x65e)
                [!provide]                        PROVIDE (UCB0ADDMASK_L, 0x65e)
                [!provide]                        PROVIDE (UCB0ADDMASK_H, 0x65f)
                [!provide]                        PROVIDE (UCB0I2CSA, 0x660)
                [!provide]                        PROVIDE (UCB0I2CSA_L, 0x660)
                [!provide]                        PROVIDE (UCB0I2CSA_H, 0x661)
                [!provide]                        PROVIDE (UCB0IE, 0x66a)
                [!provide]                        PROVIDE (UCB0IE_L, 0x66a)
                [!provide]                        PROVIDE (UCB0IE_H, 0x66b)
                [!provide]                        PROVIDE (UCB0IFG, 0x66c)
                [!provide]                        PROVIDE (UCB0IFG_L, 0x66c)
                [!provide]                        PROVIDE (UCB0IFG_H, 0x66d)
                [!provide]                        PROVIDE (UCB0IV, 0x66e)
                0x000000000000015c                PROVIDE (WDTCTL, 0x15c)
                [!provide]                        PROVIDE (WDTCTL_L, 0x15c)
                [!provide]                        PROVIDE (WDTCTL_H, 0x15d)
                0x0000000000000c00                __idle_stack_size__ = 0xc00
LOAD build/obj/ch.o
LOAD build/obj/chmboxes.o
LOAD build/obj/chmemcore.o
LOAD build/obj/chmempools.o
LOAD build/obj/chcore.o
LOAD build/obj/osal.o
LOAD build/obj/hal.o
LOAD build/obj/hal_st.o
LOAD build/obj/hal_buffers.o
LOAD build/obj/hal_queues.o
LOAD build/obj/hal_mmcsd.o
LOAD build/obj/hal_gpt.o
LOAD build/obj/hal_pal.o
LOAD build/obj/hal_spi.o
LOAD build/obj/hal_uart.o
LOAD build/obj/hal_lld.o
LOAD build/obj/hal_st_lld.o
LOAD build/obj/hal_serial_lld.o
LOAD build/obj/hal_pal_lld.o
LOAD build/obj/hal_dma_lld.o
LOAD build/obj/hal_spi_lld.o
LOAD build/obj/hal_i2c_lld.o
LOAD build/obj/hal_uart_lld.o
LOAD build/obj/hal_gpt_lld.o
LOAD build/obj/hal_adc_lld.o
LOAD build/obj/board.o
LOAD build/obj/sx1278.o
LOAD build/obj/sx1212.o
LOAD build/obj/uart.o
LOAD build/obj/main.o
LOAD build/obj/mych.o
LOAD build/obj/cmds.o
LOAD build/obj/registers.o
LOAD build/obj/slip_uart_dll.o
LOAD build/obj/crc_x25.o
LOAD build/obj/crc_sdlp.o
LOAD build/obj/sdlp.o
LOAD build/obj/rf.o
LOAD build/obj/spp.o
LOAD build/obj/msp_vectors.o
LOAD build/obj/test.o
LOAD /home/awygle/toolchain/install/bin/../lib/gcc/msp430-elf/6.2.0/libgcc.a
START GROUP
LOAD /home/awygle/toolchain/install/bin/../lib/gcc/msp430-elf/6.2.0/libmul_f5.a
LOAD /home/awygle/toolchain/install/bin/../lib/gcc/msp430-elf/6.2.0/../../../../msp430-elf/lib/libc.a
LOAD /home/awygle/toolchain/install/bin/../lib/gcc/msp430-elf/6.2.0/libgcc.a
LOAD /home/awygle/toolchain/install/bin/../lib/gcc/msp430-elf/6.2.0/../../../../msp430-elf/lib/libcrt.a
LOAD /home/awygle/toolchain/install/bin/../lib/gcc/msp430-elf/6.2.0/../../../../msp430-elf/lib/libnosys.a
END GROUP
LOAD /home/awygle/toolchain/install/bin/../lib/gcc/msp430-elf/6.2.0/libgcc.a
LOAD /home/awygle/toolchain/install/bin/../lib/gcc/msp430-elf/6.2.0/../../../../msp430-elf/lib/crtn-minrt.o
LOAD /home/awygle/toolchain/install/bin/../lib/gcc/msp430-elf/6.2.0/libgcc.a
OUTPUT(build/elysium.elf elf32-msp430)

Cross Reference Table

Symbol                                            File
A1_cfg                                            build/obj/uart.o
CRCDIRB_L                                         build/obj/crc_sdlp.o
CRCDI_L                                           build/obj/crc_x25.o
CRCINIRES                                         build/obj/crc_sdlp.o
                                                  build/obj/crc_x25.o
CRCINIRES_H                                       build/obj/crc_sdlp.o
CRCINIRES_L                                       build/obj/crc_sdlp.o
CRCRESR                                           build/obj/crc_x25.o
CRCRESR_H                                         build/obj/crc_x25.o
CRCRESR_L                                         build/obj/crc_x25.o
CSCTL0                                            build/obj/hal_lld.o
CSCTL0_H                                          build/obj/hal_lld.o
CSCTL1                                            build/obj/hal_lld.o
CSCTL2                                            build/obj/hal_lld.o
CSCTL3                                            build/obj/hal_lld.o
CSCTL4                                            build/obj/hal_lld.o
CSCTL6                                            build/obj/hal_lld.o
DLLRxPktCfg                                       build/obj/sdlp.o
DLLTxPktCfg                                       build/obj/sdlp.o
                                                  build/obj/rf.o
DMA0CTL                                           build/obj/hal_dma_lld.o
DMACTL0                                           build/obj/hal_dma_lld.o
DMAIV                                             build/obj/hal_dma_lld.o
FRCTL0                                            build/obj/hal_lld.o
FRCTL0_H                                          build/obj/hal_lld.o
GPTDA1                                            build/obj/hal_gpt_lld.o
                                                  build/obj/slip_uart_dll.o
                                                  build/obj/uart.o
ISR_DMA_VECTOR                                    build/obj/hal_dma_lld.o
ISR_MSP430X_ST_ISR                                build/obj/hal_st_lld.o
ISR_PORT1_VECTOR                                  build/obj/hal_pal_lld.o
ISR_PORT2_VECTOR                                  build/obj/hal_pal_lld.o
ISR_PORT3_VECTOR                                  build/obj/hal_pal_lld.o
ISR_PORT4_VECTOR                                  build/obj/hal_pal_lld.o
ISR_TIMER1_A1_VECTOR                              build/obj/hal_gpt_lld.o
ISR_USCI_A0_VECTOR                                build/obj/hal_uart_lld.o
MainThd                                           build/obj/main.o
                                                  build/obj/test.o
P1IV                                              build/obj/hal_pal_lld.o
P2IV                                              build/obj/hal_pal_lld.o
P3IV                                              build/obj/hal_pal_lld.o
P4IV                                              build/obj/hal_pal_lld.o
PADIR                                             build/obj/hal_pal_lld.o
PAOUT                                             build/obj/hal_pal_lld.o
PAREN                                             build/obj/hal_pal_lld.o
PASEL0                                            build/obj/hal_pal_lld.o
PASEL1                                            build/obj/hal_pal_lld.o
PBDIR                                             build/obj/hal_pal_lld.o
PBOUT                                             build/obj/hal_pal_lld.o
PBREN                                             build/obj/hal_pal_lld.o
PBSEL0                                            build/obj/hal_pal_lld.o
PBSEL1                                            build/obj/hal_pal_lld.o
PJDIR                                             build/obj/hal_pal_lld.o
PJOUT                                             build/obj/hal_pal_lld.o
PJREN                                             build/obj/hal_pal_lld.o
PJSEL0                                            build/obj/hal_pal_lld.o
PJSEL1                                            build/obj/hal_pal_lld.o
PM5CTL0                                           build/obj/hal_pal_lld.o
PMMCTL0                                           build/obj/cmds.o
RFThd                                             build/obj/rf.o
                                                  build/obj/test.o
SPIDA1                                            build/obj/hal_spi_lld.o
                                                  build/obj/rf.o
SX1212D1                                          build/obj/sx1212.o
                                                  build/obj/rf.o
SX1278D1                                          build/obj/sx1278.o
                                                  build/obj/rf.o
                                                  build/obj/sdlp.o
TA1CTL                                            build/obj/hal_gpt_lld.o
TA1IV                                             build/obj/hal_gpt_lld.o
TB0CCR0                                           build/obj/hal_st_lld.o
                                                  build/obj/hal_st.o
TB0CCTL0                                          build/obj/hal_st_lld.o
                                                  build/obj/hal_st.o
TB0CTL                                            build/obj/hal_st_lld.o
TB0EX0                                            build/obj/hal_st_lld.o
Thread2                                           build/obj/test.o
UARTDA0                                           build/obj/hal_uart_lld.o
                                                  build/obj/slip_uart_dll.o
                                                  build/obj/uart.o
UARTThd                                           build/obj/uart.o
                                                  build/obj/test.o
UCA0CTLW0                                         build/obj/hal_uart_lld.o
UCA0IE                                            build/obj/hal_uart_lld.o
UCA0IFG                                           build/obj/hal_uart_lld.o
UCA0IV                                            build/obj/hal_uart_lld.o
UCA0RXBUF                                         build/obj/hal_uart_lld.o
UCA0STATW                                         build/obj/hal_uart_lld.o
UCA0TXBUF                                         build/obj/hal_uart_lld.o
UCA1CTLW0                                         build/obj/hal_spi_lld.o
UCA1IFG                                           build/obj/hal_spi_lld.o
Vector1                                           build/obj/msp_vectors.o
Vector10                                          build/obj/msp_vectors.o
Vector11                                          build/obj/msp_vectors.o
Vector12                                          build/obj/msp_vectors.o
Vector13                                          build/obj/msp_vectors.o
Vector14                                          build/obj/msp_vectors.o
Vector15                                          build/obj/msp_vectors.o
Vector16                                          build/obj/msp_vectors.o
Vector17                                          build/obj/msp_vectors.o
Vector18                                          build/obj/msp_vectors.o
Vector19                                          build/obj/msp_vectors.o
Vector2                                           build/obj/msp_vectors.o
Vector20                                          build/obj/msp_vectors.o
Vector21                                          build/obj/msp_vectors.o
Vector22                                          build/obj/msp_vectors.o
Vector23                                          build/obj/msp_vectors.o
Vector24                                          build/obj/msp_vectors.o
Vector25                                          build/obj/msp_vectors.o
Vector26                                          build/obj/msp_vectors.o
Vector27                                          build/obj/msp_vectors.o
Vector28                                          build/obj/msp_vectors.o
Vector29                                          build/obj/msp_vectors.o
Vector3                                           build/obj/msp_vectors.o
Vector30                                          build/obj/msp_vectors.o
Vector31                                          build/obj/msp_vectors.o
Vector32                                          build/obj/msp_vectors.o
Vector35                                          build/obj/msp_vectors.o
Vector36                                          build/obj/msp_vectors.o
Vector38                                          build/obj/msp_vectors.o
Vector39                                          build/obj/msp_vectors.o
Vector4                                           build/obj/msp_vectors.o
Vector42                                          build/obj/msp_vectors.o
Vector45                                          build/obj/msp_vectors.o
Vector46                                          build/obj/msp_vectors.o
Vector47                                          build/obj/msp_vectors.o
Vector48                                          build/obj/msp_vectors.o
Vector5                                           build/obj/msp_vectors.o
Vector50                                          build/obj/msp_vectors.o
Vector51                                          build/obj/msp_vectors.o
Vector53                                          build/obj/msp_vectors.o
Vector54                                          build/obj/msp_vectors.o
Vector55                                          build/obj/msp_vectors.o
Vector6                                           build/obj/msp_vectors.o
Vector7                                           build/obj/msp_vectors.o
Vector8                                           build/obj/msp_vectors.o
Vector9                                           build/obj/msp_vectors.o
WDTCTL                                            build/obj/test.o
                                                  build/obj/hal_lld.o
__ashldi3                                         /home/awygle/toolchain/install/bin/../lib/gcc/msp430-elf/6.2.0/libgcc.a(_ashldi3.o)
                                                  /home/awygle/toolchain/install/bin/../lib/gcc/msp430-elf/6.2.0/libgcc.a(_udivdi3.o)
__bsssize                                         /home/awygle/toolchain/install/bin/../lib/gcc/msp430-elf/6.2.0/../../../../msp430-elf/lib/libcrt.a(crt_bss.o)
__bssstart                                        /home/awygle/toolchain/install/bin/../lib/gcc/msp430-elf/6.2.0/../../../../msp430-elf/lib/libcrt.a(crt_bss.o)
__clz_tab                                         /home/awygle/toolchain/install/bin/../lib/gcc/msp430-elf/6.2.0/libgcc.a(_clz.o)
                                                  /home/awygle/toolchain/install/bin/../lib/gcc/msp430-elf/6.2.0/libgcc.a(_clzdi2.o)
__clzdi2                                          /home/awygle/toolchain/install/bin/../lib/gcc/msp430-elf/6.2.0/libgcc.a(_clzdi2.o)
                                                  /home/awygle/toolchain/install/bin/../lib/gcc/msp430-elf/6.2.0/libgcc.a(_udivdi3.o)
__cmpsi2                                          /home/awygle/toolchain/install/bin/../lib/gcc/msp430-elf/6.2.0/libgcc.a(cmpsi2.o)
__crt0_call_just_main                             /home/awygle/toolchain/install/bin/../lib/gcc/msp430-elf/6.2.0/../../../../msp430-elf/lib/libcrt.a(crt_main_minrt.o)
                                                  /home/awygle/toolchain/install/bin/../lib/gcc/msp430-elf/6.2.0/../../../../msp430-elf/lib/crt0-minrt.o
__crt0_init_bss                                   /home/awygle/toolchain/install/bin/../lib/gcc/msp430-elf/6.2.0/../../../../msp430-elf/lib/libcrt.a(crt_bss.o)
                                                  build/obj/test.o
                                                  build/obj/spp.o
                                                  build/obj/rf.o
                                                  build/obj/sdlp.o
                                                  build/obj/slip_uart_dll.o
                                                  build/obj/registers.o
                                                  build/obj/cmds.o
                                                  build/obj/main.o
                                                  build/obj/uart.o
                                                  build/obj/sx1212.o
                                                  build/obj/sx1278.o
                                                  build/obj/hal_spi_lld.o
                                                  build/obj/hal_dma_lld.o
                                                  build/obj/chmemcore.o
__crt0_movedata                                   /home/awygle/toolchain/install/bin/../lib/gcc/msp430-elf/6.2.0/../../../../msp430-elf/lib/libcrt.a(crt_movedata.o)
                                                  build/obj/test.o
                                                  build/obj/rf.o
                                                  build/obj/slip_uart_dll.o
                                                  build/obj/main.o
                                                  build/obj/uart.o
                                                  build/obj/sx1212.o
                                                  build/obj/sx1278.o
                                                  build/obj/hal_gpt_lld.o
                                                  build/obj/hal_uart_lld.o
                                                  build/obj/hal_spi_lld.o
                                                  build/obj/hal_pal_lld.o
                                                  build/obj/chcore.o
                                                  build/obj/ch.o
__crt0_start                                      /home/awygle/toolchain/install/bin/../lib/gcc/msp430-elf/6.2.0/../../../../msp430-elf/lib/crt0-minrt.o
__datastart                                       /home/awygle/toolchain/install/bin/../lib/gcc/msp430-elf/6.2.0/../../../../msp430-elf/lib/libcrt.a(crt_movedata.o)
__heap_base__                                     build/obj/chmemcore.o
__heap_end__                                      build/obj/chmemcore.o
__high_bsssize                                    /home/awygle/toolchain/install/bin/../lib/gcc/msp430-elf/6.2.0/../../../../msp430-elf/lib/crt0-minrt.o
__high_bssstart                                   /home/awygle/toolchain/install/bin/../lib/gcc/msp430-elf/6.2.0/../../../../msp430-elf/lib/crt0-minrt.o
__high_datastart                                  /home/awygle/toolchain/install/bin/../lib/gcc/msp430-elf/6.2.0/../../../../msp430-elf/lib/crt0-minrt.o
__lshrdi3                                         /home/awygle/toolchain/install/bin/../lib/gcc/msp430-elf/6.2.0/libgcc.a(_lshrdi3.o)
                                                  /home/awygle/toolchain/install/bin/../lib/gcc/msp430-elf/6.2.0/libgcc.a(_udivdi3.o)
__main_thread_stack_base__                        build/obj/test.o
                                                  build/obj/ch.o
__main_thread_stack_end__                         build/obj/test.o
__msp430x_in_isr                                  build/obj/chcore.o
                                                  build/obj/hal_gpt_lld.o
                                                  build/obj/hal_uart_lld.o
                                                  build/obj/hal_dma_lld.o
                                                  build/obj/hal_pal_lld.o
                                                  build/obj/hal_st_lld.o
                                                  build/obj/ch.o
__mspabi_divli                                    /home/awygle/toolchain/install/bin/../lib/gcc/msp430-elf/6.2.0/libgcc.a(lib2divSI.o)
__mspabi_divllu                                   /home/awygle/toolchain/install/bin/../lib/gcc/msp430-elf/6.2.0/libgcc.a(lib2divSI.o)
__mspabi_divlu                                    /home/awygle/toolchain/install/bin/../lib/gcc/msp430-elf/6.2.0/libgcc.a(lib2divSI.o)
__mspabi_divul                                    /home/awygle/toolchain/install/bin/../lib/gcc/msp430-elf/6.2.0/libgcc.a(lib2divSI.o)
                                                  build/obj/cmds.o
                                                  build/obj/sx1212.o
                                                  build/obj/sx1278.o
                                                  build/obj/hal_gpt_lld.o
                                                  build/obj/hal_uart_lld.o
                                                  build/obj/hal_spi_lld.o
__mspabi_divull                                   /home/awygle/toolchain/install/bin/../lib/gcc/msp430-elf/6.2.0/libgcc.a(_udivdi3.o)
                                                  /home/awygle/toolchain/install/bin/../lib/gcc/msp430-elf/6.2.0/libgcc.a(lib2divSI.o)
__mspabi_mpyi                                     /home/awygle/toolchain/install/bin/../lib/gcc/msp430-elf/6.2.0/libmul_f5.a(lib2hw_mul_f5.o)
__mspabi_mpyi_f5hw                                /home/awygle/toolchain/install/bin/../lib/gcc/msp430-elf/6.2.0/libmul_f5.a(lib2hw_mul_f5.o)
__mspabi_mpyl                                     /home/awygle/toolchain/install/bin/../lib/gcc/msp430-elf/6.2.0/libmul_f5.a(lib2hw_mul_f5.o)
                                                  /home/awygle/toolchain/install/bin/../lib/gcc/msp430-elf/6.2.0/libgcc.a(_muldi3.o)
__mspabi_mpyl_f5hw                                /home/awygle/toolchain/install/bin/../lib/gcc/msp430-elf/6.2.0/libmul_f5.a(lib2hw_mul_f5.o)
__mspabi_mpyll                                    /home/awygle/toolchain/install/bin/../lib/gcc/msp430-elf/6.2.0/libgcc.a(_muldi3.o)
                                                  /home/awygle/toolchain/install/bin/../lib/gcc/msp430-elf/6.2.0/libmul_f5.a(lib2hw_mul_f5.o)
__mspabi_mpyll_f5hw                               /home/awygle/toolchain/install/bin/../lib/gcc/msp430-elf/6.2.0/libmul_f5.a(lib2hw_mul_f5.o)
__mspabi_mpysl                                    /home/awygle/toolchain/install/bin/../lib/gcc/msp430-elf/6.2.0/libmul_f5.a(lib2hw_mul_f5.o)
__mspabi_mpysl_f5hw                               /home/awygle/toolchain/install/bin/../lib/gcc/msp430-elf/6.2.0/libmul_f5.a(lib2hw_mul_f5.o)
__mspabi_mpysll                                   /home/awygle/toolchain/install/bin/../lib/gcc/msp430-elf/6.2.0/libmul_f5.a(lib2hw_mul_f5.o)
__mspabi_mpysll_f5hw                              /home/awygle/toolchain/install/bin/../lib/gcc/msp430-elf/6.2.0/libmul_f5.a(lib2hw_mul_f5.o)
__mspabi_mpyul                                    /home/awygle/toolchain/install/bin/../lib/gcc/msp430-elf/6.2.0/libmul_f5.a(lib2hw_mul_f5.o)
__mspabi_mpyull                                   /home/awygle/toolchain/install/bin/../lib/gcc/msp430-elf/6.2.0/libmul_f5.a(lib2hw_mul_f5.o)
__mspabi_mpyull_f5hw                              /home/awygle/toolchain/install/bin/../lib/gcc/msp430-elf/6.2.0/libmul_f5.a(lib2hw_mul_f5.o)
__mspabi_remli                                    /home/awygle/toolchain/install/bin/../lib/gcc/msp430-elf/6.2.0/libgcc.a(lib2divSI.o)
__mspabi_remul                                    /home/awygle/toolchain/install/bin/../lib/gcc/msp430-elf/6.2.0/libgcc.a(lib2divSI.o)
__mspabi_slli                                     /home/awygle/toolchain/install/bin/../lib/gcc/msp430-elf/6.2.0/libgcc.a(slli.o)
                                                  build/obj/test.o
                                                  build/obj/sdlp.o
                                                  build/obj/cmds.o
                                                  build/obj/sx1212.o
                                                  build/obj/sx1278.o
                                                  build/obj/hal_spi_lld.o
                                                  build/obj/hal_dma_lld.o
                                                  build/obj/hal_pal_lld.o
                                                  build/obj/hal_pal.o
__mspabi_slli_1                                   /home/awygle/toolchain/install/bin/../lib/gcc/msp430-elf/6.2.0/libgcc.a(slli.o)
__mspabi_slli_10                                  /home/awygle/toolchain/install/bin/../lib/gcc/msp430-elf/6.2.0/libgcc.a(slli.o)
__mspabi_slli_11                                  /home/awygle/toolchain/install/bin/../lib/gcc/msp430-elf/6.2.0/libgcc.a(slli.o)
__mspabi_slli_12                                  /home/awygle/toolchain/install/bin/../lib/gcc/msp430-elf/6.2.0/libgcc.a(slli.o)
__mspabi_slli_13                                  /home/awygle/toolchain/install/bin/../lib/gcc/msp430-elf/6.2.0/libgcc.a(slli.o)
__mspabi_slli_14                                  /home/awygle/toolchain/install/bin/../lib/gcc/msp430-elf/6.2.0/libgcc.a(slli.o)
__mspabi_slli_15                                  /home/awygle/toolchain/install/bin/../lib/gcc/msp430-elf/6.2.0/libgcc.a(slli.o)
__mspabi_slli_2                                   /home/awygle/toolchain/install/bin/../lib/gcc/msp430-elf/6.2.0/libgcc.a(slli.o)
__mspabi_slli_3                                   /home/awygle/toolchain/install/bin/../lib/gcc/msp430-elf/6.2.0/libgcc.a(slli.o)
__mspabi_slli_4                                   /home/awygle/toolchain/install/bin/../lib/gcc/msp430-elf/6.2.0/libgcc.a(slli.o)
__mspabi_slli_5                                   /home/awygle/toolchain/install/bin/../lib/gcc/msp430-elf/6.2.0/libgcc.a(slli.o)
__mspabi_slli_6                                   /home/awygle/toolchain/install/bin/../lib/gcc/msp430-elf/6.2.0/libgcc.a(slli.o)
__mspabi_slli_7                                   /home/awygle/toolchain/install/bin/../lib/gcc/msp430-elf/6.2.0/libgcc.a(slli.o)
__mspabi_slli_8                                   /home/awygle/toolchain/install/bin/../lib/gcc/msp430-elf/6.2.0/libgcc.a(slli.o)
__mspabi_slli_9                                   /home/awygle/toolchain/install/bin/../lib/gcc/msp430-elf/6.2.0/libgcc.a(slli.o)
__mspabi_slll                                     /home/awygle/toolchain/install/bin/../lib/gcc/msp430-elf/6.2.0/libgcc.a(slli.o)
                                                  /home/awygle/toolchain/install/bin/../lib/gcc/msp430-elf/6.2.0/libgcc.a(_muldi3.o)
                                                  /home/awygle/toolchain/install/bin/../lib/gcc/msp430-elf/6.2.0/libgcc.a(_ashldi3.o)
                                                  /home/awygle/toolchain/install/bin/../lib/gcc/msp430-elf/6.2.0/libgcc.a(_lshrdi3.o)
                                                  build/obj/test.o
                                                  build/obj/cmds.o
                                                  build/obj/sx1212.o
__mspabi_slll_1                                   /home/awygle/toolchain/install/bin/../lib/gcc/msp430-elf/6.2.0/libgcc.a(slli.o)
__mspabi_slll_10                                  /home/awygle/toolchain/install/bin/../lib/gcc/msp430-elf/6.2.0/libgcc.a(slli.o)
__mspabi_slll_11                                  /home/awygle/toolchain/install/bin/../lib/gcc/msp430-elf/6.2.0/libgcc.a(slli.o)
                                                  build/obj/sx1278.o
__mspabi_slll_12                                  /home/awygle/toolchain/install/bin/../lib/gcc/msp430-elf/6.2.0/libgcc.a(slli.o)
__mspabi_slll_13                                  /home/awygle/toolchain/install/bin/../lib/gcc/msp430-elf/6.2.0/libgcc.a(slli.o)
__mspabi_slll_14                                  /home/awygle/toolchain/install/bin/../lib/gcc/msp430-elf/6.2.0/libgcc.a(slli.o)
__mspabi_slll_15                                  /home/awygle/toolchain/install/bin/../lib/gcc/msp430-elf/6.2.0/libgcc.a(slli.o)
__mspabi_slll_2                                   /home/awygle/toolchain/install/bin/../lib/gcc/msp430-elf/6.2.0/libgcc.a(slli.o)
__mspabi_slll_3                                   /home/awygle/toolchain/install/bin/../lib/gcc/msp430-elf/6.2.0/libgcc.a(slli.o)
                                                  build/obj/sx1212.o
__mspabi_slll_4                                   /home/awygle/toolchain/install/bin/../lib/gcc/msp430-elf/6.2.0/libgcc.a(slli.o)
__mspabi_slll_5                                   /home/awygle/toolchain/install/bin/../lib/gcc/msp430-elf/6.2.0/libgcc.a(slli.o)
                                                  build/obj/cmds.o
__mspabi_slll_6                                   /home/awygle/toolchain/install/bin/../lib/gcc/msp430-elf/6.2.0/libgcc.a(slli.o)
__mspabi_slll_7                                   /home/awygle/toolchain/install/bin/../lib/gcc/msp430-elf/6.2.0/libgcc.a(slli.o)
__mspabi_slll_8                                   /home/awygle/toolchain/install/bin/../lib/gcc/msp430-elf/6.2.0/libgcc.a(slli.o)
                                                  build/obj/sx1278.o
__mspabi_slll_9                                   /home/awygle/toolchain/install/bin/../lib/gcc/msp430-elf/6.2.0/libgcc.a(slli.o)
__mspabi_srli                                     /home/awygle/toolchain/install/bin/../lib/gcc/msp430-elf/6.2.0/libgcc.a(srli.o)
                                                  build/obj/sx1212.o
                                                  build/obj/sx1278.o
                                                  build/obj/hal_dma_lld.o
                                                  build/obj/hal_pal.o
__mspabi_srli_1                                   /home/awygle/toolchain/install/bin/../lib/gcc/msp430-elf/6.2.0/libgcc.a(srli.o)
__mspabi_srli_10                                  /home/awygle/toolchain/install/bin/../lib/gcc/msp430-elf/6.2.0/libgcc.a(srli.o)
__mspabi_srli_11                                  /home/awygle/toolchain/install/bin/../lib/gcc/msp430-elf/6.2.0/libgcc.a(srli.o)
__mspabi_srli_12                                  /home/awygle/toolchain/install/bin/../lib/gcc/msp430-elf/6.2.0/libgcc.a(srli.o)
__mspabi_srli_13                                  /home/awygle/toolchain/install/bin/../lib/gcc/msp430-elf/6.2.0/libgcc.a(srli.o)
__mspabi_srli_14                                  /home/awygle/toolchain/install/bin/../lib/gcc/msp430-elf/6.2.0/libgcc.a(srli.o)
__mspabi_srli_15                                  /home/awygle/toolchain/install/bin/../lib/gcc/msp430-elf/6.2.0/libgcc.a(srli.o)
__mspabi_srli_2                                   /home/awygle/toolchain/install/bin/../lib/gcc/msp430-elf/6.2.0/libgcc.a(srli.o)
__mspabi_srli_3                                   /home/awygle/toolchain/install/bin/../lib/gcc/msp430-elf/6.2.0/libgcc.a(srli.o)
__mspabi_srli_4                                   /home/awygle/toolchain/install/bin/../lib/gcc/msp430-elf/6.2.0/libgcc.a(srli.o)
__mspabi_srli_5                                   /home/awygle/toolchain/install/bin/../lib/gcc/msp430-elf/6.2.0/libgcc.a(srli.o)
__mspabi_srli_6                                   /home/awygle/toolchain/install/bin/../lib/gcc/msp430-elf/6.2.0/libgcc.a(srli.o)
__mspabi_srli_7                                   /home/awygle/toolchain/install/bin/../lib/gcc/msp430-elf/6.2.0/libgcc.a(srli.o)
__mspabi_srli_8                                   /home/awygle/toolchain/install/bin/../lib/gcc/msp430-elf/6.2.0/libgcc.a(srli.o)
                                                  build/obj/sx1278.o
__mspabi_srli_9                                   /home/awygle/toolchain/install/bin/../lib/gcc/msp430-elf/6.2.0/libgcc.a(srli.o)
__mspabi_srll                                     /home/awygle/toolchain/install/bin/../lib/gcc/msp430-elf/6.2.0/libgcc.a(srli.o)
                                                  /home/awygle/toolchain/install/bin/../lib/gcc/msp430-elf/6.2.0/libgcc.a(_muldi3.o)
                                                  /home/awygle/toolchain/install/bin/../lib/gcc/msp430-elf/6.2.0/libgcc.a(_clzdi2.o)
                                                  /home/awygle/toolchain/install/bin/../lib/gcc/msp430-elf/6.2.0/libgcc.a(_ashldi3.o)
                                                  /home/awygle/toolchain/install/bin/../lib/gcc/msp430-elf/6.2.0/libgcc.a(_lshrdi3.o)
                                                  build/obj/sx1212.o
                                                  build/obj/sx1278.o
__mspabi_srll_1                                   /home/awygle/toolchain/install/bin/../lib/gcc/msp430-elf/6.2.0/libgcc.a(srli.o)
__mspabi_srll_10                                  /home/awygle/toolchain/install/bin/../lib/gcc/msp430-elf/6.2.0/libgcc.a(srli.o)
__mspabi_srll_11                                  /home/awygle/toolchain/install/bin/../lib/gcc/msp430-elf/6.2.0/libgcc.a(srli.o)
__mspabi_srll_12                                  /home/awygle/toolchain/install/bin/../lib/gcc/msp430-elf/6.2.0/libgcc.a(srli.o)
__mspabi_srll_13                                  /home/awygle/toolchain/install/bin/../lib/gcc/msp430-elf/6.2.0/libgcc.a(srli.o)
__mspabi_srll_14                                  /home/awygle/toolchain/install/bin/../lib/gcc/msp430-elf/6.2.0/libgcc.a(srli.o)
__mspabi_srll_15                                  /home/awygle/toolchain/install/bin/../lib/gcc/msp430-elf/6.2.0/libgcc.a(srli.o)
__mspabi_srll_2                                   /home/awygle/toolchain/install/bin/../lib/gcc/msp430-elf/6.2.0/libgcc.a(srli.o)
__mspabi_srll_3                                   /home/awygle/toolchain/install/bin/../lib/gcc/msp430-elf/6.2.0/libgcc.a(srli.o)
                                                  build/obj/hal_gpt_lld.o
__mspabi_srll_4                                   /home/awygle/toolchain/install/bin/../lib/gcc/msp430-elf/6.2.0/libgcc.a(srli.o)
                                                  build/obj/sx1278.o
__mspabi_srll_5                                   /home/awygle/toolchain/install/bin/../lib/gcc/msp430-elf/6.2.0/libgcc.a(srli.o)
__mspabi_srll_6                                   /home/awygle/toolchain/install/bin/../lib/gcc/msp430-elf/6.2.0/libgcc.a(srli.o)
__mspabi_srll_7                                   /home/awygle/toolchain/install/bin/../lib/gcc/msp430-elf/6.2.0/libgcc.a(srli.o)
__mspabi_srll_8                                   /home/awygle/toolchain/install/bin/../lib/gcc/msp430-elf/6.2.0/libgcc.a(srli.o)
__mspabi_srll_9                                   /home/awygle/toolchain/install/bin/../lib/gcc/msp430-elf/6.2.0/libgcc.a(srli.o)
__muldi3                                          /home/awygle/toolchain/install/bin/../lib/gcc/msp430-elf/6.2.0/libmul_f5.a(lib2hw_mul_f5.o)
__muldisi2                                        /home/awygle/toolchain/install/bin/../lib/gcc/msp430-elf/6.2.0/libmul_f5.a(lib2hw_mul_f5.o)
__mulhi2_f5                                       /home/awygle/toolchain/install/bin/../lib/gcc/msp430-elf/6.2.0/libmul_f5.a(lib2hw_mul_f5.o)
                                                  build/obj/sx1212.o
                                                  build/obj/hal_buffers.o
__mulsi2_f5                                       /home/awygle/toolchain/install/bin/../lib/gcc/msp430-elf/6.2.0/libmul_f5.a(lib2hw_mul_f5.o)
                                                  build/obj/sx1212.o
                                                  build/obj/hal_uart_lld.o
__mulsihi2                                        /home/awygle/toolchain/install/bin/../lib/gcc/msp430-elf/6.2.0/libmul_f5.a(lib2hw_mul_f5.o)
__rom_highdatacopysize                            /home/awygle/toolchain/install/bin/../lib/gcc/msp430-elf/6.2.0/../../../../msp430-elf/lib/crt0-minrt.o
__rom_highdatastart                               /home/awygle/toolchain/install/bin/../lib/gcc/msp430-elf/6.2.0/../../../../msp430-elf/lib/crt0-minrt.o
__romdatacopysize                                 /home/awygle/toolchain/install/bin/../lib/gcc/msp430-elf/6.2.0/../../../../msp430-elf/lib/libcrt.a(crt_movedata.o)
__romdatastart                                    /home/awygle/toolchain/install/bin/../lib/gcc/msp430-elf/6.2.0/../../../../msp430-elf/lib/libcrt.a(crt_movedata.o)
__stack                                           /home/awygle/toolchain/install/bin/../lib/gcc/msp430-elf/6.2.0/../../../../msp430-elf/lib/crt0-minrt.o
__ucmpsi2                                         /home/awygle/toolchain/install/bin/../lib/gcc/msp430-elf/6.2.0/libgcc.a(cmpsi2.o)
                                                  build/obj/rf.o
__umuldisi2                                       /home/awygle/toolchain/install/bin/../lib/gcc/msp430-elf/6.2.0/libmul_f5.a(lib2hw_mul_f5.o)
__umulsihi2                                       /home/awygle/toolchain/install/bin/../lib/gcc/msp430-elf/6.2.0/libmul_f5.a(lib2hw_mul_f5.o)
__upper_data_init                                 /home/awygle/toolchain/install/bin/../lib/gcc/msp430-elf/6.2.0/../../../../msp430-elf/lib/crt0-minrt.o
_core_init                                        build/obj/chmemcore.o
_dbg_check_disable                                build/obj/ch.o
_dbg_check_enable                                 build/obj/ch.o
_dbg_check_enter_isr                              build/obj/ch.o
                                                  build/obj/hal_gpt_lld.o
                                                  build/obj/hal_uart_lld.o
                                                  build/obj/hal_dma_lld.o
                                                  build/obj/hal_pal_lld.o
                                                  build/obj/hal_st_lld.o
_dbg_check_leave_isr                              build/obj/ch.o
                                                  build/obj/hal_gpt_lld.o
                                                  build/obj/hal_uart_lld.o
                                                  build/obj/hal_dma_lld.o
                                                  build/obj/hal_pal_lld.o
                                                  build/obj/hal_st_lld.o
_dbg_check_lock                                   build/obj/ch.o
                                                  build/obj/spp.o
                                                  build/obj/rf.o
                                                  build/obj/sdlp.o
                                                  build/obj/slip_uart_dll.o
                                                  build/obj/registers.o
                                                  build/obj/cmds.o
                                                  build/obj/uart.o
                                                  build/obj/sx1212.o
                                                  build/obj/sx1278.o
                                                  build/obj/hal_gpt_lld.o
                                                  build/obj/hal_uart_lld.o
                                                  build/obj/hal_dma_lld.o
                                                  build/obj/hal_pal_lld.o
                                                  build/obj/hal_st_lld.o
                                                  build/obj/hal_uart.o
                                                  build/obj/hal_spi.o
                                                  build/obj/hal_gpt.o
                                                  build/obj/hal_queues.o
                                                  build/obj/hal_buffers.o
                                                  build/obj/chmempools.o
                                                  build/obj/chmemcore.o
                                                  build/obj/chmboxes.o
_dbg_check_lock_from_isr                          build/obj/ch.o
                                                  build/obj/sdlp.o
                                                  build/obj/slip_uart_dll.o
                                                  build/obj/registers.o
                                                  build/obj/cmds.o
                                                  build/obj/uart.o
                                                  build/obj/sx1212.o
                                                  build/obj/sx1278.o
                                                  build/obj/hal_uart_lld.o
                                                  build/obj/hal_spi_lld.o
                                                  build/obj/hal_st_lld.o
_dbg_check_suspend                                build/obj/ch.o
_dbg_check_unlock                                 build/obj/ch.o
                                                  build/obj/spp.o
                                                  build/obj/rf.o
                                                  build/obj/sdlp.o
                                                  build/obj/slip_uart_dll.o
                                                  build/obj/registers.o
                                                  build/obj/cmds.o
                                                  build/obj/uart.o
                                                  build/obj/sx1212.o
                                                  build/obj/sx1278.o
                                                  build/obj/hal_gpt_lld.o
                                                  build/obj/hal_uart_lld.o
                                                  build/obj/hal_dma_lld.o
                                                  build/obj/hal_pal_lld.o
                                                  build/obj/hal_st_lld.o
                                                  build/obj/hal_uart.o
                                                  build/obj/hal_spi.o
                                                  build/obj/hal_gpt.o
                                                  build/obj/hal_queues.o
                                                  build/obj/hal_buffers.o
                                                  build/obj/chcore.o
                                                  build/obj/chmempools.o
                                                  build/obj/chmemcore.o
                                                  build/obj/chmboxes.o
_dbg_check_unlock_from_isr                        build/obj/ch.o
                                                  build/obj/sdlp.o
                                                  build/obj/slip_uart_dll.o
                                                  build/obj/registers.o
                                                  build/obj/cmds.o
                                                  build/obj/uart.o
                                                  build/obj/sx1212.o
                                                  build/obj/sx1278.o
                                                  build/obj/hal_uart_lld.o
                                                  build/obj/hal_spi_lld.o
                                                  build/obj/hal_st_lld.o
_mspabi_mpyul_f5hw                                /home/awygle/toolchain/install/bin/../lib/gcc/msp430-elf/6.2.0/libmul_f5.a(lib2hw_mul_f5.o)
_pal_lld_disablepadevent                          build/obj/hal_pal_lld.o
                                                  build/obj/sdlp.o
                                                  build/obj/sx1212.o
                                                  build/obj/sx1278.o
_pal_lld_enablepadevent                           build/obj/hal_pal_lld.o
                                                  build/obj/sx1212.o
                                                  build/obj/sx1278.o
_pal_lld_init                                     build/obj/hal_pal_lld.o
                                                  build/obj/hal.o
_pal_lld_setgroupmode                             build/obj/hal_pal_lld.o
                                                  build/obj/sx1212.o
                                                  build/obj/sx1278.o
                                                  build/obj/hal_pal.o
_port_switch                                      build/obj/chcore.o
                                                  build/obj/ch.o
_port_thread_start                                build/obj/chcore.o
                                                  build/obj/ch.o
a_frames                                          build/obj/sdlp.o
b_frames                                          build/obj/sdlp.o
bank0p                                            build/obj/registers.o
                                                  build/obj/spp.o
                                                  build/obj/rf.o
                                                  build/obj/sdlp.o
                                                  build/obj/cmds.o
                                                  build/obj/uart.o
bank0w                                            build/obj/registers.o
                                                  build/obj/cmds.o
boardInit                                         build/obj/board.o
                                                  build/obj/hal.o
bootloader                                        build/obj/test.o
                                                  build/obj/cmds.o
calc_next_buff                                    build/obj/slip_uart_dll.o
chCoreAllocAligned                                build/obj/chmemcore.o
chCoreAllocAlignedI                               build/obj/chmemcore.o
chCoreGetStatusX                                  build/obj/chmemcore.o
chDbgCheckClassI                                  build/obj/ch.o
                                                  build/obj/spp.o
                                                  build/obj/rf.o
                                                  build/obj/registers.o
                                                  build/obj/cmds.o
                                                  build/obj/uart.o
                                                  build/obj/sx1212.o
                                                  build/obj/hal_dma_lld.o
                                                  build/obj/hal_uart.o
                                                  build/obj/hal_gpt.o
                                                  build/obj/hal_queues.o
                                                  build/obj/hal_buffers.o
                                                  build/obj/chmempools.o
                                                  build/obj/chmemcore.o
                                                  build/obj/chmboxes.o
chDbgCheckClassS                                  build/obj/ch.o
                                                  build/obj/test.o
                                                  build/obj/spp.o
                                                  build/obj/sdlp.o
                                                  build/obj/mych.o
                                                  build/obj/main.o
                                                  build/obj/hal_dma_lld.o
                                                  build/obj/hal_buffers.o
                                                  build/obj/chmboxes.o
chEvtSignal                                       build/obj/ch.o
                                                  build/obj/rf.o
                                                  build/obj/sdlp.o
                                                  build/obj/uart.o
chEvtSignalI                                      build/obj/ch.o
                                                  build/obj/rf.o
                                                  build/obj/sdlp.o
                                                  build/obj/slip_uart_dll.o
                                                  build/obj/uart.o
chEvtWaitAnyTimeout                               build/obj/ch.o
                                                  build/obj/rf.o
                                                  build/obj/sdlp.o
                                                  build/obj/uart.o
chEvtWaitAnyTimeoutS                              build/obj/mych.o
chGuardedPoolAllocTimeout                         build/obj/chmempools.o
chGuardedPoolAllocTimeoutS                        build/obj/chmempools.o
chGuardedPoolFree                                 build/obj/chmempools.o
chGuardedPoolFreeI                                build/obj/chmempools.o
chGuardedPoolLoadArray                            build/obj/chmempools.o
chGuardedPoolObjectInit                           build/obj/chmempools.o
chMBFetch                                         build/obj/chmboxes.o
                                                  build/obj/sdlp.o
                                                  build/obj/main.o
chMBFetchI                                        build/obj/chmboxes.o
chMBFetchS                                        build/obj/chmboxes.o
                                                  build/obj/uart.o
chMBObjectInit                                    build/obj/chmboxes.o
chMBPost                                          build/obj/chmboxes.o
                                                  build/obj/main.o
chMBPostAhead                                     build/obj/chmboxes.o
chMBPostAheadI                                    build/obj/chmboxes.o
chMBPostAheadS                                    build/obj/chmboxes.o
chMBPostI                                         build/obj/chmboxes.o
                                                  build/obj/rf.o
                                                  build/obj/main.o
                                                  build/obj/uart.o
chMBPostS                                         build/obj/chmboxes.o
                                                  build/obj/rf.o
                                                  build/obj/main.o
                                                  build/obj/uart.o
chMBReset                                         build/obj/chmboxes.o
chMBResetI                                        build/obj/chmboxes.o
chPoolAlloc                                       build/obj/chmempools.o
                                                  build/obj/spp.o
chPoolAllocI                                      build/obj/chmempools.o
                                                  build/obj/spp.o
chPoolFree                                        build/obj/chmempools.o
                                                  build/obj/spp.o
chPoolFreeI                                       build/obj/chmempools.o
                                                  build/obj/spp.o
chPoolLoadArray                                   build/obj/chmempools.o
chPoolObjectInit                                  build/obj/chmempools.o
chSchDoReschedule                                 build/obj/ch.o
                                                  build/obj/hal_gpt_lld.o
                                                  build/obj/hal_uart_lld.o
                                                  build/obj/hal_dma_lld.o
                                                  build/obj/hal_pal_lld.o
                                                  build/obj/hal_st_lld.o
chSchGoSleepTimeoutS                              build/obj/ch.o
                                                  build/obj/mych.o
chSchIsPreemptionRequired                         build/obj/ch.o
                                                  build/obj/hal_gpt_lld.o
                                                  build/obj/hal_uart_lld.o
                                                  build/obj/hal_dma_lld.o
                                                  build/obj/hal_pal_lld.o
                                                  build/obj/hal_st_lld.o
chSchReadyI                                       build/obj/ch.o
                                                  build/obj/uart.o
                                                  build/obj/osal.o
chSchRescheduleS                                  build/obj/ch.o
                                                  build/obj/chmempools.o
                                                  build/obj/chmboxes.o
chSemReset                                        build/obj/ch.o
chSemResetI                                       build/obj/ch.o
                                                  build/obj/chmboxes.o
chSemSignal                                       build/obj/ch.o
chSemSignalI                                      build/obj/ch.o
                                                  build/obj/registers.o
                                                  build/obj/cmds.o
                                                  build/obj/chmempools.o
                                                  build/obj/chmboxes.o
chSemWaitTimeout                                  build/obj/ch.o
                                                  build/obj/registers.o
                                                  build/obj/cmds.o
chSemWaitTimeoutS                                 build/obj/ch.o
                                                  build/obj/hal_dma_lld.o
                                                  build/obj/hal_queues.o
                                                  build/obj/hal_buffers.o
                                                  build/obj/chmempools.o
                                                  build/obj/chmboxes.o
chSysGetStatusAndLockX                            build/obj/ch.o
                                                  build/obj/hal_dma_lld.o
chSysHalt                                         build/obj/ch.o
                                                  build/obj/chcore.o
chSysInit                                         build/obj/ch.o
                                                  build/obj/test.o
chSysRestoreStatusX                               build/obj/ch.o
                                                  build/obj/hal_dma_lld.o
chSysTimerHandlerI                                build/obj/ch.o
                                                  build/obj/hal_st_lld.o
chSysUnconditionalLock                            build/obj/ch.o
chSysUnconditionalUnlock                          build/obj/ch.o
chThdResumeI                                      build/obj/ch.o
                                                  build/obj/sx1212.o
                                                  build/obj/sx1278.o
                                                  build/obj/hal_uart_lld.o
                                                  build/obj/hal_spi_lld.o
chThdSleep                                        build/obj/ch.o
                                                  build/obj/test.o
                                                  build/obj/sx1212.o
                                                  build/obj/sx1278.o
chThdSleepUntil                                   build/obj/ch.o
chThdSuspendTimeoutS                              build/obj/ch.o
                                                  build/obj/sx1212.o
                                                  build/obj/sx1278.o
                                                  build/obj/hal_uart.o
                                                  build/obj/hal_spi.o
crcCheckSDLP                                      build/obj/crc_sdlp.o
crcCheckX25                                       build/obj/crc_x25.o
                                                  build/obj/cmds.o
crcGenSDLP                                        build/obj/crc_sdlp.o
                                                  build/obj/sdlp.o
crcGenX25                                         build/obj/crc_x25.o
                                                  build/obj/cmds.o
crcStart                                          build/obj/crc_x25.o
                                                  build/obj/cmds.o
crcStop                                           build/obj/crc_x25.o
                                                  build/obj/cmds.o
dmaAcquireI                                       build/obj/hal_dma_lld.o
                                                  build/obj/hal_uart_lld.o
                                                  build/obj/hal_spi_lld.o
dmaAcquireTimeoutS                                build/obj/hal_dma_lld.o
dmaCancelI                                        build/obj/hal_dma_lld.o
                                                  build/obj/hal_uart_lld.o
dmaClaimI                                         build/obj/hal_dma_lld.o
                                                  build/obj/hal_uart_lld.o
dmaInit                                           build/obj/hal_dma_lld.o
                                                  build/obj/hal_lld.o
dmaReleaseX                                       build/obj/hal_dma_lld.o
                                                  build/obj/hal_uart_lld.o
                                                  build/obj/hal_spi_lld.o
dmaTransfer                                       build/obj/hal_dma_lld.o
dmaTransferI                                      build/obj/hal_dma_lld.o
                                                  build/obj/hal_uart_lld.o
                                                  build/obj/hal_spi_lld.o
double_frames                                     build/obj/sdlp.o
elyChanGetValue                                   build/obj/test.o
                                                  build/obj/cmds.o
elyChanLog                                        build/obj/test.o
                                                  build/obj/cmds.o
elyChanReset                                      build/obj/test.o
                                                  build/obj/cmds.o
elyChanSubscribe                                  build/obj/test.o
                                                  build/obj/cmds.o
elyChanUnlog                                      build/obj/test.o
                                                  build/obj/cmds.o
elyChanUnsubscribe                                build/obj/test.o
                                                  build/obj/cmds.o
elyClampReg                                       build/obj/registers.o
elyCmdDispatch                                    build/obj/cmds.o
                                                  build/obj/main.o
elyCmdParse                                       build/obj/cmds.o
                                                  build/obj/main.o
elyCmdSendReply                                   build/obj/cmds.o
elyCmdSendReplyI                                  build/obj/cmds.o
elyCmdValidate                                    build/obj/cmds.o
                                                  build/obj/main.o
elyDLLClampReg                                    build/obj/sdlp.o
                                                  build/obj/registers.o
elyErrorSetLogLvlS                                build/obj/test.o
                                                  build/obj/cmds.o
elyErrorSetRptLvlS                                build/obj/test.o
                                                  build/obj/cmds.o
elyErrorSignal                                    build/obj/test.o
                                                  build/obj/spp.o
                                                  build/obj/sdlp.o
                                                  build/obj/registers.o
                                                  build/obj/cmds.o
elyEventLog                                       build/obj/test.o
                                                  build/obj/cmds.o
elyEventReset                                     build/obj/test.o
                                                  build/obj/cmds.o
elyEventSignal                                    build/obj/test.o
                                                  build/obj/cmds.o
elyEventSubscribe                                 build/obj/test.o
                                                  build/obj/cmds.o
elyEventUnlog                                     build/obj/test.o
                                                  build/obj/cmds.o
elyEventUnsubscribe                               build/obj/test.o
                                                  build/obj/cmds.o
elyFramGetRequest                                 build/obj/test.o
                                                  build/obj/cmds.o
elyFramGetRequestTimeoutS                         build/obj/test.o
                                                  build/obj/registers.o
                                                  build/obj/cmds.o
elyFramPostRequest                                build/obj/test.o
                                                  build/obj/registers.o
                                                  build/obj/cmds.o
elyMainMBPost                                     build/obj/main.o
                                                  build/obj/sdlp.o
                                                  build/obj/slip_uart_dll.o
elyMainMBPostI                                    build/obj/main.o
                                                  build/obj/sdlp.o
elyMainMBPostS                                    build/obj/main.o
elyNLChangeMaxLengthS                             build/obj/spp.o
elyNLClampReg                                     build/obj/spp.o
                                                  build/obj/registers.o
elyNLExtract                                      build/obj/spp.o
                                                  build/obj/main.o
elyNLFreeBuffer                                   build/obj/spp.o
                                                  build/obj/sdlp.o
                                                  build/obj/slip_uart_dll.o
                                                  build/obj/cmds.o
                                                  build/obj/main.o
elyNLFreeBufferI                                  build/obj/spp.o
                                                  build/obj/sdlp.o
                                                  build/obj/slip_uart_dll.o
                                                  build/obj/cmds.o
elyNLGetBuffer                                    build/obj/spp.o
                                                  build/obj/slip_uart_dll.o
elyNLGetBufferI                                   build/obj/spp.o
                                                  build/obj/sdlp.o
elyNLGetDest                                      build/obj/spp.o
                                                  build/obj/cmds.o
                                                  build/obj/main.o
elyNLGetLength                                    build/obj/spp.o
                                                  build/obj/sdlp.o
                                                  build/obj/slip_uart_dll.o
elyNLGetPayloadLength                             build/obj/spp.o
elyNLMaxLen                                       build/obj/spp.o
                                                  build/obj/slip_uart_dll.o
elyNLPack                                         build/obj/spp.o
                                                  build/obj/cmds.o
elyNLSetDest                                      build/obj/spp.o
                                                  build/obj/main.o
elyNLValidate                                     build/obj/spp.o
                                                  build/obj/main.o
elyRFCfgMarkDirty                                 build/obj/rf.o
                                                  build/obj/cmds.o
elyRFCfgMarkDirtyI                                build/obj/rf.o
elyRFChangeRxBRS                                  build/obj/rf.o
elyRFChangeRxDevS                                 build/obj/rf.o
elyRFChangeRxFilterParamsS                        build/obj/rf.o
elyRFChangeRxFreqS                                build/obj/rf.o
elyRFChangeRxSyncS                                build/obj/rf.o
elyRFChangeTxBRS                                  build/obj/rf.o
elyRFChangeTxDevS                                 build/obj/rf.o
elyRFChangeTxFilterParamsS                        build/obj/rf.o
elyRFChangeTxFreqS                                build/obj/rf.o
elyRFChangeTxPowerS                               build/obj/rf.o
elyRFChangeTxSyncS                                build/obj/sdlp.o
elyRFDLLBuildFrame                                build/obj/sdlp.o
                                                  build/obj/rf.o
elyRFDLLHandleRxFifo                              build/obj/sdlp.o
                                                  build/obj/rf.o
elyRFDLLHandleTxFifo                              build/obj/sdlp.o
                                                  build/obj/rf.o
elyRFDLLInitiateTransmit                          build/obj/sdlp.o
                                                  build/obj/rf.o
elyRFDLLRxInit                                    build/obj/sdlp.o
                                                  build/obj/rf.o
elyRFDLLTxInit                                    build/obj/sdlp.o
                                                  build/obj/rf.o
elyRFPost                                         build/obj/rf.o
                                                  build/obj/main.o
elyRFPostI                                        build/obj/rf.o
                                                  build/obj/cmds.o
elyRegGet                                         build/obj/registers.o
                                                  build/obj/cmds.o
elyRegGetBlock                                    build/obj/registers.o
                                                  build/obj/cmds.o
elyRegSet                                         build/obj/registers.o
                                                  build/obj/cmds.o
elyRegSetBlock                                    build/obj/registers.o
                                                  build/obj/cmds.o
elyTelemPostBufferS                               build/obj/test.o
                                                  build/obj/cmds.o
elyTelemUpdateConfigS                             build/obj/test.o
                                                  build/obj/cmds.o
elyUARTCfgMarkDirty                               build/obj/uart.o
                                                  build/obj/cmds.o
elyUARTCfgMarkDirtyI                              build/obj/uart.o
elyUARTDLLRxCB                                    build/obj/slip_uart_dll.o
                                                  build/obj/uart.o
elyUARTDLLRxCharCB                                build/obj/slip_uart_dll.o
                                                  build/obj/uart.o
elyUARTDLLRxHandleBuffer                          build/obj/slip_uart_dll.o
                                                  build/obj/uart.o
elyUARTDLLRxInit                                  build/obj/slip_uart_dll.o
                                                  build/obj/uart.o
elyUARTDLLStartTx                                 build/obj/slip_uart_dll.o
                                                  build/obj/uart.o
elyUARTDLLTimeoutCB                               build/obj/slip_uart_dll.o
                                                  build/obj/uart.o
elyUARTDLLTxCB                                    build/obj/slip_uart_dll.o
                                                  build/obj/uart.o
elyUARTPost                                       build/obj/uart.o
                                                  build/obj/main.o
elyUARTPostI                                      build/obj/uart.o
                                                  build/obj/cmds.o
elyUARTRxBufReadyI                                build/obj/uart.o
event_resets                                      build/obj/test.o
fec                                               build/obj/sdlp.o
fecf                                              build/obj/sdlp.o
fram_block                                        build/obj/registers.o
fram_block_cb                                     build/obj/registers.o
fram_reg                                          build/obj/registers.o
fram_reg_cb                                       build/obj/registers.o
get_sh_len                                        build/obj/spp.o
gptChangeInterval                                 build/obj/hal_gpt.o
gptInit                                           build/obj/hal_gpt.o
                                                  build/obj/hal.o
gptObjectInit                                     build/obj/hal_gpt.o
                                                  build/obj/hal_gpt_lld.o
gptPolledDelay                                    build/obj/hal_gpt.o
gptStart                                          build/obj/hal_gpt.o
                                                  build/obj/uart.o
gptStartContinuous                                build/obj/hal_gpt.o
gptStartContinuousI                               build/obj/hal_gpt.o
gptStartOneShot                                   build/obj/hal_gpt.o
gptStartOneShotI                                  build/obj/hal_gpt.o
                                                  build/obj/slip_uart_dll.o
gptStop                                           build/obj/hal_gpt.o
gptStopTimer                                      build/obj/hal_gpt.o
gptStopTimerI                                     build/obj/hal_gpt.o
                                                  build/obj/slip_uart_dll.o
gpt_lld_init                                      build/obj/hal_gpt_lld.o
                                                  build/obj/hal_gpt.o
gpt_lld_polled_delay                              build/obj/hal_gpt_lld.o
                                                  build/obj/hal_gpt.o
gpt_lld_start                                     build/obj/hal_gpt_lld.o
                                                  build/obj/hal_gpt.o
gpt_lld_start_timer                               build/obj/hal_gpt_lld.o
                                                  build/obj/hal_gpt.o
gpt_lld_stop                                      build/obj/hal_gpt_lld.o
                                                  build/obj/hal_gpt.o
gpt_lld_stop_timer                                build/obj/hal_gpt_lld.o
                                                  build/obj/hal_gpt.o
halInit                                           build/obj/hal.o
                                                  build/obj/test.o
hal_lld_init                                      build/obj/hal_lld.o
                                                  build/obj/hal.o
header_callback                                   build/obj/sdlp.o
ibqGetEmptyBufferI                                build/obj/hal_buffers.o
ibqGetFullBufferTimeout                           build/obj/hal_buffers.o
ibqGetFullBufferTimeoutS                          build/obj/hal_buffers.o
ibqGetTimeout                                     build/obj/hal_buffers.o
ibqObjectInit                                     build/obj/hal_buffers.o
ibqPostFullBufferI                                build/obj/hal_buffers.o
ibqReadTimeout                                    build/obj/hal_buffers.o
ibqReleaseEmptyBuffer                             build/obj/hal_buffers.o
ibqReleaseEmptyBufferS                            build/obj/hal_buffers.o
ibqResetI                                         build/obj/hal_buffers.o
iqGetTimeout                                      build/obj/hal_queues.o
iqObjectInit                                      build/obj/hal_queues.o
iqPutI                                            build/obj/hal_queues.o
iqReadTimeout                                     build/obj/hal_queues.o
iqResetI                                          build/obj/hal_queues.o
logged_events                                     build/obj/test.o
main                                              build/obj/test.o
                                                  /home/awygle/toolchain/install/bin/../lib/gcc/msp430-elf/6.2.0/../../../../msp430-elf/lib/libcrt.a(crt_main_minrt.o)
memcpy                                            /home/awygle/toolchain/install/bin/../lib/gcc/msp430-elf/6.2.0/../../../../msp430-elf/lib/libc.a(lib_a-memcpy.o)
                                                  build/obj/registers.o
                                                  build/obj/hal_buffers.o
memmove                                           /home/awygle/toolchain/install/bin/../lib/gcc/msp430-elf/6.2.0/../../../../msp430-elf/lib/libc.a(lib_a-memmove.o)
                                                  /home/awygle/toolchain/install/bin/../lib/gcc/msp430-elf/6.2.0/../../../../msp430-elf/lib/libcrt.a(crt_movedata.o)
memset                                            /home/awygle/toolchain/install/bin/../lib/gcc/msp430-elf/6.2.0/../../../../msp430-elf/lib/libc.a(lib_a-memset.o)
                                                  /home/awygle/toolchain/install/bin/../lib/gcc/msp430-elf/6.2.0/../../../../msp430-elf/lib/libcrt.a(crt_bss.o)
missed_frames                                     build/obj/sdlp.o
nil                                               build/obj/ch.o
                                                  build/obj/rf.o
                                                  build/obj/slip_uart_dll.o
                                                  build/obj/mych.o
                                                  build/obj/uart.o
                                                  build/obj/sx1278.o
                                                  build/obj/hal_queues.o
                                                  build/obj/hal_buffers.o
                                                  build/obj/osal.o
nil_thd_configs                                   build/obj/test.o
                                                  build/obj/ch.o
nl_allocator                                      build/obj/spp.o
obqFlush                                          build/obj/hal_buffers.o
obqGetEmptyBufferTimeout                          build/obj/hal_buffers.o
obqGetEmptyBufferTimeoutS                         build/obj/hal_buffers.o
obqGetFullBufferI                                 build/obj/hal_buffers.o
obqObjectInit                                     build/obj/hal_buffers.o
obqPostFullBuffer                                 build/obj/hal_buffers.o
obqPostFullBufferS                                build/obj/hal_buffers.o
obqPutTimeout                                     build/obj/hal_buffers.o
obqReleaseEmptyBufferI                            build/obj/hal_buffers.o
obqResetI                                         build/obj/hal_buffers.o
obqTryFlushI                                      build/obj/hal_buffers.o
obqWriteTimeout                                   build/obj/hal_buffers.o
oqGetI                                            build/obj/hal_queues.o
oqObjectInit                                      build/obj/hal_queues.o
oqPutTimeout                                      build/obj/hal_queues.o
oqResetI                                          build/obj/hal_queues.o
oqWriteTimeout                                    build/obj/hal_queues.o
osalThreadDequeueAllI                             build/obj/osal.o
                                                  build/obj/hal_queues.o
                                                  build/obj/hal_buffers.o
osalThreadDequeueNextI                            build/obj/osal.o
                                                  build/obj/hal_dma_lld.o
                                                  build/obj/hal_queues.o
                                                  build/obj/hal_buffers.o
packet_callback                                   build/obj/sdlp.o
palReadBus                                        build/obj/hal_pal.o
palSetBusMode                                     build/obj/hal_pal.o
palWriteBus                                       build/obj/hal_pal.o
pal_default_config                                build/obj/board.o
                                                  build/obj/hal.o
port_callback_map                                 build/obj/hal_pal_lld.o
reported_events                                   build/obj/test.o
rf_mbox                                           build/obj/rf.o
                                                  build/obj/sdlp.o
rf_spi_cfg                                        build/obj/rf.o
rf_thd                                            build/obj/rf.o
                                                  build/obj/sdlp.o
rxfifothresh_callback                             build/obj/sdlp.o
send_complete_cb                                  build/obj/uart.o
sending                                           build/obj/sx1212.o
seq_no                                            build/obj/sdlp.o
spiExchange                                       build/obj/hal_spi.o
spiIgnore                                         build/obj/hal_spi.o
spiInit                                           build/obj/hal_spi.o
                                                  build/obj/hal.o
spiObjectInit                                     build/obj/hal_spi.o
                                                  build/obj/hal_spi_lld.o
spiReceive                                        build/obj/hal_spi.o
spiSelect                                         build/obj/hal_spi.o
spiSend                                           build/obj/hal_spi.o
                                                  build/obj/sx1278.o
spiStart                                          build/obj/hal_spi.o
                                                  build/obj/sx1212.o
                                                  build/obj/sx1278.o
spiStartExchange                                  build/obj/hal_spi.o
spiStartIgnore                                    build/obj/hal_spi.o
spiStartReceive                                   build/obj/hal_spi.o
                                                  build/obj/sx1212.o
spiStartSend                                      build/obj/hal_spi.o
                                                  build/obj/sx1278.o
spiStop                                           build/obj/hal_spi.o
                                                  build/obj/sx1212.o
                                                  build/obj/sx1278.o
spiUnselect                                       build/obj/hal_spi.o
spi_callback                                      build/obj/sx1278.o
spi_lld_exchange                                  build/obj/hal_spi_lld.o
                                                  build/obj/hal_spi.o
spi_lld_ignore                                    build/obj/hal_spi_lld.o
                                                  build/obj/hal_spi.o
spi_lld_init                                      build/obj/hal_spi_lld.o
                                                  build/obj/hal_spi.o
spi_lld_polled_exchange                           build/obj/hal_spi_lld.o
                                                  build/obj/sx1212.o
                                                  build/obj/sx1278.o
spi_lld_receive                                   build/obj/hal_spi_lld.o
                                                  build/obj/hal_spi.o
spi_lld_select                                    build/obj/hal_spi_lld.o
                                                  build/obj/sx1212.o
                                                  build/obj/hal_spi.o
spi_lld_send                                      build/obj/hal_spi_lld.o
                                                  build/obj/sx1278.o
                                                  build/obj/hal_spi.o
spi_lld_start                                     build/obj/hal_spi_lld.o
                                                  build/obj/hal_spi.o
spi_lld_stop                                      build/obj/hal_spi_lld.o
                                                  build/obj/hal_spi.o
spi_lld_unselect                                  build/obj/hal_spi_lld.o
                                                  build/obj/sx1212.o
                                                  build/obj/hal_spi.o
spi_mode_config                                   build/obj/sx1212.o
spi_mode_data                                     build/obj/sx1212.o
stGetAlarm                                        build/obj/hal_st.o
stInit                                            build/obj/hal_st.o
                                                  build/obj/hal.o
stSetAlarm                                        build/obj/hal_st.o
stStartAlarm                                      build/obj/hal_st.o
stStopAlarm                                       build/obj/hal_st.o
st_lld_init                                       build/obj/hal_st_lld.o
                                                  build/obj/hal_st.o
sx1212CLKOUT                                      build/obj/sx1212.o
sx1212FifoRead                                    build/obj/sx1212.o
                                                  build/obj/sdlp.o
sx1212FifoReadAsync                               build/obj/sx1212.o
sx1212RSSI                                        build/obj/sx1212.o
sx1212ReceiveI                                    build/obj/sx1212.o
                                                  build/obj/sdlp.o
sx1212ReceiveTimeout                              build/obj/sx1212.o
sx1212SetBitrate                                  build/obj/sx1212.o
                                                  build/obj/rf.o
sx1212SetDeviation                                build/obj/sx1212.o
                                                  build/obj/rf.o
sx1212SetFrequency                                build/obj/sx1212.o
                                                  build/obj/rf.o
sx1212SetRxBw                                     build/obj/sx1212.o
                                                  build/obj/rf.o
sx1212SetSync                                     build/obj/sx1212.o
                                                  build/obj/rf.o
sx1212Start                                       build/obj/sx1212.o
                                                  build/obj/rf.o
sx1212StartReceive                                build/obj/sx1212.o
                                                  build/obj/sdlp.o
sx1212Stop                                        build/obj/sx1212.o
sx1212StopReceive                                 build/obj/sx1212.o
                                                  build/obj/sdlp.o
sx1212StopReceiveI                                build/obj/sx1212.o
                                                  build/obj/sdlp.o
sx1212TUNE                                        build/obj/sx1212.o
sx1278FifoWriteAsync                              build/obj/sx1278.o
sx1278FifoWriteAsyncS                             build/obj/sx1278.o
                                                  build/obj/sdlp.o
sx1278ObjectInit                                  build/obj/sx1278.o
                                                  build/obj/rf.o
sx1278Send                                        build/obj/sx1278.o
sx1278SetBitrate                                  build/obj/sx1278.o
                                                  build/obj/rf.o
sx1278SetDeviation                                build/obj/sx1278.o
                                                  build/obj/rf.o
sx1278SetFilterParams                             build/obj/sx1278.o
                                                  build/obj/rf.o
sx1278SetFrequency                                build/obj/sx1278.o
                                                  build/obj/rf.o
sx1278SetPower                                    build/obj/sx1278.o
                                                  build/obj/rf.o
sx1278SetRegister                                 build/obj/sx1278.o
sx1278SetSync                                     build/obj/sx1278.o
                                                  build/obj/rf.o
                                                  build/obj/sdlp.o
sx1278Sleep                                       build/obj/sx1278.o
sx1278Start                                       build/obj/sx1278.o
                                                  build/obj/rf.o
sx1278StartTransmit                               build/obj/sx1278.o
                                                  build/obj/sdlp.o
sx1278Stop                                        build/obj/sx1278.o
tr                                                build/obj/sx1212.o
txlvl_callback                                    build/obj/sdlp.o
uartInit                                          build/obj/hal_uart.o
                                                  build/obj/hal.o
uartObjectInit                                    build/obj/hal_uart.o
                                                  build/obj/hal_uart_lld.o
uartReceiveTimeout                                build/obj/hal_uart.o
uartSendFullTimeout                               build/obj/hal_uart.o
uartSendTimeout                                   build/obj/hal_uart.o
uartStart                                         build/obj/hal_uart.o
                                                  build/obj/uart.o
uartStartReceive                                  build/obj/hal_uart.o
uartStartReceiveI                                 build/obj/hal_uart.o
                                                  build/obj/slip_uart_dll.o
uartStartSend                                     build/obj/hal_uart.o
uartStartSendI                                    build/obj/hal_uart.o
                                                  build/obj/slip_uart_dll.o
uartStop                                          build/obj/hal_uart.o
uartStopReceive                                   build/obj/hal_uart.o
uartStopReceiveI                                  build/obj/hal_uart.o
                                                  build/obj/slip_uart_dll.o
uartStopSend                                      build/obj/hal_uart.o
uartStopSendI                                     build/obj/hal_uart.o
uart_lld_init                                     build/obj/hal_uart_lld.o
                                                  build/obj/hal_uart.o
uart_lld_start                                    build/obj/hal_uart_lld.o
                                                  build/obj/hal_uart.o
uart_lld_start_receive                            build/obj/hal_uart_lld.o
                                                  build/obj/hal_uart.o
uart_lld_start_send                               build/obj/hal_uart_lld.o
                                                  build/obj/hal_uart.o
uart_lld_stop                                     build/obj/hal_uart_lld.o
                                                  build/obj/hal_uart.o
uart_lld_stop_receive                             build/obj/hal_uart_lld.o
                                                  build/obj/hal_uart.o
uart_lld_stop_send                                build/obj/hal_uart_lld.o
                                                  build/obj/hal_uart.o
udivmodsi4                                        /home/awygle/toolchain/install/bin/../lib/gcc/msp430-elf/6.2.0/libgcc.a(lib2divSI.o)
waMainThd                                         build/obj/main.o
                                                  build/obj/test.o
waRFThd                                           build/obj/rf.o
                                                  build/obj/test.o
waThread2                                         build/obj/test.o
waUARTThd                                         build/obj/uart.o
                                                  build/obj/test.o
write_cb                                          build/obj/sdlp.o
