ARM GAS  /tmp/ccLruy2S.s 			page 1


   1              		.cpu cortex-m0
   2              		.fpu softvfp
   3              		.eabi_attribute 20, 1
   4              		.eabi_attribute 21, 1
   5              		.eabi_attribute 23, 3
   6              		.eabi_attribute 24, 1
   7              		.eabi_attribute 25, 1
   8              		.eabi_attribute 26, 1
   9              		.eabi_attribute 30, 2
  10              		.eabi_attribute 34, 0
  11              		.eabi_attribute 18, 4
  12              		.code	16
  13              		.file	"ch_test.c"
  14              		.text
  15              	.Ltext0:
  16              		.section	.gnu.lto_.jmpfuncs.1bd75f5614113f08,"",%progbits
  17 0000 789CB591 		.ascii	"x\234\265\221[KBA\020\307g\316\361\226\346=\223\010"
  17      5B4B4241 
  17      10C767CE 
  17      F196E63D 
  17      9308
  18 0012 96A13785 		.ascii	"\226\2417\205\223\227\262\213O\205)Hj\320Q\3509]h\301"
  18      9397B28B 
  18      4F852948 
  18      6AD051E8 
  18      395D68C1 
  19 0026 143C4749 		.ascii	"\024<GI|\310\357\020\204/}\212\276D\237\251\247Ng5\355"
  19      7CC8EF10 
  19      842F7D8A 
  19      BE449FA9 
  19      A74E6735 
  20 003b D0851E5A 		.ascii	"\320\205\036Zvgv\347\367\037f\230U@\201\257\326\243"
  20      766776E7 
  20      F71F6698 
  20      554081AF 
  20      D6A3
  21 004d 157EB67C 		.ascii	"\025~\266|\010\244\340\036\300\205\357\326>@\036\017"
  21      08A4E01E 
  21      C085EFD6 
  21      3E401E0F 
  22 005d A8169AC0 		.ascii	"\250\026\232\300\353t6\215\010\004\006\3704\235\235"
  22      EB74368D 
  22      080406F8 
  22      349D9D
  23 006c 08443B5F 		.ascii	"\010D;_\271B\201\212b\313\225\371S\325\354\247w\031"
  23      B942818A 
  23      62CB95F9 
  23      53D5ECA7 
  23      7719
  24 007e C8DA011F 		.ascii	"\310\332\001\037\006\324u5\350\015\341G\2550.n\021\374"
  24      06D47535 
  24      E80DE147 
  24      AD302E6E 
  24      11FC
  25 0090 4B1DDB47 		.ascii	"K\035\333G1\206q\304e\222\213\201[&\271\355\244\317"
  25      318671C4 
  25      65928B81 
ARM GAS  /tmp/ccLruy2S.s 			page 2


  25      5B26B9ED 
  25      A4CF
  26 00a2 28F40DF2 		.ascii	"(\364\015\3620HJ\344\005'\3631\330\222l\315\211\254"
  26      30484AE4 
  26      0527F331 
  26      D8926CCD 
  26      89AC
  27 00b4 0E77573B 		.ascii	"\016wW;\004\224\333\356\324\377\202\237\304\001\006"
  27      0494DBEE 
  27      D4FF829F 
  27      C40106
  28 00c3 79295E5F 		.ascii	"y)^_\321\376\324\305\012\0122(H\024r\2420\203s\211\""
  28      D1FED4C5 
  28      0A0A3228 
  28      481472A2 
  28      30837389 
  29 00d8 4E146530 		.ascii	"N\024e0\221(\346Dq\006\017\363\351n8Y\202\301l\3166"
  29      9128E644 
  29      71060FF3 
  29      E96E3859 
  29      82C16CCE 
  30 00ed 7F9BD4E2 		.ascii	"\177\233\324\342#\376\313\203\032\364\203Oo\225Je]\007"
  30      23FECB83 
  30      1AF4834F 
  30      6F954A65 
  30      5D07
  31 00ff 5FE5B45A 		.ascii	"_\345\264Zk]\226\255\311mh\232F\227\334\030v\315\"-"
  31      6B5D96AD 
  31      C96D689A 
  31      4697DC18 
  31      76CD222D 
  32 0113 B8BA9302 		.ascii	"\270\272\223\002%\005\011\275Iz\263\276\227\257d\265"
  32      250509BD 
  32      497AB3BE 
  32      97AF64B5 
  33 0123 3361B4FB 		.ascii	"3a\264\373#>\030Cf\036*\344\356\216\250\3343\007c\252"
  33      233E1843 
  33      661E2AE4 
  33      EE8EA8DC 
  33      330763AA 
  34 0137 F111EF52 		.ascii	"\361\021\357R\235w\304\360\226\316x\317\020\346\230"
  34      9D77C4F0 
  34      96CE78CF 
  34      10E698
  35 0146 3A7C24DA 		.ascii	":|$\332\334\200d\243?\":\246|6w@\032\345\216\213{\373"
  35      DC8064A3 
  35      3F223AA6 
  35      7C367740 
  35      1AE58E8B 
  36 015c C5FD4370 		.ascii	"\305\375Cp\245\323i\330\266\014\225n\304\265\270\320"
  36      A5D369D8 
  36      B60C956E 
  36      C4B5B8D0 
  37 016c 338D6A8D 		.ascii	"3\215j\215\232\3340I\037\012\223\303\033\317\315\237"
  37      9ADC3049 
  37      1F0A93C3 
  37      1BCFCD9F 
ARM GAS  /tmp/ccLruy2S.s 			page 3


  38 017c 43       		.ascii	"C"
  39              		.text
  40              		.section	.gnu.lto_.inline.1bd75f5614113f08,"",%progbits
  41 0000 789CAD51 		.ascii	"x\234\255Q=K\003A\020};w\267\367\231\273M\324$B V\332"
  41      3D4B0341 
  41      107D3B77 
  41      B7F799BB 
  41      4DD42442 
  42 0017 054BFF83 		.ascii	"\005K\377\203p\265\340\0170\372+\304JP\341zAR\330\373"
  42      70B5E00F 
  42      30FA2BC4 
  42      4A50E17A 
  42      4152D8FB 
  43 002b 076C6CC5 		.ascii	"\007ll\305B\254,,\202X(iR\244\320F\234\335\\\326#&\235"
  43      42AC2C2C 
  43      82582869 
  43      52A4D046 
  43      9CDD5CD6 
  44 0042 5BCC0EEF 		.ascii	"[\314\016\357\315\316{3K ,:\303\022N\001uB\002\244\206"
  44      CDCE7B33 
  44      4B202C3A 
  44      C3124E01 
  44      754202A4 
  45 0057 5711E4A0 		.ascii	"W\021\344\240kp\257\316H\221\027\271\213\265m\341\240"
  45      6B70AFCE 
  45      489117B9 
  45      8BB56DE1 
  45      A0
  46 0068 BF270E45 		.ascii	"\277'\016E\013p6p\360\233\012\035\335\250\310\021\214"
  46      0B703670 
  46      F09B0A1D 
  46      DDA8C811 
  46      8C
  47 0079 7B04F1EE 		.ascii	"{\004\361\356+\202w\272\245t\013'\253\004\027\220h\215"
  47      2B8277BA 
  47      A5740B27 
  47      AB041790 
  47      688D
  48 008b 6ADCB531 		.ascii	"j\334\2651\271\334\261:\262\3014\277\237\011\302Wq\223"
  48      B9DCB13A 
  48      B2C134BF 
  48      9F09C257 
  48      7193
  49 009d 3339EE55 		.ascii	"39\356U\274\300P\001\2447G\305\010$\2733\226\332\032"
  49      BCC05001 
  49      A43747C5 
  49      0824BB33 
  49      96DA1A
  50 00b0 E8DB8CBD 		.ascii	"\350\333\214\275i\325i\251;\350*\310\207\216\006\220"
  50      69D569A9 
  50      3BE82AC8 
  50      878E0690 
  51 00c0 A0F9C134 		.ascii	"\240\371\3014m~\337'\266S\015q(H\210\331S'=\337\237"
  51      6D7EDF27 
  51      B6530D71 
  51      284888D9 
  51      53273DDF 
ARM GAS  /tmp/ccLruy2S.s 			page 4


  52 00d5 92F49825 		.ascii	"\222\364\230%fQj\235\367T\212EV,Z,\326\271>K\003CE\232"
  52      66516A9D 
  52      F7548A45 
  52      562C5A2C 
  52      D6B93E4B 
  53 00ed E1F182E9 		.ascii	"\341\361\202\351B3d\237,C\351\353q\370w\335\012\355"
  53      4233649F 
  53      2C43E9EB 
  53      71F877DD 
  53      0AED
  54 00ff 0BFD19AB 		.ascii	"\013\375\031\253O7\341\322%\025y]\273\345/{9\262E\015"
  54      4F37E1D2 
  54      2515795D 
  54      BBE52F7B 
  54      39B2450D 
  55 0113 843E43C9 		.ascii	"\204>C\311\355\256\205V\360,\276&Z\354M\214Gw\276%("
  55      EDAE8556 
  55      F02CBE26 
  55      5AEC4D8C 
  55      4777BE25 
  56 0128 D696ABD1 		.ascii	"\326\226\253\321\214A1\031\200\014@%P\344\325\253Zd"
  56      8C413119 
  56      800C4025 
  56      50E4D5AB 
  56      5A64
  57 013a 99B278BE 		.ascii	"\231\262x\276\351\262h\307\360\352\316?%bY\202\037\364"
  57      E9B268C7 
  57      F0EACE3F 
  57      25625982 
  57      1FF4
  58 014c BB5CFD   		.ascii	"\273\\\375"
  59              		.text
  60              		.section	.gnu.lto_.pureconst.1bd75f5614113f08,"",%progbits
  61 0000 789C6362 		.ascii	"x\234cb`b\220e\200\000>\006K\026I6IvI\016\011n\011\036"
  61      60629065 
  61      80003E06 
  61      4B164936 
  61      4976490E 
  62 0018 4B5E293E 		.ascii	"K^)>K~K\001KA+!)aK\000*\005\003\017"
  62      4B7E4B01 
  62      4B412B21 
  62      29614B00 
  62      2A05030F 
  63              		.text
  64              		.section	.gnu.lto_print_tokens.1bd75f5614113f08,"",%progbits
  65 0000 789C8D92 		.ascii	"x\234\215\222\301k\023Q\020\306\347{o\337\356\246IQ"
  65      C16B1351 
  65      10C6E77B 
  65      6FDFEEA6 
  65      4951
  66 0012 C14B41B0 		.ascii	"\301KA\260\324\213\030\330P\275\250\320\377\242\005"
  66      D48B18D8 
  66      50BDA8D0 
  66      FFA205
  67 0021 F552DA45 		.ascii	"\365R\332E\322E\203\001s\363\320\227\030D\264h\360$"
  67      D2458301 
  67      73F3D097 
ARM GAS  /tmp/ccLruy2S.s 			page 5


  67      1844B468 
  67      F024
  68 0033 E6D09622 		.ascii	"\346\320\226\"\212\010\"\275\210\247\010Z\315A\305\233"
  68      8A0822BD 
  68      88A7085A 
  68      CD41C59B 
  69 0043 DE8260F0 		.ascii	"\336\202`\360\340_\340\3018\223\267\273\246^\364\221"
  69      E05FE0C1 
  69      3893B7BB 
  69      A65EF491 
  70 0053 BC99DD9D 		.ascii	"\274\231\335\235\3377\363\276]E\212\376^\013\3747\232"
  70      DF37F3BE 
  70      5D458AFE 
  70      5E0BFC37 
  70      9A
  71 0064 E82C47F8 		.ascii	"\350,G\370\004\325\371@\324\014\025<\227h\227\274\012"
  71      04D5F940 
  71      D40C153C 
  71      976897BC 
  71      0A
  72 0075 3DA537DE 		.ascii	"=\2457\336\022\331)\323\016\310\226\014 \367\011\264"
  72      12D929D3 
  72      0EC8960C 
  72      20F709B4 
  73 0085 AEB467B0 		.ascii	"\256\264g\260~\036\"\247\347h\333\332{\2037\303\307"
  73      7E1E22A7 
  73      E768DBDA 
  73      7B8337C3 
  73      C7
  74 0096 33B7B65A 		.ascii	"3\267\266Z\035\373k4B\002n|\024\024\203\316\361\005"
  74      1DFB6B34 
  74      42026E7C 
  74      141483CE 
  74      F105
  75 00a8 66C74179 		.ascii	"f\307Ay\373'qdow\357\316$\251\025\225\377\223\334\334"
  75      FB277164 
  75      6F77EFCE 
  75      24A91595 
  75      FF93DCDC 
  76 00bc DB98B1FB 		.ascii	"\333\230\261\373\310\323\377\"\237\251\336`4\372\361"
  76      C8D3FF22 
  76      9FA9DE60 
  76      34FAF1
  77 00cb 7CEB6B17 		.ascii	"|\353k\027\207\212\240\025<\304\034y\034w8\032\216\333"
  77      878AA015 
  77      3CC41C79 
  77      1C77381A 
  77      8EDB
  78 00dd 1C7D4AE0 		.ascii	"\034}J\340\005\274\2310\255(\360\205/\316Q\333\332\316"
  78      05BC9930 
  78      AD28F085 
  78      2FCE51DB 
  78      DACE
  79 00ef ACBB49D2 		.ascii	"\254\273I\322\214\327\"\357\354\321\022\024\007\335"
  79      8CD722EF 
  79      ECD11214 
  79      07DD
ARM GAS  /tmp/ccLruy2S.s 			page 6


  80 00fd A7D6E0EE 		.ascii	"\247\326\340\356\216\277\202G0)}\215~\332\233\326.$"
  80      8EBF8247 
  80      30297D8D 
  80      7EDA9BD6 
  80      2E24
  81 010f 086AF833 		.ascii	"\010j\3703\314\0224\261\305\372=\265\372\237\207\307"
  81      CC1234B1 
  81      C5FA3DB5 
  81      FA9F87C7 
  82 011f 1D5185E9 		.ascii	"\035Q\205\351\322\203\246\265\007\331E\007r\026\326"
  82      D283A6B5 
  82      07D94507 
  82      7216D6
  83 012e 20A01C29 		.ascii	" \240\034)Li\246.d\210_\246\023<2\203\\P`\011)te\253"
  83      4C69A62E 
  83      64885FA6 
  83      133C3283 
  83      5C506009 
  84 0146 79C34920 		.ascii	"y\303I (\323\023\321\235rH\221%\004\361R\0049r\375\266"
  84      28D313D1 
  84      9D724891 
  84      2504F152 
  84      043972FD 
  85 015b CE98B00A 		.ascii	"\316\230\260\012\214=\225\247}R\223'\254\312X\334\340"
  85      8C3D95A7 
  85      7D529327 
  85      ACCA58DC 
  85      E0
  86 016c A5C9AA0B 		.ascii	"\245\311\252\013N\331O!\235*~\244\264\202d\012\331\014"
  86      4ED94F21 
  86      9D2A7EA4 
  86      B482640A 
  86      D90C
  87 017e D7262865 		.ascii	"\327&(e\226x\304\237\231\230\310\202\2316\306\332\375"
  87      9678C49F 
  87      9998C882 
  87      9936C6DA 
  87      FD
  88 018f 17C3EFC8 		.ascii	"\027\303\357\310\344\275\334$\235\2334]\203JM\232N\333"
  88      E4BDDC24 
  88      9D9B345D 
  88      834A4D9A 
  88      4EDB
  89 01a1 BDA3D7DF 		.ascii	"\275\243\327\337\232\2472\010U\344\337\303\027\202\003"
  89      9AA73208 
  89      55E4DFC3 
  89      178203
  90 01b0 7B9B370E 		.ascii	"{\2337\016\344/F\335\327|\024\375t\367\260\314b\344"
  90      E42F46DD 
  90      D77C14FD 
  90      74F7B0CC 
  90      62E4
  91 01c2 7D7EA2E6 		.ascii	"}~\242\346\240{,\033\332\255E\036\251\035H\263#QTq\277"
  91      A07B2C1B 
  91      DAAD451E 
  91      A91D48B3 
  91      23515471 
ARM GAS  /tmp/ccLruy2S.s 			page 7


  92 01d7 C6C5AB8D 		.ascii	"\306\305\253\215\312\345d\265\022\257-K\036\305T\224"
  92      CAE564B5 
  92      12AF2D4B 
  92      1EC55494 
  93 01e7 B81CAFD5 		.ascii	"\270\034\257\325\243\3713\245q\336\270r\251\036\235"
  93      A3F933A5 
  93      71DEB872 
  93      A91E9D
  94 01f6 9C5771FD 		.ascii	"\234Wq\3757\016!\274\213"
  94      370E21BC 
  94      8B
  95              		.text
  96              		.section	.gnu.lto_execute_test.1bd75f5614113f08,"",%progbits
  97 0000 789C7D51 		.ascii	"x\234}Q;O\002A\020\236\331\273\333\343\241\206\316F"
  97      3B4F0241 
  97      109ED9BB 
  97      DBE3A186 
  97      CE46
  98 0012 C5C4D204 		.ascii	"\305\304\322\004\254\350\370\005\266\220h\243\001b\220"
  98      ACE8F805 
  98      B69068A3 
  98      016290
  99 0021 C4ABA4B3 		.ascii	"\304\253\244\263`\021\012\013L\250,\2442t\306Hcq\261"
  99      60110A0B 
  99      4CA82CA4 
  99      3274C648 
  99      6371B1
 100 0034 2231112D 		.ascii	"\"1\021-|u\206\212\304\016lM\014\015\316\356r\207\032"
 100      7C75868A 
 100      C40E6C4D 
 100      0C0DCEEE 
 100      72871A
 101 0047 C2E46E76 		.ascii	"\302\344nvn\366\373\276y\034\003\006\377m\223\336\035"
 101      6EF6FBBE 
 101      791C0306 
 101      FF6D93DE 
 101      1D
 102 0058 4AAFD089 		.ascii	"J\257\320\2116 \253?\003\224\003\214\031\235\004\210"
 102      3620AB3F 
 102      0394038C 
 102      199D0488 
 103 0068 90F9B808 		.ascii	"\220\371\270\010b\316@S\247Mf5\222\224\346_\021J[\310"
 103      62CE4053 
 103      A74D6635 
 103      9294E65F 
 103      114A5BC8 
 104 007c 759A23CA 		.ascii	"u\232#\312\000\020J\3140-\216\245mT\352-\326\356\215"
 104      00104ACC 
 104      302D8EA5 
 104      6D54EA2D 
 104      D6EE8D
 105 008f 46D7B7F7 		.ascii	"F\327\267\36775l\260\005\216\016\202\015\005\204\240"
 105      37356CB0 
 105      058E0E82 
 105      0D0584A0 
 106 009f 7461E9C8 		.ascii	"ta\351\310,\250\012Q_\005\310\251\317\024y)\227F&O\343"
 106      2CA80A51 
ARM GAS  /tmp/ccLruy2S.s 			page 8


 106      5F05C8A9 
 106      CF147929 
 106      9746264F 
 107 00b4 098E8795 		.ascii	"\011\216\207\225Vm\331\207\351@4O\243\000\031\274@\213"
 107      566DD987 
 107      E940344F 
 107      A30019BC 
 107      408B
 108 00c6 888AD980 		.ascii	"\210\212\331\200\363\262\020\221\002\342\021\014\305"
 108      F3B21091 
 108      02E2110C 
 108      C5
 109 00d3 898C98A3 		.ascii	"\211\214\230\243\256\266\220B\325\222\276i\237\361\002"
 109      AEB69042 
 109      D592BE69 
 109      9FF102
 110 00e2 1A0EB20C 		.ascii	"\032\016\262\0146\211OFU\\\267\377\316\264\240\257d"
 110      36894F46 
 110      555CB7FF 
 110      CEB4A0AF 
 110      64
 111 00f3 FA4A9683 		.ascii	"\372J\226\203\306XI\021Td\216\251\335\357\376+jj\036"
 111      C6584911 
 111      54648EA9 
 111      DDEFFE2B 
 111      6A6A1E
 112 0106 ED75B894 		.ascii	"\355u\270\224\014N*\204\261\363\310%6\240XY\364V\377"
 112      0C4E2A84 
 112      B1F3C825 
 112      36A05859 
 112      F456FF
 113 0119 00D5CFF2 		.ascii	"\000\325\317\362\274O\222\020\376\373\327\244\251^'"
 113      BC4F9210 
 113      FEFBD7A4 
 113      A95E27
 114 0128 61BC40A5 		.ascii	"a\274@\245w\365ak\034H$\320\336\202\036\306\364v\324"
 114      77F5616B 
 114      1C4824D0 
 114      DE821EC6 
 114      F476D4
 115 013b 75071B9E 		.ascii	"u\007\033\236Xpv\007^\013$\335\216N\204\203ca)\366>"
 115      58707607 
 115      5E0B24DD 
 115      8E4E8483 
 115      636129F6 
 116 0150 98CC139E 		.ascii	"\230\314\023\236\255\306\246\316\023\2362\017\3555\251"
 116      ADC6A6CE 
 116      139E320F 
 116      ED35A9
 117 015f E669DD85 		.ascii	"\346i\335\205&e\303\177\346\341j\2367(\367\3345\017"
 117      2665C37F 
 117      E6E16A9E 
 117      3728F7DC 
 117      350F
 118 0171 A32D457D 		.ascii	"\243-E}\323\235,\267\024\213\305\365S\334;,\306\017"
 118      D39D2CB7 
 118      148BC5F5 
ARM GAS  /tmp/ccLruy2S.s 			page 9


 118      53DC3B2C 
 118      C60F
 119 0183 0AD9786E 		.ascii	"\012\331xn\177W\306\261\034\374\000F\343\226\364"
 119      7F57C6B1 
 119      1CFC0046 
 119      E396F4
 120              		.text
 121              		.section	.gnu.lto_print_line.1bd75f5614113f08,"",%progbits
 122 0000 789C9593 		.ascii	"x\234\225\223Ah\023A\024\206\3777\263\263\311\3566\332"
 122      41681341 
 122      1486FF37 
 122      B3B3C9EE 
 122      36DA
 123 0012 DE5A102D 		.ascii	"\336Z\020-\365\"\206&\322\223\207\012\275{mA\275\224"
 123      F5228626 
 123      D293870A 
 123      BD7B6D41 
 123      BD94
 124 0024 36885D50 		.ascii	"6\210]P\020\354\315C'\333R\202`\011\236\304\"\264\210"
 124      10ECCD43 
 124      27DB5282 
 124      60099EC4 
 124      22B488
 125 0037 5044F0E8 		.ascii	"PD\360\350I\250\210\220\034j\361\246\267x\361\232c\213"
 125      49A88890 
 125      1C6AF1A6 
 125      B778F19A 
 125      638B
 126 0049 07E37B3B 		.ascii	"\007\343{;;m-BqH\336{\331\367\276\177f\376$\012\012"
 126      3B6D2D42 
 126      7148DE7B 
 126      D9F7BE7F 
 126      66FE240A 
 127 005e A7D70D7E 		.ascii	"\247\327\015~Ok\340\032g\012A\252\375\005h\226\025\005"
 127      4F6BE01A 
 127      670A41AA 
 127      FD056896 
 127      1505
 128 0070 AED0AEF8 		.ascii	"\256\320\256\370X\016\224\336\330\003ll2\202\0352D\362"
 128      580E94DE 
 128      D8036C6C 
 128      32821D32 
 128      44F2
 129 0082 1C8415A5 		.ascii	"\034\204\025\245\003C+\267I\344\324\004\266\255}\326"
 129      03432BB7 
 129      49E4D404 
 129      B6AD7DD6 
 130 0092 FBDCDF19 		.ascii	"\373\334\337\031{\262\225\265\355\357\301\200R\342\215"
 130      7BB295B5 
 130      EDEFC180 
 130      52E28D
 131 00a1 2F111A84 		.ascii	"/\021\032\204[\374\201\306\363\244\202\277O\342\310"
 131      5BFC81C6 
 131      F3A482BF 
 131      4FE2C8
 132 00b0 DD83F58D 		.ascii	"\335\203\365\2151{Lj\205\352Y\344;\265\333\033\014\336"
 132      317B4C6A 
ARM GAS  /tmp/ccLruy2S.s 			page 10


 132      85EA59E4 
 132      3BB5DB1B 
 132      0CDE
 133 00c2 BE3FFCD1 		.ascii	"\276?\374\321\241\221\012a\201^\321\004\002\316\333"
 133      A1910A61 
 133      815ED104 
 133      02CEDB
 134 00d1 9C0D520A 		.ascii	"\234\015R\012B\016\246\\t\242\242\023K'\341\020\262"
 134      420EA65C 
 134      74A2A213 
 134      4B27E110 
 134      B2
 135 00e2 88C19AB5 		.ascii	"\210\301\232\265\355q7\001\331\221\327,G\276\356\034"
 135      ED713701 
 135      D991D72C 
 135      47BEEE1C 
 136 00f2 294EBA8B 		.ascii	")N\272\213\254\367\341S\270@\257\311\024Rr\034\355\317"
 136      ACF7E153 
 136      B840AFC9 
 136      1452721C 
 136      EDCF
 137 0104 31C7257B 		.ascii	"1\307%{\244\367\220u\277\365\257\270\271{\024l\342E"
 137      A4F79075 
 137      BFF5AFB8 
 137      B97B146C 
 137      E245
 138 0116 D3DA61B6 		.ascii	"\323\332a\266\3411~\331\226T\245\007\271\276\340\245"
 138      E1317ED9 
 138      9654A507 
 138      B9BEE0A5 
 139 0126 8266EA8E 		.ascii	"\202f\352\216GL\025W\323\034\344\2012K\310\240\033["
 139      474C1557 
 139      D31CE481 
 139      324BC8A0 
 139      1B5B
 140 0138 24FC0308 		.ascii	"$\374\003\010\253x#\272\221Cb\226\020$(\020\317\354"
 140      AB7823BA 
 140      91436296 
 140      10242810 
 140      CFEC
 141 014a C33802C2 		.ascii	"\3038\002\302H\310\225\223I6aH\024W[\253\007O\257{U"
 141      48C89593 
 141      49366148 
 141      14575BAB 
 141      074FAF7B 
 142 015f DE99F21B 		.ascii	"\336\231\362\033\012\337\205:ys\356\372[\007\340\237"
 142      0ADF853A 
 142      7973EEFA 
 142      5B07E09F 
 143 016f 82B8C34F 		.ascii	"\202\270\303O|\223\211\016\326~6K^\313\011\335<\372"
 143      7C93890E 
 143      D67E364B 
 143      5ECB09DD 
 143      3CFA
 144 0181 D2BE830A 		.ascii	"\322\276\203\012\363\324\216f1\335*\211\226\021\243"
 144      F3D48E66 
 144      31DD2A89 
ARM GAS  /tmp/ccLruy2S.s 			page 11


 144      9611A3
 145 0190 C5C0C3FE 		.ascii	"\305\300\303\376\250G\243\37770>e`t\226\201Ia`\345\310"
 145      A847A3FF 
 145      37303E65 
 145      60749681 
 145      496160E5 
 146 01a5 C0F8A481 		.ascii	"\300\370\244\201\376\217\263\217\360\330\300DB$G\032"
 146      FE8FB38F 
 146      F0D8C044 
 146      4224471A 
 147 01b5 4DE9DC45 		.ascii	"M\351\334EL\276\264\317gR:\217bD\004\206\025[;\002|"
 147      4CBEB4CF 
 147      67523A8F 
 147      62440486 
 147      155B3B02 
 148 01ca 45B3D7B9 		.ascii	"E\263\327\271\354Y\267f\331\245,\227\276P\253\325\335"
 148      EC59B766 
 148      D9A52C97 
 148      BE50ABD5 
 148      DD
 149 01db 6BF9EEA3 		.ascii	"k\371\356\243\345\372\375t\261\336X\232\227\272\326"
 149      E5FAFD74 
 149      B1DE589A 
 149      97BAD6
 150 01ea 402279BE 		.ascii	"@\"y\276\261\364\26065E\251\256\304\370\003S\243\267"
 150      B1F4B036 
 150      3545A9AE 
 150      C4F80353 
 150      A3B7
 151 01fc 95       		.ascii	"\225"
 152              		.text
 153              		.section	.gnu.lto_test_printn.part.0.1bd75f5614113f08,"",%progbits
 154 0000 789C8D92 		.ascii	"x\234\215\222AK\033Q\020\307\347\377\336\256Y\265b\256"
 154      414B1B51 
 154      10C7E7FF 
 154      DEAE59B5 
 154      62AE
 155 0012 4241AB48 		.ascii	"BA\253H\261\201\215`z\366K(X/\222\0045\013F\002MO\036"
 155      B1818D60 
 155      7AF64B28 
 155      582F9204 
 155      350B4602 
 156 0029 F2121444 		.ascii	"\362\022\024Dz\010\201B\325K\203\210T\301b\373\005\202"
 156      7A088142 
 156      D54B8388 
 156      54C162FB 
 156      0582
 157 003b 2713D0D2 		.ascii	"'\023\320\322\263\227\334\275\350Q\017]gv\263i#\205"
 157      B397DCBD 
 157      E8510F5D 
 157      6776B369 
 157      2385
 158 004d FA783B33 		.ascii	"\372x;3\357\275\371\315\314\233\267\212\024=\035\011"
 158      EFBDF9CD 
 158      CC9BB78A 
 158      143D1D09 
 159 005d FE8E78FB 		.ascii	"\376\216x\373-k\330\004\253z\305\206\005\025h\005-\272"
ARM GAS  /tmp/ccLruy2S.s 			page 12


 159      2D6BD804 
 159      AB7AC586 
 159      05156805 
 159      2DBA
 160 006f EC68400C 		.ascii	"\354h@\014\002\225,\245Qz\007\201\355q\252\033Sko\235"
 160      02952CA5 
 160      517A0781 
 160      ED71AA1B 
 160      536B6F9D 
 161 0083 9C8D982F 		.ascii	"\234\215\230/\225\252\371\355\373\360\300iFAY\320\002"
 161      95AAF9ED 
 161      FBF0C069 
 161      464159D0 
 161      02
 162 0094 2F301628 		.ascii	"/0\026(e\365\346\015\311\306\365\316\247\277I\255\350"
 162      65F5E60D 
 162      C9C6F5CE 
 162      A7BF49AD 
 162      E8
 163 00a5 D573C846 		.ascii	"\325s\310F\325\234Y\027f\263\341\373\263\036,E\023\177"
 163      D59C5917 
 163      66B3E1FB 
 163      B31E2C45 
 163      137F
 164 00b7 28136A15 		.ascii	"(\023j\025\377g\302\373\326\307\221\235\236\204\257"
 164      FF67C2FB 
 164      D6C7919D 
 164      9E84AF
 165 00c6 9F59EA5D 		.ascii	"\237Y\352]\253U\207\251\231\362\255\357\017{\260\025"
 165      AB5587A9 
 165      99F2ADEF 
 165      0F7BB015 
 166 00d6 25FE477E 		.ascii	"%\376G~S\246\355\373\273\337\373c\2404\276b\234;\343"
 166      53A6EDFB 
 166      BBDFFB63 
 166      A034BE62 
 166      9C3BE3
 167 00e9 A14FB388 		.ascii	"\241O\263\210I\373h\323\230\352X\032\207|\222\306A "
 167      49FB68D3 
 167      98EA581A 
 167      877C92C6 
 167      4120
 168 00fb EB2C49E2 		.ascii	"\353,I\342\362\230c)m\237\207%Z7\351\334!\312\203'\237"
 168      F2986329 
 168      6D9F8725 
 168      5A37E9DC 
 168      21CA8327 
 169 0110 34A9C2AB 		.ascii	"4\251\302\253\220\310\243\223r\036*p\275\244J\363\363"
 169      90C8A393 
 169      721E2A70 
 169      BDA44AF3 
 169      F3
 170 0121 E9541A27 		.ascii	"\351T\032'\374\252\253\300>\355\225\215\211s\335\033"
 170      FCAAABC0 
 170      3EED958D 
 170      8973DD1B 
 171 0131 F460B6C5 		.ascii	"\364`\266\305r\362\220\377A\012w:4S\213\021\242\022"
ARM GAS  /tmp/ccLruy2S.s 			page 13


 171      72F290FF 
 171      410A773A 
 171      34538B11 
 171      A212
 172 0143 F4868BED 		.ascii	"\364\206\213\355\202\375\034E|\355\3003\023%\354at\202"
 172      82FD1C45 
 172      7CEDC033 
 172      1325EC61 
 172      7482
 173 0155 8EC577A0 		.ascii	"\216\305w\240K\015r \241\372:T\204\375$;\204H0\021A"
 173      4B0D7220 
 173      A1FA3A54 
 173      84FD243B 
 173      84483011 
 174 016a F017D3DC 		.ascii	"\360\027\323\334\233\241\350*\272s\225\363\033\025:"
 174      9BA1E82A 
 174      BA7395F3 
 174      1B153A
 175 0179 87AD4AD1 		.ascii	"\207\255J\321\017\263\315\316\322\355_Tn_LF\241\302"
 175      0FB3CDCE 
 175      D2ED5F54 
 175      6E5F4C46 
 175      A1C2
 176 018b 31C75918 		.ascii	"1\307Y\030\224\313\275t\335d8\213\313\357\213\3115/"
 176      94CBBD74 
 176      DD64388B 
 176      CBEF8BC9 
 176      352F
 177 019d 93CCE696 		.ascii	"\223\314\346\226\304v\263\204u\024t\346\303\212.\270"
 177      C476B384 
 177      751474E6 
 177      C38A2EB8 
 178 01ad A901D95B 		.ascii	"\251\001\331[\312\346\012\356\314#\306,\244\304"
 178      CAE60AEE 
 178      CC23C62C 
 178      A4C4
 179              		.text
 180              		.section	.gnu.lto__test_fail.1bd75f5614113f08,"",%progbits
 181 0000 789C6362 		.ascii	"x\234cb`b@\007\222@\314\311\310\300 \007\244\031\231"
 181      60624007 
 181      9240CCC9 
 181      C8C02007 
 181      A41999
 182 0013 19189926 		.ascii	"\031\030\231&\234c`h\344`bd\0041\030\030\031\352\231"
 182      9C636068 
 182      E4606264 
 182      04311818 
 182      19EA99
 183 0026 18EB2319 		.ascii	"\030\353#\031\301j\3273\035x\360\377\377\2729\355K\317"
 183      C16AD733 
 183      1D78F0FF 
 183      FFBA39ED 
 183      4BCF
 184 0038 30CE6562 		.ascii	"0\316ebca\314\005\213\2632\26444LP``H\006sC\200$Ho("
 184      6361CC05 
 184      8BB332B4 
 184      34344C50 
ARM GAS  /tmp/ccLruy2S.s 			page 14


 184      60604806 
 185 0053 23138866 		.ascii	"#\023\210f>\313\320\264c\306\267\003\314\211\214\013"
 185      3ECBD0B4 
 185      63C6B703 
 185      CC898C0B 
 186 0063 19591966 		.ascii	"\031Y\031f3\314jlh\020\310dd\250f\370\325\320\001b\001"
 186      33CC6A6C 
 186      6810C864 
 186      64A866F8 
 186      D5D00162 
 187 0078 8D01698C 		.ascii	"\215\001i\214`\314d\204\330\003b1\200\230 \255+\312"
 187      60CC6484 
 187      D8036231 
 187      809820AD 
 187      2BCA
 188 008a F06964C2 		.ascii	"\360id\302\251\361\364\011t\215Lp\215\314\271@\257B"
 188      A9F1F409 
 188      748D4C70 
 188      8DCCB940 
 188      AF42
 189 009c 94338335 		.ascii	"\2243\2035\2463\26200\\dh|p;\031\242\011n\022\304G\214"
 189      A633B230 
 189      305C6468 
 189      7C703B19 
 189      A2096E12 
 190 00b3 209F80EC 		.ascii	" \237\200\354\222\321\323\323\207\240\222\324\342\022"
 190      92D1D3D3 
 190      87A092D4 
 190      E212
 191 00c1 FD9CCC24 		.ascii	"\375\234\314$\375\344\214x\020[/\231\001\000\353}J\243"
 191      FDE48C78 
 191      105B2F99 
 191      0100EB7D 
 191      4AA3
 192              		.text
 193              		.section	.gnu.lto__test_assert.1bd75f5614113f08,"",%progbits
 194 0000 789C7551 		.ascii	"x\234uQ\261J\003A\020\235\267\263\007!\244\260\260\024"
 194      B14A0341 
 194      109DB7B3 
 194      0721A4B0 
 194      B014
 195 0012 0D7EC01D 		.ascii	"\015~\300\035\370-\006\264\222xH<\360\252\004\033\213"
 195      F82D06B4 
 195      9278483C 
 195      F0AA041B 
 195      8B
 196 0023 6C4220E9 		.ascii	"lB \351\014V\242\"D\004\033\321NR\\ VFD!\220\306\316"
 196      0C56A222 
 196      44041BD1 
 196      4E525C20 
 196      56464421 
 197 003a 0FB0B6B0 		.ascii	"\017\260\266\2609w\366B$A\227\335\231a\231\367\366\315"
 197      3977F642 
 197      244197DD 
 197      996199F7 
 197      F6CD
 198 004c 5B458A16 		.ascii	"[E\212\026\327\206=\003\020\255\333\014\217\240\272"
ARM GAS  /tmp/ccLruy2S.s 			page 15


 198      D7863D03 
 198      10ADDB0C 
 198      8FA0BA
 199 005b 6F448D9C 		.ascii	"oD\215\234R<\011\310\024t\262J&\317\320\331\265\006"
 199      523C09C8 
 199      1474B24A 
 199      26CFD0D9 
 199      B506
 200 006d A420505D 		.ascii	"\244 P]\261F}\033\216\344^\015?\322\364.i?$\270TyP\004"
 200      B1467D1B 
 200      8EE45E0D 
 200      3FD2F42E 
 200      693F24B8 
 201 0085 62C420CF 		.ascii	"b\304 \317\006i\361\250eL\267H\024:\300\246\215\302"
 201      0669F1A8 
 201      654CB748 
 201      143AC0A6 
 201      8DC2
 202 0097 538292CC 		.ascii	"S\202\222\314#j}>\216\333\\F\317j\250\200\267\020aN"
 202      236A7D3E 
 202      8EDB5C46 
 202      CF6AA880 
 202      B710614E 
 203 00ab 66094C93 		.ascii	"f\011L\223\200\237\251\231\023\255=cN\206\311S\241\333"
 203      809FA999 
 203      13AD3D63 
 203      4E86C953 
 203      A1DB
 204 00bd E89834AD 		.ascii	"\350\2304\255G\260Dk\020vA\252\242K\254\347G\255Xnz"
 204      47B0446B 
 204      107641AA 
 204      A24BACE7 
 204      47AD586E 
 205 00d2 A566FFF4 		.ascii	"\245f\377\364k\3103EYan\216\2752\256 6d*B'\234\316\351"
 205      6BC83345 
 205      59616E8E 
 205      BD32AE20 
 205      36642A42 
 206 00ea AC61CC92 		.ascii	"\254a\314\222\225sD\337\246#\225\216!>\312\023\331\013"
 206      957344DF 
 206      A623958E 
 206      213ECA13 
 206      D90B
 207 00fc 4EAD740B 		.ascii	"N\255t\013y\337\222\227qm\031\376\206\362\277\320\227"
 207      79DF9297 
 207      716D19FE 
 207      86F2BFD0 
 207      97
 208 010d D1E10210 		.ascii	"\321\341\002\0203\240\027;\200\264{\277\303d\316h\347"
 208      33A0173B 
 208      80B47BBF 
 208      C364CE68 
 208      E7
 209 011e E1D87E8F 		.ascii	"\341\330~\217\\;\325\357\204)3_\014\226\247n\252\333"
 209      5C3BD5EF 
 209      8429335F 
 209      0C96A76E 
ARM GAS  /tmp/ccLruy2S.s 			page 16


 209      AADB
 210 0130 4141BC87 		.ascii	"AA\274\207\364\313\004+\276\037d\273\266W\255\005\007"
 210      F4CB042B 
 210      BE1F64BB 
 210      B657AD05 
 210      07
 211 0141 D16E10EE 		.ascii	"\321n\020\356\357H\355\207\304q\265\362\003b\005t\315"
 211      EF48ED87 
 211      C471B5F2 
 211      03620574 
 211      CD
 212              		.text
 213              		.section	.gnu.lto__test_assert_sequence.1bd75f5614113f08,"",%progbits
 214 0000 789CAD54 		.ascii	"x\234\255T\335KTA\024?g\346~\355\335M#z0\260\024_\203"
 214      DD4B5441 
 214      143F67E6 
 214      7EEDDD4D 
 214      237A30B0 
 215 0017 5DAAE71E 		.ascii	"]\252\347\036\372\037Z\250'\331\226\270-\265$(A\004"
 215      FA1F5AA8 
 215      27D996B8 
 215      2DB52428 
 215      4104
 216 0029 39EB070A 		.ascii	"9\353\007\012\012\273\210\204}<(\322C%\371\330\022\205"
 216      0ABB8884 
 216      7D3C28D2 
 216      4325F9D8 
 216      1285
 217 003b 9B046AA2 		.ascii	"\233\004j\242`\364b%\010\021\005\211\370\020\005\026"
 217      60F46225 
 217      08110589 
 217      F8100516 
 218 004b DECECCDC 		.ascii	"\336\316\314\334{]\267R\372\030v\357\2349\363;\277\363"
 218      7B5DB752 
 218      FA1876EF 
 218      9C39F33B 
 218      BFF3
 219 005d 792F0306 		.ascii	"y/\003\006\265\353*\375_\232\000\307h\3078 +-\002\024"
 219      B5EB2AFD 
 219      5F9A00C7 
 219      68C73820 
 219      2B2D0214 
 220 0071 1C86A616 		.ascii	"\034\206\246\02683\2469\010\327]|\001 \022\006\306\264"
 220      3833A639 
 220      08D75D7C 
 220      01201206 
 220      C6B4
 221 0083 DED58053 		.ascii	"\336\325\200S&\343\352\306\265$,a1\373\311\021:9\257"
 221      26E3EAC6 
 221      B5242C61 
 221      31FBC911 
 221      3A39AF
 222 0096 5274B243 		.ascii	"Rt\262C\264\023\0121D)\000B'\343\206kZ6\251:\317\242"
 222      B4130A31 
 222      44290042 
 222      27E3866B 
 222      5A36A93A 
ARM GAS  /tmp/ccLruy2S.s 			page 17


 223 00ac 0C85B5C0 		.ascii	"\014\205\265\300\230\020C\253\275[\037\361\346p\245"
 223      981043AB 
 223      BD5B1FF1 
 223      E670A5
 224 00bb 67547CF7 		.ascii	"gT|\367}\304\034R\330M\010Y\2043t\300f\2651cg\036\332"
 224      7DC41C52 
 224      D84D0859 
 224      843374C0 
 224      66B53163 
 225 00d2 B6B23233 		.ascii	"\266\26223xH\214v\225\304\026\231*\313\243{YN\262\312"
 225      78488C76 
 225      95C41699 
 225      2ACBA37B 
 225      594EB2CA 
 226 00e6 AAEFBF7D 		.ascii	"\252\357\277}\372\371\335\000\036h@\310K\253\014\216"
 226      FAF9DD00 
 226      1E6840C8 
 226      4BAB0C8E 
 227 00f6 630B70C8 		.ascii	"c\013p\310!7\22146i\306H\343\00471\2721\\\211\215K)"
 227      21379134 
 227      3669C648 
 227      E3043731 
 227      BA315C89 
 228 010d 4118AC93 		.ascii	"A\030\254\223\022\021\232\320#D\251Y\003Az\247u\232"
 228      12119AD0 
 228      2344A959 
 228      03417AA7 
 228      759A
 229 011f 9E1B16A4 		.ascii	"\236\033\026\244\221\321\306\347\240ku}\334\312\340"
 229      91D1C6E7 
 229      A06B757D 
 229      DCCAE0
 230 012e 5D3403C6 		.ascii	"]4\003\306k\260)\372\2058\231C3\217\333}J#\007*0_\200"
 230      6BB029FA 
 230      85389943 
 230      338FDB7D 
 230      4A23072A 
 231 0145 EE81EE0F 		.ascii	"\356\201\356\017\305Fm\342\241\343!S\331H\3669`\325"
 231      C5466DE2 
 231      A1E32153 
 231      D948F639 
 231      60D5
 232 0157 54740BB0 		.ascii	"Tt\013\260\000]\217{\257\207\360\330m\270Eh#\260\012"
 232      005D8F7B 
 232      AF87F0D8 
 232      6DB84568 
 232      23B00A
 233 016a D915EB3A 		.ascii	"\331\025\353:\206(\327C\374\231\224\222\244\253Z\306"
 233      8628D743 
 233      FC999492 
 233      A4AB5AC6 
 234 017a 78C488D5 		.ascii	"x\304\210\325\214\263\320\263V8\026\271%\034T\345b\300"
 234      8CB3D0B3 
 234      563816B9 
 234      251C54E5 
 234      62C0
 235 018c 432E9377 		.ascii	"C.\223w\242\206\275\351\233G1$\012\033\276_\237C\213"
ARM GAS  /tmp/ccLruy2S.s 			page 18


 235      A286BDE9 
 235      9B473124 
 235      0A1BBE5F 
 235      9F438B
 236 019f 4172AF7E 		.ascii	"Ar\257~y\230P\261\224G\276TxP\353\260\350\342S\221\212"
 236      799850B1 
 236      9447BE54 
 236      7850EBB0 
 236      E8E25391 
 237 01b4 7A4FD55D 		.ascii	"zO\325]\307\220E\025\032\005[\020b?\265S\327\231$;O"
 237      C7904515 
 237      1A055B10 
 237      623FB553 
 237      D799243B 
 238 01c9 A505E5C2 		.ascii	"\245\005\345\302V\304R\342\010\232\274L\344\031|@\014"
 238      56C452E2 
 238      089ABC4C 
 238      E4197C40 
 238      0C
 239 01da BF36357E 		.ascii	"\27765~k:?{\245\306\320\212\014\235<\3515\334\331NF"
 239      6B3A3F7B 
 239      A5C6D08A 
 239      0C9D3CE9 
 239      35DCD94E 
 240 01ef CF870BA3 		.ascii	"\317\207\013\2433\200i\002\320\033\022\024)\354'\223"
 240      33806902 
 240      D01B1214 
 240      29EC2793 
 241 01ff ED900AD5 		.ascii	"\355\220\012\325\013T~\346F\350=\011\013mG\316 r\026"
 241      0B547EE6 
 241      46E83D09 
 241      0B6D47CE 
 241      207216
 242 0212 CBA31538 		.ascii	"\313\243\0258\213E\335y\376\276p\"4b^\020>\255e@\017"
 242      8B45DD79 
 242      FEBE7022 
 242      34625E10 
 242      3EAD6540 
 243 0227 4D460FD7 		.ascii	"MF\017\327\2753\265\206\313\3004Qe\245\257>\232I6\302"
 243      BD33B586 
 243      CBC03451 
 243      65A5AF3E 
 243      9A4936C2 
 244 023b 69B808D0 		.ascii	"i\270\010\320&\273i\3014\347j*\276\026\355\220\264n"
 244      26BB69C1 
 244      34E76A2A 
 244      BE16ED90 
 244      B46E
 245 024d 97B9D817 		.ascii	"\227\271\330\027\201\344\225[\335\3254\2052\211;g\343"
 245      81E4955B 
 245      DDD53485 
 245      32893B67 
 245      E3
 246 025e F54CA254 		.ascii	"\365L\242T\350\027\276\337I5\314\340}\012\341\037F\343"
 246      E817BEDF 
 246      4935CCE0 
 246      7D0AE11F 
ARM GAS  /tmp/ccLruy2S.s 			page 19


 246      46E3
 247 0270 5BD1CCE0 		.ascii	"[\321\314\340\243\3776\032\345\277\035\215\362\237\216"
 247      A3FF361A 
 247      E5BF1D8D 
 247      F29F8E
 248 027f 469A1443 		.ascii	"F\232\024CL\026z\263{r\360pm^\343\303M\333\031\261\035"
 248      4C167AB3 
 248      7B72F070 
 248      6D5EE3C3 
 248      4DDB19B1 
 249 0294 19ED320B 		.ascii	"\031\3552\013AsoX\272\267\031|\246\334\007\016c\362"
 249      41736F58 
 249      BAB7197C 
 249      A6DC070E 
 249      63F2
 250 02a6 23B544DF 		.ascii	"#\265D\337k\031\006\327\363\301\203L\214\211\251\206"
 250      6B1906D7 
 250      F3C1834C 
 250      8C89A986 
 251 02b6 40B4D7A6 		.ascii	"@\264\327\246\016*\021\300\231XJ\310)F\262\224A4&\223"
 251      0E2A11C0 
 251      99584AC8 
 251      2946B294 
 251      41342693 
 252 02ca 29FDEB38 		.ascii	")\375\3538\337\336\221\272\224;\227\312^h\225r2\013"
 252      DFDE91BA 
 252      943B97CA 
 252      5E689572 
 252      320B
 253 02dc 71B9B776 		.ascii	"q\271\267v\\\276\330\226<\316\262m<\337\356\375\000"
 253      5CBED896 
 253      3CCEB26D 
 253      3CDFEEFD 
 253      00
 254 02ed D1CB7004 		.ascii	"\321\313p\004"
 255              		.text
 256              		.section	.gnu.lto__test_assert_time_window.1bd75f5614113f08,"",%progbits
 257 0000 789C8D54 		.ascii	"x\234\215TMh\023A\024~of\267\371Q\250\240\247\"Rz\025"
 257      4D681341 
 257      147E6F66 
 257      B7F951A8 
 257      A0A72252 
 258 0016 B2D89E3D 		.ascii	"\262\330\236=\210^\204\346\242-\350)l\223\220,$Y\311"
 258      885E84E6 
 258      A22DE829 
 258      6C93902C 
 258      2459C9
 259 0029 2E45F0D0 		.ascii	".E\360\320I\255\177\005\261\224\200\266\025\241X\320"
 259      49AD7F05 
 259      B19480B6 
 259      15A158D0 
 260 0039 166D85B6 		.ascii	"\026m\205\266\030\260\205\370\007\225\232\252\330\213"
 260      18B085F8 
 260      07959AAA 
 260      D88B
 261 0047 7A098A78 		.ascii	"z\011\212x\022z\020\017\"\3047\263i\322\204\252Yv\337"
 261      127A100F 
ARM GAS  /tmp/ccLruy2S.s 			page 20


 261      22C437B3 
 261      69D284AA 
 261      5976DF
 262 005a BCD979EF 		.ascii	"\274\331y\357{\337\373fv\0310h\276\272\351\271\244\001"
 262      7BDFFB66 
 262      76193068 
 262      BEBAE9B9 
 262      A401
 263 006c 1469441D 		.ascii	"\024iD\035\220\215m\000\344\374\214\361M\003\304^m\345"
 263      908D6D00 
 263      E4FC8CF1 
 263      4D03C45E 
 263      6DE5
 264 007e 10882047 		.ascii	"\020\210 G\315{\255!J\007\020\206\030\327p\350,*\220"
 264      CD7BAD21 
 264      4A071086 
 264      18D770E8 
 264      2C2A90
 265 0091 05562C57 		.ascii	"\005V,W*\363wF\227Vp\226\265sL#hdP'\303|`!\370\311`"
 265      2AF37746 
 265      97567096 
 265      B5734C23 
 265      68645027 
 266 00ac 409A2019 		.ascii	"@\232 \031\311C\207\021!\306:\001\242\012\244\217\254"
 266      C9438711 
 266      21C63A01 
 266      A20AA48F 
 266      AC
 267 00bd C4EEA745 		.ascii	"\304\356\247E\032y\011\236}\374\375f\243\273\026\346"
 267      1A79099E 
 267      7DFCFD66 
 267      A3BB16E6 
 268 00cd 39C587D7 		.ascii	"9\305\207\327?\361\372$\377}?\326f\353\257?\353\000"
 268      3FF1FA24 
 268      FF7D3FD6 
 268      66EBAF3F 
 268      EB00
 269 00df 264E5323 		.ascii	"&NS#QDz\030=\\\242'\320w\030\346\304H\256\\\371\221"
 269      51447A18 
 269      3D5CA227 
 269      D07718E6 
 269      C448AE5C 
 270 00f5 EFB0904F 		.ascii	"\357\260\220O\301dnL\354\263P;\203\026\352\202.\015"
 270      C1646E4C 
 270      ECB3503B 
 270      8316EA82 
 270      2E0D
 271 0107 94AB3A1A 		.ascii	"\224\253:\032\220\234L\274\353M_\301\360\326\370\373"
 271      909C4CBC 
 271      EB4D5FC1 
 271      F0D6F8FB 
 272 0117 027AD05D 		.ascii	"\002z\320]0-\304xqjt\035\305\270\310mU*\355\324 \203"
 272      302DC478 
 272      716A741D 
 272      C5B8C86D 
 272      552AEDD4 
 273 012d 19555281 		.ascii	"\031UR\201\264u\252\301\2475\212M,\024Xy\342\345\236"
ARM GAS  /tmp/ccLruy2S.s 			page 21


 273      B475AAC1 
 273      A7358A4D 
 273      2C145879 
 273      E2E59E
 274 0140 7F63CDB6 		.ascii	"\177c\315\266\200\305[\304Zh\001\213^\224\340\342\265"
 274      80C55BC4 
 274      5A68018B 
 274      5E94E0E2 
 274      B5
 275 0151 E70BF9C9 		.ascii	"\347\013\371\311\345d\263\344RW\023\037`\027)2\247\354"
 275      E564B3E4 
 275      5257131F 
 275      60172932 
 275      A7EC
 276 0163 7DB275A5 		.ascii	"}\262u\2455\017\303O\355)Vu$\023\347)\"\201\001\252"
 276      350FC34F 
 276      ED295675 
 276      2413E729 
 276      228101AA 
 277 0177 B04D7837 		.ascii	"\260Mx7%\237\240\270\274\315\2301X\334\301\330\3571"
 277      259FA0B8 
 277      BCCD9831 
 277      58DCC1D8 
 277      EF31
 278 0189 C646C631 		.ascii	"\306F\3061\370B;V\2769Z\352\340\224\242\212\007\274"
 278      F8423B56 
 278      BE395AEA 
 278      E094A28A 
 278      07BC
 279 019b 6AADED97 		.ascii	"j\255\355\227\237\301j\013\272\020\334\032\274\370\372"
 279      9FC16A0B 
 279      BA10DC1A 
 279      BCF8FA
 280 01aa F4ADAF49 		.ascii	"\364\255\257I\024\361-\317M\\Tj<jPC\257\251\021\250"
 280      14F12DCF 
 280      4D5C546A 
 280      3C6A5043 
 280      AFA911A8 
 281 01be 23F553F3 		.ascii	"#\365S\363\233\006'b~\330&\264z\245\201\220\211K\352"
 281      9B062762 
 281      7ED826B4 
 281      7AA58190 
 281      894BEA
 282 01d1 BCFE9750 		.ascii	"\274\376\227P\011\206\013\267~\026y3\243{7h\227\036"
 282      09860BB7 
 282      7E167933 
 282      A37B3768 
 282      971E
 283 01e3 57B92C2B 		.ascii	"W\271,+.m2I\036u!\217:\273\000\277\304U\351\005\322"
 283      2E6D3249 
 283      1E75218F 
 283      3ABB00BF 
 283      C455E905 
 284 01f8 EAB39025 		.ascii	"\352\263\220%<\222\322cRc\011^ p\023\013\204\260{\252"
 284      3C92D263 
 284      5263095E 
 284      2070130B 
ARM GAS  /tmp/ccLruy2S.s 			page 22


 284      84B07BAA 
 285 020c F6D7D4F5 		.ascii	"\366\327\324\365\265\301\246D\177-1\230V\322\310\360"
 285      B5C1A644 
 285      7F2D3198 
 285      56D2C8F0 
 286 021c 60BD194F 		.ascii	"`\275\031O\034M}\362\357 W\236\210{:&\274\240\017\020"
 286      1C4D7DF2 
 286      EF20579E 
 286      887B3A26 
 286      BCA00F10 
 287 0230 54F8006C 		.ascii	"T\370\000l\346h\265\022\277\275z@\376/P&\311?\311\301"
 287      E668B512 
 287      BFBD7A40 
 287      FE2F5026 
 287      C93FC9C1 
 288 0244 50C8F06E 		.ascii	"P\310\360n7\356\270F\312\0320\242\311\210\364CQ\350"
 288      37EEB846 
 288      CA1A30A2 
 288      C988F443 
 288      51E8
 289 0256 A92DDA8E 		.ascii	"\251-\332\216\2214S\3069;\353:\306\351\276pO\267\321"
 289      913453C6 
 289      393BEB3A 
 289      C6E9BE70 
 289      4FB7D1
 290 0269 DB7BC2E8 		.ascii	"\333{\302\350;\031\036<\"W\"\216\033I\245b\241$\030"
 290      3B191E3C 
 290      2257228E 
 290      1B49A562 
 290      A12418
 291 027c 3B73A276 		.ascii	";s\242v:mg\252i\307N\205\217\207\317\023|\324\316\306"
 291      3A6D67AA 
 291      69C74E85 
 291      8F87CF13 
 291      7CD4CEC6 
 292 0290 23AE958E 		.ascii	"#\256\225\216g)\276\263\271\206\355\220\311X\236C\001"
 292      6729BEB3 
 292      B986ED90 
 292      C9589E43 
 292      01
 293 02a1 9A8CD41D 		.ascii	"\232\214\324\035\327\314\272<\236\211\005\242v&f\271"
 293      D7CCBA3C 
 293      9E8905A2 
 293      762666B9 
 294 02b1 969DE169 		.ascii	"\226\235\341i'\361\007\3311_}"
 294      27F107D9 
 294      315F7D
 295              		.text
 296              		.section	.gnu.lto_test_printn.1bd75f5614113f08,"",%progbits
 297 0000 789C8554 		.ascii	"x\234\205TKH\224Q\024>\347\336\371\037\363\317\350\350"
 297      4B489451 
 297      143EE7DE 
 297      F91FF3CF 
 297      E8E8
 298 0012 A8238690 		.ascii	"\250#\206\220\010m\024\306\2406-\244u{\205j#:\3258\220"
 298      086D14C6 
 298      A0362DA4 
ARM GAS  /tmp/ccLruy2S.s 			page 23


 298      757B856A 
 298      233AD538 
 299 0027 206514B4 		.ascii	" e\024\264\360:3\201\250\301 D\257\215\026\025\265\310"
 299      F03A3381 
 299      A8C12044 
 299      AF8D1615 
 299      B5C8
 300 0039 45BB5633 		.ascii	"E\273V3!4\212\026-\304\244E\266\210 \005\027\021\275"
 300      21348A16 
 300      2DC4A445 
 300      B6882005 
 300      1711BD
 301 004c A0E99CFF 		.ascii	"\240\351\234\377\376w\306L\350\342\3343\367\234\357"
 301      FE77C64C 
 301      E8E2DC33 
 301      F79CEF
 302 005b 3BEF5180 		.ascii	";\357Q\200\200\275\3472}>\207\000zHb\004P\024^\001L"
 302      80BDE732 
 302      7D3E8700 
 302      7A486204 
 302      50145E01 
 303 0070 B842846E 		.ascii	"\270B\204n6\200\362\344\217^PQ\2116\2531\204\236/-\375"
 303      3680F2E4 
 303      8F5E5051 
 303      8936AB31 
 303      849E2F2D 
 304 0085 2EB9B6B0 		.ascii	".\271\266\260f^\002\341\234\274C8\007\303\276\335\325"
 304      665E02E1 
 304      9CBC4338 
 304      07C3BEDD 
 304      D5
 305 0096 B2E48685 		.ascii	"\262\344\206\205\253\355\236o\367\020Y\017\010\343B"
 305      ABED9E6F 
 305      F710590F 
 305      08E342
 306 00a5 862CDB71 		.ascii	"\206,\333q\303\036\216\237BNDv\302\274R\263\233\327"
 306      C31E8E9F 
 306      424E4476 
 306      C2BC52B3 
 306      9BD7
 307 00b7 9E3E6E9B 		.ascii	"\236>n\233\232\313\026\324\357J\0053H)\037DH!\234\244"
 307      9ACB16D4 
 307      EF4A0533 
 307      48291F44 
 307      48219CA4 
 308 00cb 0776F842 		.ascii	"\007v\370B\204\376\256\201\231\305B\361\335\324\014"
 308      84FEAE81 
 308      99C542F1 
 308      DDD40C
 309 00da AA1A530A 		.ascii	"\252\032S\012\350\2521\225\226\242\341_\252\232Ukg\312"
 309      E8AA3195 
 309      96A2E15F 
 309      AA9A556B 
 309      67CA
 310 00ec 2A5FAC54 		.ascii	"*_\254T\216g0$ \371\277\200\013\242\270Y\251\254\254"
 310      8E673024 
 310      20F9BF80 
ARM GAS  /tmp/ccLruy2S.s 			page 24


 310      0BA2B859 
 310      A9ACAC
 311 00ff 7DFF50C6 		.ascii	"}\377P\306\370\001\204\021Ns\020\037`'\310@\332HJ/x"
 311      F8018411 
 311      4E73101F 
 311      6027C840 
 311      DA484A2F 
 312 0114 4418110D 		.ascii	"D\030\021\015\036u\220A\253\236.;\306W#\333\342d\233"
 312      1E759041 
 312      AB9E2E3B 
 312      C65723DB 
 312      E2649B
 313 0127 275B1369 		.ascii	"'[\023i\234f\272\334\226\000\235\010d+c)\264\005y\245"
 313      9C66BADC 
 313      96009D08 
 313      642B6329 
 313      B40579A5 
 314 013b 0A1D8378 		.ascii	"\012\035\203x\237\224\332\004\234-\235>\272w\\\350G"
 314      9F94DA04 
 314      9C2D9D3E 
 314      BA775CE8 
 314      47
 315 014c 41429661 		.ascii	"AB\226a\361S\351\375\224\034\304GhA\032m.\304\332]E"
 315      F153E9FD 
 315      941CC447 
 315      68411A6D 
 315      2EC4DA5D 
 316 0161 3F4AC83B 		.ascii	"?J\310;\022`\003\"d\027\270\001\336U\370\251\224*~]"
 316      12600322 
 316      6417B801 
 316      DE55F8A9 
 316      942A7E5D 
 317 0175 8E6630AC 		.ascii	"\216f0\254\203\320\021W\030\035\202-\224K\220u\265\313"
 317      83D01157 
 317      181D822D 
 317      944B9075 
 317      B5CB
 318 0187 11C434A7 		.ascii	"\021\3044\247\364\032r\201\006\200\351\223\252!\203"
 318      F41A7281 
 318      0680E993 
 318      AA2183
 319 0196 5E0AFD9C 		.ascii	"^\012\375\234(\353\210\211f\001\355\202\\\205\334t\356"
 319      28EB8889 
 319      6601ED82 
 319      5C85DC74 
 319      EE
 320 01a7 CB8D3693 		.ascii	"\313\2156\223W4\215\302\3571\343\227@h\275\256\214\254"
 320      57348DC2 
 320      EF31E397 
 320      4068BDAE 
 320      8CAC
 321 01b9 0044B89D 		.ascii	"\000D\270\235{\210\006_\227F\364K\361\200m\331\255\334"
 321      7B88065F 
 321      9746F44B 
 321      F1806DD9 
 321      ADDC
 322 01cb 0563AA27 		.ascii	"\005c\252'\253\217\237\254V\035#-\243\355\303\032}B"
ARM GAS  /tmp/ccLruy2S.s 			page 25


 322      AB8F9FAC 
 322      561D232D 
 322      A3EDC31A 
 322      7D42
 323 01dd 1BEEC29D 		.ascii	"\033\356\302\235\011\2523F\206 \274\2360\021|\007\327"
 323      09AA3346 
 323      8620BC9E 
 323      30117C07 
 323      D7
 324 01ee 73F78471 		.ascii	"s\367\204q\321\270;`5A\032\032\231Li6\320^\373\275\201"
 324      D1B83B60 
 324      35411A1A 
 324      994C6936 
 324      D05EFBBD 
 325 0203 6AEA82D1 		.ascii	"j\352\202\321\254\360\241T]\031\362\333\245o\313u\306"
 325      ACF0A154 
 325      5D19F2DB 
 325      A56FCB75 
 325      C6
 326 0214 31EE99C8 		.ascii	"1\356\231\310\006PC#\222\256Fke}Nl\200H\243\307\357"
 326      06504323 
 326      92AE466B 
 326      657D4E6C 
 326      8048A3C7 
 327 0229 A8754B72 		.ascii	"\250uKr\030\307\314\253\205\334\333\310*7hjv\351\355"
 327      18C7CCAB 
 327      85DCDBC8 
 327      2A37686A 
 327      76E9ED
 328 023c C231E339 		.ascii	"\3021\3439\256\353\2439\324&\022\035\341\214\374u\216"
 328      AEEBA339 
 328      D426121D 
 328      E18CFC75 
 328      8E
 329 024d 06018975 		.ascii	"\006\001\211u\332P\232\272\241\213v\217\210\004\240"
 329      DA509ABA 
 329      A18B768F 
 329      8804A0
 330 025c 1EC719A8 		.ascii	"\036\307\031\250aC\010\373\020\232\273\341\011\373\255"
 330      614308FB 
 330      109ABBE1 
 330      09FBAD
 331 026b D7146A74 		.ascii	"\327\024jt\023S\234\200\202UJn\272:\215D\032\245?\353"
 331      13539C80 
 331      82554A6E 
 331      BA3A8D44 
 331      1AA53FEB 
 332 027f 0A9DD87E 		.ascii	"\012\235\330~\363N\370A\236[\206\321\252\275\323\224"
 332      F34EF841 
 332      9E5B86D1 
 332      AABDD394 
 333 028f 12B529F1 		.ascii	"\022\265)\361\316Yf\345(\023\276\342\204\315`\203\031"
 333      CE5966E5 
 333      2813BEE2 
 333      84CD6083 
 333      19
 334 02a0 48789F81 		.ascii	"Hx\237\201H\036\301\342\307\322/3\002\275\354\252w\367"
ARM GAS  /tmp/ccLruy2S.s 			page 26


 334      481EC1E2 
 334      C7D22F33 
 334      02BDECAA 
 334      77F7
 335 02b2 AAFB3033 		.ascii	"\252\37303\017\231\306\026\207\372\237p\267\327\333"
 335      0F99C616 
 335      87FA9F70 
 335      B7D7DB
 336 02c1 D9ADC7BF 		.ascii	"\331\255\307\277\254Ux\261UM\233iG\341\231\232\344\377"
 336      AC5578B1 
 336      554D9B69 
 336      47E1999A 
 336      E4FF
 337 02d3 38447A03 		.ascii	"8Dz\003\023\233\345C&9}\372\250\033;.w\277=\231\354"
 337      139BE543 
 337      26397DFA 
 337      A81B3B2E 
 337      77BF3D99 
 338 02e8 D17F6367 		.ascii	"\321\177cg/\216\365\234\317\014\365\244\206\007\370"
 338      2F8EF59C 
 338      CF0CF5A4 
 338      8607F8
 339 02f7 7B32051E 		.ascii	"{2\005\036\313\201\324\360h\362\210\034\272t\016G\377"
 339      CB81D4F0 
 339      68F2881C 
 339      BA740E47 
 339      FF
 340 0308 00878F22 		.ascii	"\000\207\217\","
 340      2C
 341              		.text
 342              		.section	.gnu.lto_test_print.1bd75f5614113f08,"",%progbits
 343 0000 789C6D52 		.ascii	"x\234mR1K\\A\020\376\276\335\267\357\275;\015$\301F"
 343      314B5C41 
 343      10FEBEDD 
 343      B7EFBD3B 
 343      0D24C146 
 344 0014 11948085 		.ascii	"\021\224\200\205\012wE\260\314\2778A\323\210\036r\036"
 344      0A7745B0 
 344      CCBF3841 
 344      D3881E72 
 344      1E
 345 0025 2804B44B 		.ascii	"(\004\264K\341\336y\202\250\305a!!ZD\254\022\004K!\225"
 345      E1DE7982 
 345      A8C56121 
 345      215A44AC 
 345      12044B21 
 346 003a 567A9028 		.ascii	"Vz\220(\226\"\302a-\244O\221\313\314\355\235!\342\362"
 346      9622C261 
 346      2DA44F91 
 346      CBCCED9D 
 346      21E2F2
 347 004d DECCECCC 		.ascii	"\336\314\354\314|\337|o\367\031\030<]\357\344}%\351"
 347      7CDF7C6F 
 347      F719183C 
 347      5DEFE47D 
 347      25E9
 348 005f 51F18C41 		.ascii	"Q\361\214AS\277\004*\251a\024\002\033\202\26342v\373"
ARM GAS  /tmp/ccLruy2S.s 			page 27


 348      53BF042A 
 348      A9611402 
 348      1B82B334 
 348      3276FB
 349 0072 1CF05957 		.ascii	"\034\360YWK\340{\035\251y\020\253\306F\216\253\323T"
 349      4BE07B1D 
 349      A97910AB 
 349      C6468EAB 
 349      D354
 350 0084 3ABEC181 		.ascii	":\276\301\201\367;\315\365\223\257\375\233_\252u\377"
 350      F73BCDF5 
 350      93AFFD9B 
 350      5FAA75FF 
 351 0094 A7D56299 		.ascii	"\247\325b\2312x\210(\022S\262\341p\333\231\350\177%"
 351      32788828 
 351      1253B2E1 
 351      70DB99E8 
 351      7F25
 352 00a6 C7E6B4D9 		.ascii	"\307\346\264\331j\355\337\036\335\337\361u\017\261D"
 352      6AEDDF1E 
 352      DDDFF175 
 352      0FB144
 353 00b5 588A7128 		.ascii	"X\212q(\323\306\230\345\201\220'\262\211R1.\243\015"
 353      D3C698E5 
 353      819027B2 
 353      8952312E 
 353      A30D
 354 00c7 B21C6ADE 		.ascii	"\262\034j\336\327\207\241\354\262\012bE`\201F\234\235"
 354      D787A1EC 
 354      B20A6245 
 354      6081469C 
 354      9D
 355 00d8 A485A8B6 		.ascii	"\244\205\250\266?Qm|:\031\235\345!\035J\214\367\360"
 355      3F516D7C 
 355      3A199DE5 
 355      211D4A8C 
 355      F7F0
 356 00ea B9E2FD4B 		.ascii	"\271\342\375K\021\366\021\277\375\206F\361\022\225@"
 356      11F611BF 
 356      FD8646F1 
 356      129540
 357 00f9 95C51D45 		.ascii	"\225\305\035E\202z\337\205$\343\030\223\321\002\224"
 357      827ADF85 
 357      24E31893 
 357      D10294
 358 0108 864428B4 		.ascii	"\206D(\2641\264\315\021\317\000\322q|S\3364@2B\241\220"
 358      31B4CD11 
 358      CF00D271 
 358      7C53DE34 
 358      403242A1 
 359 011d A803E123 		.ascii	"\250\003\341#dm\313v1\322\304\366\321h\265\001\023\362"
 359      646DCB76 
 359      31D2C4F6 
 359      D168B501 
 359      13F2
 360 012f F29D5202 		.ascii	"\362\235R\002\256\340B\002J\257&.\321\225\231\015L\223"
 360      AEE04202 
ARM GAS  /tmp/ccLruy2S.s 			page 28


 360      4AAF262E 
 360      D195990D 
 360      4C93
 361 0141 C22D5762 		.ascii	"\302-Wb\033\250J\261\015b[\322\367\365_\273\003\335"
 361      1BA84AB1 
 361      0D625BD2 
 361      F7F55FBB 
 361      03DD
 362 0153 112EC8E9 		.ascii	"\021.\310\351\351L\352\355\310\270@\355\241\362\366"
 362      E94CEAED 
 362      C8B840ED 
 362      A1F2F6
 363 0162 B1494B2F 		.ascii	"\261IK/\376]\315\015X\2425b2\366\307m\237\316rz\274"
 363      FE5DCD0D 
 363      58A23562 
 363      32F6C76D 
 363      9FCE727A 
 364 0177 D7A834EF 		.ascii	"\327\2504\357F\272\242\302*\310\324Z\242?\332`.\227"
 364      46BAA2C2 
 364      2AC8D45A 
 364      A23FDA60 
 364      2E97
 365 0189 0FCFCAFC 		.ascii	"\017\317\312\374\362J~\261<\227/.\314h\234+\"\253~\246"
 365      F24A7EB1 
 365      3C972F2E 
 365      CC689C2B 
 365      22AB7EA6 
 366 019d B8F02137 		.ascii	"\270\360!7\361\027D\377z\307"
 366      F11744FF 
 366      7AC7
 367              		.text
 368              		.section	.gnu.lto_test_println.1bd75f5614113f08,"",%progbits
 369 0000 789C8D53 		.ascii	"x\234\215S\315k\023Q\020\237y\037\233\315&\261\261z"
 369      CD6B1351 
 369      109F791F 
 369      9BCD26B1 
 369      B17A
 370 0012 B0E24729 		.ascii	"\260\342G)xh\013\311A\212 \010\376\021-h/%\015\262]"
 370      78680BC9 
 370      418A2008 
 370      FE112D68 
 370      2F250DB2 
 371 0027 3050686F 		.ascii	"0Pho\036\372\022#\210\365\020z\320\252\010\006\251\250"
 371      1EFA1223 
 371      88F5107A 
 371      D0AA0806 
 371      A9A8
 372 0039 172F053F 		.ascii	"\027/\005?\016\245\2364V-\036U\012A\257\005=\347\340"
 372      0EA59E34 
 372      562D1E55 
 372      0A41AF05 
 372      3DE7E0
 373 004c 3AB36F77 		.ascii	":\263ow\373\341\241>v\337\233\2357\277\231\337\374\336"
 373      FBE1A13E 
 373      76DF9B9D 
 373      37BF99DF 
 373      FCDE
ARM GAS  /tmp/ccLruy2S.s 			page 29


 374 005e 5B0102F6 		.ascii	"[\001\002\366\217\013\364\256J\273\242\003(Z\237\001"
 374      8F0BF4AE 
 374      4ABBA203 
 374      285A9F01 
 375 006e EAAE4065 		.ascii	"\352\256@e\015i\215\267\256\022\362\366;\000\343\351"
 375      0D698DB7 
 375      AE12F2F6 
 375      3B00E3E9 
 376 007e 66064C5E 		.ascii	"f\006L^#\262\037\020\026\204T\032\027.#\247\023C\320"
 376      23B21F10 
 376      1684541A 
 376      172E23A7 
 376      1343D0
 377 0091 3666A9BB 		.ascii	"6f\251\273\262vo\340\326\243F\313\374\011C\014\220\012"
 377      B2766FE0 
 377      D6A346CB 
 377      FC09430C 
 377      900A
 378 00a3 9F46A822 		.ascii	"\237F\250\"\\\242\017\034\214\026\241\3662\261\310\365"
 378      5CA20F1C 
 378      8C16A1F6 
 378      32B1C8F5 
 379 00b3 D71B1FDA 		.ascii	"\327\033\037\332h\226L\375w\030\366E\310\221\203\220"
 379      68964CFD 
 379      7718F645 
 379      C8918390 
 380 00c3 2FC47A37 		.ascii	"/\304z7\014\267\267V\177\364\260\277(\260\206\240\240"
 380      0CB7B756 
 380      7FF4B0BF 
 380      28B086A0 
 380      A0
 381 00d4 826D1C02 		.ascii	"\202m\034\002\015\001J\207&\345\222\3471y\262\354\361"
 381      0D014A87 
 381      26E592E7 
 381      3179B2EC 
 381      F1
 382 00e5 68D239A0 		.ascii	"h\3229\240\300<O\005\372t(\221\206\2461\255A\340z4\306"
 382      C03C4F05 
 382      FA742891 
 382      86A631AD 
 382      41E07A34 
 383 00fa 69A66627 		.ascii	"i\246f'P\320\";\320pS\226[\213\033\273Hf\004\214\035"
 383      50D0223B 
 383      D0705396 
 383      5B8B1BBB 
 383      4866048C 
 384 010f 44D2C758 		.ascii	"D\322\307X\374\011\224@J\312O\320\350,\277\034NkZ\303"
 384      FC099440 
 384      4ACA4FD0 
 384      E82CBF1C 
 384      4E6B5AC3 
 385 0123 FCBC7BB2 		.ascii	"\374\274{\262\202O\210(\020\341\025\324\224\026-\336"
 385      824F8828 
 385      10E115D4 
 385      94162DDE 
 386 0133 7D00F7EB 		.ascii	"}\000\367\353\306\024I\224k\32037\331rk\321.\027t\343"
 386      C6144994 
ARM GAS  /tmp/ccLruy2S.s 			page 30


 386      6BD03337 
 386      D9726BD1 
 386      2E1774E3 
 387 0147 4294F71B 		.ascii	"B\224\367\033\345\255\340S\002\373\230\035\205\021\352"
 387      E5ADE053 
 387      02FB981D 
 387      8511EA
 388 0156 38C56629 		.ascii	"8\305f)\021\207\333\340i\214\352<\243P\013\235Lp\336"
 388      1187DBE0 
 388      698CEA3C 
 388      A3500B9D 
 388      4C70DE
 389 0169 283CE778 		.ascii	"(<\347x/E\346(\031#e\214\304=\310\353\2132\201\346}"
 389      2F45E628 
 389      1923658C 
 389      C43DC8EB 
 389      8B3281E6 
 390 017e CC451270 		.ascii	"\314E\022p\362\016\010\353\267]\321.\300&h\353\343\266"
 390      F20E08EB 
 390      B75DD12E 
 390      C02668EB 
 390      E3B6
 391 0190 BCA8371F 		.ascii	"\274\2507\037\013\001oY\205\024\320\345\212\025Op\271"
 391      0B016F59 
 391      8514D0E5 
 391      8A154F70 
 391      B9
 392 01a1 88DF9B1B 		.ascii	"\210\337\233\033\277\356\034O\012\025Rn\205\270d&\026"
 392      BFEE1C4F 
 392      0A15526E 
 392      85B86426 
 392      16
 393 01b2 E13D34B7 		.ascii	"\341=4\267\353g\3238\336:\264s\026_\201z\021\002\211"
 393      EB67D338 
 393      DE3AB473 
 393      165F817A 
 393      110289
 394 01c5 8CFCF8FD 		.ascii	"\214\374\370\375(W\324|\304|$\257\326\006\254\356>\252"
 394      2857D47C 
 394      C47C24AF 
 394      D606ACEE 
 394      3EAA
 395 01d7 FF167C32 		.ascii	"\377\026|2\201\350Tm\214\244V\373\244\376\007\340\304"
 395      81E8546D 
 395      8CA456FB 
 395      A4FE07E0 
 395      C4
 396 01e8 32F75908 		.ascii	"2\367Y\010\361\322\2735N~\330Mp,\202\305rxRL\351X\200"
 396      F1D2BB35 
 396      4E7ED84D 
 396      702C82C5 
 396      7278524C 
 397 01ff C55370FE 		.ascii	"\305Sp\376\241Y\276\030\340\341\370\302D\344\372\005"
 397      A159BE18 
 397      E0E1F8C2 
 397      44E4FA05 
 398 020f DDE92300 		.ascii	"\335\351#\000_\240\336\355\235I\260v\214S\013\315\014"
ARM GAS  /tmp/ccLruy2S.s 			page 31


 398      5FA0DEED 
 398      9D49B076 
 398      8C530BCD 
 398      0C
 399 0220 A73E512A 		.ascii	"\247>Q*\225\3553\177en\276|5\230.Wg\246\330.U\301\343"
 399      95ED337F 
 399      656EBE7C 
 399      35982E57 
 399      67A6D82E 
 400 0237 75AA3A33 		.ascii	"u\252:3[:\267c\216\251\332\234?+\013\036\374\005B\250"
 400      5B3AB763 
 400      8EA9DA9C 
 400      3F2B0B1E 
 400      FC0542A8 
 401 024b DA26     		.ascii	"\332&"
 402              		.text
 403              		.section	.gnu.lto_test_emit_token.1bd75f5614113f08,"",%progbits
 404 0000 789C8D91 		.ascii	"x\234\215\221Ah\023Q\020\206g\336\3566\245I\261\342"
 404      41681351 
 404      108667DE 
 404      EE36A549 
 404      B1E2
 405 0012 499026F4 		.ascii	"I\220&\364\242 \315\032\017\342Q\351\251\207\\l\213"
 405      A220CD1A 
 405      0FE251E9 
 405      A9875C6C 
 405      8B
 406 0023 7A0A71BB 		.ascii	"z\012q\2734\213\331l\310\256R\361\320\227\246\007!\240"
 406      348BD96C 
 406      C8AE52F1 
 406      D097A607 
 406      21A0
 407 0035 41148C5A 		.ascii	"A\024\214Zm\021\301\203\340Y(\030E\213mmP\351\301c0"
 407      6D11C183 
 407      E0592818 
 407      458B6D6D 
 407      50E9C163 
 408 004a 78120FBD 		.ascii	"x\022\017\275\005)\215\363\362\334M\264\025\034\366"
 408      05298DF3 
 408      F2DC4DB4 
 408      151CF6
 409 0059 EDCCBC9D 		.ascii	"\355\314\274\235ov\336\377\0300\370\333N\322zM\333\237"
 409      6F76DEFF 
 409      1830F8DB 
 409      4ED27A4D 
 409      DB9F
 410 006b C9A306C8 		.ascii	"\311\243\006\310*u\200b?c\312\226\016|@]\031\006\036"
 410      2A758062 
 410      3F63CA96 
 410      0E7C405D 
 410      19061E
 411 007e 515095DB 		.ascii	"QP\225\333*\242\010\000a\216)*\316]D\321\203\215\300"
 411      2AA20800 
 411      618E292A 
 411      CE5D44D1 
 411      838DC0
 412 0091 32E7B71B 		.ascii	"2\347\267\033\357\232k\254z\247\266\260\304w\332mD\013"
ARM GAS  /tmp/ccLruy2S.s 			page 32


 412      EF9A6BAC 
 412      7AA7B6B0 
 412      C477DA6D 
 412      440B
 413 00a3 E97F5104 		.ascii	"\351\177Q\004\003\341\002%\030\3538\246\3769\200dk\217"
 413      03E10225 
 413      18EB38A6 
 413      FE398064 
 413      6B8F
 414 00b5 EBB70EAF 		.ascii	"\353\267\016\257/\315W\370.\241\035\362\370\276\244"
 414      2FCD57F8 
 414      2EA11DF2 
 414      F8BEA4
 415 00c4 8D5DF405 		.ascii	"\215]\364\005\2535\332\355\225\355g_\253x(\242B\032"
 415      AB35DAED 
 415      95ED675F 
 415      AB7828A2 
 415      421A
 416 00d6 97710434 		.ascii	"\227q\0044\362O\310\207\320FQ\254\301\002\347\225\030"
 416      F24FC887 
 416      D04651AC 
 416      C102E795 
 416      18
 417 00e7 886E6493 		.ascii	"\210nd\223\364\026g\230B&\274R\207\342v\353\321*\006"
 417      F4166798 
 417      4226BC52 
 417      87E276EB 
 417      D12A06
 418 00fa 6532A87D 		.ascii	"e2\250}\277\371#|,\310\232w[\007\224 \333XmR\222\306"
 418      BFF9237C 
 418      2CC89A77 
 418      5B079420 
 418      DB586D52 
 419 0110 A7441928 		.ascii	"\247D\031(\346d\264\0249\025\302K\012;J\017\303\033"
 419      E664B414 
 419      3915C24B 
 419      0A3B4A0F 
 419      C31B
 420 0122 5CE4F7CE 		.ascii	"\\\344\367\316X\376\267M\230_\373B*It\006\325\007p\277"
 420      58FEB74D 
 420      985FFB42 
 420      2A497406 
 420      D50770BF 
 421 0136 C8F9101D 		.ascii	"\310\371\020\035\370:\374\3447D\244\312#\212\023\373"
 421      F83AFCE4 
 421      3744A4CA 
 421      238A13FB 
 422 0146 52BD87B7 		.ascii	"R\275\207\267\337\212\203\001$K\371y\242F\3419'[\244"
 422      DF8A8301 
 422      244BF979 
 422      A246E139 
 422      275BA4
 423 0159 62CD4626 		.ascii	"b\315F&\240\276\241=\227,l\212f\330\322\225M(\225K\257"
 423      A0BEA13D 
 423      972C6C8A 
 423      66D8D295 
 423      4D28954B 
ARM GAS  /tmp/ccLruy2S.s 			page 33


 424 016e 1E46FD66 		.ascii	"\036F\375f\032\365\353\210\213r\274q\371\341\177\346"
 424      1AF5EB88 
 424      8B72BC71 
 424      F9E17FE6 
 425 017e 22B8836C 		.ascii	"\"\270\203l|\034\350\205x\330\012\272\302\357\302\220"
 425      7C1CE885 
 425      78D80ABA 
 425      C2EFC290 
 426 018e 3F83DAD5 		.ascii	"?\203\332\325\2745\270W\362\335p\264G\362\362\301D\220"
 426      BC35B857 
 426      F2DD70B4 
 426      47F2F2C1 
 426      4490
 427 01a0 953F94B4 		.ascii	"\225?\224\264\256\344*-\341\373|\311\327\377)\371'("
 427      AEE42A2D 
 427      E1FB7CC9 
 427      D7FF29F9 
 427      2728
 428 01b2 36AA4725 		.ascii	"6\252G%\350\333$\335\031\315!\200#\361\270.\037\317"
 428      E8DB24DD 
 428      19CD2180 
 428      23F1B82E 
 428      1FCF
 429 01c4 743D3D6B 		.ascii	"t==k]\322\215LJ\304q\003\302\302\247<\347r>~:\322\215"
 429      5DD28D4C 
 429      4AC47103 
 429      C2C2A73C 
 429      E7723E7E 
 430 01db 13271201 		.ascii	"\023'\022\001\345\270\272\341\330\266\223\323\315YO"
 430      E5B8BAE1 
 430      D8B693D3 
 430      CD594F
 431 01ea 1F4B4E8C 		.ascii	"\037KN\214O\350V\316\310^\2316u\303v-75c\030\361\014"
 431      4FE856CE 
 431      C85E9936 
 431      75C3762D 
 431      37356318 
 432 0200 8CEE43E4 		.ascii	"\214\356C\344\235\202\347\352g\317%\307\222\263\364"
 432      9D82E7EA 
 432      67CF25C7 
 432      92B3F4
 433 020f 57C32998 		.ascii	"W\303)\230\251\253\247l\252\216\365Vg\322Yr\364\312"
 433      A9ABA76C 
 433      AA8EF556 
 433      67D25972 
 433      F4CA
 434 0221 5932A082 		.ascii	"Y2\240\202~#\357Z\3231\013B\266i;\205kr\303\244\215"
 434      7E23EF5A 
 434      D3310B42 
 434      B6693B85 
 434      6B72C3A4 
 435 0236 5F2192F4 		.ascii	"_!\222\364\026"
 435      16
 436              		.text
 437              		.section	.gnu.lto_test_emit_token_i.1bd75f5614113f08,"",%progbits
 438 0000 789C8D52 		.ascii	"x\234\215R\277KBQ\024>\347\336\253\210\031\010MA\244"
 438      BF4B4251 
ARM GAS  /tmp/ccLruy2S.s 			page 34


 438      143EE7DE 
 438      AB881908 
 438      4D41A4
 439 0013 B8B4D47B 		.ascii	"\270\264\324{XK\377B\273RMb\022%%\005\2715x\237\032"
 439      584BFF42 
 439      BB524D62 
 439      12252505 
 439      B935789F 
 440 0028 040D4938 		.ascii	"\004\015I8\364\003A\2116\261\266\226\006\207\206,\222"
 440      F4034189 
 440      36B1B696 
 440      0687862C 
 440      92
 441 0039 02B71609 		.ascii	"\002\267\026\011\202\240\271%\242\327\271\357\252\331"
 441      82A0B925 
 441      A2D7B9EF 
 441      AAD9
 442 0047 8FA1C37B 		.ascii	"\217\241\303{\357;\367\336\363}\347\273\207\307\200"
 442      EF3BF7DE 
 442      F37DE7BB 
 442      87C780
 443 0056 C1CF98A4 		.ascii	"\301\317\230\244\367\031\001\246\011\321\005\310\012"
 443      F71901A6 
 443      09D105C8 
 443      0A
 444 0063 4D00CBC3 		.ascii	"M\000\313\303\030o\231 \275\342b\024\244\217\243\320"
 444      186F9920 
 444      BDE26214 
 444      A48FA3D0 
 445 0073 DB025125 		.ascii	"\333\002Q%\200\220a\\`f\036\225\006\013AE\312\275\366"
 445      8090615C 
 445      60661E95 
 445      060B4145 
 445      CABDF6
 446 0086 D64B831D 		.ascii	"\326K\203\035\024\353\371\262|\267m\304$R\277\000B\002"
 446      14EBF9B2 
 446      7CB76DC4 
 446      2452BF00 
 446      4202
 447 0098 618E1618 		.ascii	"a\216\026\030t\200\211\357\0064\267\376\320\334\035"
 447      748089EF 
 447      0634B7FE 
 447      D0DC1D
 448 00a7 BE2E670B 		.ascii	"\276.g\013\362\203\250\016s\374Of\012\277\250\247\254"
 448      F283A80E 
 448      73FC4F66 
 448      0ABFA8A7 
 448      AC
 449 00b8 DEB6EDEA 		.ascii	"\336\266\355\352\353\331c\015\207<\034\342X\301\020"
 449      EBD9630D 
 449      873C1CE2 
 449      58C110
 450 00c7 08C26342 		.ascii	"\010\302cB7\246P\025\273 /e!\010J\215\"B_u\207(2\205"
 450      37A65015 
 450      BB202F65 
 450      21084A8D 
 450      22425F75 
ARM GAS  /tmp/ccLruy2S.s 			page 35


 451 00df FC16B28D 		.ascii	"\374\026\262\215}2\036\307\023\272\377\022\362#8\264"
 451      7D321EC7 
 451      13BAFF12 
 451      F22338B4 
 452 00ef A4F49387 		.ascii	"\244\364\223\207Mx\223\333*\343\272\2532\301;\275\257"
 452      4D7893DB 
 452      2AE3BAAB 
 452      32C13BBD 
 452      AF
 453 0100 E0F2C91A 		.ascii	"\340\362\311\032\354\221t\251\234%\326\004T%E\211\212"
 453      EC9174A9 
 453      9C25D604 
 453      54254589 
 453      8A
 454 0111 450A9922 		.ascii	"E\012\231\"\271\374\277\346\256\"Jj-\223\034\344vr\347"
 454      B9FCBFE6 
 454      AE224A6A 
 454      2D931CE4 
 454      7672E7
 455 0124 A540574C 		.ascii	"\245@WL\220\236s_\325\224\354\315\350\203\377\370\""
 455      909E735F 
 455      D594ECCD 
 455      E883FFF8 
 455      22
 456 0135 B243B9B9 		.ascii	"\262C\271\271\363\366\223\344@\262\247\012\235Bw\327"
 456      F3F693E4 
 456      40B2A70A 
 456      9D4277D7 
 457 0145 8370C670 		.ascii	"\203p\306p\017V\2736\246I\335\210\320\374\350L\3754"
 457      0F56BB36 
 457      A649DD88 
 457      D0FCE84C 
 457      FD34
 458 0157 238661EA 		.ascii	"#\206a\352'\275\270\2216W\223\013fb9\246r#\001>\205"
 458      27BDB891 
 458      3657930B 
 458      666239A6 
 458      7223013E 
 459 016c B1F4DACA 		.ascii	"\261\364\332\312\272\021\016\367/\246>\001\005\350\211"
 459      BA110EF7 
 459      2FA63E01 
 459      05E889
 460 017b E8       		.ascii	"\350"
 461              		.text
 462              		.section	.gnu.lto_test_execute.1bd75f5614113f08,"",%progbits
 463 0000 789CED9A 		.ascii	"x\234\355\232itTE\026\307\353\276\316\322Y \020\262"
 463      69745445 
 463      16C7EBBE 
 463      CED25920 
 463      10B2
 464 0012 90403A9D 		.ascii	"\220@:\235@ \013\351,\200\010\216\3430,\212\262\207"
 464      40200BE9 
 464      2C80088E 
 464      E3302C8A 
 464      B287
 465 0024 28ABD884 		.ascii	"(\253\330\204\346\321\230\005I@\020\225\206$,\001\004"
 465      E6D19805 
ARM GAS  /tmp/ccLruy2S.s 			page 36


 465      49401095 
 465      86242C01 
 465      04
 466 0035 51167546 		.ascii	"Q\026uF\005D\006<\212\302(  \351AG\031@\216\2163#\240"
 466      0544063C 
 466      8AC22820 
 466      20E94147 
 466      19408E8E 
 467 004c 67E28ACE 		.ascii	"g\342\212\316\361\250G\3740\243s\314\334\252[\357\365"
 467      F1A847FC 
 467      30A373CC 
 467      DCAA5BEF 
 467      F5
 468 005d 7BFD5E62 		.ascii	"{\375^b\202_\346\0039\234\256\252[\377{\353U\325\257"
 468      825FE603 
 468      399CAEAA 
 468      5BFF7BEB 
 468      55D5AF
 469 0070 AAEB55A3 		.ascii	"\252\353U\2430\205\205\377\225\243)\263\200\261\327"
 469      308585FF 
 469      95A329B3 
 469      80B1D7
 470 007f 813118C8 		.ascii	"\2011\030\310@\331\3746c+\235\012DP\306A\231\2403Bq"
 470      40D9FC36 
 470      632B9D0A 
 470      4450C641 
 470      99A03342 
 471 0094 6C7893B1 		.ascii	"lx\223\261@ldC4\013\304GB4\011\242(\023tF+Q$p\012\201"
 471      406C6443 
 471      340BC447 
 471      423409A2 
 471      28137446 
 472 00ae 13624910 		.ascii	"\023bI\020C\231\2403V\211!A\234\020\304A>\011\342\241"
 472      4399A033 
 472      56892141 
 472      9C10C441 
 472      3E09E2A1 
 473 00c2 2B65BA50 		.ascii	"+e\272P&\350\354\252t!e\202P&@w\022t\243L\320\331]\351"
 473      26E8ECAA 
 473      74216582 
 473      50264077 
 473      1274A34C 
 474 00da 46824421 		.ascii	"F\202D!H\204$\022\364\240L\320\231\244\364 A\262\020"
 474      48842412 
 474      F4A04CD0 
 474      99A4F420 
 474      41B210
 475 00ed 24432A09 		.ascii	"$C*\011R(\023t\246*)$\350)\004=\225\264\343C\260\324"
 475      52281374 
 475      A62A2924 
 475      E829043D 
 475      95B4E343 
 476 0103 EFBD142C 		.ascii	"\357\275\024,\245A/\256\202tJ\203\316^J:\251{\013uo"
 476      A5412FAE 
 476      82744A83 
 476      CE5E4A3A 
 476      A97B0B75 
ARM GAS  /tmp/ccLruy2S.s 			page 37


 477 0118 7051B80C 		.ascii	"pQ\270\014\312\004\235.%\203\004\231B\220\011Y$pS&\350"
 477      CA049D2E 
 477      25830499 
 477      42900959 
 477      24705326 
 478 012d CC52DC24 		.ascii	"\314R\334$\310\026\202l\350K\202>\224\011:\373*}H\220"
 478      C816826C 
 478      E84B823E 
 478      94093AFB 
 478      2A7D4890 
 479 0141 230439D0 		.ascii	"#\0049\320\237\004\375\264L\177\310%e\256\022O\312<"
 479      9F04FDB4 
 479      4C7FC825 
 479      65AE124F 
 479      CA3C
 480 0153 A1CCA371 		.ascii	"\241\314\243q\014:\363\225\002\262\017\020\366\002\322"
 480      0C3AF395 
 480      02B20F10 
 480      F602D2
 481 0162 C300F050 		.ascii	"\303\000\360P\200B\312\004\235\036\245\220\204EBX\244"
 481      8042CA04 
 481      9D1EA590 
 481      84454258 
 481      A4
 482 0173 141F7761 		.ascii	"\024\037wa\251\344\275\",\025C)\311K\264L)\000\3170"
 482      A9E4BD22 
 482      2C154329 
 482      C94BB44C 
 482      2900CF30 
 483 0187 602B1447 		.ascii	"`+\024GDdT\2643&6.\276K\327\204n\335\023{$%\247\244"
 483      446454B4 
 483      3326362E 
 483      BE4BD784 
 483      6EDD137B 
 484 019f F64C4BEF 		.ascii	"\366LK\357\325;\303\225\351\316\312\356\3237\247_\377"
 484      D53BC395 
 484      E9CECAEE 
 484      D337A75F 
 484      FF
 485 01b0 DCBCFC82 		.ascii	"\334\274\374\202\001\205\236\242\342\222RX1\0158f\256"
 485      01859EA2 
 485      E2925258 
 485      310D3866 
 485      AE
 486 01c1 6CB63310 		.ascii	"l\2663\020\330\322\322\370\354\017\216\307\036mnx:\360"
 486      D8D2D2F8 
 486      EC0F8EC7 
 486      1E6D6E78 
 486      3AF0
 487 01d3 DFD65600 		.ascii	"\337\326V\000? \222\231\300*\200M\305\002\270E\242D"
 487      3F209299 
 487      C02A804D 
 487      C502B845 
 487      A244
 488 01e5 981925DF 		.ascii	"\230\031%\337\346\023[6\2466\265\0046\007~BW?8\024\326"
 488      E6135B36 
 488      A636B504 
ARM GAS  /tmp/ccLruy2S.s 			page 38


 488      36077E42 
 488      573F3814 
 489 01fa 37E4E924 		.ascii	"7\344\351$O\260\365|g\313\266\264\246\247Wi\236\330"
 489      4FB0F57C 
 489      67CBB6B4 
 489      A6A75769 
 489      9ED8
 490 020c E6900EB6 		.ascii	"\346\220\016\266\371\360#\307vB`u`\345\267\255\255\011"
 490      F9F023C7 
 490      76426075 
 490      60E5B7AD 
 490      AD09
 491 021e A2CD911D 		.ascii	"\242\315\221\035jss\363c\347\317@`\213\346\030\241\240"
 491      6A7373F3 
 491      63E7CF40 
 491      608BE618 
 491      A1A0
 492 0230 B6234D6E 		.ascii	"\266#Mn\016\274<\367\255@Csk\353M\302kz\007\037t\273"
 492      0EBC3CF7 
 492      AD404373 
 492      6BEB4DC2 
 492      6B7A071F 
 493 0246 A9B94885 		.ascii	"\251\271H\205\315\354\240\343\3213\177\331i\360\214"
 493      CDECA0E3 
 493      D1337FD9 
 493      69F08C
 494 0255 5298F7EA 		.ascii	"R\230\367\352\232\364\302\013\240\\]\233^x\261\243\256"
 494      9AF4C20B 
 494      A05C5D9B 
 494      5E78B1A3 
 494      AE
 495 0266 D71ABDD6 		.ascii	"\327\032\275\326\350\265F\2575\372\177\320\350\001\245"
 495      E8B546AF 
 495      35FA7FD0 
 495      E801A5
 496 0275 B9A5B5F5 		.ascii	"\271\245\265\365\370\177\376\360\311EH\332\013\200\033"
 496      F87FFEF0 
 496      C94548DA 
 496      0B801B
 497 0284 E73EC866 		.ascii	"\347>\310f|\003}\016S'T\001Kf~\210N\341\037\251h\336"
 497      7C037D0E 
 497      53275401 
 497      4B667E88 
 497      4EE11FA9 
 498 029a 89E69E58 		.ascii	"\211\346\236X`i\334\222\216\037\316\014\374\210p\341"
 498      6069DC92 
 498      8E1FCE0C 
 498      FC8870E1 
 499 02aa 474C16CF 		.ascii	"GL\026\317e\363\\\016\257\355\207\372\023\250\357\317"
 499      65F35C0E 
 499      AFED87FA 
 499      13A8EFCF 
 500 02ba 0BB95C9A 		.ascii	"\013\271\\\232\207\226ch)\344\026\217l\245\210\027\212"
 500      87966368 
 500      29E4168F 
 500      6CA58817 
 500      8A
ARM GAS  /tmp/ccLruy2S.s 			page 39


 501 02cb 7975295A 		.ascii	"yu)Zv\243e\020\246{0\035\212\351)Lo\224\3175\034\323"
 501      76A36510 
 501      A67B301D 
 501      8AE9294C 
 501      6F94CF35 
 502 02e1 BD988E94 		.ascii	"\275\230\216\224\351(t\212\035\215\205\003X\270\031"
 502      E928748A 
 502      1D8D8503 
 502      58B819
 503 02f0 0B71B7E0 		.ascii	"\013q\267\340G\374\030\264<\217\226[ez\033\032\273\214"
 503      47FC18B4 
 503      3C8F965B 
 503      657A1B1A 
 503      BB8C
 504 0302 C5C2412C 		.ascii	"\305\302A,\214\343\262\361\\6\001-/\241e\242L'q\331"
 504      8CE3B2F1 
 504      5C36012D 
 504      2FA165A2 
 504      4C2771D9 
 505 0316 642CFC11 		.ascii	"d,\374\021\013e\\6\205\313\312\321r\010-\267\313\364"
 505      0B655C36 
 505      85CBCAD1 
 505      72082DB7 
 505      CBF4
 506 0328 0E2E9B8A 		.ascii	"\016.\233\212\205W\2600\215\313\246s\331\014\264\274"
 506      8557B030 
 506      8DCBA673 
 506      D90CB4BC 
 507 0338 8C969932 		.ascii	"\214\226\2312\235\305ewb\341\010\026fs\331]\\\346E\313"
 507      9DC56577 
 507      62E10816 
 507      6673D95D 
 507      5CE645CB 
 508 034c 61B4CC91 		.ascii	"a\264\314\221i\005\227\315\305\302\253X\360q\331<.S"
 508      690597CD 
 508      C5C2AB58 
 508      F071D93C 
 508      2E53
 509 035e D172142D 		.ascii	"\321r\024-\363e\352\347\262\005X8\216\205\273\271\254"
 509      F365EAE7 
 509      B2055838 
 509      8E85BBB9 
 509      AC
 510 036f 92CBAAE4 		.ascii	"\222\313\252\344xV\313\264\206\313\026b\3415,\334\303"
 510      7856CBB4 
 510      86CB1662 
 510      E1352CDC 
 510      C3
 511 0380 658BB8AC 		.ascii	"e\213\270\254VND\235L\027s\331\022,4c\341^.[\312e\313"
 511      564E449D 
 511      4C1773D9 
 511      122C3463 
 511      E15E2E5B 
 512 0397 D072122D 		.ascii	"\320r\022-\367\311t9\227\335\217\205?a\341\001.{\220"
 512      F7C97439 
 512      97DD8F85 
 512      3F61E101 
ARM GAS  /tmp/ccLruy2S.s 			page 40


 512      2E7B90
 513 03aa CB56A025 		.ascii	"\313V\240%\210\226\000\310\314J\340\302U\274\370:\026"
 513      889600C8 
 513      CC4AE0C2 
 513      55BCF83A 
 513      16
 514 03bb EB7931AE 		.ascii	"\353y1\256\201\177\3067\202\234\302\325Zf\215\020\257"
 514      817FC637 
 514      829CC2D5 
 514      5A668D10 
 514      AF
 515 03cc E5C53F63 		.ascii	"\345\305?cq\235\0207\011\361zn|\003\215\033\264\314"
 515      719D1037 
 515      09F17A6E 
 515      7C038D1B 
 515      B4CC
 516 03de 46214650 		.ascii	"F!FP#Y\003\036,\334\204\001a\3038\333\3707\005?cX9\262"
 516      2359031E 
 516      2CDC8401 
 516      61C338DB 
 516      F837053F 
 517 03f6 1EE338C7 		.ascii	"\036\3438\307V\235y\377\312G\340\2057!\222=\301\036"
 517      569D79FF 
 517      CA47E085 
 517      3721923D 
 517      C11E
 518 0408 5F190874 		.ascii	"_\031\010t\303\265\260\234\375\020X\313s]\253\200;\361"
 518      C3B5B09C 
 518      FD1058CB 
 518      735DAB80 
 518      3BF1
 519 041a B5D055AC 		.ascii	"\265\320U\254\000\025\217@\354<kh9\1779\232\274\030"
 519      00158F40 
 519      EC3C6B68 
 519      397F399A 
 519      BC18
 520 042c D3D50915 		.ascii	"\323\325\011\025@'#n\331\021\010L\362C7\027\253\374"
 520      4027236E 
 520      D911084C 
 520      F2433717 
 520      ABFC
 521 043e 7D60C76F 		.ascii	"}`\307o\374\320\235I\275\037\022)\304\205\216\205\350"
 521      FCD09D49 
 521      BD1F1229 
 521      C4858E85 
 521      E8
 522 044f E162D514 		.ascii	"\341b\325\024\"\311\022\342\303\216\205Hv\261&\240\030"
 522      22C912E2 
 522      C38E8548 
 522      76B126A0 
 522      18
 523 0460 29A618A7 		.ascii	")\246\030\247\331\252\346L2\020\373\344\323|b\023n\011"
 523      D9AAE64C 
 523      3210FBE4 
 523      D37C6213 
 523      6E09
 524 0472 A92EB649 		.ascii	"\251.\266Iz\365\324\274\350\257\034\034\354\002\343"
ARM GAS  /tmp/ccLruy2S.s 			page 41


 524      7AF5D4BC 
 524      E8AF1C1C 
 524      EC02E3
 525 0481 C3777AC7 		.ascii	"\303wz\307\341<9\330\332\250\007~|2\203\2021\351U\001"
 525      E13C39D8 
 525      DAA8077E 
 525      7C328382 
 525      31E95501 
 526 0495 0A8DDDE8 		.ascii	"\012\215\335\350\216\0141c\030\367\"\306\365\302\337"
 526      8E0C3163 
 526      18F722C6 
 526      F5C2DF
 527 04a4 D059859B 		.ascii	"\320Y\205\233\013X>N\272\356\233\206\201\270<J\210\347"
 527      0B583E4E 
 527      BAEE9B86 
 527      81B83C4A 
 527      88E7
 528 04b6 8068E7EF 		.ascii	"\200h\347\357\364t\350:]\363\273\245\200\355\347\372"
 528      F474E83A 
 528      5DF3BBA5 
 528      80EDE7FA 
 529 04c6 74DDB317 		.ascii	"t\335\263\027\006\343\236q\322\023L\236\365\353\035"
 529      06E39E71 
 529      D2134C9E 
 529      F5EB1D
 530 04d5 9AEBAD2A 		.ascii	"\232\353\255*\214\321O\272\247\231Bv\352\025\326\362"
 530      8CD14FBA 
 530      A7994276 
 530      EA15D6F2 
 531 04e5 C18F241B 		.ascii	"\301\217$\033\357\326-\242o*\334\346\207\336\332\000"
 531      EFD62DA2 
 531      6F2ADCE6 
 531      87DEDA00 
 532 04f5 45B08F99 		.ascii	"E\260\217\231\003\207\327\311t\2671\342\361^m\374f["
 532      0387D7C9 
 532      74B731E2 
 532      F15E6DFC 
 532      665B
 533 0507 BAD6CE6D 		.ascii	"\272\326\316m\372\243e\310\026\2651~\2135|\265r\240"
 533      FAA365C8 
 533      16B5317E 
 533      8B357CB5 
 533      72A0
 534 0519 AEE355AE 		.ascii	"\256\343U\256\320F|\201\2151\315\224\027\336\303j9G"
 534      D0467C81 
 534      8D31CD94 
 534      17DEC36A 
 534      3947
 535 052b 0AE0233A 		.ascii	"\012\340#:\316^J\342\317\021\211\230sR\376\331\001R"
 535      CE5E4AE2 
 535      CF118998 
 535      7352FED9 
 535      0152
 536 053d 1C7EC874 		.ascii	"\034~\310t\261\335r\316\335m\223\362R\210\224\277JR"
 536      B1DD72CE 
 536      DD6D93F2 
 536      528894BF 
ARM GAS  /tmp/ccLruy2S.s 			page 42


 536      4A52
 537 054f 8EB5454A 		.ascii	"\216\265EJT;\244\354}*\203\202YH\031\333IR>\025\303"
 537      543BA4EC 
 537      7D2A8382 
 537      594819DB 
 537      49523E15 
 538 0564 34CE4ACA 		.ascii	"4\316J\312X\013)\237\031I!\277\361v\244\214\263\220"
 538      580B299F 
 538      194921BF 
 538      F176A48C 
 538      B390
 539 0576 F2998914 		.ascii	"\362\231\211\024r\235\250\302\0043)\237\352C\204\265"
 539      729DA8C2 
 539      0433299F 
 539      EA4384B5 
 540 0586 92944F25 		.ascii	"\222\224O%)\343E\337T\230d %\332H\012\271M0\222B\355"
 540      29E345DF 
 540      54986420 
 540      25DA480A 
 540      B94D3092 
 541 059c 4C329232 		.ascii	"L2\2222\301\216\024\251\263\2202\3014S^\370$DJ$\222"
 541      C18E14A9 
 541      B39032C1 
 541      34535EF8 
 541      24444A24 
 542 05b1 32314A92 		.ascii	"21J\222\342\224\244\374\253c{J\226\213\235\227s\236"
 542      E294A4FC 
 542      AB637B4A 
 542      968B9D97 
 542      739E
 543 05c3 DD362987 		.ascii	"\3356)\207B\244\\\222\244\264\266EJL;\244\034\346\244"
 543      42A45C92 
 543      A4B4B645 
 543      4A4C3BA4 
 543      1CE6A4
 544 05d6 1CB22365 		.ascii	"\034\262#er'I\271\"\206\251\314J\312d\013)\337\033I"
 544      722749B9 
 544      2286A9CC 
 544      4ACA640B 
 544      29DF1B49 
 545 05ea 21BF2976 		.ascii	"!\277)v\244\224YH\371\336D\012\271\336\256B\271\231"
 545      A4945948 
 545      F9DE440A 
 545      B9DEAE42 
 545      B999
 546 05fc 942BFA10 		.ascii	"\224+\372\020a\255$\345\212$e\212\350\233\012w\030H"
 546      61AD24E5 
 546      8A24658A 
 546      E89B0A77 
 546      1848
 547 060e 89359242 		.ascii	"\2115\222Bn\345FR\250\235;\214\244\224\333\221\"u\026"
 547      6EE54652 
 547      A89D3B8C 
 547      A494DB91 
 547      227516
 548 0621 52CA4D33 		.ascii	"R\312M3\345\205\357B\2448\221\224\333c$)q\222\224\257"
 548      E585EF42 
ARM GAS  /tmp/ccLruy2S.s 			page 43


 548      A4389194 
 548      DB632429 
 548      719294AF 
 549 0635 3B464A1F 		.ascii	";FJ\037\027{D\2419\357k\371\006\373\361\227}\217b\347"
 549      177B44A1 
 549      39EF6BF9 
 549      06FBF197 
 549      7D8F62E7 
 550 0649 8F1C69FD 		.ascii	"\217\034i\375H\011\373\006w\350\261r\252\004(\274\257"
 550      4809FB06 
 550      77E8B172 
 550      AA0428BC 
 550      AF
 551 065a 392226CF 		.ascii	"9\"&\3179\230\230\202U-?\355\005\215T~R\340u\372\221"
 551      39989882 
 551      552D3FED 
 551      058D547E 
 551      52E075FA 
 552 066f B71CE259 		.ascii	"\267\034\342YC4v\264\276\245i_\254\345!\373UP\030|\216"
 552      433476B4 
 552      BEA5695F 
 552      ACE521FB 
 552      5550187C 
 553 0684 FE723E29 		.ascii	"\376r>)\320\313!\344\267oI\366C\256\213\355\223\335"
 553      D0CB21E4 
 553      B76F49F6 
 553      43AE8BED 
 553      93DD
 554 0696 CF0B47BE 		.ascii	"\317\013G\276\013\333\360f\233\314\037x&\217\242Y\230"
 554      0BDBF066 
 554      9BCC1F78 
 554      268FA259 
 554      98
 555 06a7 9FDA49E6 		.ascii	"\237\332I\346\327*|\302\247Y\231\237ja~\235b`\236\374"
 555      D72A7CC2 
 555      A759999F 
 555      6A617E9D 
 555      62609EFC 
 556 06bb A6DB313F 		.ascii	"\246\3331?\315\302\274\356)\230'\327\231*\31403\317"
 556      CDC2BCEE 
 556      299827D7 
 556      992ACC30 
 556      33CF
 557 06cd EDD42BAC 		.ascii	"\355\324+\254\225\314\257U\210\371\351\242o*\31420\337"
 557      95CCAF55 
 557      88F9E9A2 
 557      6F2ACC32 
 557      30DF
 558 06df 956D7E3B 		.ascii	"\225m~;\004=\371\3150BO\015\3152B?\303\016z\251\263"
 558      043DF9CD 
 558      30424F0D 
 558      CD32423F 
 558      C30E7AA9 
 559 06f4 403FC334 		.ascii	"@?\3034W^X\243\350\320\307#\3643\273H\350\0238\014\330"
 559      575E58A3 
 559      E8D0C723 
 559      F433BB48 
ARM GAS  /tmp/ccLruy2S.s 			page 44


 559      E813380C 
 560 0709 B9B5F587 		.ascii	"\271\265\365\207\236)$\201\312\033\003\001\015\320\230"
 560      9E292481 
 560      CA1B0301 
 560      0DD098
 561 0718 7D5DBF1F 		.ascii	"}]\277\037\264:\027V\363\016FX\320\311\257\220\224\241"
 561      B43A1756 
 561      F30E4658 
 561      D0C9AF90 
 561      94A1
 562 072a C80F0526 		.ascii	"\310\017\005&z\016\207\350y<\321\017\003\\\354\250\204"
 562      7A0E87E8 
 562      793CD10F 
 562      035CECA8 
 562      84
 563 073b A7301C9E 		.ascii	"\2470\034\236n\355\301s\230\303s\330\016\236;;\011\317"
 563      6EEDC173 
 563      98C373D8 
 563      0E9E3B3B 
 563      09CF
 564 074d 563170B3 		.ascii	"V1p\263\255\360\334i\201g\233\021\036\362\273\313\016"
 564      ADF0DC69 
 564      81679B11 
 564      1EF2BBCB 
 564      0E
 565 075e 9ED91678 		.ascii	"\236\331\026x\266\231\340!\3279*x\315\360lU\264!\302"
 565      B699E021 
 565      D7392A78 
 565      CDF06C55 
 565      B421C2
 566 0771 5A09CF56 		.ascii	"Z\011\317V\011\317]\242o*T\030\340\351n\202\207\374"
 566      09CF5DA2 
 566      6F2A5418 
 566      E0E96E82 
 566      87FC
 567 0783 BC4678A8 		.ascii	"\274Fx\250\241\012#<^;x\244\316\002\217WN\325\023\034"
 567      A10A233C 
 567      5E3B78A4 
 567      CE028F57 
 567      4ED5131C 
 568 0797 9E015E78 		.ascii	"\236\001^x4\004O\002\3023\247\233\204'Q\207\347X\010"
 568      34044F02 
 568      C233A79B 
 568      84275187 
 568      E75808
 569 07aa 9E2C1594 		.ascii	"\236,\025\224\266\340\311\306\352\237\205';\034\236"
 569      B6E0C9C6 
 569      EA9F8527 
 569      3B1C9E
 570 07b9 A321789E 		.ascii	"\243!x\236Dx<.v\\\302S\024\016O\217\366\3409\311\341"
 570      44783C2E 
 570      765CC253 
 570      140E4F8F 
 570      F6E039C9 
 571 07ce 396A     		.ascii	"9j"
 572 07d0 07CFDC4E 		.ascii	"\007\317\334N\302\263K\014\234\317\012\317\\\013<\273"
 572      C2B34B0C 
ARM GAS  /tmp/ccLruy2S.s 			page 45


 572      9CCF0ACF 
 572      5C0B3CBB 
 573 07e0 8DF090DF 		.ascii	"\215\360\220\337<;x|\026xv\233\340!\327\371*\250fxv"
 573      3C3B787C 
 573      1678769B 
 573      E021D7F9 
 573      2AA86678 
 574 07f5 29DA1061 		.ascii	")\332\020a\255\204g\227\204g\236\350\233\012~\003<I"
 574      AD846797 
 574      84679EE8 
 574      9B0A7E03 
 574      3C49
 575 0807 2678C84F 		.ascii	"&x\310O5\302C\015\371\215\360\250v\360H\235\005\036"
 575      35C2430D 
 575      F98DF0A8 
 575      76F0489D 
 575      051E
 576 0819 554ED553 		.ascii	"UN\325S\034\036\217\027v\206\340IDx\346\367\220\360"
 576      1C1E8F17 
 576      7686E049 
 576      4478E6F7 
 576      90F0
 577 082b 24133CAB 		.ascii	"$\023<\253>\330\361\354\307\016\015\220\234B6\300\017"
 577      3ED8F1EC 
 577      C70E0D90 
 577      9C4236C0 
 577      0F
 578 083c D17AE3C5 		.ascii	"\321z\343\305\372t\224T\211/&\336\\\211\004%t_\317\307"
 578      FA749454 
 578      892F26DE 
 578      5C890425 
 578      745FCFC7 
 579 0850 A8FE271D 		.ascii	"\250\376'\035\263\376\030H\305\223\230\350U\244f\315"
 579      B3FE1848 
 579      C59398E8 
 579      55A466CD 
 580 0860 C5A8E85D 		.ascii	"\305\250\350]\212\365<J\264aR_\214\325Dyrn\006\322#"
 580      8AF53C4A 
 580      B461525F 
 580      8CD54479 
 580      726E06D2 
 581 0875 04B6A272 		.ascii	"\004\266\242r\020\372r\217R9;\332\217o\374H\230\247"
 581      10FA728F 
 581      52393BDA 
 581      8F6FFC48 
 581      98A7
 582 0887 417A4C8C 		.ascii	"AzL\214d\2366\314)\355\201\370\011\007\361\230\035\210"
 582      649E36CC 
 582      29ED81F8 
 582      0907F198 
 582      1D88
 583 0899 0B3A09E2 		.ascii	"\013:\011\342A1\011w[A\\`\001\361\220\021D\362\253\264"
 583      41310977 
 583      5B415C60 
 583      01F19011 
 583      44F2ABB4 
 584 08ad 03F16E0B 		.ascii	"\003\361n\013\210\207L \222k\265\012Uf\020\017*\241"
ARM GAS  /tmp/ccLruy2S.s 			page 46


 584      88874C20 
 584      926BB50A 
 584      5566100F 
 584      2AA1
 585 08bf 61A89620 		.ascii	"a\250\226 \036\224 V\212\276\251Pc\0001\325\004\"\371"
 585      1E942056 
 585      8ABEA950 
 585      630031D5 
 585      0422F9
 586 08d2 551941A4 		.ascii	"U\031A\244\206j\214 V\331\201(u\026\020\253p:\222\221"
 586      866A8C20 
 586      56D98128 
 586      751610AB 
 586      703A9291 
 587 08e6 B8EA1449 		.ascii	"\270\352\024I\\O:\3704\264<\366\245\365\340\023~:\233"
 587      5C4F3AF8 
 587      34B43CF6 
 587      A5F5E013 
 587      7E3A9B
 588 08f9 26BEA59A 		.ascii	"&\276\245\232\303\277\245\364w\201\0022\330^X\016V\330"
 588      C3BFA5F4 
 588      77810232 
 588      D85E580E 
 588      56D8
 589 090b 29E5E77E 		.ascii	")\345\347~|\341\266\230\267x\233\370H\337\356X\177x"
 589      7CE1B698 
 589      B7789BF8 
 589      48DFEE58 
 589      7F78
 590 091d 63461827 		.ascii	"cF\030'\315g\316\325y\3415\305\310\211\354\274\376\330"
 590      CD67CED5 
 590      79E135C5 
 590      C889ECBC 
 590      FED8
 591 092f D755F03B 		.ascii	"\327U\360;\316 \315\220\026\322\017C\304@~pd\357w\372"
 591      CE20CD90 
 591      16D20F43 
 591      C4407E70 
 591      64EF77FA 
 592 0943 D22AFC05 		.ascii	"\322*\374\005K\353YE\213R\204\201\364\245\325\370\202"
 592      4BEB5945 
 592      8B528481 
 592      F4A5D5F8 
 592      82
 593 0954 BEE48AF5 		.ascii	"\276\344\212\365\305Ud\\\\v[\375\365\025\262\032\275"
 593      C555645C 
 593      5C765BFD 
 593      F515B21A 
 593      BD
 594 0965 FC305484 		.ascii	"\3740T\204:\375\376\336w\365X\245\366\007\336\010f<"
 594      3AFDFEDE 
 594      77F558A5 
 594      F607DE08 
 594      663C
 595 0977 F0D2FC87 		.ascii	"\360\322\374\207|\364\003\260\366W\016i\2545\302\301"
 595      7CF403B0 
 595      F6570E69 
ARM GAS  /tmp/ccLruy2S.s 			page 47


 595      AC35C2C1 
 596 0987 49E827B7 		.ascii	"I\350'\267\244\223[R\304]\300\227J\330]@O\340\372tv"
 596      A4935B52 
 596      C45DC097 
 596      4AD85D40 
 596      4FE0FA74 
 597 099c A2B4AD25 		.ascii	"\242\264\255%\333\372L\001\335\032Z\226\354\302N.\331"
 597      DBFA4C01 
 597      DD1A5A96 
 597      ECC24E2E 
 597      D9
 598 09ad B302D77B 		.ascii	"\263\002\327{\254Kv\241e\311\2363.Y\362[d\267d\357\261"
 598      AC4B76A1 
 598      65C99E33 
 598      2E59F25B 
 598      64B764EF 
 599 09c2 2CD973A6 		.ascii	",\331s\246%K\256u*\324\232\227\354Y\261dO\210\245W'"
 599      254BAE75 
 599      2AD49A97 
 599      EC59B164 
 599      4F88A557 
 600 09d7 97EC59B9 		.ascii	"\227\354Y\271d\027\211\276\251\260\330\260d{\261\343"
 600      641789BE 
 600      A9B0D8B0 
 600      647BB1E3 
 601 09e7 43405BB1 		.ascii	"C@[\261\344Vk\\\261\324\316b\343\212\255\265[\261Rg"
 601      E4566B5C 
 601      B1D4CE62 
 601      E38AADB5 
 601      5BB15267 
 602 09fb 59B1B52A 		.ascii	"Y\261\265*\364K\303\025[\227.Wlo>\203bF\366\177\254"
 602      F44BC315 
 602      5B972E57 
 602      6C6F3E83 
 602      6246F67F 
 603 0a10 2338488F 		.ascii	"#8H\217\037bjX\225h\204G\034\326\016z\206S\306\240\360"
 603      1F626A58 
 603      95688447 
 603      1CD60E7A 
 603      8653C6A0 
 604 0a25 53C6C9D0 		.ascii	"S\306\311\320)\343]:e\254t\264q\312\310h\007\224\275"
 604      29E35D3A 
 604      65AC74B4 
 604      71CAC868 
 604      0794BD
 605 0a38 7B0A2896 		.ascii	"{\012(\226\005\224%\235\004\345\242\030\245{\255\240"
 605      0594259D 
 605      04E5A218 
 605      A57BADA0 
 606 0a48 2CB18072 		.ascii	",\261\200r\311\010\012\371-\265\003\345^\013(\227L\240"
 606      C9080AF9 
 606      2DB503E5 
 606      5E0B2897 
 606      4CA0
 607 0a5a 90EB7D2A 		.ascii	"\220\353}*,3\203rQ\321F\010k%(\027%(KE\337TXn\000\005"
 607      2C338372 
 607      51D14608 
ARM GAS  /tmp/ccLruy2S.s 			page 48


 607      6B252817 
 607      25284B45 
 608 0a74 4F6843F4 		.ascii	"OhC\364\255\235\334\226\031A\241v\226\033AYf\007\212"
 608      AD9DDC96 
 608      1941A176 
 608      961B4159 
 608      66078A
 609 0a87 D4594059 		.ascii	"\324Y@Y\246]\376\360\005\215g\214\013\2413Fo\344\347"
 609      A65DFEF0 
 609      058D678C 
 609      0BA13346 
 609      6FE4E7
 610 0a9a BE0CC94F 		.ascii	"\276\014\311O&\347\207\277\352\356\337\027g\367\252"
 610      26E787BF 
 610      EAEEDF17 
 610      67F7AA
 611 0aa9 EB14F1C2 		.ascii	"\353\024\361\302_u\203!\022\376\301\033Hv\261FG\330"
 611      5F758321 
 611      12FEC11B 
 611      4876B146 
 611      47D8
 612 0abb 3DB3D653 		.ascii	"=\263\326Sw;(\034\340(\004\355P\270\277\223(\\\026\343"
 612      773B281C 
 612      E02804ED 
 612      50B8BF93 
 612      285C16E3 
 613 0acf F0801585 		.ascii	"\360\200\025\205\373-(|aD\201\374\036\264C\341\001\013"
 613      FB2D287C 
 613      614481FC 
 613      1EB443E1 
 613      010B
 614 0ae1 0A5F9850 		.ascii	"\012_\230P \327\000\216\346\0123\013\227\025m\214x\265"
 614      20D7008E 
 614      E60A330B 
 614      97156D8C 
 614      78B5
 615 0af3 84E1B284 		.ascii	"\204\341\262\204\341A\321;\025V\202\201\206,#\015\344"
 615      E141D13B 
 615      15568281 
 615      862C230D 
 615      E4
 616 0b04 B8C24803 		.ascii	"\270\302H\0035\265\022\2148\254\260\303A\023ZxXa\232"
 616      35B5128C 
 616      38ACB0C3 
 616      41135A78 
 616      58619A
 617 0b17 2E2F7C1E 		.ascii	"./|\036\342!\023\370c\272%\020\331\372\206\362\334E"
 617      E22113F8 
 617      63BA2510 
 617      D9FA86F2 
 617      DC45
 618 0b29 7D4319AA 		.ascii	"}C\031\2527\034\251\317\306\015UbXyK7\310f\014\204\234"
 618      371CA9CF 
 618      C60D5562 
 618      58794B37 
 618      C8660C84 
 619 0b3e 129D18AA 		.ascii	"\022\235\030\252u\260O;\020\034\342\020\234\262\203"
ARM GAS  /tmp/ccLruy2S.s 			page 49


 619      75B04F3B 
 619      101CE210 
 619      9CB283
 620 0b4d 60157492 		.ascii	"`\025t\222\202+\242\373\365`\305`\025Xo\371\214\034"
 620      822BA2FB 
 620      F560C560 
 620      15586FF9 
 620      8C1C
 621 0b5f 906703D8 		.ascii	"\220g\003\330\201P\017\326{>\023\011\344\274\032\307"
 621      81500FD6 
 621      7B3E1309 
 621      E4BC1AC7 
 622 0b6f B111C26E 		.ascii	"\261\021\302n\372\224\320`\254\326P\270\"Qh\000\352"
 622      FA94D060 
 622      ACD650B8 
 622      22516800 
 622      EA
 623 0b80 A40A6B8C 		.ascii	"\244\012k\2140\3645\302@\256\215`\272\356\023\315\255"
 623      30F435C2 
 623      40AE8D60 
 623      BAEE13CD 
 623      AD
 624 0b91 31D1400D 		.ascii	"1\321@\015[.\374\244\322\202C#6:4\033\370C\365\221\023"
 624      5B2EFCA4 
 624      D2824323 
 624      363A341B 
 624      F843F591 
 625 0ba6 9F433B41 		.ascii	"\237C;AC\313\3636;A\370\331o\226\330\376\233\302\267"
 625      43CBF336 
 625      3B41F8D9 
 625      6F96D8FE 
 625      9BC2B7
 626 0bb9 7F71F6A3 		.ascii	"\177q\366\243^\364c\215\212\010w\244c\341~\345b\017"
 626      5EF4638D 
 626      8A0877A4 
 626      63E17EE5 
 626      620F
 627 0bcb C97037DA 		.ascii	"\311p7\332\204\353\317O\246\374\346\356\350\272(\215"
 627      84EBCF4F 
 627      A6FCE6EE 
 627      E8BA288D 
 628 0bdb B1E7C4D8 		.ascii	"\261\347\304\330di\222\\\366a\264\376\335Ku\212<\344"
 628      6469925C 
 628      F661B4FE 
 628      DD4B758A 
 628      3CE4
 629 0bed EDFA4E47 		.ascii	"\355\372NG9\345j\017y\370\232\376\271~\230J\225\261"
 629      39E56A0F 
 629      79F89AFE 
 629      B97E984A 
 629      95B1
 630 0bff EB9BF4D3 		.ascii	"\353\233\364\323cO\264r_\026\021\002\203j\020\277\024"
 630      634FB472 
 630      5F161102 
 630      836A10BF 
 630      14
 631 0c10 EBCB56BA 		.ascii	"\353\313V\272~\036L3\236\007\305\324\015\321E\241\267"
ARM GAS  /tmp/ccLruy2S.s 			page 50


 631      7E1E4C33 
 631      9E07C5D4 
 631      0DD145A1 
 631      B7
 632 0c21 2A39738A 		.ascii	"*9s\212\012\236\002\234\270\254\376\277\333\356\345"
 632      0A9E029C 
 632      B8ACFEBF 
 632      DBEEE5
 633 0c30 DDCEA3DB 		.ascii	"\335\316\243\333\363\372\265\365\337\354\211\322\374"
 633      F3FAB5F5 
 633      DFEC89D2 
 633      FC
 634 0c3d 6E34DE4F 		.ascii	"n4\336O\031\226\345>1,7jC\226o\274X\246:\"\355\203\177"
 634      1996E53E 
 634      312C376A 
 634      43966FBC 
 634      58A63A22 
 635 0c54 EB77AB2A 		.ascii	"\353w\253*$_\335\220i\020\312 \306N\212\236\200\274"
 635      245FDD90 
 635      6910CA20 
 635      C64E8A9E 
 635      80BC
 636 0c66 758DFBAA 		.ascii	"u\215\373\2525\011\237)\357\370\3664\376L\005\274?\274"
 636      35099F29 
 636      EFF8F634 
 636      FE4C05BC 
 636      3FBC
 637 0c78 DE23EBF3 		.ascii	"\336#\353\3637<\234\301+\006\210\333\347\372\226\023"
 637      373C9CC1 
 637      2B0688DB 
 637      E7FA9613 
 638 0c88 FBAC37C7 		.ascii	"\373\2547\307\346KY\216\335k_\376\242\373e\323\217\031"
 638      E64B598E 
 638      DD6B5FFE 
 638      A2FB65D3 
 638      8F19
 639 0c9a 6F84BEEE 		.ascii	"o\204\276\356Z\267$\210\233\335\335\2166nv\013\333\371"
 639      5AB72488 
 639      9BDDDD8E 
 639      366E760B 
 639      DBF9
 640 0cac 31A3754F 		.ascii	"1\243uO\006\005\263\354tk;\273\323mr\360A]g\263\323"
 640      0605B3EC 
 640      746B3BBB 
 640      D36D72F0 
 640      415D67B3 
 641 0cc1 ADB5EE74 		.ascii	"\255\265\356t\233\035\206\235\216<\233lw\272u\326\235"
 641      9B1D869D 
 641      8E3C9B6C 
 641      77BA75D6 
 641      9D
 642 0cd2 4EF71540 		.ascii	"N\367\025@\223\363\006\344o}\330N\307k\250s\274^\356"
 642      93F306E4 
 642      6F7DD84E 
 642      C76BA873 
 642      BC5EEE
 643 0ce5 749B1CB4 		.ascii	"t\233\034\264\3235\001uR\205\215\306\235\316c\304\217"
ARM GAS  /tmp/ccLruy2S.s 			page 51


 643      D3350175 
 643      52858DC6 
 643      9DCE63C4 
 643      8F
 644 0cf6 5CD79B76 		.ascii	"\\\327\233v:jn\243i\247[o\273\323iJ\313N\267\036L3\347"
 644      3A6A6EA3 
 644      69A75B6F 
 644      BBD3694A 
 644      CB4EB71E 
 645 0d0d 85871CFA 		.ascii	"\205\207\034\3727\337\000\340\317Z(7\300\"\372\217\001"
 645      37DF00E0 
 645      CF5A2837 
 645      C022FA8F 
 645      01
 646 0d1e A7771C2C 		.ascii	"\247w\034,\325\240\035\336\221\037\026\302\336\263\206"
 646      D5A01DDE 
 646      911F16C2 
 646      DEB386
 647 0d2d DBBC6715 		.ascii	"\333\274g\0253\207\330\013O\333\374\236\020\016e\271"
 647      3387D80B 
 647      4FDBFC9E 
 647      100E65B9 
 648 0d3d 1F7EED62 		.ascii	"\037~\355b\207$_7\331\354\205%,RD;\323\341h\307\333"
 648      87245F37 
 648      D9EC8525 
 648      2C52443B 
 648      D3E168C7 
 649 0d52 89562ABB 		.ascii	"\211V*\273}\344\225\320\373\345\310\216\365[l\212]5"
 649      7DE495D0 
 649      FBE5C88E 
 649      F55B6C8A 
 649      5D35
 650 0d64 A751E8C7 		.ascii	"\247Q\350\307\330;L\2172\212TS\360\211b\270ko\217\247"
 650      D83B4C8F 
 650      328A5453 
 650      F08962B8 
 650      6B6F8FA7 
 651 0d78 88FED5F9 		.ascii	"\210\376\325\371j\353\212*\375s\212*\346\317\346yO\005"
 651      6AEB8A2A 
 651      FD738A2A 
 651      E6CFE679 
 651      4F05
 652 0d8a 8B58E029 		.ascii	"\213X\340)\031\224\310\013\263+k*\274\225\263\347y\375"
 652      1994C80B 
 652      B32B6B2A 
 652      BC95B3E7 
 652      79FD
 653 0d9c 959E92C1 		.ascii	"\225\236\222\301\361\302T[\347[\350)\271\256\207(\250"
 653      F1C2545B 
 653      E75BE829 
 653      B9AE8728 
 653      A8
 654 0dad 95357374 		.ascii	"\2255st\301\365\370<\013\"\252j\325\205\261\242\262"
 654      C1F5F83C 
 654      0B22AA6A 
 654      D585B1A2 
 654      B2
ARM GAS  /tmp/ccLruy2S.s 			page 52


 655 0dbe 62FE42CF 		.ascii	"b\376B\317``\275\362\363\363\335#\346\373\347\370'\224"
 655      6060BDF2 
 655      F3F3DD23 
 655      E6FBE7F8 
 655      2794
 656 0dd0 158D1F33 		.ascii	"\025\215\0373\326=\005+\335e\213\375u>\026\201u\254"
 656      D63D052B 
 656      DD658BFD 
 656      753E1681 
 656      75AC
 657 0de2 8710D454 		.ascii	"\207\020\324T-\364W\372\346\016s\363?\226:\276f\211"
 657      2DF457FA 
 657      E60E73F3 
 657      3F963ABE 
 657      6689
 658 0df4 DB3DD45D 		.ascii	"\333=\324]Z\\r\235\273\320]2t\330\300A\303\006\015!"
 658      5A5C729D 
 658      BBD05D32 
 658      74D8C041 
 658      C3060D21 
 659 0e08 EDC44A6F 		.ascii	"\355\304Jo\335\274\232EUR[T6e\334\300\322\321\305\203"
 659      DDBC9A45 
 659      55525B54 
 659      3665DCC0 
 659      D2D1C583 
 660 0e1c 4B965EEF 		.ascii	"K\226^\357\036U]\267h\231{\254o\211\257\322=\3167\327"
 660      1E555DB7 
 660      68997BAC 
 660      6F89AFD2 
 660      3DCE37D7 
 661 0e30 BFB8CA3D 		.ascii	"\277\270\312=\322W]\353\257[\346\236\353[\342\257\360"
 661      D2575DEB 
 661      AF5BE69E 
 661      EB5BE2AF 
 661      F0
 662 0e41 D5520CF1 		.ascii	"\325R\014\361\020\277\255\361.\022-\262\344\262)n\031"
 662      10BFADF1 
 662      2E122DB2 
 662      E4B2296E 
 662      19
 663 0e52 A670A4BF 		.ascii	"\246p\244\277\266\242f\211o\3212\226PXXH\312\021\336"
 663      B6A26689 
 663      6FD13296 
 663      50585848 
 663      CA11DE
 664 0e65 5A9F9B29 		.ascii	"Z\237\233)\036\346p\3472%\217E\324\371\253|n}\024kj"
 664      1EE670E7 
 664      32258F45 
 664      D4F9AB7C 
 664      6E7D146B 
 665 0e7a 8BE67B2B 		.ascii	"\213\346{+1\301\217j?e<\363Y*\367\237\354\253]\\Y7\314"
 665      31C18F6A 
 665      3F653CF3 
 665      592AF79F 
 665      ECAB5D5C 
 666 0e91 3D7AF898 		.ascii	"=z\370\230\261\345\223G\271s\373`\220\031,b\226;\233"
 666      B1E59347 
ARM GAS  /tmp/ccLruy2S.s 			page 53


 666      B973FB60 
 666      90192C62 
 666      963B9B
 667 0ea4 39B2F358 		.ascii	"9\262\363X\222QTV>b\304\250\2622\2260\332_\355\255t"
 667      92515456 
 667      3E62C4A8 
 667      B2329630 
 667      DA5FEDAD 
 668 0eb9 2F9266E6 		.ascii	"/\222f\346\224\336\314\251)\376\007\367\342\323\346"
 668      94DECCA9 
 668      29FE07F7 
 668      E2D3E6
 669              		.text
 670              		.section	.gnu.lto_.symbol_nodes.1bd75f5614113f08,"",%progbits
 671 0000 789C4D8F 		.ascii	"x\234M\217M/CA\024\206\337;\037-\305\325\244\211\225"
 671      4D2F4341 
 671      1486DF3B 
 671      1F2DC5D5 
 671      A48995
 672 0013 C40FF083 		.ascii	"\304\017\360\203\304\322O\360\013\216t\201D\210\270"
 672      C4D24FF0 
 672      0B8E7481 
 672      4488B8
 673 0022 090B4172 		.ascii	"\011\013Ar%$R\261\270\021\211\225\333\205\215\204E\211"
 673      252452B1 
 673      B8118995 
 673      DB858D84 
 673      4589
 674 0034 880D55F5 		.ascii	"\210\015U\365\335\252\242\022\332\230\351L\231\331<"
 674      DDAAA212 
 674      DA98E94C 
 674      99D93C
 675 0043 EF33E7CC 		.ascii	"\3573\347\314\314\031\006\206\200\301,\366\010\002\346"
 675      CC190686 
 675      80C12CF6 
 675      0802E6
 676 0052 8F01A295 		.ascii	"\217\001\242\225\3511y\017\010\342\362\016\236F\031"
 676      E931790F 
 676      08E2F20E 
 676      9E4619
 677 0061 4C813D81 		.ascii	"L\201=\201<\247\247\004\256w\237A\354\177\227\265@\374"
 677      3CA7A704 
 677      AE779F41 
 677      EC7F97B5 
 677      40FC
 678 0073 4F3DF602 		.ascii	"O=\366\002\022VW\247=y\003!\011\362\026R\037\255\200"
 678      125657A7 
 678      3D790321 
 678      09F21652 
 678      1FAD80
 679 0086 E47F9155 		.ascii	"\344\177\221UA\011G_AIGk\240.G\337@\335\216\326A)G\337"
 679      4109475F 
 679      4149476B 
 679      A02E47DF 
 679      40DD8ED6 
 680 009e 413D8E7E 		.ascii	"A=\216~\200z\035\375\004\3659C5\220P\277\227E$\325l"
 680      807A1DFD 
ARM GAS  /tmp/ccLruy2S.s 			page 54


 680      04F53943 
 680      359050BF 
 680      974524D5 
 681 00b3 DE17C837 		.ascii	"\336\027\3107\305\211\011O\000\365fuX\010\004\017\347"
 681      C589094F 
 681      00F56675 
 681      5808040F 
 681      E7
 682 00c4 9E42E1BA 		.ascii	"\236B\341\272\245\021\035\236\014\212\004\202\355\263"
 682      A5111D9E 
 682      0C8A0482 
 682      EDB3
 683 00d2 9CD49C7A 		.ascii	"\234\324\234z\036\022ID\252\310\375$\362?\203\302Gp"
 683      1E124944 
 683      AAC8FD24 
 683      F23F83C2 
 683      4770
 684 00e4 74DAE4A2 		.ascii	"t\332\344\242\037\221\276 \215\202A\244Zy&\215\360J"
 684      1F91BE20 
 684      8D8241A4 
 684      5A79268D 
 684      F04A
 685 00f6 F52AE62D 		.ascii	"\365*\346-\213\035\357\324\347\014\263\201\3656\023"
 685      8B1DEFD4 
 685      E70CB381 
 685      F53613
 686 0105 C82E96F6 		.ascii	"\310.\226\366\307y\306G\270lC\276x\220[\362\333wTL\032"
 686      C779C647 
 686      B86C43BE 
 686      78905BF2 
 686      DB77544C 
 687 011a C07AD524 		.ascii	"\300z\325$\201\360\315$\325\3278\270\334M\361\014\020"
 687      81F0CD24 
 687      D5D738B8 
 687      DC4DF10C 
 687      10
 688 012b B64C5227 		.ascii	"\266LR'6c\233\262[\361E\315\323/\344w\342&o\027;!\273"
 688      36639BB2 
 688      5BF145CD 
 688      D32FE477 
 688      E2266F17 
 689 0142 F730DA9E 		.ascii	"\3670\332\236a\357b\226\213\014\012\223\245}\251\030"
 689      61EF6296 
 689      8B0C0A93 
 689      A57DA918 
 690 0152 CD18060B 		.ascii	"\315\030\006\013\206\365%5\222\3665\303\250\254\337"
 690      86F52535 
 690      92F635C3 
 690      A8ACDF
 691 0161 D685271B 		.ascii	"\326\205'\033\242\317N\370\266!\010c\333\263aC!\212"
 691      A2CF4EF8 
 691      B6210863 
 691      DBB36143 
 691      218A
 692 0173 7323F805 		.ascii	"s#\370\005\254\332\345r"
 692      ACDAE572 
 693              		.text
ARM GAS  /tmp/ccLruy2S.s 			page 55


 694              		.section	.gnu.lto_.refs.1bd75f5614113f08,"",%progbits
 695 0000 789C2D4B 		.ascii	"x\234-K\011\022\2040\014\202\304\256\266\352z\217O\367"
 695      09128430 
 695      0C82C4AE 
 695      B6EA7A8F 
 695      4FF7
 696 0012 BBE6304C 		.ascii	"\273\3460L d@ x\220\243\000!\242\332\321\230E~\346\311"
 696      20644020 
 696      7890A300 
 696      21A2DAD1 
 696      98457EE6 
 697 0027 1ED48185 		.ascii	"\036\324\201\205\225M\307\3246\245\"r~yC\347\357\376"
 697      954DC7D4 
 697      36A52272 
 697      7E7943E7 
 697      EFFE
 698 0039 5B6B0165 		.ascii	"[k\001e\365\276n\221\022\335S\357\203D\2005\025gl1\276"
 698      F5BE6E91 
 698      12DD53EF 
 698      83448035 
 698      15676C31 
 699 004e C2B7F0FE 		.ascii	"\302\267\360\376\255\206\027\0036\002\336"
 699      AD861703 
 699      3602DE
 700              		.text
 701              		.section	.gnu.lto_.decls.1bd75f5614113f08,"",%progbits
 702 0000 789CBD5B 		.ascii	"x\234\275[\013t\024U\232\256[\325y\307\360\020\235\214"
 702      0B741455 
 702      9AAE5BD5 
 702      79C7F010 
 702      9D8C
 703 0012 BB1EE2EC 		.ascii	"\273\036\342\354<v\2315\031`g\0173g\217\203F\217x\216"
 703      3C769935 
 703      1960670F 
 703      33678F83 
 703      468F788E 
 704 0026 99F12471 		.ascii	"\231\361$q\227}\366\026\235\202\364\232t\307tGp\316"
 704      977DF616 
 704      9D82F49A 
 704      74C77447 
 704      70CE
 705 0038 D9A51220 		.ascii	"\331\245\022 \274\024\003\362\210\030cx\010\214\200"
 705      BC1403F2 
 705      88186378 
 705      088C80
 706 0047 9A8CBC89 		.ascii	"\232\214\274\211tt\010\011(Bx\030p4Q\007f\301a\0153"
 706      74740809 
 706      28427818 
 706      70345107 
 706      66C1610D 
 707 005c 7078C421 		.ascii	"px\304!\373\337GUW\335\256\333]\305\234\335:\374\267"
 707      FBDF4755 
 707      57DDAEDB 
 707      5DC59CDD 
 707      3AFCB7
 708 006f 1EB9F7FB 		.ascii	"\036\271\367\373\277\377\277\377}7\262$K\357gH\322\010"
 708      BFFFBFFF 
ARM GAS  /tmp/ccLruy2S.s 			page 56


 708      7D37B224 
 708      4BEF6748 
 708      D208
 709 0081 5CE8C770 		.ascii	"\\\350\307pO\223\244Q\222$=\000\362M\220u \353A6\203"
 709      4F93A451 
 709      92243D00 
 709      F24D9075 
 709      20EB4136 
 710 0096 6C056907 		.ascii	"l\005i\007\351\000y\033d\007\310.\220\335 \000!\355"
 710      E900791B 
 710      6407C82E 
 710      90DD2000 
 710      21ED
 711 00a8 05D907D2 		.ascii	"\005\331\007\322\011\362\016H\014\244\013\344=\220_"
 711      09F20E48 
 711      0CA40BE4 
 711      3D905F
 712 00b7 8174831C 		.ascii	"\201t\203\034\002\351\0059\014\362>\310\207\022\275"
 712      02E90539 
 712      0CF23EC8 
 712      8712BD
 713 00c6 B0CE3E90 		.ascii	"\260\316>\220S \227@\206@\256\200\014\203\370\220$\345"
 713      53209740 
 713      8640AE80 
 713      0C83F890 
 713      24E5
 714 00d8 81FC05C8 		.ascii	"\201\374\005\310\004\220\211 ?\004\371;\220\251 \317"
 714      04908920 
 714      3F04F93B 
 714      90A920CF 
 715 00e8 826442BE 		.ascii	"\202dB\276\377\204\373\\\220z\220\005 \013A\026\203"
 715      FF84FB5C 
 715      907A9005 
 715      200B4116 
 715      83
 716 00f9 2C056942 		.ascii	",\005iB\222\355\302\272\362@\036G\364\236\213m\200\347"
 716      92EDC2BA 
 716      F2401E47 
 716      F49E8B6D 
 716      80E7
 717 010b 3290FF00 		.ascii	"2\220\377\000\331\000\357+\340\376\"H\011\310J\220r"
 717      D900EF2B 
 717      E0FE2248 
 717      09C84A90 
 717      72
 718 011c 90A74056 		.ascii	"\220\247@V\201\310\360\367R\270\007A\020\303S$\252\333"
 718      81C8F0F7 
 718      52B80741 
 718      10C35324 
 718      AADB
 719 012e E061BDB0 		.ascii	"\340a\275\260]\331 G\231\036\214\201\361\261\375\253"
 719      5DD92047 
 719      991E8C81 
 719      F1B1FDAB 
 720 013e 11F5C519 		.ascii	"\021\365\305\031\220~\220\017\030\326\347 \347A~#Q}"
 720      907E900F 
 720      18D6E720 
ARM GAS  /tmp/ccLruy2S.s 			page 57


 720      E7417E23 
 720      517D
 721 0150 18630DE4 		.ascii	"\030c\015\344\365\301\375\242d\267\325za\377\215\345"
 721      F5C1FDA2 
 721      64B7D57A 
 721      61FF8DE5 
 722 0160 6C836A35 		.ascii	"l\203j5m\373G\007\273p\335b\333\326\"{\235\377\023\242"
 722      6DFB4707 
 722      BB70DD62 
 722      DBD6227B 
 722      9DFF13A2 
 723 0174 5C0C5BA7 		.ascii	"\\\014[\2473{\261\016\304|n\275\206\230_\307q~m@\224"
 723      337BB10E 
 723      C47C6EBD 
 723      86985FC7 
 723      717E6D40 
 724 0189 8FC141A4 		.ascii	"\217\301A\244\237\367\353\020\363\305\313\360\362=\224"
 724      9FF7EB10 
 724      F3C5CBF0 
 724      F23D94
 725 0198 A80FC788 		.ascii	"\250\017\307\210O\212\373q\000\356-,\017\262\374\375"
 725      4F8AFB71 
 725      00EE2D2C 
 725      0FB2FCFD 
 726 01a8 BA648F09 		.ascii	"\272d\217\011\353\205c,\235a\014Hq\336\030\317\300\222"
 726      EB85632C 
 726      9D610C48 
 726      71DE18CF 
 726      C092
 727 01ba 59BE2BCC 		.ascii	"Y\276+\314\227\030\\FbL\034\2639\314v\003\017\343\033"
 727      97185C46 
 727      624C1CB3 
 727      39CC7603 
 727      0FE31B
 728 01cd 713560C1 		.ascii	"q5`\301_\305l\225\230\255\270\354\025V\327\270]e\303"
 728      5FC56C95 
 728      98ADB8EC 
 728      1556D7B8 
 728      5D65C3
 729 01e0 3DD721AE 		.ascii	"=\327!\256\371\030\313c:\307\260rX\337+\360\334\212"
 729      F918CB63 
 729      3AC7B072 
 729      58DF2BF0 
 729      DC8A
 730 01f2 E3CCC2C3 		.ascii	"\343\314\302\303\252\033C\354`\371q\371c 'A>\0029\213"
 730      AA1B43EC 
 730      60F971F9 
 730      63202741 
 730      3E02398B 
 731 0206 E23663FF 		.ascii	"\3426c\377\334\013\357\343A\356Kb7n\243c${\354\341\272"
 731      DC0BEFE3 
 731      41EE4B62 
 731      376EA363 
 731      247BECE1 
 732 021b CF603AB0 		.ascii	"\317`:\260\375F\014`?\234\003\271,9\2673k,\310\014\333"
 732      FD460C60 
 732      3F9C03B9 
ARM GAS  /tmp/ccLruy2S.s 			page 58


 732      2C39B733 
 732      6B2CC80C 
 733 0230 88071C0B 		.ascii	"\210\007\034\013\347\035\342a\002Jl\327V\235Nz\006\231"
 733      E71DE261 
 733      024A6CD7 
 733      569D4E7A 
 733      0699
 734 0242 4F909418 		.ascii	"O\220\224\030\177\023\230\356B\007]\270\037\032\307"
 734      7F1398EE 
 734      42075DB8 
 734      1F1AC7
 735 0251 E92A63ED 		.ascii	"\351*c\355\313\350C\006\004\266\0152}n\332\233\314t"
 735      CBE84306 
 735      04B60D32 
 735      7D6EDA9B 
 735      CC74
 736 0263 195C263B 		.ascii	"\031\\&;p\371!\363\2575\336~\313b\013\363\360\261|\031"
 736      70F921F3 
 736      AF35DE7E 
 736      CB620BF3 
 736      F0B17C19 
 737 0277 2CEF0590 		.ascii	",\357\005\220\337\201|\205c\015\344\032\310M\246\033"
 737      DF817C85 
 737      630DE41A 
 737      C84DA61B 
 738 0287 C7D58F58 		.ascii	"\307\325\217X\274Y/\334\337\246s:x|\304\362\0318\017"
 738      BC592FDC 
 738      DFA6733A 
 738      787CC4F2 
 738      19380F
 739 029a 38E0E03E 		.ascii	"8\340\340>{\252D\333\221\265m\370\230\277\260?\237G"
 739      7BAA44DB 
 739      91B56DF8 
 739      98BFB03F 
 739      9F47
 740 02ac B42FC47C 		.ascii	"\264/\304|\037B\366~\031\373\363\026\212\217A\337G\361"
 740      1F42F67E 
 740      19FBF316 
 740      8A8F41DF 
 740      47F1
 741 02be 31C51863 		.ascii	"1\305\030cFXe\212\374n\214I1\211\216Q\306\230\205\333"
 741      4658658A 
 741      FC6E8C49 
 741      31898E51 
 741      C69885DB 
 742 02d2 05EEA371 		.ascii	"\005\356\243q\037,Cy\005$\015\344\333(>\276\031\365"
 742      1F2C4379 
 742      05240DE4 
 742      DB283EBE 
 742      19F5
 743 02e4 F51CF607 		.ascii	"\365\034\366\007\374m\031\366\275L\373o\334\3662\341"
 743      FC6D19F6 
 743      BD4CFB6F 
 743      DCF632E1 
 744 02f4 F9E770CF 		.ascii	"\371\347p\317\202\373i\370\226-\323\266f\214\225\306"
 744      82FB69F8 
 744      962DD3B6 
ARM GAS  /tmp/ccLruy2S.s 			page 59


 744      668C95C6 
 745 0304 186AADE7 		.ascii	"\030j\255\347O\3419\213\371\306\250k\334\307\342\230"
 745      4FE1398B 
 745      F9C6A86B 
 745      DCC7E298 
 746 0314 CF91E918 		.ascii	"\317\221\351\030\207\373\377>\346\223gX\014\3406\270"
 746      87FBFF3E 
 746      E6936758 
 746      0CE036B8 
 747 0324 94B5C726 		.ascii	"\224\265\307&\207\366\230#-\321\365\006\275\255Q\237"
 747      87F69823 
 747      2DD1F506 
 747      BDAD519F 
 748 0334 D6933746 		.ascii	"\326\2237Fj\322\341*h\316\313\222\026\341\317\203\257"
 748      6AD2E12A 
 748      68CECB92 
 748      16E1CF83 
 748      AF
 749 0345 E9F9F938 		.ascii	"\351\371\3718\310T\004\2372\311Cn\026q\320w\244\215"
 749      C854049F 
 749      32C9436E 
 749      1671D077 
 749      A48D
 750 0357 9015F2CB 		.ascii	"\220\025\362\313*\332\200\262\300\2272\007m\\\364\357"
 750      2ADA80B2 
 750      C0973207 
 750      6D5CF4EF 
 751 0367 F8C2C5E9 		.ascii	"\370\302\305\351\263\3614\202L\364|\003]a\245\326\243"
 751      B3F13482 
 751      4CF47C03 
 751      5D61A5D6 
 751      A3
 752 0378 31E48970 		.ascii	"1\344\211p\321\031E\222\203\225(0J\370X\211M\026=\271"
 752      D1194592 
 752      83952830 
 752      4AF85889 
 752      4D163DB9 
 753 038c 59F10799 		.ascii	"Y\361\007\2311\021\225[\207r\014\262\314p\252\314\271"
 753      3111955B 
 753      87720CB2 
 753      CC70AACC 
 753      B9
 754 039d 04B1BC69 		.ascii	"\004\261\274i\360\205/o\310\272\236\251\242\315\304"
 754      F0852F6F 
 754      C8BA9EA9 
 754      A2CDC4
 755 03ac FA1F2369 		.ascii	"\372\037#i\202\364\013\352\222\365\337rr\205\212\322"
 755      82F40BEA 
 755      92F5DF72 
 755      72858AD2 
 756 03bc B212DE55 		.ascii	"\262\022\336U\364:\232\300\250\245e\305\037\360|k\224"
 756      F43A9AC0 
 756      A8A565C5 
 756      1FF07C6B 
 756      94
 757 03cd 4907D743 		.ascii	"I\007\327Cs^\222\212h\032lo\334\376}Bg+\2413\023\231"
 757      735E928A 
ARM GAS  /tmp/ccLruy2S.s 			page 60


 757      681A6C6F 
 757      DCFE7D42 
 757      672BA133 
 758 03e3 D016B35C 		.ascii	"\320\026\263\\\340t.l\235Bp\336 8-\310\016\244\"\304"
 758      E0742E6C 
 758      9D4270DE 
 758      20382DC8 
 758      0EA422C4 
 759 03f7 1981EC46 		.ascii	"\031\201\354F\230\325\313j\327K^\247`l\233\332\234G"
 759      98D5CB6A 
 759      D74B5EA7 
 759      606C9BDA 
 759      9C47
 760 0409 6385919E 		.ascii	"c\205\221\236j\220\316d\240\035\236\343\344\227\202"
 760      6A90CE64 
 760      A01D9EE3 
 760      E49782
 761 0418 38C94811 		.ascii	"8\311H\021'\355\3618q\242:\230\306Q\265\371\027\003"
 761      27EDF138 
 761      71A23A98 
 761      C651B5F9 
 761      1703
 762 042a ECF04C75 		.ascii	"\354\360Lu\247\200\252\224\202\352\333\311\251\026p"
 762      A780AA94 
 762      82EADBC9 
 762      A91670
 763 0439 4CDB9001 		.ascii	"L\333\220\0010\216\001\354\366Lu\217\200\352\235)\250"
 763      308E01EC 
 763      F64C758F 
 763      80EA9D29 
 763      A8
 764 044a EE4A4E35 		.ascii	"\356JN5!\000F\333\233\265\212\366y\246\272_@\025\245"
 764      210046DB 
 764      9BB58AF6 
 764      79A6BA5F 
 764      4015A5
 765 045d A0BAD79B 		.ascii	"\240\272\327\233W\267\230^\275\213\001\274\343\231\352"
 765      57B7985E 
 765      BD8B01BC 
 765      E399EA
 766 046c 0101D571 		.ascii	"\001\001\325q)\250vz\243z]6\000\212\030@\227g\252\357"
 766      29A8767A 
 766      A37A5D36 
 766      008A1840 
 766      9767AAEF 
 767 0480 0AA816A6 		.ascii	"\012\250\026\246\240\032\363Fu\267\351\325o0\200_y\246"
 767      A01AF346 
 767      75B7E9D5 
 767      6F30805F 
 767      79A6
 768 0492 7A5040F5 		.ascii	"zP@\365\356\024T\337\363\030\253\011\000\207<S\355\021"
 768      EE1454DF 
 768      F318AB09 
 768      00873C53 
 768      ED11
 769 04a4 50555250 		.ascii	"PURP\355\366\346\325~\323\253\177\306\000\016{\246z"
 769      EDF6E6D5 
ARM GAS  /tmp/ccLruy2S.s 			page 61


 769      7ED3AB7F 
 769      C6000E7B 
 769      A67A
 770 04b6 4440F59E 		.ascii	"D@\365\236\024T{\035\250\306@\331\335\322*\246YGQ\025"
 770      14547B1D 
 770      A8C640D9 
 770      DDD22AA6 
 770      59475115 
 771 04ca 3D709710 		.ascii	"=p\227\020\341\003t7{zRI\246\313\346\011ZL\004y\024"
 771      E1037437 
 771      7B7A5249 
 771      A6CBE609 
 771      5A4C0479 
 772 04df 4859463E 		.ascii	"HYF>\313c\246\264\220\014\246\013\364z\364t\352\331"
 772      CB63A6B4 
 772      900CA60B 
 772      F47AF474 
 772      EAD9
 773 04f1 D1872813 		.ascii	"\321\207(\023\272\252MH8=\302\031\014\312\364\331x\202"
 773      BAAA4D48 
 773      383DC219 
 773      0CCAF4D9 
 773      7882
 774 0503 22E3A556 		.ascii	"\"\343\245V=64\270g\351\241\343h\371<\275G\037\302\023"
 774      3D3634B8 
 774      67E9A1E3 
 774      68F93CBD 
 774      471FC213 
 775 0517 034A5D96 		.ascii	"\003J]\226z\271\341Y\222\276+\275\206}\246o\321\025"
 775      7AB9E159 
 775      92BE2BBD 
 775      867DA66F 
 775      D115
 776 0529 E231ACA0 		.ascii	"\3421\254\240\017\215\267k<\201d\353\007\252#\266\267"
 776      0F8DB76B 
 776      3C8164EB 
 776      07AA23B6 
 776      B7
 777 053a 3BB7A97E 		.ascii	";\267\251~pdd\274{\277\237f~Whgls\357Xi9A\001\020\313"
 777      706464BC 
 777      7BBF9F66 
 777      7E576867 
 777      6C73EF58 
 778 0554 544A37E3 		.ascii	"TJ7\343l\264dN:>Yvp\"L:X\211\002av\025\235E\337\221"
 778      6CB4644E 
 778      3A3E5976 
 778      70224C3A 
 778      58890261 
 779 056e 5266C319 		.ascii	"Rf\303\031\177\215\3062\317\320\272\210\015k\005\364"
 779      7F8DC632 
 779      CFD0BA88 
 779      0D6B05F4 
 780 057e ABC479CC 		.ascii	"\253\304y\314r\335'\001\333\206\330\037\377\330\203"
 780      72DD2701 
 780      DB86D81F 
 780      FFD883
 781 058d F415B936 		.ascii	"\364\025\2716k\314\031TL8\203R\321F`\347r\272\233\340"
ARM GAS  /tmp/ccLruy2S.s 			page 62


 781      6BCC1954 
 781      4C388352 
 781      D14660E7 
 781      72BA9BE0 
 782 05a1 CA817823 		.ascii	"\312\201x#\220\245?\220z\305l\235\262\333\346\000,\203"
 782      90A53F90 
 782      7AC56C9D 
 782      B2DBE600 
 782      2C83
 783 05b3 DD82910B 		.ascii	"\335\202\221\013\304\002\032\305\262t\3353\\\201\015"
 783      C4021AC5 
 783      B274DD33 
 783      5C810D
 784 05c2 AE092243 		.ascii	"\256\011\"C5\300n\271\001\313\024s[a\005[({\005+\340"
 784      35C06EB9 
 784      01CB1473 
 784      5B61055B 
 784      287B052B 
 785 05d7 EA8C56A6 		.ascii	"\352\214V\246\212>!\276\377\024\335\007\351\347$\375"
 785      8A3E21BE 
 785      FF14DD07 
 785      E9E724FD 
 786 05e7 0D49CF43 		.ascii	"\015I\317Cj^\262\364\202\314OhiLX\360\342\241#\245F"
 786      6A5EB2F4 
 786      82CC4F68 
 786      694C58F0 
 786      E2A123A5 
 787 05fc 1455677F 		.ascii	"\024Ug\177\274:\343\235\022a\260\226c\360mi\203\256"
 787      BC3AE39D 
 787      1261B096 
 787      63F06D69 
 787      83AE
 788 060e AF18DC73 		.ascii	"\257\030\334s\344h\027Z5O\237F\313\312\322f\222\357"
 788      E468175A 
 788      354F9F46 
 788      CBCAD266 
 788      92EF
 789 0620 14B45D27 		.ascii	"\024\264]'\035\246\006\326\340\367\351O\344\233\015"
 789      1DA606D6 
 789      E0F7E94F 
 789      E49B0D
 790 062f FE14DFE0 		.ascii	"\376\024\337\340/86\370+F\2037\272\223\255\262\233\356"
 790      2F3836F8 
 790      2B468337 
 790      BA93ADB2 
 790      9BEE
 791 0641 E4128FFE 		.ascii	"\344\022\217\376?\216\350g\226\034\251\207 \324\277"
 791      3F8EE867 
 791      961CA987 
 791      20D4BF
 792 0650 1E195124 		.ascii	"\036\031Q$\367]\312\345\204\256\\\226v:\363j\262\363"
 792      F75DCAE5 
 792      84AE5C96 
 792      763AF36A 
 792      B2F3
 793 0662 1AE279FD 		.ascii	"\032\342y\375>\221\327\340P\254\345\020\265\372\325"
 793      3E91D7E0 
ARM GAS  /tmp/ccLruy2S.s 			page 63


 793      50ACE510 
 793      B5FAD5
 794 0671 A91C29DC 		.ascii	"\251\034)\334\343\212X]\265wt\264\271r\025\333\353X"
 794      E38A585D 
 794      B57774B4 
 794      B97215DB 
 794      EB58
 795 0683 B1FA70C5 		.ascii	"\261\372p\3054\232]\226N\222\034W\204U:`\251\322\006"
 795      349A5D96 
 795      4E921C57 
 795      84553A60 
 795      A9D206
 796 0696 FDD28205 		.ascii	"\375\322\202\005\243\315!\301V\214[X\220?_s4v\377\355"
 796      A3CD21C1 
 796      568C5B58 
 796      903F5F73 
 796      3476FFED 
 797 06aa 18FB356F 		.ascii	"\030\3735o,\316l\263\\J\210\352~g\343/\377K\2761\002"
 797      2CCE6CB3 
 797      5C4A88EA 
 797      7E67E32F 
 797      FF4BBE31 
 798 06bf 9E233986 		.ascii	"\236#9\206\005V0;Y\261\003\3324\303\3057\300.[1/>\023"
 798      0556303B 
 798      59B103DA 
 798      34C3C537 
 798      C02E5B31 
 799 06d6 6963868E 		.ascii	"ic\206\216$\372\254m0v\366\220\3638\230\314e\013d\361"
 799      24FAAC6D 
 799      3076F690 
 799      F33898CC 
 799      650B64F1 
 800 06ea 40987C46 		.ascii	"@\230|F\270P6;\212\024.\376\312\331\305\253\260\257"
 800      B850363B 
 800      8A142EFE 
 800      CAD9C5AB 
 800      B0AF
 801 06fc 308A2C2D 		.ascii	"0\212,-Pp\216\371\262\310WD\227Q3\274\213\305\305\222"
 801      50708EF9 
 801      B2C85744 
 801      975133BC 
 801      8BC5C592 
 802 0710 BAD852CC 		.ascii	"\272\330R\314\311\305\213e'\027\257=\354\335\305/\330"
 802      C9C58B65 
 802      2717AF3D 
 802      ECDDC52F 
 802      D8
 803 0721 5DEC7EA7 		.ascii	"]\354~\247\246s\355\311\315\250\001\024\250h\271\214"
 803      A673EDC9 
 803      CDA80114 
 803      A868B98C 
 804 0731 978DDB14 		.ascii	"\227\215\333\024\307\335\021\027P\355\215\007\273\030"
 804      C7DD1117 
 804      50ED8D07 
 804      BB18
 805 073f D44A02B5 		.ascii	"\324J\002\265\363\266\241:\027\356\377\021\331hYC\200"
 805      F3B6A13A 
ARM GAS  /tmp/ccLruy2S.s 			page 64


 805      17EEFF11 
 805      D9685943 
 805      80
 806 0750 0E28FCB8 		.ascii	"\016(\374\270\224\301m\264d\3307O2\262\342\017l\267"
 806      94C16DB4 
 806      64D8374F 
 806      32B2E20F 
 806      6CB7
 807 0762 E8FF36BB 		.ascii	"\350\3776\273\031\235\330\211\251\243\365\260\"\030"
 807      199DD889 
 807      A9A3F5B0 
 807      2218
 808 0770 E6BA57B0 		.ascii	"\346\272W\260a\216V\306\027$\3372a\360\021m\264p\254"
 808      618E56C6 
 808      1724DF32 
 808      61F0116D 
 808      B470AC
 809 0783 05C2C6AC 		.ascii	"\005\302\306\254\305\013\036\012\276zx\3737\3656\331"
 809      C50B1E0A 
 809      BE7A78FB 
 809      37F536D9 
 810 0793 1EF0E2A2 		.ascii	"\036\360\342\242\266\200\217\275\274d\337:\244\247\307"
 810      B6808FBD 
 810      BC64DF3A 
 810      A4A7C7
 811 07a2 437E59F2 		.ascii	"C~Y\362\220oI\014y\350\211\373\017\013z\342$c\341F\231"
 811      906F490C 
 811      79E889FB 
 811      0F0B7AE2 
 811      2463E146 
 812 07b7 EB8871D0 		.ascii	"\353\210q\320q~\276\344\350g\375\032\036uh\214\336 "
 812      717EBEE4 
 812      E867FD1A 
 812      1E75688C 
 812      DE20
 813 07c9 393608AD 		.ascii	"96\010\255]I\353"
 813      5D49EB
 814 07d0 930DF5CF 		.ascii	"\223\015\365\317\353\244y\2631\025\227\262\305\311&"
 814      EBA479B3 
 814      311597B2 
 814      C5C926
 815 07df 47E33A8E 		.ascii	"G\343:\216x7n+o\234\303\220:\354l\234eHm\364\221\034"
 815      78376E2B 
 815      6F9CC390 
 815      3AEC6C9C 
 815      65486DF4 
 816 07f5 AEAA9237 		.ascii	"\256\252\2227\356u\336\270\355\216\306\375\372\2109"
 816      EE75DEB8 
 816      ED8EC6FD 
 816      FA8839
 817 0804 4DC29C65 		.ascii	"M\302\234ei\251\317\221\325H\205\331\243\276)\343\000"
 817      69A9CF91 
 817      D54885D9 
 817      A3BE29E3 
 817      00
 818 0815 6BBF2D56 		.ascii	"k\277-V\355<\253\016\307.t\365Q\317\253\265\235\274"
 818      ED3CAB0E 
ARM GAS  /tmp/ccLruy2S.s 			page 65


 818      C72E74F5 
 818      51CFABB5 
 818      9DBC
 819 0827 C737A084 		.ascii	"\3077\240\204pjv\266\355\032\036\307\351>\377\026\222"
 819      706A76B6 
 819      ED1A1EC7 
 819      E93EFF16 
 819      92
 820 0838 6387A00D 		.ascii	"c\207\240\015\230\313\037G\333v\360\266\355v\264\355"
 820      98CB1F47 
 820      DB76F0B6 
 820      ED76B4ED 
 821 0848 E451D3E3 		.ascii	"\344Q\323\343;\211\307\337pf5l\260R\321^\342\361\375"
 821      3B89C7DF 
 821      7066356C 
 821      B052D15E 
 821      E2F1FD
 822 085b B7C56A3F 		.ascii	"\267\305j?\317\252\323\221\325\232\017\2178\317gm;$"
 822      CFAAD391 
 822      D59A0F8F 
 822      38CF676D 
 822      3B24
 823 086d 493BFDE5 		.ascii	"I;\375\345\347{\362;u}\264\212\336\245M\323\3470|\270"
 823      E77BF23B 
 823      757DB48A 
 823      DEA54DD3 
 823      E7307CB8 
 824 0881 416A6BEF 		.ascii	"Ajk\357\276K\367\251\350 \201\031\271]\230\301\316C"
 824      BE4BF7A9 
 824      E8208119 
 824      B95D98C1 
 824      CE43
 825 0893 BBE8767F 		.ascii	"\273\350v\177\017\001Z\230\306\217B\351\334(\224n\037"
 825      0F015A98 
 825      C68F42E9 
 825      DC28946E 
 825      1F
 826 08a4 27E0156B 		.ascii	"'\340\025k\272N~\0372\227}\301/\031\322\377{9Q\330w"
 826      BA4E7E1F 
 826      32977DC1 
 826      2F19D2FF 
 826      7B3951D8 
 827 08b9 25999B19 		.ascii	"%\231\233\031\233\024\351)\374t\342b\377=\363\310\270"
 827      9B14E929 
 827      FC74E262 
 827      FF3DF3C8 
 827      B8
 828 08ca FF813C16 		.ascii	"\377\201<\026pvs\216J\211\203\211\034\223\271=\211\003"
 828      7076738E 
 828      4A898389 
 828      1C93B93D 
 828      8903
 829 08dc DDB9B812 		.ascii	"\335\271\270\022\361\367\324\273\022'\272\267\301\030"
 829      F1F7D4BB 
 829      1227BAB7 
 829      C118
 830 08ea F62EF2BC 		.ascii	"\366.\362\274\311\"K\037\000[\027\233+\247H\033:\315"
ARM GAS  /tmp/ccLruy2S.s 			page 66


 830      C9224B1F 
 830      005B179B 
 830      2BA7481B 
 830      3ACD
 831 08fc B37CA591 		.ascii	"\263|\245\221\260<\355\212\345\253\335\275\011{'\\\017"
 831      B03CED8A 
 831      E5ABDDBD 
 831      097B275C 
 831      0F
 832 090d B539C96C 		.ascii	"\2659\311l\370,\337E\375$\307\261\336\\m\307l#[\002"
 832      F82CDF45 
 832      FD24C7B1 
 832      DE5C6DC7 
 832      6C235B02 
 833 0921 290E9D44 		.ascii	")\016\235DL>\211\317\313\255|6\323~\304\326k\212 \316"
 833      4C3E89CF 
 833      CBAD7C36 
 833      D37EC4D6 
 833      6B8A20CE 
 834 0935 C8962D9D 		.ascii	"\310\226-\235s$b\260\023okKG\357\320\365\254\364\333"
 834      732462B0 
 834      136F6B4B 
 834      47EFD0F5 
 834      ACF4DB
 835 0948 75EB172E 		.ascii	"u\353\027.\335J\217\017E(\347\377t\227|nu\311\227\236"
 835      DD4A8F0F 
 835      4528E7FF 
 835      74977C6E 
 835      75C9979E 
 836 095c 5D52E0CD 		.ascii	"]R\340\315%\270\223\0251\371R\354\022\352\005\267&]"
 836      25B89315 
 836      31F952EC 
 836      12EA05B7 
 836      265D
 837 096e B49A34E4 		.ascii	"\264\2324\344\306$\361\346\330\237f\322e\007\223\\\231"
 837      C624F1E6 
 837      D89F66D2 
 837      6507935C 
 837      99
 838 097f 306435E1 		.ascii	"0d5\341\212g\023\012$\373\025\337<\353\227\361\206\331"
 838      8A67130A 
 838      24FB15DF 
 838      3CEB97F1 
 838      86D9
 839 0991 6724BD40 		.ascii	"g$\275@\322\257d\027\233g'\254|\256\023>\307\2747\034"
 839      D2AF6417 
 839      9B6727AC 
 839      7CAE133E 
 839      C7BC371C 
 840 09a5 A7CBDA09 		.ascii	"\247\313\332\011\253\350\270\214;\210>7\224\336\227"
 840      ABE8B88C 
 840      3B883E37 
 840      94DE97
 841 09b4 45FB795F 		.ascii	"E\373y_\247\011\026:\3476\260\205\316\373dq\2768\035"
 841      A709163A 
 841      E736B085 
 841      CEFB6471 
ARM GAS  /tmp/ccLruy2S.s 			page 67


 841      BE381D
 842 09c7 E78B09E7 		.ascii	"\347\213\011\347\204L\003\233\241\274\331\270`\264\217"
 842      844C039B 
 842      A1BCD9B8 
 842      60B48F
 843 09d6 56B794A4 		.ascii	"V\267\224\244\030#t\325a\342\212\027\276#\177\335\334"
 843      182374D5 
 843      61E28A17 
 843      BE237FDD 
 843      DC
 844 09e7 A1CF5FAC 		.ascii	"\241\317_\254\337\032\231\213\334\317\023o\362q\264"
 844      DF1A998B 
 844      DCCF136F 
 844      F271B4
 845 09f6 3C71D9D1 		.ascii	"<q\331\321\224\316o\311\321\254_\333\231|KZ\247\353"
 845      94CE6FC9 
 845      D1AC5FDB 
 845      997C4B5A 
 845      A7EB
 846 0a08 7DE08CCE 		.ascii	"}\340\214\316\007^\322c\363u<{B\310p\311\313&\210\210"
 846      075ED263 
 846      F3753C7B 
 846      42C870C9 
 846      CB268888 
 847 0a1c CAAD381C 		.ascii	"\312\2558\034\205\212]\275\201\267\266ur\016b\354{l"
 847      858A5DBD 
 847      81B7B675 
 847      720E62EC 
 847      7B6C
 848 0a2e 4C89A32B 		.ascii	"L\211\243+6\234\330\261\330\037\256f\0320\202#\261\304"
 848      369CD8B1 
 848      D81FAE66 
 848      1A308223 
 848      B1C4
 849 0a40 438506C5 		.ascii	"C\205\006\305\353\221\330<\305\371H\314X~\303\324\226"
 849      EB91D83C 
 849      C5F948CC 
 849      587EC3D4 
 849      96
 850 0a51 E79EA876 		.ascii	"\347\236\250v\276\302;\341\323\177m\206\201yd\344'\306"
 850      BEC23BE1 
 850      D37F6D86 
 850      817964E4 
 850      27C6
 851 0a63 E65A178F 		.ascii	"\346Z\027\217\222\360\333\203F;H[_l\337\231\234\267"
 851      92F0DB83 
 851      463B485B 
 851      5F6CDF99 
 851      9CB7
 852 0a75 C08A9191 		.ascii	"\300\212\221\221\271\006\312\361\224(\213\022\250\\"
 852      B906CAF1 
 852      94288B12 
 852      A85C
 853 0a83 6EEFB5D4 		.ascii	"n\357\265\324\007]\224}\236\262>\226\330q X\007\256"
 853      075D947D 
 853      9EB23E96 
 853      D8712058 
ARM GAS  /tmp/ccLruy2S.s 			page 68


 853      07AE
 854 0a95 0D6D442B 		.ascii	"\015mD+\365\266\036b\030\032oTJO\236\255;\264\035\020"
 854      F5B61E62 
 854      181A6F54 
 854      4A4F9EAD 
 854      3BB41D10 
 855 0aa9 C2102B38 		.ascii	"\302\020+89\340\266\340EY\236W\254#\032\373\370\034"
 855      39E0B6E0 
 855      45599E57 
 855      AC231AFB 
 855      F81C
 856 0abb AB65B38A 		.ascii	"\253e\263\212\326g\360\261\256\242\027xw\016\356Y\272"
 856      D667F0B1 
 856      AEA21778 
 856      770EEE59 
 856      BA
 857 0acc ED1E5B8C 		.ascii	"\355\036[\214\247\341\031\365\366\214T\256X\036G\342"
 857      A7E119F5 
 857      F68C54AE 
 857      581E47E2 
 858 0adc C6621C6E 		.ascii	"\306b\034n\242R+\024\347\343]\332\264D\245^t(E\035\211"
 858      A2522B14 
 858      E7E35DDA 
 858      B444A55E 
 858      7428451D 
 859 0af1 87431723 		.ascii	"\207C\027#\034\247ka\022]\253\204\014\223\355\362\255"
 859      1CA76B61 
 859      125DAB84 
 859      0C93EDF2 
 859      AD
 860 0b02 8E9762E7 		.ascii	"\216\227b\347\010/v/\203yo\003\004\305\001\035\373\222"
 860      082F762F 
 860      83796F03 
 860      04C5011D 
 860      FB92
 861 0b14 1E55EC4A 		.ascii	"\036U\354J\250\023\247\243\2125\012\267\262kVl\335\023"
 861      A813A7A3 
 861      8A350AB7 
 861      B26B566C 
 861      DD13
 862 0b26 E784B349 		.ascii	"\347\204\263I\234`\231\314}O\332\204\347\305;N\364\324"
 862      9C6099CC 
 862      7D4FDA84 
 862      E7C53B4E 
 862      F4D4
 863 0b38 A30273FF 		.ascii	"\243\002s\377\304\001\225\232\213\333\204\010\265%n"
 863      C401959A 
 863      8BDB8408 
 863      B5256E
 864 0b47 2EE954E6 		.ascii	".\351T\346%]\264\201S\311\210\225z\263\316i\266\237"
 864      255DB481 
 864      53C98895 
 864      7AB3CE69 
 864      B69F
 865 0b59 6E40FDBB 		.ascii	"n@\375\273d\256k^\2725\024\242\353\232V\005\257k\256"
 865      64AE6B5E 
 865      BA3514A2 
ARM GAS  /tmp/ccLruy2S.s 			page 69


 865      EB9A5605 
 865      AF6BAE
 866 0b6c 6538AE6B 		.ascii	"e8\256k\3048\230\324:\205[1\274\3701Y1\340\357)V\014"
 866      C43898D4 
 866      3A855B31 
 866      BCF83159 
 866      31E0EF29 
 867 0b82 F3E7C556 		.ascii	"\363\347\305V}\334B\3265*zE\301-f^&b\230\2671Q\006\274"
 867      7DDC42D6 
 867      352A7A45 
 867      C12D665E 
 867      266298B7 
 868 0b9a D51F93F3 		.ascii	"\325\037\223\363E\012\266\3203X\201\015\254\331\012"
 868      450AB6D0 
 868      3358810D 
 868      ACD90A
 869 0ba9 B6D40D98 		.ascii	"\266\324\015\230hr\007`k\255`M\236\301\354\314Z\254"
 869      68720760 
 869      6BAD604D 
 869      9EC1ECCC 
 869      5AAC
 870 0bbb 60ABDC80 		.ascii	"`\253\334\200\215\0263k\265\2025{\006\2633{\313\012"
 870      8D16336B 
 870      B582357B 
 870      06B3337B 
 870      CB0A
 871 0bcd D6E2062C 		.ascii	"\326\342\006,_\314\254\303\012\266\3363\230\235\331"
 871      5FCCACC3 
 871      0AB6DE33 
 871      989DD9
 872 0bdc DB56B02D 		.ascii	"\333V\260-n\300\012\304\314vZ\301\266{\006\2633\333"
 872      6EC00AC4 
 872      CC765AC1 
 872      B67B06B3 
 872      33DB
 873 0bee 6D056B77 		.ascii	"m\005kw\003\366\227bf{\255`;<\203\331\231\355\267\202"
 873      03F69762 
 873      667BAD60 
 873      3B3C83D9 
 873      99EDB782 
 874 0c02 ED7103F6 		.ascii	"\355q\003\366\003\021\263\372\330;\377\334\244\306\007"
 874      0311B3FA 
 874      D83BFFDC 
 874      A4C607
 875 0c11 768A2A98 		.ascii	"v\212*\230\366X\263\255\224\223L\312\016\260\341:\376"
 875      F658B3AD 
 875      94934CCA 
 875      0EB0E13A 
 875      FE
 876 0c22 5329FE55 		.ascii	"S)\376U\226:y\336v\030'\342v/\034\263z\241\313\215\027"
 876      963A79DE 
 876      761827E2 
 876      762F1CB3 
 876      7AA1CB8D 
 877 0c37 A68AC1FA 		.ascii	"\246\212\301\372\254`\335n\300\246\211+\373\244\025"
 877      AC60DD6E 
 877      C0A6892B 
ARM GAS  /tmp/ccLruy2S.s 			page 70


 877      FBA415
 878 0c46 ECB06730 		.ascii	"\354\260g0;\263\323V\260\017\335\200=!f\326o\005\353"
 878      3BB3D356 
 878      B00FDD80 
 878      3D2166D6 
 878      6F05EB
 879 0c59 F30C6665 		.ascii	"\363\014feV\037;\033\217\234\266\251\\\350L\265w\227"
 879      561F3B1B 
 879      8F9CB6A9 
 879      5CE84CB5 
 879      7797
 880 0c6b B66C96D0 		.ascii	"\266l\226\320\341\262\301L\302\214\234\375\366\310\331"
 880      E1B2C14C 
 880      C28C9CFD 
 880      F6C8D9
 881 0c7a 1F8F9C7E 		.ascii	"\037\217\234~\236\267\015\205=Nwp\202\323e\035*U\264"
 881      9EB70D85 
 881      3D4E7770 
 881      82D3651D 
 881      2A55B4
 882 0c8d 5E21BF16 		.ascii	"^!\277\026R\360\262\3705\222n&\351/H\272\225\244\333"
 882      52F0B2F8 
 882      35926E26 
 882      E92F48BA 
 882      95A4DB
 883 0ca0 49FA2649 		.ascii	"I\372&I\333I\372K\222\356 \351.\222\356!\351>\222v\222"
 883      DB49FA4B 
 883      92EE20E9 
 883      2E92EE21 
 883      E93E9276 
 884 0cb5 B48BA4EF 		.ascii	"\264\213\244\357\221\364 I\017\221\264\227\244G\024"
 884      91F42049 
 884      0F91B497 
 884      A44714
 885 0cc4 CB7A979B 		.ascii	"\313z\227\233\253\264\012*\210\034\320\363S\263\301"
 885      ABB40A2A 
 885      881CD0F3 
 885      53B3C1
 886 0cd3 9B9BCEB4 		.ascii	"\233\233\316\264\306\177\225\326\226\311-1\227'\331"
 886      C67F95D6 
 886      96C92D31 
 886      9727D9
 887 0ce2 AB38AE24 		.ascii	"\2538\256$\376\314\343V\246\343\234\256A\357\330\242"
 887      FECCE356 
 887      A6E39CAE 
 887      41EFD8A2 
 888 0cf2 6719E78E 		.ascii	"g\031\347\216\260\202W\222\256\205\373\224\204\2650"
 888      B0825792 
 888      AE85FB94 
 888      84B530
 889 0d01 503DFD7A 		.ascii	"P=\375z\357\275dv\016\313\235\373\250zYz/\313\225\302"
 889      EFBD6476 
 889      0ECB9DFB 
 889      A87A597A 
 889      2FCB95C2 
 890 0d15 93C9159E 		.ascii	"\223\311\025\236rT\370\351\033g\376*A\341\322lW\012"
 890      7254F8E9 
ARM GAS  /tmp/ccLruy2S.s 			page 71


 890      1B67FE2A 
 890      41E1D26C 
 890      570A
 891 0d27 3F4AAEB0 		.ascii	"?J\256\260?Q\341\261\241\301\341M\227\267\240\256\327"
 891      3F51E1B1 
 891      A1C1E14D 
 891      97B7A0AE 
 891      D7
 892 0d38 1A757C74 		.ascii	"\032u|t2\367\325\330h\017g\353\037+\016+~\341\201/{"
 892      32F7D5D8 
 892      680F67EB 
 892      1F2B0E2B 
 892      7EE1812F 
 893 0d4d E776045A 		.ascii	"\347v\004Z9\333\330\031\315)\315<\352\355 9\316\012"
 893      39DBD819 
 893      CD29CD3C 
 893      EAED2039 
 893      CE0A
 894 0d5f 8CB39FD8 		.ascii	"\214\263\237\330\266^\204e\376Xc\353\241\225\354L\273"
 894      B65E8465 
 894      FE5863EB 
 894      A195EC4C 
 894      BB
 895 0d70 2BF996AD 		.ascii	"+\371\226\255d\233\233\222\346Q\357+\027\007\3455+c"
 895      649B9B92 
 895      E651EF2B 
 895      1707E535 
 895      2B63
 896 0d82 287ED66B 		.ascii	"(~\326k)\351t\326; XO\320\326t9\311\357K\317)\334z\002"
 896      29E974D6 
 896      3B20584F 
 896      D0D67439 
 896      C9EF4BCF 
 897 0d9a 169097C6 		.ascii	"\026\220\227\306\275\324\224\351\260\240\020lPL103\030"
 897      BDD494E9 
 897      B0A0106C 
 897      504C3130 
 897      3318
 898 0dac E66F3DEF 		.ascii	"\346o=\357O\374\267`\177\"\335\036\314\020[\377\265"
 898      4FFCB760 
 898      7F22DD1E 
 898      CC105BFF 
 898      B5
 899 0dbd AD43D7C9 		.ascii	"\255C\327\311NR\375|d\256\302\234\343\231[\205]\340"
 899      4E52FD7C 
 899      64AEC29C 
 899      E3995B85 
 899      5DE0
 900 0dcf 5761171D 		.ascii	"Wa\027\035[\314\352\235g\376\315\322b\250\206\313\256"
 900      5BCCEA9D 
 900      67FECDD2 
 900      62A886CB 
 900      AE
 901 0de0 34FC8ED7 		.ascii	"4\374\216\327p\311Q\303\265]\027\362o\304\3150\225l"
 901      70C951C3 
 901      B55D17F2 
 901      6FC4CD30 
ARM GAS  /tmp/ccLruy2S.s 			page 72


 901      956C
 902 0df2 CFB12A21 		.ascii	"\317\261*!q.K\373rP2\225_\361*\207\034U\016o\352]dk"
 902      712E4BFB 
 902      72503295 
 902      5FF12A87 
 902      1C550E6F 
 903 0e0a 95E64F77 		.ascii	"\225\346Ows\334\030v\205\327rU\340\272\317\374\011\256"
 903      73DC1876 
 903      85D77255 
 903      E0BACFFC 
 903      09AE
 904 0e1c FBC89586 		.ascii	"\373\310\225\206k\274\206\353\002\327\035_\203\326\230"
 904      6BBC86EB 
 904      02D71D5F 
 904      83D698
 905 0e2b 5DFD22D9 		.ascii	"]\375\"\331\320\362E\242\357T\364\3738\206\223\316\233"
 905      D0F245A2 
 905      EF54F4FB 
 905      388693CE 
 905      9B
 906 0e3c BCCEE1A4 		.ascii	"\274\316\341\244\315hk\222e\371-\301.\203\240\3114\233"
 906      CD686B92 
 906      65F92DC1 
 906      2E83A0C9 
 906      349B
 907 0e4e F3BE3B19 		.ascii	"\363\276;\031\200\356\363\332f\352}\316m\306\370\031"
 907      80EEF3DA 
 907      66EA7DCE 
 907      6DC6F819 
 908 0e5e A9A8DC88 		.ascii	"\251\250\334\2107\252s\214\362\243X\371y\236\231\316"
 908      37AA738C 
 908      F2A358F9 
 908      799E99CE 
 909 0e6e 1730CD4B 		.ascii	"\0270\315K\301\264\301'\332\272\331\230\244*\026\010"
 909      C1B4C127 
 909      DABAD998 
 909      A42A1608 
 910 0e7e 4B3D9764 		.ascii	"K=\227d#\253\321\241\024\335\215\031Lr\0245 \370\337"
 910      23ABD1A1 
 910      14DD8D19 
 910      4C721435 
 910      20F8DF
 911 0e91 0D74F35A 		.ascii	"\015t\363ZTj\221\220\341\351$=\365ba\25141\301%>~\262"
 911      546A9190 
 911      E1E9243D 
 911      F56261A9 
 911      3431C125 
 912 0ea8 34BCE9F8 		.ascii	"4\274\351\370v\256'\270I~\3340\224\3438pv\032\003\247"
 912      76AE27B8 
 912      497EDC30 
 912      94E33870 
 912      761A03A7 
 913 0ebc 8A3E53F0 		.ascii	"\212>S\360 \266\324\347f\020\323\3653\326\237\002\343"
 913      20B6D4E7 
 913      6610D3F5 
 913      33D69F02 
 913      E3
ARM GAS  /tmp/ccLruy2S.s 			page 73


 914 0ecd 42960BEA 		.ascii	"B\226\013\352\302gkj\222/P\251\326N*\252\213\324\026"
 914      C2676B6A 
 914      922F50A9 
 914      D64E2AAA 
 914      8BD416
 915 0ee0 55056714 		.ascii	"U\005g\024\315\012\004\212\324\332\352\373C\341\220"
 915      CD0A048A 
 915      D4DAEAFB 
 915      43E190
 916 0eef 76BFA6CE 		.ascii	"v\277\246\316\010\026\375M\341\224\302IE\301P\240\252"
 916      0816FD4D 
 916      E194C249 
 916      45C150A0 
 916      AA
 917 0f00 AE422B8A 		.ascii	"\256B+\212D+*\264\231\205\225Rz$\370s\315\037M\177\364"
 917      442B2AB4 
 917      99859552 
 917      7A24F873 
 917      CD1F4D7F 
 918 0f15 A74F1614 		.ascii	"\247O\026\024K\367\022\000#SH\233\215\261 o0\024\205"
 918      4BF71200 
 918      2353489B 
 918      8DB1206F 
 918      301485
 919 0f28 BC197570 		.ascii	"\274\031up\237\342\217\336\357\224\253Z\015T\006CZ\221"
 919      9FE28FDE 
 919      EF94AB5A 
 919      0D540643 
 919      5A91
 920 0f3a 1F70D5BA 		.ascii	"\037p\325\272\252\250?\372l\215\026\201RY~?+\227\346"
 920      AAA83FFA 
 920      6C8D1681 
 920      52597E3F 
 920      2B97E6
 921 0f4d 7F281CAE 		.ascii	"\177(\034\256\372\363\302\302\"\372/\252E\242\204m\240"
 921      FAF3C2C2 
 921      22FA2FAA 
 921      45A2846D 
 921      A0
 922 0f5e D28F9F0B 		.ascii	"\322\217\237\013\003RnM-\344\365G\303Oi\241H\222\234"
 922      03526E4D 
 922      2DE4F547 
 922      C34F69A1 
 922      48929C
 923 0f71 95922FA4 		.ascii	"\225\222/\244Vki\021-ZW\223\031\325\324\332\212\360"
 923      566B6911 
 923      2D5A5793 
 923      19D5D4DA 
 923      8AF0
 924 0f83 EC508636 		.ascii	"\354P\2066G\013\324E\265l\234'\240F\300\260\\\366\211"
 924      470BD445 
 924      B56C9C27 
 924      A046C0B0 
 924      5CF689
 925 0f96 1453A281 		.ascii	"\024S\242\201\232l\252\241\012\270"
 925      9A6CAAA1 
 925      0AB8
ARM GAS  /tmp/ccLruy2S.s 			page 74


 926 0fa0 8EC5DFFC 		.ascii	"\216\305\337\374\344=TX\243\326F\013\177\220M\362\371"
 926      E43D5458 
 926      A3D6460B 
 926      7F904DF2 
 926      F9
 927 0fb1 67AAC12A 		.ascii	"g\252\301*\245:2+\227\276\252\221\210V\033\315\012\204"
 927      A53A322B 
 927      97BEAA91 
 927      88561BCD 
 927      0A84
 928 0fc3 4315C168 		.ascii	"C\025\301h0\034\272\313\372\331\037\321\236\256\323"
 928      301CBACB 
 928      FAD91FD1 
 928      9EAED3
 929 0fd2 42012D53 		.ascii	"B\001-S\233S\243\005\242Z\305\275&\357p\244(\024\254"
 929      9B53A305 
 929      A25AC5BD 
 929      26EF70A4 
 929      2814AC
 930 0fe5 325D15A8 		.ascii	"2]\025\250\304\376\210<\033\211\006\253\201Q&\366\313"
 930      C4FE883C 
 930      1B8906AB 
 930      815126F6 
 930      CB
 931 0ff6 E449FE68 		.ascii	"\344I\376h6u\021~\314\267"
 931      3675117E 
 931      CCB7
 932 1000 41937CB3 		.ascii	"A\223|\263\203!0.-\022\005\206\212\026\252\310\261\320"
 932      8321302E 
 932      2D120586 
 932      8A16AAC8 
 932      B1D0
 933 1012 46A1ECF8 		.ascii	"F\241\354\370\233\017\030\327\344\306\337\253B\243\310"
 933      9B0F18D7 
 933      E4C6DFAB 
 933      42A3C8
 934 1021 8B561D64 		.ascii	"\213V\035d.M#\351\030\356\253?8\305\3128\020\256\256"
 934      2E4D23E9 
 934      18EEAB3F 
 934      38C5CA38 
 934      10AEAE
 935 1034 0E878A6A 		.ascii	"\016\207\212j\302\265\321H\321\203\245%\305%s\360\267"
 935      C2B5D148 
 935      D183A525 
 935      C52573F0 
 935      B7
 936 1045 9A609556 		.ascii	"\232`\225V\033)z\264\270\030\3540*7\015T\372\243\031"
 936      1B297AB4 
 936      B818EC30 
 936      2A370D54 
 936      FAA319
 937 1058 8C3C5435 		.ascii	"\214<T5{\372\256\025\260R\215\273\000\236\375\221h\255"
 937      7BFAAE15 
 937      B0528DBB 
 937      009EFD91 
 937      68AD
 938 106a A656E3E2 		.ascii	"\246V\343\342\343\036\202J*#\376\213\006\325\2522\362"
ARM GAS  /tmp/ccLruy2S.s 			page 75


 938      E31E824A 
 938      2A23FE8B 
 938      06D5AA32 
 938      F2
 939 107b 876F387D 		.ascii	"\207o8}\374\373\222\362\264\331\265\301\250\346\203"
 939      FCFB92F2 
 939      B4D9B5C1 
 939      A8E683
 940 108a B70AA5A6 		.ascii	"\267\012\245\246.\252\314\322\242\3123\325Qj0\253\346"
 940      2EAACCD2 
 940      A2CA33D5 
 940      516A30AB 
 940      E6
 941 109b 748A9D1D 		.ascii	"t\212\235\035\250,\257\254(\253\3224\034\034\360\347"
 941      A82CAFAC 
 941      28ABD234 
 941      1C1CF0E7 
 942 10ab 40654D16 		.ascii	"@eM\026y\000\203k\306\032O\020c\376\031u3gj\265\324"
 942      7900836B 
 942      C61A4F10 
 942      63FE1975 
 942      33676AB5 
 943 10c0 5155E100 		.ascii	"QU\341\000\320\303\225?\232\274\317\252\012\317`\037"
 943      D0C3953F 
 943      9ABCCFAA 
 943      0ACF601F 
 944 10d0 C6997151 		.ascii	"\306\231qQW\253\371\253\265HD\235\245M\260\007(\256"
 944      57ABF9AB 
 944      B548449D 
 944      A54DB007 
 944      28AE
 945 10e2 EA48B8AE 		.ascii	"\352H\270\2566\240\321wR\2446\034\306\341J\253)R\007"
 945      36A0D177 
 945      52A4361C 
 945      C6E14AAB 
 945      295207
 946 10f5 16502291 		.ascii	"\026P\"\221\250V\223\033\250\202\310eL&\361.\243\025"
 946      A856931B 
 946      A882C865 
 946      4C26F12E 
 946      A315
 947 1107 50565E32 		.ascii	"PV^2yR\321\343\217?\\T\376X\3113\023\2415Vc\007\007"
 947      7952D1E3 
 947      8F3F5C54 
 947      FE58C933 
 947      13A13556 
 948 111e AB0134C7 		.ascii	"\253\0014\307|\361G\225\342\322\211 \223|e%\305\245"
 948      7CF14795 
 948      E2D28920 
 948      937C6525 
 948      C5A5
 949 1130 BE871F7B 		.ascii	"\276\207\037{\244T.+U\036y\2644\255\270\270\244t\"I"
 949      A4542E2B 
 949      551E79B4 
 949      34ADB8B8 
 949      A4742249 
 950 1144 27F98A8B 		.ascii	"'\371\212\213\037)U\212\177Z\256<QV\254<XZ\252\224\026"
ARM GAS  /tmp/ccLruy2S.s 			page 76


 950      1F29558A 
 950      7F5AAE3C 
 950      5156AC3C 
 950      585AAA94 
 951 1159 C33B1478 		.ascii	"\303;\024x\350\341\362R\345a\\\262\344\301R\371g\264"
 951      E8E1F252 
 951      E5615CB2 
 951      E4C152F9 
 951      67B4
 952 116b D464C83F 		.ascii	"\324d\310?\275\264\200'\026\216@\202\215\305\017\270"
 952      BDB48027 
 952      168E4082 
 952      8DC50FB8 
 953 117b 16F1FD67 		.ascii	"\026\361\375g\221G\265h\031\204\266V]\016Q;\275(eHU"
 953      9147B568 
 953      1984B656 
 953      5D0E513B 
 953      BD286548 
 954 1190 06C2E04A 		.ascii	"\006\302\340J\034\342\265\000r'\376#}\363C\315\222\247"
 954      1CE2B500 
 954      7227FE23 
 954      7DF343CD 
 954      92A7
 955 11a2 C9EE5C42 		.ascii	"\311\356\\Bc\312_UU\0018c\351\023\301\010\204\353BQ"
 955      63CA5F55 
 955      55013863 
 955      E913C108 
 955      84EB4251 
 956 11b6 ADF64ECA 		.ascii	"\255\366N\312\357\261\010&\366\017\301(\364S\323}\030"
 956      EFB10826 
 956      F60FC128 
 956      F453D37D 
 956      18
 957 11c7 3F07FF01 		.ascii	"?\007\377\0018?\036\016<u\277K\276\317\374-\366|\026"
 957      383F1E0E 
 957      3C75BF4B 
 957      BECFFC2D 
 957      F67C16
 958 11da 610BF1F2 		.ascii	"a\013\361\362\324D\207r\332\234hQqI\331ce\361\226_\035"
 958      D4448772 
 958      DA9C6851 
 958      7149D963 
 958      65F1965F 
 959 11ef 0946FCD0 		.ascii	"\011F\374\320+C\331;\374\376\212`D\235Q\245\371\203"
 959      2B43D93B 
 959      FCFE8A60 
 959      449D51A5 
 959      F983
 960 1201 B54FDFA1 		.ascii	"\265O\337\241V\315V\237\215@\303\301]\322\035\214\321"
 960      56CD569F 
 960      8D40C3C1 
 960      5DD21D8C 
 960      D1
 961 1212 93218C9D 		.ascii	"\223!\214\235C\264\324\221\347\\\277_\013\031\205F\341"
 961      43B4D491 
 961      E75CBF5F 
 961      0B198546 
ARM GAS  /tmp/ccLruy2S.s 			page 77


 961      E1
 962 1223 6CE595B8 		.ascii	"l\345\225\270)\220 \377_\361\250c="
 962      299020FF 
 962      5FF1A863 
 962      3D
 963              		.text
 964              		.section	.gnu.lto_.symtab.1bd75f5614113f08,"",%progbits
 965 0000 5F746573 		.ascii	"_test_fail\000\000\000\000\000\000\000\000\000\000\000"
 965      745F6661 
 965      696C0000 
 965      00000000 
 965      00000000 
 966 0015 00F40000 		.ascii	"\000\364\000\000\000test_global_fail\000\000\000\000"
 966      00746573 
 966      745F676C 
 966      6F62616C 
 966      5F666169 
 967 002e 00000000 		.ascii	"\000\000\000\000\000\000\000\000\207\001\000\000_te"
 967      00000000 
 967      87010000 
 967      5F7465
 968 003d 73745F61 		.ascii	"st_assert\000\000\000\000\000\000\000\000\000\000\000"
 968      73736572 
 968      74000000 
 968      00000000 
 968      00000000 
 969 0051 00FB0000 		.ascii	"\000\373\000\000\000_test_assert_sequence\000\000\000"
 969      005F7465 
 969      73745F61 
 969      73736572 
 969      745F7365 
 970 006e 00000000 		.ascii	"\000\000\000\000\000\000\000\000\000\004\001\000\000"
 970      00000000 
 970      00040100 
 970      00
 971 007b 5F746573 		.ascii	"_test_assert_time_window\000\000\000\000\000\000\000"
 971      745F6173 
 971      73657274 
 971      5F74696D 
 971      655F7769 
 972 009a 00000000 		.ascii	"\000\000\000\000\000\016\001\000\000test_printn\000"
 972      000E0100 
 972      00746573 
 972      745F7072 
 972      696E746E 
 973 00af 00000000 		.ascii	"\000\000\000\000\000\000\000\000\000\000\000#\001\000"
 973      00000000 
 973      00000023 
 973      0100
 974 00bd 00746573 		.ascii	"\000test_print\000\000\000\000\000\000\000\000\000\000"
 974      745F7072 
 974      696E7400 
 974      00000000 
 974      00000000 
 975 00d2 00002A01 		.ascii	"\000\000*\001\000\000test_println\000\000\000\000\000"
 975      00007465 
 975      73745F70 
ARM GAS  /tmp/ccLruy2S.s 			page 78


 975      72696E74 
 975      6C6E0000 
 976 00e9 00000000 		.ascii	"\000\000\000\000\000\000\0001\001\000\000test_emit_"
 976      00000031 
 976      01000074 
 976      6573745F 
 976      656D6974 
 977 00fe 746F6B65 		.ascii	"token\000\000\000\000\000\000\000\000\000\000\000\000"
 977      6E000000 
 977      00000000 
 977      00000000 
 977      00
 978 010f 35010000 		.ascii	"5\001\000\000test_emit_token_i\000\000\000\000\000\000"
 978      74657374 
 978      5F656D69 
 978      745F746F 
 978      6B656E5F 
 979 012a 00000000 		.ascii	"\000\000\000\000\000\000<\001\000\000test_execute\000"
 979      00003C01 
 979      00007465 
 979      73745F65 
 979      78656375 
 980 0141 00000000 		.ascii	"\000\000\000\000\000\000\000\000\000\000\000@\001\000"
 980      00000000 
 980      00000040 
 980      0100
 981 014f 00746573 		.ascii	"\000test_step\000\000\000\000\000\000\000\000\000\000"
 981      745F7374 
 981      65700000 
 981      00000000 
 981      00000000 
 982 0163 00009001 		.ascii	"\000\000\220\001\000\000test_suite\000\000\002\000\000"
 982      00007465 
 982      73745F73 
 982      75697465 
 982      00000200 
 983 0178 00000000 		.ascii	"\000\000\000\000\000\000\000\213\001\000\000chThdSl"
 983      0000008B 
 983      01000063 
 983      68546864 
 983      536C
 984 018a 65657000 		.ascii	"eep\000\000\002\000\000\000\000\000\000\000\000\000"
 984      00020000 
 984      00000000 
 984      000000
 985 0199 79010000 		.ascii	"y\001\000\000"
 986              		.text
 987              		.section	.gnu.lto_.opts,"",%progbits
 988 0000 272D6D63 		.ascii	"'-mcpu=cortex-m0' '-mno-thumb-interwork' '-mthumb' "
 988      70753D63 
 988      6F727465 
 988      782D6D30 
 988      2720272D 
 989 0033 272D6767 		.ascii	"'-ggdb' '-O2' '-fomit-frame-pointer' '-falign-funct"
 989      64622720 
 989      272D4F32 
 989      2720272D 
ARM GAS  /tmp/ccLruy2S.s 			page 79


 989      666F6D69 
 990 0066 696F6E73 		.ascii	"ions=16' '-ffunction-sections' '-fdata-sections' '-"
 990      3D313627 
 990      20272D66 
 990      66756E63 
 990      74696F6E 
 991 0099 666E6F2D 		.ascii	"fno-common' '-flto'\000"
 991      636F6D6D 
 991      6F6E2720 
 991      272D666C 
 991      746F2700 
 992              		.text
 993              		.cfi_sections	.debug_frame
 994              		.section	.text.print_line,"ax",%progbits
 995              		.align	2
 996              		.p2align 4,,15
 997              		.code	16
 998              		.thumb_func
 999              		.type	print_line, %function
 1000              	print_line:
 1001              	.LFB101:
 1002              		.file 1 "../../../test/lib/ch_test.c"
 1003              		.loc 1 90 0
 1004              		.cfi_startproc
 1005              	.LVL0:
 1006 0000 38B5     		push	{r3, r4, r5, lr}
 1007              		.cfi_def_cfa_offset 16
 1008              		.cfi_offset 3, -16
 1009              		.cfi_offset 4, -12
 1010              		.cfi_offset 5, -8
 1011              		.cfi_offset 14, -4
 1012 0002 084D     		ldr	r5, .L5
 1013              		.loc 1 90 0
 1014 0004 4C24     		mov	r4, #76
 1015              	.LVL1:
 1016              	.L3:
 1017              		.loc 1 94 0 discriminator 2
 1018 0006 2868     		ldr	r0, [r5]
 1019 0008 2D21     		mov	r1, #45
 1020 000a 0368     		ldr	r3, [r0]
 1021 000c 013C     		sub	r4, r4, #1
 1022              	.LVL2:
 1023 000e 9B68     		ldr	r3, [r3, #8]
 1024 0010 9847     		blx	r3
 1025              	.LVL3:
 1026              		.loc 1 93 0 discriminator 2
 1027 0012 002C     		cmp	r4, #0
 1028 0014 F7D1     		bne	.L3
 1029              		.loc 1 95 0
 1030 0016 2868     		ldr	r0, [r5]
 1031 0018 0349     		ldr	r1, .L5+4
 1032 001a 0368     		ldr	r3, [r0]
 1033 001c 0222     		mov	r2, #2
 1034 001e 1B68     		ldr	r3, [r3]
 1035 0020 9847     		blx	r3
 1036              	.LVL4:
 1037              		.loc 1 96 0
ARM GAS  /tmp/ccLruy2S.s 			page 80


 1038              		@ sp needed
 1039 0022 38BD     		pop	{r3, r4, r5, pc}
 1040              	.L6:
 1041              		.align	2
 1042              	.L5:
 1043 0024 00000000 		.word	.LANCHOR0
 1044 0028 00000000 		.word	.LC1
 1045              		.cfi_endproc
 1046              	.LFE101:
 1047              		.size	print_line, .-print_line
 1048 002c C046C046 		.section	.text._test_fail,"ax",%progbits
 1049              		.align	2
 1050              		.p2align 4,,15
 1051              		.global	_test_fail
 1052              		.code	16
 1053              		.thumb_func
 1054              		.type	_test_fail, %function
 1055              	_test_fail:
 1056              	.LFB102:
 1057              		.loc 1 102 0
 1058              		.cfi_startproc
 1059              	.LVL5:
 1060              		.loc 1 104 0
 1061 0000 044A     		ldr	r2, .L8
 1062 0002 0123     		mov	r3, #1
 1063 0004 1370     		strb	r3, [r2]
 1064              		.loc 1 105 0
 1065 0006 044A     		ldr	r2, .L8+4
 1066              		.loc 1 108 0
 1067              		@ sp needed
 1068              		.loc 1 105 0
 1069 0008 1370     		strb	r3, [r2]
 1070              		.loc 1 106 0
 1071 000a 044B     		ldr	r3, .L8+8
 1072 000c 1860     		str	r0, [r3]
 1073              		.loc 1 108 0
 1074 000e 0120     		mov	r0, #1
 1075              	.LVL6:
 1076 0010 7047     		bx	lr
 1077              	.L9:
 1078 0012 C046     		.align	2
 1079              	.L8:
 1080 0014 00000000 		.word	.LANCHOR1
 1081 0018 00000000 		.word	.LANCHOR2
 1082 001c 00000000 		.word	.LANCHOR3
 1083              		.cfi_endproc
 1084              	.LFE102:
 1085              		.size	_test_fail, .-_test_fail
 1086              		.section	.text._test_assert,"ax",%progbits
 1087              		.align	2
 1088              		.p2align 4,,15
 1089              		.global	_test_assert
 1090              		.code	16
 1091              		.thumb_func
 1092              		.type	_test_assert, %function
 1093              	_test_assert:
 1094              	.LFB103:
ARM GAS  /tmp/ccLruy2S.s 			page 81


 1095              		.loc 1 110 0
 1096              		.cfi_startproc
 1097              	.LVL7:
 1098              		.loc 1 114 0
 1099 0000 0023     		mov	r3, #0
 1100              		.loc 1 112 0
 1101 0002 0028     		cmp	r0, #0
 1102 0004 07D1     		bne	.L11
 1103              	.LVL8:
 1104              	.LBB79:
 1105              	.LBB80:
 1106              		.loc 1 104 0
 1107 0006 054A     		ldr	r2, .L13
 1108 0008 0123     		mov	r3, #1
 1109 000a 1370     		strb	r3, [r2]
 1110              		.loc 1 105 0
 1111 000c 044A     		ldr	r2, .L13+4
 1112 000e 1370     		strb	r3, [r2]
 1113              		.loc 1 106 0
 1114 0010 044B     		ldr	r3, .L13+8
 1115 0012 1960     		str	r1, [r3]
 1116              	.LBE80:
 1117              	.LBE79:
 1118              		.loc 1 113 0
 1119 0014 0123     		mov	r3, #1
 1120              	.LVL9:
 1121              	.L11:
 1122              		.loc 1 115 0
 1123 0016 181C     		mov	r0, r3
 1124              	.LVL10:
 1125              		@ sp needed
 1126 0018 7047     		bx	lr
 1127              	.L14:
 1128 001a C046     		.align	2
 1129              	.L13:
 1130 001c 00000000 		.word	.LANCHOR1
 1131 0020 00000000 		.word	.LANCHOR2
 1132 0024 00000000 		.word	.LANCHOR3
 1133              		.cfi_endproc
 1134              	.LFE103:
 1135              		.size	_test_assert, .-_test_assert
 1136 0028 C046C046 		.section	.text._test_assert_sequence,"ax",%progbits
 1136      C046C046 
 1137              		.align	2
 1138              		.p2align 4,,15
 1139              		.global	_test_assert_sequence
 1140              		.code	16
 1141              		.thumb_func
 1142              		.type	_test_assert_sequence, %function
 1143              	_test_assert_sequence:
 1144              	.LFB104:
 1145              		.loc 1 117 0
 1146              		.cfi_startproc
 1147              	.LVL11:
 1148 0000 F0B5     		push	{r4, r5, r6, r7, lr}
 1149              		.cfi_def_cfa_offset 20
 1150              		.cfi_offset 4, -20
ARM GAS  /tmp/ccLruy2S.s 			page 82


 1151              		.cfi_offset 5, -16
 1152              		.cfi_offset 6, -12
 1153              		.cfi_offset 7, -8
 1154              		.cfi_offset 14, -4
 1155              		.loc 1 117 0
 1156 0002 8C46     		mov	ip, r1
 1157 0004 0F4F     		ldr	r7, .L21
 1158 0006 1049     		ldr	r1, .L21+4
 1159              	.LVL12:
 1160 0008 3E68     		ldr	r6, [r7]
 1161 000a 0B1C     		mov	r3, r1
 1162              		.loc 1 120 0
 1163 000c 05E0     		b	.L16
 1164              	.LVL13:
 1165              	.L19:
 1166              		.loc 1 121 0
 1167 000e 1578     		ldrb	r5, [r2]
 1168 0010 2278     		ldrb	r2, [r4]
 1169 0012 0130     		add	r0, r0, #1
 1170              	.LVL14:
 1171 0014 0133     		add	r3, r3, #1
 1172 0016 9542     		cmp	r5, r2
 1173 0018 09D1     		bne	.L20
 1174              	.LVL15:
 1175              	.L16:
 1176 001a 041C     		mov	r4, r0
 1177              	.LVL16:
 1178 001c 1A1C     		mov	r2, r3
 1179              		.loc 1 120 0 discriminator 1
 1180 001e 9E42     		cmp	r6, r3
 1181 0020 F5D8     		bhi	.L19
 1182              	.LVL17:
 1183              		.loc 1 125 0
 1184 0022 0378     		ldrb	r3, [r0]
 1185 0024 002B     		cmp	r3, #0
 1186 0026 02D1     		bne	.L20
 1187              	.LBB81:
 1188              	.LBB82:
 1189              		.loc 1 67 0
 1190 0028 3960     		str	r1, [r7]
 1191              	.LBE82:
 1192              	.LBE81:
 1193              		.loc 1 130 0
 1194 002a 0020     		mov	r0, #0
 1195              	.LVL18:
 1196 002c 08E0     		b	.L18
 1197              	.LVL19:
 1198              	.L20:
 1199              	.LBB83:
 1200              	.LBB84:
 1201              		.loc 1 104 0
 1202 002e 074A     		ldr	r2, .L21+8
 1203 0030 0123     		mov	r3, #1
 1204 0032 1370     		strb	r3, [r2]
 1205              		.loc 1 105 0
 1206 0034 064A     		ldr	r2, .L21+12
 1207              	.LBE84:
ARM GAS  /tmp/ccLruy2S.s 			page 83


 1208              	.LBE83:
 1209              		.loc 1 122 0
 1210 0036 0120     		mov	r0, #1
 1211              	.LVL20:
 1212              	.LBB86:
 1213              	.LBB85:
 1214              		.loc 1 105 0
 1215 0038 1370     		strb	r3, [r2]
 1216              		.loc 1 106 0
 1217 003a 064B     		ldr	r3, .L21+16
 1218 003c 6246     		mov	r2, ip
 1219 003e 1A60     		str	r2, [r3]
 1220              	.LVL21:
 1221              	.L18:
 1222              	.LBE85:
 1223              	.LBE86:
 1224              		.loc 1 131 0
 1225              		@ sp needed
 1226 0040 F0BD     		pop	{r4, r5, r6, r7, pc}
 1227              	.L22:
 1228 0042 C046     		.align	2
 1229              	.L21:
 1230 0044 00000000 		.word	.LANCHOR4
 1231 0048 00000000 		.word	.LANCHOR5
 1232 004c 00000000 		.word	.LANCHOR1
 1233 0050 00000000 		.word	.LANCHOR2
 1234 0054 00000000 		.word	.LANCHOR3
 1235              		.cfi_endproc
 1236              	.LFE104:
 1237              		.size	_test_assert_sequence, .-_test_assert_sequence
 1238 0058 C046C046 		.section	.text._test_assert_time_window,"ax",%progbits
 1238      C046C046 
 1239              		.align	2
 1240              		.p2align 4,,15
 1241              		.global	_test_assert_time_window
 1242              		.code	16
 1243              		.thumb_func
 1244              		.type	_test_assert_time_window, %function
 1245              	_test_assert_time_window:
 1246              	.LFB105:
 1247              		.loc 1 135 0
 1248              		.cfi_startproc
 1249              	.LVL22:
 1250              	.LBB87:
 1251              	.LBB88:
 1252              	.LBB89:
 1253              	.LBB90:
 1254              		.file 2 "../../../os/hal/ports/STM32/LLD/TIMv1/hal_st_lld.h"
 1255              		.loc 2 141 0
 1256 0000 8023     		mov	r3, #128
 1257 0002 DB05     		lsl	r3, r3, #23
 1258 0004 5B6A     		ldr	r3, [r3, #36]
 1259              	.LVL23:
 1260              	.LBE90:
 1261              	.LBE89:
 1262              	.LBE88:
 1263              	.LBE87:
ARM GAS  /tmp/ccLruy2S.s 			page 84


 1264              	.LBB91:
 1265              	.LBB92:
 1266              		.file 3 "../../../os/hal/osal/nil/osal.h"
 1267              		.loc 3 650 0
 1268 0006 091A     		sub	r1, r1, r0
 1269              	.LVL24:
 1270 0008 1B1A     		sub	r3, r3, r0
 1271              	.LVL25:
 1272              	.LBE92:
 1273              	.LBE91:
 1274              	.LBB93:
 1275              	.LBB94:
 1276              		.loc 1 114 0
 1277 000a 0020     		mov	r0, #0
 1278              	.LVL26:
 1279              		.loc 1 112 0
 1280 000c 8B42     		cmp	r3, r1
 1281 000e 07D3     		bcc	.L24
 1282              	.LVL27:
 1283              	.LBB95:
 1284              	.LBB96:
 1285              		.loc 1 104 0
 1286 0010 0449     		ldr	r1, .L26
 1287 0012 0123     		mov	r3, #1
 1288 0014 0B70     		strb	r3, [r1]
 1289              		.loc 1 105 0
 1290 0016 0449     		ldr	r1, .L26+4
 1291              	.LBE96:
 1292              	.LBE95:
 1293              		.loc 1 113 0
 1294 0018 0120     		mov	r0, #1
 1295              	.LBB98:
 1296              	.LBB97:
 1297              		.loc 1 105 0
 1298 001a 0B70     		strb	r3, [r1]
 1299              		.loc 1 106 0
 1300 001c 034B     		ldr	r3, .L26+8
 1301 001e 1A60     		str	r2, [r3]
 1302              	.LVL28:
 1303              	.L24:
 1304              	.LBE97:
 1305              	.LBE98:
 1306              	.LBE94:
 1307              	.LBE93:
 1308              		.loc 1 139 0
 1309              		@ sp needed
 1310 0020 7047     		bx	lr
 1311              	.L27:
 1312 0022 C046     		.align	2
 1313              	.L26:
 1314 0024 00000000 		.word	.LANCHOR1
 1315 0028 00000000 		.word	.LANCHOR2
 1316 002c 00000000 		.word	.LANCHOR3
 1317              		.cfi_endproc
 1318              	.LFE105:
 1319              		.size	_test_assert_time_window, .-_test_assert_time_window
 1320              		.global	__aeabi_uidivmod
ARM GAS  /tmp/ccLruy2S.s 			page 85


 1321              		.global	__aeabi_uidiv
 1322              		.section	.text.test_printn,"ax",%progbits
 1323              		.align	2
 1324              		.p2align 4,,15
 1325              		.global	test_printn
 1326              		.code	16
 1327              		.thumb_func
 1328              		.type	test_printn, %function
 1329              	test_printn:
 1330              	.LFB106:
 1331              		.loc 1 148 0
 1332              		.cfi_startproc
 1333              	.LVL29:
 1334 0000 F0B5     		push	{r4, r5, r6, r7, lr}
 1335              		.cfi_def_cfa_offset 20
 1336              		.cfi_offset 4, -20
 1337              		.cfi_offset 5, -16
 1338              		.cfi_offset 6, -12
 1339              		.cfi_offset 7, -8
 1340              		.cfi_offset 14, -4
 1341 0002 4746     		mov	r7, r8
 1342 0004 80B4     		push	{r7}
 1343              		.cfi_def_cfa_offset 24
 1344              		.cfi_offset 8, -24
 1345 0006 041C     		mov	r4, r0
 1346 0008 84B0     		sub	sp, sp, #16
 1347              		.cfi_def_cfa_offset 40
 1348              		.loc 1 151 0
 1349 000a 0028     		cmp	r0, #0
 1350 000c 28D0     		beq	.L36
 1351 000e 6F46     		mov	r7, sp
 1352 0010 0137     		add	r7, r7, #1
 1353 0012 3D1C     		mov	r5, r7
 1354              	.L32:
 1355              	.LVL30:
 1356              		.loc 1 156 0
 1357 0014 201C     		mov	r0, r4
 1358 0016 0A21     		mov	r1, #10
 1359 0018 FFF7FEFF 		bl	__aeabi_uidivmod
 1360              	.LVL31:
 1361 001c 0E1C     		mov	r6, r1
 1362 001e 3036     		add	r6, r6, #48
 1363 0020 6B1E     		sub	r3, r5, #1
 1364              	.LVL32:
 1365 0022 F6B2     		uxtb	r6, r6
 1366 0024 201C     		mov	r0, r4
 1367 0026 1E70     		strb	r6, [r3]
 1368 0028 0A21     		mov	r1, #10
 1369 002a FFF7FEFF 		bl	__aeabi_uidiv
 1370              	.LVL33:
 1371 002e A846     		mov	r8, r5
 1372              	.LVL34:
 1373 0030 041C     		mov	r4, r0
 1374              	.LVL35:
 1375 0032 0135     		add	r5, r5, #1
 1376              	.LVL36:
 1377              		.loc 1 155 0
ARM GAS  /tmp/ccLruy2S.s 			page 86


 1378 0034 0028     		cmp	r0, #0
 1379 0036 EDD1     		bne	.L32
 1380              		.loc 1 157 0 discriminator 1
 1381 0038 6B46     		mov	r3, sp
 1382 003a 9845     		cmp	r8, r3
 1383 003c 0CD9     		bls	.L28
 1384 003e 4446     		mov	r4, r8
 1385 0040 0B4D     		ldr	r5, .L38
 1386 0042 02E0     		b	.L35
 1387              	.LVL37:
 1388              	.L37:
 1389 0044 A31E     		sub	r3, r4, #2
 1390 0046 1E78     		ldrb	r6, [r3]
 1391 0048 013C     		sub	r4, r4, #1
 1392              	.LVL38:
 1393              	.L35:
 1394              		.loc 1 158 0
 1395 004a 2868     		ldr	r0, [r5]
 1396              	.LVL39:
 1397 004c 311C     		mov	r1, r6
 1398 004e 0368     		ldr	r3, [r0]
 1399 0050 9B68     		ldr	r3, [r3, #8]
 1400 0052 9847     		blx	r3
 1401              	.LVL40:
 1402              		.loc 1 157 0
 1403 0054 A742     		cmp	r7, r4
 1404 0056 F5D1     		bne	.L37
 1405              	.LVL41:
 1406              	.L28:
 1407              		.loc 1 160 0
 1408 0058 04B0     		add	sp, sp, #16
 1409              		@ sp needed
 1410 005a 04BC     		pop	{r2}
 1411 005c 9046     		mov	r8, r2
 1412 005e F0BD     		pop	{r4, r5, r6, r7, pc}
 1413              	.LVL42:
 1414              	.L36:
 1415              	.LBB101:
 1416              	.LBB102:
 1417              		.loc 1 152 0
 1418 0060 034B     		ldr	r3, .L38
 1419 0062 3021     		mov	r1, #48
 1420 0064 1868     		ldr	r0, [r3]
 1421              	.LVL43:
 1422 0066 0368     		ldr	r3, [r0]
 1423 0068 9B68     		ldr	r3, [r3, #8]
 1424 006a 9847     		blx	r3
 1425              	.LVL44:
 1426 006c F4E7     		b	.L28
 1427              	.L39:
 1428 006e C046     		.align	2
 1429              	.L38:
 1430 0070 00000000 		.word	.LANCHOR0
 1431              	.LBE102:
 1432              	.LBE101:
 1433              		.cfi_endproc
 1434              	.LFE106:
ARM GAS  /tmp/ccLruy2S.s 			page 87


 1435              		.size	test_printn, .-test_printn
 1436 0074 C046C046 		.section	.text.test_print,"ax",%progbits
 1436      C046C046 
 1436      C046C046 
 1437              		.align	2
 1438              		.p2align 4,,15
 1439              		.global	test_print
 1440              		.code	16
 1441              		.thumb_func
 1442              		.type	test_print, %function
 1443              	test_print:
 1444              	.LFB107:
 1445              		.loc 1 169 0
 1446              		.cfi_startproc
 1447              	.LVL45:
 1448 0000 38B5     		push	{r3, r4, r5, lr}
 1449              		.cfi_def_cfa_offset 16
 1450              		.cfi_offset 3, -16
 1451              		.cfi_offset 4, -12
 1452              		.cfi_offset 5, -8
 1453              		.cfi_offset 14, -4
 1454              		.loc 1 171 0
 1455 0002 0178     		ldrb	r1, [r0]
 1456              		.loc 1 169 0
 1457 0004 041C     		mov	r4, r0
 1458              		.loc 1 171 0
 1459 0006 0029     		cmp	r1, #0
 1460 0008 08D0     		beq	.L40
 1461 000a 054D     		ldr	r5, .L47
 1462              	.LVL46:
 1463              	.L43:
 1464              		.loc 1 172 0
 1465 000c 2868     		ldr	r0, [r5]
 1466 000e 0134     		add	r4, r4, #1
 1467              	.LVL47:
 1468 0010 0368     		ldr	r3, [r0]
 1469 0012 9B68     		ldr	r3, [r3, #8]
 1470 0014 9847     		blx	r3
 1471              	.LVL48:
 1472              		.loc 1 171 0
 1473 0016 2178     		ldrb	r1, [r4]
 1474 0018 0029     		cmp	r1, #0
 1475 001a F7D1     		bne	.L43
 1476              	.L40:
 1477              		.loc 1 173 0
 1478              		@ sp needed
 1479              	.LVL49:
 1480 001c 38BD     		pop	{r3, r4, r5, pc}
 1481              	.L48:
 1482 001e C046     		.align	2
 1483              	.L47:
 1484 0020 00000000 		.word	.LANCHOR0
 1485              		.cfi_endproc
 1486              	.LFE107:
 1487              		.size	test_print, .-test_print
 1488 0024 C046C046 		.section	.text.test_println,"ax",%progbits
 1488      C046C046 
ARM GAS  /tmp/ccLruy2S.s 			page 88


 1488      C046C046 
 1489              		.align	2
 1490              		.p2align 4,,15
 1491              		.global	test_println
 1492              		.code	16
 1493              		.thumb_func
 1494              		.type	test_println, %function
 1495              	test_println:
 1496              	.LFB108:
 1497              		.loc 1 182 0
 1498              		.cfi_startproc
 1499              	.LVL50:
 1500 0000 38B5     		push	{r3, r4, r5, lr}
 1501              		.cfi_def_cfa_offset 16
 1502              		.cfi_offset 3, -16
 1503              		.cfi_offset 4, -12
 1504              		.cfi_offset 5, -8
 1505              		.cfi_offset 14, -4
 1506              	.LBB103:
 1507              	.LBB104:
 1508              		.loc 1 171 0
 1509 0002 0178     		ldrb	r1, [r0]
 1510              	.LBE104:
 1511              	.LBE103:
 1512              		.loc 1 182 0
 1513 0004 041C     		mov	r4, r0
 1514 0006 094D     		ldr	r5, .L57
 1515              	.LBB106:
 1516              	.LBB105:
 1517              		.loc 1 171 0
 1518 0008 0029     		cmp	r1, #0
 1519 000a 07D0     		beq	.L51
 1520              	.LVL51:
 1521              	.L52:
 1522              		.loc 1 172 0
 1523 000c 2868     		ldr	r0, [r5]
 1524 000e 0134     		add	r4, r4, #1
 1525              	.LVL52:
 1526 0010 0368     		ldr	r3, [r0]
 1527 0012 9B68     		ldr	r3, [r3, #8]
 1528 0014 9847     		blx	r3
 1529              	.LVL53:
 1530              		.loc 1 171 0
 1531 0016 2178     		ldrb	r1, [r4]
 1532 0018 0029     		cmp	r1, #0
 1533 001a F7D1     		bne	.L52
 1534              	.L51:
 1535              	.LBE105:
 1536              	.LBE106:
 1537              		.loc 1 185 0
 1538 001c 2868     		ldr	r0, [r5]
 1539 001e 0449     		ldr	r1, .L57+4
 1540 0020 0368     		ldr	r3, [r0]
 1541 0022 0222     		mov	r2, #2
 1542 0024 1B68     		ldr	r3, [r3]
 1543 0026 9847     		blx	r3
 1544              	.LVL54:
ARM GAS  /tmp/ccLruy2S.s 			page 89


 1545              		.loc 1 186 0
 1546              		@ sp needed
 1547              	.LVL55:
 1548 0028 38BD     		pop	{r3, r4, r5, pc}
 1549              	.L58:
 1550 002a C046     		.align	2
 1551              	.L57:
 1552 002c 00000000 		.word	.LANCHOR0
 1553 0030 00000000 		.word	.LC1
 1554              		.cfi_endproc
 1555              	.LFE108:
 1556              		.size	test_println, .-test_println
 1557 0034 C046C046 		.section	.text.test_emit_token,"ax",%progbits
 1557      C046C046 
 1557      C046C046 
 1558              		.align	2
 1559              		.p2align 4,,15
 1560              		.global	test_emit_token
 1561              		.code	16
 1562              		.thumb_func
 1563              		.type	test_emit_token, %function
 1564              	test_emit_token:
 1565              	.LFB109:
 1566              		.loc 1 195 0
 1567              		.cfi_startproc
 1568              	.LVL56:
 1569              	.LBB107:
 1570              	.LBB108:
 1571              	.LBB109:
 1572              	.LBB110:
 1573              		.file 4 "../../../os/common/ext/CMSIS/include/cmsis_gcc.h"
 1574              		.loc 4 71 0
 1575              	@ 71 "../../../os/common/ext/CMSIS/include/cmsis_gcc.h" 1
 1576 0000 72B6     		cpsid i
 1577              	@ 0 "" 2
 1578              		.code	16
 1579              	.LBE110:
 1580              	.LBE109:
 1581              	.LBE108:
 1582              	.LBE107:
 1583              		.loc 1 198 0
 1584 0002 054A     		ldr	r2, .L61
 1585 0004 0549     		ldr	r1, .L61+4
 1586 0006 1368     		ldr	r3, [r2]
 1587 0008 1031     		add	r1, r1, #16
 1588 000a 8B42     		cmp	r3, r1
 1589 000c 02D2     		bcs	.L60
 1590              		.loc 1 199 0
 1591 000e 591C     		add	r1, r3, #1
 1592 0010 1160     		str	r1, [r2]
 1593 0012 1870     		strb	r0, [r3]
 1594              	.L60:
 1595              	.LBB111:
 1596              	.LBB112:
 1597              	.LBB113:
 1598              	.LBB114:
 1599              		.loc 4 60 0
ARM GAS  /tmp/ccLruy2S.s 			page 90


 1600              	@ 60 "../../../os/common/ext/CMSIS/include/cmsis_gcc.h" 1
 1601 0014 62B6     		cpsie i
 1602              	@ 0 "" 2
 1603              		.code	16
 1604              	.LBE114:
 1605              	.LBE113:
 1606              	.LBE112:
 1607              	.LBE111:
 1608              		.loc 1 201 0
 1609              		@ sp needed
 1610 0016 7047     		bx	lr
 1611              	.L62:
 1612              		.align	2
 1613              	.L61:
 1614 0018 00000000 		.word	.LANCHOR4
 1615 001c 00000000 		.word	.LANCHOR5
 1616              		.cfi_endproc
 1617              	.LFE109:
 1618              		.size	test_emit_token, .-test_emit_token
 1619              		.section	.text.test_emit_token_i,"ax",%progbits
 1620              		.align	2
 1621              		.p2align 4,,15
 1622              		.global	test_emit_token_i
 1623              		.code	16
 1624              		.thumb_func
 1625              		.type	test_emit_token_i, %function
 1626              	test_emit_token_i:
 1627              	.LFB110:
 1628              		.loc 1 210 0
 1629              		.cfi_startproc
 1630              	.LVL57:
 1631              		.loc 1 212 0
 1632 0000 044A     		ldr	r2, .L65
 1633 0002 0549     		ldr	r1, .L65+4
 1634 0004 1368     		ldr	r3, [r2]
 1635 0006 1031     		add	r1, r1, #16
 1636 0008 8B42     		cmp	r3, r1
 1637 000a 02D2     		bcs	.L63
 1638              		.loc 1 213 0
 1639 000c 591C     		add	r1, r3, #1
 1640 000e 1160     		str	r1, [r2]
 1641 0010 1870     		strb	r0, [r3]
 1642              	.L63:
 1643              		.loc 1 214 0
 1644              		@ sp needed
 1645 0012 7047     		bx	lr
 1646              	.L66:
 1647              		.align	2
 1648              	.L65:
 1649 0014 00000000 		.word	.LANCHOR4
 1650 0018 00000000 		.word	.LANCHOR5
 1651              		.cfi_endproc
 1652              	.LFE110:
 1653              		.size	test_emit_token_i, .-test_emit_token_i
 1654 001c C046C046 		.section	.text.test_execute,"ax",%progbits
 1655              		.align	2
 1656              		.p2align 4,,15
ARM GAS  /tmp/ccLruy2S.s 			page 91


 1657              		.global	test_execute
 1658              		.code	16
 1659              		.thumb_func
 1660              		.type	test_execute, %function
 1661              	test_execute:
 1662              	.LFB111:
 1663              		.loc 1 227 0
 1664              		.cfi_startproc
 1665              	.LVL58:
 1666 0000 F0B5     		push	{r4, r5, r6, r7, lr}
 1667              		.cfi_def_cfa_offset 20
 1668              		.cfi_offset 4, -20
 1669              		.cfi_offset 5, -16
 1670              		.cfi_offset 6, -12
 1671              		.cfi_offset 7, -8
 1672              		.cfi_offset 14, -4
 1673 0002 4D46     		mov	r5, r9
 1674 0004 4446     		mov	r4, r8
 1675 0006 5F46     		mov	r7, fp
 1676 0008 5646     		mov	r6, r10
 1677 000a F0B4     		push	{r4, r5, r6, r7}
 1678              		.cfi_def_cfa_offset 36
 1679              		.cfi_offset 8, -36
 1680              		.cfi_offset 9, -32
 1681              		.cfi_offset 10, -28
 1682              		.cfi_offset 11, -24
 1683              		.loc 1 230 0
 1684 000c 904C     		ldr	r4, .L132
 1685              		.loc 1 227 0
 1686 000e 83B0     		sub	sp, sp, #12
 1687              		.cfi_def_cfa_offset 48
 1688              		.loc 1 230 0
 1689 0010 2060     		str	r0, [r4]
 1690              		.loc 1 231 0
 1691 0012 9048     		ldr	r0, .L132+4
 1692              	.LVL59:
 1693 0014 FFF7FEFF 		bl	test_println
 1694              	.LVL60:
 1695              		.loc 1 233 0
 1696 0018 8F48     		ldr	r0, .L132+8
 1697 001a FFF7FEFF 		bl	test_println
 1698              	.LVL61:
 1699              		.loc 1 237 0
 1700 001e 8F48     		ldr	r0, .L132+12
 1701 0020 FFF7FEFF 		bl	test_println
 1702              	.LVL62:
 1703 0024 8E4D     		ldr	r5, .L132+16
 1704              	.LBB147:
 1705              	.LBB148:
 1706              		.loc 1 171 0
 1707 0026 2A21     		mov	r1, #42
 1708              	.LVL63:
 1709              	.L69:
 1710              		.loc 1 172 0
 1711 0028 2068     		ldr	r0, [r4]
 1712              	.LVL64:
 1713 002a 0135     		add	r5, r5, #1
ARM GAS  /tmp/ccLruy2S.s 			page 92


 1714              	.LVL65:
 1715 002c 0368     		ldr	r3, [r0]
 1716 002e 9B68     		ldr	r3, [r3, #8]
 1717 0030 9847     		blx	r3
 1718              	.LVL66:
 1719 0032 6B1E     		sub	r3, r5, #1
 1720              		.loc 1 171 0
 1721 0034 1978     		ldrb	r1, [r3]
 1722 0036 0029     		cmp	r1, #0
 1723 0038 F6D1     		bne	.L69
 1724              	.LBE148:
 1725              	.LBE147:
 1726              		.loc 1 239 0
 1727 003a 8A48     		ldr	r0, .L132+20
 1728 003c FFF7FEFF 		bl	test_println
 1729              	.LVL67:
 1730 0040 894D     		ldr	r5, .L132+24
 1731              	.LVL68:
 1732              	.LBB149:
 1733              	.LBB150:
 1734              		.loc 1 171 0
 1735 0042 2A21     		mov	r1, #42
 1736              	.LVL69:
 1737              	.L102:
 1738              		.loc 1 172 0
 1739 0044 2068     		ldr	r0, [r4]
 1740              	.LVL70:
 1741 0046 0135     		add	r5, r5, #1
 1742              	.LVL71:
 1743 0048 0368     		ldr	r3, [r0]
 1744 004a 9B68     		ldr	r3, [r3, #8]
 1745 004c 9847     		blx	r3
 1746              	.LVL72:
 1747 004e 6B1E     		sub	r3, r5, #1
 1748              		.loc 1 171 0
 1749 0050 1978     		ldrb	r1, [r3]
 1750 0052 0029     		cmp	r1, #0
 1751 0054 F6D1     		bne	.L102
 1752              	.LBE150:
 1753              	.LBE149:
 1754              		.loc 1 242 0
 1755 0056 8548     		ldr	r0, .L132+28
 1756 0058 FFF7FEFF 		bl	test_println
 1757              	.LVL73:
 1758              	.LBB151:
 1759              	.LBB152:
 1760              		.loc 1 171 0
 1761 005c 2A25     		mov	r5, #42
 1762              	.LVL74:
 1763 005e 844E     		ldr	r6, .L132+32
 1764 0060 291C     		mov	r1, r5
 1765              	.LVL75:
 1766              	.L103:
 1767              		.loc 1 172 0
 1768 0062 2068     		ldr	r0, [r4]
 1769              	.LVL76:
 1770 0064 0136     		add	r6, r6, #1
ARM GAS  /tmp/ccLruy2S.s 			page 93


 1771              	.LVL77:
 1772 0066 0368     		ldr	r3, [r0]
 1773 0068 9B68     		ldr	r3, [r3, #8]
 1774 006a 9847     		blx	r3
 1775              	.LVL78:
 1776 006c 731E     		sub	r3, r6, #1
 1777              		.loc 1 171 0
 1778 006e 1978     		ldrb	r1, [r3]
 1779 0070 0029     		cmp	r1, #0
 1780 0072 F6D1     		bne	.L103
 1781              	.LBE152:
 1782              	.LBE151:
 1783              		.loc 1 246 0
 1784 0074 7F48     		ldr	r0, .L132+36
 1785 0076 0D1C     		mov	r5, r1
 1786 0078 FFF7FEFF 		bl	test_println
 1787              	.LVL79:
 1788              		.loc 1 251 0
 1789 007c 7548     		ldr	r0, .L132+4
 1790 007e FFF7FEFF 		bl	test_println
 1791              	.LVL80:
 1792              		.loc 1 253 0
 1793 0082 7D4A     		ldr	r2, .L132+40
 1794 0084 1570     		strb	r5, [r2]
 1795              	.LVL81:
 1796              		.loc 1 255 0
 1797 0086 7D4A     		ldr	r2, .L132+44
 1798 0088 1368     		ldr	r3, [r2]
 1799 008a 002B     		cmp	r3, #0
 1800 008c 00D1     		bne	.LCB760
 1801 008e B6E0     		b	.L73	@long jump
 1802              	.LCB760:
 1803 0090 9146     		mov	r9, r2
 1804              		.loc 1 254 0
 1805 0092 0022     		mov	r2, #0
 1806 0094 9346     		mov	fp, r2
 1807              	.LBB153:
 1808              	.LBB154:
 1809              	.LBB155:
 1810              	.LBB156:
 1811              		.loc 1 67 0
 1812 0096 7A4A     		ldr	r2, .L132+48
 1813 0098 9246     		mov	r10, r2
 1814              	.LVL82:
 1815              	.L74:
 1816 009a 0122     		mov	r2, #1
 1817 009c 9344     		add	fp, fp, r2
 1818              	.LVL83:
 1819              	.LBE156:
 1820              	.LBE155:
 1821              	.LBE154:
 1822              	.LBE153:
 1823              	.LBB165:
 1824              	.LBB166:
 1825              		.loc 1 171 0 discriminator 1
 1826 009e 0022     		mov	r2, #0
 1827 00a0 0192     		str	r2, [sp, #4]
ARM GAS  /tmp/ccLruy2S.s 			page 94


 1828              	.LVL84:
 1829 00a2 019A     		ldr	r2, [sp, #4]
 1830 00a4 9600     		lsl	r6, r2, #2
 1831              	.LBE166:
 1832              	.LBE165:
 1833              		.loc 1 257 0 discriminator 1
 1834 00a6 9B59     		ldr	r3, [r3, r6]
 1835 00a8 002B     		cmp	r3, #0
 1836 00aa 00D1     		bne	.LCB795
 1837 00ac A0E0     		b	.L130	@long jump
 1838              	.LCB795:
 1839              	.L97:
 1840              		.loc 1 258 0
 1841 00ae FFF7FEFF 		bl	print_line
 1842              	.LVL85:
 1843 00b2 744D     		ldr	r5, .L132+52
 1844              	.LBB169:
 1845              	.LBB170:
 1846              		.loc 1 171 0
 1847 00b4 2D21     		mov	r1, #45
 1848              	.LVL86:
 1849              	.L76:
 1850              		.loc 1 172 0
 1851 00b6 2068     		ldr	r0, [r4]
 1852              	.LVL87:
 1853 00b8 0135     		add	r5, r5, #1
 1854              	.LVL88:
 1855 00ba 0368     		ldr	r3, [r0]
 1856 00bc 9B68     		ldr	r3, [r3, #8]
 1857 00be 9847     		blx	r3
 1858              	.LVL89:
 1859 00c0 6B1E     		sub	r3, r5, #1
 1860              		.loc 1 171 0
 1861 00c2 1978     		ldrb	r1, [r3]
 1862 00c4 0029     		cmp	r1, #0
 1863 00c6 F6D1     		bne	.L76
 1864              	.LBE170:
 1865              	.LBE169:
 1866              		.loc 1 260 0
 1867 00c8 5846     		mov	r0, fp
 1868 00ca FFF7FEFF 		bl	test_printn
 1869              	.LVL90:
 1870              	.LBB171:
 1871              	.LBB172:
 1872              		.loc 1 172 0
 1873 00ce 2068     		ldr	r0, [r4]
 1874              	.LVL91:
 1875 00d0 2E21     		mov	r1, #46
 1876 00d2 0368     		ldr	r3, [r0]
 1877 00d4 9B68     		ldr	r3, [r3, #8]
 1878 00d6 9847     		blx	r3
 1879              	.LVL92:
 1880              	.LBE172:
 1881              	.LBE171:
 1882              		.loc 1 262 0
 1883 00d8 019A     		ldr	r2, [sp, #4]
 1884 00da 0132     		add	r2, r2, #1
ARM GAS  /tmp/ccLruy2S.s 			page 95


 1885 00dc 101C     		mov	r0, r2
 1886 00de 0192     		str	r2, [sp, #4]
 1887 00e0 FFF7FEFF 		bl	test_printn
 1888              	.LVL93:
 1889 00e4 684D     		ldr	r5, .L132+56
 1890              	.LVL94:
 1891              	.LBB173:
 1892              	.LBB174:
 1893              		.loc 1 171 0
 1894 00e6 2021     		mov	r1, #32
 1895              	.LVL95:
 1896              	.L104:
 1897              		.loc 1 172 0
 1898 00e8 2068     		ldr	r0, [r4]
 1899              	.LVL96:
 1900 00ea 0135     		add	r5, r5, #1
 1901              	.LVL97:
 1902 00ec 0368     		ldr	r3, [r0]
 1903 00ee 9B68     		ldr	r3, [r3, #8]
 1904 00f0 9847     		blx	r3
 1905              	.LVL98:
 1906 00f2 6B1E     		sub	r3, r5, #1
 1907              		.loc 1 171 0
 1908 00f4 1978     		ldrb	r1, [r3]
 1909 00f6 0029     		cmp	r1, #0
 1910 00f8 F6D1     		bne	.L104
 1911              	.LBE174:
 1912              	.LBE173:
 1913              		.loc 1 264 0
 1914 00fa 4A46     		mov	r2, r9
 1915 00fc 1268     		ldr	r2, [r2]
 1916 00fe 9359     		ldr	r3, [r2, r6]
 1917 0100 1D68     		ldr	r5, [r3]
 1918              	.LVL99:
 1919              	.LBB175:
 1920              	.LBB176:
 1921              		.loc 1 171 0
 1922 0102 2978     		ldrb	r1, [r5]
 1923 0104 0029     		cmp	r1, #0
 1924 0106 07D0     		beq	.L81
 1925              	.L117:
 1926              		.loc 1 172 0
 1927 0108 2068     		ldr	r0, [r4]
 1928 010a 0135     		add	r5, r5, #1
 1929              	.LVL100:
 1930 010c 0368     		ldr	r3, [r0]
 1931 010e 9B68     		ldr	r3, [r3, #8]
 1932 0110 9847     		blx	r3
 1933              	.LVL101:
 1934              		.loc 1 171 0
 1935 0112 2978     		ldrb	r1, [r5]
 1936 0114 0029     		cmp	r1, #0
 1937 0116 F7D1     		bne	.L117
 1938              	.L81:
 1939              	.LBE176:
 1940              	.LBE175:
 1941              		.loc 1 265 0
ARM GAS  /tmp/ccLruy2S.s 			page 96


 1942 0118 5C48     		ldr	r0, .L132+60
 1943 011a FFF7FEFF 		bl	test_println
 1944              	.LVL102:
 1945              	.LBB177:
 1946              	.LBB178:
 1947              		.loc 3 684 0
 1948 011e C820     		mov	r0, #200
 1949 0120 FFF7FEFF 		bl	chThdSleep
 1950              	.LVL103:
 1951              	.LBE178:
 1952              	.LBE177:
 1953              		.loc 1 269 0
 1954 0124 4B46     		mov	r3, r9
 1955 0126 1B68     		ldr	r3, [r3]
 1956              	.LBB179:
 1957              	.LBB163:
 1958              	.LBB160:
 1959              	.LBB157:
 1960              		.loc 1 67 0
 1961 0128 5246     		mov	r2, r10
 1962              	.LBE157:
 1963              	.LBE160:
 1964              	.LBE163:
 1965              	.LBE179:
 1966              		.loc 1 269 0
 1967 012a 9D59     		ldr	r5, [r3, r6]
 1968              	.LVL104:
 1969              	.LBB180:
 1970              	.LBB164:
 1971              		.loc 1 81 0
 1972 012c 584B     		ldr	r3, .L132+64
 1973              	.LBB161:
 1974              	.LBB158:
 1975              		.loc 1 67 0
 1976 012e 594E     		ldr	r6, .L132+68
 1977              	.LBE158:
 1978              	.LBE161:
 1979              		.loc 1 81 0
 1980 0130 9846     		mov	r8, r3
 1981              	.LBB162:
 1982              	.LBB159:
 1983              		.loc 1 67 0
 1984 0132 3260     		str	r2, [r6]
 1985              	.LBE159:
 1986              	.LBE162:
 1987              		.loc 1 81 0
 1988 0134 0023     		mov	r3, #0
 1989 0136 4246     		mov	r2, r8
 1990 0138 1370     		strb	r3, [r2]
 1991              		.loc 1 83 0
 1992 013a 6B68     		ldr	r3, [r5, #4]
 1993 013c 002B     		cmp	r3, #0
 1994 013e 00D0     		beq	.L80
 1995              		.loc 1 84 0
 1996 0140 9847     		blx	r3
 1997              	.LVL105:
 1998              	.L80:
ARM GAS  /tmp/ccLruy2S.s 			page 97


 1999              		.loc 1 85 0
 2000 0142 EB68     		ldr	r3, [r5, #12]
 2001 0144 9847     		blx	r3
 2002              	.LVL106:
 2003              		.loc 1 86 0
 2004 0146 AB68     		ldr	r3, [r5, #8]
 2005 0148 002B     		cmp	r3, #0
 2006 014a 00D0     		beq	.L83
 2007              		.loc 1 87 0
 2008 014c 9847     		blx	r3
 2009              	.LVL107:
 2010              	.L83:
 2011              	.LBE164:
 2012              	.LBE180:
 2013              		.loc 1 270 0
 2014 014e 4246     		mov	r2, r8
 2015 0150 1378     		ldrb	r3, [r2]
 2016 0152 002B     		cmp	r3, #0
 2017 0154 00D1     		bne	.LCB971
 2018 0156 72E0     		b	.L84	@long jump
 2019              	.LCB971:
 2020 0158 4F4D     		ldr	r5, .L132+72
 2021              	.LVL108:
 2022              	.LBB181:
 2023              	.LBB182:
 2024              		.loc 1 171 0
 2025 015a 2D21     		mov	r1, #45
 2026              	.L86:
 2027              	.LVL109:
 2028              		.loc 1 172 0
 2029 015c 2068     		ldr	r0, [r4]
 2030              	.LVL110:
 2031 015e 0135     		add	r5, r5, #1
 2032              	.LVL111:
 2033 0160 0368     		ldr	r3, [r0]
 2034 0162 9B68     		ldr	r3, [r3, #8]
 2035 0164 9847     		blx	r3
 2036              	.LVL112:
 2037 0166 6B1E     		sub	r3, r5, #1
 2038              		.loc 1 171 0
 2039 0168 1978     		ldrb	r1, [r3]
 2040 016a 0029     		cmp	r1, #0
 2041 016c F6D1     		bne	.L86
 2042              	.LBE182:
 2043              	.LBE181:
 2044              		.loc 1 272 0
 2045 016e 4B4B     		ldr	r3, .L132+76
 2046 0170 1868     		ldr	r0, [r3]
 2047 0172 FFF7FEFF 		bl	test_printn
 2048              	.LVL113:
 2049 0176 4A4D     		ldr	r5, .L132+80
 2050              	.LVL114:
 2051              	.LBB183:
 2052              	.LBB167:
 2053              		.loc 1 171 0
 2054 0178 2021     		mov	r1, #32
 2055              	.LVL115:
ARM GAS  /tmp/ccLruy2S.s 			page 98


 2056              	.L105:
 2057              		.loc 1 172 0
 2058 017a 2068     		ldr	r0, [r4]
 2059              	.LVL116:
 2060 017c 0135     		add	r5, r5, #1
 2061              	.LVL117:
 2062 017e 0368     		ldr	r3, [r0]
 2063 0180 9B68     		ldr	r3, [r3, #8]
 2064 0182 9847     		blx	r3
 2065              	.LVL118:
 2066 0184 6B1E     		sub	r3, r5, #1
 2067              		.loc 1 171 0
 2068 0186 1978     		ldrb	r1, [r3]
 2069 0188 0029     		cmp	r1, #0
 2070 018a F6D1     		bne	.L105
 2071              	.LVL119:
 2072              	.LBE167:
 2073              	.LBE183:
 2074              	.LBB184:
 2075              	.LBB185:
 2076              		.loc 1 73 0
 2077 018c 3368     		ldr	r3, [r6]
 2078 018e 454D     		ldr	r5, .L132+84
 2079              	.LVL120:
 2080 0190 5345     		cmp	r3, r10
 2081 0192 0AD9     		bls	.L90
 2082              	.LVL121:
 2083              	.L118:
 2084              		.loc 1 74 0
 2085 0194 2068     		ldr	r0, [r4]
 2086 0196 6A1E     		sub	r2, r5, #1
 2087              	.LVL122:
 2088 0198 0368     		ldr	r3, [r0]
 2089 019a 1178     		ldrb	r1, [r2]
 2090 019c 9B68     		ldr	r3, [r3, #8]
 2091 019e 9847     		blx	r3
 2092              	.LVL123:
 2093              		.loc 1 73 0
 2094 01a0 3268     		ldr	r2, [r6]
 2095              		.loc 1 74 0
 2096 01a2 2F1C     		mov	r7, r5
 2097              	.LVL124:
 2098 01a4 0135     		add	r5, r5, #1
 2099              	.LVL125:
 2100              		.loc 1 73 0
 2101 01a6 9742     		cmp	r7, r2
 2102 01a8 F4D3     		bcc	.L118
 2103              	.LVL126:
 2104              	.L90:
 2105 01aa 3F4D     		ldr	r5, .L132+88
 2106              	.LBE185:
 2107              	.LBE184:
 2108              	.LBB186:
 2109              	.LBB168:
 2110              		.loc 1 171 0
 2111 01ac 5D21     		mov	r1, #93
 2112              	.L89:
ARM GAS  /tmp/ccLruy2S.s 			page 99


 2113              	.LVL127:
 2114              	.LBE168:
 2115              	.LBE186:
 2116              	.LBB187:
 2117              	.LBB188:
 2118              		.loc 1 172 0
 2119 01ae 2068     		ldr	r0, [r4]
 2120              	.LVL128:
 2121 01b0 0135     		add	r5, r5, #1
 2122              	.LVL129:
 2123 01b2 0368     		ldr	r3, [r0]
 2124 01b4 9B68     		ldr	r3, [r3, #8]
 2125 01b6 9847     		blx	r3
 2126              	.LVL130:
 2127 01b8 6B1E     		sub	r3, r5, #1
 2128              		.loc 1 171 0
 2129 01ba 1978     		ldrb	r1, [r3]
 2130 01bc 0029     		cmp	r1, #0
 2131 01be F6D1     		bne	.L89
 2132              	.LBE188:
 2133              	.LBE187:
 2134              		.loc 1 276 0
 2135 01c0 3A4B     		ldr	r3, .L132+92
 2136 01c2 1D68     		ldr	r5, [r3]
 2137              	.LVL131:
 2138              	.LBB189:
 2139              	.LBB190:
 2140              		.loc 1 171 0
 2141 01c4 2978     		ldrb	r1, [r5]
 2142 01c6 0029     		cmp	r1, #0
 2143 01c8 07D0     		beq	.L95
 2144              	.L119:
 2145              		.loc 1 172 0
 2146 01ca 2068     		ldr	r0, [r4]
 2147 01cc 0135     		add	r5, r5, #1
 2148              	.LVL132:
 2149 01ce 0368     		ldr	r3, [r0]
 2150 01d0 9B68     		ldr	r3, [r3, #8]
 2151 01d2 9847     		blx	r3
 2152              	.LVL133:
 2153              		.loc 1 171 0
 2154 01d4 2978     		ldrb	r1, [r5]
 2155 01d6 0029     		cmp	r1, #0
 2156 01d8 F7D1     		bne	.L119
 2157              	.L95:
 2158              	.LBE190:
 2159              	.LBE189:
 2160              		.loc 1 277 0
 2161 01da 3548     		ldr	r0, .L132+96
 2162 01dc FFF7FEFF 		bl	test_println
 2163              	.LVL134:
 2164              	.L94:
 2165 01e0 4A46     		mov	r2, r9
 2166 01e2 1368     		ldr	r3, [r2]
 2167              	.LVL135:
 2168 01e4 019A     		ldr	r2, [sp, #4]
 2169 01e6 9600     		lsl	r6, r2, #2
ARM GAS  /tmp/ccLruy2S.s 			page 100


 2170              		.loc 1 257 0 discriminator 1
 2171 01e8 9B59     		ldr	r3, [r3, r6]
 2172 01ea 002B     		cmp	r3, #0
 2173 01ec 00D0     		beq	.LCB1128
 2174 01ee 5EE7     		b	.L97	@long jump
 2175              	.LCB1128:
 2176              	.LVL136:
 2177              	.L130:
 2178 01f0 0423     		mov	r3, #4
 2179 01f2 9944     		add	r9, r9, r3
 2180              		.loc 1 255 0
 2181 01f4 4A46     		mov	r2, r9
 2182              	.LVL137:
 2183 01f6 1368     		ldr	r3, [r2]
 2184 01f8 002B     		cmp	r3, #0
 2185 01fa 00D0     		beq	.LCB1145
 2186 01fc 4DE7     		b	.L74	@long jump
 2187              	.LCB1145:
 2188              	.LVL138:
 2189              	.L73:
 2190              		.loc 1 285 0
 2191 01fe FFF7FEFF 		bl	print_line
 2192              	.LVL139:
 2193              		.loc 1 286 0
 2194 0202 1448     		ldr	r0, .L132+4
 2195 0204 FFF7FEFF 		bl	test_println
 2196              	.LVL140:
 2197 0208 2A4D     		ldr	r5, .L132+100
 2198              	.LBB191:
 2199              	.LBB192:
 2200              		.loc 1 171 0
 2201 020a 4621     		mov	r1, #70
 2202              	.LVL141:
 2203              	.L106:
 2204              		.loc 1 172 0
 2205 020c 2068     		ldr	r0, [r4]
 2206              	.LVL142:
 2207 020e 0135     		add	r5, r5, #1
 2208              	.LVL143:
 2209 0210 0368     		ldr	r3, [r0]
 2210 0212 9B68     		ldr	r3, [r3, #8]
 2211 0214 9847     		blx	r3
 2212              	.LVL144:
 2213 0216 6B1E     		sub	r3, r5, #1
 2214              		.loc 1 171 0
 2215 0218 1978     		ldrb	r1, [r3]
 2216 021a 0029     		cmp	r1, #0
 2217 021c F6D1     		bne	.L106
 2218              	.LBE192:
 2219              	.LBE191:
 2220              		.loc 1 288 0
 2221 021e 164A     		ldr	r2, .L132+40
 2222 0220 1378     		ldrb	r3, [r2]
 2223 0222 002B     		cmp	r3, #0
 2224 0224 0FD1     		bne	.L131
 2225              		.loc 1 291 0
 2226 0226 2448     		ldr	r0, .L132+104
ARM GAS  /tmp/ccLruy2S.s 			page 101


 2227 0228 FFF7FEFF 		bl	test_println
 2228              	.LVL145:
 2229              	.L101:
 2230              		.loc 1 297 0
 2231 022c 124B     		ldr	r3, .L132+40
 2232 022e 1878     		ldrb	r0, [r3]
 2233              		.loc 1 298 0
 2234 0230 03B0     		add	sp, sp, #12
 2235              		@ sp needed
 2236              	.LVL146:
 2237 0232 3CBC     		pop	{r2, r3, r4, r5}
 2238 0234 9046     		mov	r8, r2
 2239 0236 9946     		mov	r9, r3
 2240 0238 A246     		mov	r10, r4
 2241 023a AB46     		mov	fp, r5
 2242 023c F0BD     		pop	{r4, r5, r6, r7, pc}
 2243              	.LVL147:
 2244              	.L84:
 2245              		.loc 1 280 0
 2246 023e 1F48     		ldr	r0, .L132+108
 2247 0240 FFF7FEFF 		bl	test_println
 2248              	.LVL148:
 2249 0244 CCE7     		b	.L94
 2250              	.LVL149:
 2251              	.L131:
 2252              		.loc 1 289 0
 2253 0246 1E48     		ldr	r0, .L132+112
 2254 0248 FFF7FEFF 		bl	test_println
 2255              	.LVL150:
 2256 024c EEE7     		b	.L101
 2257              	.L133:
 2258 024e C046     		.align	2
 2259              	.L132:
 2260 0250 00000000 		.word	.LANCHOR0
 2261 0254 04000000 		.word	.LC32
 2262 0258 08000000 		.word	.LC34
 2263 025c 24000000 		.word	.LC36
 2264 0260 01000000 		.word	.LC38+1
 2265 0264 AC000000 		.word	.LC64
 2266 0268 01000000 		.word	.LC66+1
 2267 026c D8000000 		.word	.LC68
 2268 0270 01000000 		.word	.LC70+1
 2269 0274 3C000000 		.word	.LC40
 2270 0278 00000000 		.word	.LANCHOR2
 2271 027c 00000000 		.word	test_suite
 2272 0280 00000000 		.word	.LANCHOR5
 2273 0284 01000000 		.word	.LC44+1
 2274 0288 01000000 		.word	.LC72+1
 2275 028c 64000000 		.word	.LC46
 2276 0290 00000000 		.word	.LANCHOR1
 2277 0294 00000000 		.word	.LANCHOR4
 2278 0298 01000000 		.word	.LC51+1
 2279 029c 00000000 		.word	.LANCHOR6
 2280 02a0 01000000 		.word	.LC75+1
 2281 02a4 01000000 		.word	.LANCHOR5+1
 2282 02a8 01000000 		.word	.LC53+1
 2283 02ac 00000000 		.word	.LANCHOR3
ARM GAS  /tmp/ccLruy2S.s 			page 102


 2284 02b0 84000000 		.word	.LC56
 2285 02b4 01000000 		.word	.LC77+1
 2286 02b8 A4000000 		.word	.LC62
 2287 02bc 88000000 		.word	.LC58
 2288 02c0 9C000000 		.word	.LC60
 2289              		.cfi_endproc
 2290              	.LFE111:
 2291              		.size	test_execute, .-test_execute
 2292              		.global	test_global_fail
 2293              		.global	test_step
 2294 02c4 C046C046 		.section	.bss.test_failure_message,"aw",%nobits
 2294      C046C046 
 2294      C046C046 
 2295              		.align	2
 2296              		.set	.LANCHOR3,. + 0
 2297              		.type	test_failure_message, %object
 2298              		.size	test_failure_message, 4
 2299              	test_failure_message:
 2300 0000 00000000 		.space	4
 2301              		.section	.bss.test_local_fail,"aw",%nobits
 2302              		.set	.LANCHOR1,. + 0
 2303              		.type	test_local_fail, %object
 2304              		.size	test_local_fail, 1
 2305              	test_local_fail:
 2306 0000 00       		.space	1
 2307              		.section	.rodata.str1.4,"aMS",%progbits,1
 2308              		.align	2
 2309              	.LC1:
 2310 0000 0D0A00   		.ascii	"\015\012\000"
 2311 0003 00       		.space	1
 2312              	.LC32:
 2313 0004 00       		.ascii	"\000"
 2314 0005 000000   		.space	3
 2315              	.LC34:
 2316 0008 2A2A2A20 		.ascii	"*** ChibiOS/NIL Test Suite\000"
 2316      43686962 
 2316      694F532F 
 2316      4E494C20 
 2316      54657374 
 2317 0023 00       		.space	1
 2318              	.LC36:
 2319 0024 2A2A2A00 		.ascii	"***\000"
 2320              	.LC38:
 2321 0028 2A2A2A20 		.ascii	"*** Compiled:     \000"
 2321      436F6D70 
 2321      696C6564 
 2321      3A202020 
 2321      202000
 2322 003b 00       		.space	1
 2323              	.LC40:
 2324 003c 53542053 		.ascii	"ST STM32F0-Discovery\000"
 2324      544D3332 
 2324      46302D44 
 2324      6973636F 
 2324      76657279 
 2325 0051 000000   		.space	3
 2326              	.LC44:
ARM GAS  /tmp/ccLruy2S.s 			page 103


 2327 0054 2D2D2D20 		.ascii	"--- Test Case \000"
 2327      54657374 
 2327      20436173 
 2327      652000
 2328 0063 00       		.space	1
 2329              	.LC46:
 2330 0064 2900     		.ascii	")\000"
 2331 0066 0000     		.space	2
 2332              	.LC51:
 2333 0068 2D2D2D20 		.ascii	"--- Result: FAILURE (#\000"
 2333      52657375 
 2333      6C743A20 
 2333      4641494C 
 2333      55524520 
 2334 007f 00       		.space	1
 2335              	.LC53:
 2336 0080 5D202200 		.ascii	"] \"\000"
 2337              	.LC56:
 2338 0084 222900   		.ascii	"\")\000"
 2339 0087 00       		.space	1
 2340              	.LC58:
 2341 0088 2D2D2D20 		.ascii	"--- Result: SUCCESS\000"
 2341      52657375 
 2341      6C743A20 
 2341      53554343 
 2341      45535300 
 2342              	.LC60:
 2343 009c 4641494C 		.ascii	"FAILURE\000"
 2343      55524500 
 2344              	.LC62:
 2345 00a4 53554343 		.ascii	"SUCCESS\000"
 2345      45535300 
 2346              	.LC64:
 2347 00ac 4E6F7620 		.ascii	"Nov  9 2016 - 19:34:47\000"
 2347      20392032 
 2347      30313620 
 2347      2D203139 
 2347      3A33343A 
 2348 00c3 00       		.space	1
 2349              	.LC66:
 2350 00c4 2A2A2A20 		.ascii	"*** Platform:     \000"
 2350      506C6174 
 2350      666F726D 
 2350      3A202020 
 2350      202000
 2351 00d7 00       		.space	1
 2352              	.LC68:
 2353 00d8 53544D33 		.ascii	"STM32F051x8 Entry Level Medium Density devices\000"
 2353      32463035 
 2353      31783820 
 2353      456E7472 
 2353      79204C65 
 2354 0107 00       		.space	1
 2355              	.LC70:
 2356 0108 2A2A2A20 		.ascii	"*** Test Board:   \000"
 2356      54657374 
 2356      20426F61 
ARM GAS  /tmp/ccLruy2S.s 			page 104


 2356      72643A20 
 2356      202000
 2357 011b 00       		.space	1
 2358              	.LC72:
 2359 011c 202800   		.ascii	" (\000"
 2360 011f 00       		.space	1
 2361              	.LC75:
 2362 0120 205B00   		.ascii	" [\000"
 2363 0123 00       		.space	1
 2364              	.LC77:
 2365 0124 46696E61 		.ascii	"Final result: \000"
 2365      6C207265 
 2365      73756C74 
 2365      3A2000
 2366 0133 00       		.section	.bss.test_chp,"aw",%nobits
 2367              		.align	2
 2368              		.set	.LANCHOR0,. + 0
 2369              		.type	test_chp, %object
 2370              		.size	test_chp, 4
 2371              	test_chp:
 2372 0000 00000000 		.space	4
 2373              		.section	.bss.test_tokp,"aw",%nobits
 2374              		.align	2
 2375              		.set	.LANCHOR4,. + 0
 2376              		.type	test_tokp, %object
 2377              		.size	test_tokp, 4
 2378              	test_tokp:
 2379 0000 00000000 		.space	4
 2380              		.section	.bss.test_step,"aw",%nobits
 2381              		.align	2
 2382              		.set	.LANCHOR6,. + 0
 2383              		.type	test_step, %object
 2384              		.size	test_step, 4
 2385              	test_step:
 2386 0000 00000000 		.space	4
 2387              		.section	.bss.test_tokens_buffer,"aw",%nobits
 2388              		.align	2
 2389              		.set	.LANCHOR5,. + 0
 2390              		.type	test_tokens_buffer, %object
 2391              		.size	test_tokens_buffer, 16
 2392              	test_tokens_buffer:
 2393 0000 00000000 		.space	16
 2393      00000000 
 2393      00000000 
 2393      00000000 
 2394              		.section	.bss.test_global_fail,"aw",%nobits
 2395              		.set	.LANCHOR2,. + 0
 2396              		.type	test_global_fail, %object
 2397              		.size	test_global_fail, 1
 2398              	test_global_fail:
 2399 0000 00       		.space	1
 2400              		.text
 2401              	.Letext0:
 2402              		.file 5 "/usr/lib/gcc/arm-none-eabi/4.8.2/include/stddef.h"
 2403              		.file 6 "/usr/include/newlib/machine/_default_types.h"
 2404              		.file 7 "/usr/include/newlib/stdint.h"
 2405              		.file 8 "../../../os/common/ports/ARMCMx/compilers/GCC/chtypes.h"
ARM GAS  /tmp/ccLruy2S.s 			page 105


 2406              		.file 9 "../../../os/nil/include/ch.h"
 2407              		.file 10 "../../../os/hal/ports/STM32/LLD/TIMv1/stm32_tim.h"
 2408              		.file 11 "../../../os/hal/include/hal_streams.h"
 2409              		.file 12 "../../../test/lib/ch_test.h"
 2410              		.file 13 "../../../os/common/ports/ARMCMx/chcore_v6m.h"
 2411              		.file 14 "../../../os/common/ports/ARMCMx/chcore_timer.h"
 2412              		.file 15 "../../../test/nil/source/test/test_root.h"
 2413              		.section	.debug_info,"",%progbits
 2414              	.Ldebug_info0:
 2415 0000 B30C0000 		.4byte	0xcb3
 2416 0004 0400     		.2byte	0x4
 2417 0006 00000000 		.4byte	.Ldebug_abbrev0
 2418 000a 04       		.byte	0x4
 2419 000b 01       		.uleb128 0x1
 2420 000c 0B000000 		.4byte	.LASF77
 2421 0010 01       		.byte	0x1
 2422 0011 6C040000 		.4byte	.LASF78
 2423 0015 A5020000 		.4byte	.LASF79
 2424 0019 B0000000 		.4byte	.Ldebug_ranges0+0xb0
 2425 001d 00000000 		.4byte	0
 2426 0021 00000000 		.4byte	.Ldebug_line0
 2427 0025 02       		.uleb128 0x2
 2428 0026 04       		.byte	0x4
 2429 0027 05       		.byte	0x5
 2430 0028 696E7400 		.ascii	"int\000"
 2431 002c 03       		.uleb128 0x3
 2432 002d FA000000 		.4byte	.LASF2
 2433 0031 05       		.byte	0x5
 2434 0032 D4       		.byte	0xd4
 2435 0033 37000000 		.4byte	0x37
 2436 0037 04       		.uleb128 0x4
 2437 0038 04       		.byte	0x4
 2438 0039 07       		.byte	0x7
 2439 003a 98020000 		.4byte	.LASF0
 2440 003e 04       		.uleb128 0x4
 2441 003f 01       		.byte	0x1
 2442 0040 06       		.byte	0x6
 2443 0041 6C020000 		.4byte	.LASF1
 2444 0045 03       		.uleb128 0x3
 2445 0046 04020000 		.4byte	.LASF3
 2446 004a 06       		.byte	0x6
 2447 004b 1C       		.byte	0x1c
 2448 004c 50000000 		.4byte	0x50
 2449 0050 04       		.uleb128 0x4
 2450 0051 01       		.byte	0x1
 2451 0052 08       		.byte	0x8
 2452 0053 4A020000 		.4byte	.LASF4
 2453 0057 04       		.uleb128 0x4
 2454 0058 02       		.byte	0x2
 2455 0059 05       		.byte	0x5
 2456 005a 7B010000 		.4byte	.LASF5
 2457 005e 04       		.uleb128 0x4
 2458 005f 02       		.byte	0x2
 2459 0060 07       		.byte	0x7
 2460 0061 01030000 		.4byte	.LASF6
 2461 0065 03       		.uleb128 0x3
 2462 0066 DE030000 		.4byte	.LASF7
ARM GAS  /tmp/ccLruy2S.s 			page 106


 2463 006a 06       		.byte	0x6
 2464 006b 37       		.byte	0x37
 2465 006c 70000000 		.4byte	0x70
 2466 0070 04       		.uleb128 0x4
 2467 0071 04       		.byte	0x4
 2468 0072 05       		.byte	0x5
 2469 0073 3F040000 		.4byte	.LASF8
 2470 0077 03       		.uleb128 0x3
 2471 0078 65010000 		.4byte	.LASF9
 2472 007c 06       		.byte	0x6
 2473 007d 38       		.byte	0x38
 2474 007e 82000000 		.4byte	0x82
 2475 0082 04       		.uleb128 0x4
 2476 0083 04       		.byte	0x4
 2477 0084 07       		.byte	0x7
 2478 0085 C7030000 		.4byte	.LASF10
 2479 0089 04       		.uleb128 0x4
 2480 008a 08       		.byte	0x8
 2481 008b 05       		.byte	0x5
 2482 008c C5010000 		.4byte	.LASF11
 2483 0090 04       		.uleb128 0x4
 2484 0091 08       		.byte	0x8
 2485 0092 07       		.byte	0x7
 2486 0093 78020000 		.4byte	.LASF12
 2487 0097 03       		.uleb128 0x3
 2488 0098 FB030000 		.4byte	.LASF13
 2489 009c 07       		.byte	0x7
 2490 009d 2A       		.byte	0x2a
 2491 009e 45000000 		.4byte	0x45
 2492 00a2 03       		.uleb128 0x3
 2493 00a3 54030000 		.4byte	.LASF14
 2494 00a7 07       		.byte	0x7
 2495 00a8 41       		.byte	0x41
 2496 00a9 65000000 		.4byte	0x65
 2497 00ad 03       		.uleb128 0x3
 2498 00ae 8F020000 		.4byte	.LASF15
 2499 00b2 07       		.byte	0x7
 2500 00b3 42       		.byte	0x42
 2501 00b4 77000000 		.4byte	0x77
 2502 00b8 03       		.uleb128 0x3
 2503 00b9 66040000 		.4byte	.LASF16
 2504 00bd 08       		.byte	0x8
 2505 00be 41       		.byte	0x41
 2506 00bf A2000000 		.4byte	0xa2
 2507 00c3 05       		.uleb128 0x5
 2508 00c4 29030000 		.4byte	.LASF17
 2509 00c8 09       		.byte	0x9
 2510 00c9 D001     		.2byte	0x1d0
 2511 00cb AD000000 		.4byte	0xad
 2512 00cf 04       		.uleb128 0x4
 2513 00d0 04       		.byte	0x4
 2514 00d1 07       		.byte	0x7
 2515 00d2 03040000 		.4byte	.LASF18
 2516 00d6 06       		.uleb128 0x6
 2517 00d7 AD000000 		.4byte	0xad
 2518 00db 07       		.uleb128 0x7
 2519 00dc AD000000 		.4byte	0xad
ARM GAS  /tmp/ccLruy2S.s 			page 107


 2520 00e0 EB000000 		.4byte	0xeb
 2521 00e4 08       		.uleb128 0x8
 2522 00e5 CF000000 		.4byte	0xcf
 2523 00e9 01       		.byte	0x1
 2524 00ea 00       		.byte	0
 2525 00eb 07       		.uleb128 0x7
 2526 00ec AD000000 		.4byte	0xad
 2527 00f0 FB000000 		.4byte	0xfb
 2528 00f4 08       		.uleb128 0x8
 2529 00f5 CF000000 		.4byte	0xcf
 2530 00f9 03       		.byte	0x3
 2531 00fa 00       		.byte	0
 2532 00fb 09       		.uleb128 0x9
 2533 00fc 04       		.byte	0x4
 2534 00fd 0A       		.uleb128 0xa
 2535 00fe 60       		.byte	0x60
 2536 00ff 0A       		.byte	0xa
 2537 0100 A101     		.2byte	0x1a1
 2538 0102 09020000 		.4byte	0x209
 2539 0106 0B       		.uleb128 0xb
 2540 0107 43523100 		.ascii	"CR1\000"
 2541 010b 0A       		.byte	0xa
 2542 010c A201     		.2byte	0x1a2
 2543 010e D6000000 		.4byte	0xd6
 2544 0112 00       		.byte	0
 2545 0113 0B       		.uleb128 0xb
 2546 0114 43523200 		.ascii	"CR2\000"
 2547 0118 0A       		.byte	0xa
 2548 0119 A301     		.2byte	0x1a3
 2549 011b D6000000 		.4byte	0xd6
 2550 011f 04       		.byte	0x4
 2551 0120 0C       		.uleb128 0xc
 2552 0121 90030000 		.4byte	.LASF19
 2553 0125 0A       		.byte	0xa
 2554 0126 A401     		.2byte	0x1a4
 2555 0128 D6000000 		.4byte	0xd6
 2556 012c 08       		.byte	0x8
 2557 012d 0C       		.uleb128 0xc
 2558 012e F6020000 		.4byte	.LASF20
 2559 0132 0A       		.byte	0xa
 2560 0133 A501     		.2byte	0x1a5
 2561 0135 D6000000 		.4byte	0xd6
 2562 0139 0C       		.byte	0xc
 2563 013a 0B       		.uleb128 0xb
 2564 013b 535200   		.ascii	"SR\000"
 2565 013e 0A       		.byte	0xa
 2566 013f A601     		.2byte	0x1a6
 2567 0141 D6000000 		.4byte	0xd6
 2568 0145 10       		.byte	0x10
 2569 0146 0B       		.uleb128 0xb
 2570 0147 45475200 		.ascii	"EGR\000"
 2571 014b 0A       		.byte	0xa
 2572 014c A701     		.2byte	0x1a7
 2573 014e D6000000 		.4byte	0xd6
 2574 0152 14       		.byte	0x14
 2575 0153 0C       		.uleb128 0xc
 2576 0154 E3000000 		.4byte	.LASF21
ARM GAS  /tmp/ccLruy2S.s 			page 108


 2577 0158 0A       		.byte	0xa
 2578 0159 A801     		.2byte	0x1a8
 2579 015b D6000000 		.4byte	0xd6
 2580 015f 18       		.byte	0x18
 2581 0160 0C       		.uleb128 0xc
 2582 0161 E9000000 		.4byte	.LASF22
 2583 0165 0A       		.byte	0xa
 2584 0166 A901     		.2byte	0x1a9
 2585 0168 D6000000 		.4byte	0xd6
 2586 016c 1C       		.byte	0x1c
 2587 016d 0C       		.uleb128 0xc
 2588 016e D9030000 		.4byte	.LASF23
 2589 0172 0A       		.byte	0xa
 2590 0173 AA01     		.2byte	0x1aa
 2591 0175 D6000000 		.4byte	0xd6
 2592 0179 20       		.byte	0x20
 2593 017a 0B       		.uleb128 0xb
 2594 017b 434E5400 		.ascii	"CNT\000"
 2595 017f 0A       		.byte	0xa
 2596 0180 AB01     		.2byte	0x1ab
 2597 0182 D6000000 		.4byte	0xd6
 2598 0186 24       		.byte	0x24
 2599 0187 0B       		.uleb128 0xb
 2600 0188 50534300 		.ascii	"PSC\000"
 2601 018c 0A       		.byte	0xa
 2602 018d AC01     		.2byte	0x1ac
 2603 018f D6000000 		.4byte	0xd6
 2604 0193 28       		.byte	0x28
 2605 0194 0B       		.uleb128 0xb
 2606 0195 41525200 		.ascii	"ARR\000"
 2607 0199 0A       		.byte	0xa
 2608 019a AD01     		.2byte	0x1ad
 2609 019c D6000000 		.4byte	0xd6
 2610 01a0 2C       		.byte	0x2c
 2611 01a1 0B       		.uleb128 0xb
 2612 01a2 52435200 		.ascii	"RCR\000"
 2613 01a6 0A       		.byte	0xa
 2614 01a7 AE01     		.2byte	0x1ae
 2615 01a9 D6000000 		.4byte	0xd6
 2616 01ad 30       		.byte	0x30
 2617 01ae 0B       		.uleb128 0xb
 2618 01af 43435200 		.ascii	"CCR\000"
 2619 01b3 0A       		.byte	0xa
 2620 01b4 AF01     		.2byte	0x1af
 2621 01b6 09020000 		.4byte	0x209
 2622 01ba 34       		.byte	0x34
 2623 01bb 0C       		.uleb128 0xc
 2624 01bc 4F030000 		.4byte	.LASF24
 2625 01c0 0A       		.byte	0xa
 2626 01c1 B001     		.2byte	0x1b0
 2627 01c3 D6000000 		.4byte	0xd6
 2628 01c7 44       		.byte	0x44
 2629 01c8 0B       		.uleb128 0xb
 2630 01c9 44435200 		.ascii	"DCR\000"
 2631 01cd 0A       		.byte	0xa
 2632 01ce B101     		.2byte	0x1b1
 2633 01d0 D6000000 		.4byte	0xd6
ARM GAS  /tmp/ccLruy2S.s 			page 109


 2634 01d4 48       		.byte	0x48
 2635 01d5 0C       		.uleb128 0xc
 2636 01d6 32040000 		.4byte	.LASF25
 2637 01da 0A       		.byte	0xa
 2638 01db B201     		.2byte	0x1b2
 2639 01dd D6000000 		.4byte	0xd6
 2640 01e1 4C       		.byte	0x4c
 2641 01e2 0B       		.uleb128 0xb
 2642 01e3 4F5200   		.ascii	"OR\000"
 2643 01e6 0A       		.byte	0xa
 2644 01e7 B301     		.2byte	0x1b3
 2645 01e9 D6000000 		.4byte	0xd6
 2646 01ed 50       		.byte	0x50
 2647 01ee 0C       		.uleb128 0xc
 2648 01ef EF000000 		.4byte	.LASF26
 2649 01f3 0A       		.byte	0xa
 2650 01f4 B401     		.2byte	0x1b4
 2651 01f6 D6000000 		.4byte	0xd6
 2652 01fa 54       		.byte	0x54
 2653 01fb 0C       		.uleb128 0xc
 2654 01fc F5000000 		.4byte	.LASF27
 2655 0200 0A       		.byte	0xa
 2656 0201 B501     		.2byte	0x1b5
 2657 0203 0E020000 		.4byte	0x20e
 2658 0207 58       		.byte	0x58
 2659 0208 00       		.byte	0
 2660 0209 06       		.uleb128 0x6
 2661 020a EB000000 		.4byte	0xeb
 2662 020e 06       		.uleb128 0x6
 2663 020f DB000000 		.4byte	0xdb
 2664 0213 05       		.uleb128 0x5
 2665 0214 43030000 		.4byte	.LASF28
 2666 0218 0A       		.byte	0xa
 2667 0219 B601     		.2byte	0x1b6
 2668 021b FD000000 		.4byte	0xfd
 2669 021f 0D       		.uleb128 0xd
 2670 0220 04       		.byte	0x4
 2671 0221 25020000 		.4byte	0x225
 2672 0225 0E       		.uleb128 0xe
 2673 0226 2A020000 		.4byte	0x22a
 2674 022a 04       		.uleb128 0x4
 2675 022b 01       		.byte	0x1
 2676 022c 08       		.byte	0x8
 2677 022d EB010000 		.4byte	.LASF29
 2678 0231 0F       		.uleb128 0xf
 2679 0232 88040000 		.4byte	.LASF80
 2680 0236 10       		.byte	0x10
 2681 0237 0B       		.byte	0xb
 2682 0238 46       		.byte	0x46
 2683 0239 6E020000 		.4byte	0x26e
 2684 023d 10       		.uleb128 0x10
 2685 023e AE000000 		.4byte	.LASF30
 2686 0242 0B       		.byte	0xb
 2687 0243 47       		.byte	0x47
 2688 0244 92020000 		.4byte	0x292
 2689 0248 00       		.byte	0
 2690 0249 10       		.uleb128 0x10
ARM GAS  /tmp/ccLruy2S.s 			page 110


 2691 024a C0010000 		.4byte	.LASF31
 2692 024e 0B       		.byte	0xb
 2693 024f 47       		.byte	0x47
 2694 0250 B7020000 		.4byte	0x2b7
 2695 0254 04       		.byte	0x4
 2696 0255 11       		.uleb128 0x11
 2697 0256 70757400 		.ascii	"put\000"
 2698 025a 0B       		.byte	0xb
 2699 025b 47       		.byte	0x47
 2700 025c D1020000 		.4byte	0x2d1
 2701 0260 08       		.byte	0x8
 2702 0261 11       		.uleb128 0x11
 2703 0262 67657400 		.ascii	"get\000"
 2704 0266 0B       		.byte	0xb
 2705 0267 47       		.byte	0x47
 2706 0268 E6020000 		.4byte	0x2e6
 2707 026c 0C       		.byte	0xc
 2708 026d 00       		.byte	0
 2709 026e 12       		.uleb128 0x12
 2710 026f 2C000000 		.4byte	0x2c
 2711 0273 87020000 		.4byte	0x287
 2712 0277 13       		.uleb128 0x13
 2713 0278 FB000000 		.4byte	0xfb
 2714 027c 13       		.uleb128 0x13
 2715 027d 87020000 		.4byte	0x287
 2716 0281 13       		.uleb128 0x13
 2717 0282 2C000000 		.4byte	0x2c
 2718 0286 00       		.byte	0
 2719 0287 0D       		.uleb128 0xd
 2720 0288 04       		.byte	0x4
 2721 0289 8D020000 		.4byte	0x28d
 2722 028d 0E       		.uleb128 0xe
 2723 028e 97000000 		.4byte	0x97
 2724 0292 0D       		.uleb128 0xd
 2725 0293 04       		.byte	0x4
 2726 0294 6E020000 		.4byte	0x26e
 2727 0298 12       		.uleb128 0x12
 2728 0299 2C000000 		.4byte	0x2c
 2729 029d B1020000 		.4byte	0x2b1
 2730 02a1 13       		.uleb128 0x13
 2731 02a2 FB000000 		.4byte	0xfb
 2732 02a6 13       		.uleb128 0x13
 2733 02a7 B1020000 		.4byte	0x2b1
 2734 02ab 13       		.uleb128 0x13
 2735 02ac 2C000000 		.4byte	0x2c
 2736 02b0 00       		.byte	0
 2737 02b1 0D       		.uleb128 0xd
 2738 02b2 04       		.byte	0x4
 2739 02b3 97000000 		.4byte	0x97
 2740 02b7 0D       		.uleb128 0xd
 2741 02b8 04       		.byte	0x4
 2742 02b9 98020000 		.4byte	0x298
 2743 02bd 12       		.uleb128 0x12
 2744 02be B8000000 		.4byte	0xb8
 2745 02c2 D1020000 		.4byte	0x2d1
 2746 02c6 13       		.uleb128 0x13
 2747 02c7 FB000000 		.4byte	0xfb
ARM GAS  /tmp/ccLruy2S.s 			page 111


 2748 02cb 13       		.uleb128 0x13
 2749 02cc 97000000 		.4byte	0x97
 2750 02d0 00       		.byte	0
 2751 02d1 0D       		.uleb128 0xd
 2752 02d2 04       		.byte	0x4
 2753 02d3 BD020000 		.4byte	0x2bd
 2754 02d7 12       		.uleb128 0x12
 2755 02d8 B8000000 		.4byte	0xb8
 2756 02dc E6020000 		.4byte	0x2e6
 2757 02e0 13       		.uleb128 0x13
 2758 02e1 FB000000 		.4byte	0xfb
 2759 02e5 00       		.byte	0
 2760 02e6 0D       		.uleb128 0xd
 2761 02e7 04       		.byte	0x4
 2762 02e8 D7020000 		.4byte	0x2d7
 2763 02ec 14       		.uleb128 0x14
 2764 02ed 04       		.byte	0x4
 2765 02ee 0B       		.byte	0xb
 2766 02ef 4F       		.byte	0x4f
 2767 02f0 01030000 		.4byte	0x301
 2768 02f4 11       		.uleb128 0x11
 2769 02f5 766D7400 		.ascii	"vmt\000"
 2770 02f9 0B       		.byte	0xb
 2771 02fa 51       		.byte	0x51
 2772 02fb 01030000 		.4byte	0x301
 2773 02ff 00       		.byte	0
 2774 0300 00       		.byte	0
 2775 0301 0D       		.uleb128 0xd
 2776 0302 04       		.byte	0x4
 2777 0303 07030000 		.4byte	0x307
 2778 0307 0E       		.uleb128 0xe
 2779 0308 31020000 		.4byte	0x231
 2780 030c 03       		.uleb128 0x3
 2781 030d 14010000 		.4byte	.LASF32
 2782 0311 0B       		.byte	0xb
 2783 0312 53       		.byte	0x53
 2784 0313 EC020000 		.4byte	0x2ec
 2785 0317 04       		.uleb128 0x4
 2786 0318 01       		.byte	0x1
 2787 0319 02       		.byte	0x2
 2788 031a 5C030000 		.4byte	.LASF33
 2789 031e 0D       		.uleb128 0xd
 2790 031f 04       		.byte	0x4
 2791 0320 24030000 		.4byte	0x324
 2792 0324 15       		.uleb128 0x15
 2793 0325 14       		.uleb128 0x14
 2794 0326 10       		.byte	0x10
 2795 0327 0C       		.byte	0xc
 2796 0328 3D       		.byte	0x3d
 2797 0329 5E030000 		.4byte	0x35e
 2798 032d 10       		.uleb128 0x10
 2799 032e 45020000 		.4byte	.LASF34
 2800 0332 0C       		.byte	0xc
 2801 0333 3E       		.byte	0x3e
 2802 0334 1F020000 		.4byte	0x21f
 2803 0338 00       		.byte	0
 2804 0339 10       		.uleb128 0x10
ARM GAS  /tmp/ccLruy2S.s 			page 112


 2805 033a BA010000 		.4byte	.LASF35
 2806 033e 0C       		.byte	0xc
 2807 033f 3F       		.byte	0x3f
 2808 0340 1E030000 		.4byte	0x31e
 2809 0344 04       		.byte	0x4
 2810 0345 10       		.uleb128 0x10
 2811 0346 3C020000 		.4byte	.LASF36
 2812 034a 0C       		.byte	0xc
 2813 034b 40       		.byte	0x40
 2814 034c 1E030000 		.4byte	0x31e
 2815 0350 08       		.byte	0x8
 2816 0351 10       		.uleb128 0x10
 2817 0352 37040000 		.4byte	.LASF37
 2818 0356 0C       		.byte	0xc
 2819 0357 41       		.byte	0x41
 2820 0358 1E030000 		.4byte	0x31e
 2821 035c 0C       		.byte	0xc
 2822 035d 00       		.byte	0
 2823 035e 03       		.uleb128 0x3
 2824 035f 70010000 		.4byte	.LASF38
 2825 0363 0C       		.byte	0xc
 2826 0364 42       		.byte	0x42
 2827 0365 25030000 		.4byte	0x325
 2828 0369 16       		.uleb128 0x16
 2829 036a 2E020000 		.4byte	.LASF39
 2830 036e 04       		.byte	0x4
 2831 036f 45       		.byte	0x45
 2832 0370 03       		.byte	0x3
 2833 0371 16       		.uleb128 0x16
 2834 0372 21020000 		.4byte	.LASF40
 2835 0376 04       		.byte	0x4
 2836 0377 3A       		.byte	0x3a
 2837 0378 03       		.byte	0x3
 2838 0379 17       		.uleb128 0x17
 2839 037a E8030000 		.4byte	.LASF43
 2840 037e 02       		.byte	0x2
 2841 037f 8B       		.byte	0x8b
 2842 0380 C3000000 		.4byte	0xc3
 2843 0384 03       		.byte	0x3
 2844 0385 18       		.uleb128 0x18
 2845 0386 5B010000 		.4byte	.LASF41
 2846 038a 0D       		.byte	0xd
 2847 038b 7301     		.2byte	0x173
 2848 038d 03       		.byte	0x3
 2849 038e 18       		.uleb128 0x18
 2850 038f 62030000 		.4byte	.LASF42
 2851 0393 0D       		.byte	0xd
 2852 0394 7C01     		.2byte	0x17c
 2853 0396 03       		.byte	0x3
 2854 0397 17       		.uleb128 0x17
 2855 0398 AA030000 		.4byte	.LASF44
 2856 039c 0E       		.byte	0xe
 2857 039d 69       		.byte	0x69
 2858 039e C3000000 		.4byte	0xc3
 2859 03a2 03       		.byte	0x3
 2860 03a3 16       		.uleb128 0x16
 2861 03a4 83030000 		.4byte	.LASF45
ARM GAS  /tmp/ccLruy2S.s 			page 113


 2862 03a8 01       		.byte	0x1
 2863 03a9 41       		.byte	0x41
 2864 03aa 01       		.byte	0x1
 2865 03ab 19       		.uleb128 0x19
 2866 03ac E0010000 		.4byte	.LASF49
 2867 03b0 01       		.byte	0x1
 2868 03b1 66       		.byte	0x66
 2869 03b2 17030000 		.4byte	0x317
 2870 03b6 01       		.byte	0x1
 2871 03b7 C7030000 		.4byte	0x3c7
 2872 03bb 1A       		.uleb128 0x1a
 2873 03bc 6D736700 		.ascii	"msg\000"
 2874 03c0 01       		.byte	0x1
 2875 03c1 66       		.byte	0x66
 2876 03c2 1F020000 		.4byte	0x21f
 2877 03c6 00       		.byte	0
 2878 03c7 1B       		.uleb128 0x1b
 2879 03c8 C1000000 		.4byte	.LASF46
 2880 03cc 03       		.byte	0x3
 2881 03cd 7302     		.2byte	0x273
 2882 03cf C3000000 		.4byte	0xc3
 2883 03d3 03       		.byte	0x3
 2884 03d4 1C       		.uleb128 0x1c
 2885 03d5 58020000 		.4byte	.LASF81
 2886 03d9 03       		.byte	0x3
 2887 03da 8602     		.2byte	0x286
 2888 03dc 17030000 		.4byte	0x317
 2889 03e0 03       		.byte	0x3
 2890 03e1 0A040000 		.4byte	0x40a
 2891 03e5 1D       		.uleb128 0x1d
 2892 03e6 F1020000 		.4byte	.LASF47
 2893 03ea 03       		.byte	0x3
 2894 03eb 8602     		.2byte	0x286
 2895 03ed C3000000 		.4byte	0xc3
 2896 03f1 1D       		.uleb128 0x1d
 2897 03f2 FB020000 		.4byte	.LASF48
 2898 03f6 03       		.byte	0x3
 2899 03f7 8702     		.2byte	0x287
 2900 03f9 C3000000 		.4byte	0xc3
 2901 03fd 1E       		.uleb128 0x1e
 2902 03fe 656E6400 		.ascii	"end\000"
 2903 0402 03       		.byte	0x3
 2904 0403 8802     		.2byte	0x288
 2905 0405 C3000000 		.4byte	0xc3
 2906 0409 00       		.byte	0
 2907 040a 19       		.uleb128 0x19
 2908 040b D3010000 		.4byte	.LASF50
 2909 040f 01       		.byte	0x1
 2910 0410 6E       		.byte	0x6e
 2911 0411 17030000 		.4byte	0x317
 2912 0415 01       		.byte	0x1
 2913 0416 31040000 		.4byte	0x431
 2914 041a 1F       		.uleb128 0x1f
 2915 041b 14030000 		.4byte	.LASF51
 2916 041f 01       		.byte	0x1
 2917 0420 6E       		.byte	0x6e
 2918 0421 17030000 		.4byte	0x317
ARM GAS  /tmp/ccLruy2S.s 			page 114


 2919 0425 1A       		.uleb128 0x1a
 2920 0426 6D736700 		.ascii	"msg\000"
 2921 042a 01       		.byte	0x1
 2922 042b 6E       		.byte	0x6e
 2923 042c 1F020000 		.4byte	0x21f
 2924 0430 00       		.byte	0
 2925 0431 20       		.uleb128 0x20
 2926 0432 37010000 		.4byte	.LASF52
 2927 0436 01       		.byte	0x1
 2928 0437 94       		.byte	0x94
 2929 0438 01       		.byte	0x1
 2930 0439 5B040000 		.4byte	0x45b
 2931 043d 1A       		.uleb128 0x1a
 2932 043e 6E00     		.ascii	"n\000"
 2933 0440 01       		.byte	0x1
 2934 0441 94       		.byte	0x94
 2935 0442 AD000000 		.4byte	0xad
 2936 0446 21       		.uleb128 0x21
 2937 0447 62756600 		.ascii	"buf\000"
 2938 044b 01       		.byte	0x1
 2939 044c 95       		.byte	0x95
 2940 044d 5B040000 		.4byte	0x45b
 2941 0451 21       		.uleb128 0x21
 2942 0452 7000     		.ascii	"p\000"
 2943 0454 01       		.byte	0x1
 2944 0455 95       		.byte	0x95
 2945 0456 6B040000 		.4byte	0x46b
 2946 045a 00       		.byte	0
 2947 045b 07       		.uleb128 0x7
 2948 045c 2A020000 		.4byte	0x22a
 2949 0460 6B040000 		.4byte	0x46b
 2950 0464 08       		.uleb128 0x8
 2951 0465 CF000000 		.4byte	0xcf
 2952 0469 0F       		.byte	0xf
 2953 046a 00       		.byte	0
 2954 046b 0D       		.uleb128 0xd
 2955 046c 04       		.byte	0x4
 2956 046d 2A020000 		.4byte	0x22a
 2957 0471 20       		.uleb128 0x20
 2958 0472 AF010000 		.4byte	.LASF53
 2959 0476 01       		.byte	0x1
 2960 0477 A9       		.byte	0xa9
 2961 0478 01       		.byte	0x1
 2962 0479 89040000 		.4byte	0x489
 2963 047d 1F       		.uleb128 0x1f
 2964 047e 06000000 		.4byte	.LASF54
 2965 0482 01       		.byte	0x1
 2966 0483 A9       		.byte	0xa9
 2967 0484 1F020000 		.4byte	0x21f
 2968 0488 00       		.byte	0
 2969 0489 18       		.uleb128 0x18
 2970 048a 5A040000 		.4byte	.LASF55
 2971 048e 03       		.byte	0x3
 2972 048f F601     		.2byte	0x1f6
 2973 0491 03       		.byte	0x3
 2974 0492 18       		.uleb128 0x18
 2975 0493 29010000 		.4byte	.LASF56
ARM GAS  /tmp/ccLruy2S.s 			page 115


 2976 0497 03       		.byte	0x3
 2977 0498 0102     		.2byte	0x201
 2978 049a 03       		.byte	0x3
 2979 049b 22       		.uleb128 0x22
 2980 049c 33030000 		.4byte	.LASF64
 2981 04a0 03       		.byte	0x3
 2982 04a1 AA02     		.2byte	0x2aa
 2983 04a3 03       		.byte	0x3
 2984 04a4 B5040000 		.4byte	0x4b5
 2985 04a8 1D       		.uleb128 0x1d
 2986 04a9 F1020000 		.4byte	.LASF47
 2987 04ad 03       		.byte	0x3
 2988 04ae AA02     		.2byte	0x2aa
 2989 04b0 C3000000 		.4byte	0xc3
 2990 04b4 00       		.byte	0
 2991 04b5 23       		.uleb128 0x23
 2992 04b6 78030000 		.4byte	.LASF82
 2993 04ba 01       		.byte	0x1
 2994 04bb 5A       		.byte	0x5a
 2995 04bc 00000000 		.4byte	.LFB101
 2996 04c0 2C000000 		.4byte	.LFE101-.LFB101
 2997 04c4 01       		.uleb128 0x1
 2998 04c5 9C       		.byte	0x9c
 2999 04c6 FC040000 		.4byte	0x4fc
 3000 04ca 24       		.uleb128 0x24
 3001 04cb 6900     		.ascii	"i\000"
 3002 04cd 01       		.byte	0x1
 3003 04ce 5B       		.byte	0x5b
 3004 04cf 37000000 		.4byte	0x37
 3005 04d3 00000000 		.4byte	.LLST0
 3006 04d7 25       		.uleb128 0x25
 3007 04d8 12000000 		.4byte	.LVL3
 3008 04dc E7040000 		.4byte	0x4e7
 3009 04e0 26       		.uleb128 0x26
 3010 04e1 01       		.uleb128 0x1
 3011 04e2 51       		.byte	0x51
 3012 04e3 02       		.uleb128 0x2
 3013 04e4 08       		.byte	0x8
 3014 04e5 2D       		.byte	0x2d
 3015 04e6 00       		.byte	0
 3016 04e7 27       		.uleb128 0x27
 3017 04e8 22000000 		.4byte	.LVL4
 3018 04ec 26       		.uleb128 0x26
 3019 04ed 01       		.uleb128 0x1
 3020 04ee 52       		.byte	0x52
 3021 04ef 01       		.uleb128 0x1
 3022 04f0 32       		.byte	0x32
 3023 04f1 26       		.uleb128 0x26
 3024 04f2 01       		.uleb128 0x1
 3025 04f3 51       		.byte	0x51
 3026 04f4 05       		.uleb128 0x5
 3027 04f5 03       		.byte	0x3
 3028 04f6 00000000 		.4byte	.LC1
 3029 04fa 00       		.byte	0
 3030 04fb 00       		.byte	0
 3031 04fc 28       		.uleb128 0x28
 3032 04fd AB030000 		.4byte	0x3ab
ARM GAS  /tmp/ccLruy2S.s 			page 116


 3033 0501 00000000 		.4byte	.LFB102
 3034 0505 20000000 		.4byte	.LFE102-.LFB102
 3035 0509 01       		.uleb128 0x1
 3036 050a 9C       		.byte	0x9c
 3037 050b 19050000 		.4byte	0x519
 3038 050f 29       		.uleb128 0x29
 3039 0510 BB030000 		.4byte	0x3bb
 3040 0514 34000000 		.4byte	.LLST1
 3041 0518 00       		.byte	0
 3042 0519 28       		.uleb128 0x28
 3043 051a 0A040000 		.4byte	0x40a
 3044 051e 00000000 		.4byte	.LFB103
 3045 0522 28000000 		.4byte	.LFE103-.LFB103
 3046 0526 01       		.uleb128 0x1
 3047 0527 9C       		.byte	0x9c
 3048 0528 56050000 		.4byte	0x556
 3049 052c 29       		.uleb128 0x29
 3050 052d 1A040000 		.4byte	0x41a
 3051 0531 56000000 		.4byte	.LLST2
 3052 0535 2A       		.uleb128 0x2a
 3053 0536 25040000 		.4byte	0x425
 3054 053a 01       		.uleb128 0x1
 3055 053b 51       		.byte	0x51
 3056 053c 2B       		.uleb128 0x2b
 3057 053d AB030000 		.4byte	0x3ab
 3058 0541 06000000 		.4byte	.LBB79
 3059 0545 0E000000 		.4byte	.LBE79-.LBB79
 3060 0549 01       		.byte	0x1
 3061 054a 71       		.byte	0x71
 3062 054b 29       		.uleb128 0x29
 3063 054c BB030000 		.4byte	0x3bb
 3064 0550 77000000 		.4byte	.LLST3
 3065 0554 00       		.byte	0
 3066 0555 00       		.byte	0
 3067 0556 2C       		.uleb128 0x2c
 3068 0557 0C040000 		.4byte	.LASF58
 3069 055b 01       		.byte	0x1
 3070 055c 75       		.byte	0x75
 3071 055d 17030000 		.4byte	0x317
 3072 0561 00000000 		.4byte	.LFB104
 3073 0565 58000000 		.4byte	.LFE104-.LFB104
 3074 0569 01       		.uleb128 0x1
 3075 056a 9C       		.byte	0x9c
 3076 056b C4050000 		.4byte	0x5c4
 3077 056f 2D       		.uleb128 0x2d
 3078 0570 BE030000 		.4byte	.LASF57
 3079 0574 01       		.byte	0x1
 3080 0575 75       		.byte	0x75
 3081 0576 6B040000 		.4byte	0x46b
 3082 057a 8A000000 		.4byte	.LLST4
 3083 057e 2E       		.uleb128 0x2e
 3084 057f 6D736700 		.ascii	"msg\000"
 3085 0583 01       		.byte	0x1
 3086 0584 75       		.byte	0x75
 3087 0585 1F020000 		.4byte	0x21f
 3088 0589 E1000000 		.4byte	.LLST5
 3089 058d 24       		.uleb128 0x24
ARM GAS  /tmp/ccLruy2S.s 			page 117


 3090 058e 637000   		.ascii	"cp\000"
 3091 0591 01       		.byte	0x1
 3092 0592 76       		.byte	0x76
 3093 0593 6B040000 		.4byte	0x46b
 3094 0597 FF000000 		.4byte	.LLST6
 3095 059b 2F       		.uleb128 0x2f
 3096 059c A3030000 		.4byte	0x3a3
 3097 05a0 28000000 		.4byte	.LBB81
 3098 05a4 02000000 		.4byte	.LBE81-.LBB81
 3099 05a8 01       		.byte	0x1
 3100 05a9 80       		.byte	0x80
 3101 05aa 30       		.uleb128 0x30
 3102 05ab AB030000 		.4byte	0x3ab
 3103 05af 2E000000 		.4byte	.LBB83
 3104 05b3 00000000 		.4byte	.Ldebug_ranges0+0
 3105 05b7 01       		.byte	0x1
 3106 05b8 7A       		.byte	0x7a
 3107 05b9 29       		.uleb128 0x29
 3108 05ba BB030000 		.4byte	0x3bb
 3109 05be 8A010000 		.4byte	.LLST7
 3110 05c2 00       		.byte	0
 3111 05c3 00       		.byte	0
 3112 05c4 2C       		.uleb128 0x2c
 3113 05c5 96010000 		.4byte	.LASF59
 3114 05c9 01       		.byte	0x1
 3115 05ca 85       		.byte	0x85
 3116 05cb 17030000 		.4byte	0x317
 3117 05cf 00000000 		.4byte	.LFB105
 3118 05d3 30000000 		.4byte	.LFE105-.LFB105
 3119 05d7 01       		.uleb128 0x1
 3120 05d8 9C       		.byte	0x9c
 3121 05d9 A5060000 		.4byte	0x6a5
 3122 05dd 2D       		.uleb128 0x2d
 3123 05de FB020000 		.4byte	.LASF48
 3124 05e2 01       		.byte	0x1
 3125 05e3 85       		.byte	0x85
 3126 05e4 C3000000 		.4byte	0xc3
 3127 05e8 9D010000 		.4byte	.LLST8
 3128 05ec 2E       		.uleb128 0x2e
 3129 05ed 656E6400 		.ascii	"end\000"
 3130 05f1 01       		.byte	0x1
 3131 05f2 86       		.byte	0x86
 3132 05f3 C3000000 		.4byte	0xc3
 3133 05f7 BE010000 		.4byte	.LLST9
 3134 05fb 31       		.uleb128 0x31
 3135 05fc 6D736700 		.ascii	"msg\000"
 3136 0600 01       		.byte	0x1
 3137 0601 87       		.byte	0x87
 3138 0602 1F020000 		.4byte	0x21f
 3139 0606 01       		.uleb128 0x1
 3140 0607 52       		.byte	0x52
 3141 0608 32       		.uleb128 0x32
 3142 0609 C7030000 		.4byte	0x3c7
 3143 060d 00000000 		.4byte	.LBB87
 3144 0611 06000000 		.4byte	.LBE87-.LBB87
 3145 0615 01       		.byte	0x1
 3146 0616 89       		.byte	0x89
ARM GAS  /tmp/ccLruy2S.s 			page 118


 3147 0617 3C060000 		.4byte	0x63c
 3148 061b 33       		.uleb128 0x33
 3149 061c 97030000 		.4byte	0x397
 3150 0620 00000000 		.4byte	.LBB88
 3151 0624 06000000 		.4byte	.LBE88-.LBB88
 3152 0628 03       		.byte	0x3
 3153 0629 7502     		.2byte	0x275
 3154 062b 2F       		.uleb128 0x2f
 3155 062c 79030000 		.4byte	0x379
 3156 0630 00000000 		.4byte	.LBB89
 3157 0634 06000000 		.4byte	.LBE89-.LBB89
 3158 0638 0E       		.byte	0xe
 3159 0639 6B       		.byte	0x6b
 3160 063a 00       		.byte	0
 3161 063b 00       		.byte	0
 3162 063c 32       		.uleb128 0x32
 3163 063d D4030000 		.4byte	0x3d4
 3164 0641 06000000 		.4byte	.LBB91
 3165 0645 04000000 		.4byte	.LBE91-.LBB91
 3166 0649 01       		.byte	0x1
 3167 064a 89       		.byte	0x89
 3168 064b 6B060000 		.4byte	0x66b
 3169 064f 29       		.uleb128 0x29
 3170 0650 FD030000 		.4byte	0x3fd
 3171 0654 DF010000 		.4byte	.LLST10
 3172 0658 29       		.uleb128 0x29
 3173 0659 F1030000 		.4byte	0x3f1
 3174 065d 00020000 		.4byte	.LLST11
 3175 0661 29       		.uleb128 0x29
 3176 0662 E5030000 		.4byte	0x3e5
 3177 0666 21020000 		.4byte	.LLST12
 3178 066a 00       		.byte	0
 3179 066b 2B       		.uleb128 0x2b
 3180 066c 0A040000 		.4byte	0x40a
 3181 0670 0A000000 		.4byte	.LBB93
 3182 0674 16000000 		.4byte	.LBE93-.LBB93
 3183 0678 01       		.byte	0x1
 3184 0679 89       		.byte	0x89
 3185 067a 2A       		.uleb128 0x2a
 3186 067b 25040000 		.4byte	0x425
 3187 067f 01       		.uleb128 0x1
 3188 0680 52       		.byte	0x52
 3189 0681 29       		.uleb128 0x29
 3190 0682 1A040000 		.4byte	0x41a
 3191 0686 34020000 		.4byte	.LLST13
 3192 068a 30       		.uleb128 0x30
 3193 068b AB030000 		.4byte	0x3ab
 3194 068f 10000000 		.4byte	.LBB95
 3195 0693 18000000 		.4byte	.Ldebug_ranges0+0x18
 3196 0697 01       		.byte	0x1
 3197 0698 71       		.byte	0x71
 3198 0699 29       		.uleb128 0x29
 3199 069a BB030000 		.4byte	0x3bb
 3200 069e 79020000 		.4byte	.LLST14
 3201 06a2 00       		.byte	0
 3202 06a3 00       		.byte	0
 3203 06a4 00       		.byte	0
ARM GAS  /tmp/ccLruy2S.s 			page 119


 3204 06a5 34       		.uleb128 0x34
 3205 06a6 31040000 		.4byte	0x431
 3206 06aa 00000000 		.4byte	.LFB106
 3207 06ae 74000000 		.4byte	.LFE106-.LFB106
 3208 06b2 01       		.uleb128 0x1
 3209 06b3 9C       		.byte	0x9c
 3210 06b4 13070000 		.4byte	0x713
 3211 06b8 29       		.uleb128 0x29
 3212 06b9 3D040000 		.4byte	0x43d
 3213 06bd 8C020000 		.4byte	.LLST15
 3214 06c1 35       		.uleb128 0x35
 3215 06c2 46040000 		.4byte	0x446
 3216 06c6 02       		.uleb128 0x2
 3217 06c7 91       		.byte	0x91
 3218 06c8 58       		.sleb128 -40
 3219 06c9 36       		.uleb128 0x36
 3220 06ca 51040000 		.4byte	0x451
 3221 06ce CB020000 		.4byte	.LLST16
 3222 06d2 37       		.uleb128 0x37
 3223 06d3 60000000 		.4byte	.LBB101
 3224 06d7 14000000 		.4byte	.LBE101-.LBB101
 3225 06db 06070000 		.4byte	0x706
 3226 06df 38       		.uleb128 0x38
 3227 06e0 3D040000 		.4byte	0x43d
 3228 06e4 00       		.byte	0
 3229 06e5 39       		.uleb128 0x39
 3230 06e6 60000000 		.4byte	.LBB102
 3231 06ea 14000000 		.4byte	.LBE102-.LBB102
 3232 06ee 3A       		.uleb128 0x3a
 3233 06ef 46040000 		.4byte	0x446
 3234 06f3 3A       		.uleb128 0x3a
 3235 06f4 51040000 		.4byte	0x451
 3236 06f8 27       		.uleb128 0x27
 3237 06f9 6C000000 		.4byte	.LVL44
 3238 06fd 26       		.uleb128 0x26
 3239 06fe 01       		.uleb128 0x1
 3240 06ff 51       		.byte	0x51
 3241 0700 02       		.uleb128 0x2
 3242 0701 08       		.byte	0x8
 3243 0702 30       		.byte	0x30
 3244 0703 00       		.byte	0
 3245 0704 00       		.byte	0
 3246 0705 00       		.byte	0
 3247 0706 27       		.uleb128 0x27
 3248 0707 54000000 		.4byte	.LVL40
 3249 070b 26       		.uleb128 0x26
 3250 070c 01       		.uleb128 0x1
 3251 070d 51       		.byte	0x51
 3252 070e 02       		.uleb128 0x2
 3253 070f 76       		.byte	0x76
 3254 0710 00       		.sleb128 0
 3255 0711 00       		.byte	0
 3256 0712 00       		.byte	0
 3257 0713 34       		.uleb128 0x34
 3258 0714 71040000 		.4byte	0x471
 3259 0718 00000000 		.4byte	.LFB107
 3260 071c 24000000 		.4byte	.LFE107-.LFB107
ARM GAS  /tmp/ccLruy2S.s 			page 120


 3261 0720 01       		.uleb128 0x1
 3262 0721 9C       		.byte	0x9c
 3263 0722 30070000 		.4byte	0x730
 3264 0726 29       		.uleb128 0x29
 3265 0727 7D040000 		.4byte	0x47d
 3266 072b 33030000 		.4byte	.LLST17
 3267 072f 00       		.byte	0
 3268 0730 3B       		.uleb128 0x3b
 3269 0731 4E010000 		.4byte	.LASF60
 3270 0735 01       		.byte	0x1
 3271 0736 B6       		.byte	0xb6
 3272 0737 00000000 		.4byte	.LFB108
 3273 073b 34000000 		.4byte	.LFE108-.LFB108
 3274 073f 01       		.uleb128 0x1
 3275 0740 9C       		.byte	0x9c
 3276 0741 86070000 		.4byte	0x786
 3277 0745 2D       		.uleb128 0x2d
 3278 0746 06000000 		.4byte	.LASF54
 3279 074a 01       		.byte	0x1
 3280 074b B6       		.byte	0xb6
 3281 074c 1F020000 		.4byte	0x21f
 3282 0750 51030000 		.4byte	.LLST18
 3283 0754 3C       		.uleb128 0x3c
 3284 0755 71040000 		.4byte	0x471
 3285 0759 02000000 		.4byte	.LBB103
 3286 075d 30000000 		.4byte	.Ldebug_ranges0+0x30
 3287 0761 01       		.byte	0x1
 3288 0762 B8       		.byte	0xb8
 3289 0763 71070000 		.4byte	0x771
 3290 0767 29       		.uleb128 0x29
 3291 0768 7D040000 		.4byte	0x47d
 3292 076c 72030000 		.4byte	.LLST19
 3293 0770 00       		.byte	0
 3294 0771 27       		.uleb128 0x27
 3295 0772 28000000 		.4byte	.LVL54
 3296 0776 26       		.uleb128 0x26
 3297 0777 01       		.uleb128 0x1
 3298 0778 52       		.byte	0x52
 3299 0779 01       		.uleb128 0x1
 3300 077a 32       		.byte	0x32
 3301 077b 26       		.uleb128 0x26
 3302 077c 01       		.uleb128 0x1
 3303 077d 51       		.byte	0x51
 3304 077e 05       		.uleb128 0x5
 3305 077f 03       		.byte	0x3
 3306 0780 00000000 		.4byte	.LC1
 3307 0784 00       		.byte	0
 3308 0785 00       		.byte	0
 3309 0786 3D       		.uleb128 0x3d
 3310 0787 22040000 		.4byte	.LASF61
 3311 078b 01       		.byte	0x1
 3312 078c C3       		.byte	0xc3
 3313 078d 00000000 		.4byte	.LFB109
 3314 0791 20000000 		.4byte	.LFE109-.LFB109
 3315 0795 01       		.uleb128 0x1
 3316 0796 9C       		.byte	0x9c
 3317 0797 0F080000 		.4byte	0x80f
ARM GAS  /tmp/ccLruy2S.s 			page 121


 3318 079b 3E       		.uleb128 0x3e
 3319 079c 00000000 		.4byte	.LASF62
 3320 07a0 01       		.byte	0x1
 3321 07a1 C3       		.byte	0xc3
 3322 07a2 2A020000 		.4byte	0x22a
 3323 07a6 01       		.uleb128 0x1
 3324 07a7 50       		.byte	0x50
 3325 07a8 32       		.uleb128 0x32
 3326 07a9 89040000 		.4byte	0x489
 3327 07ad 00000000 		.4byte	.LBB107
 3328 07b1 02000000 		.4byte	.LBE107-.LBB107
 3329 07b5 01       		.byte	0x1
 3330 07b6 C5       		.byte	0xc5
 3331 07b7 DD070000 		.4byte	0x7dd
 3332 07bb 33       		.uleb128 0x33
 3333 07bc 85030000 		.4byte	0x385
 3334 07c0 00000000 		.4byte	.LBB108
 3335 07c4 02000000 		.4byte	.LBE108-.LBB108
 3336 07c8 03       		.byte	0x3
 3337 07c9 F801     		.2byte	0x1f8
 3338 07cb 3F       		.uleb128 0x3f
 3339 07cc 69030000 		.4byte	0x369
 3340 07d0 00000000 		.4byte	.LBB109
 3341 07d4 02000000 		.4byte	.LBE109-.LBB109
 3342 07d8 0D       		.byte	0xd
 3343 07d9 7501     		.2byte	0x175
 3344 07db 00       		.byte	0
 3345 07dc 00       		.byte	0
 3346 07dd 2B       		.uleb128 0x2b
 3347 07de 92040000 		.4byte	0x492
 3348 07e2 14000000 		.4byte	.LBB111
 3349 07e6 02000000 		.4byte	.LBE111-.LBB111
 3350 07ea 01       		.byte	0x1
 3351 07eb C8       		.byte	0xc8
 3352 07ec 33       		.uleb128 0x33
 3353 07ed 8E030000 		.4byte	0x38e
 3354 07f1 14000000 		.4byte	.LBB112
 3355 07f5 02000000 		.4byte	.LBE112-.LBB112
 3356 07f9 03       		.byte	0x3
 3357 07fa 0302     		.2byte	0x203
 3358 07fc 3F       		.uleb128 0x3f
 3359 07fd 71030000 		.4byte	0x371
 3360 0801 14000000 		.4byte	.LBB113
 3361 0805 02000000 		.4byte	.LBE113-.LBB113
 3362 0809 0D       		.byte	0xd
 3363 080a 7E01     		.2byte	0x17e
 3364 080c 00       		.byte	0
 3365 080d 00       		.byte	0
 3366 080e 00       		.byte	0
 3367 080f 3D       		.uleb128 0x3d
 3368 0810 48040000 		.4byte	.LASF63
 3369 0814 01       		.byte	0x1
 3370 0815 D2       		.byte	0xd2
 3371 0816 00000000 		.4byte	.LFB110
 3372 081a 1C000000 		.4byte	.LFE110-.LFB110
 3373 081e 01       		.uleb128 0x1
 3374 081f 9C       		.byte	0x9c
ARM GAS  /tmp/ccLruy2S.s 			page 122


 3375 0820 32080000 		.4byte	0x832
 3376 0824 3E       		.uleb128 0x3e
 3377 0825 00000000 		.4byte	.LASF62
 3378 0829 01       		.byte	0x1
 3379 082a D2       		.byte	0xd2
 3380 082b 2A020000 		.4byte	0x22a
 3381 082f 01       		.uleb128 0x1
 3382 0830 50       		.byte	0x50
 3383 0831 00       		.byte	0
 3384 0832 40       		.uleb128 0x40
 3385 0833 D6000000 		.4byte	.LASF65
 3386 0837 01       		.byte	0x1
 3387 0838 4D       		.byte	0x4d
 3388 0839 01       		.byte	0x1
 3389 083a 4A080000 		.4byte	0x84a
 3390 083e 1A       		.uleb128 0x1a
 3391 083f 74637000 		.ascii	"tcp\000"
 3392 0843 01       		.byte	0x1
 3393 0844 4D       		.byte	0x4d
 3394 0845 4A080000 		.4byte	0x84a
 3395 0849 00       		.byte	0
 3396 084a 0D       		.uleb128 0xd
 3397 084b 04       		.byte	0x4
 3398 084c 50080000 		.4byte	0x850
 3399 0850 0E       		.uleb128 0xe
 3400 0851 5E030000 		.4byte	0x35e
 3401 0855 40       		.uleb128 0x40
 3402 0856 B4000000 		.4byte	.LASF66
 3403 085a 01       		.byte	0x1
 3404 085b 46       		.byte	0x46
 3405 085c 01       		.byte	0x1
 3406 085d 6C080000 		.4byte	0x86c
 3407 0861 21       		.uleb128 0x21
 3408 0862 637000   		.ascii	"cp\000"
 3409 0865 01       		.byte	0x1
 3410 0866 47       		.byte	0x47
 3411 0867 6B040000 		.4byte	0x46b
 3412 086b 00       		.byte	0
 3413 086c 41       		.uleb128 0x41
 3414 086d F0010000 		.4byte	.LASF67
 3415 0871 01       		.byte	0x1
 3416 0872 E3       		.byte	0xe3
 3417 0873 B8000000 		.4byte	0xb8
 3418 0877 00000000 		.4byte	.LFB111
 3419 087b C4020000 		.4byte	.LFE111-.LFB111
 3420 087f 01       		.uleb128 0x1
 3421 0880 9C       		.byte	0x9c
 3422 0881 0A0C0000 		.4byte	0xc0a
 3423 0885 2D       		.uleb128 0x2d
 3424 0886 FD010000 		.4byte	.LASF68
 3425 088a 01       		.byte	0x1
 3426 088b E3       		.byte	0xe3
 3427 088c 0A0C0000 		.4byte	0xc0a
 3428 0890 90030000 		.4byte	.LLST20
 3429 0894 24       		.uleb128 0x24
 3430 0895 6900     		.ascii	"i\000"
 3431 0897 01       		.byte	0x1
ARM GAS  /tmp/ccLruy2S.s 			page 123


 3432 0898 E4       		.byte	0xe4
 3433 0899 25000000 		.4byte	0x25
 3434 089d C0030000 		.4byte	.LLST21
 3435 08a1 24       		.uleb128 0x24
 3436 08a2 6A00     		.ascii	"j\000"
 3437 08a4 01       		.byte	0x1
 3438 08a5 E4       		.byte	0xe4
 3439 08a6 25000000 		.4byte	0x25
 3440 08aa 04040000 		.4byte	.LLST22
 3441 08ae 32       		.uleb128 0x32
 3442 08af 71040000 		.4byte	0x471
 3443 08b3 26000000 		.4byte	.LBB147
 3444 08b7 14000000 		.4byte	.LBE147-.LBB147
 3445 08bb 01       		.byte	0x1
 3446 08bc EE       		.byte	0xee
 3447 08bd CB080000 		.4byte	0x8cb
 3448 08c1 29       		.uleb128 0x29
 3449 08c2 7D040000 		.4byte	0x47d
 3450 08c6 46040000 		.4byte	.LLST23
 3451 08ca 00       		.byte	0
 3452 08cb 32       		.uleb128 0x32
 3453 08cc 71040000 		.4byte	0x471
 3454 08d0 42000000 		.4byte	.LBB149
 3455 08d4 14000000 		.4byte	.LBE149-.LBB149
 3456 08d8 01       		.byte	0x1
 3457 08d9 F1       		.byte	0xf1
 3458 08da E8080000 		.4byte	0x8e8
 3459 08de 29       		.uleb128 0x29
 3460 08df 7D040000 		.4byte	0x47d
 3461 08e3 83040000 		.4byte	.LLST24
 3462 08e7 00       		.byte	0
 3463 08e8 32       		.uleb128 0x32
 3464 08e9 71040000 		.4byte	0x471
 3465 08ed 5C000000 		.4byte	.LBB151
 3466 08f1 18000000 		.4byte	.LBE151-.LBB151
 3467 08f5 01       		.byte	0x1
 3468 08f6 F5       		.byte	0xf5
 3469 08f7 05090000 		.4byte	0x905
 3470 08fb 29       		.uleb128 0x29
 3471 08fc 7D040000 		.4byte	0x47d
 3472 0900 C0040000 		.4byte	.LLST25
 3473 0904 00       		.byte	0
 3474 0905 42       		.uleb128 0x42
 3475 0906 32080000 		.4byte	0x832
 3476 090a 96000000 		.4byte	.LBB153
 3477 090e 48000000 		.4byte	.Ldebug_ranges0+0x48
 3478 0912 01       		.byte	0x1
 3479 0913 0D01     		.2byte	0x10d
 3480 0915 32090000 		.4byte	0x932
 3481 0919 29       		.uleb128 0x29
 3482 091a 3E080000 		.4byte	0x83e
 3483 091e FD040000 		.4byte	.LLST26
 3484 0922 43       		.uleb128 0x43
 3485 0923 A3030000 		.4byte	0x3a3
 3486 0927 96000000 		.4byte	.LBB155
 3487 092b 68000000 		.4byte	.Ldebug_ranges0+0x68
 3488 092f 01       		.byte	0x1
ARM GAS  /tmp/ccLruy2S.s 			page 124


 3489 0930 50       		.byte	0x50
 3490 0931 00       		.byte	0
 3491 0932 42       		.uleb128 0x42
 3492 0933 71040000 		.4byte	0x471
 3493 0937 9E000000 		.4byte	.LBB165
 3494 093b 90000000 		.4byte	.Ldebug_ranges0+0x90
 3495 093f 01       		.byte	0x1
 3496 0940 1101     		.2byte	0x111
 3497 0942 50090000 		.4byte	0x950
 3498 0946 29       		.uleb128 0x29
 3499 0947 7D040000 		.4byte	0x47d
 3500 094b 1B050000 		.4byte	.LLST27
 3501 094f 00       		.byte	0
 3502 0950 44       		.uleb128 0x44
 3503 0951 71040000 		.4byte	0x471
 3504 0955 B4000000 		.4byte	.LBB169
 3505 0959 14000000 		.4byte	.LBE169-.LBB169
 3506 095d 01       		.byte	0x1
 3507 095e 0301     		.2byte	0x103
 3508 0960 6E090000 		.4byte	0x96e
 3509 0964 29       		.uleb128 0x29
 3510 0965 7D040000 		.4byte	0x47d
 3511 0969 58050000 		.4byte	.LLST28
 3512 096d 00       		.byte	0
 3513 096e 44       		.uleb128 0x44
 3514 096f 71040000 		.4byte	0x471
 3515 0973 CE000000 		.4byte	.LBB171
 3516 0977 0A000000 		.4byte	.LBE171-.LBB171
 3517 097b 01       		.byte	0x1
 3518 097c 0501     		.2byte	0x105
 3519 097e 94090000 		.4byte	0x994
 3520 0982 45       		.uleb128 0x45
 3521 0983 7D040000 		.4byte	0x47d
 3522 0987 27       		.uleb128 0x27
 3523 0988 D8000000 		.4byte	.LVL92
 3524 098c 26       		.uleb128 0x26
 3525 098d 01       		.uleb128 0x1
 3526 098e 51       		.byte	0x51
 3527 098f 02       		.uleb128 0x2
 3528 0990 08       		.byte	0x8
 3529 0991 2E       		.byte	0x2e
 3530 0992 00       		.byte	0
 3531 0993 00       		.byte	0
 3532 0994 44       		.uleb128 0x44
 3533 0995 71040000 		.4byte	0x471
 3534 0999 E6000000 		.4byte	.LBB173
 3535 099d 14000000 		.4byte	.LBE173-.LBB173
 3536 09a1 01       		.byte	0x1
 3537 09a2 0701     		.2byte	0x107
 3538 09a4 B2090000 		.4byte	0x9b2
 3539 09a8 29       		.uleb128 0x29
 3540 09a9 7D040000 		.4byte	0x47d
 3541 09ad 95050000 		.4byte	.LLST30
 3542 09b1 00       		.byte	0
 3543 09b2 44       		.uleb128 0x44
 3544 09b3 71040000 		.4byte	0x471
 3545 09b7 02010000 		.4byte	.LBB175
ARM GAS  /tmp/ccLruy2S.s 			page 125


 3546 09bb 16000000 		.4byte	.LBE175-.LBB175
 3547 09bf 01       		.byte	0x1
 3548 09c0 0801     		.2byte	0x108
 3549 09c2 D0090000 		.4byte	0x9d0
 3550 09c6 29       		.uleb128 0x29
 3551 09c7 7D040000 		.4byte	0x47d
 3552 09cb D2050000 		.4byte	.LLST31
 3553 09cf 00       		.byte	0
 3554 09d0 44       		.uleb128 0x44
 3555 09d1 9B040000 		.4byte	0x49b
 3556 09d5 1E010000 		.4byte	.LBB177
 3557 09d9 06000000 		.4byte	.LBE177-.LBB177
 3558 09dd 01       		.byte	0x1
 3559 09de 0B01     		.2byte	0x10b
 3560 09e0 FE090000 		.4byte	0x9fe
 3561 09e4 29       		.uleb128 0x29
 3562 09e5 A8040000 		.4byte	0x4a8
 3563 09e9 E5050000 		.4byte	.LLST32
 3564 09ed 46       		.uleb128 0x46
 3565 09ee 24010000 		.4byte	.LVL103
 3566 09f2 A80C0000 		.4byte	0xca8
 3567 09f6 26       		.uleb128 0x26
 3568 09f7 01       		.uleb128 0x1
 3569 09f8 50       		.byte	0x50
 3570 09f9 02       		.uleb128 0x2
 3571 09fa 08       		.byte	0x8
 3572 09fb C8       		.byte	0xc8
 3573 09fc 00       		.byte	0
 3574 09fd 00       		.byte	0
 3575 09fe 44       		.uleb128 0x44
 3576 09ff 71040000 		.4byte	0x471
 3577 0a03 5A010000 		.4byte	.LBB181
 3578 0a07 14000000 		.4byte	.LBE181-.LBB181
 3579 0a0b 01       		.byte	0x1
 3580 0a0c 0F01     		.2byte	0x10f
 3581 0a0e 1C0A0000 		.4byte	0xa1c
 3582 0a12 29       		.uleb128 0x29
 3583 0a13 7D040000 		.4byte	0x47d
 3584 0a17 07060000 		.4byte	.LLST33
 3585 0a1b 00       		.byte	0
 3586 0a1c 44       		.uleb128 0x44
 3587 0a1d 55080000 		.4byte	0x855
 3588 0a21 8C010000 		.4byte	.LBB184
 3589 0a25 20000000 		.4byte	.LBE184-.LBB184
 3590 0a29 01       		.byte	0x1
 3591 0a2a 1201     		.2byte	0x112
 3592 0a2c 440A0000 		.4byte	0xa44
 3593 0a30 39       		.uleb128 0x39
 3594 0a31 8C010000 		.4byte	.LBB185
 3595 0a35 20000000 		.4byte	.LBE185-.LBB185
 3596 0a39 36       		.uleb128 0x36
 3597 0a3a 61080000 		.4byte	0x861
 3598 0a3e 34060000 		.4byte	.LLST34
 3599 0a42 00       		.byte	0
 3600 0a43 00       		.byte	0
 3601 0a44 44       		.uleb128 0x44
 3602 0a45 71040000 		.4byte	0x471
ARM GAS  /tmp/ccLruy2S.s 			page 126


 3603 0a49 AE010000 		.4byte	.LBB187
 3604 0a4d 12000000 		.4byte	.LBE187-.LBB187
 3605 0a51 01       		.byte	0x1
 3606 0a52 1301     		.2byte	0x113
 3607 0a54 620A0000 		.4byte	0xa62
 3608 0a58 29       		.uleb128 0x29
 3609 0a59 7D040000 		.4byte	0x47d
 3610 0a5d 87060000 		.4byte	.LLST35
 3611 0a61 00       		.byte	0
 3612 0a62 44       		.uleb128 0x44
 3613 0a63 71040000 		.4byte	0x471
 3614 0a67 C4010000 		.4byte	.LBB189
 3615 0a6b 16000000 		.4byte	.LBE189-.LBB189
 3616 0a6f 01       		.byte	0x1
 3617 0a70 1401     		.2byte	0x114
 3618 0a72 800A0000 		.4byte	0xa80
 3619 0a76 29       		.uleb128 0x29
 3620 0a77 7D040000 		.4byte	0x47d
 3621 0a7b B4060000 		.4byte	.LLST36
 3622 0a7f 00       		.byte	0
 3623 0a80 44       		.uleb128 0x44
 3624 0a81 71040000 		.4byte	0x471
 3625 0a85 0A020000 		.4byte	.LBB191
 3626 0a89 14000000 		.4byte	.LBE191-.LBB191
 3627 0a8d 01       		.byte	0x1
 3628 0a8e 1F01     		.2byte	0x11f
 3629 0a90 9E0A0000 		.4byte	0xa9e
 3630 0a94 29       		.uleb128 0x29
 3631 0a95 7D040000 		.4byte	0x47d
 3632 0a99 C7060000 		.4byte	.LLST37
 3633 0a9d 00       		.byte	0
 3634 0a9e 47       		.uleb128 0x47
 3635 0a9f 18000000 		.4byte	.LVL60
 3636 0aa3 30070000 		.4byte	0x730
 3637 0aa7 B50A0000 		.4byte	0xab5
 3638 0aab 26       		.uleb128 0x26
 3639 0aac 01       		.uleb128 0x1
 3640 0aad 50       		.byte	0x50
 3641 0aae 05       		.uleb128 0x5
 3642 0aaf 03       		.byte	0x3
 3643 0ab0 04000000 		.4byte	.LC32
 3644 0ab4 00       		.byte	0
 3645 0ab5 47       		.uleb128 0x47
 3646 0ab6 1E000000 		.4byte	.LVL61
 3647 0aba 30070000 		.4byte	0x730
 3648 0abe CC0A0000 		.4byte	0xacc
 3649 0ac2 26       		.uleb128 0x26
 3650 0ac3 01       		.uleb128 0x1
 3651 0ac4 50       		.byte	0x50
 3652 0ac5 05       		.uleb128 0x5
 3653 0ac6 03       		.byte	0x3
 3654 0ac7 08000000 		.4byte	.LC34
 3655 0acb 00       		.byte	0
 3656 0acc 47       		.uleb128 0x47
 3657 0acd 24000000 		.4byte	.LVL62
 3658 0ad1 30070000 		.4byte	0x730
 3659 0ad5 E30A0000 		.4byte	0xae3
ARM GAS  /tmp/ccLruy2S.s 			page 127


 3660 0ad9 26       		.uleb128 0x26
 3661 0ada 01       		.uleb128 0x1
 3662 0adb 50       		.byte	0x50
 3663 0adc 05       		.uleb128 0x5
 3664 0add 03       		.byte	0x3
 3665 0ade 24000000 		.4byte	.LC36
 3666 0ae2 00       		.byte	0
 3667 0ae3 47       		.uleb128 0x47
 3668 0ae4 40000000 		.4byte	.LVL67
 3669 0ae8 30070000 		.4byte	0x730
 3670 0aec FA0A0000 		.4byte	0xafa
 3671 0af0 26       		.uleb128 0x26
 3672 0af1 01       		.uleb128 0x1
 3673 0af2 50       		.byte	0x50
 3674 0af3 05       		.uleb128 0x5
 3675 0af4 03       		.byte	0x3
 3676 0af5 AC000000 		.4byte	.LC64
 3677 0af9 00       		.byte	0
 3678 0afa 47       		.uleb128 0x47
 3679 0afb 5C000000 		.4byte	.LVL73
 3680 0aff 30070000 		.4byte	0x730
 3681 0b03 110B0000 		.4byte	0xb11
 3682 0b07 26       		.uleb128 0x26
 3683 0b08 01       		.uleb128 0x1
 3684 0b09 50       		.byte	0x50
 3685 0b0a 05       		.uleb128 0x5
 3686 0b0b 03       		.byte	0x3
 3687 0b0c D8000000 		.4byte	.LC68
 3688 0b10 00       		.byte	0
 3689 0b11 47       		.uleb128 0x47
 3690 0b12 7C000000 		.4byte	.LVL79
 3691 0b16 30070000 		.4byte	0x730
 3692 0b1a 280B0000 		.4byte	0xb28
 3693 0b1e 26       		.uleb128 0x26
 3694 0b1f 01       		.uleb128 0x1
 3695 0b20 50       		.byte	0x50
 3696 0b21 05       		.uleb128 0x5
 3697 0b22 03       		.byte	0x3
 3698 0b23 3C000000 		.4byte	.LC40
 3699 0b27 00       		.byte	0
 3700 0b28 47       		.uleb128 0x47
 3701 0b29 82000000 		.4byte	.LVL80
 3702 0b2d 30070000 		.4byte	0x730
 3703 0b31 3F0B0000 		.4byte	0xb3f
 3704 0b35 26       		.uleb128 0x26
 3705 0b36 01       		.uleb128 0x1
 3706 0b37 50       		.byte	0x50
 3707 0b38 05       		.uleb128 0x5
 3708 0b39 03       		.byte	0x3
 3709 0b3a 04000000 		.4byte	.LC32
 3710 0b3e 00       		.byte	0
 3711 0b3f 48       		.uleb128 0x48
 3712 0b40 B2000000 		.4byte	.LVL85
 3713 0b44 B5040000 		.4byte	0x4b5
 3714 0b48 47       		.uleb128 0x47
 3715 0b49 CE000000 		.4byte	.LVL90
 3716 0b4d 31040000 		.4byte	0x431
ARM GAS  /tmp/ccLruy2S.s 			page 128


 3717 0b51 5C0B0000 		.4byte	0xb5c
 3718 0b55 26       		.uleb128 0x26
 3719 0b56 01       		.uleb128 0x1
 3720 0b57 50       		.byte	0x50
 3721 0b58 02       		.uleb128 0x2
 3722 0b59 7B       		.byte	0x7b
 3723 0b5a 00       		.sleb128 0
 3724 0b5b 00       		.byte	0
 3725 0b5c 47       		.uleb128 0x47
 3726 0b5d E4000000 		.4byte	.LVL93
 3727 0b61 31040000 		.4byte	0x431
 3728 0b65 710B0000 		.4byte	0xb71
 3729 0b69 26       		.uleb128 0x26
 3730 0b6a 01       		.uleb128 0x1
 3731 0b6b 50       		.byte	0x50
 3732 0b6c 03       		.uleb128 0x3
 3733 0b6d 91       		.byte	0x91
 3734 0b6e 54       		.sleb128 -44
 3735 0b6f 06       		.byte	0x6
 3736 0b70 00       		.byte	0
 3737 0b71 47       		.uleb128 0x47
 3738 0b72 1E010000 		.4byte	.LVL102
 3739 0b76 30070000 		.4byte	0x730
 3740 0b7a 880B0000 		.4byte	0xb88
 3741 0b7e 26       		.uleb128 0x26
 3742 0b7f 01       		.uleb128 0x1
 3743 0b80 50       		.byte	0x50
 3744 0b81 05       		.uleb128 0x5
 3745 0b82 03       		.byte	0x3
 3746 0b83 64000000 		.4byte	.LC46
 3747 0b87 00       		.byte	0
 3748 0b88 48       		.uleb128 0x48
 3749 0b89 76010000 		.4byte	.LVL113
 3750 0b8d 31040000 		.4byte	0x431
 3751 0b91 47       		.uleb128 0x47
 3752 0b92 E0010000 		.4byte	.LVL134
 3753 0b96 30070000 		.4byte	0x730
 3754 0b9a A80B0000 		.4byte	0xba8
 3755 0b9e 26       		.uleb128 0x26
 3756 0b9f 01       		.uleb128 0x1
 3757 0ba0 50       		.byte	0x50
 3758 0ba1 05       		.uleb128 0x5
 3759 0ba2 03       		.byte	0x3
 3760 0ba3 84000000 		.4byte	.LC56
 3761 0ba7 00       		.byte	0
 3762 0ba8 48       		.uleb128 0x48
 3763 0ba9 02020000 		.4byte	.LVL139
 3764 0bad B5040000 		.4byte	0x4b5
 3765 0bb1 47       		.uleb128 0x47
 3766 0bb2 08020000 		.4byte	.LVL140
 3767 0bb6 30070000 		.4byte	0x730
 3768 0bba C80B0000 		.4byte	0xbc8
 3769 0bbe 26       		.uleb128 0x26
 3770 0bbf 01       		.uleb128 0x1
 3771 0bc0 50       		.byte	0x50
 3772 0bc1 05       		.uleb128 0x5
 3773 0bc2 03       		.byte	0x3
ARM GAS  /tmp/ccLruy2S.s 			page 129


 3774 0bc3 04000000 		.4byte	.LC32
 3775 0bc7 00       		.byte	0
 3776 0bc8 47       		.uleb128 0x47
 3777 0bc9 2C020000 		.4byte	.LVL145
 3778 0bcd 30070000 		.4byte	0x730
 3779 0bd1 DF0B0000 		.4byte	0xbdf
 3780 0bd5 26       		.uleb128 0x26
 3781 0bd6 01       		.uleb128 0x1
 3782 0bd7 50       		.byte	0x50
 3783 0bd8 05       		.uleb128 0x5
 3784 0bd9 03       		.byte	0x3
 3785 0bda A4000000 		.4byte	.LC62
 3786 0bde 00       		.byte	0
 3787 0bdf 47       		.uleb128 0x47
 3788 0be0 44020000 		.4byte	.LVL148
 3789 0be4 30070000 		.4byte	0x730
 3790 0be8 F60B0000 		.4byte	0xbf6
 3791 0bec 26       		.uleb128 0x26
 3792 0bed 01       		.uleb128 0x1
 3793 0bee 50       		.byte	0x50
 3794 0bef 05       		.uleb128 0x5
 3795 0bf0 03       		.byte	0x3
 3796 0bf1 88000000 		.4byte	.LC58
 3797 0bf5 00       		.byte	0
 3798 0bf6 46       		.uleb128 0x46
 3799 0bf7 4C020000 		.4byte	.LVL150
 3800 0bfb 30070000 		.4byte	0x730
 3801 0bff 26       		.uleb128 0x26
 3802 0c00 01       		.uleb128 0x1
 3803 0c01 50       		.byte	0x50
 3804 0c02 05       		.uleb128 0x5
 3805 0c03 03       		.byte	0x3
 3806 0c04 9C000000 		.4byte	.LC60
 3807 0c08 00       		.byte	0
 3808 0c09 00       		.byte	0
 3809 0c0a 0D       		.uleb128 0xd
 3810 0c0b 04       		.byte	0x4
 3811 0c0c 0C030000 		.4byte	0x30c
 3812 0c10 49       		.uleb128 0x49
 3813 0c11 E1020000 		.4byte	.LASF69
 3814 0c15 01       		.byte	0x1
 3815 0c16 37       		.byte	0x37
 3816 0c17 17030000 		.4byte	0x317
 3817 0c1b 05       		.uleb128 0x5
 3818 0c1c 03       		.byte	0x3
 3819 0c1d 00000000 		.4byte	test_local_fail
 3820 0c21 49       		.uleb128 0x49
 3821 0c22 95030000 		.4byte	.LASF70
 3822 0c26 01       		.byte	0x1
 3823 0c27 38       		.byte	0x38
 3824 0c28 1F020000 		.4byte	0x21f
 3825 0c2c 05       		.uleb128 0x5
 3826 0c2d 03       		.byte	0x3
 3827 0c2e 00000000 		.4byte	test_failure_message
 3828 0c32 49       		.uleb128 0x49
 3829 0c33 0E020000 		.4byte	.LASF71
 3830 0c37 01       		.byte	0x1
ARM GAS  /tmp/ccLruy2S.s 			page 130


 3831 0c38 39       		.byte	0x39
 3832 0c39 5B040000 		.4byte	0x45b
 3833 0c3d 05       		.uleb128 0x5
 3834 0c3e 03       		.byte	0x3
 3835 0c3f 00000000 		.4byte	test_tokens_buffer
 3836 0c43 49       		.uleb128 0x49
 3837 0c44 0A010000 		.4byte	.LASF72
 3838 0c48 01       		.byte	0x1
 3839 0c49 3A       		.byte	0x3a
 3840 0c4a 6B040000 		.4byte	0x46b
 3841 0c4e 05       		.uleb128 0x5
 3842 0c4f 03       		.byte	0x3
 3843 0c50 00000000 		.4byte	test_tokp
 3844 0c54 49       		.uleb128 0x49
 3845 0c55 01010000 		.4byte	.LASF73
 3846 0c59 01       		.byte	0x1
 3847 0c5a 3B       		.byte	0x3b
 3848 0c5b 0A0C0000 		.4byte	0xc0a
 3849 0c5f 05       		.uleb128 0x5
 3850 0c60 03       		.byte	0x3
 3851 0c61 00000000 		.4byte	test_chp
 3852 0c65 4A       		.uleb128 0x4a
 3853 0c66 6E030000 		.4byte	.LASF74
 3854 0c6a 01       		.byte	0x1
 3855 0c6b 28       		.byte	0x28
 3856 0c6c 37000000 		.4byte	0x37
 3857 0c70 05       		.uleb128 0x5
 3858 0c71 03       		.byte	0x3
 3859 0c72 00000000 		.4byte	test_step
 3860 0c76 4A       		.uleb128 0x4a
 3861 0c77 85010000 		.4byte	.LASF75
 3862 0c7b 01       		.byte	0x1
 3863 0c7c 2D       		.byte	0x2d
 3864 0c7d 17030000 		.4byte	0x317
 3865 0c81 05       		.uleb128 0x5
 3866 0c82 03       		.byte	0x3
 3867 0c83 00000000 		.4byte	test_global_fail
 3868 0c87 07       		.uleb128 0x7
 3869 0c88 920C0000 		.4byte	0xc92
 3870 0c8c 920C0000 		.4byte	0xc92
 3871 0c90 4B       		.uleb128 0x4b
 3872 0c91 00       		.byte	0
 3873 0c92 0D       		.uleb128 0xd
 3874 0c93 04       		.byte	0x4
 3875 0c94 980C0000 		.4byte	0xc98
 3876 0c98 0E       		.uleb128 0xe
 3877 0c99 4A080000 		.4byte	0x84a
 3878 0c9d 4C       		.uleb128 0x4c
 3879 0c9e 1E030000 		.4byte	.LASF76
 3880 0ca2 0F       		.byte	0xf
 3881 0ca3 26       		.byte	0x26
 3882 0ca4 870C0000 		.4byte	0xc87
 3883 0ca8 4D       		.uleb128 0x4d
 3884 0ca9 43010000 		.4byte	.LASF83
 3885 0cad 09       		.byte	0x9
 3886 0cae 3E05     		.2byte	0x53e
 3887 0cb0 13       		.uleb128 0x13
ARM GAS  /tmp/ccLruy2S.s 			page 131


 3888 0cb1 C3000000 		.4byte	0xc3
 3889 0cb5 00       		.byte	0
 3890 0cb6 00       		.byte	0
 3891              		.section	.debug_abbrev,"",%progbits
 3892              	.Ldebug_abbrev0:
 3893 0000 01       		.uleb128 0x1
 3894 0001 11       		.uleb128 0x11
 3895 0002 01       		.byte	0x1
 3896 0003 25       		.uleb128 0x25
 3897 0004 0E       		.uleb128 0xe
 3898 0005 13       		.uleb128 0x13
 3899 0006 0B       		.uleb128 0xb
 3900 0007 03       		.uleb128 0x3
 3901 0008 0E       		.uleb128 0xe
 3902 0009 1B       		.uleb128 0x1b
 3903 000a 0E       		.uleb128 0xe
 3904 000b 55       		.uleb128 0x55
 3905 000c 17       		.uleb128 0x17
 3906 000d 11       		.uleb128 0x11
 3907 000e 01       		.uleb128 0x1
 3908 000f 10       		.uleb128 0x10
 3909 0010 17       		.uleb128 0x17
 3910 0011 00       		.byte	0
 3911 0012 00       		.byte	0
 3912 0013 02       		.uleb128 0x2
 3913 0014 24       		.uleb128 0x24
 3914 0015 00       		.byte	0
 3915 0016 0B       		.uleb128 0xb
 3916 0017 0B       		.uleb128 0xb
 3917 0018 3E       		.uleb128 0x3e
 3918 0019 0B       		.uleb128 0xb
 3919 001a 03       		.uleb128 0x3
 3920 001b 08       		.uleb128 0x8
 3921 001c 00       		.byte	0
 3922 001d 00       		.byte	0
 3923 001e 03       		.uleb128 0x3
 3924 001f 16       		.uleb128 0x16
 3925 0020 00       		.byte	0
 3926 0021 03       		.uleb128 0x3
 3927 0022 0E       		.uleb128 0xe
 3928 0023 3A       		.uleb128 0x3a
 3929 0024 0B       		.uleb128 0xb
 3930 0025 3B       		.uleb128 0x3b
 3931 0026 0B       		.uleb128 0xb
 3932 0027 49       		.uleb128 0x49
 3933 0028 13       		.uleb128 0x13
 3934 0029 00       		.byte	0
 3935 002a 00       		.byte	0
 3936 002b 04       		.uleb128 0x4
 3937 002c 24       		.uleb128 0x24
 3938 002d 00       		.byte	0
 3939 002e 0B       		.uleb128 0xb
 3940 002f 0B       		.uleb128 0xb
 3941 0030 3E       		.uleb128 0x3e
 3942 0031 0B       		.uleb128 0xb
 3943 0032 03       		.uleb128 0x3
 3944 0033 0E       		.uleb128 0xe
ARM GAS  /tmp/ccLruy2S.s 			page 132


 3945 0034 00       		.byte	0
 3946 0035 00       		.byte	0
 3947 0036 05       		.uleb128 0x5
 3948 0037 16       		.uleb128 0x16
 3949 0038 00       		.byte	0
 3950 0039 03       		.uleb128 0x3
 3951 003a 0E       		.uleb128 0xe
 3952 003b 3A       		.uleb128 0x3a
 3953 003c 0B       		.uleb128 0xb
 3954 003d 3B       		.uleb128 0x3b
 3955 003e 05       		.uleb128 0x5
 3956 003f 49       		.uleb128 0x49
 3957 0040 13       		.uleb128 0x13
 3958 0041 00       		.byte	0
 3959 0042 00       		.byte	0
 3960 0043 06       		.uleb128 0x6
 3961 0044 35       		.uleb128 0x35
 3962 0045 00       		.byte	0
 3963 0046 49       		.uleb128 0x49
 3964 0047 13       		.uleb128 0x13
 3965 0048 00       		.byte	0
 3966 0049 00       		.byte	0
 3967 004a 07       		.uleb128 0x7
 3968 004b 01       		.uleb128 0x1
 3969 004c 01       		.byte	0x1
 3970 004d 49       		.uleb128 0x49
 3971 004e 13       		.uleb128 0x13
 3972 004f 01       		.uleb128 0x1
 3973 0050 13       		.uleb128 0x13
 3974 0051 00       		.byte	0
 3975 0052 00       		.byte	0
 3976 0053 08       		.uleb128 0x8
 3977 0054 21       		.uleb128 0x21
 3978 0055 00       		.byte	0
 3979 0056 49       		.uleb128 0x49
 3980 0057 13       		.uleb128 0x13
 3981 0058 2F       		.uleb128 0x2f
 3982 0059 0B       		.uleb128 0xb
 3983 005a 00       		.byte	0
 3984 005b 00       		.byte	0
 3985 005c 09       		.uleb128 0x9
 3986 005d 0F       		.uleb128 0xf
 3987 005e 00       		.byte	0
 3988 005f 0B       		.uleb128 0xb
 3989 0060 0B       		.uleb128 0xb
 3990 0061 00       		.byte	0
 3991 0062 00       		.byte	0
 3992 0063 0A       		.uleb128 0xa
 3993 0064 13       		.uleb128 0x13
 3994 0065 01       		.byte	0x1
 3995 0066 0B       		.uleb128 0xb
 3996 0067 0B       		.uleb128 0xb
 3997 0068 3A       		.uleb128 0x3a
 3998 0069 0B       		.uleb128 0xb
 3999 006a 3B       		.uleb128 0x3b
 4000 006b 05       		.uleb128 0x5
 4001 006c 01       		.uleb128 0x1
ARM GAS  /tmp/ccLruy2S.s 			page 133


 4002 006d 13       		.uleb128 0x13
 4003 006e 00       		.byte	0
 4004 006f 00       		.byte	0
 4005 0070 0B       		.uleb128 0xb
 4006 0071 0D       		.uleb128 0xd
 4007 0072 00       		.byte	0
 4008 0073 03       		.uleb128 0x3
 4009 0074 08       		.uleb128 0x8
 4010 0075 3A       		.uleb128 0x3a
 4011 0076 0B       		.uleb128 0xb
 4012 0077 3B       		.uleb128 0x3b
 4013 0078 05       		.uleb128 0x5
 4014 0079 49       		.uleb128 0x49
 4015 007a 13       		.uleb128 0x13
 4016 007b 38       		.uleb128 0x38
 4017 007c 0B       		.uleb128 0xb
 4018 007d 00       		.byte	0
 4019 007e 00       		.byte	0
 4020 007f 0C       		.uleb128 0xc
 4021 0080 0D       		.uleb128 0xd
 4022 0081 00       		.byte	0
 4023 0082 03       		.uleb128 0x3
 4024 0083 0E       		.uleb128 0xe
 4025 0084 3A       		.uleb128 0x3a
 4026 0085 0B       		.uleb128 0xb
 4027 0086 3B       		.uleb128 0x3b
 4028 0087 05       		.uleb128 0x5
 4029 0088 49       		.uleb128 0x49
 4030 0089 13       		.uleb128 0x13
 4031 008a 38       		.uleb128 0x38
 4032 008b 0B       		.uleb128 0xb
 4033 008c 00       		.byte	0
 4034 008d 00       		.byte	0
 4035 008e 0D       		.uleb128 0xd
 4036 008f 0F       		.uleb128 0xf
 4037 0090 00       		.byte	0
 4038 0091 0B       		.uleb128 0xb
 4039 0092 0B       		.uleb128 0xb
 4040 0093 49       		.uleb128 0x49
 4041 0094 13       		.uleb128 0x13
 4042 0095 00       		.byte	0
 4043 0096 00       		.byte	0
 4044 0097 0E       		.uleb128 0xe
 4045 0098 26       		.uleb128 0x26
 4046 0099 00       		.byte	0
 4047 009a 49       		.uleb128 0x49
 4048 009b 13       		.uleb128 0x13
 4049 009c 00       		.byte	0
 4050 009d 00       		.byte	0
 4051 009e 0F       		.uleb128 0xf
 4052 009f 13       		.uleb128 0x13
 4053 00a0 01       		.byte	0x1
 4054 00a1 03       		.uleb128 0x3
 4055 00a2 0E       		.uleb128 0xe
 4056 00a3 0B       		.uleb128 0xb
 4057 00a4 0B       		.uleb128 0xb
 4058 00a5 3A       		.uleb128 0x3a
ARM GAS  /tmp/ccLruy2S.s 			page 134


 4059 00a6 0B       		.uleb128 0xb
 4060 00a7 3B       		.uleb128 0x3b
 4061 00a8 0B       		.uleb128 0xb
 4062 00a9 01       		.uleb128 0x1
 4063 00aa 13       		.uleb128 0x13
 4064 00ab 00       		.byte	0
 4065 00ac 00       		.byte	0
 4066 00ad 10       		.uleb128 0x10
 4067 00ae 0D       		.uleb128 0xd
 4068 00af 00       		.byte	0
 4069 00b0 03       		.uleb128 0x3
 4070 00b1 0E       		.uleb128 0xe
 4071 00b2 3A       		.uleb128 0x3a
 4072 00b3 0B       		.uleb128 0xb
 4073 00b4 3B       		.uleb128 0x3b
 4074 00b5 0B       		.uleb128 0xb
 4075 00b6 49       		.uleb128 0x49
 4076 00b7 13       		.uleb128 0x13
 4077 00b8 38       		.uleb128 0x38
 4078 00b9 0B       		.uleb128 0xb
 4079 00ba 00       		.byte	0
 4080 00bb 00       		.byte	0
 4081 00bc 11       		.uleb128 0x11
 4082 00bd 0D       		.uleb128 0xd
 4083 00be 00       		.byte	0
 4084 00bf 03       		.uleb128 0x3
 4085 00c0 08       		.uleb128 0x8
 4086 00c1 3A       		.uleb128 0x3a
 4087 00c2 0B       		.uleb128 0xb
 4088 00c3 3B       		.uleb128 0x3b
 4089 00c4 0B       		.uleb128 0xb
 4090 00c5 49       		.uleb128 0x49
 4091 00c6 13       		.uleb128 0x13
 4092 00c7 38       		.uleb128 0x38
 4093 00c8 0B       		.uleb128 0xb
 4094 00c9 00       		.byte	0
 4095 00ca 00       		.byte	0
 4096 00cb 12       		.uleb128 0x12
 4097 00cc 15       		.uleb128 0x15
 4098 00cd 01       		.byte	0x1
 4099 00ce 27       		.uleb128 0x27
 4100 00cf 19       		.uleb128 0x19
 4101 00d0 49       		.uleb128 0x49
 4102 00d1 13       		.uleb128 0x13
 4103 00d2 01       		.uleb128 0x1
 4104 00d3 13       		.uleb128 0x13
 4105 00d4 00       		.byte	0
 4106 00d5 00       		.byte	0
 4107 00d6 13       		.uleb128 0x13
 4108 00d7 05       		.uleb128 0x5
 4109 00d8 00       		.byte	0
 4110 00d9 49       		.uleb128 0x49
 4111 00da 13       		.uleb128 0x13
 4112 00db 00       		.byte	0
 4113 00dc 00       		.byte	0
 4114 00dd 14       		.uleb128 0x14
 4115 00de 13       		.uleb128 0x13
ARM GAS  /tmp/ccLruy2S.s 			page 135


 4116 00df 01       		.byte	0x1
 4117 00e0 0B       		.uleb128 0xb
 4118 00e1 0B       		.uleb128 0xb
 4119 00e2 3A       		.uleb128 0x3a
 4120 00e3 0B       		.uleb128 0xb
 4121 00e4 3B       		.uleb128 0x3b
 4122 00e5 0B       		.uleb128 0xb
 4123 00e6 01       		.uleb128 0x1
 4124 00e7 13       		.uleb128 0x13
 4125 00e8 00       		.byte	0
 4126 00e9 00       		.byte	0
 4127 00ea 15       		.uleb128 0x15
 4128 00eb 15       		.uleb128 0x15
 4129 00ec 00       		.byte	0
 4130 00ed 27       		.uleb128 0x27
 4131 00ee 19       		.uleb128 0x19
 4132 00ef 00       		.byte	0
 4133 00f0 00       		.byte	0
 4134 00f1 16       		.uleb128 0x16
 4135 00f2 2E       		.uleb128 0x2e
 4136 00f3 00       		.byte	0
 4137 00f4 03       		.uleb128 0x3
 4138 00f5 0E       		.uleb128 0xe
 4139 00f6 3A       		.uleb128 0x3a
 4140 00f7 0B       		.uleb128 0xb
 4141 00f8 3B       		.uleb128 0x3b
 4142 00f9 0B       		.uleb128 0xb
 4143 00fa 27       		.uleb128 0x27
 4144 00fb 19       		.uleb128 0x19
 4145 00fc 20       		.uleb128 0x20
 4146 00fd 0B       		.uleb128 0xb
 4147 00fe 00       		.byte	0
 4148 00ff 00       		.byte	0
 4149 0100 17       		.uleb128 0x17
 4150 0101 2E       		.uleb128 0x2e
 4151 0102 00       		.byte	0
 4152 0103 03       		.uleb128 0x3
 4153 0104 0E       		.uleb128 0xe
 4154 0105 3A       		.uleb128 0x3a
 4155 0106 0B       		.uleb128 0xb
 4156 0107 3B       		.uleb128 0x3b
 4157 0108 0B       		.uleb128 0xb
 4158 0109 27       		.uleb128 0x27
 4159 010a 19       		.uleb128 0x19
 4160 010b 49       		.uleb128 0x49
 4161 010c 13       		.uleb128 0x13
 4162 010d 20       		.uleb128 0x20
 4163 010e 0B       		.uleb128 0xb
 4164 010f 00       		.byte	0
 4165 0110 00       		.byte	0
 4166 0111 18       		.uleb128 0x18
 4167 0112 2E       		.uleb128 0x2e
 4168 0113 00       		.byte	0
 4169 0114 03       		.uleb128 0x3
 4170 0115 0E       		.uleb128 0xe
 4171 0116 3A       		.uleb128 0x3a
 4172 0117 0B       		.uleb128 0xb
ARM GAS  /tmp/ccLruy2S.s 			page 136


 4173 0118 3B       		.uleb128 0x3b
 4174 0119 05       		.uleb128 0x5
 4175 011a 27       		.uleb128 0x27
 4176 011b 19       		.uleb128 0x19
 4177 011c 20       		.uleb128 0x20
 4178 011d 0B       		.uleb128 0xb
 4179 011e 00       		.byte	0
 4180 011f 00       		.byte	0
 4181 0120 19       		.uleb128 0x19
 4182 0121 2E       		.uleb128 0x2e
 4183 0122 01       		.byte	0x1
 4184 0123 3F       		.uleb128 0x3f
 4185 0124 19       		.uleb128 0x19
 4186 0125 03       		.uleb128 0x3
 4187 0126 0E       		.uleb128 0xe
 4188 0127 3A       		.uleb128 0x3a
 4189 0128 0B       		.uleb128 0xb
 4190 0129 3B       		.uleb128 0x3b
 4191 012a 0B       		.uleb128 0xb
 4192 012b 27       		.uleb128 0x27
 4193 012c 19       		.uleb128 0x19
 4194 012d 49       		.uleb128 0x49
 4195 012e 13       		.uleb128 0x13
 4196 012f 20       		.uleb128 0x20
 4197 0130 0B       		.uleb128 0xb
 4198 0131 01       		.uleb128 0x1
 4199 0132 13       		.uleb128 0x13
 4200 0133 00       		.byte	0
 4201 0134 00       		.byte	0
 4202 0135 1A       		.uleb128 0x1a
 4203 0136 05       		.uleb128 0x5
 4204 0137 00       		.byte	0
 4205 0138 03       		.uleb128 0x3
 4206 0139 08       		.uleb128 0x8
 4207 013a 3A       		.uleb128 0x3a
 4208 013b 0B       		.uleb128 0xb
 4209 013c 3B       		.uleb128 0x3b
 4210 013d 0B       		.uleb128 0xb
 4211 013e 49       		.uleb128 0x49
 4212 013f 13       		.uleb128 0x13
 4213 0140 00       		.byte	0
 4214 0141 00       		.byte	0
 4215 0142 1B       		.uleb128 0x1b
 4216 0143 2E       		.uleb128 0x2e
 4217 0144 00       		.byte	0
 4218 0145 03       		.uleb128 0x3
 4219 0146 0E       		.uleb128 0xe
 4220 0147 3A       		.uleb128 0x3a
 4221 0148 0B       		.uleb128 0xb
 4222 0149 3B       		.uleb128 0x3b
 4223 014a 05       		.uleb128 0x5
 4224 014b 27       		.uleb128 0x27
 4225 014c 19       		.uleb128 0x19
 4226 014d 49       		.uleb128 0x49
 4227 014e 13       		.uleb128 0x13
 4228 014f 20       		.uleb128 0x20
 4229 0150 0B       		.uleb128 0xb
ARM GAS  /tmp/ccLruy2S.s 			page 137


 4230 0151 00       		.byte	0
 4231 0152 00       		.byte	0
 4232 0153 1C       		.uleb128 0x1c
 4233 0154 2E       		.uleb128 0x2e
 4234 0155 01       		.byte	0x1
 4235 0156 03       		.uleb128 0x3
 4236 0157 0E       		.uleb128 0xe
 4237 0158 3A       		.uleb128 0x3a
 4238 0159 0B       		.uleb128 0xb
 4239 015a 3B       		.uleb128 0x3b
 4240 015b 05       		.uleb128 0x5
 4241 015c 27       		.uleb128 0x27
 4242 015d 19       		.uleb128 0x19
 4243 015e 49       		.uleb128 0x49
 4244 015f 13       		.uleb128 0x13
 4245 0160 20       		.uleb128 0x20
 4246 0161 0B       		.uleb128 0xb
 4247 0162 01       		.uleb128 0x1
 4248 0163 13       		.uleb128 0x13
 4249 0164 00       		.byte	0
 4250 0165 00       		.byte	0
 4251 0166 1D       		.uleb128 0x1d
 4252 0167 05       		.uleb128 0x5
 4253 0168 00       		.byte	0
 4254 0169 03       		.uleb128 0x3
 4255 016a 0E       		.uleb128 0xe
 4256 016b 3A       		.uleb128 0x3a
 4257 016c 0B       		.uleb128 0xb
 4258 016d 3B       		.uleb128 0x3b
 4259 016e 05       		.uleb128 0x5
 4260 016f 49       		.uleb128 0x49
 4261 0170 13       		.uleb128 0x13
 4262 0171 00       		.byte	0
 4263 0172 00       		.byte	0
 4264 0173 1E       		.uleb128 0x1e
 4265 0174 05       		.uleb128 0x5
 4266 0175 00       		.byte	0
 4267 0176 03       		.uleb128 0x3
 4268 0177 08       		.uleb128 0x8
 4269 0178 3A       		.uleb128 0x3a
 4270 0179 0B       		.uleb128 0xb
 4271 017a 3B       		.uleb128 0x3b
 4272 017b 05       		.uleb128 0x5
 4273 017c 49       		.uleb128 0x49
 4274 017d 13       		.uleb128 0x13
 4275 017e 00       		.byte	0
 4276 017f 00       		.byte	0
 4277 0180 1F       		.uleb128 0x1f
 4278 0181 05       		.uleb128 0x5
 4279 0182 00       		.byte	0
 4280 0183 03       		.uleb128 0x3
 4281 0184 0E       		.uleb128 0xe
 4282 0185 3A       		.uleb128 0x3a
 4283 0186 0B       		.uleb128 0xb
 4284 0187 3B       		.uleb128 0x3b
 4285 0188 0B       		.uleb128 0xb
 4286 0189 49       		.uleb128 0x49
ARM GAS  /tmp/ccLruy2S.s 			page 138


 4287 018a 13       		.uleb128 0x13
 4288 018b 00       		.byte	0
 4289 018c 00       		.byte	0
 4290 018d 20       		.uleb128 0x20
 4291 018e 2E       		.uleb128 0x2e
 4292 018f 01       		.byte	0x1
 4293 0190 3F       		.uleb128 0x3f
 4294 0191 19       		.uleb128 0x19
 4295 0192 03       		.uleb128 0x3
 4296 0193 0E       		.uleb128 0xe
 4297 0194 3A       		.uleb128 0x3a
 4298 0195 0B       		.uleb128 0xb
 4299 0196 3B       		.uleb128 0x3b
 4300 0197 0B       		.uleb128 0xb
 4301 0198 27       		.uleb128 0x27
 4302 0199 19       		.uleb128 0x19
 4303 019a 20       		.uleb128 0x20
 4304 019b 0B       		.uleb128 0xb
 4305 019c 01       		.uleb128 0x1
 4306 019d 13       		.uleb128 0x13
 4307 019e 00       		.byte	0
 4308 019f 00       		.byte	0
 4309 01a0 21       		.uleb128 0x21
 4310 01a1 34       		.uleb128 0x34
 4311 01a2 00       		.byte	0
 4312 01a3 03       		.uleb128 0x3
 4313 01a4 08       		.uleb128 0x8
 4314 01a5 3A       		.uleb128 0x3a
 4315 01a6 0B       		.uleb128 0xb
 4316 01a7 3B       		.uleb128 0x3b
 4317 01a8 0B       		.uleb128 0xb
 4318 01a9 49       		.uleb128 0x49
 4319 01aa 13       		.uleb128 0x13
 4320 01ab 00       		.byte	0
 4321 01ac 00       		.byte	0
 4322 01ad 22       		.uleb128 0x22
 4323 01ae 2E       		.uleb128 0x2e
 4324 01af 01       		.byte	0x1
 4325 01b0 03       		.uleb128 0x3
 4326 01b1 0E       		.uleb128 0xe
 4327 01b2 3A       		.uleb128 0x3a
 4328 01b3 0B       		.uleb128 0xb
 4329 01b4 3B       		.uleb128 0x3b
 4330 01b5 05       		.uleb128 0x5
 4331 01b6 27       		.uleb128 0x27
 4332 01b7 19       		.uleb128 0x19
 4333 01b8 20       		.uleb128 0x20
 4334 01b9 0B       		.uleb128 0xb
 4335 01ba 01       		.uleb128 0x1
 4336 01bb 13       		.uleb128 0x13
 4337 01bc 00       		.byte	0
 4338 01bd 00       		.byte	0
 4339 01be 23       		.uleb128 0x23
 4340 01bf 2E       		.uleb128 0x2e
 4341 01c0 01       		.byte	0x1
 4342 01c1 03       		.uleb128 0x3
 4343 01c2 0E       		.uleb128 0xe
ARM GAS  /tmp/ccLruy2S.s 			page 139


 4344 01c3 3A       		.uleb128 0x3a
 4345 01c4 0B       		.uleb128 0xb
 4346 01c5 3B       		.uleb128 0x3b
 4347 01c6 0B       		.uleb128 0xb
 4348 01c7 27       		.uleb128 0x27
 4349 01c8 19       		.uleb128 0x19
 4350 01c9 11       		.uleb128 0x11
 4351 01ca 01       		.uleb128 0x1
 4352 01cb 12       		.uleb128 0x12
 4353 01cc 06       		.uleb128 0x6
 4354 01cd 40       		.uleb128 0x40
 4355 01ce 18       		.uleb128 0x18
 4356 01cf 9742     		.uleb128 0x2117
 4357 01d1 19       		.uleb128 0x19
 4358 01d2 01       		.uleb128 0x1
 4359 01d3 13       		.uleb128 0x13
 4360 01d4 00       		.byte	0
 4361 01d5 00       		.byte	0
 4362 01d6 24       		.uleb128 0x24
 4363 01d7 34       		.uleb128 0x34
 4364 01d8 00       		.byte	0
 4365 01d9 03       		.uleb128 0x3
 4366 01da 08       		.uleb128 0x8
 4367 01db 3A       		.uleb128 0x3a
 4368 01dc 0B       		.uleb128 0xb
 4369 01dd 3B       		.uleb128 0x3b
 4370 01de 0B       		.uleb128 0xb
 4371 01df 49       		.uleb128 0x49
 4372 01e0 13       		.uleb128 0x13
 4373 01e1 02       		.uleb128 0x2
 4374 01e2 17       		.uleb128 0x17
 4375 01e3 00       		.byte	0
 4376 01e4 00       		.byte	0
 4377 01e5 25       		.uleb128 0x25
 4378 01e6 898201   		.uleb128 0x4109
 4379 01e9 01       		.byte	0x1
 4380 01ea 11       		.uleb128 0x11
 4381 01eb 01       		.uleb128 0x1
 4382 01ec 01       		.uleb128 0x1
 4383 01ed 13       		.uleb128 0x13
 4384 01ee 00       		.byte	0
 4385 01ef 00       		.byte	0
 4386 01f0 26       		.uleb128 0x26
 4387 01f1 8A8201   		.uleb128 0x410a
 4388 01f4 00       		.byte	0
 4389 01f5 02       		.uleb128 0x2
 4390 01f6 18       		.uleb128 0x18
 4391 01f7 9142     		.uleb128 0x2111
 4392 01f9 18       		.uleb128 0x18
 4393 01fa 00       		.byte	0
 4394 01fb 00       		.byte	0
 4395 01fc 27       		.uleb128 0x27
 4396 01fd 898201   		.uleb128 0x4109
 4397 0200 01       		.byte	0x1
 4398 0201 11       		.uleb128 0x11
 4399 0202 01       		.uleb128 0x1
 4400 0203 00       		.byte	0
ARM GAS  /tmp/ccLruy2S.s 			page 140


 4401 0204 00       		.byte	0
 4402 0205 28       		.uleb128 0x28
 4403 0206 2E       		.uleb128 0x2e
 4404 0207 01       		.byte	0x1
 4405 0208 31       		.uleb128 0x31
 4406 0209 13       		.uleb128 0x13
 4407 020a 11       		.uleb128 0x11
 4408 020b 01       		.uleb128 0x1
 4409 020c 12       		.uleb128 0x12
 4410 020d 06       		.uleb128 0x6
 4411 020e 40       		.uleb128 0x40
 4412 020f 18       		.uleb128 0x18
 4413 0210 9742     		.uleb128 0x2117
 4414 0212 19       		.uleb128 0x19
 4415 0213 01       		.uleb128 0x1
 4416 0214 13       		.uleb128 0x13
 4417 0215 00       		.byte	0
 4418 0216 00       		.byte	0
 4419 0217 29       		.uleb128 0x29
 4420 0218 05       		.uleb128 0x5
 4421 0219 00       		.byte	0
 4422 021a 31       		.uleb128 0x31
 4423 021b 13       		.uleb128 0x13
 4424 021c 02       		.uleb128 0x2
 4425 021d 17       		.uleb128 0x17
 4426 021e 00       		.byte	0
 4427 021f 00       		.byte	0
 4428 0220 2A       		.uleb128 0x2a
 4429 0221 05       		.uleb128 0x5
 4430 0222 00       		.byte	0
 4431 0223 31       		.uleb128 0x31
 4432 0224 13       		.uleb128 0x13
 4433 0225 02       		.uleb128 0x2
 4434 0226 18       		.uleb128 0x18
 4435 0227 00       		.byte	0
 4436 0228 00       		.byte	0
 4437 0229 2B       		.uleb128 0x2b
 4438 022a 1D       		.uleb128 0x1d
 4439 022b 01       		.byte	0x1
 4440 022c 31       		.uleb128 0x31
 4441 022d 13       		.uleb128 0x13
 4442 022e 11       		.uleb128 0x11
 4443 022f 01       		.uleb128 0x1
 4444 0230 12       		.uleb128 0x12
 4445 0231 06       		.uleb128 0x6
 4446 0232 58       		.uleb128 0x58
 4447 0233 0B       		.uleb128 0xb
 4448 0234 59       		.uleb128 0x59
 4449 0235 0B       		.uleb128 0xb
 4450 0236 00       		.byte	0
 4451 0237 00       		.byte	0
 4452 0238 2C       		.uleb128 0x2c
 4453 0239 2E       		.uleb128 0x2e
 4454 023a 01       		.byte	0x1
 4455 023b 3F       		.uleb128 0x3f
 4456 023c 19       		.uleb128 0x19
 4457 023d 03       		.uleb128 0x3
ARM GAS  /tmp/ccLruy2S.s 			page 141


 4458 023e 0E       		.uleb128 0xe
 4459 023f 3A       		.uleb128 0x3a
 4460 0240 0B       		.uleb128 0xb
 4461 0241 3B       		.uleb128 0x3b
 4462 0242 0B       		.uleb128 0xb
 4463 0243 27       		.uleb128 0x27
 4464 0244 19       		.uleb128 0x19
 4465 0245 49       		.uleb128 0x49
 4466 0246 13       		.uleb128 0x13
 4467 0247 11       		.uleb128 0x11
 4468 0248 01       		.uleb128 0x1
 4469 0249 12       		.uleb128 0x12
 4470 024a 06       		.uleb128 0x6
 4471 024b 40       		.uleb128 0x40
 4472 024c 18       		.uleb128 0x18
 4473 024d 9742     		.uleb128 0x2117
 4474 024f 19       		.uleb128 0x19
 4475 0250 01       		.uleb128 0x1
 4476 0251 13       		.uleb128 0x13
 4477 0252 00       		.byte	0
 4478 0253 00       		.byte	0
 4479 0254 2D       		.uleb128 0x2d
 4480 0255 05       		.uleb128 0x5
 4481 0256 00       		.byte	0
 4482 0257 03       		.uleb128 0x3
 4483 0258 0E       		.uleb128 0xe
 4484 0259 3A       		.uleb128 0x3a
 4485 025a 0B       		.uleb128 0xb
 4486 025b 3B       		.uleb128 0x3b
 4487 025c 0B       		.uleb128 0xb
 4488 025d 49       		.uleb128 0x49
 4489 025e 13       		.uleb128 0x13
 4490 025f 02       		.uleb128 0x2
 4491 0260 17       		.uleb128 0x17
 4492 0261 00       		.byte	0
 4493 0262 00       		.byte	0
 4494 0263 2E       		.uleb128 0x2e
 4495 0264 05       		.uleb128 0x5
 4496 0265 00       		.byte	0
 4497 0266 03       		.uleb128 0x3
 4498 0267 08       		.uleb128 0x8
 4499 0268 3A       		.uleb128 0x3a
 4500 0269 0B       		.uleb128 0xb
 4501 026a 3B       		.uleb128 0x3b
 4502 026b 0B       		.uleb128 0xb
 4503 026c 49       		.uleb128 0x49
 4504 026d 13       		.uleb128 0x13
 4505 026e 02       		.uleb128 0x2
 4506 026f 17       		.uleb128 0x17
 4507 0270 00       		.byte	0
 4508 0271 00       		.byte	0
 4509 0272 2F       		.uleb128 0x2f
 4510 0273 1D       		.uleb128 0x1d
 4511 0274 00       		.byte	0
 4512 0275 31       		.uleb128 0x31
 4513 0276 13       		.uleb128 0x13
 4514 0277 11       		.uleb128 0x11
ARM GAS  /tmp/ccLruy2S.s 			page 142


 4515 0278 01       		.uleb128 0x1
 4516 0279 12       		.uleb128 0x12
 4517 027a 06       		.uleb128 0x6
 4518 027b 58       		.uleb128 0x58
 4519 027c 0B       		.uleb128 0xb
 4520 027d 59       		.uleb128 0x59
 4521 027e 0B       		.uleb128 0xb
 4522 027f 00       		.byte	0
 4523 0280 00       		.byte	0
 4524 0281 30       		.uleb128 0x30
 4525 0282 1D       		.uleb128 0x1d
 4526 0283 01       		.byte	0x1
 4527 0284 31       		.uleb128 0x31
 4528 0285 13       		.uleb128 0x13
 4529 0286 52       		.uleb128 0x52
 4530 0287 01       		.uleb128 0x1
 4531 0288 55       		.uleb128 0x55
 4532 0289 17       		.uleb128 0x17
 4533 028a 58       		.uleb128 0x58
 4534 028b 0B       		.uleb128 0xb
 4535 028c 59       		.uleb128 0x59
 4536 028d 0B       		.uleb128 0xb
 4537 028e 00       		.byte	0
 4538 028f 00       		.byte	0
 4539 0290 31       		.uleb128 0x31
 4540 0291 05       		.uleb128 0x5
 4541 0292 00       		.byte	0
 4542 0293 03       		.uleb128 0x3
 4543 0294 08       		.uleb128 0x8
 4544 0295 3A       		.uleb128 0x3a
 4545 0296 0B       		.uleb128 0xb
 4546 0297 3B       		.uleb128 0x3b
 4547 0298 0B       		.uleb128 0xb
 4548 0299 49       		.uleb128 0x49
 4549 029a 13       		.uleb128 0x13
 4550 029b 02       		.uleb128 0x2
 4551 029c 18       		.uleb128 0x18
 4552 029d 00       		.byte	0
 4553 029e 00       		.byte	0
 4554 029f 32       		.uleb128 0x32
 4555 02a0 1D       		.uleb128 0x1d
 4556 02a1 01       		.byte	0x1
 4557 02a2 31       		.uleb128 0x31
 4558 02a3 13       		.uleb128 0x13
 4559 02a4 11       		.uleb128 0x11
 4560 02a5 01       		.uleb128 0x1
 4561 02a6 12       		.uleb128 0x12
 4562 02a7 06       		.uleb128 0x6
 4563 02a8 58       		.uleb128 0x58
 4564 02a9 0B       		.uleb128 0xb
 4565 02aa 59       		.uleb128 0x59
 4566 02ab 0B       		.uleb128 0xb
 4567 02ac 01       		.uleb128 0x1
 4568 02ad 13       		.uleb128 0x13
 4569 02ae 00       		.byte	0
 4570 02af 00       		.byte	0
 4571 02b0 33       		.uleb128 0x33
ARM GAS  /tmp/ccLruy2S.s 			page 143


 4572 02b1 1D       		.uleb128 0x1d
 4573 02b2 01       		.byte	0x1
 4574 02b3 31       		.uleb128 0x31
 4575 02b4 13       		.uleb128 0x13
 4576 02b5 11       		.uleb128 0x11
 4577 02b6 01       		.uleb128 0x1
 4578 02b7 12       		.uleb128 0x12
 4579 02b8 06       		.uleb128 0x6
 4580 02b9 58       		.uleb128 0x58
 4581 02ba 0B       		.uleb128 0xb
 4582 02bb 59       		.uleb128 0x59
 4583 02bc 05       		.uleb128 0x5
 4584 02bd 00       		.byte	0
 4585 02be 00       		.byte	0
 4586 02bf 34       		.uleb128 0x34
 4587 02c0 2E       		.uleb128 0x2e
 4588 02c1 01       		.byte	0x1
 4589 02c2 31       		.uleb128 0x31
 4590 02c3 13       		.uleb128 0x13
 4591 02c4 11       		.uleb128 0x11
 4592 02c5 01       		.uleb128 0x1
 4593 02c6 12       		.uleb128 0x12
 4594 02c7 06       		.uleb128 0x6
 4595 02c8 40       		.uleb128 0x40
 4596 02c9 18       		.uleb128 0x18
 4597 02ca 9642     		.uleb128 0x2116
 4598 02cc 19       		.uleb128 0x19
 4599 02cd 01       		.uleb128 0x1
 4600 02ce 13       		.uleb128 0x13
 4601 02cf 00       		.byte	0
 4602 02d0 00       		.byte	0
 4603 02d1 35       		.uleb128 0x35
 4604 02d2 34       		.uleb128 0x34
 4605 02d3 00       		.byte	0
 4606 02d4 31       		.uleb128 0x31
 4607 02d5 13       		.uleb128 0x13
 4608 02d6 02       		.uleb128 0x2
 4609 02d7 18       		.uleb128 0x18
 4610 02d8 00       		.byte	0
 4611 02d9 00       		.byte	0
 4612 02da 36       		.uleb128 0x36
 4613 02db 34       		.uleb128 0x34
 4614 02dc 00       		.byte	0
 4615 02dd 31       		.uleb128 0x31
 4616 02de 13       		.uleb128 0x13
 4617 02df 02       		.uleb128 0x2
 4618 02e0 17       		.uleb128 0x17
 4619 02e1 00       		.byte	0
 4620 02e2 00       		.byte	0
 4621 02e3 37       		.uleb128 0x37
 4622 02e4 0B       		.uleb128 0xb
 4623 02e5 01       		.byte	0x1
 4624 02e6 11       		.uleb128 0x11
 4625 02e7 01       		.uleb128 0x1
 4626 02e8 12       		.uleb128 0x12
 4627 02e9 06       		.uleb128 0x6
 4628 02ea 01       		.uleb128 0x1
ARM GAS  /tmp/ccLruy2S.s 			page 144


 4629 02eb 13       		.uleb128 0x13
 4630 02ec 00       		.byte	0
 4631 02ed 00       		.byte	0
 4632 02ee 38       		.uleb128 0x38
 4633 02ef 05       		.uleb128 0x5
 4634 02f0 00       		.byte	0
 4635 02f1 31       		.uleb128 0x31
 4636 02f2 13       		.uleb128 0x13
 4637 02f3 1C       		.uleb128 0x1c
 4638 02f4 0B       		.uleb128 0xb
 4639 02f5 00       		.byte	0
 4640 02f6 00       		.byte	0
 4641 02f7 39       		.uleb128 0x39
 4642 02f8 0B       		.uleb128 0xb
 4643 02f9 01       		.byte	0x1
 4644 02fa 11       		.uleb128 0x11
 4645 02fb 01       		.uleb128 0x1
 4646 02fc 12       		.uleb128 0x12
 4647 02fd 06       		.uleb128 0x6
 4648 02fe 00       		.byte	0
 4649 02ff 00       		.byte	0
 4650 0300 3A       		.uleb128 0x3a
 4651 0301 34       		.uleb128 0x34
 4652 0302 00       		.byte	0
 4653 0303 31       		.uleb128 0x31
 4654 0304 13       		.uleb128 0x13
 4655 0305 00       		.byte	0
 4656 0306 00       		.byte	0
 4657 0307 3B       		.uleb128 0x3b
 4658 0308 2E       		.uleb128 0x2e
 4659 0309 01       		.byte	0x1
 4660 030a 3F       		.uleb128 0x3f
 4661 030b 19       		.uleb128 0x19
 4662 030c 03       		.uleb128 0x3
 4663 030d 0E       		.uleb128 0xe
 4664 030e 3A       		.uleb128 0x3a
 4665 030f 0B       		.uleb128 0xb
 4666 0310 3B       		.uleb128 0x3b
 4667 0311 0B       		.uleb128 0xb
 4668 0312 27       		.uleb128 0x27
 4669 0313 19       		.uleb128 0x19
 4670 0314 11       		.uleb128 0x11
 4671 0315 01       		.uleb128 0x1
 4672 0316 12       		.uleb128 0x12
 4673 0317 06       		.uleb128 0x6
 4674 0318 40       		.uleb128 0x40
 4675 0319 18       		.uleb128 0x18
 4676 031a 9642     		.uleb128 0x2116
 4677 031c 19       		.uleb128 0x19
 4678 031d 01       		.uleb128 0x1
 4679 031e 13       		.uleb128 0x13
 4680 031f 00       		.byte	0
 4681 0320 00       		.byte	0
 4682 0321 3C       		.uleb128 0x3c
 4683 0322 1D       		.uleb128 0x1d
 4684 0323 01       		.byte	0x1
 4685 0324 31       		.uleb128 0x31
ARM GAS  /tmp/ccLruy2S.s 			page 145


 4686 0325 13       		.uleb128 0x13
 4687 0326 52       		.uleb128 0x52
 4688 0327 01       		.uleb128 0x1
 4689 0328 55       		.uleb128 0x55
 4690 0329 17       		.uleb128 0x17
 4691 032a 58       		.uleb128 0x58
 4692 032b 0B       		.uleb128 0xb
 4693 032c 59       		.uleb128 0x59
 4694 032d 0B       		.uleb128 0xb
 4695 032e 01       		.uleb128 0x1
 4696 032f 13       		.uleb128 0x13
 4697 0330 00       		.byte	0
 4698 0331 00       		.byte	0
 4699 0332 3D       		.uleb128 0x3d
 4700 0333 2E       		.uleb128 0x2e
 4701 0334 01       		.byte	0x1
 4702 0335 3F       		.uleb128 0x3f
 4703 0336 19       		.uleb128 0x19
 4704 0337 03       		.uleb128 0x3
 4705 0338 0E       		.uleb128 0xe
 4706 0339 3A       		.uleb128 0x3a
 4707 033a 0B       		.uleb128 0xb
 4708 033b 3B       		.uleb128 0x3b
 4709 033c 0B       		.uleb128 0xb
 4710 033d 27       		.uleb128 0x27
 4711 033e 19       		.uleb128 0x19
 4712 033f 11       		.uleb128 0x11
 4713 0340 01       		.uleb128 0x1
 4714 0341 12       		.uleb128 0x12
 4715 0342 06       		.uleb128 0x6
 4716 0343 40       		.uleb128 0x40
 4717 0344 18       		.uleb128 0x18
 4718 0345 9742     		.uleb128 0x2117
 4719 0347 19       		.uleb128 0x19
 4720 0348 01       		.uleb128 0x1
 4721 0349 13       		.uleb128 0x13
 4722 034a 00       		.byte	0
 4723 034b 00       		.byte	0
 4724 034c 3E       		.uleb128 0x3e
 4725 034d 05       		.uleb128 0x5
 4726 034e 00       		.byte	0
 4727 034f 03       		.uleb128 0x3
 4728 0350 0E       		.uleb128 0xe
 4729 0351 3A       		.uleb128 0x3a
 4730 0352 0B       		.uleb128 0xb
 4731 0353 3B       		.uleb128 0x3b
 4732 0354 0B       		.uleb128 0xb
 4733 0355 49       		.uleb128 0x49
 4734 0356 13       		.uleb128 0x13
 4735 0357 02       		.uleb128 0x2
 4736 0358 18       		.uleb128 0x18
 4737 0359 00       		.byte	0
 4738 035a 00       		.byte	0
 4739 035b 3F       		.uleb128 0x3f
 4740 035c 1D       		.uleb128 0x1d
 4741 035d 00       		.byte	0
 4742 035e 31       		.uleb128 0x31
ARM GAS  /tmp/ccLruy2S.s 			page 146


 4743 035f 13       		.uleb128 0x13
 4744 0360 11       		.uleb128 0x11
 4745 0361 01       		.uleb128 0x1
 4746 0362 12       		.uleb128 0x12
 4747 0363 06       		.uleb128 0x6
 4748 0364 58       		.uleb128 0x58
 4749 0365 0B       		.uleb128 0xb
 4750 0366 59       		.uleb128 0x59
 4751 0367 05       		.uleb128 0x5
 4752 0368 00       		.byte	0
 4753 0369 00       		.byte	0
 4754 036a 40       		.uleb128 0x40
 4755 036b 2E       		.uleb128 0x2e
 4756 036c 01       		.byte	0x1
 4757 036d 03       		.uleb128 0x3
 4758 036e 0E       		.uleb128 0xe
 4759 036f 3A       		.uleb128 0x3a
 4760 0370 0B       		.uleb128 0xb
 4761 0371 3B       		.uleb128 0x3b
 4762 0372 0B       		.uleb128 0xb
 4763 0373 27       		.uleb128 0x27
 4764 0374 19       		.uleb128 0x19
 4765 0375 20       		.uleb128 0x20
 4766 0376 0B       		.uleb128 0xb
 4767 0377 01       		.uleb128 0x1
 4768 0378 13       		.uleb128 0x13
 4769 0379 00       		.byte	0
 4770 037a 00       		.byte	0
 4771 037b 41       		.uleb128 0x41
 4772 037c 2E       		.uleb128 0x2e
 4773 037d 01       		.byte	0x1
 4774 037e 3F       		.uleb128 0x3f
 4775 037f 19       		.uleb128 0x19
 4776 0380 03       		.uleb128 0x3
 4777 0381 0E       		.uleb128 0xe
 4778 0382 3A       		.uleb128 0x3a
 4779 0383 0B       		.uleb128 0xb
 4780 0384 3B       		.uleb128 0x3b
 4781 0385 0B       		.uleb128 0xb
 4782 0386 27       		.uleb128 0x27
 4783 0387 19       		.uleb128 0x19
 4784 0388 49       		.uleb128 0x49
 4785 0389 13       		.uleb128 0x13
 4786 038a 11       		.uleb128 0x11
 4787 038b 01       		.uleb128 0x1
 4788 038c 12       		.uleb128 0x12
 4789 038d 06       		.uleb128 0x6
 4790 038e 40       		.uleb128 0x40
 4791 038f 18       		.uleb128 0x18
 4792 0390 9642     		.uleb128 0x2116
 4793 0392 19       		.uleb128 0x19
 4794 0393 01       		.uleb128 0x1
 4795 0394 13       		.uleb128 0x13
 4796 0395 00       		.byte	0
 4797 0396 00       		.byte	0
 4798 0397 42       		.uleb128 0x42
 4799 0398 1D       		.uleb128 0x1d
ARM GAS  /tmp/ccLruy2S.s 			page 147


 4800 0399 01       		.byte	0x1
 4801 039a 31       		.uleb128 0x31
 4802 039b 13       		.uleb128 0x13
 4803 039c 52       		.uleb128 0x52
 4804 039d 01       		.uleb128 0x1
 4805 039e 55       		.uleb128 0x55
 4806 039f 17       		.uleb128 0x17
 4807 03a0 58       		.uleb128 0x58
 4808 03a1 0B       		.uleb128 0xb
 4809 03a2 59       		.uleb128 0x59
 4810 03a3 05       		.uleb128 0x5
 4811 03a4 01       		.uleb128 0x1
 4812 03a5 13       		.uleb128 0x13
 4813 03a6 00       		.byte	0
 4814 03a7 00       		.byte	0
 4815 03a8 43       		.uleb128 0x43
 4816 03a9 1D       		.uleb128 0x1d
 4817 03aa 00       		.byte	0
 4818 03ab 31       		.uleb128 0x31
 4819 03ac 13       		.uleb128 0x13
 4820 03ad 52       		.uleb128 0x52
 4821 03ae 01       		.uleb128 0x1
 4822 03af 55       		.uleb128 0x55
 4823 03b0 17       		.uleb128 0x17
 4824 03b1 58       		.uleb128 0x58
 4825 03b2 0B       		.uleb128 0xb
 4826 03b3 59       		.uleb128 0x59
 4827 03b4 0B       		.uleb128 0xb
 4828 03b5 00       		.byte	0
 4829 03b6 00       		.byte	0
 4830 03b7 44       		.uleb128 0x44
 4831 03b8 1D       		.uleb128 0x1d
 4832 03b9 01       		.byte	0x1
 4833 03ba 31       		.uleb128 0x31
 4834 03bb 13       		.uleb128 0x13
 4835 03bc 11       		.uleb128 0x11
 4836 03bd 01       		.uleb128 0x1
 4837 03be 12       		.uleb128 0x12
 4838 03bf 06       		.uleb128 0x6
 4839 03c0 58       		.uleb128 0x58
 4840 03c1 0B       		.uleb128 0xb
 4841 03c2 59       		.uleb128 0x59
 4842 03c3 05       		.uleb128 0x5
 4843 03c4 01       		.uleb128 0x1
 4844 03c5 13       		.uleb128 0x13
 4845 03c6 00       		.byte	0
 4846 03c7 00       		.byte	0
 4847 03c8 45       		.uleb128 0x45
 4848 03c9 05       		.uleb128 0x5
 4849 03ca 00       		.byte	0
 4850 03cb 31       		.uleb128 0x31
 4851 03cc 13       		.uleb128 0x13
 4852 03cd 00       		.byte	0
 4853 03ce 00       		.byte	0
 4854 03cf 46       		.uleb128 0x46
 4855 03d0 898201   		.uleb128 0x4109
 4856 03d3 01       		.byte	0x1
ARM GAS  /tmp/ccLruy2S.s 			page 148


 4857 03d4 11       		.uleb128 0x11
 4858 03d5 01       		.uleb128 0x1
 4859 03d6 31       		.uleb128 0x31
 4860 03d7 13       		.uleb128 0x13
 4861 03d8 00       		.byte	0
 4862 03d9 00       		.byte	0
 4863 03da 47       		.uleb128 0x47
 4864 03db 898201   		.uleb128 0x4109
 4865 03de 01       		.byte	0x1
 4866 03df 11       		.uleb128 0x11
 4867 03e0 01       		.uleb128 0x1
 4868 03e1 31       		.uleb128 0x31
 4869 03e2 13       		.uleb128 0x13
 4870 03e3 01       		.uleb128 0x1
 4871 03e4 13       		.uleb128 0x13
 4872 03e5 00       		.byte	0
 4873 03e6 00       		.byte	0
 4874 03e7 48       		.uleb128 0x48
 4875 03e8 898201   		.uleb128 0x4109
 4876 03eb 00       		.byte	0
 4877 03ec 11       		.uleb128 0x11
 4878 03ed 01       		.uleb128 0x1
 4879 03ee 31       		.uleb128 0x31
 4880 03ef 13       		.uleb128 0x13
 4881 03f0 00       		.byte	0
 4882 03f1 00       		.byte	0
 4883 03f2 49       		.uleb128 0x49
 4884 03f3 34       		.uleb128 0x34
 4885 03f4 00       		.byte	0
 4886 03f5 03       		.uleb128 0x3
 4887 03f6 0E       		.uleb128 0xe
 4888 03f7 3A       		.uleb128 0x3a
 4889 03f8 0B       		.uleb128 0xb
 4890 03f9 3B       		.uleb128 0x3b
 4891 03fa 0B       		.uleb128 0xb
 4892 03fb 49       		.uleb128 0x49
 4893 03fc 13       		.uleb128 0x13
 4894 03fd 02       		.uleb128 0x2
 4895 03fe 18       		.uleb128 0x18
 4896 03ff 00       		.byte	0
 4897 0400 00       		.byte	0
 4898 0401 4A       		.uleb128 0x4a
 4899 0402 34       		.uleb128 0x34
 4900 0403 00       		.byte	0
 4901 0404 03       		.uleb128 0x3
 4902 0405 0E       		.uleb128 0xe
 4903 0406 3A       		.uleb128 0x3a
 4904 0407 0B       		.uleb128 0xb
 4905 0408 3B       		.uleb128 0x3b
 4906 0409 0B       		.uleb128 0xb
 4907 040a 49       		.uleb128 0x49
 4908 040b 13       		.uleb128 0x13
 4909 040c 3F       		.uleb128 0x3f
 4910 040d 19       		.uleb128 0x19
 4911 040e 02       		.uleb128 0x2
 4912 040f 18       		.uleb128 0x18
 4913 0410 00       		.byte	0
ARM GAS  /tmp/ccLruy2S.s 			page 149


 4914 0411 00       		.byte	0
 4915 0412 4B       		.uleb128 0x4b
 4916 0413 21       		.uleb128 0x21
 4917 0414 00       		.byte	0
 4918 0415 00       		.byte	0
 4919 0416 00       		.byte	0
 4920 0417 4C       		.uleb128 0x4c
 4921 0418 34       		.uleb128 0x34
 4922 0419 00       		.byte	0
 4923 041a 03       		.uleb128 0x3
 4924 041b 0E       		.uleb128 0xe
 4925 041c 3A       		.uleb128 0x3a
 4926 041d 0B       		.uleb128 0xb
 4927 041e 3B       		.uleb128 0x3b
 4928 041f 0B       		.uleb128 0xb
 4929 0420 49       		.uleb128 0x49
 4930 0421 13       		.uleb128 0x13
 4931 0422 3F       		.uleb128 0x3f
 4932 0423 19       		.uleb128 0x19
 4933 0424 3C       		.uleb128 0x3c
 4934 0425 19       		.uleb128 0x19
 4935 0426 00       		.byte	0
 4936 0427 00       		.byte	0
 4937 0428 4D       		.uleb128 0x4d
 4938 0429 2E       		.uleb128 0x2e
 4939 042a 01       		.byte	0x1
 4940 042b 3F       		.uleb128 0x3f
 4941 042c 19       		.uleb128 0x19
 4942 042d 03       		.uleb128 0x3
 4943 042e 0E       		.uleb128 0xe
 4944 042f 3A       		.uleb128 0x3a
 4945 0430 0B       		.uleb128 0xb
 4946 0431 3B       		.uleb128 0x3b
 4947 0432 05       		.uleb128 0x5
 4948 0433 27       		.uleb128 0x27
 4949 0434 19       		.uleb128 0x19
 4950 0435 3C       		.uleb128 0x3c
 4951 0436 19       		.uleb128 0x19
 4952 0437 00       		.byte	0
 4953 0438 00       		.byte	0
 4954 0439 00       		.byte	0
 4955              		.section	.debug_loc,"",%progbits
 4956              	.Ldebug_loc0:
 4957              	.LLST0:
 4958 0000 00000000 		.4byte	.LVL0
 4959 0004 06000000 		.4byte	.LVL1
 4960 0008 0200     		.2byte	0x2
 4961 000a 30       		.byte	0x30
 4962 000b 9F       		.byte	0x9f
 4963 000c 06000000 		.4byte	.LVL1
 4964 0010 0E000000 		.4byte	.LVL2
 4965 0014 0600     		.2byte	0x6
 4966 0016 08       		.byte	0x8
 4967 0017 4C       		.byte	0x4c
 4968 0018 74       		.byte	0x74
 4969 0019 00       		.sleb128 0
 4970 001a 1C       		.byte	0x1c
ARM GAS  /tmp/ccLruy2S.s 			page 150


 4971 001b 9F       		.byte	0x9f
 4972 001c 0E000000 		.4byte	.LVL2
 4973 0020 12000000 		.4byte	.LVL3
 4974 0024 0600     		.2byte	0x6
 4975 0026 08       		.byte	0x8
 4976 0027 4B       		.byte	0x4b
 4977 0028 74       		.byte	0x74
 4978 0029 00       		.sleb128 0
 4979 002a 1C       		.byte	0x1c
 4980 002b 9F       		.byte	0x9f
 4981 002c 00000000 		.4byte	0
 4982 0030 00000000 		.4byte	0
 4983              	.LLST1:
 4984 0034 00000000 		.4byte	.LVL5
 4985 0038 10000000 		.4byte	.LVL6
 4986 003c 0100     		.2byte	0x1
 4987 003e 50       		.byte	0x50
 4988 003f 10000000 		.4byte	.LVL6
 4989 0043 20000000 		.4byte	.LFE102
 4990 0047 0500     		.2byte	0x5
 4991 0049 03       		.byte	0x3
 4992 004a 00000000 		.4byte	test_failure_message
 4993 004e 00000000 		.4byte	0
 4994 0052 00000000 		.4byte	0
 4995              	.LLST2:
 4996 0056 00000000 		.4byte	.LVL7
 4997 005a 18000000 		.4byte	.LVL10
 4998 005e 0100     		.2byte	0x1
 4999 0060 50       		.byte	0x50
 5000 0061 18000000 		.4byte	.LVL10
 5001 0065 28000000 		.4byte	.LFE103
 5002 0069 0400     		.2byte	0x4
 5003 006b F3       		.byte	0xf3
 5004 006c 01       		.uleb128 0x1
 5005 006d 50       		.byte	0x50
 5006 006e 9F       		.byte	0x9f
 5007 006f 00000000 		.4byte	0
 5008 0073 00000000 		.4byte	0
 5009              	.LLST3:
 5010 0077 06000000 		.4byte	.LVL8
 5011 007b 16000000 		.4byte	.LVL9
 5012 007f 0100     		.2byte	0x1
 5013 0081 51       		.byte	0x51
 5014 0082 00000000 		.4byte	0
 5015 0086 00000000 		.4byte	0
 5016              	.LLST4:
 5017 008a 00000000 		.4byte	.LVL11
 5018 008e 0E000000 		.4byte	.LVL13
 5019 0092 0100     		.2byte	0x1
 5020 0094 50       		.byte	0x50
 5021 0095 0E000000 		.4byte	.LVL13
 5022 0099 14000000 		.4byte	.LVL14
 5023 009d 0300     		.2byte	0x3
 5024 009f 70       		.byte	0x70
 5025 00a0 01       		.sleb128 1
 5026 00a1 9F       		.byte	0x9f
 5027 00a2 14000000 		.4byte	.LVL14
ARM GAS  /tmp/ccLruy2S.s 			page 151


 5028 00a6 1C000000 		.4byte	.LVL16
 5029 00aa 0100     		.2byte	0x1
 5030 00ac 50       		.byte	0x50
 5031 00ad 1C000000 		.4byte	.LVL16
 5032 00b1 22000000 		.4byte	.LVL17
 5033 00b5 0100     		.2byte	0x1
 5034 00b7 54       		.byte	0x54
 5035 00b8 22000000 		.4byte	.LVL17
 5036 00bc 2C000000 		.4byte	.LVL18
 5037 00c0 0100     		.2byte	0x1
 5038 00c2 50       		.byte	0x50
 5039 00c3 2C000000 		.4byte	.LVL18
 5040 00c7 2E000000 		.4byte	.LVL19
 5041 00cb 0100     		.2byte	0x1
 5042 00cd 54       		.byte	0x54
 5043 00ce 2E000000 		.4byte	.LVL19
 5044 00d2 38000000 		.4byte	.LVL20
 5045 00d6 0100     		.2byte	0x1
 5046 00d8 50       		.byte	0x50
 5047 00d9 00000000 		.4byte	0
 5048 00dd 00000000 		.4byte	0
 5049              	.LLST5:
 5050 00e1 00000000 		.4byte	.LVL11
 5051 00e5 08000000 		.4byte	.LVL12
 5052 00e9 0100     		.2byte	0x1
 5053 00eb 51       		.byte	0x51
 5054 00ec 08000000 		.4byte	.LVL12
 5055 00f0 58000000 		.4byte	.LFE104
 5056 00f4 0100     		.2byte	0x1
 5057 00f6 5C       		.byte	0x5c
 5058 00f7 00000000 		.4byte	0
 5059 00fb 00000000 		.4byte	0
 5060              	.LLST6:
 5061 00ff 00000000 		.4byte	.LVL11
 5062 0103 0E000000 		.4byte	.LVL13
 5063 0107 0600     		.2byte	0x6
 5064 0109 03       		.byte	0x3
 5065 010a 00000000 		.4byte	test_tokens_buffer
 5066 010e 9F       		.byte	0x9f
 5067 010f 0E000000 		.4byte	.LVL13
 5068 0113 14000000 		.4byte	.LVL14
 5069 0117 0D00     		.2byte	0xd
 5070 0119 70       		.byte	0x70
 5071 011a 00       		.sleb128 0
 5072 011b F3       		.byte	0xf3
 5073 011c 01       		.uleb128 0x1
 5074 011d 50       		.byte	0x50
 5075 011e 1C       		.byte	0x1c
 5076 011f 03       		.byte	0x3
 5077 0120 01000000 		.4byte	test_tokens_buffer+1
 5078 0124 22       		.byte	0x22
 5079 0125 9F       		.byte	0x9f
 5080 0126 14000000 		.4byte	.LVL14
 5081 012a 1A000000 		.4byte	.LVL15
 5082 012e 0D00     		.2byte	0xd
 5083 0130 74       		.byte	0x74
 5084 0131 00       		.sleb128 0
ARM GAS  /tmp/ccLruy2S.s 			page 152


 5085 0132 F3       		.byte	0xf3
 5086 0133 01       		.uleb128 0x1
 5087 0134 50       		.byte	0x50
 5088 0135 1C       		.byte	0x1c
 5089 0136 03       		.byte	0x3
 5090 0137 01000000 		.4byte	test_tokens_buffer+1
 5091 013b 22       		.byte	0x22
 5092 013c 9F       		.byte	0x9f
 5093 013d 1C000000 		.4byte	.LVL16
 5094 0141 22000000 		.4byte	.LVL17
 5095 0145 0D00     		.2byte	0xd
 5096 0147 74       		.byte	0x74
 5097 0148 00       		.sleb128 0
 5098 0149 F3       		.byte	0xf3
 5099 014a 01       		.uleb128 0x1
 5100 014b 50       		.byte	0x50
 5101 014c 1C       		.byte	0x1c
 5102 014d 03       		.byte	0x3
 5103 014e 00000000 		.4byte	test_tokens_buffer
 5104 0152 22       		.byte	0x22
 5105 0153 9F       		.byte	0x9f
 5106 0154 22000000 		.4byte	.LVL17
 5107 0158 2C000000 		.4byte	.LVL18
 5108 015c 0D00     		.2byte	0xd
 5109 015e 70       		.byte	0x70
 5110 015f 00       		.sleb128 0
 5111 0160 F3       		.byte	0xf3
 5112 0161 01       		.uleb128 0x1
 5113 0162 50       		.byte	0x50
 5114 0163 1C       		.byte	0x1c
 5115 0164 03       		.byte	0x3
 5116 0165 00000000 		.4byte	test_tokens_buffer
 5117 0169 22       		.byte	0x22
 5118 016a 9F       		.byte	0x9f
 5119 016b 2C000000 		.4byte	.LVL18
 5120 016f 2E000000 		.4byte	.LVL19
 5121 0173 0D00     		.2byte	0xd
 5122 0175 74       		.byte	0x74
 5123 0176 00       		.sleb128 0
 5124 0177 F3       		.byte	0xf3
 5125 0178 01       		.uleb128 0x1
 5126 0179 50       		.byte	0x50
 5127 017a 1C       		.byte	0x1c
 5128 017b 03       		.byte	0x3
 5129 017c 00000000 		.4byte	test_tokens_buffer
 5130 0180 22       		.byte	0x22
 5131 0181 9F       		.byte	0x9f
 5132 0182 00000000 		.4byte	0
 5133 0186 00000000 		.4byte	0
 5134              	.LLST7:
 5135 018a 2E000000 		.4byte	.LVL19
 5136 018e 40000000 		.4byte	.LVL21
 5137 0192 0100     		.2byte	0x1
 5138 0194 5C       		.byte	0x5c
 5139 0195 00000000 		.4byte	0
 5140 0199 00000000 		.4byte	0
 5141              	.LLST8:
ARM GAS  /tmp/ccLruy2S.s 			page 153


 5142 019d 00000000 		.4byte	.LVL22
 5143 01a1 0C000000 		.4byte	.LVL26
 5144 01a5 0100     		.2byte	0x1
 5145 01a7 50       		.byte	0x50
 5146 01a8 0C000000 		.4byte	.LVL26
 5147 01ac 30000000 		.4byte	.LFE105
 5148 01b0 0400     		.2byte	0x4
 5149 01b2 F3       		.byte	0xf3
 5150 01b3 01       		.uleb128 0x1
 5151 01b4 50       		.byte	0x50
 5152 01b5 9F       		.byte	0x9f
 5153 01b6 00000000 		.4byte	0
 5154 01ba 00000000 		.4byte	0
 5155              	.LLST9:
 5156 01be 00000000 		.4byte	.LVL22
 5157 01c2 08000000 		.4byte	.LVL24
 5158 01c6 0100     		.2byte	0x1
 5159 01c8 51       		.byte	0x51
 5160 01c9 08000000 		.4byte	.LVL24
 5161 01cd 30000000 		.4byte	.LFE105
 5162 01d1 0400     		.2byte	0x4
 5163 01d3 F3       		.byte	0xf3
 5164 01d4 01       		.uleb128 0x1
 5165 01d5 51       		.byte	0x51
 5166 01d6 9F       		.byte	0x9f
 5167 01d7 00000000 		.4byte	0
 5168 01db 00000000 		.4byte	0
 5169              	.LLST10:
 5170 01df 06000000 		.4byte	.LVL23
 5171 01e3 08000000 		.4byte	.LVL24
 5172 01e7 0100     		.2byte	0x1
 5173 01e9 51       		.byte	0x51
 5174 01ea 08000000 		.4byte	.LVL24
 5175 01ee 30000000 		.4byte	.LFE105
 5176 01f2 0400     		.2byte	0x4
 5177 01f4 F3       		.byte	0xf3
 5178 01f5 01       		.uleb128 0x1
 5179 01f6 51       		.byte	0x51
 5180 01f7 9F       		.byte	0x9f
 5181 01f8 00000000 		.4byte	0
 5182 01fc 00000000 		.4byte	0
 5183              	.LLST11:
 5184 0200 06000000 		.4byte	.LVL23
 5185 0204 0C000000 		.4byte	.LVL26
 5186 0208 0100     		.2byte	0x1
 5187 020a 50       		.byte	0x50
 5188 020b 0C000000 		.4byte	.LVL26
 5189 020f 30000000 		.4byte	.LFE105
 5190 0213 0400     		.2byte	0x4
 5191 0215 F3       		.byte	0xf3
 5192 0216 01       		.uleb128 0x1
 5193 0217 50       		.byte	0x50
 5194 0218 9F       		.byte	0x9f
 5195 0219 00000000 		.4byte	0
 5196 021d 00000000 		.4byte	0
 5197              	.LLST12:
 5198 0221 06000000 		.4byte	.LVL23
ARM GAS  /tmp/ccLruy2S.s 			page 154


 5199 0225 0A000000 		.4byte	.LVL25
 5200 0229 0100     		.2byte	0x1
 5201 022b 53       		.byte	0x53
 5202 022c 00000000 		.4byte	0
 5203 0230 00000000 		.4byte	0
 5204              	.LLST13:
 5205 0234 06000000 		.4byte	.LVL23
 5206 0238 08000000 		.4byte	.LVL24
 5207 023c 1400     		.2byte	0x14
 5208 023e 73       		.byte	0x73
 5209 023f 00       		.sleb128 0
 5210 0240 70       		.byte	0x70
 5211 0241 00       		.sleb128 0
 5212 0242 1C       		.byte	0x1c
 5213 0243 40       		.byte	0x40
 5214 0244 4B       		.byte	0x4b
 5215 0245 24       		.byte	0x24
 5216 0246 22       		.byte	0x22
 5217 0247 71       		.byte	0x71
 5218 0248 00       		.sleb128 0
 5219 0249 70       		.byte	0x70
 5220 024a 00       		.sleb128 0
 5221 024b 1C       		.byte	0x1c
 5222 024c 40       		.byte	0x40
 5223 024d 4B       		.byte	0x4b
 5224 024e 24       		.byte	0x24
 5225 024f 22       		.byte	0x22
 5226 0250 2D       		.byte	0x2d
 5227 0251 9F       		.byte	0x9f
 5228 0252 08000000 		.4byte	.LVL24
 5229 0256 0A000000 		.4byte	.LVL25
 5230 025a 1500     		.2byte	0x15
 5231 025c 73       		.byte	0x73
 5232 025d 00       		.sleb128 0
 5233 025e 70       		.byte	0x70
 5234 025f 00       		.sleb128 0
 5235 0260 1C       		.byte	0x1c
 5236 0261 40       		.byte	0x40
 5237 0262 4B       		.byte	0x4b
 5238 0263 24       		.byte	0x24
 5239 0264 22       		.byte	0x22
 5240 0265 F3       		.byte	0xf3
 5241 0266 01       		.uleb128 0x1
 5242 0267 51       		.byte	0x51
 5243 0268 70       		.byte	0x70
 5244 0269 00       		.sleb128 0
 5245 026a 1C       		.byte	0x1c
 5246 026b 40       		.byte	0x40
 5247 026c 4B       		.byte	0x4b
 5248 026d 24       		.byte	0x24
 5249 026e 22       		.byte	0x22
 5250 026f 2D       		.byte	0x2d
 5251 0270 9F       		.byte	0x9f
 5252 0271 00000000 		.4byte	0
 5253 0275 00000000 		.4byte	0
 5254              	.LLST14:
 5255 0279 10000000 		.4byte	.LVL27
ARM GAS  /tmp/ccLruy2S.s 			page 155


 5256 027d 20000000 		.4byte	.LVL28
 5257 0281 0100     		.2byte	0x1
 5258 0283 52       		.byte	0x52
 5259 0284 00000000 		.4byte	0
 5260 0288 00000000 		.4byte	0
 5261              	.LLST15:
 5262 028c 00000000 		.4byte	.LVL29
 5263 0290 1B000000 		.4byte	.LVL31-1
 5264 0294 0100     		.2byte	0x1
 5265 0296 50       		.byte	0x50
 5266 0297 1B000000 		.4byte	.LVL31-1
 5267 029b 32000000 		.4byte	.LVL35
 5268 029f 0100     		.2byte	0x1
 5269 02a1 54       		.byte	0x54
 5270 02a2 32000000 		.4byte	.LVL35
 5271 02a6 44000000 		.4byte	.LVL37
 5272 02aa 0100     		.2byte	0x1
 5273 02ac 50       		.byte	0x50
 5274 02ad 60000000 		.4byte	.LVL42
 5275 02b1 66000000 		.4byte	.LVL43
 5276 02b5 0100     		.2byte	0x1
 5277 02b7 50       		.byte	0x50
 5278 02b8 66000000 		.4byte	.LVL43
 5279 02bc 74000000 		.4byte	.LFE106
 5280 02c0 0100     		.2byte	0x1
 5281 02c2 54       		.byte	0x54
 5282 02c3 00000000 		.4byte	0
 5283 02c7 00000000 		.4byte	0
 5284              	.LLST16:
 5285 02cb 14000000 		.4byte	.LVL30
 5286 02cf 22000000 		.4byte	.LVL32
 5287 02d3 0300     		.2byte	0x3
 5288 02d5 75       		.byte	0x75
 5289 02d6 7F       		.sleb128 -1
 5290 02d7 9F       		.byte	0x9f
 5291 02d8 22000000 		.4byte	.LVL32
 5292 02dc 2D000000 		.4byte	.LVL33-1
 5293 02e0 0100     		.2byte	0x1
 5294 02e2 53       		.byte	0x53
 5295 02e3 2D000000 		.4byte	.LVL33-1
 5296 02e7 30000000 		.4byte	.LVL34
 5297 02eb 0300     		.2byte	0x3
 5298 02ed 75       		.byte	0x75
 5299 02ee 7F       		.sleb128 -1
 5300 02ef 9F       		.byte	0x9f
 5301 02f0 30000000 		.4byte	.LVL34
 5302 02f4 34000000 		.4byte	.LVL36
 5303 02f8 0100     		.2byte	0x1
 5304 02fa 55       		.byte	0x55
 5305 02fb 34000000 		.4byte	.LVL36
 5306 02ff 44000000 		.4byte	.LVL37
 5307 0303 0100     		.2byte	0x1
 5308 0305 58       		.byte	0x58
 5309 0306 44000000 		.4byte	.LVL37
 5310 030a 4A000000 		.4byte	.LVL38
 5311 030e 0300     		.2byte	0x3
 5312 0310 74       		.byte	0x74
ARM GAS  /tmp/ccLruy2S.s 			page 156


 5313 0311 7F       		.sleb128 -1
 5314 0312 9F       		.byte	0x9f
 5315 0313 4A000000 		.4byte	.LVL38
 5316 0317 4C000000 		.4byte	.LVL39
 5317 031b 0100     		.2byte	0x1
 5318 031d 54       		.byte	0x54
 5319 031e 4C000000 		.4byte	.LVL39
 5320 0322 58000000 		.4byte	.LVL41
 5321 0326 0300     		.2byte	0x3
 5322 0328 74       		.byte	0x74
 5323 0329 7F       		.sleb128 -1
 5324 032a 9F       		.byte	0x9f
 5325 032b 00000000 		.4byte	0
 5326 032f 00000000 		.4byte	0
 5327              	.LLST17:
 5328 0333 00000000 		.4byte	.LVL45
 5329 0337 0C000000 		.4byte	.LVL46
 5330 033b 0100     		.2byte	0x1
 5331 033d 50       		.byte	0x50
 5332 033e 0C000000 		.4byte	.LVL46
 5333 0342 1C000000 		.4byte	.LVL49
 5334 0346 0100     		.2byte	0x1
 5335 0348 54       		.byte	0x54
 5336 0349 00000000 		.4byte	0
 5337 034d 00000000 		.4byte	0
 5338              	.LLST18:
 5339 0351 00000000 		.4byte	.LVL50
 5340 0355 0C000000 		.4byte	.LVL51
 5341 0359 0100     		.2byte	0x1
 5342 035b 50       		.byte	0x50
 5343 035c 0C000000 		.4byte	.LVL51
 5344 0360 34000000 		.4byte	.LFE108
 5345 0364 0400     		.2byte	0x4
 5346 0366 F3       		.byte	0xf3
 5347 0367 01       		.uleb128 0x1
 5348 0368 50       		.byte	0x50
 5349 0369 9F       		.byte	0x9f
 5350 036a 00000000 		.4byte	0
 5351 036e 00000000 		.4byte	0
 5352              	.LLST19:
 5353 0372 00000000 		.4byte	.LVL50
 5354 0376 0C000000 		.4byte	.LVL51
 5355 037a 0100     		.2byte	0x1
 5356 037c 50       		.byte	0x50
 5357 037d 0C000000 		.4byte	.LVL51
 5358 0381 28000000 		.4byte	.LVL55
 5359 0385 0100     		.2byte	0x1
 5360 0387 54       		.byte	0x54
 5361 0388 00000000 		.4byte	0
 5362 038c 00000000 		.4byte	0
 5363              	.LLST20:
 5364 0390 00000000 		.4byte	.LVL58
 5365 0394 14000000 		.4byte	.LVL59
 5366 0398 0100     		.2byte	0x1
 5367 039a 50       		.byte	0x50
 5368 039b 14000000 		.4byte	.LVL59
 5369 039f 17000000 		.4byte	.LVL60-1
ARM GAS  /tmp/ccLruy2S.s 			page 157


 5370 03a3 0500     		.2byte	0x5
 5371 03a5 03       		.byte	0x3
 5372 03a6 00000000 		.4byte	test_chp
 5373 03aa 17000000 		.4byte	.LVL60-1
 5374 03ae C4020000 		.4byte	.LFE111
 5375 03b2 0400     		.2byte	0x4
 5376 03b4 F3       		.byte	0xf3
 5377 03b5 01       		.uleb128 0x1
 5378 03b6 50       		.byte	0x50
 5379 03b7 9F       		.byte	0x9f
 5380 03b8 00000000 		.4byte	0
 5381 03bc 00000000 		.4byte	0
 5382              	.LLST21:
 5383 03c0 86000000 		.4byte	.LVL81
 5384 03c4 9A000000 		.4byte	.LVL82
 5385 03c8 0200     		.2byte	0x2
 5386 03ca 30       		.byte	0x30
 5387 03cb 9F       		.byte	0x9f
 5388 03cc 9A000000 		.4byte	.LVL82
 5389 03d0 9E000000 		.4byte	.LVL83
 5390 03d4 0100     		.2byte	0x1
 5391 03d6 5B       		.byte	0x5b
 5392 03d7 9E000000 		.4byte	.LVL83
 5393 03db F0010000 		.4byte	.LVL136
 5394 03df 0300     		.2byte	0x3
 5395 03e1 7B       		.byte	0x7b
 5396 03e2 7F       		.sleb128 -1
 5397 03e3 9F       		.byte	0x9f
 5398 03e4 F0010000 		.4byte	.LVL136
 5399 03e8 FE010000 		.4byte	.LVL138
 5400 03ec 0100     		.2byte	0x1
 5401 03ee 5B       		.byte	0x5b
 5402 03ef 3E020000 		.4byte	.LVL147
 5403 03f3 46020000 		.4byte	.LVL149
 5404 03f7 0300     		.2byte	0x3
 5405 03f9 7B       		.byte	0x7b
 5406 03fa 7F       		.sleb128 -1
 5407 03fb 9F       		.byte	0x9f
 5408 03fc 00000000 		.4byte	0
 5409 0400 00000000 		.4byte	0
 5410              	.LLST22:
 5411 0404 A2000000 		.4byte	.LVL84
 5412 0408 B1000000 		.4byte	.LVL85-1
 5413 040c 0100     		.2byte	0x1
 5414 040e 52       		.byte	0x52
 5415 040f B1000000 		.4byte	.LVL85-1
 5416 0413 E8000000 		.4byte	.LVL95
 5417 0417 0200     		.2byte	0x2
 5418 0419 91       		.byte	0x91
 5419 041a 54       		.sleb128 -44
 5420 041b E4010000 		.4byte	.LVL135
 5421 041f F0010000 		.4byte	.LVL136
 5422 0423 0200     		.2byte	0x2
 5423 0425 91       		.byte	0x91
 5424 0426 54       		.sleb128 -44
 5425 0427 F0010000 		.4byte	.LVL136
 5426 042b F6010000 		.4byte	.LVL137
ARM GAS  /tmp/ccLruy2S.s 			page 158


 5427 042f 0100     		.2byte	0x1
 5428 0431 52       		.byte	0x52
 5429 0432 F6010000 		.4byte	.LVL137
 5430 0436 FE010000 		.4byte	.LVL138
 5431 043a 0200     		.2byte	0x2
 5432 043c 91       		.byte	0x91
 5433 043d 54       		.sleb128 -44
 5434 043e 00000000 		.4byte	0
 5435 0442 00000000 		.4byte	0
 5436              	.LLST23:
 5437 0446 24000000 		.4byte	.LVL62
 5438 044a 28000000 		.4byte	.LVL63
 5439 044e 0600     		.2byte	0x6
 5440 0450 03       		.byte	0x3
 5441 0451 28000000 		.4byte	.LC38
 5442 0455 9F       		.byte	0x9f
 5443 0456 28000000 		.4byte	.LVL63
 5444 045a 2A000000 		.4byte	.LVL64
 5445 045e 0300     		.2byte	0x3
 5446 0460 75       		.byte	0x75
 5447 0461 7F       		.sleb128 -1
 5448 0462 9F       		.byte	0x9f
 5449 0463 2A000000 		.4byte	.LVL64
 5450 0467 2C000000 		.4byte	.LVL65
 5451 046b 0100     		.2byte	0x1
 5452 046d 55       		.byte	0x55
 5453 046e 2C000000 		.4byte	.LVL65
 5454 0472 42000000 		.4byte	.LVL68
 5455 0476 0300     		.2byte	0x3
 5456 0478 75       		.byte	0x75
 5457 0479 7F       		.sleb128 -1
 5458 047a 9F       		.byte	0x9f
 5459 047b 00000000 		.4byte	0
 5460 047f 00000000 		.4byte	0
 5461              	.LLST24:
 5462 0483 40000000 		.4byte	.LVL67
 5463 0487 44000000 		.4byte	.LVL69
 5464 048b 0600     		.2byte	0x6
 5465 048d 03       		.byte	0x3
 5466 048e C4000000 		.4byte	.LC66
 5467 0492 9F       		.byte	0x9f
 5468 0493 44000000 		.4byte	.LVL69
 5469 0497 46000000 		.4byte	.LVL70
 5470 049b 0300     		.2byte	0x3
 5471 049d 75       		.byte	0x75
 5472 049e 7F       		.sleb128 -1
 5473 049f 9F       		.byte	0x9f
 5474 04a0 46000000 		.4byte	.LVL70
 5475 04a4 48000000 		.4byte	.LVL71
 5476 04a8 0100     		.2byte	0x1
 5477 04aa 55       		.byte	0x55
 5478 04ab 48000000 		.4byte	.LVL71
 5479 04af 5E000000 		.4byte	.LVL74
 5480 04b3 0300     		.2byte	0x3
 5481 04b5 75       		.byte	0x75
 5482 04b6 7F       		.sleb128 -1
 5483 04b7 9F       		.byte	0x9f
ARM GAS  /tmp/ccLruy2S.s 			page 159


 5484 04b8 00000000 		.4byte	0
 5485 04bc 00000000 		.4byte	0
 5486              	.LLST25:
 5487 04c0 5C000000 		.4byte	.LVL73
 5488 04c4 62000000 		.4byte	.LVL75
 5489 04c8 0600     		.2byte	0x6
 5490 04ca 03       		.byte	0x3
 5491 04cb 08010000 		.4byte	.LC70
 5492 04cf 9F       		.byte	0x9f
 5493 04d0 62000000 		.4byte	.LVL75
 5494 04d4 64000000 		.4byte	.LVL76
 5495 04d8 0300     		.2byte	0x3
 5496 04da 76       		.byte	0x76
 5497 04db 7F       		.sleb128 -1
 5498 04dc 9F       		.byte	0x9f
 5499 04dd 64000000 		.4byte	.LVL76
 5500 04e1 66000000 		.4byte	.LVL77
 5501 04e5 0100     		.2byte	0x1
 5502 04e7 56       		.byte	0x56
 5503 04e8 66000000 		.4byte	.LVL77
 5504 04ec 9A000000 		.4byte	.LVL82
 5505 04f0 0300     		.2byte	0x3
 5506 04f2 76       		.byte	0x76
 5507 04f3 7F       		.sleb128 -1
 5508 04f4 9F       		.byte	0x9f
 5509 04f5 00000000 		.4byte	0
 5510 04f9 00000000 		.4byte	0
 5511              	.LLST26:
 5512 04fd 2C010000 		.4byte	.LVL104
 5513 0501 5A010000 		.4byte	.LVL108
 5514 0505 0100     		.2byte	0x1
 5515 0507 55       		.byte	0x55
 5516 0508 3E020000 		.4byte	.LVL147
 5517 050c 46020000 		.4byte	.LVL149
 5518 0510 0100     		.2byte	0x1
 5519 0512 55       		.byte	0x55
 5520 0513 00000000 		.4byte	0
 5521 0517 00000000 		.4byte	0
 5522              	.LLST27:
 5523 051b 76010000 		.4byte	.LVL113
 5524 051f 7A010000 		.4byte	.LVL115
 5525 0523 0600     		.2byte	0x6
 5526 0525 03       		.byte	0x3
 5527 0526 20010000 		.4byte	.LC75
 5528 052a 9F       		.byte	0x9f
 5529 052b 7A010000 		.4byte	.LVL115
 5530 052f 7C010000 		.4byte	.LVL116
 5531 0533 0300     		.2byte	0x3
 5532 0535 75       		.byte	0x75
 5533 0536 7F       		.sleb128 -1
 5534 0537 9F       		.byte	0x9f
 5535 0538 7C010000 		.4byte	.LVL116
 5536 053c 7E010000 		.4byte	.LVL117
 5537 0540 0100     		.2byte	0x1
 5538 0542 55       		.byte	0x55
 5539 0543 7E010000 		.4byte	.LVL117
 5540 0547 90010000 		.4byte	.LVL120
ARM GAS  /tmp/ccLruy2S.s 			page 160


 5541 054b 0300     		.2byte	0x3
 5542 054d 75       		.byte	0x75
 5543 054e 7F       		.sleb128 -1
 5544 054f 9F       		.byte	0x9f
 5545 0550 00000000 		.4byte	0
 5546 0554 00000000 		.4byte	0
 5547              	.LLST28:
 5548 0558 B2000000 		.4byte	.LVL85
 5549 055c B6000000 		.4byte	.LVL86
 5550 0560 0600     		.2byte	0x6
 5551 0562 03       		.byte	0x3
 5552 0563 54000000 		.4byte	.LC44
 5553 0567 9F       		.byte	0x9f
 5554 0568 B6000000 		.4byte	.LVL86
 5555 056c B8000000 		.4byte	.LVL87
 5556 0570 0300     		.2byte	0x3
 5557 0572 75       		.byte	0x75
 5558 0573 7F       		.sleb128 -1
 5559 0574 9F       		.byte	0x9f
 5560 0575 B8000000 		.4byte	.LVL87
 5561 0579 BA000000 		.4byte	.LVL88
 5562 057d 0100     		.2byte	0x1
 5563 057f 55       		.byte	0x55
 5564 0580 BA000000 		.4byte	.LVL88
 5565 0584 E6000000 		.4byte	.LVL94
 5566 0588 0300     		.2byte	0x3
 5567 058a 75       		.byte	0x75
 5568 058b 7F       		.sleb128 -1
 5569 058c 9F       		.byte	0x9f
 5570 058d 00000000 		.4byte	0
 5571 0591 00000000 		.4byte	0
 5572              	.LLST30:
 5573 0595 E4000000 		.4byte	.LVL93
 5574 0599 E8000000 		.4byte	.LVL95
 5575 059d 0600     		.2byte	0x6
 5576 059f 03       		.byte	0x3
 5577 05a0 1C010000 		.4byte	.LC72
 5578 05a4 9F       		.byte	0x9f
 5579 05a5 E8000000 		.4byte	.LVL95
 5580 05a9 EA000000 		.4byte	.LVL96
 5581 05ad 0300     		.2byte	0x3
 5582 05af 75       		.byte	0x75
 5583 05b0 7F       		.sleb128 -1
 5584 05b1 9F       		.byte	0x9f
 5585 05b2 EA000000 		.4byte	.LVL96
 5586 05b6 EC000000 		.4byte	.LVL97
 5587 05ba 0100     		.2byte	0x1
 5588 05bc 55       		.byte	0x55
 5589 05bd EC000000 		.4byte	.LVL97
 5590 05c1 02010000 		.4byte	.LVL99
 5591 05c5 0300     		.2byte	0x3
 5592 05c7 75       		.byte	0x75
 5593 05c8 7F       		.sleb128 -1
 5594 05c9 9F       		.byte	0x9f
 5595 05ca 00000000 		.4byte	0
 5596 05ce 00000000 		.4byte	0
 5597              	.LLST31:
ARM GAS  /tmp/ccLruy2S.s 			page 161


 5598 05d2 02010000 		.4byte	.LVL99
 5599 05d6 2C010000 		.4byte	.LVL104
 5600 05da 0100     		.2byte	0x1
 5601 05dc 55       		.byte	0x55
 5602 05dd 00000000 		.4byte	0
 5603 05e1 00000000 		.4byte	0
 5604              	.LLST32:
 5605 05e5 1E010000 		.4byte	.LVL102
 5606 05e9 F0010000 		.4byte	.LVL136
 5607 05ed 0300     		.2byte	0x3
 5608 05ef 08       		.byte	0x8
 5609 05f0 C8       		.byte	0xc8
 5610 05f1 9F       		.byte	0x9f
 5611 05f2 3E020000 		.4byte	.LVL147
 5612 05f6 46020000 		.4byte	.LVL149
 5613 05fa 0300     		.2byte	0x3
 5614 05fc 08       		.byte	0x8
 5615 05fd C8       		.byte	0xc8
 5616 05fe 9F       		.byte	0x9f
 5617 05ff 00000000 		.4byte	0
 5618 0603 00000000 		.4byte	0
 5619              	.LLST33:
 5620 0607 5C010000 		.4byte	.LVL109
 5621 060b 5E010000 		.4byte	.LVL110
 5622 060f 0300     		.2byte	0x3
 5623 0611 75       		.byte	0x75
 5624 0612 7F       		.sleb128 -1
 5625 0613 9F       		.byte	0x9f
 5626 0614 5E010000 		.4byte	.LVL110
 5627 0618 60010000 		.4byte	.LVL111
 5628 061c 0100     		.2byte	0x1
 5629 061e 55       		.byte	0x55
 5630 061f 60010000 		.4byte	.LVL111
 5631 0623 78010000 		.4byte	.LVL114
 5632 0627 0300     		.2byte	0x3
 5633 0629 75       		.byte	0x75
 5634 062a 7F       		.sleb128 -1
 5635 062b 9F       		.byte	0x9f
 5636 062c 00000000 		.4byte	0
 5637 0630 00000000 		.4byte	0
 5638              	.LLST34:
 5639 0634 8C010000 		.4byte	.LVL119
 5640 0638 94010000 		.4byte	.LVL121
 5641 063c 0600     		.2byte	0x6
 5642 063e 03       		.byte	0x3
 5643 063f 00000000 		.4byte	test_tokens_buffer
 5644 0643 9F       		.byte	0x9f
 5645 0644 94010000 		.4byte	.LVL121
 5646 0648 98010000 		.4byte	.LVL122
 5647 064c 0300     		.2byte	0x3
 5648 064e 75       		.byte	0x75
 5649 064f 7F       		.sleb128 -1
 5650 0650 9F       		.byte	0x9f
 5651 0651 98010000 		.4byte	.LVL122
 5652 0655 9F010000 		.4byte	.LVL123-1
 5653 0659 0100     		.2byte	0x1
 5654 065b 52       		.byte	0x52
ARM GAS  /tmp/ccLruy2S.s 			page 162


 5655 065c 9F010000 		.4byte	.LVL123-1
 5656 0660 A4010000 		.4byte	.LVL124
 5657 0664 0300     		.2byte	0x3
 5658 0666 75       		.byte	0x75
 5659 0667 7F       		.sleb128 -1
 5660 0668 9F       		.byte	0x9f
 5661 0669 A4010000 		.4byte	.LVL124
 5662 066d A6010000 		.4byte	.LVL125
 5663 0671 0100     		.2byte	0x1
 5664 0673 55       		.byte	0x55
 5665 0674 A6010000 		.4byte	.LVL125
 5666 0678 AA010000 		.4byte	.LVL126
 5667 067c 0100     		.2byte	0x1
 5668 067e 57       		.byte	0x57
 5669 067f 00000000 		.4byte	0
 5670 0683 00000000 		.4byte	0
 5671              	.LLST35:
 5672 0687 AE010000 		.4byte	.LVL127
 5673 068b B0010000 		.4byte	.LVL128
 5674 068f 0300     		.2byte	0x3
 5675 0691 75       		.byte	0x75
 5676 0692 7F       		.sleb128 -1
 5677 0693 9F       		.byte	0x9f
 5678 0694 B0010000 		.4byte	.LVL128
 5679 0698 B2010000 		.4byte	.LVL129
 5680 069c 0100     		.2byte	0x1
 5681 069e 55       		.byte	0x55
 5682 069f B2010000 		.4byte	.LVL129
 5683 06a3 C4010000 		.4byte	.LVL131
 5684 06a7 0300     		.2byte	0x3
 5685 06a9 75       		.byte	0x75
 5686 06aa 7F       		.sleb128 -1
 5687 06ab 9F       		.byte	0x9f
 5688 06ac 00000000 		.4byte	0
 5689 06b0 00000000 		.4byte	0
 5690              	.LLST36:
 5691 06b4 C4010000 		.4byte	.LVL131
 5692 06b8 E0010000 		.4byte	.LVL134
 5693 06bc 0100     		.2byte	0x1
 5694 06be 55       		.byte	0x55
 5695 06bf 00000000 		.4byte	0
 5696 06c3 00000000 		.4byte	0
 5697              	.LLST37:
 5698 06c7 08020000 		.4byte	.LVL140
 5699 06cb 0C020000 		.4byte	.LVL141
 5700 06cf 0600     		.2byte	0x6
 5701 06d1 03       		.byte	0x3
 5702 06d2 24010000 		.4byte	.LC77
 5703 06d6 9F       		.byte	0x9f
 5704 06d7 0C020000 		.4byte	.LVL141
 5705 06db 0E020000 		.4byte	.LVL142
 5706 06df 0300     		.2byte	0x3
 5707 06e1 75       		.byte	0x75
 5708 06e2 7F       		.sleb128 -1
 5709 06e3 9F       		.byte	0x9f
 5710 06e4 0E020000 		.4byte	.LVL142
 5711 06e8 10020000 		.4byte	.LVL143
ARM GAS  /tmp/ccLruy2S.s 			page 163


 5712 06ec 0100     		.2byte	0x1
 5713 06ee 55       		.byte	0x55
 5714 06ef 10020000 		.4byte	.LVL143
 5715 06f3 32020000 		.4byte	.LVL146
 5716 06f7 0300     		.2byte	0x3
 5717 06f9 75       		.byte	0x75
 5718 06fa 7F       		.sleb128 -1
 5719 06fb 9F       		.byte	0x9f
 5720 06fc 46020000 		.4byte	.LVL149
 5721 0700 C4020000 		.4byte	.LFE111
 5722 0704 0300     		.2byte	0x3
 5723 0706 75       		.byte	0x75
 5724 0707 7F       		.sleb128 -1
 5725 0708 9F       		.byte	0x9f
 5726 0709 00000000 		.4byte	0
 5727 070d 00000000 		.4byte	0
 5728              		.section	.debug_aranges,"",%progbits
 5729 0000 6C000000 		.4byte	0x6c
 5730 0004 0200     		.2byte	0x2
 5731 0006 00000000 		.4byte	.Ldebug_info0
 5732 000a 04       		.byte	0x4
 5733 000b 00       		.byte	0
 5734 000c 0000     		.2byte	0
 5735 000e 0000     		.2byte	0
 5736 0010 00000000 		.4byte	.LFB101
 5737 0014 2C000000 		.4byte	.LFE101-.LFB101
 5738 0018 00000000 		.4byte	.LFB102
 5739 001c 20000000 		.4byte	.LFE102-.LFB102
 5740 0020 00000000 		.4byte	.LFB103
 5741 0024 28000000 		.4byte	.LFE103-.LFB103
 5742 0028 00000000 		.4byte	.LFB104
 5743 002c 58000000 		.4byte	.LFE104-.LFB104
 5744 0030 00000000 		.4byte	.LFB105
 5745 0034 30000000 		.4byte	.LFE105-.LFB105
 5746 0038 00000000 		.4byte	.LFB106
 5747 003c 74000000 		.4byte	.LFE106-.LFB106
 5748 0040 00000000 		.4byte	.LFB107
 5749 0044 24000000 		.4byte	.LFE107-.LFB107
 5750 0048 00000000 		.4byte	.LFB108
 5751 004c 34000000 		.4byte	.LFE108-.LFB108
 5752 0050 00000000 		.4byte	.LFB109
 5753 0054 20000000 		.4byte	.LFE109-.LFB109
 5754 0058 00000000 		.4byte	.LFB110
 5755 005c 1C000000 		.4byte	.LFE110-.LFB110
 5756 0060 00000000 		.4byte	.LFB111
 5757 0064 C4020000 		.4byte	.LFE111-.LFB111
 5758 0068 00000000 		.4byte	0
 5759 006c 00000000 		.4byte	0
 5760              		.section	.debug_ranges,"",%progbits
 5761              	.Ldebug_ranges0:
 5762 0000 2E000000 		.4byte	.LBB83
 5763 0004 36000000 		.4byte	.LBE83
 5764 0008 38000000 		.4byte	.LBB86
 5765 000c 40000000 		.4byte	.LBE86
 5766 0010 00000000 		.4byte	0
 5767 0014 00000000 		.4byte	0
 5768 0018 10000000 		.4byte	.LBB95
ARM GAS  /tmp/ccLruy2S.s 			page 164


 5769 001c 18000000 		.4byte	.LBE95
 5770 0020 1A000000 		.4byte	.LBB98
 5771 0024 20000000 		.4byte	.LBE98
 5772 0028 00000000 		.4byte	0
 5773 002c 00000000 		.4byte	0
 5774 0030 02000000 		.4byte	.LBB103
 5775 0034 04000000 		.4byte	.LBE103
 5776 0038 08000000 		.4byte	.LBB106
 5777 003c 1C000000 		.4byte	.LBE106
 5778 0040 00000000 		.4byte	0
 5779 0044 00000000 		.4byte	0
 5780 0048 96000000 		.4byte	.LBB153
 5781 004c 9E000000 		.4byte	.LBE153
 5782 0050 28010000 		.4byte	.LBB179
 5783 0054 2A010000 		.4byte	.LBE179
 5784 0058 2C010000 		.4byte	.LBB180
 5785 005c 4E010000 		.4byte	.LBE180
 5786 0060 00000000 		.4byte	0
 5787 0064 00000000 		.4byte	0
 5788 0068 96000000 		.4byte	.LBB155
 5789 006c 9E000000 		.4byte	.LBE155
 5790 0070 28010000 		.4byte	.LBB160
 5791 0074 2A010000 		.4byte	.LBE160
 5792 0078 2E010000 		.4byte	.LBB161
 5793 007c 30010000 		.4byte	.LBE161
 5794 0080 32010000 		.4byte	.LBB162
 5795 0084 34010000 		.4byte	.LBE162
 5796 0088 00000000 		.4byte	0
 5797 008c 00000000 		.4byte	0
 5798 0090 9E000000 		.4byte	.LBB165
 5799 0094 A6000000 		.4byte	.LBE165
 5800 0098 78010000 		.4byte	.LBB183
 5801 009c 8C010000 		.4byte	.LBE183
 5802 00a0 AC010000 		.4byte	.LBB186
 5803 00a4 AE010000 		.4byte	.LBE186
 5804 00a8 00000000 		.4byte	0
 5805 00ac 00000000 		.4byte	0
 5806 00b0 00000000 		.4byte	.LFB101
 5807 00b4 2C000000 		.4byte	.LFE101
 5808 00b8 00000000 		.4byte	.LFB102
 5809 00bc 20000000 		.4byte	.LFE102
 5810 00c0 00000000 		.4byte	.LFB103
 5811 00c4 28000000 		.4byte	.LFE103
 5812 00c8 00000000 		.4byte	.LFB104
 5813 00cc 58000000 		.4byte	.LFE104
 5814 00d0 00000000 		.4byte	.LFB105
 5815 00d4 30000000 		.4byte	.LFE105
 5816 00d8 00000000 		.4byte	.LFB106
 5817 00dc 74000000 		.4byte	.LFE106
 5818 00e0 00000000 		.4byte	.LFB107
 5819 00e4 24000000 		.4byte	.LFE107
 5820 00e8 00000000 		.4byte	.LFB108
 5821 00ec 34000000 		.4byte	.LFE108
 5822 00f0 00000000 		.4byte	.LFB109
 5823 00f4 20000000 		.4byte	.LFE109
 5824 00f8 00000000 		.4byte	.LFB110
 5825 00fc 1C000000 		.4byte	.LFE110
ARM GAS  /tmp/ccLruy2S.s 			page 165


 5826 0100 00000000 		.4byte	.LFB111
 5827 0104 C4020000 		.4byte	.LFE111
 5828 0108 00000000 		.4byte	0
 5829 010c 00000000 		.4byte	0
 5830              		.section	.debug_line,"",%progbits
 5831              	.Ldebug_line0:
 5832 0000 78040000 		.section	.debug_str,"MS",%progbits,1
 5832      02005302 
 5832      00000201 
 5832      FB0E0D00 
 5832      01010101 
 5833              	.LASF62:
 5834 0000 746F6B65 		.ascii	"token\000"
 5834      6E00
 5835              	.LASF54:
 5836 0006 6D736770 		.ascii	"msgp\000"
 5836      00
 5837              	.LASF77:
 5838 000b 474E5520 		.ascii	"GNU C 4.8.2 -mcpu=cortex-m0 -mno-thumb-interwork -m"
 5838      4320342E 
 5838      382E3220 
 5838      2D6D6370 
 5838      753D636F 
 5839 003e 7468756D 		.ascii	"thumb -ggdb -O2 -fomit-frame-pointer -falign-functi"
 5839      62202D67 
 5839      67646220 
 5839      2D4F3220 
 5839      2D666F6D 
 5840 0071 6F6E733D 		.ascii	"ons=16 -ffunction-sections -fdata-sections -fno-com"
 5840      3136202D 
 5840      6666756E 
 5840      6374696F 
 5840      6E2D7365 
 5841 00a4 6D6F6E20 		.ascii	"mon -flto\000"
 5841      2D666C74 
 5841      6F00
 5842              	.LASF30:
 5843 00ae 77726974 		.ascii	"write\000"
 5843      6500
 5844              	.LASF66:
 5845 00b4 7072696E 		.ascii	"print_tokens\000"
 5845      745F746F 
 5845      6B656E73 
 5845      00
 5846              	.LASF46:
 5847 00c1 6F73616C 		.ascii	"osalOsGetSystemTimeX\000"
 5847      4F734765 
 5847      74537973 
 5847      74656D54 
 5847      696D6558 
 5848              	.LASF65:
 5849 00d6 65786563 		.ascii	"execute_test\000"
 5849      7574655F 
 5849      74657374 
 5849      00
 5850              	.LASF21:
 5851 00e3 43434D52 		.ascii	"CCMR1\000"
ARM GAS  /tmp/ccLruy2S.s 			page 166


 5851      3100
 5852              	.LASF22:
 5853 00e9 43434D52 		.ascii	"CCMR2\000"
 5853      3200
 5854              	.LASF26:
 5855 00ef 43434D52 		.ascii	"CCMR3\000"
 5855      3300
 5856              	.LASF27:
 5857 00f5 43435852 		.ascii	"CCXR\000"
 5857      00
 5858              	.LASF2:
 5859 00fa 73697A65 		.ascii	"size_t\000"
 5859      5F7400
 5860              	.LASF73:
 5861 0101 74657374 		.ascii	"test_chp\000"
 5861      5F636870 
 5861      00
 5862              	.LASF72:
 5863 010a 74657374 		.ascii	"test_tokp\000"
 5863      5F746F6B 
 5863      7000
 5864              	.LASF32:
 5865 0114 42617365 		.ascii	"BaseSequentialStream\000"
 5865      53657175 
 5865      656E7469 
 5865      616C5374 
 5865      7265616D 
 5866              	.LASF56:
 5867 0129 6F73616C 		.ascii	"osalSysUnlock\000"
 5867      53797355 
 5867      6E6C6F63 
 5867      6B00
 5868              	.LASF52:
 5869 0137 74657374 		.ascii	"test_printn\000"
 5869      5F707269 
 5869      6E746E00 
 5870              	.LASF83:
 5871 0143 63685468 		.ascii	"chThdSleep\000"
 5871      64536C65 
 5871      657000
 5872              	.LASF60:
 5873 014e 74657374 		.ascii	"test_println\000"
 5873      5F707269 
 5873      6E746C6E 
 5873      00
 5874              	.LASF41:
 5875 015b 706F7274 		.ascii	"port_lock\000"
 5875      5F6C6F63 
 5875      6B00
 5876              	.LASF9:
 5877 0165 5F5F7569 		.ascii	"__uint32_t\000"
 5877      6E743332 
 5877      5F7400
 5878              	.LASF38:
 5879 0170 74657374 		.ascii	"testcase_t\000"
 5879      63617365 
 5879      5F7400
ARM GAS  /tmp/ccLruy2S.s 			page 167


 5880              	.LASF5:
 5881 017b 73686F72 		.ascii	"short int\000"
 5881      7420696E 
 5881      7400
 5882              	.LASF75:
 5883 0185 74657374 		.ascii	"test_global_fail\000"
 5883      5F676C6F 
 5883      62616C5F 
 5883      6661696C 
 5883      00
 5884              	.LASF59:
 5885 0196 5F746573 		.ascii	"_test_assert_time_window\000"
 5885      745F6173 
 5885      73657274 
 5885      5F74696D 
 5885      655F7769 
 5886              	.LASF53:
 5887 01af 74657374 		.ascii	"test_print\000"
 5887      5F707269 
 5887      6E7400
 5888              	.LASF35:
 5889 01ba 73657475 		.ascii	"setup\000"
 5889      7000
 5890              	.LASF31:
 5891 01c0 72656164 		.ascii	"read\000"
 5891      00
 5892              	.LASF11:
 5893 01c5 6C6F6E67 		.ascii	"long long int\000"
 5893      206C6F6E 
 5893      6720696E 
 5893      7400
 5894              	.LASF50:
 5895 01d3 5F746573 		.ascii	"_test_assert\000"
 5895      745F6173 
 5895      73657274 
 5895      00
 5896              	.LASF49:
 5897 01e0 5F746573 		.ascii	"_test_fail\000"
 5897      745F6661 
 5897      696C00
 5898              	.LASF29:
 5899 01eb 63686172 		.ascii	"char\000"
 5899      00
 5900              	.LASF67:
 5901 01f0 74657374 		.ascii	"test_execute\000"
 5901      5F657865 
 5901      63757465 
 5901      00
 5902              	.LASF68:
 5903 01fd 73747265 		.ascii	"stream\000"
 5903      616D00
 5904              	.LASF3:
 5905 0204 5F5F7569 		.ascii	"__uint8_t\000"
 5905      6E74385F 
 5905      7400
 5906              	.LASF71:
 5907 020e 74657374 		.ascii	"test_tokens_buffer\000"
ARM GAS  /tmp/ccLruy2S.s 			page 168


 5907      5F746F6B 
 5907      656E735F 
 5907      62756666 
 5907      657200
 5908              	.LASF40:
 5909 0221 5F5F656E 		.ascii	"__enable_irq\000"
 5909      61626C65 
 5909      5F697271 
 5909      00
 5910              	.LASF39:
 5911 022e 5F5F6469 		.ascii	"__disable_irq\000"
 5911      7361626C 
 5911      655F6972 
 5911      7100
 5912              	.LASF36:
 5913 023c 74656172 		.ascii	"teardown\000"
 5913      646F776E 
 5913      00
 5914              	.LASF34:
 5915 0245 6E616D65 		.ascii	"name\000"
 5915      00
 5916              	.LASF4:
 5917 024a 756E7369 		.ascii	"unsigned char\000"
 5917      676E6564 
 5917      20636861 
 5917      7200
 5918              	.LASF81:
 5919 0258 6F73616C 		.ascii	"osalOsIsTimeWithinX\000"
 5919      4F734973 
 5919      54696D65 
 5919      57697468 
 5919      696E5800 
 5920              	.LASF1:
 5921 026c 7369676E 		.ascii	"signed char\000"
 5921      65642063 
 5921      68617200 
 5922              	.LASF12:
 5923 0278 6C6F6E67 		.ascii	"long long unsigned int\000"
 5923      206C6F6E 
 5923      6720756E 
 5923      7369676E 
 5923      65642069 
 5924              	.LASF15:
 5925 028f 75696E74 		.ascii	"uint32_t\000"
 5925      33325F74 
 5925      00
 5926              	.LASF0:
 5927 0298 756E7369 		.ascii	"unsigned int\000"
 5927      676E6564 
 5927      20696E74 
 5927      00
 5928              	.LASF79:
 5929 02a5 2F686F6D 		.ascii	"/home/awygle/ChibiOS-RT/demos/STM32/NIL-STM32F051-D"
 5929      652F6177 
 5929      79676C65 
 5929      2F436869 
 5929      62694F53 
ARM GAS  /tmp/ccLruy2S.s 			page 169


 5930 02d8 4953434F 		.ascii	"ISCOVERY\000"
 5930      56455259 
 5930      00
 5931              	.LASF69:
 5932 02e1 74657374 		.ascii	"test_local_fail\000"
 5932      5F6C6F63 
 5932      616C5F66 
 5932      61696C00 
 5933              	.LASF47:
 5934 02f1 74696D65 		.ascii	"time\000"
 5934      00
 5935              	.LASF20:
 5936 02f6 44494552 		.ascii	"DIER\000"
 5936      00
 5937              	.LASF48:
 5938 02fb 73746172 		.ascii	"start\000"
 5938      7400
 5939              	.LASF6:
 5940 0301 73686F72 		.ascii	"short unsigned int\000"
 5940      7420756E 
 5940      7369676E 
 5940      65642069 
 5940      6E7400
 5941              	.LASF51:
 5942 0314 636F6E64 		.ascii	"condition\000"
 5942      6974696F 
 5942      6E00
 5943              	.LASF76:
 5944 031e 74657374 		.ascii	"test_suite\000"
 5944      5F737569 
 5944      746500
 5945              	.LASF17:
 5946 0329 73797374 		.ascii	"systime_t\000"
 5946      696D655F 
 5946      7400
 5947              	.LASF64:
 5948 0333 6F73616C 		.ascii	"osalThreadSleep\000"
 5948      54687265 
 5948      6164536C 
 5948      65657000 
 5949              	.LASF28:
 5950 0343 73746D33 		.ascii	"stm32_tim_t\000"
 5950      325F7469 
 5950      6D5F7400 
 5951              	.LASF24:
 5952 034f 42445452 		.ascii	"BDTR\000"
 5952      00
 5953              	.LASF14:
 5954 0354 696E7433 		.ascii	"int32_t\000"
 5954      325F7400 
 5955              	.LASF33:
 5956 035c 5F426F6F 		.ascii	"_Bool\000"
 5956      6C00
 5957              	.LASF42:
 5958 0362 706F7274 		.ascii	"port_unlock\000"
 5958      5F756E6C 
 5958      6F636B00 
ARM GAS  /tmp/ccLruy2S.s 			page 170


 5959              	.LASF74:
 5960 036e 74657374 		.ascii	"test_step\000"
 5960      5F737465 
 5960      7000
 5961              	.LASF82:
 5962 0378 7072696E 		.ascii	"print_line\000"
 5962      745F6C69 
 5962      6E6500
 5963              	.LASF45:
 5964 0383 636C6561 		.ascii	"clear_tokens\000"
 5964      725F746F 
 5964      6B656E73 
 5964      00
 5965              	.LASF19:
 5966 0390 534D4352 		.ascii	"SMCR\000"
 5966      00
 5967              	.LASF70:
 5968 0395 74657374 		.ascii	"test_failure_message\000"
 5968      5F666169 
 5968      6C757265 
 5968      5F6D6573 
 5968      73616765 
 5969              	.LASF44:
 5970 03aa 706F7274 		.ascii	"port_timer_get_time\000"
 5970      5F74696D 
 5970      65725F67 
 5970      65745F74 
 5970      696D6500 
 5971              	.LASF57:
 5972 03be 65787065 		.ascii	"expected\000"
 5972      63746564 
 5972      00
 5973              	.LASF10:
 5974 03c7 6C6F6E67 		.ascii	"long unsigned int\000"
 5974      20756E73 
 5974      69676E65 
 5974      6420696E 
 5974      7400
 5975              	.LASF23:
 5976 03d9 43434552 		.ascii	"CCER\000"
 5976      00
 5977              	.LASF7:
 5978 03de 5F5F696E 		.ascii	"__int32_t\000"
 5978      7433325F 
 5978      7400
 5979              	.LASF43:
 5980 03e8 73745F6C 		.ascii	"st_lld_get_counter\000"
 5980      6C645F67 
 5980      65745F63 
 5980      6F756E74 
 5980      657200
 5981              	.LASF13:
 5982 03fb 75696E74 		.ascii	"uint8_t\000"
 5982      385F7400 
 5983              	.LASF18:
 5984 0403 73697A65 		.ascii	"sizetype\000"
 5984      74797065 
ARM GAS  /tmp/ccLruy2S.s 			page 171


 5984      00
 5985              	.LASF58:
 5986 040c 5F746573 		.ascii	"_test_assert_sequence\000"
 5986      745F6173 
 5986      73657274 
 5986      5F736571 
 5986      75656E63 
 5987              	.LASF61:
 5988 0422 74657374 		.ascii	"test_emit_token\000"
 5988      5F656D69 
 5988      745F746F 
 5988      6B656E00 
 5989              	.LASF25:
 5990 0432 444D4152 		.ascii	"DMAR\000"
 5990      00
 5991              	.LASF37:
 5992 0437 65786563 		.ascii	"execute\000"
 5992      75746500 
 5993              	.LASF8:
 5994 043f 6C6F6E67 		.ascii	"long int\000"
 5994      20696E74 
 5994      00
 5995              	.LASF63:
 5996 0448 74657374 		.ascii	"test_emit_token_i\000"
 5996      5F656D69 
 5996      745F746F 
 5996      6B656E5F 
 5996      6900
 5997              	.LASF55:
 5998 045a 6F73616C 		.ascii	"osalSysLock\000"
 5998      5379734C 
 5998      6F636B00 
 5999              	.LASF16:
 6000 0466 6D73675F 		.ascii	"msg_t\000"
 6000      7400
 6001              	.LASF78:
 6002 046c 2E2E2F2E 		.ascii	"../../../test/lib/ch_test.c\000"
 6002      2E2F2E2E 
 6002      2F746573 
 6002      742F6C69 
 6002      622F6368 
 6003              	.LASF80:
 6004 0488 42617365 		.ascii	"BaseSequentialStreamVMT\000"
 6004      53657175 
 6004      656E7469 
 6004      616C5374 
 6004      7265616D 
 6005              		.comm	__gnu_lto_v1,1,1
 6006              		.ident	"GCC: (4.8.2-14ubuntu1+6) 4.8.2"
ARM GAS  /tmp/ccLruy2S.s 			page 172


DEFINED SYMBOLS
                            *ABS*:0000000000000000 ch_test.c
     /tmp/ccLruy2S.s:995    .text.print_line:0000000000000000 $t
     /tmp/ccLruy2S.s:1000   .text.print_line:0000000000000000 print_line
     /tmp/ccLruy2S.s:1043   .text.print_line:0000000000000024 $d
     /tmp/ccLruy2S.s:1049   .text._test_fail:0000000000000000 $t
     /tmp/ccLruy2S.s:1055   .text._test_fail:0000000000000000 _test_fail
     /tmp/ccLruy2S.s:1080   .text._test_fail:0000000000000014 $d
     /tmp/ccLruy2S.s:1087   .text._test_assert:0000000000000000 $t
     /tmp/ccLruy2S.s:1093   .text._test_assert:0000000000000000 _test_assert
     /tmp/ccLruy2S.s:1130   .text._test_assert:000000000000001c $d
     /tmp/ccLruy2S.s:1137   .text._test_assert_sequence:0000000000000000 $t
     /tmp/ccLruy2S.s:1143   .text._test_assert_sequence:0000000000000000 _test_assert_sequence
     /tmp/ccLruy2S.s:1230   .text._test_assert_sequence:0000000000000044 $d
     /tmp/ccLruy2S.s:1239   .text._test_assert_time_window:0000000000000000 $t
     /tmp/ccLruy2S.s:1245   .text._test_assert_time_window:0000000000000000 _test_assert_time_window
     /tmp/ccLruy2S.s:1314   .text._test_assert_time_window:0000000000000024 $d
     /tmp/ccLruy2S.s:1323   .text.test_printn:0000000000000000 $t
     /tmp/ccLruy2S.s:1329   .text.test_printn:0000000000000000 test_printn
     /tmp/ccLruy2S.s:1430   .text.test_printn:0000000000000070 $d
     /tmp/ccLruy2S.s:1437   .text.test_print:0000000000000000 $t
     /tmp/ccLruy2S.s:1443   .text.test_print:0000000000000000 test_print
     /tmp/ccLruy2S.s:1484   .text.test_print:0000000000000020 $d
     /tmp/ccLruy2S.s:1489   .text.test_println:0000000000000000 $t
     /tmp/ccLruy2S.s:1495   .text.test_println:0000000000000000 test_println
     /tmp/ccLruy2S.s:1552   .text.test_println:000000000000002c $d
     /tmp/ccLruy2S.s:1558   .text.test_emit_token:0000000000000000 $t
     /tmp/ccLruy2S.s:1564   .text.test_emit_token:0000000000000000 test_emit_token
     /tmp/ccLruy2S.s:1614   .text.test_emit_token:0000000000000018 $d
     /tmp/ccLruy2S.s:1620   .text.test_emit_token_i:0000000000000000 $t
     /tmp/ccLruy2S.s:1626   .text.test_emit_token_i:0000000000000000 test_emit_token_i
     /tmp/ccLruy2S.s:1649   .text.test_emit_token_i:0000000000000014 $d
     /tmp/ccLruy2S.s:1655   .text.test_execute:0000000000000000 $t
     /tmp/ccLruy2S.s:1661   .text.test_execute:0000000000000000 test_execute
     /tmp/ccLruy2S.s:2260   .text.test_execute:0000000000000250 $d
     /tmp/ccLruy2S.s:2398   .bss.test_global_fail:0000000000000000 test_global_fail
     /tmp/ccLruy2S.s:2385   .bss.test_step:0000000000000000 test_step
     /tmp/ccLruy2S.s:2295   .bss.test_failure_message:0000000000000000 $d
     /tmp/ccLruy2S.s:2299   .bss.test_failure_message:0000000000000000 test_failure_message
     /tmp/ccLruy2S.s:2305   .bss.test_local_fail:0000000000000000 test_local_fail
     /tmp/ccLruy2S.s:2306   .bss.test_local_fail:0000000000000000 $d
     /tmp/ccLruy2S.s:2308   .rodata.str1.4:0000000000000000 $d
     /tmp/ccLruy2S.s:2320   .rodata.str1.4:0000000000000028 .LC38
     /tmp/ccLruy2S.s:2326   .rodata.str1.4:0000000000000054 .LC44
     /tmp/ccLruy2S.s:2332   .rodata.str1.4:0000000000000068 .LC51
     /tmp/ccLruy2S.s:2335   .rodata.str1.4:0000000000000080 .LC53
     /tmp/ccLruy2S.s:2349   .rodata.str1.4:00000000000000c4 .LC66
     /tmp/ccLruy2S.s:2355   .rodata.str1.4:0000000000000108 .LC70
     /tmp/ccLruy2S.s:2358   .rodata.str1.4:000000000000011c .LC72
     /tmp/ccLruy2S.s:2361   .rodata.str1.4:0000000000000120 .LC75
     /tmp/ccLruy2S.s:2364   .rodata.str1.4:0000000000000124 .LC77
     /tmp/ccLruy2S.s:2367   .bss.test_chp:0000000000000000 $d
     /tmp/ccLruy2S.s:2371   .bss.test_chp:0000000000000000 test_chp
     /tmp/ccLruy2S.s:2374   .bss.test_tokp:0000000000000000 $d
     /tmp/ccLruy2S.s:2378   .bss.test_tokp:0000000000000000 test_tokp
     /tmp/ccLruy2S.s:2381   .bss.test_step:0000000000000000 $d
     /tmp/ccLruy2S.s:2388   .bss.test_tokens_buffer:0000000000000000 $d
ARM GAS  /tmp/ccLruy2S.s 			page 173


     /tmp/ccLruy2S.s:2392   .bss.test_tokens_buffer:0000000000000000 test_tokens_buffer
     /tmp/ccLruy2S.s:2399   .bss.test_global_fail:0000000000000000 $d
                            *COM*:0000000000000001 __gnu_lto_v1
                     .debug_frame:0000000000000010 $d
     /tmp/ccLruy2S.s:1048   .text.print_line:000000000000002c $t
     /tmp/ccLruy2S.s:1136   .text._test_assert:0000000000000028 $t
     /tmp/ccLruy2S.s:1238   .text._test_assert_sequence:0000000000000058 $t
     /tmp/ccLruy2S.s:1436   .text.test_printn:0000000000000074 $t
     /tmp/ccLruy2S.s:1488   .text.test_print:0000000000000024 $t
     /tmp/ccLruy2S.s:1557   .text.test_println:0000000000000034 $t
     /tmp/ccLruy2S.s:1654   .text.test_emit_token_i:000000000000001c $t
     /tmp/ccLruy2S.s:2294   .text.test_execute:00000000000002c4 $t

UNDEFINED SYMBOLS
__aeabi_uidivmod
__aeabi_uidiv
chThdSleep
test_suite
