ARM GAS  /tmp/cciotLDX.s 			page 1


   1              		.cpu cortex-m0
   2              		.fpu softvfp
   3              		.eabi_attribute 20, 1
   4              		.eabi_attribute 21, 1
   5              		.eabi_attribute 23, 3
   6              		.eabi_attribute 24, 1
   7              		.eabi_attribute 25, 1
   8              		.eabi_attribute 26, 1
   9              		.eabi_attribute 30, 2
  10              		.eabi_attribute 34, 0
  11              		.eabi_attribute 18, 4
  12              		.code	16
  13              		.file	"chcore_v6m.c"
  14              		.text
  15              	.Ltext0:
  16              		.section	.gnu.lto_.jmpfuncs.14f8cef872183736,"",%progbits
  17 0000 789C6362 		.ascii	"x\234cb`b\300\006\330\2414P\226\221\221\201\001\000"
  17      6062C006 
  17      D8A13450 
  17      96919181 
  17      0100
  18 0012 013D0010 		.ascii	"\001=\000\020"
  19              		.text
  20              		.section	.gnu.lto_.inline.14f8cef872183736,"",%progbits
  21 0000 789C6362 		.ascii	"x\234cb`b\300\006\"\2404P\226\223\203\221\201\211\347"
  21      6062C006 
  21      22A03450 
  21      96938391 
  21      8189E7
  22 0013 412C03DB 		.ascii	"A,\003\333\002y\260bF\006!\021Ff\206\214\010\306LF\206"
  22      0279B062 
  22      46062111 
  22      4666868C 
  22      08C64C46 
  23 0028 8FFFFFFF 		.ascii	"\217\377\377\377\347\007\012\246\243\360\030\201\230"
  23      E7070AA6 
  23      A3F01881 
  23      98
  24 0035 0588C15A 		.ascii	"\005\210\301ZX\026\310\0130\210\255\252b\001\033\310"
  24      5816C80B 
  24      3088ADAA 
  24      62011BC8 
  25 0045 0D960000 		.ascii	"\015\226\000\000\3660\017\353"
  25      F6300FEB 
  26              		.text
  27              		.section	.gnu.lto_.pureconst.14f8cef872183736,"",%progbits
  28 0000 789C6362 		.ascii	"x\234cb`b`e\200\000&\006+F+\000\001\206\000\201"
  28      60626065 
  28      80002606 
  28      2B462B00 
  28      01860081 
  29              		.text
  30              		.section	.gnu.lto_NMI_Handler.14f8cef872183736,"",%progbits
  31 0000 789C9552 		.ascii	"x\234\225RMh\023A\024~of\223\206h\024\217\005\251\241"
  31      4D681341 
  31      147E6F66 
  31      93866814 
ARM GAS  /tmp/cciotLDX.s 			page 2


  31      8F05A9A1 
  32 0014 E2ADCDB6 		.ascii	"\342\255\315\266\027=\011JO\036\202\222T\320S\011cL"
  32      173D094A 
  32      4F1E8292 
  32      54D05309 
  32      634C
  33 0026 179BEEB2 		.ascii	"\027\233\356\262\233J<e\223T\024\332C\360\247\266P\241"
  33      9B4A3C65 
  33      935414DA 
  33      43F0A7B6 
  33      50A1
  34 0038 45A582A8 		.ascii	"E\245\202\250'\021o\021\213Pk\013=\366\226*\010\"hs"
  34      27116F11 
  34      8B506B0B 
  34      3DF6962A 
  34      08226873 
  35 004c AB1ABABE 		.ascii	"\253\032\272\276\331\315&\266\024\252\217L\276\235\367"
  35      D9CD26B6 
  35      14AA8F4C 
  35      BE9DF7
  36 005b DEF7BDD9 		.ascii	"\336\367\275\331o\226\001\203\335\321I\253\237\003|"
  36      6F960183 
  36      DDD149AB 
  36      9F037C
  37 006a 25440EC8 		.ascii	"%D\016\310*\253\000\305\020C\224\017\200P`X\270\214"
  37      2AAB00C5 
  37      1043940F 
  37      80506058 
  37      B88C
  38 007c B29577C3 		.ascii	"\262\225w\303\274m\337\251\335\374R\303\231{\325\361"
  38      BC6DDFA9 
  38      DDFC52C3 
  38      997BD5F1 
  39 008c 39BBE138 		.ascii	"9\273\3418\210\032\222l\037\202@\270D\033\214\272\300"
  39      881A926C 
  39      1F8240B8 
  39      441B8CBA 
  39      C0
  40 009d 949D733C 		.ascii	"\224\235s<n\365\356\373\007\235\366\\\251bo\023UC\316"
  40      6EF5EEFB 
  40      079DF65C 
  40      A9626F13 
  40      5543CE
  41 00b0 E0D4BF31 		.ascii	"\340\324\2771k?\337\334\357\235\261\253\343\363\376"
  41      6B3FDFDC 
  41      EF9DB1AB 
  41      E3F3FE
  42 00bf 5485C1E8 		.ascii	"T\205\301\350~\334\227\254Zs\234\027\27766f\361H\230"
  42      7EDC97AC 
  42      5A739C17 
  42      BF363666 
  42      F14898
  43 00d2 430A1F61 		.ascii	"C\012\037a7(M\014\020\316\023\206\010\237\020R\004`"
  43      37284D0C 
  43      10CE1386 
  43      089F1052 
  43      0460
ARM GAS  /tmp/cciotLDX.s 			page 3


  44 00e4 DCB62B51 		.ascii	"\334\266+Q\257\016R\235b\220\376\245\033\027\221I\344"
  44      AF0E529D 
  44      6290FEA5 
  44      1B179149 
  44      E4
  45 00f5 AB50AC37 		.ascii	"\253P\25476?`\253\331#{\333\352\362\342\332a \305\005"
  45      363F60AB 
  45      D9237BDB 
  45      EAF2E2DA 
  45      6120C505 
  46 0109 AA0B7405 		.ascii	"\252\013t\005\310F\030\343\322}\356]A\027\224\361\241"
  46      C84618E3 
  46      D27DEE5D 
  46      411794F1 
  46      A1
  47 011a 3D7D46A3 		.ascii	"=}F\243\036\212\014\206\334\266%(mJ\341\024>\305@\363"
  47      1E8A0C86 
  47      DCB62528 
  47      6D4AE114 
  47      3EC540F3 
  48 012e 506E6D05 		.ascii	"Pnm\005J\337\336-/\326\003\236l\006\271\233^\002\346"
  48      4ADFDE2D 
  48      2FD6039E 
  48      6C06B99B 
  48      5E02E6
  49 0141 25BCF352 		.ascii	"%\274\363RZ\266\226'\312\257';\374N\205\262\2565Q\330"
  49      5AB69627 
  49      CAAF273B 
  49      FC4E85B2 
  49      AE3551D8 
  50 0155 83A0B8DA 		.ascii	"\203\240\270\332\337\313\237'\217\372\204\200\233mu"
  50      DFCB9F27 
  50      8FFA8480 
  50      9B6D75
  51 0164 362FEEF7 		.ascii	"6/\356\367\372\301J\361\266\3558\005\327\371[\270\237"
  51      FAC14AF1 
  51      B6ED3805 
  51      D7F95BB8 
  51      9F
  52 0175 F519F96A 		.ascii	"\365\031\371j\253P\2527\246\227}\247Z\036M||\313S\370"
  52      AB50AA37 
  52      A6977DA7 
  52      5A1E4D7C 
  52      7CCB53F8 
  53 0189 DCB5CD77 		.ascii	"\334\265\315w\212yF!L\341N\253\0367\255\012\266d\333"
  53      8A794621 
  53      4CE14EAB 
  53      1E37AD0A 
  53      B664DB
  54 019c B585BF6D 		.ascii	"\265\205\277m\224\363\350f\266\"\273\307\375\230\332"
  54      94F3E866 
  54      B622BBC7 
  54      FD98DA
  55 01ab 3E70CCDF 		.ascii	">p\314\337\331\317^u\265/k\245\036h\037\201\323Rh5\325"
  55      D9CF5E75 
  55      B52F6BA5 
  55      1E681F81 
ARM GAS  /tmp/cciotLDX.s 			page 4


  55      D3526835 
  56 01c0 10D6B135 		.ascii	"\020\326\2615\351SsR\207W[\203bm\366\270G\364c\220L"
  56      E9537352 
  56      87575B83 
  56      626DF6B8 
  56      47F46390 
  57 01d5 A1EF4312 		.ascii	"\241\357C\022zc1\325\373\351\226*\364lV\037U\015\335"
  57      7A6331D5 
  57      FBE9962A 
  57      F46C561F 
  57      550DDD
  58 01e8 CC59EAD9 		.ascii	"\314Y\352\331D| \236W\305\260\320\315\364\320\365\223"
  58      447C209E 
  58      57C5B0D0 
  58      CDF4D0F5 
  58      93
  59 01f9 D99880A0 		.ascii	"\331\230\200\240\310\345\215X\237\"\241\177\017f:\237"
  59      C8E58D58 
  59      9F22A17F 
  59      0F663A9F 
  60 0209 5307E2C9 		.ascii	"S\007\342\311sIU\033\025#cW\322\252\310Z\2325\224\021"
  60      7349551B 
  60      15236357 
  60      D2AAC85A 
  60      9A359411 
  61 021d 22360C41 		.ascii	"\"6\014A3m\215\215\344\"\361D2z\242\257'jXF\030\370"
  61      336D8D8D 
  61      E422F144 
  61      327AA2AF 
  61      276A5846 
  62 0233 69130EE5 		.ascii	"i\023\016\345t\343\374\325\013\246.\222\271\224\270"
  62      74E3FCD5 
  62      0BA62E92 
  62      B994B8
  63 0242 16892713 		.ascii	"\026\211'\023\262\330C]a`&p\313\370\257\203\016CH\030"
  63      B2D8435D 
  63      61602670 
  63      CBF8AF83 
  63      0E434818 
  64 0256 96968E6A 		.ascii	"\226\226\216j\320\221Mgu\363\006\374\001?~\010\256"
  64      D0914D67 
  64      75F306FC 
  64      013F7E08 
  64      AE
  65              		.text
  66              		.section	.gnu.lto__port_irq_epilogue.14f8cef872183736,"",%progbits
  67 0000 789CA553 		.ascii	"x\234\245SoHSQ\024?\347\276\275\267\345\377\372\022"
  67      6F485351 
  67      143FE7BE 
  67      BDB7E5FF 
  67      FA12
  68 0012 41C81004 		.ascii	"A\310\020\004!\335S\202\374$\024~\212\030\205K\250O"
  68      21DD5382 
  68      FC24147E 
  68      8A18854B 
  68      A84F
  69 0024 62CF351F 		.ascii	"b\3175\03797\266\031J\037\274s\202\201\201\"\006\232"
ARM GAS  /tmp/cciotLDX.s 			page 5


  69      3937B619 
  69      4A1FBC73 
  69      82818122 
  69      069A
  70 0036 169A8864 		.ascii	"\026\232\210d\222\004BEF\263\3102\311\220\352\373B\010"
  70      92044245 
  70      46B3C832 
  70      C990EAFB 
  70      4208
  71 0048 C2FECC0F 		.ascii	"\302\376\314\017\"\211\270\356}\367\355\345\237\310"
  71      2289B8EE 
  71      7DF7EDE5 
  71      9FC8
  72 0056 A2CBDECE 		.ascii	"\242\313\336\316=\367\234\363;\347\374\356\271\004\010"
  72      3DF79CF3 
  72      3BE7FCEE 
  72      B90408
  73 0065 EC5CA7D8 		.ascii	"\354\\\247\330\367\324\006\360\231I\264\003\222\356"
  73      F7D406F0 
  73      9949B403 
  73      92EE
  74 0073 0580A883 		.ascii	"\005\200\250\203\020i\240\002h\206\262\232\0074K\"\266"
  74      1069A002 
  74      6886B29A 
  74      07344B22 
  74      B6
  75 0084 E97CA6C9 		.ascii	"\351|\246\311\357U\246\331P\021Nrz\243 \362\015 \264"
  75      EF55A6D9 
  75      50114E72 
  75      7AA320F2 
  75      0D20B4
  76 0097 12C9262B 		.ascii	"\022\311&+\330z\0369\270T\000\303\224\366$FSI\354\357"
  76      D87A1E39 
  76      B85400C3 
  76      94F62446 
  76      5349ECEF 
  77 00ab 8DB70FD1 		.ascii	"\215\267\017\321\215T\012QGVH)\202\206p\216)\3504\004"
  77      8D540A51 
  77      47564829 
  77      8286708E 
  77      29E83404 
  78 00bf B16DAF4C 		.ascii	"\261m\257L\304\306\337\275\034<D\207\332\272\351&\013"
  78      C4C6DFBD 
  78      1C3C4487 
  78      DABAE926 
  78      0B
  79 00d0 D5512250 		.ascii	"\325Q\"P\376w\221\211\037\217\256\227\364\323x\373p"
  79      FE779189 
  79      1F8FAE97 
  79      F4D378FB 
  79      70
  80 00e1 3AAB8D40 		.ascii	":\253\215@\343^\261\223$\236H\245\356Mw\214\015\342"
  80      E35EB193 
  80      249E48A5 
  80      EE4D778C 
  80      0DE2
  81 00f3 38D94FD0 		.ascii	"8\331O\320\217\240@-\216`\001\330M\351`r\230\311,\320"
ARM GAS  /tmp/cciotLDX.s 			page 6


  81      8FA0402D 
  81      8E6001D8 
  81      4DE96072 
  81      98C92CD0 
  82 0107 51CE65CA 		.ascii	"Q\316e\312(S\330\222\241\235\322n'\360\024l\235e\377"
  82      2853D892 
  82      A19DD26E 
  82      27F0146C 
  82      9D65FF
  83 011a 9C966A24 		.ascii	"\234\226j$\\J\257\240\375\313\314b\207T\213c(\203\017"
  83      5C4AAFA0 
  83      FDCBCC62 
  83      87548B63 
  83      28830F
  84 012d 09CFAFAC 		.ascii	"\011\317\257\254\244R\251\334-\005T\243\004\003\025"
  84      A452A9DC 
  84      2D0554A3 
  84      040315
  85 013c D2024457 		.ascii	"\322\002DW6n\315\242\205)6\361\007]_3\213\322\032]\232"
  85      366ECDA2 
  85      852936F1 
  85      075D5F33 
  85      8BD21A5D 
  86 0151 3A6C59E6 		.ascii	":lY\346WWd\253\006Q(\200\310\005\274$\3369a\237$\362"
  86      575764AB 
  86      06512880 
  86      C805BC24 
  86      DE39619F 
  87 0167 208CB0AD 		.ascii	" \214\260\2551\020\3710\2017i\337q\235\015\200\261\214"
  87      3110F930 
  87      813769DF 
  87      719D0D80 
  87      B18C
  88 0179 E4C9D768 		.ascii	"\344\311\327h\201\211\006\315D\235k\36739\362\004\263"
  88      818906CD 
  88      449D6BF7 
  88      3339F204 
  88      B3
  89 018a 6B6833D1 		.ascii	"kh3\321`J\300Y\230\317LL\007W}(z\234\203\266$G\256\305"
  89      604AC059 
  89      98CF4C4C 
  89      07577D28 
  89      7A9C83B6 
  90 01a2 49162D80 		.ascii	"I\026-\200\015\333\033h[~\336\2716,\011\\\037*\306\361"
  90      0DDB1B68 
  90      5B7EDEB9 
  90      362C095C 
  90      1F2AC6F1 
  91 01b6 1C107120 		.ascii	"\034\020q \032b\307\3345\326\031[\356:\224\366\264\263"
  91      1A62C7DC 
  91      35D6195B 
  91      EE3A94F6 
  91      B4B3
  92 01c8 53E32A13 		.ascii	"S\343*\023&\225\273\202\354\006\376\267\330ZW~:\310"
  92      2695BB82 
  92      EC06FEB7 
  92      D85A577E 
ARM GAS  /tmp/cciotLDX.s 			page 7


  92      3AC8
  93 01da 619C5A9E 		.ascii	"a\234Z\236\346\260=\351\230G\332C\243I\006d\314\313"
  93      E6B03DE9 
  93      9847DA43 
  93      A3490664 
  93      CCCB
  94 01ec 2CEE3530 		.ascii	",\35650>\336\340\002\264\255l\364\315\357\272\255\371"
  94      3EDEE002 
  94      B4AD6CF4 
  94      CDEFBAAD 
  94      F9
  95 01fd CD8FACA1 		.ascii	"\315\217\254\241)\363*\004a\262\340\013\341\303\016"
  95      29F32A04 
  95      61B2E00B 
  95      E1C30E
  96 020c C2964CC2 		.ascii	"\302\226L\302\366Y\260\277l\237\266\222it\363\260\357"
  96      F659B0BF 
  96      6C9FB692 
  96      6974F3B0 
  96      EF
  97 021d F68C59FC 		.ascii	"\366\214Y\374\021\030\247l\035\3251c\000n\260\0323M"
  97      1118A76C 
  97      1DD53163 
  97      006EB01A 
  97      334D
  98 022f 46A43423 		.ascii	"F\2444#p\001E\2401r\314\227\343\274\205X\342\332\213"
  98      700145A0 
  98      3172CC97 
  98      E3BC8558 
  98      E2DA8B
  99 0242 036946B2 		.ascii	"\003iF\262\256\300:\275J\363t\314\3228\315l\351\230"
  99      AEC03ABD 
  99      4AF374CC 
  99      D238CD6C 
  99      E998
 100 0254 0DC0C736 		.ascii	"\015\300\3076Zfyq\004y+\001\325l\004\222\007%V\322z"
 100      5A667971 
 100      04792B01 
 100      D56C0492 
 100      072556D2 
 101 0269 EC716FD1 		.ascii	"\354qo\321\266\222\312\377X\222\250I\244\245-:\346h"
 101      B692CAFF 
 101      5892A849 
 101      A4A52D3A 
 101      E668
 102 027b E9013460 		.ascii	"\351\0014`e\270[(`\277\377/\254c\013\254b<\306E\210"
 102      65B85B28 
 102      60BFFF2F 
 102      AC630BAC 
 102      623CC645 
 103 0290 26EE145A 		.ascii	"&\356\024Z\317\003\304\203En\343\224\227\270\\\252\370"
 103      CF03C483 
 103      456EE394 
 103      97B85CAA 
 103      F8
 104 02a1 05C2AA16 		.ascii	"\005\302\252\026\360\373\003\215j0\020\212\204\325\023"
 104      F0FB038D 
ARM GAS  /tmp/cciotLDX.s 			page 8


 104      6A30108A 
 104      84D513
 105 02b0 55EE4A77 		.ascii	"U\356Jw\263\252\325k\201\220\267\346\3621\277K\003E"
 105      B3AAD56B 
 105      8190B7E6 
 105      F231BF4B 
 105      0345
 106 02c2 8B34075D 		.ascii	"\2134\007]e6.\312~\023\351m\216\250\225n\317I\217\252"
 106      65362ECA 
 106      7E13E96D 
 106      8EA8956E 
 106      CF498FAA 
 107 02d6 376A0D4D 		.ascii	"7j\015Mu^U\363\207\365p\215O\323\\\365\240\204\274\341"
 107      755E55F3 
 107      87F5708D 
 107      4FD35CF5 
 107      A084BCE1 
 108 02ea A686C8BF 		.ascii	"\246\206\310\277\244\254\007\207\026\014\353uN\035\354"
 108      A4AC0787 
 108      160CEB75 
 108      4E1DEC
 109 02f9 7EAF3F10 		.ascii	"~\257?\020j\201lw\225\307YXZ\354\014\206\203\031 U\204"
 109      6A816C77 
 109      95C75958 
 109      5AEC0C86 
 109      83192055 
 110 030e 20271208 		.ascii	" '\022\010\236\276x&\024\320<\221Z\355R\266\333S\305"
 110      9EBE7826 
 110      14D03C91 
 110      5AED52B6 
 110      DB53C5
 111 0321 8DC5CC2B 		.ascii	"\215\305\314+\003H\010\244p\020~\002\270\020x\267"
 111      034808A4 
 111      70107E02 
 111      B81078B7 
 112              		.text
 113              		.section	.gnu.lto_.symbol_nodes.14f8cef872183736,"",%progbits
 114 0000 789C45C7 		.ascii	"x\234E\307\261\021\200 \024D\301w\037\312\260*\033:"
 114      B1118020 
 114      1444C177 
 114      1FCAB02A 
 114      1B3A
 115 0012 1C13432B 		.ascii	"\034\023C+\260\033A\023m\311@f\330l\203`\246\213\023"
 115      B01B4113 
 115      6DC94066 
 115      D86C8360 
 115      A68B13
 116 0025 C3FE807D 		.ascii	"\303\376\200}l\212\2125\252\013\307\337\262H7Nc\015"
 116      6C8A8A35 
 116      AA0BC7DF 
 116      B248374E 
 116      630D
 117 0037 E7BEA2A4 		.ascii	"\347\276\242\244\314\332\336\211\017\031\270\030\245"
 117      CCDADE89 
 117      0F19B818 
 117      A5
 118              		.text
ARM GAS  /tmp/cciotLDX.s 			page 9


 119              		.section	.gnu.lto_.refs.14f8cef872183736,"",%progbits
 120 0000 789C6362 		.ascii	"x\234cb`b`g\200\000&F&&&f\006\000\000\366\000\030"
 120      60626067 
 120      80002646 
 120      26262666 
 120      060000F6 
 121              		.text
 122              		.section	.gnu.lto_.decls.14f8cef872183736,"",%progbits
 123 0000 789C9D56 		.ascii	"x\234\235V]l\024U\024\276wv)\273vYJ\025R\036\014K\242"
 123      5D6C1455 
 123      14BE7776 
 123      29BB7659 
 123      4A15521E 
 124 0017 2612E9F2 		.ascii	"&\022\351\362\223\030}\001\225\007\341\241\330\320\220"
 124      93187D01 
 124      9507E1A1 
 124      D8D090
 125 0026 F8361966 		.ascii	"\3706\031f\207\356\204\331\235ef\026\312\223\267\345"
 125      87EE84D9 
 125      9D656616 
 125      CA93B7E5 
 126 0036 47241A17 		.ascii	"G$\032\027\"\002!\221\245\374\010F\010`A[PW\014\245"
 126      22022191 
 126      A5FC0846 
 126      0860415B 
 126      50570CA5 
 127 004a A1A64105 		.ascii	"\241\246A\005\024+:\006\302\013\006A~\203\205\365\314"
 127      142B3A06 
 127      C20B0641 
 127      7E8385F5 
 127      CC
 128 005b EFCE4C67 		.ascii	"\357\316Lgp\327\233~\351\335\231s\276\357\234s\357\334"
 128      70D79B7E 
 128      E9DD9973 
 128      BEEF9C73 
 128      EFDC
 129 006d 7B2844A1 		.ascii	"{(D\241\004F\250\014\343\3408\2042\024B!\204\320\034"
 129      0446A80C 
 129      E3E03884 
 129      32144221 
 129      84D01C
 130 0080 003C4673 		.ascii	"\000<Fs\2211\306\000v\002\366\002\016\001\216\000z\320"
 130      9131C600 
 130      7602F602 
 130      0E018E00 
 130      7AD0
 131 0092 E8A1D944 		.ascii	"\350\241\331D\000c\001q@\014\320\007\030\002\234\003"
 131      00630171 
 131      400CD007 
 131      18029C03 
 132 00a2 5C040C9B 		.ascii	"\\\004\014\233\266u\246\375%\300e\3005\300u\300M\037"
 132      B675A6FD 
 132      25C065C0 
 132      35C075C0 
 132      4D1F
 133 00b4 5E4D777C 		.ascii	"^Mw|\000\35713\316a\207\306~\300q\300\035\300Q\300]"
 133      00EF3133 
ARM GAS  /tmp/cciotLDX.s 			page 10


 133      CE6187C6 
 133      7EC071C0 
 133      1DC051C0 
 134 00c9 00A486BE 		.ascii	"\000\244\206\276\003\234\001DM\316{\200\007\200\207"
 134      039C0144 
 134      4DCE7B80 
 134      078087
 135 00d8 8E387A1C 		.ascii	"\2168z\0349j58\340\211e\012\372\210\024Uu\317\216AL"
 135      396A3538 
 135      E089650A 
 135      FA881455 
 135      75CF8E41 
 136 00ed 36919172 		.ascii	"6\221\221r9\204&\241\315\004Fq\035!Xa\360\234\211\350"
 136      398426A1 
 136      CD044671 
 136      1D215861 
 136      F09C89E8 
 137 0101 4DCCE078 		.ascii	"M\314\340x\024%\364I,\212\302\272+\203\273\361$s\266"
 137      1425F449 
 137      2C8AC2BA 
 137      2B83BBF1 
 137      2473B6
 138 0114 3864D051 		.ascii	"8d\320Qh\006F\323\320~\360/\020\3225\305'{\204\236C"
 138      680646D3 
 138      D07EF02F 
 138      10D235C5 
 138      277B849E 
 139 0129 7B3401B2 		.ascii	"{4\001\262\217\204tz\215`'v\3312x\027\246F\307Y:q:V"
 139      8F84747A 
 139      8D602776 
 139      D9327817 
 139      A646C759 
 140 0141 E854CBE5 		.ascii	"\350T\313\345)\325\007\371\261\031dH\257\031\252G\033"
 140      29D507F9 
 140      B1196448 
 140      AF19AA47 
 140      1B
 141 0152 2030CD71 		.ascii	" 0\315q\376@<\320\361Y\264\0332P\267\364_\275\211;A"
 141      FE403CD0 
 141      F159B41B 
 141      3250B7F4 
 141      5FBD893B 
 142 0167 82C1FB71 		.ascii	"\202\301\373q=\020d00\356\306\323\3540\347\326\273\303"
 142      3D106430 
 142      30EEC6D3 
 142      EC30E7D6 
 142      BBC3
 143 0179 86DF0E83 		.ascii	"\206\337\016\203Ja\364\332\254p{?\203v\021\262I=u\357"
 143      4A61F4DA 
 143      AC707B3F 
 143      837611B2 
 143      493D75EF 
 144 018d 6C781B29 		.ascii	"lx\033)\205-\215w\260f\266\027\012\342\027\231aU\251"
 144      852D8D77 
 144      B066B617 
 144      0AE21799 
 144      6155A9
ARM GAS  /tmp/cciotLDX.s 			page 11


 145 01a0 E27B646D 		.ascii	"\342{dm\003\266\313\270\327[\306OG\227Q-\250\275gF\326"
 145      03B6CBB8 
 145      D75BC64F 
 145      4797512D 
 145      A8BD6746 
 146 01b5 E08DAB8B 		.ascii	"\340\215\253\213\003\344F\271<\336\\I\012\365aw\200"
 146      03E446B9 
 146      3CDE5C49 
 146      0AF56177 
 146      80
 147 01c6 16C9613F 		.ascii	"\026\311a?\222\322\355\037\337%\330X\015\213\340l\000"
 147      92D2ED1F 
 147      DF25D858 
 147      0D8BE06C 
 147      00
 148 01d7 C167BE51 		.ascii	"\301g\276Ql}\177\344\205m\344\344\032R.\277\345\336"
 148      6C7D7FE4 
 148      856DE4E4 
 148      1A522EBF 
 148      E5DE
 149 01e9 7511F4B6 		.ascii	"u\021\364\266\266H\352Z\322\211\227#\253\016\021\253"
 149      B648EA5A 
 149      D2899723 
 149      AB0E11AB 
 150 01f9 0ED85A21 		.ascii	"\016\330Z!m\223Q\014>\206# \336Ea\344;\014\003mh\376"
 150      6D93510C 
 150      3E862320 
 150      DE4561E4 
 150      3B0C036D 
 151 020f C6DC9A61 		.ascii	"\306\334\232a\024\270q\216\372\354\356\365\224\177\202"
 151      14B8718E 
 151      FAECEEF5 
 151      947F82
 152 021e BDEE045D 		.ascii	"\275\356\004]\233\254\021m\3242K\014\304m-BYb\011\235"
 152      9BAC116D 
 152      D4324B0C 
 152      C46D2D42 
 152      5962099D 
 153 0232 B65BA73D 		.ascii	"\266[\247=\216\033Mr#9\365\213\015#\024!\021\343\015"
 153      8E1B4D72 
 153      2339F58B 
 153      0D231421 
 153      11E30D
 154 0245 F21136C7 		.ascii	"\362\0216\307TT\004\271\322\255\301\017&\223\342I{\263"
 154      545404B9 
 154      D2ADC10F 
 154      2693E249 
 154      7BB3
 155 0257 1EB459FD 		.ascii	"\036\264Y\375R4\247\310.L<\352\341\273=\030+0\026\331"
 155      5234A7C8 
 155      2E4C3CEA 
 155      E1BB3D18 
 155      2B3016D9 
 156 026b E19AC912 		.ascii	"\341\232\311\022.\262\273N\262\236j\310\"\301\221\335"
 156      2EB2BB4E 
 156      B29E6AC8 
 156      22C191DD 
ARM GAS  /tmp/cciotLDX.s 			page 12


 157 027b 77927D5E 		.ascii	"w\222}^3\231;\262\007N\262\276j\310\032\202#\033q\222"
 157      33993BB2 
 157      074EB2BE 
 157      6AC81A82 
 157      231B7192 
 158 028f 7D553399 		.ascii	"}U3\231;\262GN\262S\325\2205\005GV\030r\220\015\324"
 158      3BB2474E 
 158      B253D590 
 158      35054756 
 158      1872900D 
 159 02a4 4C96F0EC 		.ascii	"L\226\360\354\271\240\257\246\017\333'b\024\255\257"
 159      B9A0AFA6 
 159      0FDB2762 
 159      14ADAF
 160 02b3 7C05FE1E 		.ascii	"|\005\376\036\3469{\374\303S\337\340.\375\234\035\302"
 160      E6397BFC 
 160      C353DFE0 
 160      2EFD9C1D 
 160      C2
 161 02c4 5188EF9A 		.ascii	"Q\210\357\232\347;\253\236\352\342\226\023/\353\337"
 161      E73BAB9E 
 161      EAE29613 
 161      2FEBDF
 162 02d3 CCF73A51 		.ascii	"\314\367:Qw\310{b\217\215:\323\320\177[\006\032\233"
 162      77C87B62 
 162      8F8D3AD3 
 162      D07F5B06 
 162      1A9B
 163 02e5 FEDA9C68 		.ascii	"\376\332\234h\215\304xT\253\371\004T\320\277\367\255"
 163      8DC47854 
 163      ABF90454 
 163      D0BFF7AD 
 164 02f5 71336A75 		.ascii	"q3ju\017ij\372\357S\354\274\036\360\201P\340)\246\031"
 164      0F696AFA 
 164      EF53ECBC 
 164      1EF08150 
 164      E029A619 
 165 0309 58A537E6 		.ascii	"X\2457\346\326\254\\9\306\232,\372\220\351u\016O\250"
 165      D6AC5C39 
 165      C69A2CFA 
 165      90E9750E 
 165      4FA8
 166 031b 9490D817 		.ascii	"\224\220\330\027\037X\004-\341\317\016\235X\2642\261"
 166      1F58042D 
 166      E1CF0E9D 
 166      58B432B1 
 167 032b 8E3833C1 		.ascii	"\21683\301\342+[\343\206\274I\324\3406d\360\305\232"
 167      E22B5BE3 
 167      86BC49D4 
 167      E03664F0 
 167      C59A
 168 033d A57F0990 		.ascii	"\245\177\011\220\306n\351\204G\371%\313n\254\3113\\"
 168      C66EE984 
 168      47F925CB 
 168      6EACC933 
 168      5C
 169 034e B3F2AF01 		.ascii	"\263\362\257\001\312u\246\262vg\225n\250\347\267_\370"
ARM GAS  /tmp/cciotLDX.s 			page 13


 169      CA75A6B2 
 169      7667956E 
 169      A8E7B75F 
 169      F8
 170 035f 016F594D 		.ascii	"\001oYM\214\233\263\270\236\3624\"C8X\3427\237\013\345"
 170      8C9BB3B8 
 170      9EF23422 
 170      433858E2 
 170      379F0BE5 
 171 0373 8A6B7FEA 		.ascii	"\212k\177\352=\012\205\256W\366\200~\313w\221#\373H"
 171      3D0A85AE 
 171      57F6807E 
 171      CB779123 
 171      FB48
 172 0385 D420D7DC 		.ascii	"\324 \327\334/\005\364\006&\373\357\243o\333\322\215"
 172      2F05F406 
 172      26FBEFA3 
 172      6FDBD28D 
 173 0395 D2E6C113 		.ascii	"\322\346\301\023p;t\225\312\345\257\311\324p\365\375"
 173      703B7495 
 173      CAE5AFC9 
 173      D470F5FD 
 174 03a5 D31577FF 		.ascii	"\323\025w\377dD\341ilFFg\301\340?\2540\214>\207\364"
 174      6444E169 
 174      6C464667 
 174      C1E03FAC 
 174      308C3E87 
 175 03ba F6C70AF6 		.ascii	"\366\307\012\366\007\276.\254y\\\016lr\214T\255&\347"
 175      07BE2EAC 
 175      795C0E6C 
 175      728C54AD 
 175      26E7
 176 03cc 56676B93 		.ascii	"Vgk\223\335\343\\\366\3668W\375\362U{7\234\353\307\233"
 176      DDE35CF6 
 176      F63857FD 
 176      F2557B37 
 176      9CEBC79B 
 177 03e0 EC958A58 		.ascii	"\354\225\212X=\312\346\260\367\012\367\353G\257yE\376"
 177      3DCAE6B0 
 177      F70AF7EB 
 177      47AF7945 
 177      FE
 178 03f1 F42DEAFD 		.ascii	"\364-\352\375\237\214~tG\251\301\342\377\244*\376\353"
 178      9F8C7E74 
 178      47A9C1E2 
 178      FFA42AFE 
 178      EB
 179 0402 5EFEBF7C 		.ascii	"^\376\277|\2238\277\375\313U\320\033\352-\322N;\205"
 179      9338BFFD 
 179      CB55D01B 
 179      EA2DD24E 
 179      3B85
 180 0414 63E1C795 		.ascii	"c\341\307\225\333_\360\246W\360\357\307\264,F\363\023"
 180      DB5FF0A6 
 180      57F0EFC7 
 180      B42C46F3 
 180      13
ARM GAS  /tmp/cciotLDX.s 			page 14


 181 0425 B423EE54 		.ascii	"\264#\356T\216x\217W\367c\274\356V\274\354\025:\355"
 181      8E788F57 
 181      F763BCEE 
 181      56BCEC15 
 181      3AED
 182 0437 BB42DF56 		.ascii	"\273B\337VU\301{\336\204\356\373\256\320\205\321+t\241"
 182      55C17BDE 
 182      84EEFBAE 
 182      D085D12B 
 182      74A1
 183 0449 2AFE075E 		.ascii	"*\376\007^\376\177\374Wh\270\177\243\353@\260T\324\377"
 183      FE7FFC57 
 183      68B87FA3 
 183      EB40B054 
 183      D4FF
 184 045b B1480FBD 		.ascii	"\261H\017\275\232\217\334\232hzss\322\370\023\345$+"
 184      9A8FDC9A 
 184      687A7373 
 184      D2F813E5 
 184      242B
 185 046d 66326236 		.ascii	"f2b6\231\023%EN\276\272\250e^KG\222M\263\242\304\321"
 185      99132545 
 185      4EBEBAA8 
 185      655E4B47 
 185      924DB3A2 
 186 0483 2B5ECC34 		.ascii	"+^\3144\263\250~a\313\002z>\223M\011\234T\367\372\302"
 186      B3A87E61 
 186      CB027A3E 
 186      934D099C 
 186      54F7FAC2 
 187 0497 C58979E8 		.ascii	"\305\211y\350\371\352\010\232\323(\"q\355\214\224\241"
 187      F9EA089A 
 187      D3282271 
 187      ED8C94A1 
 188 04a7 95465A33 		.ascii	"\225FZ3\240yi9\315\345xAl\317s\224 \325\022I\032M48"
 188      A0796939 
 188      CDE57841 
 188      6CCF7394 
 188      20D51249 
 189 04bf E495BCC2 		.ascii	"\344\225\274\302\246\351\245\222\230\241yYz\322x\312"
 189      A6E9A592 
 189      98A17959 
 189      7AD278CA 
 190 04cf 75F08AFD 		.ascii	"u\360\212\375\354i'o\226\027\222|\226\025\362)\016\370"
 190      EC69276F 
 190      9617927C 
 190      9615F229 
 190      0EF8
 191 04e1 80670CFD 		.ascii	"\200g\014\375\232(\012\223\331t\033\233^ \267J\034\227"
 191      9A280A93 
 191      D9741B9B 
 191      5E20B74A 
 191      1C97
 192 04f3 C929BC98 		.ascii	"\311)\274\230]\304-\317\363\022\227\2527\011\025V\351"
 192      5DC42DCF 
 192      F31297AA 
 192      37091556 
ARM GAS  /tmp/cciotLDX.s 			page 15


 192      E9
 193 0504 A0A41994 		.ascii	"\240\244\031\2244\223\222fQ\322\354\2204sV\235 \321"
 193      34939266 
 193      51D2EC90 
 193      3473569D 
 193      20D1
 194 0516 4A3A45E5 		.ascii	"J:E\345\330pG\016\204\222yY\262\331\263\334J\201_\222"
 194      D870470E 
 194      84927959 
 194      B2D9B3DC 
 194      4A815F92 
 195 052a 9495149F 		.ascii	"\224\225\024\237U\264\354\363\360\177\366,Z\231\356"
 195      55B4ECF3 
 195      F07FF62C 
 195      5A99EE
 196 0539 679661D8 		.ascii	"g\226a\3304\237\345\222t\212[\312\344\005\205VV\345"
 196      349FE592 
 196      748A5BCA 
 196      E4058556 
 196      56E5
 197 054b 3819DC9E 		.ascii	"8\031\334\236\240i\3131\314\246\031i\246O\225 \272\344"
 197      A069CB31 
 197      CCA61969 
 197      A64F9520 
 197      BAE4
 198 055d BC96B605 		.ascii	"\274\226\266\005m\225\32422/\323\355,\013\014Q\232n"
 198      6D95D432 
 198      322FD3ED 
 198      2C0B0C51 
 198      9A6E
 199 056f E714BAB5 		.ascii	"\347\024\272\265\255u\034#\254dV\3114\237\025@\013\236"
 199      AD751C23 
 199      AC6456C9 
 199      349F1540 
 199      0B9E
 200 0581 CBC6F3B8 		.ascii	"\313\306\363\270\"\346\336X\332*\211l\233\302\260\313"
 200      22E6DE58 
 200      DA2A896C 
 200      9BC2B0CB 
 201 0591 9ED253CE 		.ascii	"\236\322S\316g\005\221]fW\261\336\3610F\323\\\226Y\""
 201      6705915D 
 201      6657B1DE 
 201      F13046D3 
 201      5C965922 
 202 05a5 70DA1236 		.ascii	"p\332\0226\352/\\\266Q\373\3218\232N\361\262e\372/\013"
 202      EA2F5CB6 
 202      51FBD138 
 202      9A4EF1B2 
 202      65FA2F0B 
 203 05b9 59905C   		.ascii	"Y\220\\"
 204              		.text
 205              		.section	.gnu.lto_.symtab.14f8cef872183736,"",%progbits
 206 0000 4E4D495F 		.ascii	"NMI_Handler\000\000\000\000\000\000\000\000\000\000"
 206      48616E64 
 206      6C657200 
 206      00000000 
 206      00000000 
ARM GAS  /tmp/cciotLDX.s 			page 16


 207 0015 0000A100 		.ascii	"\000\000\241\000\000\000_port_irq_epilogue\000\000\000"
 207      00005F70 
 207      6F72745F 
 207      6972715F 
 207      6570696C 
 208 0030 00000000 		.ascii	"\000\000\000\000\000\000\000\000\000\246\000\000\000"
 208      00000000 
 208      00A60000 
 208      00
 209 003d 5F706F72 		.ascii	"_port_switch_from_isr\000\000\002\000\000\000\000\000"
 209      745F7377 
 209      69746368 
 209      5F66726F 
 209      6D5F6973 
 210 005a 00000000 		.ascii	"\000\000\000\000\260\000\000\000_port_exit_from_isr"
 210      B0000000 
 210      5F706F72 
 210      745F6578 
 210      69745F66 
 211 0075 00000200 		.ascii	"\000\000\002\000\000\000\000\000\000\000\000\000\262"
 211      00000000 
 211      00000000 
 211      B2
 212 0082 00000063 		.ascii	"\000\000\000chSchIsPreemptionRequired\000\000\002\000"
 212      68536368 
 212      49735072 
 212      65656D70 
 212      74696F6E 
 213 00a2 00000000 		.ascii	"\000\000\000\000\000\000\000\000\264\000\000\000"
 213      00000000 
 213      B4000000 
 214              		.text
 215              		.section	.gnu.lto_.opts,"",%progbits
 216 0000 272D6D63 		.ascii	"'-mcpu=cortex-m0' '-mno-thumb-interwork' '-mthumb' "
 216      70753D63 
 216      6F727465 
 216      782D6D30 
 216      2720272D 
 217 0033 272D6767 		.ascii	"'-ggdb' '-O2' '-fomit-frame-pointer' '-falign-funct"
 217      64622720 
 217      272D4F32 
 217      2720272D 
 217      666F6D69 
 218 0066 696F6E73 		.ascii	"ions=16' '-ffunction-sections' '-fdata-sections' '-"
 218      3D313627 
 218      20272D66 
 218      66756E63 
 218      74696F6E 
 219 0099 666E6F2D 		.ascii	"fno-common' '-flto'\000"
 219      636F6D6D 
 219      6F6E2720 
 219      272D666C 
 219      746F2700 
 220              		.text
 221              		.cfi_sections	.debug_frame
 222              		.section	.text.NMI_Handler,"ax",%progbits
 223              		.align	2
ARM GAS  /tmp/cciotLDX.s 			page 17


 224              		.p2align 4,,15
 225              		.global	NMI_Handler
 226              		.code	16
 227              		.thumb_func
 228              		.type	NMI_Handler, %function
 229              	NMI_Handler:
 230              	.LFB69:
 231              		.file 1 "../../../os/common/ports/ARMCMx/chcore_v6m.c"
 232              		.loc 1 61 0
 233              		.cfi_startproc
 234              	.LBB33:
 235              	.LBB34:
 236              		.file 2 "../../../os/common/ext/CMSIS/include/cmsis_gcc.h"
 237              		.loc 2 152 0
 238              	@ 152 "../../../os/common/ext/CMSIS/include/cmsis_gcc.h" 1
 239 0000 EFF30983 		MRS r3, psp
 240              	
 241              	@ 0 "" 2
 242              	.LVL0:
 243              		.code	16
 244              	.LBE34:
 245              	.LBE33:
 246              		.loc 1 69 0
 247 0004 2033     		add	r3, r3, #32
 248              	.LVL1:
 249              	.LBB35:
 250              	.LBB36:
 251              		.loc 2 164 0
 252              	@ 164 "../../../os/common/ext/CMSIS/include/cmsis_gcc.h" 1
 253 0006 83F30988 		MSR psp, r3
 254              	
 255              	@ 0 "" 2
 256              		.code	16
 257              	.LBE36:
 258              	.LBE35:
 259              	.LBB37:
 260              	.LBB38:
 261              	.LBB39:
 262              	.LBB40:
 263              		.loc 2 60 0
 264              	@ 60 "../../../os/common/ext/CMSIS/include/cmsis_gcc.h" 1
 265 000a 62B6     		cpsie i
 266              	@ 0 "" 2
 267              		.code	16
 268              	.LBE40:
 269              	.LBE39:
 270              	.LBE38:
 271              	.LBE37:
 272              		.loc 1 76 0
 273              		@ sp needed
 274 000c 7047     		bx	lr
 275              		.cfi_endproc
 276              	.LFE69:
 277              		.size	NMI_Handler, .-NMI_Handler
 278 000e C046     		.section	.text._port_irq_epilogue,"ax",%progbits
 279              		.align	2
 280              		.p2align 4,,15
ARM GAS  /tmp/cciotLDX.s 			page 18


 281              		.global	_port_irq_epilogue
 282              		.code	16
 283              		.thumb_func
 284              		.type	_port_irq_epilogue, %function
 285              	_port_irq_epilogue:
 286              	.LFB70:
 287              		.loc 1 110 0
 288              		.cfi_startproc
 289              	.LVL2:
 290 0000 10B5     		push	{r4, lr}
 291              		.cfi_def_cfa_offset 8
 292              		.cfi_offset 4, -8
 293              		.cfi_offset 14, -4
 294              		.loc 1 112 0
 295 0002 0F30     		add	r0, r0, #15
 296 0004 11D0     		beq	.L2
 297              	.LVL3:
 298              	.LBB41:
 299              	.LBB42:
 300              	.LBB43:
 301              	.LBB44:
 302              	.LBB45:
 303              		.loc 2 71 0
 304              	@ 71 "../../../os/common/ext/CMSIS/include/cmsis_gcc.h" 1
 305 0006 72B6     		cpsid i
 306              	@ 0 "" 2
 307              		.code	16
 308              	.LBE45:
 309              	.LBE44:
 310              	.LBE43:
 311              	.LBE42:
 312              	.LBB46:
 313              	.LBB47:
 314              		.loc 2 152 0
 315              	@ 152 "../../../os/common/ext/CMSIS/include/cmsis_gcc.h" 1
 316 0008 EFF30983 		MRS r3, psp
 317              	
 318              	@ 0 "" 2
 319              	.LVL4:
 320              		.code	16
 321              	.LBE47:
 322              	.LBE46:
 323              		.loc 1 122 0
 324 000c 1A1C     		mov	r2, r3
 325 000e 203A     		sub	r2, r2, #32
 326              	.LVL5:
 327              	.LBB48:
 328              	.LBB49:
 329              		.loc 2 164 0
 330              	@ 164 "../../../os/common/ext/CMSIS/include/cmsis_gcc.h" 1
 331 0010 82F30988 		MSR psp, r2
 332              	
 333              	@ 0 "" 2
 334              		.code	16
 335              	.LBE49:
 336              	.LBE48:
 337              		.loc 1 128 0
ARM GAS  /tmp/cciotLDX.s 			page 19


 338 0014 1C1C     		mov	r4, r3
 339 0016 8023     		mov	r3, #128
 340              	.LVL6:
 341 0018 203C     		sub	r4, r4, #32
 342              	.LVL7:
 343 001a 5B04     		lsl	r3, r3, #17
 344 001c E361     		str	r3, [r4, #28]
 345              		.loc 1 132 0
 346 001e FFF7FEFF 		bl	chSchIsPreemptionRequired
 347              	.LVL8:
 348 0022 0028     		cmp	r0, #0
 349 0024 02D1     		bne	.L9
 350              		.loc 1 139 0
 351 0026 034B     		ldr	r3, .L10
 352 0028 A361     		str	r3, [r4, #24]
 353              	.LVL9:
 354              	.L2:
 355              	.LBE41:
 356              		.loc 1 145 0
 357              		@ sp needed
 358 002a 10BD     		pop	{r4, pc}
 359              	.LVL10:
 360              	.L9:
 361              	.LBB50:
 362              		.loc 1 134 0
 363 002c 024B     		ldr	r3, .L10+4
 364 002e A361     		str	r3, [r4, #24]
 365 0030 FBE7     		b	.L2
 366              	.L11:
 367 0032 C046     		.align	2
 368              	.L10:
 369 0034 00000000 		.word	_port_exit_from_isr
 370 0038 00000000 		.word	_port_switch_from_isr
 371              	.LBE50:
 372              		.cfi_endproc
 373              	.LFE70:
 374              		.size	_port_irq_epilogue, .-_port_irq_epilogue
 375 003c C046C046 		.text
 376              	.Letext0:
 377              		.file 3 "/usr/include/newlib/machine/_default_types.h"
 378              		.file 4 "/usr/include/newlib/stdint.h"
 379              		.file 5 "../../../os/common/ports/ARMCMx/chcore.h"
 380              		.file 6 "../../../os/common/ports/ARMCMx/chcore_v6m.h"
 381              		.file 7 "../../../os/nil/include/ch.h"
 382              		.section	.debug_info,"",%progbits
 383              	.Ldebug_info0:
 384 0000 D7020000 		.4byte	0x2d7
 385 0004 0400     		.2byte	0x4
 386 0006 00000000 		.4byte	.Ldebug_abbrev0
 387 000a 04       		.byte	0x4
 388 000b 01       		.uleb128 0x1
 389 000c E5010000 		.4byte	.LASF26
 390 0010 01       		.byte	0x1
 391 0011 EA000000 		.4byte	.LASF27
 392 0015 20000000 		.4byte	.LASF28
 393 0019 18000000 		.4byte	.Ldebug_ranges0+0x18
 394 001d 00000000 		.4byte	0
ARM GAS  /tmp/cciotLDX.s 			page 20


 395 0021 00000000 		.4byte	.Ldebug_line0
 396 0025 02       		.uleb128 0x2
 397 0026 04       		.byte	0x4
 398 0027 05       		.byte	0x5
 399 0028 696E7400 		.ascii	"int\000"
 400 002c 03       		.uleb128 0x3
 401 002d 04       		.byte	0x4
 402 002e 07       		.byte	0x7
 403 002f 4B010000 		.4byte	.LASF0
 404 0033 03       		.uleb128 0x3
 405 0034 01       		.byte	0x1
 406 0035 06       		.byte	0x6
 407 0036 88020000 		.4byte	.LASF1
 408 003a 03       		.uleb128 0x3
 409 003b 01       		.byte	0x1
 410 003c 08       		.byte	0x8
 411 003d 90000000 		.4byte	.LASF2
 412 0041 03       		.uleb128 0x3
 413 0042 02       		.byte	0x2
 414 0043 05       		.byte	0x5
 415 0044 C3010000 		.4byte	.LASF3
 416 0048 03       		.uleb128 0x3
 417 0049 02       		.byte	0x2
 418 004a 07       		.byte	0x7
 419 004b B0000000 		.4byte	.LASF4
 420 004f 03       		.uleb128 0x3
 421 0050 04       		.byte	0x4
 422 0051 05       		.byte	0x5
 423 0052 17000000 		.4byte	.LASF5
 424 0056 04       		.uleb128 0x4
 425 0057 DF000000 		.4byte	.LASF9
 426 005b 03       		.byte	0x3
 427 005c 38       		.byte	0x38
 428 005d 61000000 		.4byte	0x61
 429 0061 03       		.uleb128 0x3
 430 0062 04       		.byte	0x4
 431 0063 07       		.byte	0x7
 432 0064 9E000000 		.4byte	.LASF6
 433 0068 03       		.uleb128 0x3
 434 0069 08       		.byte	0x8
 435 006a 05       		.byte	0x5
 436 006b 00000000 		.4byte	.LASF7
 437 006f 03       		.uleb128 0x3
 438 0070 08       		.byte	0x8
 439 0071 07       		.byte	0x7
 440 0072 72010000 		.4byte	.LASF8
 441 0076 04       		.uleb128 0x4
 442 0077 D6000000 		.4byte	.LASF10
 443 007b 04       		.byte	0x4
 444 007c 42       		.byte	0x42
 445 007d 56000000 		.4byte	0x56
 446 0081 03       		.uleb128 0x3
 447 0082 04       		.byte	0x4
 448 0083 07       		.byte	0x7
 449 0084 A6010000 		.4byte	.LASF11
 450 0088 04       		.uleb128 0x4
 451 0089 0E000000 		.4byte	.LASF12
ARM GAS  /tmp/cciotLDX.s 			page 21


 452 008d 05       		.byte	0x5
 453 008e 65       		.byte	0x65
 454 008f 93000000 		.4byte	0x93
 455 0093 05       		.uleb128 0x5
 456 0094 04       		.byte	0x4
 457 0095 06       		.uleb128 0x6
 458 0096 6D000000 		.4byte	.LASF29
 459 009a 20       		.byte	0x20
 460 009b 06       		.byte	0x6
 461 009c B8       		.byte	0xb8
 462 009d FD000000 		.4byte	0xfd
 463 00a1 07       		.uleb128 0x7
 464 00a2 723000   		.ascii	"r0\000"
 465 00a5 06       		.byte	0x6
 466 00a6 B9       		.byte	0xb9
 467 00a7 88000000 		.4byte	0x88
 468 00ab 00       		.byte	0
 469 00ac 07       		.uleb128 0x7
 470 00ad 723100   		.ascii	"r1\000"
 471 00b0 06       		.byte	0x6
 472 00b1 BA       		.byte	0xba
 473 00b2 88000000 		.4byte	0x88
 474 00b6 04       		.byte	0x4
 475 00b7 07       		.uleb128 0x7
 476 00b8 723200   		.ascii	"r2\000"
 477 00bb 06       		.byte	0x6
 478 00bc BB       		.byte	0xbb
 479 00bd 88000000 		.4byte	0x88
 480 00c1 08       		.byte	0x8
 481 00c2 07       		.uleb128 0x7
 482 00c3 723300   		.ascii	"r3\000"
 483 00c6 06       		.byte	0x6
 484 00c7 BC       		.byte	0xbc
 485 00c8 88000000 		.4byte	0x88
 486 00cc 0C       		.byte	0xc
 487 00cd 07       		.uleb128 0x7
 488 00ce 72313200 		.ascii	"r12\000"
 489 00d2 06       		.byte	0x6
 490 00d3 BD       		.byte	0xbd
 491 00d4 88000000 		.4byte	0x88
 492 00d8 10       		.byte	0x10
 493 00d9 08       		.uleb128 0x8
 494 00da 2C010000 		.4byte	.LASF13
 495 00de 06       		.byte	0x6
 496 00df BE       		.byte	0xbe
 497 00e0 88000000 		.4byte	0x88
 498 00e4 14       		.byte	0x14
 499 00e5 07       		.uleb128 0x7
 500 00e6 706300   		.ascii	"pc\000"
 501 00e9 06       		.byte	0x6
 502 00ea BF       		.byte	0xbf
 503 00eb 88000000 		.4byte	0x88
 504 00ef 18       		.byte	0x18
 505 00f0 08       		.uleb128 0x8
 506 00f1 5C000000 		.4byte	.LASF14
 507 00f5 06       		.byte	0x6
 508 00f6 C0       		.byte	0xc0
ARM GAS  /tmp/cciotLDX.s 			page 22


 509 00f7 88000000 		.4byte	0x88
 510 00fb 1C       		.byte	0x1c
 511 00fc 00       		.byte	0
 512 00fd 03       		.uleb128 0x3
 513 00fe 01       		.byte	0x1
 514 00ff 08       		.byte	0x8
 515 0100 BE010000 		.4byte	.LASF15
 516 0104 09       		.uleb128 0x9
 517 0105 33010000 		.4byte	.LASF16
 518 0109 02       		.byte	0x2
 519 010a 45       		.byte	0x45
 520 010b 03       		.byte	0x3
 521 010c 09       		.uleb128 0x9
 522 010d 83000000 		.4byte	.LASF17
 523 0111 02       		.byte	0x2
 524 0112 3A       		.byte	0x3a
 525 0113 03       		.byte	0x3
 526 0114 0A       		.uleb128 0xa
 527 0115 41010000 		.4byte	.LASF18
 528 0119 06       		.byte	0x6
 529 011a 7301     		.2byte	0x173
 530 011c 03       		.byte	0x3
 531 011d 0A       		.uleb128 0xa
 532 011e 61000000 		.4byte	.LASF19
 533 0122 06       		.byte	0x6
 534 0123 7C01     		.2byte	0x17c
 535 0125 03       		.byte	0x3
 536 0126 0B       		.uleb128 0xb
 537 0127 9C010000 		.4byte	.LASF30
 538 012b 02       		.byte	0x2
 539 012c 94       		.byte	0x94
 540 012d 76000000 		.4byte	0x76
 541 0131 03       		.byte	0x3
 542 0132 42010000 		.4byte	0x142
 543 0136 0C       		.uleb128 0xc
 544 0137 95010000 		.4byte	.LASF31
 545 013b 02       		.byte	0x2
 546 013c 96       		.byte	0x96
 547 013d 76000000 		.4byte	0x76
 548 0141 00       		.byte	0
 549 0142 0D       		.uleb128 0xd
 550 0143 79000000 		.4byte	.LASF32
 551 0147 02       		.byte	0x2
 552 0148 A2       		.byte	0xa2
 553 0149 03       		.byte	0x3
 554 014a 5A010000 		.4byte	0x15a
 555 014e 0E       		.uleb128 0xe
 556 014f AF010000 		.4byte	.LASF33
 557 0153 02       		.byte	0x2
 558 0154 A2       		.byte	0xa2
 559 0155 76000000 		.4byte	0x76
 560 0159 00       		.byte	0
 561 015a 0A       		.uleb128 0xa
 562 015b 17010000 		.4byte	.LASF20
 563 015f 06       		.byte	0x6
 564 0160 9001     		.2byte	0x190
 565 0162 03       		.byte	0x3
ARM GAS  /tmp/cciotLDX.s 			page 23


 566 0163 0A       		.uleb128 0xa
 567 0164 CD010000 		.4byte	.LASF21
 568 0168 06       		.byte	0x6
 569 0169 8601     		.2byte	0x186
 570 016b 03       		.byte	0x3
 571 016c 0F       		.uleb128 0xf
 572 016d 89010000 		.4byte	.LASF22
 573 0171 01       		.byte	0x1
 574 0172 3D       		.byte	0x3d
 575 0173 00000000 		.4byte	.LFB69
 576 0177 0E000000 		.4byte	.LFE69-.LFB69
 577 017b 01       		.uleb128 0x1
 578 017c 9C       		.byte	0x9c
 579 017d 06020000 		.4byte	0x206
 580 0181 10       		.uleb128 0x10
 581 0182 E0010000 		.4byte	.LASF24
 582 0186 01       		.byte	0x1
 583 0187 41       		.byte	0x41
 584 0188 06020000 		.4byte	0x206
 585 018c 00000000 		.4byte	.LLST0
 586 0190 11       		.uleb128 0x11
 587 0191 26010000 		.4byte	0x126
 588 0195 00000000 		.4byte	.LBB33
 589 0199 04000000 		.4byte	.LBE33-.LBB33
 590 019d 01       		.byte	0x1
 591 019e 41       		.byte	0x41
 592 019f B7010000 		.4byte	0x1b7
 593 01a3 12       		.uleb128 0x12
 594 01a4 00000000 		.4byte	.LBB34
 595 01a8 04000000 		.4byte	.LBE34-.LBB34
 596 01ac 13       		.uleb128 0x13
 597 01ad 36010000 		.4byte	0x136
 598 01b1 20000000 		.4byte	.LLST1
 599 01b5 00       		.byte	0
 600 01b6 00       		.byte	0
 601 01b7 11       		.uleb128 0x11
 602 01b8 42010000 		.4byte	0x142
 603 01bc 06000000 		.4byte	.LBB35
 604 01c0 04000000 		.4byte	.LBE35-.LBB35
 605 01c4 01       		.byte	0x1
 606 01c5 48       		.byte	0x48
 607 01c6 D4010000 		.4byte	0x1d4
 608 01ca 14       		.uleb128 0x14
 609 01cb 4E010000 		.4byte	0x14e
 610 01cf 00000000 		.4byte	.LLST0
 611 01d3 00       		.byte	0
 612 01d4 15       		.uleb128 0x15
 613 01d5 5A010000 		.4byte	0x15a
 614 01d9 0A000000 		.4byte	.LBB37
 615 01dd 02000000 		.4byte	.LBE37-.LBB37
 616 01e1 01       		.byte	0x1
 617 01e2 4B       		.byte	0x4b
 618 01e3 16       		.uleb128 0x16
 619 01e4 1D010000 		.4byte	0x11d
 620 01e8 0A000000 		.4byte	.LBB38
 621 01ec 02000000 		.4byte	.LBE38-.LBB38
 622 01f0 06       		.byte	0x6
ARM GAS  /tmp/cciotLDX.s 			page 24


 623 01f1 9201     		.2byte	0x192
 624 01f3 17       		.uleb128 0x17
 625 01f4 0C010000 		.4byte	0x10c
 626 01f8 0A000000 		.4byte	.LBB39
 627 01fc 02000000 		.4byte	.LBE39-.LBB39
 628 0200 06       		.byte	0x6
 629 0201 7E01     		.2byte	0x17e
 630 0203 00       		.byte	0
 631 0204 00       		.byte	0
 632 0205 00       		.byte	0
 633 0206 18       		.uleb128 0x18
 634 0207 04       		.byte	0x4
 635 0208 95000000 		.4byte	0x95
 636 020c 0F       		.uleb128 0xf
 637 020d C3000000 		.4byte	.LASF23
 638 0211 01       		.byte	0x1
 639 0212 6E       		.byte	0x6e
 640 0213 00000000 		.4byte	.LFB70
 641 0217 3C000000 		.4byte	.LFE70-.LFB70
 642 021b 01       		.uleb128 0x1
 643 021c 9C       		.byte	0x9c
 644 021d C7020000 		.4byte	0x2c7
 645 0221 19       		.uleb128 0x19
 646 0222 6C7200   		.ascii	"lr\000"
 647 0225 01       		.byte	0x1
 648 0226 6E       		.byte	0x6e
 649 0227 88000000 		.4byte	0x88
 650 022b 40000000 		.4byte	.LLST3
 651 022f 1A       		.uleb128 0x1a
 652 0230 00000000 		.4byte	.Ldebug_ranges0+0
 653 0234 10       		.uleb128 0x10
 654 0235 E0010000 		.4byte	.LASF24
 655 0239 01       		.byte	0x1
 656 023a 71       		.byte	0x71
 657 023b 06020000 		.4byte	0x206
 658 023f 53000000 		.4byte	.LLST4
 659 0243 11       		.uleb128 0x11
 660 0244 63010000 		.4byte	0x163
 661 0248 06000000 		.4byte	.LBB42
 662 024c 02000000 		.4byte	.LBE42-.LBB42
 663 0250 01       		.byte	0x1
 664 0251 73       		.byte	0x73
 665 0252 78020000 		.4byte	0x278
 666 0256 16       		.uleb128 0x16
 667 0257 14010000 		.4byte	0x114
 668 025b 06000000 		.4byte	.LBB43
 669 025f 02000000 		.4byte	.LBE43-.LBB43
 670 0263 06       		.byte	0x6
 671 0264 8801     		.2byte	0x188
 672 0266 17       		.uleb128 0x17
 673 0267 04010000 		.4byte	0x104
 674 026b 06000000 		.4byte	.LBB44
 675 026f 02000000 		.4byte	.LBE44-.LBB44
 676 0273 06       		.byte	0x6
 677 0274 7501     		.2byte	0x175
 678 0276 00       		.byte	0
 679 0277 00       		.byte	0
ARM GAS  /tmp/cciotLDX.s 			page 25


 680 0278 11       		.uleb128 0x11
 681 0279 26010000 		.4byte	0x126
 682 027d 08000000 		.4byte	.LBB46
 683 0281 04000000 		.4byte	.LBE46-.LBB46
 684 0285 01       		.byte	0x1
 685 0286 76       		.byte	0x76
 686 0287 9F020000 		.4byte	0x29f
 687 028b 12       		.uleb128 0x12
 688 028c 08000000 		.4byte	.LBB47
 689 0290 04000000 		.4byte	.LBE47-.LBB47
 690 0294 13       		.uleb128 0x13
 691 0295 36010000 		.4byte	0x136
 692 0299 89000000 		.4byte	.LLST5
 693 029d 00       		.byte	0
 694 029e 00       		.byte	0
 695 029f 11       		.uleb128 0x11
 696 02a0 42010000 		.4byte	0x142
 697 02a4 10000000 		.4byte	.LBB48
 698 02a8 04000000 		.4byte	.LBE48-.LBB48
 699 02ac 01       		.byte	0x1
 700 02ad 7D       		.byte	0x7d
 701 02ae BC020000 		.4byte	0x2bc
 702 02b2 14       		.uleb128 0x14
 703 02b3 4E010000 		.4byte	0x14e
 704 02b7 53000000 		.4byte	.LLST4
 705 02bb 00       		.byte	0
 706 02bc 1B       		.uleb128 0x1b
 707 02bd 22000000 		.4byte	.LVL8
 708 02c1 C7020000 		.4byte	0x2c7
 709 02c5 00       		.byte	0
 710 02c6 00       		.byte	0
 711 02c7 1C       		.uleb128 0x1c
 712 02c8 58010000 		.4byte	.LASF34
 713 02cc 07       		.byte	0x7
 714 02cd 3805     		.2byte	0x538
 715 02cf D3020000 		.4byte	0x2d3
 716 02d3 03       		.uleb128 0x3
 717 02d4 01       		.byte	0x1
 718 02d5 02       		.byte	0x2
 719 02d6 94020000 		.4byte	.LASF25
 720 02da 00       		.byte	0
 721              		.section	.debug_abbrev,"",%progbits
 722              	.Ldebug_abbrev0:
 723 0000 01       		.uleb128 0x1
 724 0001 11       		.uleb128 0x11
 725 0002 01       		.byte	0x1
 726 0003 25       		.uleb128 0x25
 727 0004 0E       		.uleb128 0xe
 728 0005 13       		.uleb128 0x13
 729 0006 0B       		.uleb128 0xb
 730 0007 03       		.uleb128 0x3
 731 0008 0E       		.uleb128 0xe
 732 0009 1B       		.uleb128 0x1b
 733 000a 0E       		.uleb128 0xe
 734 000b 55       		.uleb128 0x55
 735 000c 17       		.uleb128 0x17
 736 000d 11       		.uleb128 0x11
ARM GAS  /tmp/cciotLDX.s 			page 26


 737 000e 01       		.uleb128 0x1
 738 000f 10       		.uleb128 0x10
 739 0010 17       		.uleb128 0x17
 740 0011 00       		.byte	0
 741 0012 00       		.byte	0
 742 0013 02       		.uleb128 0x2
 743 0014 24       		.uleb128 0x24
 744 0015 00       		.byte	0
 745 0016 0B       		.uleb128 0xb
 746 0017 0B       		.uleb128 0xb
 747 0018 3E       		.uleb128 0x3e
 748 0019 0B       		.uleb128 0xb
 749 001a 03       		.uleb128 0x3
 750 001b 08       		.uleb128 0x8
 751 001c 00       		.byte	0
 752 001d 00       		.byte	0
 753 001e 03       		.uleb128 0x3
 754 001f 24       		.uleb128 0x24
 755 0020 00       		.byte	0
 756 0021 0B       		.uleb128 0xb
 757 0022 0B       		.uleb128 0xb
 758 0023 3E       		.uleb128 0x3e
 759 0024 0B       		.uleb128 0xb
 760 0025 03       		.uleb128 0x3
 761 0026 0E       		.uleb128 0xe
 762 0027 00       		.byte	0
 763 0028 00       		.byte	0
 764 0029 04       		.uleb128 0x4
 765 002a 16       		.uleb128 0x16
 766 002b 00       		.byte	0
 767 002c 03       		.uleb128 0x3
 768 002d 0E       		.uleb128 0xe
 769 002e 3A       		.uleb128 0x3a
 770 002f 0B       		.uleb128 0xb
 771 0030 3B       		.uleb128 0x3b
 772 0031 0B       		.uleb128 0xb
 773 0032 49       		.uleb128 0x49
 774 0033 13       		.uleb128 0x13
 775 0034 00       		.byte	0
 776 0035 00       		.byte	0
 777 0036 05       		.uleb128 0x5
 778 0037 0F       		.uleb128 0xf
 779 0038 00       		.byte	0
 780 0039 0B       		.uleb128 0xb
 781 003a 0B       		.uleb128 0xb
 782 003b 00       		.byte	0
 783 003c 00       		.byte	0
 784 003d 06       		.uleb128 0x6
 785 003e 13       		.uleb128 0x13
 786 003f 01       		.byte	0x1
 787 0040 03       		.uleb128 0x3
 788 0041 0E       		.uleb128 0xe
 789 0042 0B       		.uleb128 0xb
 790 0043 0B       		.uleb128 0xb
 791 0044 3A       		.uleb128 0x3a
 792 0045 0B       		.uleb128 0xb
 793 0046 3B       		.uleb128 0x3b
ARM GAS  /tmp/cciotLDX.s 			page 27


 794 0047 0B       		.uleb128 0xb
 795 0048 01       		.uleb128 0x1
 796 0049 13       		.uleb128 0x13
 797 004a 00       		.byte	0
 798 004b 00       		.byte	0
 799 004c 07       		.uleb128 0x7
 800 004d 0D       		.uleb128 0xd
 801 004e 00       		.byte	0
 802 004f 03       		.uleb128 0x3
 803 0050 08       		.uleb128 0x8
 804 0051 3A       		.uleb128 0x3a
 805 0052 0B       		.uleb128 0xb
 806 0053 3B       		.uleb128 0x3b
 807 0054 0B       		.uleb128 0xb
 808 0055 49       		.uleb128 0x49
 809 0056 13       		.uleb128 0x13
 810 0057 38       		.uleb128 0x38
 811 0058 0B       		.uleb128 0xb
 812 0059 00       		.byte	0
 813 005a 00       		.byte	0
 814 005b 08       		.uleb128 0x8
 815 005c 0D       		.uleb128 0xd
 816 005d 00       		.byte	0
 817 005e 03       		.uleb128 0x3
 818 005f 0E       		.uleb128 0xe
 819 0060 3A       		.uleb128 0x3a
 820 0061 0B       		.uleb128 0xb
 821 0062 3B       		.uleb128 0x3b
 822 0063 0B       		.uleb128 0xb
 823 0064 49       		.uleb128 0x49
 824 0065 13       		.uleb128 0x13
 825 0066 38       		.uleb128 0x38
 826 0067 0B       		.uleb128 0xb
 827 0068 00       		.byte	0
 828 0069 00       		.byte	0
 829 006a 09       		.uleb128 0x9
 830 006b 2E       		.uleb128 0x2e
 831 006c 00       		.byte	0
 832 006d 03       		.uleb128 0x3
 833 006e 0E       		.uleb128 0xe
 834 006f 3A       		.uleb128 0x3a
 835 0070 0B       		.uleb128 0xb
 836 0071 3B       		.uleb128 0x3b
 837 0072 0B       		.uleb128 0xb
 838 0073 27       		.uleb128 0x27
 839 0074 19       		.uleb128 0x19
 840 0075 20       		.uleb128 0x20
 841 0076 0B       		.uleb128 0xb
 842 0077 00       		.byte	0
 843 0078 00       		.byte	0
 844 0079 0A       		.uleb128 0xa
 845 007a 2E       		.uleb128 0x2e
 846 007b 00       		.byte	0
 847 007c 03       		.uleb128 0x3
 848 007d 0E       		.uleb128 0xe
 849 007e 3A       		.uleb128 0x3a
 850 007f 0B       		.uleb128 0xb
ARM GAS  /tmp/cciotLDX.s 			page 28


 851 0080 3B       		.uleb128 0x3b
 852 0081 05       		.uleb128 0x5
 853 0082 27       		.uleb128 0x27
 854 0083 19       		.uleb128 0x19
 855 0084 20       		.uleb128 0x20
 856 0085 0B       		.uleb128 0xb
 857 0086 00       		.byte	0
 858 0087 00       		.byte	0
 859 0088 0B       		.uleb128 0xb
 860 0089 2E       		.uleb128 0x2e
 861 008a 01       		.byte	0x1
 862 008b 03       		.uleb128 0x3
 863 008c 0E       		.uleb128 0xe
 864 008d 3A       		.uleb128 0x3a
 865 008e 0B       		.uleb128 0xb
 866 008f 3B       		.uleb128 0x3b
 867 0090 0B       		.uleb128 0xb
 868 0091 27       		.uleb128 0x27
 869 0092 19       		.uleb128 0x19
 870 0093 49       		.uleb128 0x49
 871 0094 13       		.uleb128 0x13
 872 0095 20       		.uleb128 0x20
 873 0096 0B       		.uleb128 0xb
 874 0097 01       		.uleb128 0x1
 875 0098 13       		.uleb128 0x13
 876 0099 00       		.byte	0
 877 009a 00       		.byte	0
 878 009b 0C       		.uleb128 0xc
 879 009c 34       		.uleb128 0x34
 880 009d 00       		.byte	0
 881 009e 03       		.uleb128 0x3
 882 009f 0E       		.uleb128 0xe
 883 00a0 3A       		.uleb128 0x3a
 884 00a1 0B       		.uleb128 0xb
 885 00a2 3B       		.uleb128 0x3b
 886 00a3 0B       		.uleb128 0xb
 887 00a4 49       		.uleb128 0x49
 888 00a5 13       		.uleb128 0x13
 889 00a6 00       		.byte	0
 890 00a7 00       		.byte	0
 891 00a8 0D       		.uleb128 0xd
 892 00a9 2E       		.uleb128 0x2e
 893 00aa 01       		.byte	0x1
 894 00ab 03       		.uleb128 0x3
 895 00ac 0E       		.uleb128 0xe
 896 00ad 3A       		.uleb128 0x3a
 897 00ae 0B       		.uleb128 0xb
 898 00af 3B       		.uleb128 0x3b
 899 00b0 0B       		.uleb128 0xb
 900 00b1 27       		.uleb128 0x27
 901 00b2 19       		.uleb128 0x19
 902 00b3 20       		.uleb128 0x20
 903 00b4 0B       		.uleb128 0xb
 904 00b5 01       		.uleb128 0x1
 905 00b6 13       		.uleb128 0x13
 906 00b7 00       		.byte	0
 907 00b8 00       		.byte	0
ARM GAS  /tmp/cciotLDX.s 			page 29


 908 00b9 0E       		.uleb128 0xe
 909 00ba 05       		.uleb128 0x5
 910 00bb 00       		.byte	0
 911 00bc 03       		.uleb128 0x3
 912 00bd 0E       		.uleb128 0xe
 913 00be 3A       		.uleb128 0x3a
 914 00bf 0B       		.uleb128 0xb
 915 00c0 3B       		.uleb128 0x3b
 916 00c1 0B       		.uleb128 0xb
 917 00c2 49       		.uleb128 0x49
 918 00c3 13       		.uleb128 0x13
 919 00c4 00       		.byte	0
 920 00c5 00       		.byte	0
 921 00c6 0F       		.uleb128 0xf
 922 00c7 2E       		.uleb128 0x2e
 923 00c8 01       		.byte	0x1
 924 00c9 3F       		.uleb128 0x3f
 925 00ca 19       		.uleb128 0x19
 926 00cb 03       		.uleb128 0x3
 927 00cc 0E       		.uleb128 0xe
 928 00cd 3A       		.uleb128 0x3a
 929 00ce 0B       		.uleb128 0xb
 930 00cf 3B       		.uleb128 0x3b
 931 00d0 0B       		.uleb128 0xb
 932 00d1 27       		.uleb128 0x27
 933 00d2 19       		.uleb128 0x19
 934 00d3 11       		.uleb128 0x11
 935 00d4 01       		.uleb128 0x1
 936 00d5 12       		.uleb128 0x12
 937 00d6 06       		.uleb128 0x6
 938 00d7 40       		.uleb128 0x40
 939 00d8 18       		.uleb128 0x18
 940 00d9 9742     		.uleb128 0x2117
 941 00db 19       		.uleb128 0x19
 942 00dc 01       		.uleb128 0x1
 943 00dd 13       		.uleb128 0x13
 944 00de 00       		.byte	0
 945 00df 00       		.byte	0
 946 00e0 10       		.uleb128 0x10
 947 00e1 34       		.uleb128 0x34
 948 00e2 00       		.byte	0
 949 00e3 03       		.uleb128 0x3
 950 00e4 0E       		.uleb128 0xe
 951 00e5 3A       		.uleb128 0x3a
 952 00e6 0B       		.uleb128 0xb
 953 00e7 3B       		.uleb128 0x3b
 954 00e8 0B       		.uleb128 0xb
 955 00e9 49       		.uleb128 0x49
 956 00ea 13       		.uleb128 0x13
 957 00eb 02       		.uleb128 0x2
 958 00ec 17       		.uleb128 0x17
 959 00ed 00       		.byte	0
 960 00ee 00       		.byte	0
 961 00ef 11       		.uleb128 0x11
 962 00f0 1D       		.uleb128 0x1d
 963 00f1 01       		.byte	0x1
 964 00f2 31       		.uleb128 0x31
ARM GAS  /tmp/cciotLDX.s 			page 30


 965 00f3 13       		.uleb128 0x13
 966 00f4 11       		.uleb128 0x11
 967 00f5 01       		.uleb128 0x1
 968 00f6 12       		.uleb128 0x12
 969 00f7 06       		.uleb128 0x6
 970 00f8 58       		.uleb128 0x58
 971 00f9 0B       		.uleb128 0xb
 972 00fa 59       		.uleb128 0x59
 973 00fb 0B       		.uleb128 0xb
 974 00fc 01       		.uleb128 0x1
 975 00fd 13       		.uleb128 0x13
 976 00fe 00       		.byte	0
 977 00ff 00       		.byte	0
 978 0100 12       		.uleb128 0x12
 979 0101 0B       		.uleb128 0xb
 980 0102 01       		.byte	0x1
 981 0103 11       		.uleb128 0x11
 982 0104 01       		.uleb128 0x1
 983 0105 12       		.uleb128 0x12
 984 0106 06       		.uleb128 0x6
 985 0107 00       		.byte	0
 986 0108 00       		.byte	0
 987 0109 13       		.uleb128 0x13
 988 010a 34       		.uleb128 0x34
 989 010b 00       		.byte	0
 990 010c 31       		.uleb128 0x31
 991 010d 13       		.uleb128 0x13
 992 010e 02       		.uleb128 0x2
 993 010f 17       		.uleb128 0x17
 994 0110 00       		.byte	0
 995 0111 00       		.byte	0
 996 0112 14       		.uleb128 0x14
 997 0113 05       		.uleb128 0x5
 998 0114 00       		.byte	0
 999 0115 31       		.uleb128 0x31
 1000 0116 13       		.uleb128 0x13
 1001 0117 02       		.uleb128 0x2
 1002 0118 17       		.uleb128 0x17
 1003 0119 00       		.byte	0
 1004 011a 00       		.byte	0
 1005 011b 15       		.uleb128 0x15
 1006 011c 1D       		.uleb128 0x1d
 1007 011d 01       		.byte	0x1
 1008 011e 31       		.uleb128 0x31
 1009 011f 13       		.uleb128 0x13
 1010 0120 11       		.uleb128 0x11
 1011 0121 01       		.uleb128 0x1
 1012 0122 12       		.uleb128 0x12
 1013 0123 06       		.uleb128 0x6
 1014 0124 58       		.uleb128 0x58
 1015 0125 0B       		.uleb128 0xb
 1016 0126 59       		.uleb128 0x59
 1017 0127 0B       		.uleb128 0xb
 1018 0128 00       		.byte	0
 1019 0129 00       		.byte	0
 1020 012a 16       		.uleb128 0x16
 1021 012b 1D       		.uleb128 0x1d
ARM GAS  /tmp/cciotLDX.s 			page 31


 1022 012c 01       		.byte	0x1
 1023 012d 31       		.uleb128 0x31
 1024 012e 13       		.uleb128 0x13
 1025 012f 11       		.uleb128 0x11
 1026 0130 01       		.uleb128 0x1
 1027 0131 12       		.uleb128 0x12
 1028 0132 06       		.uleb128 0x6
 1029 0133 58       		.uleb128 0x58
 1030 0134 0B       		.uleb128 0xb
 1031 0135 59       		.uleb128 0x59
 1032 0136 05       		.uleb128 0x5
 1033 0137 00       		.byte	0
 1034 0138 00       		.byte	0
 1035 0139 17       		.uleb128 0x17
 1036 013a 1D       		.uleb128 0x1d
 1037 013b 00       		.byte	0
 1038 013c 31       		.uleb128 0x31
 1039 013d 13       		.uleb128 0x13
 1040 013e 11       		.uleb128 0x11
 1041 013f 01       		.uleb128 0x1
 1042 0140 12       		.uleb128 0x12
 1043 0141 06       		.uleb128 0x6
 1044 0142 58       		.uleb128 0x58
 1045 0143 0B       		.uleb128 0xb
 1046 0144 59       		.uleb128 0x59
 1047 0145 05       		.uleb128 0x5
 1048 0146 00       		.byte	0
 1049 0147 00       		.byte	0
 1050 0148 18       		.uleb128 0x18
 1051 0149 0F       		.uleb128 0xf
 1052 014a 00       		.byte	0
 1053 014b 0B       		.uleb128 0xb
 1054 014c 0B       		.uleb128 0xb
 1055 014d 49       		.uleb128 0x49
 1056 014e 13       		.uleb128 0x13
 1057 014f 00       		.byte	0
 1058 0150 00       		.byte	0
 1059 0151 19       		.uleb128 0x19
 1060 0152 05       		.uleb128 0x5
 1061 0153 00       		.byte	0
 1062 0154 03       		.uleb128 0x3
 1063 0155 08       		.uleb128 0x8
 1064 0156 3A       		.uleb128 0x3a
 1065 0157 0B       		.uleb128 0xb
 1066 0158 3B       		.uleb128 0x3b
 1067 0159 0B       		.uleb128 0xb
 1068 015a 49       		.uleb128 0x49
 1069 015b 13       		.uleb128 0x13
 1070 015c 02       		.uleb128 0x2
 1071 015d 17       		.uleb128 0x17
 1072 015e 00       		.byte	0
 1073 015f 00       		.byte	0
 1074 0160 1A       		.uleb128 0x1a
 1075 0161 0B       		.uleb128 0xb
 1076 0162 01       		.byte	0x1
 1077 0163 55       		.uleb128 0x55
 1078 0164 17       		.uleb128 0x17
ARM GAS  /tmp/cciotLDX.s 			page 32


 1079 0165 00       		.byte	0
 1080 0166 00       		.byte	0
 1081 0167 1B       		.uleb128 0x1b
 1082 0168 898201   		.uleb128 0x4109
 1083 016b 00       		.byte	0
 1084 016c 11       		.uleb128 0x11
 1085 016d 01       		.uleb128 0x1
 1086 016e 31       		.uleb128 0x31
 1087 016f 13       		.uleb128 0x13
 1088 0170 00       		.byte	0
 1089 0171 00       		.byte	0
 1090 0172 1C       		.uleb128 0x1c
 1091 0173 2E       		.uleb128 0x2e
 1092 0174 00       		.byte	0
 1093 0175 3F       		.uleb128 0x3f
 1094 0176 19       		.uleb128 0x19
 1095 0177 03       		.uleb128 0x3
 1096 0178 0E       		.uleb128 0xe
 1097 0179 3A       		.uleb128 0x3a
 1098 017a 0B       		.uleb128 0xb
 1099 017b 3B       		.uleb128 0x3b
 1100 017c 05       		.uleb128 0x5
 1101 017d 27       		.uleb128 0x27
 1102 017e 19       		.uleb128 0x19
 1103 017f 49       		.uleb128 0x49
 1104 0180 13       		.uleb128 0x13
 1105 0181 3C       		.uleb128 0x3c
 1106 0182 19       		.uleb128 0x19
 1107 0183 00       		.byte	0
 1108 0184 00       		.byte	0
 1109 0185 00       		.byte	0
 1110              		.section	.debug_loc,"",%progbits
 1111              	.Ldebug_loc0:
 1112              	.LLST0:
 1113 0000 04000000 		.4byte	.LVL0
 1114 0004 06000000 		.4byte	.LVL1
 1115 0008 0300     		.2byte	0x3
 1116 000a 73       		.byte	0x73
 1117 000b 20       		.sleb128 32
 1118 000c 9F       		.byte	0x9f
 1119 000d 06000000 		.4byte	.LVL1
 1120 0011 0E000000 		.4byte	.LFE69
 1121 0015 0100     		.2byte	0x1
 1122 0017 53       		.byte	0x53
 1123 0018 00000000 		.4byte	0
 1124 001c 00000000 		.4byte	0
 1125              	.LLST1:
 1126 0020 04000000 		.4byte	.LVL0
 1127 0024 06000000 		.4byte	.LVL1
 1128 0028 0100     		.2byte	0x1
 1129 002a 53       		.byte	0x53
 1130 002b 06000000 		.4byte	.LVL1
 1131 002f 0E000000 		.4byte	.LFE69
 1132 0033 0300     		.2byte	0x3
 1133 0035 73       		.byte	0x73
 1134 0036 60       		.sleb128 -32
 1135 0037 9F       		.byte	0x9f
ARM GAS  /tmp/cciotLDX.s 			page 33


 1136 0038 00000000 		.4byte	0
 1137 003c 00000000 		.4byte	0
 1138              	.LLST3:
 1139 0040 00000000 		.4byte	.LVL2
 1140 0044 06000000 		.4byte	.LVL3
 1141 0048 0100     		.2byte	0x1
 1142 004a 50       		.byte	0x50
 1143 004b 00000000 		.4byte	0
 1144 004f 00000000 		.4byte	0
 1145              	.LLST4:
 1146 0053 0C000000 		.4byte	.LVL4
 1147 0057 10000000 		.4byte	.LVL5
 1148 005b 0300     		.2byte	0x3
 1149 005d 73       		.byte	0x73
 1150 005e 60       		.sleb128 -32
 1151 005f 9F       		.byte	0x9f
 1152 0060 10000000 		.4byte	.LVL5
 1153 0064 21000000 		.4byte	.LVL8-1
 1154 0068 0100     		.2byte	0x1
 1155 006a 52       		.byte	0x52
 1156 006b 21000000 		.4byte	.LVL8-1
 1157 006f 2A000000 		.4byte	.LVL9
 1158 0073 0100     		.2byte	0x1
 1159 0075 54       		.byte	0x54
 1160 0076 2C000000 		.4byte	.LVL10
 1161 007a 3C000000 		.4byte	.LFE70
 1162 007e 0100     		.2byte	0x1
 1163 0080 54       		.byte	0x54
 1164 0081 00000000 		.4byte	0
 1165 0085 00000000 		.4byte	0
 1166              	.LLST5:
 1167 0089 0C000000 		.4byte	.LVL4
 1168 008d 18000000 		.4byte	.LVL6
 1169 0091 0100     		.2byte	0x1
 1170 0093 53       		.byte	0x53
 1171 0094 18000000 		.4byte	.LVL6
 1172 0098 1A000000 		.4byte	.LVL7
 1173 009c 0100     		.2byte	0x1
 1174 009e 54       		.byte	0x54
 1175 009f 1A000000 		.4byte	.LVL7
 1176 00a3 21000000 		.4byte	.LVL8-1
 1177 00a7 0300     		.2byte	0x3
 1178 00a9 72       		.byte	0x72
 1179 00aa 20       		.sleb128 32
 1180 00ab 9F       		.byte	0x9f
 1181 00ac 21000000 		.4byte	.LVL8-1
 1182 00b0 2A000000 		.4byte	.LVL9
 1183 00b4 0300     		.2byte	0x3
 1184 00b6 74       		.byte	0x74
 1185 00b7 20       		.sleb128 32
 1186 00b8 9F       		.byte	0x9f
 1187 00b9 2C000000 		.4byte	.LVL10
 1188 00bd 3C000000 		.4byte	.LFE70
 1189 00c1 0300     		.2byte	0x3
 1190 00c3 74       		.byte	0x74
 1191 00c4 20       		.sleb128 32
 1192 00c5 9F       		.byte	0x9f
ARM GAS  /tmp/cciotLDX.s 			page 34


 1193 00c6 00000000 		.4byte	0
 1194 00ca 00000000 		.4byte	0
 1195              		.section	.debug_aranges,"",%progbits
 1196 0000 24000000 		.4byte	0x24
 1197 0004 0200     		.2byte	0x2
 1198 0006 00000000 		.4byte	.Ldebug_info0
 1199 000a 04       		.byte	0x4
 1200 000b 00       		.byte	0
 1201 000c 0000     		.2byte	0
 1202 000e 0000     		.2byte	0
 1203 0010 00000000 		.4byte	.LFB69
 1204 0014 0E000000 		.4byte	.LFE69-.LFB69
 1205 0018 00000000 		.4byte	.LFB70
 1206 001c 3C000000 		.4byte	.LFE70-.LFB70
 1207 0020 00000000 		.4byte	0
 1208 0024 00000000 		.4byte	0
 1209              		.section	.debug_ranges,"",%progbits
 1210              	.Ldebug_ranges0:
 1211 0000 06000000 		.4byte	.LBB41
 1212 0004 2A000000 		.4byte	.LBE41
 1213 0008 2C000000 		.4byte	.LBB50
 1214 000c 3C000000 		.4byte	.LBE50
 1215 0010 00000000 		.4byte	0
 1216 0014 00000000 		.4byte	0
 1217 0018 00000000 		.4byte	.LFB69
 1218 001c 0E000000 		.4byte	.LFE69
 1219 0020 00000000 		.4byte	.LFB70
 1220 0024 3C000000 		.4byte	.LFE70
 1221 0028 00000000 		.4byte	0
 1222 002c 00000000 		.4byte	0
 1223              		.section	.debug_line,"",%progbits
 1224              	.Ldebug_line0:
 1225 0000 62010000 		.section	.debug_str,"MS",%progbits,1
 1225      02000301 
 1225      00000201 
 1225      FB0E0D00 
 1225      01010101 
 1226              	.LASF7:
 1227 0000 6C6F6E67 		.ascii	"long long int\000"
 1227      206C6F6E 
 1227      6720696E 
 1227      7400
 1228              	.LASF12:
 1229 000e 72656761 		.ascii	"regarm_t\000"
 1229      726D5F74 
 1229      00
 1230              	.LASF5:
 1231 0017 6C6F6E67 		.ascii	"long int\000"
 1231      20696E74 
 1231      00
 1232              	.LASF28:
 1233 0020 2F686F6D 		.ascii	"/home/awygle/ChibiOS-RT/demos/STM32/NIL-STM32F051-D"
 1233      652F6177 
 1233      79676C65 
 1233      2F436869 
 1233      62694F53 
 1234 0053 4953434F 		.ascii	"ISCOVERY\000"
ARM GAS  /tmp/cciotLDX.s 			page 35


 1234      56455259 
 1234      00
 1235              	.LASF14:
 1236 005c 78707372 		.ascii	"xpsr\000"
 1236      00
 1237              	.LASF19:
 1238 0061 706F7274 		.ascii	"port_unlock\000"
 1238      5F756E6C 
 1238      6F636B00 
 1239              	.LASF29:
 1240 006d 706F7274 		.ascii	"port_extctx\000"
 1240      5F657874 
 1240      63747800 
 1241              	.LASF32:
 1242 0079 5F5F7365 		.ascii	"__set_PSP\000"
 1242      745F5053 
 1242      5000
 1243              	.LASF17:
 1244 0083 5F5F656E 		.ascii	"__enable_irq\000"
 1244      61626C65 
 1244      5F697271 
 1244      00
 1245              	.LASF2:
 1246 0090 756E7369 		.ascii	"unsigned char\000"
 1246      676E6564 
 1246      20636861 
 1246      7200
 1247              	.LASF6:
 1248 009e 6C6F6E67 		.ascii	"long unsigned int\000"
 1248      20756E73 
 1248      69676E65 
 1248      6420696E 
 1248      7400
 1249              	.LASF4:
 1250 00b0 73686F72 		.ascii	"short unsigned int\000"
 1250      7420756E 
 1250      7369676E 
 1250      65642069 
 1250      6E7400
 1251              	.LASF23:
 1252 00c3 5F706F72 		.ascii	"_port_irq_epilogue\000"
 1252      745F6972 
 1252      715F6570 
 1252      696C6F67 
 1252      756500
 1253              	.LASF10:
 1254 00d6 75696E74 		.ascii	"uint32_t\000"
 1254      33325F74 
 1254      00
 1255              	.LASF9:
 1256 00df 5F5F7569 		.ascii	"__uint32_t\000"
 1256      6E743332 
 1256      5F7400
 1257              	.LASF27:
 1258 00ea 2E2E2F2E 		.ascii	"../../../os/common/ports/ARMCMx/chcore_v6m.c\000"
 1258      2E2F2E2E 
 1258      2F6F732F 
ARM GAS  /tmp/cciotLDX.s 			page 36


 1258      636F6D6D 
 1258      6F6E2F70 
 1259              	.LASF20:
 1260 0117 706F7274 		.ascii	"port_unlock_from_isr\000"
 1260      5F756E6C 
 1260      6F636B5F 
 1260      66726F6D 
 1260      5F697372 
 1261              	.LASF13:
 1262 012c 6C725F74 		.ascii	"lr_thd\000"
 1262      686400
 1263              	.LASF16:
 1264 0133 5F5F6469 		.ascii	"__disable_irq\000"
 1264      7361626C 
 1264      655F6972 
 1264      7100
 1265              	.LASF18:
 1266 0141 706F7274 		.ascii	"port_lock\000"
 1266      5F6C6F63 
 1266      6B00
 1267              	.LASF0:
 1268 014b 756E7369 		.ascii	"unsigned int\000"
 1268      676E6564 
 1268      20696E74 
 1268      00
 1269              	.LASF34:
 1270 0158 63685363 		.ascii	"chSchIsPreemptionRequired\000"
 1270      68497350 
 1270      7265656D 
 1270      7074696F 
 1270      6E526571 
 1271              	.LASF8:
 1272 0172 6C6F6E67 		.ascii	"long long unsigned int\000"
 1272      206C6F6E 
 1272      6720756E 
 1272      7369676E 
 1272      65642069 
 1273              	.LASF22:
 1274 0189 4E4D495F 		.ascii	"NMI_Handler\000"
 1274      48616E64 
 1274      6C657200 
 1275              	.LASF31:
 1276 0195 72657375 		.ascii	"result\000"
 1276      6C7400
 1277              	.LASF30:
 1278 019c 5F5F6765 		.ascii	"__get_PSP\000"
 1278      745F5053 
 1278      5000
 1279              	.LASF11:
 1280 01a6 73697A65 		.ascii	"sizetype\000"
 1280      74797065 
 1280      00
 1281              	.LASF33:
 1282 01af 746F704F 		.ascii	"topOfProcStack\000"
 1282      6650726F 
 1282      63537461 
 1282      636B00
ARM GAS  /tmp/cciotLDX.s 			page 37


 1283              	.LASF15:
 1284 01be 63686172 		.ascii	"char\000"
 1284      00
 1285              	.LASF3:
 1286 01c3 73686F72 		.ascii	"short int\000"
 1286      7420696E 
 1286      7400
 1287              	.LASF21:
 1288 01cd 706F7274 		.ascii	"port_lock_from_isr\000"
 1288      5F6C6F63 
 1288      6B5F6672 
 1288      6F6D5F69 
 1288      737200
 1289              	.LASF24:
 1290 01e0 63747870 		.ascii	"ctxp\000"
 1290      00
 1291              	.LASF26:
 1292 01e5 474E5520 		.ascii	"GNU C 4.8.2 -mcpu=cortex-m0 -mno-thumb-interwork -m"
 1292      4320342E 
 1292      382E3220 
 1292      2D6D6370 
 1292      753D636F 
 1293 0218 7468756D 		.ascii	"thumb -ggdb -O2 -fomit-frame-pointer -falign-functi"
 1293      62202D67 
 1293      67646220 
 1293      2D4F3220 
 1293      2D666F6D 
 1294 024b 6F6E733D 		.ascii	"ons=16 -ffunction-sections -fdata-sections -fno-com"
 1294      3136202D 
 1294      6666756E 
 1294      6374696F 
 1294      6E2D7365 
 1295 027e 6D6F6E20 		.ascii	"mon -flto\000"
 1295      2D666C74 
 1295      6F00
 1296              	.LASF1:
 1297 0288 7369676E 		.ascii	"signed char\000"
 1297      65642063 
 1297      68617200 
 1298              	.LASF25:
 1299 0294 5F426F6F 		.ascii	"_Bool\000"
 1299      6C00
 1300              		.comm	__gnu_lto_v1,1,1
 1301              		.ident	"GCC: (4.8.2-14ubuntu1+6) 4.8.2"
ARM GAS  /tmp/cciotLDX.s 			page 38


DEFINED SYMBOLS
                            *ABS*:0000000000000000 chcore_v6m.c
     /tmp/cciotLDX.s:223    .text.NMI_Handler:0000000000000000 $t
     /tmp/cciotLDX.s:229    .text.NMI_Handler:0000000000000000 NMI_Handler
     /tmp/cciotLDX.s:279    .text._port_irq_epilogue:0000000000000000 $t
     /tmp/cciotLDX.s:285    .text._port_irq_epilogue:0000000000000000 _port_irq_epilogue
     /tmp/cciotLDX.s:369    .text._port_irq_epilogue:0000000000000034 $d
                            *COM*:0000000000000001 __gnu_lto_v1
                     .debug_frame:0000000000000010 $d
     /tmp/cciotLDX.s:375    .text._port_irq_epilogue:000000000000003c $t

UNDEFINED SYMBOLS
chSchIsPreemptionRequired
_port_exit_from_isr
_port_switch_from_isr
