ARM GAS  /tmp/ccVnw7NL.s 			page 1


   1              		.cpu cortex-m0
   2              		.fpu softvfp
   3              		.eabi_attribute 20, 1
   4              		.eabi_attribute 21, 1
   5              		.eabi_attribute 23, 3
   6              		.eabi_attribute 24, 1
   7              		.eabi_attribute 25, 1
   8              		.eabi_attribute 26, 1
   9              		.eabi_attribute 30, 2
  10              		.eabi_attribute 34, 0
  11              		.eabi_attribute 18, 4
  12              		.code	16
  13              		.file	"chheap.c"
  14              		.text
  15              	.Ltext0:
  16              		.section	.gnu.lto_.jmpfuncs.ebb61f5faac79b65,"",%progbits
  17 0000 789C6362 		.ascii	"x\234cb`b\300\006\\\2404+\003\0033;\013;#\003\003\020"
  17      6062C006 
  17      5CA0342B 
  17      0303333B 
  17      0B3B2303 
  18 0016 01953245 		.ascii	"\001\2252E0f2\202$\300\332\352\201\012\030\321$\330"
  18      30663282 
  18      24C0DAEA 
  18      810A18D1 
  18      24D8
  19 0028 D8D10418 		.ascii	"\330\321\004\030\000r\247\003P"
  19      0072A703 
  19      50
  20              		.text
  21              		.section	.gnu.lto_.inline.ebb61f5faac79b65,"",%progbits
  22 0000 789C6362 		.ascii	"x\234cb`b\300\006J\030!4+\003\003;\033#\003\023\307"
  22      6062C006 
  22      4A182134 
  22      2B03033B 
  22      1B230313 
  23 0015 013B06B6 		.ascii	"\001;\006\266\005\362`\305\314\014\334\\\214\214L \025"
  23      05F260C5 
  23      CC0CDC5C 
  23      8C8C4C20 
  23      15
  24 0026 CC6C1FF4 		.ascii	"\314l\037\364\030x&\37011\260,\220g\001I\2620\\g\330"
  24      187826F8 
  24      3131B02C 
  24      90670149 
  24      B2305C67 
  25 003b CDC4C8CE 		.ascii	"\315\304\310\316\220\036\301\230\311\0106%\003\306b"
  25      901EC198 
  25      C9083625 
  25      03C662
  26 004a 4A01B198 		.ascii	"J\001\261\230\330\201\254T\030\213\001,\001\"\300JX"
  26      D881AC54 
  26      188B012C 
  26      0122C04A 
  26      58
  27 005b 4B36FC56 		.ascii	"K6\374V\200\330\0044\321\001D402\010M\361l\000[\315"
  27      80D80434 
ARM GAS  /tmp/ccVnw7NL.s 			page 2


  27      D1014434 
  27      3032084D 
  27      F16C005B 
  28 0070 C40D5407 		.ascii	"\304\015T\007\264\016B1\363\000E&\3701\260\011\201\351"
  28      B40E4231 
  28      F3004526 
  28      F831B009 
  28      81E9
  29 0082 097EAC0C 		.ascii	"\011~\254\014&G\030\201\346\200\235\346\323\265E\204"
  29      26471881 
  29      E6809DE6 
  29      D3B54584 
  30 0092 41E04510 		.ascii	"A\340E\020\023\003\323\005~\026$\335pm\014R\337\030"
  30      1303D305 
  30      7E1624DD 
  30      706D0C52 
  30      DF18
  31 00a4 1839B1B9 		.ascii	"\0309\261\271\224\021\314b\006\261\322a,&\270\030\023"
  31      9411CC62 
  31      06B1D261 
  31      2C26B818 
  31      13
  32 00b5 5C8C01EE 		.ascii	"\\\214\001\356p\260\0278\005\036\314\343\202\273\276"
  32      70B01738 
  32      051ECCE3 
  32      82BBBE
  33 00c4 0142B230 		.ascii	"\001B\26200\177\023\026``\274\304&\000\021\340``n\023"
  33      307F1316 
  33      6060BCC4 
  33      260011E0 
  33      60606E13 
  34 00d8 7560606C 		.ascii	"u``lbw`\302\342,\006\000\221\3331\307"
  34      627760C2 
  34      E22C0600 
  34      91DB31C7 
  35              		.text
  36              		.section	.gnu.lto_.pureconst.ebb61f5faac79b65,"",%progbits
  37 0000 789C6362 		.ascii	"x\234cb`b\340f\200\000V\006)f)\026)V)6)\000\004Q\000"
  37      6062E066 
  37      80005606 
  37      29662916 
  37      29562936 
  38 0019 A9       		.ascii	"\251"
  39              		.text
  40              		.section	.gnu.lto__heap_init.ebb61f5faac79b65,"",%progbits
  41 0000 789C6362 		.ascii	"x\234cb`b@\007\222@|\213\221\201A\003H32302M8\307\300"
  41      60624007 
  41      92407C8B 
  41      91814103 
  41      48333233 
  42 001a D0C8C1C4 		.ascii	"\320\310\301\304\310\010b002\32431\326G2\202\325\256"
  42      C8086230 
  42      3032D433 
  42      31D64732 
  42      82D5AE
  43 002d 673AF0E0 		.ascii	"g:\360\340\377\377u\333\216O\277\3038\217\211\015(\302"
  43      FFFF75DB 
ARM GAS  /tmp/ccVnw7NL.s 			page 3


  43      8E4FBFC3 
  43      388F890D 
  43      28C2
  44 003f CAD0D2D0 		.ascii	"\312\320\322\3200A\201\201!\031\254\"\004H\202\264\205"
  44      30418181 
  44      2119AC22 
  44      044882B4 
  44      85
  45 0050 32328168 		.ascii	"22\201h\346\263\014M\277\232\277\367Y&2.dde\320fX\325"
  45      E6B30C4D 
  45      BF9ABFF7 
  45      5926322E 
  45      646465D0 
  46 0067 0004F699 		.ascii	"\000\004\366\231\214\014\263\031f564\010d22V3\374j\350"
  46      8C0CB319 
  46      66353634 
  46      08643232 
  46      5633FC6A 
  47 007c 00B19872 		.ascii	"\000\261\230r\301FD0\002\231`\333\222 \2262@T4\224g"
  47      C1464430 
  47      029960DB 
  47      92209632 
  47      40543494 
  48 0091 32322733 		.ascii	"22'3B\304\200\346\356\270\361\375\000\013\212\271\354"
  48      42C480E6 
  48      EEB8F1FD 
  48      000B8AB9 
  48      EC
  49 00a2 998C2CDA 		.ascii	"\231\214,\332\014Z\231\214\254`\222\2158;\030\2414\214"
  49      0C5A998C 
  49      AC60928D 
  49      383B18A1 
  49      348C
  50 00b4 CFCC0053 		.ascii	"\317\314\000S\301\002\263\351\307\367\023\0306\261S"
  50      C102B3E9 
  50      C7F71318 
  50      36B153
  51 00c3 6E130BDC 		.ascii	"n\023\013\334&v\210M\207v\274\250B\330\323\002\224\340"
  51      2676884D 
  51      8776BCA8 
  51      42D8D302 
  51      94E0
  52 00d5 009BCF49 		.ascii	"\000\233\317I\234\371\254P\232\015n.\027H\315E\206\306"
  52      9CF9AC50 
  52      9A0D6E2E 
  52      1748CD45 
  52      86C6
  53 00e7 076F9521 		.ascii	"\007o\225!\346\302@\010\3201\300\370\001\351T\323\323"
  53      E6C24008 
  53      D031C0F8 
  53      01E954D3 
  53      D3
  54 00f8 D387A0FC 		.ascii	"\323\207\240\374b\375\344\374\334\334\374< +'3I\277"
  54      62FDE4FC 
  54      DCDCFC3C 
  54      202B2733 
  54      49BF
ARM GAS  /tmp/ccVnw7NL.s 			page 4


  55 010a B828593F 		.ascii	"\270(Y?9##5\261@/\231\001\000\277Nv\316"
  55      39232335 
  55      B1402F99 
  55      0100BF4E 
  55      76CE
  56              		.text
  57              		.section	.gnu.lto_chHeapObjectInit.ebb61f5faac79b65,"",%progbits
  58 0000 789C9552 		.ascii	"x\234\225R\317K\002Q\020\236y\317\037\273[\321\331\233"
  58      CF4B0251 
  58      109E79CF 
  58      1FBB5BD1 
  58      D99B
  59 0012 080625B8 		.ascii	"\010\006%\270\364\277\030\324Q\227\320\2056%\377\000"
  59      F4BF18D4 
  59      5197D085 
  59      3625FF00 
  60 0022 57ED1041 		.ascii	"W\355\020A a\024u\311\016\026\012u\335\243u\020\014"
  60      20611475 
  60      C90E160A 
  60      75DDA375 
  60      100C
  61 0034 0CBCE5CD 		.ascii	"\014\274\345\315?\241Nyj\233\367v\225,\015\032v\347"
  61      3FA14E79 
  61      6A9BF776 
  61      952C0D1A 
  61      76E7
  62 0046 7BBB33F3 		.ascii	"{\2733\363\3157\303c\300\340\247E\350\355\322\357\004"
  62      CD37C363 
  62      C0E0A745 
  62      E8EDD2EF 
  62      04
  63 0057 21724056 		.ascii	"!r@V{\001(+\014Q\034\000\241\304\260\264\2032\367\201"
  63      7B01282B 
  63      0C511C00 
  63      A1C4B0B4 
  63      8332F781 
  64 006b 7546AE7B 		.ascii	"uF\256{_\177\356>b;\276\202h!pr\250\220c*\230\010\232"
  64      5F7FEE3E 
  64      623BBE82 
  64      68217072 
  64      A890632A 
  65 0082 70644138 		.ascii	"pdA8\264\355Z4\006\015\333>\355\234\037\237E\354\353"
  65      B4ED5A34 
  65      060DDB3E 
  65      ED9C1F9F 
  65      45ECEB
  66 0095 4ACDFE74 		.ascii	"J\315\376t]4\021\031\254#\030\010\333\364\301\242\022"
  66      5D341119 
  66      AC231808 
  66      DBF4C1A2 
  66      12
  67 00a6 78605697 		.ascii	"x`V\227EbD\012Y\212\274\020\263Eu\204\274\007,\215\015"
  67      4562440A 
  67      598ABC10 
  67      B3457584 
  67      BC072C8D 
  68 00bb 0C421A6F 		.ascii	"\014B\032o0\006Y\244x\037*\216\323\034\372\201\004\264"
ARM GAS  /tmp/ccVnw7NL.s 			page 5


  68      300659A4 
  68      781F2A8E 
  68      D31CFA81 
  68      04B4
  69 00cd 6CB24D13 		.ascii	"l\262M\023\003WpI\354\301,r\321%$\2713\3368\262\257"
  69      03577049 
  69      ECC12C72 
  69      D12524B9 
  69      33DE38B2 
  70 00e2 6C4BD5BD 		.ascii	"lK\325\275\327\346\200\317T\207Ih\0026L\014K\257\314"
  70      D7E680CF 
  70      54874968 
  70      02364C0C 
  70      4BAFCC
  71 00f5 67421F99 		.ascii	"gB\037\231\217\\\342T\323\2709\374\305\252\376\2375"
  71      8F5CE254 
  71      D3B839FC 
  71      C5AAFE9F 
  71      35
  72 0106 30D5ABFA 		.ascii	"0\325\253\372z\235\213\333w\\\240\327\343TH\204\250"
  72      7A9D8BDB 
  72      775CA0D7 
  72      E3544884 
  72      A8
  73 0117 98AF701A 		.ascii	"\230\257p\032\351C\365\250\372Q\327=\256,\252YTd\243"
  73      E943F5A8 
  73      FA51D73D 
  73      AE2CAA59 
  73      5464A3
  74 012a B1EBBAAB 		.ascii	"\261\353\272\253^\302I\265\311'q\215Rd\\\361\027\367"
  74      5EC249B5 
  74      C927718D 
  74      52645CF1 
  74      17F7
  75 013c 165E30E0 		.ascii	"\026^0\340\3372\002\376\2424\301\362\344\334\265\276"
  75      DF3202FE 
  75      A234C1F2 
  75      E4DCB5BE 
  76 014c 4D7348F9 		.ascii	"MsH\371\232$Y\232\277\237\240\217\241\351,\313\202\177"
  76      9A24599A 
  76      BF9FA08F 
  76      A1E92CCB 
  76      827F
  77 015e 00E5513B 		.ascii	"\000\345Q;\356\361L,E\235\351\326\210\266k\311\244\356"
  77      EEF14C2C 
  77      459DE9D6 
  77      88B66BC9 
  77      A4EE
  78 0170 3DF9A26E 		.ascii	"=\371\242n\344-+\277O\247=3\243\027\017\014\335\310"
  78      E42D2BBF 
  78      4FA73D33 
  78      A3170F0C 
  78      DDC8
  79 0182 E576D385 		.ascii	"\345v\323\205\244\001,W\370\002\271\302\2341"
  79      A4012C57 
  79      F802B9C2 
  79      9C31
ARM GAS  /tmp/ccVnw7NL.s 			page 6


  80              		.text
  81              		.section	.gnu.lto_chHeapAllocAligned.ebb61f5faac79b65,"",%progbits
  82 0000 789C9D57 		.ascii	"x\234\235WklTE\024\236\231{\357\276\037\355v\333R-\257"
  82      6B6C5445 
  82      149E997B 
  82      EFBE1FED 
  82      76DB522D 
  83 0015 CA1B6C29 		.ascii	"\312\033l)\025EhS\036\361\007\001%AI\364\237\245B\331"
  83      15456853 
  83      1EF10701 
  83      254149F4 
  83      9FA542D9 
  84 0029 C44A957F 		.ascii	"\304J\225\177\362\243\333n\015H\225\020_\210\012\326"
  84      F2A3DB6E 
  84      0D489510 
  84      5F880AD6 
  85 0039 A0223E82 		.ascii	"\240\">\202\020\023\215-\272[\215)\017\201j\014O\225"
  85      10138D2D 
  85      BA5B8D29 
  85      0F816A0C 
  85      4F95
  86 004b 8840B404 		.ascii	"\210@\264\004%\232\024\321\270\236sf\346\366v\273nW"
  86      259A14D1 
  86      B89E7366 
  86      E6F676BB 
  86      6E57
  87 005d 9BE6DC3B 		.ascii	"\233\346\334;\347;\2579\363\315\334Y\301\004\313\374"
  87      E73BAF39 
  87      F3CDDC59 
  87      C104CBFC 
  88 006d 2BE58C2D 		.ascii	"+\345\214-\2170v?\274\363R\306\305\266c\214\265y\204"
  88      8F30763F 
  88      BCF352C6 
  88      C5B6638C 
  88      B57984
  89 0080 30CEF959 		.ascii	"0\316\371Y\334g~\320\313X<`pS\352Mam\236\012z\027\312"
  89      DC677ED0 
  89      CB583C60 
  89      7053EA4D 
  89      616D9E0A 
  90 0097 80C55D52 		.ascii	"\200\305]R\355\342%\362\305-<\204\027\022\356\021\336"
  90      EDE225F2 
  90      C52D3C84 
  90      1712EE11 
  90      DE
  91 00a8 5E0347C7 		.ascii	"^\003G\307\016c\024\257\360\021\030$\320'\3744\012\320"
  91      0E6314AF 
  91      F0111824 
  91      D027FC34 
  91      0AD0
  92 00ba C8CF0332 		.ascii	"\310\317\0032B\200\027\310\227\240\010\375Z\014x\270"
  92      428017C8 
  92      97A008FD 
  92      5A0C78B8 
  93 00ca 6B1EE021 		.ascii	"k\036\340!\255\016\353\227\002^,_\012e\362E%\302My|"
  93      AD0EEB97 
  93      025E2C5F 
ARM GAS  /tmp/ccVnw7NL.s 			page 7


  93      0A65F245 
  93      25C24D79 
  94 00df 114C1A88 		.ascii	"\021L\032\210\210\242/hX|\030\207E\"z\342(\015\223\034"
  94      88A22F68 
  94      587C1887 
  94      45227AE2 
  94      280D931C 
  95 00f3 8651ED5D 		.ascii	"\206Q\355]\3149\2760\316Z\205aZ.\267\307\353\363\007"
  95      CC39BE30 
  95      CE5A8561 
  95      5A2EB7C7 
  95      EBF307
  96 0106 82A17041 		.ascii	"\202\241pAaI\244(Z\314[\037\340\330(o\005{-\036\337"
  96      6149A428 
  96      5ACC5B1F 
  96      E0D8286F 
  96      057B2D1E 
  97 011b 76FEE285 		.ascii	"v\376\342\205~k\307s\311\216\256\370_\3514\3471\016"
  97      7E6BC773 
  97      C98EAEF8 
  97      5FE934E7 
  97      310E
  98 012d 4D9DCE59 		.ascii	"M\235\316Y#g\367\303\200O\240\2070\207wY\372\306\017"
  98      2367F7C3 
  98      804FA087 
  98      30877759 
  98      FAC60F
  99 0140 BC15F792 		.ascii	"\274\025\367\222\237An\225\371\271%\373\217m/\333\322"
  99      9F416E95 
  99      F9B925FB 
  99      8F6D2FDB 
  99      D2
 100 0151 D5BE2DFE 		.ascii	"\325\276-\3767d$\317\333\362\364\354>\376J\206\347\374"
 100      376424CF 
 100      DBF2F4EC 
 100      3EFE4A86 
 100      E7FC
 101 0163 BC3C9F49 		.ascii	"\274<\237I\276\332\371|Y|\310\323\020\254>?\317\370"
 101      BEDAF97C 
 101      597CC8D3 
 101      10AC3E3F 
 101      CFF8
 102 0175 F70FF5C5 		.ascii	"\367\017\365\305;\222\351t=y-\3163\337\376\316\247\235"
 102      3B92E974 
 102      3D792DCE 
 102      33DFFECE 
 102      A79D
 103 0187 F94CC1EE 		.ascii	"\371L\301\356\312\323\363\344\326\235\031\225.\313\323"
 103      CAD3F3E4 
 103      D69D1995 
 103      2ECBD3
 104 0196 F3C0F1C0 		.ascii	"\363\300\361\300\266\266\315\361t\272\025\334\032\370"
 104      B6B6CDF1 
 104      74BA15DC 
 104      1AF8
 105 01a4 FB5C8CE2 		.ascii	"\373\\\214\342\267O$\317\247\323WN\377\376\324Q~X\334"
 105      B74F24CF 
ARM GAS  /tmp/ccVnw7NL.s 			page 8


 105      A7D3574E 
 105      FFFED451 
 105      7E58DC
 106 01b7 CB5933B6 		.ascii	"\313Y3\266\264\231s\2035\360\275\274\202\231\352i\261"
 106      B4997383 
 106      35F0BDBC 
 106      8299EA69 
 106      B1
 107 01c8 18B7BC1C 		.ascii	"\030\267\274\034`\037\010\356\007!\002\240s\005Q\204"
 107      601F08EE 
 107      072102A0 
 107      73055184 
 108 01d8 C0EA3DB0 		.ascii	"\300\352=\260\012\303\300\035Q.E00\242jP\214\203\022"
 108      0AC3C01D 
 108      512E4530 
 108      30A26A50 
 108      8C8312
 109 01eb B42D4531 		.ascii	"\264-E1\006E\031\212\233P\334\014B\224+\323\261\250"
 109      0645198A 
 109      9B50DC0C 
 109      42942BD3 
 109      B1A8
 110 01fd 19879AF1 		.ascii	"\031\207\232\361(&\240\347D\300^\003\254\002\236\273"
 110      2826A0E7 
 110      44C05E03 
 110      AC029EBB 
 111 020d E1790B28 		.ascii	"\341y\013(\331$\024\223QLA1\025\3054t\236\016Vo\200"
 111      D9241493 
 111      514C4131 
 111      15C53474 
 111      9E0E566F 
 112 0222 D50CD4CC 		.ascii	"\325\014\324\314D1\013\305\255\210Ua\314\331(\252\301"
 112      44310BC5 
 112      AD885561 
 112      CCD928AA 
 112      C1
 113 0233 6A1F58CD 		.ascii	"j\037X\315Au\015\212\271\230j\036\212\371h\260\000E"
 113      41750D8A 
 113      B9986A1E 
 113      8AF968B0 
 113      0045
 114 0245 2D58ED07 		.ascii	"-X\355\007\253:T\327\303`\017\014\026b\270E(\026\243"
 114      AB3A54D7 
 114      C3600F0C 
 114      1662B845 
 114      2816A3
 115 0258 5882CE4B 		.ascii	"X\202\316K\261C\313@x\226\343\360n\024+\300\376\035"
 115      B143CB40 
 115      7896E3F0 
 115      6E142BC0 
 115      FE1D
 116 026a B05F8918 		.ascii	"\260_\211\030\264\333b\035@\342\011r\236\022\222\215"
 116      B4DB621D 
 116      40E20972 
 116      9E12928D 
 117 027a 6B8686E3 		.ascii	"k\206\206\343R\301\337} wXl\025\254\335\016\313\350"
 117      52C1DF7D 
ARM GAS  /tmp/ccVnw7NL.s 			page 9


 117      2077586C 
 117      15ACDD0E 
 117      CBE8
 118 028c 639F5F4E 		.ascii	"c\237_Nuw\302b\036\200\010M\334\213\253\350u.\341*p"
 118      7577C262 
 118      1E80084D 
 118      DC8BABE8 
 118      752EE12A 
 119 02a1 FD911987 		.ascii	"\375\221\031\207X\373\371\357.\272\244\035,\323Fv#\276"
 119      58FBF9EF 
 119      2EBAA41D 
 119      2CD34676 
 119      23BE
 120 02b3 391E5F00 		.ascii	"9\036_\000\326\315\334tX\233\030\026\254=\014\315\232"
 120      D6CDDC74 
 120      589B1816 
 120      AC3D0CCD 
 120      9A
 121 02c4 38A4EB63 		.ascii	"8\244\353c\035\227R\337\014%\361a\022\227\333v:\315"
 121      1D9752DF 
 121      0C25F161 
 121      1297DB76 
 121      3ACD
 122 02d6 3864165C 		.ascii	"8d\026\\\306L\036<\022\262\243\032\037\031\030\324b"
 122      C64C1E3C 
 122      12B2A31A 
 122      1F1918D4 
 122      62
 123 02e7 470506ED 		.ascii	"G\005\006\355\032\260t\005\234\202x\354\274.g^\210\007"
 123      1AB07405 
 123      9C8278EC 
 123      BC2E675E 
 123      8807
 124 02f9 27F7972C 		.ascii	"'\367\227,\2619q\260T\247\0154q?:\231\230\031\260n\273"
 124      B13971B0 
 124      54A70D34 
 124      713F3A99 
 124      9819B06E 
 125 030e A0208084 		.ascii	"\240 \200\204\\O\247\323a\211>\235X\253\341\020X\020"
 125      5C4FA7D3 
 125      61893E9D 
 125      58ABE110 
 125      5810
 126 0320 8CD90E31 		.ascii	"\214\331\0161!\365\262\263\200\242y\373\215\304\300"
 126      21F5B2B3 
 126      80A279FB 
 126      8DC4C0
 127 032f 763B5E78 		.ascii	"v;^x#{\034\230:\223\315\210q\337\313\354%\360\3657\311"
 127      237B1C98 
 127      3A93CD88 
 127      71DFCBEC 
 127      25F0F537 
 128 0344 8A656F57 		.ascii	"\212eoWsG\207\21735)\246\272Z\020\343\201F.M \030\272"
 128      7347878F 
 128      333529A6 
 128      BA5A10E3 
 128      81462E4D 
ARM GAS  /tmp/ccVnw7NL.s 			page 10


 129 035b 05192CB1 		.ascii	"\005\031,\261\3164\270\335\2453E\320\003\376\252\201"
 129      CE34B8DD 
 129      A53345D0 
 129      03FEAA81 
 130 036b 3D33D9DB 		.ascii	"=3\331\333\370Z\027\343\341\3549\035I\241QI\227\236"
 130      F85A17E3 
 130      E1EC391D 
 130      49A15149 
 130      979E
 131 037d C75E9A47 		.ascii	"\307^\232GD.\205\200\3651us\255\236o\037\306\346\272"
 131      442E8580 
 131      F5317573 
 131      AD9E6F1F 
 131      C6E6BA
 132 0390 197C2888 		.ascii	"\031|(\210\003[6\271\024\313\324\231\220\356|!\3434"
 132      035B36B9 
 132      14CBD499 
 132      90EE7C21 
 132      E334
 133 03a2 B967B4D3 		.ascii	"\271g\264\323\2041=_E\322&^D=\357L|\370Jm\003\357\241"
 133      84313D5F 
 133      45D2265E 
 133      443DEF4C 
 133      7CF84A6D 
 134 03b9 A9158396 		.ascii	"\251\025\203\226\274=\264 \355W\015\215\224\000(W\327"
 134      BC3DB420 
 134      ED570D8D 
 134      94002857 
 134      D7
 135 03ca 56959256 		.ascii	"V\225\222Vdh\307\000@3I\333\353\332\276\327F\313\264"
 135      6468C700 
 135      403349DB 
 135      EBDABED7 
 135      46CBB4
 136 03dd 43B7ADBA 		.ascii	"C\267\255\272\211|\312\024u\376\266\3657\003D\265\014"
 136      897CCA14 
 136      75FEB6F5 
 136      370344B5 
 136      0C
 137 03ee 11A4FD2A 		.ascii	"\021\244\375*\022D\302\345`\241\230\321C\035=H\223*"
 137      1244C2E5 
 137      60A198D1 
 137      431D3D48 
 137      932A
 138 0400 27BB33D7 		.ascii	"'\2733\327/\244\204\266\034K\2340I\026\310U\012\253"
 138      2FA484B6 
 138      1C4B9C30 
 138      4916C855 
 138      0AAB
 139 0412 791A6A95 		.ascii	"y\032j\225\204z\032\252W\303f4\016BP!\\\"[ld<\200\216"
 139      847A1AAA 
 139      57C36634 
 139      0E425021 
 139      5C225B6C 
 140 042a 76253A6D 		.ascii	"v%:md\002$\000\034\367\341\347\227\332\252\035\352r"
 140      64022400 
 140      1CF7E1E7 
ARM GAS  /tmp/ccVnw7NL.s 			page 11


 140      97DAAA1D 
 140      EA72
 141 043c E736F7B0 		.ascii	"\3476\367\260=\223\015\232\327\317v\271\023\325\312"
 141      3D930D9A 
 141      D7CF76B9 
 141      13D5CA
 142 044b 389A5F41 		.ascii	"8\232_As\205\004O\332\252[\310\260\"\303p\022\345\034"
 142      7385044F 
 142      DAAA5BC8 
 142      B022C370 
 142      12E51C
 143 045e 56FD64D0 		.ascii	"V\375d\320b\215\014\333H\177\2745\303d\012\205\233L"
 143      628D0CDB 
 143      487FBC35 
 143      C3640A85 
 143      9B4C
 144 0470 DA5DB676 		.ascii	"\332]\266v*\000\3448\202\013\323\000\244\023\346r\333"
 144      2A00E438 
 144      820BD300 
 144      A413E672 
 144      DB
 145 0481 46872EE4 		.ascii	"F\207.\344\234\231\227\235\344x\322]L}\2705\250\215"
 145      9C99979D 
 145      E478D25D 
 145      4C7DB835 
 145      A88D
 146 0493 8A32A6EF 		.ascii	"\2122\246\357c\003\222\341\257n\362\015g\370\307\307"
 146      630392E1 
 146      AF6EF20D 
 146      67F8C7C7 
 147 04a3 86BE7AF0 		.ascii	"\206\276z\360\231]\231\017\275{4\275?#&L\243\252\007"
 147      995D990F 
 147      BD7B34BD 
 147      3F23264C 
 147      A3AA07
 148 04b6 12BB7756 		.ascii	"\022\273wV5\360^\312?]\365\261}\300\320\252\031\232"
 148      35F05ECA 
 148      3F5DF5B1 
 148      7DC0D0AA 
 148      199A
 149 04c8 D74FDAAA 		.ascii	"\327O\332\252\231d8\303n\207\324\316\002 \263\035\022"
 149      996438C3 
 149      6E87D4CE 
 149      0220B31D 
 149      12
 150 04d9 B9154052 		.ascii	"\271\025@R\035z\337/u\352T\250\371O\254\203@D\227\213"
 150      1D7ADF2F 
 150      75EA54A8 
 150      F94FAC83 
 150      4044978B 
 151 04ed A9AFB786 		.ascii	"\251\257\267\206t\354\020\315c\250c~v\273A\373\244{"
 151      74EC10CD 
 151      63A8637E 
 151      76BB41FB 
 151      A47B
 152 04ff 679DFDE5 		.ascii	"g\235\375\345\301/\036\316\273W6\240\211W\201c&c\373"
 152      C12F1ECE 
ARM GAS  /tmp/ccVnw7NL.s 			page 12


 152      BB5736A0 
 152      89578163 
 152      2663FB
 153 0512 28DE6C00 		.ascii	"(\336l\000\20716\361\270\206\252iO\315V{\252\217\366"
 153      873136F1 
 153      B886AA69 
 153      4FCD567B 
 153      AA8FF6
 154 0525 D43EEA64 		.ascii	"\324>\352d\265lP\342\323\235K\265\361\034\275\342T\314"
 154      B56C50E2 
 154      D39D4BB5 
 154      F11CBDE2 
 154      54CC
 155 0537 CF42EB6B 		.ascii	"\317B\353k\000\242c\333\261\373\017\375\352\227\260"
 155      00A263DB 
 155      B1FB0FFD 
 155      EA97B0
 156 0546 6ACB1D23 		.ascii	"j\313\035#\333R\235\253-5rK\237\272\232\262\2471\227"
 156      DB529DAB 
 156      2D35724B 
 156      9FBA9AB2 
 156      A73197
 157 0559 FC8D7C9A 		.ascii	"\374\215|\232\253\211\202\205\234\030QHf\210\254\205"
 157      AB898285 
 157      9C185148 
 157      6688AC85 
 158 0569 98AA90B9 		.ascii	"\230\252\220\2712\312\365\253\327\304hqr\224B\375\224"
 158      32CAF5AB 
 158      D7C46871 
 158      729442FD 
 158      94
 159 057a AB19D0FC 		.ascii	"\253\031\320\374\377d\223[.\237>\233\313\265I\020M\350"
 159      FF64935B 
 159      2E9F3E9B 
 159      CBB54910 
 159      4DE8
 160 058c C6F04258 		.ascii	"\306\360BXo# \305X')Bl\034\036\"g>\372-e\357\321y\377"
 160      6F2320C5 
 160      58272942 
 160      6C1C1E22 
 160      673EFA2D 
 161 05a5 BF433D39 		.ascii	"\277C=9gf\344\232\331<]R\030\242I\242\376\262\253\326"
 161      6766E49A 
 161      D93C5D52 
 161      18A249A2 
 161      FEB2ABD6 
 162 05b9 26EA7E45 		.ascii	"&\352~E\324\036M\324\371Y\210z\226\352_\000\340\010"
 162      D41E4DD4 
 162      F959887A 
 162      96EA5F00 
 162      E008
 163 05cb A24AA896 		.ascii	"\242J\250\226\016\222\005\212\250g\251k\373\251k\265"
 163      0E92058A 
 163      A867A96B 
 163      FBA96BB5 
 164 05db 92292F0E 		.ascii	"\222)/\016\246\3548u\377\277\017gs\366\2416W\037\352"
 164      A6EC3875 
ARM GAS  /tmp/ccVnw7NL.s 			page 13


 164      FFBF0F67 
 164      73F6A136 
 164      571FEA
 165 05ee D4D76A70 		.ascii	"\324\327jp\327\235\272\220zU\036\0354R\265\220\316\360"
 165      D79DBA90 
 165      7A551E1D 
 165      3452B590 
 165      CEF0
 166 0600 7AFB3496 		.ascii	"z\3734\226\332Etf/\264\217\037\251]\014@\346\361#\221"
 166      DA457466 
 166      2FB48F1F 
 166      A95D0C40 
 166      E6F12391 
 167 0614 25000EED 		.ascii	"%\000\016\355\263\2639\367Y\326\242\365>[\"\243\234"
 167      B3B339F7 
 167      59D6A2F5 
 167      3E5B22A3 
 167      9C
 168 0625 1ABC2646 		.ascii	"\032\274&F\233|N\022\324j\022\024\3407@^\0175\257M\312"
 168      9B7C4E12 
 168      D46A1214 
 168      E037405E 
 168      0F35AF4D 
 169 063a 71E4FA8D 		.ascii	"q\344\372\215~1\214ha]k\241\235\303t\346\260\324\323"
 169      7E318C68 
 169      615D6BA1 
 169      9DC374E6 
 169      B0D4D3
 170 064d A572F865 		.ascii	"\245r\370e\234\027\377\034\031\307\233O\034\267\212"
 170      9C17FF1C 
 170      19C79B4F 
 170      1CB78A
 171 065c C3F12AD8 		.ascii	"\303\361*\330\321\365\213[\223\322\276\015F\032\325"
 171      D1F58B5B 
 171      93D2BE0D 
 171      461AD5
 172 066b C4E03618 		.ascii	"\304\3406\030\263\357J?\215\327\033l\251\212,\344u\370"
 172      B3EF4A3F 
 172      8DD71B6C 
 172      A98A2CE4 
 172      75F8
 173 067d 343361D7 		.ascii	"43a\327\006\256\014\266\000\273B\357^{\020\036a\352"
 173      06AE0CB6 
 173      00BB42EF 
 173      5E7B101E 
 173      61EA
 174 068f 42211BEC 		.ascii	"B!\033\354c\006ZDA\347\376\275\025\244\207\220\022\006"
 174      63065A44 
 174      41E7FEBD 
 174      15A48790 
 174      1206
 175 06a1 3FEAB96E 		.ascii	"?\352\271n\220\274\021\032\352\260\373\264\237\353\373"
 175      90BC111A 
 175      EAB0FBB4 
 175      9FEBFB
 176 06b0 6651560A 		.ascii	"fQV\012\347X\002\3726_i\253\261\003\014\231\252Z\215"
 176      E75802FA 
ARM GAS  /tmp/ccVnw7NL.s 			page 14


 176      365F69AB 
 176      B1030C99 
 176      AA5A8D
 177 06c3 261E2D84 		.ascii	"&\036-\204\013{\304u\356\3731XJ\204\365\032\006t\342"
 177      0B7BC475 
 177      EEFB3158 
 177      4A84F51A 
 177      0674E2
 178 06d6 7C676CC4 		.ascii	"|gl\304\2758K'\340\202\265\373\007\273\300eTZ4\373\005"
 178      BD384B27 
 178      E082B5FB 
 178      07BBC065 
 178      545A34FB 
 179 06eb D8E32C29 		.ascii	"\330\343,)h\273\240I\2249\376VA\344\367\014yf\\x\375"
 179      68BBA049 
 179      9439FE56 
 179      41E4F70C 
 179      79665C78 
 180 0700 4E6DB85C 		.ascii	"Nm\270\\\235\020\246\343\204\220\310\335\000\332\277"
 180      9D10A6E3 
 180      8490C8DD 
 180      00DABF
 181 070f 108EB327 		.ascii	"\020\216\263'\222c4\262\002\3423i!b\370yw\374~\2204"
 181      926334B2 
 181      02E23369 
 181      2162F879 
 181      77FC7E90 
 182 0724 5C21EB49 		.ascii	"\\!\353I\035\210\330>\031=\302\202\242\354\015,\250"
 182      1D88D83E 
 182      193DC282 
 182      A2EC0D2C 
 182      A8
 183 0735 FDC8A937 		.ascii	"\375\310\2517\277R\001\376\235f+F\241\031\321>K\234"
 183      BF5201FE 
 183      9D662B46 
 183      A119D13E 
 183      4B9C
 184 0747 4CDA678D 		.ascii	"L\332g\2153\214\366@\303?&\351\272W*\0171\364\253\254"
 184      338CF640 
 184      C33F26E9 
 184      BA572A0F 
 184      31F4ABAC 
 185 075b 187F95F5 		.ascii	"\030\177\225\365\2636\017zXr\301- l\301\353@\275\225"
 185      B3360F7A 
 185      5872C12D 
 185      206CC1EB 
 185      40BD95
 186 076e D11F9FA5 		.ascii	"\321\037\237\245\365\001\240\250\347\371\240z\305\037"
 186      F501A0A8 
 186      E7F9A07A 
 186      C51F
 187 077c 22F74199 		.ascii	"\"\367A\231;,\\\352)\225\225U\362\177\375\206\252\306"
 187      3B2C5CEA 
 187      29959555 
 187      F27FFD86 
 187      AAC6
 188 078e F5CDCDEB 		.ascii	"\365\315\315\353\037\201\267\207c\253\2536<\326X\325"
ARM GAS  /tmp/ccVnw7NL.s 			page 15


 188      1F81B787 
 188      63ABAB36 
 188      3CD658D5 
 189 079e B86EDD9A 		.ascii	"\270n\335\232\206\226\312Ff\256k\251\254\266\032@\316"
 189      8696CA46 
 189      66AE6BA9 
 189      ACB61A40 
 189      CE
 190 07af 215963AE 		.ascii	"!Yc\256m\251\274M<\332\"\326\265X-\015Mk6\210\265-\006"
 190      6DA9BC4D 
 190      3CDA22D6 
 190      B5582D0D 
 190      4D6B3688 
 191 07c6 20AED534 		.ascii	" \256\3254\372\007R\354\031k"
 191      FA0752EC 
 191      196B
 192              		.text
 193              		.section	.gnu.lto_chHeapFree.ebb61f5faac79b65,"",%progbits
 194 0000 789C9D55 		.ascii	"x\234\235U]h\\E\024>g\356\336\275w\367\336&\013m\232"
 194      5D685C45 
 194      143E67EE 
 194      DEBD77F7 
 194      DE260B6D 
 195 0015 6C08CD26 		.ascii	"l\010\315&\015+\233\226,\242\305'\361\331\367\006\364"
 195      0D2B9B96 
 195      2CA2C527 
 195      F1D9F706 
 195      F4
 196 0026 31592559 		.ascii	"1Y%YjL\264o\366\2417\273y\010\026!T\324\304\372\220"
 196      6A4CB46F 
 196      F6A137BB 
 196      79081621 
 196      54D4C4FA 
 197 003b 20ADE04B 		.ascii	" \255\340K\221J(\004\232MPh\202m\265\021\232\206\202"
 197      914A2804 
 197      9A4D5068 
 197      826DB511 
 197      9A8682
 198 004e 31A2E293 		.ascii	"1\242\342\223\240 q)^\317\231\231{\367\247\267i\222"
 198      A0207129 
 198      5ECF9999 
 198      7BF7A7B7 
 198      6992
 199 0060 CBEE999F 		.ascii	"\313\356\231\2373\363\2353\337|3#@@\3637O\377R\022\340"
 199      33F39D33 
 199      DF7C3323 
 199      4040F337 
 199      4FFF5212 
 200 0075 452AF108 		.ascii	"E*\361\010\240\230\271\0130i\0134T\305\020\346#\007"
 200      A098B90B 
 200      30690B34 
 200      54C510E6 
 200      2307
 201 0087 BC64ECEB 		.ascii	"\274d\354\353U\000\317\215\011s\3729j:l]SX\253\006\265"
 201      5500CF8D 
 201      0973FA39 
 201      6A3A6C5D 
ARM GAS  /tmp/ccVnw7NL.s 			page 16


 201      5358AB06 
 202 009c E277D7D9 		.ascii	"\342w\327\331\031\327MG5-a\313\251\0115\325\306\204"
 202      19D74D47 
 202      352D61CB 
 202      A90935D5 
 202      C684
 203 00ae 824C88A4 		.ascii	"\202L\210\244\354wU\177\022]\325\357\250\230+\266\213"
 203      EC77557F 
 203      125DD5EF 
 203      A8982BB6 
 203      8B
 204 00bf C81540B8 		.ascii	"\310\025@\270(\214\230\031\267\354D\322q\361\342\353"
 204      288C9819 
 204      B7EC44D2 
 204      71F1E2EB 
 205 00cf C8191BBD 		.ascii	"\310\031\033\275\260\340y\227\267\277\275~_\314y\225"
 205      B0E07997 
 205      B7BFBD7E 
 205      5FCC7995 
 206 00df A979EFB1 		.ascii	"\251y\357\261\357#\026\221V\227C( \274F\015\314\310"
 206      EF231691 
 206      56974328 
 206      20BC460D 
 206      CCC8
 207 00f1 42C41A97 		.ascii	"B\304\032\227\253\346z?\275q\333\233\252\370\376+r\326"
 207      ABE67A3F 
 207      BD71DB9B 
 207      AAF8FE2B 
 207      72D6
 208 0103 E9FDCDAA 		.ascii	"\351\375\315\252\370\227?J{\363\245\031\357?\012XDC"
 208      F8973F4A 
 208      7BF3A519 
 208      EF3F0A58 
 208      4443
 209 0115 40FE5933 		.ascii	"@\376Y3\257\213\312\266\357?\372\344\217\237?\303\266"
 209      AF8BCAB6 
 209      EF3FFAE4 
 209      8F9F3FC3 
 209      B6
 210 0126 7E84215C 		.ascii	"~\204!\\\300^\210\341\030\202I\215\317\251aQy\225J["
 210      C05E88E1 
 210      1882498D 
 210      CFA96151 
 210      79954A5B 
 211 013a 3B1350C4 		.ascii	";\023P\304X\222\215\303\306e\323B\306L\221\201\243\334"
 211      58928DC3 
 211      C665D342 
 211      C64C9181 
 211      A3DC
 212 014c 3C4646B4 		.ascii	"<FF\264\2619\316}\355l:\330\221f\323\311\246\213\373"
 212      B139CE7D 
 212      ED6C3AD8 
 212      9166D3C9 
 212      A68BFB
 213 015f 4E70AD9B 		.ascii	"Np\255\233\307e\330\364p_/\367\235d\323\307&\313}9\035"
 213      C765D8F4 
 213      705F2FF7 
ARM GAS  /tmp/ccVnw7NL.s 			page 17


 213      9D64D3C7 
 213      26CB7D39 
 214 0174 9A3E13A6 		.ascii	"\232>\023\246<o&\243\332*A\225\336\030\022\373\005\271"
 214      3C6F26A3 
 214      DA2A4195 
 214      DE1812FB 
 214      05B9
 215 0186 0367C956 		.ascii	"\003g\311V\015\030DA\205q\007\312\227\3127\256\305\207"
 215      0D184441 
 215      857107CA 
 215      97CA37AE 
 215      C587
 216 0198 F00B3461 		.ascii	"\360\0134a\004\315\021\214I*v}\337o\245\341k \224O\301"
 216      04CD118C 
 216      492A767D 
 216      DF6FA5E1 
 216      6B20944F 
 217 01ad D108803B 		.ascii	"\321\010\200;P\332\332\274\261\216\301$\353\024|\351"
 217      50DADABC 
 217      B18EC124 
 217      EB147CE9 
 218 01bd D1F712D1 		.ascii	"\321\367\022\321z\012\372\213\030\277\002\237\022\210"
 218      7A0AFA8B 
 218      18BF029F 
 218      1288
 219 01cb A5C12000 		.ascii	"\245\301 \000\203aT\314\016\243\256\020~\251\222\016"
 219      836154CC 
 219      0EA3AE10 
 219      7EA9920E 
 220 01db 225C9511 		.ascii	"\"\\\225\021,\031\241Z^\256\245e_\200*Gx\236\300t\260"
 220      2C19A15A 
 220      5EAEA565 
 220      5F802A47 
 220      789EC074 
 221 01f0 97095F85 		.ascii	"\227\011_\205\261i\012\20714t\3359a\364x\200\276 \321"
 221      B1690A87 
 221      313474DD 
 221      3961F478 
 221      80BE20D1 
 222 0204 6D9DFFE2 		.ascii	"m\235\377\342\272\010\320\0232\351\304~S748q7m\004\030"
 222      BA08D013 
 222      32E9C47E 
 222      53373438 
 222      71376D04 
 223 0219 4982E109 		.ascii	"I\202\341\011\011Ky\226B\217CN\351\011\240\310\373A"
 223      094B7996 
 223      428F434E 
 223      E909A0C8 
 223      FB41
 224 022b F9CF6BE7 		.ascii	"\371\317k\347\202\001.\215\221\003l\351,\255m.V5\267"
 224      82012E8D 
 224      91036CE9 
 224      2CAD6D2E 
 224      5635B7
 225 023e 7AAD5690 		.ascii	"z\255V\220]\362\351\331\305tv\246,\011U\263\370o6\210"
 225      5DF2E9D9 
 225      C57476A6 
ARM GAS  /tmp/ccVnw7NL.s 			page 18


 225      2C0955B3 
 225      F86F3688 
 226 0252 D37201DE 		.ascii	"\323r\001\336#%J '\232\272x\215\272{`\252\211\000L\376"
 226      23254A20 
 226      279ABA78 
 226      8DBA7B60 
 226      AA89004C 
 227 0267 B4972AA2 		.ascii	"\264\227*\242[\320\373F`<\355\010\220\000[\324\370A"
 227      5BD0FB46 
 227      603CED08 
 227      90005BD4 
 227      F841
 228 0279 02A1836F 		.ascii	"\002\241\203o\020\345\264\216\200m\032~\033\276\371"
 228      10E5B48E 
 228      806D1A7E 
 228      1BBEF9
 229 0288 7DE5C187 		.ascii	"}\345\301\207n\220\006\312=P\337C\240V\316\371\361+"
 229      6E9006CA 
 229      3D50DF43 
 229      A056CEF9 
 229      F12B
 230 029a EE148FE7 		.ascii	"\356\024\217\347\322\214\023\003\272[\014\232\366\333"
 230      D28C1303 
 230      BA5B0C9A 
 230      F6DB
 231 02a8 CA838DBE 		.ascii	"\312\203\215\276:eb-\273A\352\373\347\264\301;9\273"
 231      3A65622D 
 231      BB41EAFB 
 231      E7B4C13B 
 231      39BB
 232 02ba B4152A31 		.ascii	"\264\025*1%\027\007M\\\241\344\012\032y\2624\222Jo#"
 232      2517074D 
 232      5CA1E40A 
 232      1A79B234 
 232      924A6F23 
 233 02ce 1F42D406 		.ascii	"\037B\324\006\207\261\342\360w?'\364\353\312\303\215"
 233      87B1E2F0 
 233      773F27F4 
 233      EBCAC38D 
 234 02de EEBA8452 		.ascii	"\356\272\204R\365\203,u\236h\373\226\356\213\206\355"
 234      F5832C75 
 234      9E68FB96 
 234      EE8B86ED 
 235 02ee 6B7D32A5 		.ascii	"k}2\245\247n\237\245\371M))\354\356\003k\217\345\205"
 235      A76E9FA5 
 235      F94D2929 
 235      ECEE036B 
 235      8FE585
 236 0301 C7F5E6AD 		.ascii	"\307\365\346\255\032IG\353\344\276oA5\311\375\030\301"
 236      1A4947EB 
 236      E4BE6F41 
 236      35C9FD18 
 236      C1
 237 0312 C87B0295 		.ascii	"\310{\002\225\347\375\320\323FN\351Qj._\012=\307%gm"
 237      E7FDD0D3 
 237      464EE951 
 237      6A2E5F0A 
ARM GAS  /tmp/ccVnw7NL.s 			page 19


 237      3DC72567 
 238 0327 2AA1EF5B 		.ascii	"*\241\357[\202\356\366\310={\006Aj\337&\317\324a\267"
 238      82EEF6C8 
 238      3D7B0641 
 238      6ADF26CF 
 238      D461B7
 239 033a D76F860D 		.ascii	"\327o\206\015\337\201T\307\356\255\3250\201\216\310"
 239      DF8154C7 
 239      EEADD530 
 239      818EC8
 240 0349 85B747D1 		.ascii	"\205\267G\321W\277\350\362bH]\232\226M8Mdt\222C\036"
 240      57BFE8F2 
 240      62485D9A 
 240      964D384D 
 240      64749243 
 241 035e 604546E9 		.ascii	"`EF\351\325\372\035K\311\210\272v\200\363\333\251x\232"
 241      D5FA1D4B 
 241      C988BA76 
 241      80F3DBA9 
 241      789A
 242 0370 5DFE2BBC 		.ascii	"]\376+\274\247\272\"\231\212\314\337\012\363/\255\315"
 242      A7BA2299 
 242      8ACCDF0A 
 242      F32FADCD 
 243 0380 380D0A7A 		.ascii	"8\015\012z\341\020j\354\012xMh\221om.\357\204\254\234"
 243      E1106AEC 
 243      0A784D68 
 243      916F6D2E 
 243      EF84AC9C 
 244 0394 88E43552 		.ascii	"\210\3445R\226\221b\352&\210h1e\310\031-\246\036y\221"
 244      969162EA 
 244      26886831 
 244      65C8192D 
 244      A61E7991 
 245 03a8 649A75D0 		.ascii	"d\232u\3203\022\206\220\371&\003\035\314\356\324t\320"
 245      33128690 
 245      F926031D 
 245      CCEED474 
 245      D0
 246 03b9 7BF80350 		.ascii	"{\370\003P\247\205\223\224\365\010\277\273\015k\351"
 246      A7859394 
 246      F508BFBB 
 246      0D6BE9
 247 03c8 23C741B5 		.ascii	"#\307A\265\260\007S\004\250\017\360NM\007\331\303\235"
 247      B0075304 
 247      A80FF04E 
 247      4D07D9C3 
 247      9D
 248 03d9 98FD6961 		.ascii	"\230\375ia\317\333$\033\360\352\300\307\353\212\330"
 248      CFDB241B 
 248      F0EAC0C7 
 248      EB8AD8
 249 03e8 9BBFAC86 		.ascii	"\233\277\254\206\224\3444\354\231\003\336\301\374Lw"
 249      94E434EC 
 249      9903DEC1 
 249      FC4C77
 250 03f7 343ED3B9 		.ascii	"4>\323\271 \222\313\212\273\007S\333s\347\236x\217Z"
ARM GAS  /tmp/ccVnw7NL.s 			page 20


 250      2092CB8A 
 250      BB0753DB 
 250      73E79E78 
 250      8F5A
 251 0409 0BFAB1A7 		.ascii	"\013\372\261\247\367\250\310W\346\01709\177\305\011"
 251      F7A8C857 
 251      E60F3039 
 251      7FC509
 252 0418 C6A9EF2C 		.ascii	"\306\251\357,\275\033U\203\307e\007\006\362\3527~>_"
 252      BD1B5583 
 252      C7650706 
 252      F2EA377E 
 252      3E5F
 253 042a 181F1B1B 		.ascii	"\030\037\033\033\177\233jo\025\207\363\347\337-\344"
 253      7F9B6A6F 
 253      1587F3E7 
 253      DF2DE4
 254 0439 0BA3A36F 		.ascii	"\013\243\243o\016M\014\024@\2743!F'LnM\374\017*[Q/"
 254      0E4D0C14 
 254      40BC3321 
 254      46274C6E 
 254      4DFC0F2A 
 255              		.text
 256              		.section	.gnu.lto_chHeapStatus.ebb61f5faac79b65,"",%progbits
 257 0000 789C8D54 		.ascii	"x\234\215T\335kTG\024?g\346~\355\375\330M\224\004\002"
 257      DD6B5447 
 257      143F67E6 
 257      7EEDFDD8 
 257      4D940402 
 258 0014 3E88424B 		.ascii	">\210BKk\331PD\020\332R\372?\030\250\217\353V\326\013"
 258      6BD95044 
 258      10DA52FA 
 258      3F18A88F 
 258      EB56D60B 
 259 0028 AE894D5F 		.ascii	"\256\211M_\324\007'\331\005\203\246\020,*\265>DR\011"
 259      D40727D9 
 259      0583A610 
 259      2C2AB53E 
 259      445209
 260 003b B690942A 		.ascii	"\266\220\224*\250\254\302F\254\215\2655\350\213\306"
 260      A8ACC246 
 260      AC8DB535 
 260      E88BC6
 261 004a FAB0F4A1 		.ascii	"\372\260\364\241i\351B\333\207\206b\242\353\231\231"
 261      69E942DB 
 261      878662A2 
 261      EB9999
 262 0059 3BFB1103 		.ascii	";\373\021\003\272$\367\314=\347\367;\337w\0300X\373"
 262      BA24F7CC 
 262      3DE7F73B 
 262      DF771830 
 262      58FB
 263 006b FB9AFE43 		.ascii	"\373\232\376C\027\340#\222\230\006d\023\367\000F<\306"
 263      17E02392 
 263      98066413 
 263      F700463C 
 263      C6
ARM GAS  /tmp/ccVnw7NL.s 			page 21


 264 007c F8930084 		.ascii	"\370\223\000\204o]\276\011 B\216\226\326[\350\351\203"
 264      6F5DBE09 
 264      20428E96 
 264      D65BE8E9 
 264      83
 265 008d CD9CB137 		.ascii	"\315\234\2617\011\340\312g\350\240\253\325\256\266\317"
 265      09E0CA67 
 265      E8A0ABD5 
 265      AEB6CF
 266 009c 791EB3C7 		.ascii	"y\036\263\307\177$\252\237*\273\004H1_y\362\003\351"
 266      7F24AA9F 
 266      2ABB0448 
 266      315F79F2 
 266      03E9
 267 00ae 36F431D0 		.ascii	"6\3641\320\370\200\205goK}\264,a!FZ\037!\312\003 \034"
 267      F8808567 
 267      6F4B7DB4 
 267      2C612146 
 267      5A1F21CA 
 268 00c5 65DCB21D 		.ascii	"e\334\262\035\327K\371A\030\341\321\335(\263\266\266"
 268      D74BF941 
 268      18E1D1DD 
 268      28B3B6B6 
 269 00d5 C079214E 		.ascii	"\300y!N\326~\370\373\001\373RT\313\223b\265\321@\214"
 269      D67EF8FB 
 269      01FB5254 
 269      CB9362B5 
 269      D1408C
 270 00e8 912A7C0B 		.ascii	"\221*|\013!\217\3601\275\340f%\230\325Y\262\346V\033"
 270      218FF031 
 270      BDE06625 
 270      98D559B2 
 270      E6561B
 271 00fb A73FEF13 		.ascii	"\247?\357\023\223\243\023\3429Qc\344\014\336y=\246\250"
 271      93A313E2 
 271      395163E4 
 271      0CDE793D 
 271      A6A8
 272 010d 7C322FCA 		.ascii	"|2/\312\325F\343C\305\312\276&\353\327\016\326\216W"
 272      D546E343 
 272      C5CABE26 
 272      EBD70ED6 
 272      8E57
 273 011f B16659B5 		.ascii	"\261fY\265\326h<\271\362\337\370u\374\203\365!\024e"
 273      D6683CB9 
 273      F2DFF875 
 273      FC83F521 
 273      1465
 274 0131 71393C8F 		.ascii	"q9<\217[\200\223\234\"i\221\274@\322&9M\322Id\012\011"
 274      5B80939C 
 274      226991BC 
 274      40D22639 
 274      4DD24964 
 275 0147 EC438C56 		.ascii	"\354C\214V\2240\322\364\002\231\304\334\225\320\273"
 275      9430D2F4 
 275      0299C4DC 
 275      95D0BB
ARM GAS  /tmp/ccVnw7NL.s 			page 22


 276 0156 13FA0682 		.ascii	"\023\372\006\202\343FB\330=tb\275\362D\031\330P\026"
 276      E34642D8 
 276      3D7462BD 
 276      F24419D8 
 276      5016
 277 0168 6262B376 		.ascii	"bb\263v\240\031\032\257\275\200,\200~\273\350I3\036"
 277      A0191AAF 
 277      BD802C80 
 277      7EBBE849 
 277      331E
 278 017a 404682CF 		.ascii	"@F\202\317\303\255\245\271/\316\360\034^$'\005L\311"
 278      C3ADA5B9 
 278      2FCEF01C 
 278      5E242705 
 278      4CC9
 279 018c DA9CF6C2 		.ascii	"\332\234\366\302\006\220\3031\344w`\264\366\323_\216"
 279      0690C331 
 279      E47760B4 
 279      F6D35F8E 
 280 019c C651BA47 		.ascii	"\306Q\272G\340\251\030\023\342=B\027\011\321B[\322-"
 280      E0A91813 
 280      E23D4217 
 280      09D1425B 
 280      D22D
 281 01ae A13D90B0 		.ascii	"\241=\220\260\002R\270_`\364i\351\312L3\210\177\004"
 281      0252B85F 
 281      60F469E9 
 281      CA4C3388 
 281      7F04
 282 01c0 0E53B1DB 		.ascii	"\016S\261\333\340\355\030\335\257\340,\205\364\010\330"
 282      E0ED18DD 
 282      AFE02C85 
 282      F408D8
 283 01cf 0ABD07DB 		.ascii	"\012\275\007\333\022X\000[\023!\011\332\025c*\217\032"
 283      1258005B 
 283      132109DA 
 283      15632A8F 
 283      1A
 284 01e0 42CE24CD 		.ascii	"B\316$\315\007jB\000 \263\274w7\311RW/\315\222+m\223"
 284      076A4200 
 284      20B3BC77 
 284      37C95257 
 284      2FCD922B 
 285 01f6 0B81314D 		.ascii	"\013\2011M\2571\325\036}\213\3066\325nS\311/\3158&\371"
 285      AF31D51E 
 285      7D8BC636 
 285      D56E53C9 
 285      2FCD3826 
 286 020b 482641BF 		.ascii	"H&A\277wiB\333\340\033y\374 \306p\3752\332\352\240\030"
 286      776942DB 
 286      E01B79FC 
 286      20C670FD 
 286      32DAEAA0 
 287 0220 D5666272 		.ascii	"\325fbrD\344J\352\027\001\251\355\014um\325S\017\323"
 287      44E44AEA 
 287      1701A9ED 
 287      0C756DD5 
ARM GAS  /tmp/ccVnw7NL.s 			page 23


 287      530FD3
 288 0233 CD96F2AB 		.ascii	"\315\226\362\253\\v\324\006\37249\345\361\370\377\345"
 288      5C76D406 
 288      FA3439E5 
 288      F1F8FFE5 
 289 0243 DF301973 		.ascii	"\3370\031s\262\245\337\013\221R_\023Wk\372\376\253\326"
 289      B2A5DF0B 
 289      91525F13 
 289      576BFAFE 
 289      ABD6
 290 0255 14C0F492 		.ascii	"\024\300\364\222\342g\222\374w\023W\015#\322U\204\005"
 290      E26792FC 
 290      7713570D 
 290      23D25584 
 290      05
 291 0266 4C4B3224 		.ascii	"LK2$U\260D\362\266R6\345\360\222*\345\262*%#\033U\032"
 291      55B044F2 
 291      B65236E5 
 291      F0922AE5 
 291      B22A2523 
 292 027d 2BADC846 		.ascii	"+\255\310F]R\215\352* \227^8*\0123\204)E\350J\010\215"
 292      5D528DEA 
 292      2A20975E 
 292      382A0A33 
 292      842945E8 
 293 0294 994D86D0 		.ascii	"\231M\206\320]@Kyj\003_P\340n\000Z\324\337\347\356\237"
 293      5D404B79 
 293      6A035F50 
 293      E06E005A 
 293      D4DFE7EE 
 294 02a9 090D3853 		.ascii	"\011\0158Sh_\323\001z\271\275U-\351\237w]C\2366\251"
 294      685FD301 
 294      7AB9BD55 
 294      2DE99F77 
 294      5D439E36 
 295 02be 6988ABFA 		.ascii	"i\210\253\372\250W\323\030m=\374\372\011\307\220\364"
 295      A857D318 
 295      6D3DFCFA 
 295      09C790F4 
 296 02ce 68D27A34 		.ascii	"h\322z46E\261i>\031\347\334\215C\322\207\007t\317\255"
 296      3645B169 
 296      3E19E7DC 
 296      8D43D287 
 296      0774CFAD 
 297 02e2 F1E1281F 		.ascii	"\361\341(\037J\241\323\265Z\012],o)\264{\246\366\352"
 297      4AA1D3B5 
 297      5A0A5D2C 
 297      6F29B47B 
 297      A6F6EA
 298 02f5 F1A3E507 		.ascii	"\361\243\345\007h\366*\255&\000k\346\300\326\233\203"
 298      68F62AAD 
 298      26006BE6 
 298      C0D69B83 
 299 0305 99E93C94 		.ascii	"\231\351<\224\353#\333\233\016ZP\320\3313Z1\353\\\245"
 299      EB23DB9B 
 299      0E5A50D0 
 299      D9335A31 
ARM GAS  /tmp/ccVnw7NL.s 			page 24


 299      EB5CA5
 300 0318 8F6CEECF 		.ascii	"\217l\356\3177r\213\300\223\255\266\306+=4\002\267^"
 300      37728BC0 
 300      93ADB6C6 
 300      2B3D3402 
 300      B75E
 301 032a E95B04CB 		.ascii	"\351[\004\313(\353\327bj\265\273Z9\270\010\216Q\256"
 301      28EBD762 
 301      6AB5BB5A 
 301      39B8088E 
 301      51AE
 302 033c 4AA5EDA2 		.ascii	"J\245\355\242,>\245o\214r}\356\337\326\215\261A\"\323"
 302      2C3EA56F 
 302      8C727DEE 
 302      DFD68DB1 
 302      4122D3
 303 034f 9D37860F 		.ascii	"\2357\206\017\317lZ\330\322\361\322\322l\326\0007Rc"
 303      CF6C5AD8 
 303      D2F1D2D2 
 303      6CD60037 
 303      5263
 304 0361 D43E78FA 		.ascii	"\324>x\372\253\272\363\235\253MT\354\010ma@\246\016"
 304      ABBAF39D 
 304      AB4D54EC 
 304      086D6140 
 304      A60E
 305 0373 7744310E 		.ascii	"wD1\016\203f\344\225V\344\236u\"\207p\321\321\221Wf"
 305      8366E495 
 305      56E49E75 
 305      228770D1 
 305      D1915766 
 306 0387 771A602F 		.ascii	"w\032`/\315\250#\362?\353E\356i\217\334k\034F2\362\002"
 306      CDA823F2 
 306      3FEB45EE 
 306      698FDC6B 
 306      1C4632F2 
 307 039c 946B63C5 		.ascii	"\224kc\305\227n\241L>\031\011\335B\261\334\350\3730"
 307      976EA14C 
 307      3E1909DD 
 307      42B1DCE8 
 307      FB30
 308 03ae 32793C32 		.ascii	"2y<2a\223\317e\027\335\002eW\002\337\310f\373\365\337"
 308      6193CF65 
 308      17DD0265 
 308      5702DFC8 
 308      66FBF5DF 
 309 03c2 E0707F7E 		.ascii	"\340p\177~\260X\034<@\247\375\361\236\376\341O\363\375"
 309      B0581C3C 
 309      40A7FDF1 
 309      9EFEE14F 
 309      F3FD
 310 03d4 F97DFBF6 		.ascii	"\371}\373\366\346\206\262y`\007\207\360\200\363\331"
 310      E686B279 
 310      600787F0 
 310      80F3D9
 311 03e3 50AEB077 		.ascii	"P\256\260w\330\331\257\204\255\236/\000\323q\255I"
 311      D8D9AF84 
ARM GAS  /tmp/ccVnw7NL.s 			page 25


 311      AD9E2F00 
 311      D371AD49 
 312              		.text
 313              		.section	.gnu.lto_.symbol_nodes.ebb61f5faac79b65,"",%progbits
 314 0000 789C4DCC 		.ascii	"x\234M\314=\012\302@\020\005\3407?\273\233[\344Z\336"
 314      3D0AC240 
 314      1005E037 
 314      3FBB9B5B 
 314      E45ADE
 315 0013 66220163 		.ascii	"f\"\001c)6v66\026\336\301B\374'\251-\025\013E\323\331"
 315      29367636 
 315      3616DEC1 
 315      42FC27A9 
 315      2D150B45 
 316 0029 8B2B0693 		.ascii	"\213+\006\223i\036\337\314c\030\214%\232\341\015\014"
 316      691EDFCC 
 316      63188C25 
 316      9AE10D0C 
 317 0039 185580D9 		.ascii	"\030U\200\331tHn\015\250\011\035a\364\333f}\342-\214"
 317      74486E0D 
 317      A8091D61 
 317      F4DB667D 
 317      E22D8C
 318 004c DB0EEF60 		.ascii	"\333\016\357`\322\341\036\246\035\036`\256%U0\337|\312"
 318      D2E11EA6 
 318      1D1E60AE 
 318      255530DF 
 318      7CCA
 319 005e 884A58F8 		.ascii	"\210JX\370K4\301uP\247\242\001\263\333\251\367\315\325"
 319      4B34C175 
 319      50A7A201 
 319      B3DBA9F7 
 319      CDD5
 320 0070 E3BC1055 		.ascii	"\343\274\020U\274\236\367\271\210K\220\027\261\340\342"
 320      BC9EF7B9 
 320      884B9017 
 320      B1E0E2
 321 007f 6112D347 		.ascii	"a\022\323G_\336$> \037\327)>J\237;\370"
 321      5FDE243E 
 321      201FD729 
 321      3E4A9F3B 
 321      F8
 322              		.text
 323              		.section	.gnu.lto_.refs.ebb61f5faac79b65,"",%progbits
 324 0000 789C6362 		.ascii	"x\234cb`b\020e\200\000V\006FF&&F\010`\0012\330\230\030"
 324      60621065 
 324      80005606 
 324      46462626 
 324      46086001 
 325 0018 1900047F 		.ascii	"\031\000\004\177\000="
 325      003D
 326              		.text
 327              		.section	.gnu.lto_.decls.ebb61f5faac79b65,"",%progbits
 328 0000 789CBD59 		.ascii	"x\234\275YopTW\025\277\367\355\237\354f7\230\204\021"
 328      6F705457 
 328      15BFF7ED 
 328      9FEC6637 
ARM GAS  /tmp/ccVnw7NL.s 			page 26


 328      988411
 329 0013 D35ADA14 		.ascii	"\323Z\332\024mG\231I\266\003\005\361K\0032\323\342\207"
 329      6D479949 
 329      B60305F1 
 329      4B0332D3 
 329      E287
 330 0025 AA2376EC 		.ascii	"\252#v\354\370e\347\261y$\253\373ov_\264\370\2457\241"
 330      F865E7B1 
 330      7924ABFB 
 330      6F765FB4 
 330      F8A537A1 
 331 0039 8911A926 		.ascii	"\211\021\251&\251D*&$P\020\212X\"4-S\230\256\005\222"
 331      A9442A26 
 331      2450108A 
 331      5822342D 
 331      5398AE05 
 332 004e 40CA3411 		.ascii	"@\3124\021\003\002C\263\375\203ut\202 t\320R]\317\275"
 332      030243B3 
 332      FD837574 
 332      822074D0 
 332      525DCFBD 
 333 0062 EFBEDDF7 		.ascii	"\357\276\335\367n\336\333\335\304\251orv\357{\357\236"
 333      6EDEDBDD 
 333      C4A96F72 
 333      76EF7BEF 
 333      9E
 334 0073 737EE777 		.ascii	"s~\347w\316;\367\356\213\204$\264\312\201P\026\216\251"
 334      CE3BF7EE 
 334      8B8424B4 
 334      CA815016 
 334      8EA9
 335 0085 BB10FA0E 		.ascii	"\273\020\372\016\214\335\010\241G@\234 e \203 .\220"
 335      8CDD08A1 
 335      47409C20 
 335      65208320 
 335      2E90
 336 0097 19A41D1E 		.ascii	"\031\244\035\036\220k \377\000\271E/`\204\312A\252@"
 336      906B20FF 
 336      00B9452F 
 336      6084CA41 
 336      AA40
 337 00a9 16832CC1 		.ascii	"\026\203,\301\354\022Z\216\221\351\240:>\220\027Avq"
 337      EC125A8E 
 337      91E9A03A 
 337      3E901741 
 337      7671
 338 00bb BB8741C6 		.ascii	"\273\207A\306A\306@\206A\016\202\274\003r\011i8\250"
 338      41C64086 
 338      410E82BC 
 338      03720969 
 338      38A8
 339 00cd FFFD202F 		.ascii	"\377\375 /\203\214\202\234\0019\013r\021$\003\"\031"
 339      838C829C 
 339      01390B72 
 339      11240322 
 339      19
 340 00de B058F9A4 		.ascii	"\260X\371\244\370*8~\352g\001\210_\3000_\337\230\333"
ARM GAS  /tmp/ccVnw7NL.s 			page 27


 340      F82A387E 
 340      EA670188 
 340      5FC0305F 
 340      DF98DB
 341 00f1 A73C7D0C 		.ascii	"\247<}\014\362\021\310\177@V\010\030\350\304E|\236\356"
 341      F211C87F 
 341      40560818 
 341      E8C4457C 
 341      9EEE
 342 0103 7F9CFB6B 		.ascii	"\177\234\373k\340\330j\261\306\305 \367O\2615`\015\303"
 342      E0D86AB1 
 342      C6C520F7 
 342      4FB13560 
 342      0DC3
 343 0115 E7B0868F 		.ascii	"\347\260\206\217\342\234\004Y\015\347\367b-\206\003"
 343      E29C0459 
 343      0DE7F762 
 343      2D8603
 344 0124 205E8E49 		.ascii	" ^\216I\307y\226c\235\000\231\0029\307\343pp,Kx\236"
 344      C7799663 
 344      9D009902 
 344      39C7E370 
 344      702C4B78 
 345 0139 A85F377C 		.ascii	"\250_7|{\250\037\2205x6\177,\257\002wz=P\314\223\234"
 345      7BA81F90 
 345      3578367F 
 345      2CAF0277 
 345      7A3D50CC 
 346 014f BB5D3C9E 		.ascii	"\273]<\2361\216\337\210]\307\353\341\230\316q\254S\006"
 346      318EDF88 
 346      5DC7EBE1 
 346      98CE71AC 
 346      5306
 347 0161 BC173966 		.ascii	"\274\0279f\007\367\251c\244\371]\000\337\217\012\270"
 347      07F7A963 
 347      A4F95D00 
 347      DF8F0AB8 
 348 0171 AA2C701D 		.ascii	"\252,p\035\344\230\\%\3608c\340\321e\303\237\203\373"
 348      E4985C25 
 348      F03863E0 
 348      D165C39F 
 348      83FB
 349 0183 D1B1D0FC 		.ascii	"\321\261\320\374}\006\276k@\356\266\340\312\207\266"
 349      7D06BE6B 
 349      40EEB6E0 
 349      CA87B6
 350 0192 10D24606 		.ascii	"\020\322F\006:\310\272\261\005\325\250\233\300Q\333"
 350      3AC8BAB1 
 350      05D5A89B 
 350      C051DB
 351 01a1 F91ECC7A 		.ascii	"\371\036\314z\022\313x\201\027\2451\033\371\275\250"
 351      12CB7881 
 351      17A5311B 
 351      F9BDA8
 352 01b0 06A63F80 		.ascii	"\006\246?\200^ \244+\323\376\347\214\203\020\217\214"
 352      5E20A42B 
 352      D3FEE78C 
ARM GAS  /tmp/ccVnw7NL.s 			page 28


 352      83108F8C 
 353 01c0 77E16A08 		.ascii	"w\341j\010\267\016\243\245h?hv\021\362\356\275h\366"
 353      B70EA3A5 
 353      683F6876 
 353      11F2EEBD 
 353      68F6
 354 01d2 51DCB084 		.ascii	"Q\334\260\204\276\202\221\214\367\202=\031\357\301K"
 354      BE82918C 
 354      F7823D19 
 354      EFC14B
 355 01e1 354F24FD 		.ascii	"5O$\375\334\217\374\304\251]G\374\216\305q?\032\200"
 355      DC8FFCC4 
 355      A95D47FC 
 355      8EC5713F 
 355      1A80
 356 01f3 28D2DB46 		.ascii	"(\322\333F\177u\027\031x\003\233\202Z\204\266Q\337p"
 356      7F751719 
 356      78039B82 
 356      5A84B651 
 356      DF70
 357 0205 42B02AE3 		.ascii	"B\260*\343\006\237\016\240V\367\357d6d|\000/b#\007\313"
 357      069F0EA0 
 357      56F7EF64 
 357      36647C00 
 357      2F622307 
 358 021a 20946867 		.ascii	" \224hg\336\012\262\324\342t\034\3578\177\023\267\201"
 358      DE0AB2D4 
 358      E2741CEF 
 358      387F13B7 
 358      81
 359 022b 7D191FC4 		.ascii	"}\031\037\304^\320n\305\330\004V\306.\257\021/;\327"
 359      5ED06EC5 
 359      D80456C6 
 359      2EAF112F 
 359      3BD7
 360 023d 27507BEC 		.ascii	"'P{\3546\037\320\266\366\251\034\012]U\306O8r\372\005"
 360      361FD0B6 
 360      F6A91C0A 
 360      5D55C64F 
 360      3872FA05 
 361 0251 B00C9D19 		.ascii	"\260\014\235\031\355\346X^\004\"$4,`1\221\243\005mG"
 361      EDE6585E 
 361      04222434 
 361      2C603191 
 361      A3056D47 
 362 0265 C8613060 		.ascii	"\310a0`\315\371\254{\022:\201\365\004Z\231\343C\023"
 362      CDF9AC7B 
 362      123A81F5 
 362      045A99E3 
 362      4313
 363 0277 7C63F248 		.ascii	"|c\362H\246\375\346\230\343\227$\275\375\241\205\250"
 363      A6FDE698 
 363      E39724BD 
 363      FDA185A8 
 364 0287 87262CED 		.ascii	"\207&,\3556V\313j\335\202'\027j\372\265\221\305\264"
 364      3656CB6A 
 364      DD822717 
ARM GAS  /tmp/ccVnw7NL.s 			page 29


 364      6AFAB591 
 364      C5B4
 365 0299 3686F142 		.ascii	"6\206\361Bp\377\246\020fq+\022\272\304t\216\202\276"
 365      70FFA610 
 365      66712B12 
 365      BAC4748E 
 365      82BE
 366 02ab A9E6A646 		.ascii	"\251\346\246F\034\265\332\345\342%w\241\343gw\223\201"
 366      1CB5DAE5 
 366      E22577A1 
 366      E3677793 
 366      81
 367 02bc AD35BC58 		.ascii	"\2555\274X\322\035\244\023\267\016\335S\010w\246\357"
 367      D21DA413 
 367      B70EDD53 
 367      0877A6EF 
 368 02cc AD6B833C 		.ascii	"\255k\203<E\307Y\271tIf\354s1v\273\347\255\337scif\354"
 368      45C759B9 
 368      744966EC 
 368      733176BB 
 368      E7ADDF73 
 369 02e4 E8FC8D0D 		.ascii	"\350\374\215\015l;\177\017e\364\0043t]\022\213\330+"
 369      6C3B7F0F 
 369      65F40433 
 369      745D128B 
 369      D82B
 370 02f6 14B1D75C 		.ascii	"\024\261\327\\\304^o~\220\325\017s\277\371Du$tG\322"
 370      C45E6F7E 
 370      90D50F73 
 370      BFF94475 
 370      247447D2 
 371 030a 136A1564 		.ascii	"\023j\025d\361\032\274\372\267}\2306\020\336\257\006"
 371      F11ABCFA 
 371      B77D9836 
 371      10DEAF06 
 372 031a 561B1E7C 		.ascii	"V\033\036|\223)\212jL\354U\027Gp\255v\271x\335\\\356"
 372      93298A6A 
 372      4CEC5517 
 372      4770AD76 
 372      B978DD5C 
 373 032f E89BDDAA 		.ascii	"\350\233\335\252\264Z\266{\032\307\261O7\002\035\306"
 373      B45AB67B 
 373      1AC7B14F 
 373      37021DC6 
 374 033f 813984F9 		.ascii	"\2019\204\371<mm\351+#Z\253\324;V\307\234\355\325\012"
 374      3C6D6DE9 
 374      2B235AAB 
 374      D43B56C7 
 374      9CEDD50A 
 375 0353 814968AB 		.ascii	"\201Ih\253\343\177b?}{\244\234\364\370K\342~R\344\376"
 375      E37F623F 
 375      7D7BA49C 
 375      F4F84BE2 
 375      7E52E4FE 
 376 0367 06E37EB2 		.ascii	"\006\343~\262$\356or\356e<\310:d7\303=9o.?\024\270\354"
 376      24EE6F72 
 376      EE653CC8 
ARM GAS  /tmp/ccVnw7NL.s 			page 30


 376      3A6437C3 
 376      3D396F2E 
 377 037f 9DB3BDD9 		.ascii	"\235\263\275\331\\\356\230/\227V\207\261\307\311\370"
 377      5CEE982F 
 377      975687B1 
 377      C7C9F8
 378 038e 35FC007C 		.ascii	"5\374\000|\036\303\367\303\347(\373\234\200O\203\357"
 378      1EC3F7C3 
 378      E728FB9C 
 378      804F83EF 
 379 039e 0187D0C9 		.ascii	"\001\207\320\311\255|{\354\363xh\324\337%\353it\027"
 379      AD7C7BEC 
 379      F37868D4 
 379      DF25EB69 
 379      7417
 380 03b0 593B775E 		.ascii	"Y;w^~\377\003\274\231\365\257Kl3q\312an;E\015Ih\222"
 380      7EFF03BC 
 380      99F5AF4B 
 380      6C3371CA 
 380      616E3B45 
 381 03c8 A95C116B 		.ascii	"\251\\\021k\242o'\333;\\)^\024\317\264\246wN\367\262"
 381      A26F27DB 
 381      3B5C295E 
 381      14CFB4A6 
 381      774EF7B2 
 382 03dc 24B276D9 		.ascii	"$\262v\331Z\312\252\237}{d\222!g*\244\240\212\214\337"
 382      5ACAAA9F 
 382      7D7B6492 
 382      21672AA4 
 382      A08A8CDF 
 383 03f0 65ACBBCD 		.ascii	"e\254\273\315\235\014N\251\346?Y\003{\232_\241'e4\254"
 383      9D0C4EA9 
 383      E63F5903 
 383      7B9A5FA1 
 383      276534AC 
 384 0404 ED4E8B4E 		.ascii	"\355N\213N^\330\217\276(\374\341\344\020_\024\256\262"
 384      5ED88FBE 
 384      28FCE1E4 
 384      105F14AE 
 384      B2
 385 0415 92EC9FB7 		.ascii	"\222\354\237\267\251m\347_Y\305\266z\177a\206\366:\305"
 385      A96DE75F 
 385      59C5B67A 
 385      7F6186F6 
 385      3AC5
 386 0427 45C12D2C 		.ascii	"E\301-,\012s\010\361\377\255'\241CN\275R\346\370\250"
 386      0A7308F1 
 386      FFAD27A1 
 386      434EBD52 
 386      E6F8A8
 387 043a 5B1DC692 		.ascii	"[\035\306\222\223\3614Kp\306\374(\035q\226\260)\252"
 387      93F1344B 
 387      70C6FC28 
 387      1D7196B0 
 387      29AA
 388 044c 2CD9DF5E 		.ascii	",\331\337^\203\277}\314\337~\366\000\277\314>/\032}"
 388      83BF7DCC 
ARM GAS  /tmp/ccVnw7NL.s 			page 31


 388      DF7EF600 
 388      BFCC3E2F 
 388      1A7D
 389 045e DBAD2283 		.ascii	"\333\255\"\203\371UDX{h\363\262\323\232\311k\335\207"
 389      F9554458 
 389      7B68F3B2 
 389      D39AC96B 
 389      DD87
 390 0470 FAC94026 		.ascii	"\372\311@&s\343\275?-\356\335L\306\310u\272[\0256\331"
 390      73E3BD3F 
 390      2DEEDD4C 
 390      C6C875BA 
 390      5B1536D9 
 391 0484 8F7CDAD6 		.ascii	"\217|\332\326\322\337\371&;\277\237\225\320\264PT\010"
 391      D2DFF926 
 391      3BBF9F95 
 391      D0B45054 
 391      08
 392 0495 3D88F650 		.ascii	"=\210\366P{d\037q0kt\3765|\237\231\215\353X2^\240\300"
 392      7B641F71 
 392      306B74FE 
 392      357C9F99 
 392      8DEB5832 
 393 04ac 32B001DE 		.ascii	"2\260\001\336r\241\033wo\036\340\310\264\035\256\204"
 393      72A11B77 
 393      6F1EE0C8 
 393      B41DAE84 
 394 04bc FE3ACB87 		.ascii	"\376:\313\207f\344\346l#,\272\211/\314'\272\017\315"
 394      66E4E66C 
 394      232CBA89 
 394      2FCC27BA 
 394      0FCD
 395 04ce 3F2134BA 		.ascii	"?!4\272s'\015>\323=J\270\211\011F\306\277\005\240\237"
 395      73270D3E 
 395      D33D4AB8 
 395      890946C6 
 395      BF05A09F 
 396 04e2 47BB09E9 		.ascii	"G\273\011\351!}\312:}\275\372\251\213\316\270\005tX"
 396      217DCA3A 
 396      7DBDFAA9 
 396      8BCEB805 
 396      7458
 397 04f4 B71A9662 		.ascii	"\267\032\226b\256v\201\2525P\255\237\027\321j\310+e"
 397      AE7681AA 
 397      3550AD9F 
 397      17D16AC8 
 397      2B65
 398 0506 A9124527 		.ascii	"\251\022E'\343\363@O!-\036\003\317\327\263\244\275\022"
 398      E3F3404F 
 398      212D1E03 
 398      CFD7B3A4 
 398      BD12
 399 0518 E712764B 		.ascii	"\347\022vKL\330\277,\022v=\3357>\216\301\351\307\331"
 399      4CD8BF2C 
 399      12763DDD 
 399      373E8EC1 
 399      E9C7D9
ARM GAS  /tmp/ccVnw7NL.s 			page 32


 400 052b AC4364BA 		.ascii	"\254Cd\272\300\217\265V\251\020\323\034V\241\337P\320"
 400      C08FB556 
 400      A910D31C 
 400      56A1DF50 
 400      D0
 401 053c 5F5D964C 		.ascii	"_]\226L\037\326\231\226\361\035\026=\221JazZ$\315^\215"
 401      1FD69996 
 401      F11D163D 
 401      914A617A 
 401      5A24CD5E 
 402 0551 A1D3F33A 		.ascii	"\241\323\363:\342\357\302\374\367\340H\021=W\236\353"
 402      E2EFC2FC 
 402      F7E04811 
 402      3D579EEB 
 403 0561 36F25247 		.ascii	"6\362RG{\245\223\327\224\275\022g\253]\262\250\362\364"
 403      7BA593D7 
 403      94BD1267 
 403      AB5DB2A8 
 403      F2F4
 404 0573 9D1E5BE6 		.ascii	"\235\036[\346\013\324\370OD\346\033|\"\263\007\254\231"
 404      0BD4F84F 
 404      44E61B7C 
 404      22B307AC 
 404      99
 405 0584 9D6ED48B 		.ascii	"\235n\324\213q\230M\330b\033\251\366\244XV\025U2U\325"
 405      71984DD8 
 405      621BA9F6 
 405      A4585615 
 405      553255D5 
 406 0598 B3D6B1F5 		.ascii	"\263\326\261\365n\205\365\274-\235\3156\210\261\025"
 406      6E85F5BC 
 406      2D9DCD36 
 406      88B115
 407 05a7 6A743D05 		.ascii	"jt=\005\313\212\267A\361\\\210\376U\353\350\237\027"
 407      CB8AB741 
 407      F15C88FE 
 407      55EBE89F 
 407      17
 408 05b8 EBAABBA4 		.ascii	"\353\252\273\244\272bO\360\014{\360O1\303\366j3\006"
 408      BA624FF0 
 408      0C7BF04F 
 408      31C3F66A 
 408      3306
 409 05ca B55F6875 		.ascii	"\265_hu\245)\276Y\212b\256\262\206\336\377\306:\375"
 409      A529BE59 
 409      8A62AEB2 
 409      86DEFFC6 
 409      3AFD
 410 05dc 11B2D7E2 		.ascii	"\021\262\327\342\204\365\316f\037\232p\377\345Su\317"
 410      84F5CE66 
 410      1F9A70FF 
 410      E55375CF 
 411 05ec 93379E21 		.ascii	"\2237\236!\331\354\323s(\255~3\373\302\002u\311f\031"
 411      D9ECD373 
 411      28AD7E33 
 411      FBC20275 
 411      C96619
ARM GAS  /tmp/ccVnw7NL.s 			page 33


 412 05ff A59A0392 		.ascii	"\245\232\003\222/\217\311\224\215)\227u\343\037\264"
 412      2F8FC994 
 412      8D299775 
 412      E31FB4
 413 060e 029E7E6E 		.ascii	"\002\236~n\3704\266\006^\372\226)\373\366\311I\276\245"
 413      F834B606 
 413      5EFA9629 
 413      FBF6C949 
 413      BEA5
 414 0620 7D41A29B 		.ascii	"}A\242\233\246w\\\342\246\351*\236\377\256\311\216\202"
 414      A6775CE2 
 414      A6E92A9E 
 414      FFAEC98E 
 414      82
 415 0631 DD62E952 		.ascii	"\335b\351RN\346\374.k\347\216?\376\232o\035\3673\360"
 415      4EE6FC2E 
 415      6BE78E3F 
 415      FE9A6F1D 
 415      F733F0
 416 0644 1FB82CB6 		.ascii	"\037\270,\266\216%\231\272\335sJ\1775\361\033f\352\306"
 416      8E2599BA 
 416      DD734A7F 
 416      35F11B66 
 416      EAC6
 417 0656 BC4D6DEB 		.ascii	"\274Mm\353=\366e\266\013}\211\031\372h\026\241e\002"
 417      3DF665B6 
 417      0B7D8919 
 417      FA6816A1 
 417      6502
 418 0668 9F65663E 		.ascii	"\237ef>\313\274\371\001\177\277\366\211O\027\352\260"
 418      CBBCF901 
 418      7FBFF689 
 418      4F17EAB0 
 419 0678 DD6D5D87 		.ascii	"\335m]\207\2773\327\341\0224H\322\023\260\001\311|\366"
 419      BF33D7E1 
 419      123448D2 
 419      13B001C9 
 419      7CF6
 420 068a B7C0DD10 		.ascii	"\267\300\335\020TA\026g\033\364W\255\2759+\234-\363"
 420      54411667 
 420      1BF457AD 
 420      BD392B9C 
 420      2DF3
 421 069c 6B546AF0 		.ascii	"kTj\360H\336 561\221\336q\346\307\004\223\016\322Jw"
 421      48DE2035 
 421      363191DE 
 421      71E6C704 
 421      930ED24A 
 422 06b1 3355A88B 		.ascii	"3U\250\213\275\213\335\276\200\323\237\331\223\256\331"
 422      BD8BDDBE 
 422      80D39FD9 
 422      93AED9
 423 06c0 9EA7DFA3 		.ascii	"\236\247\337\243\333\303:\375\364\265\256\224\233Lj"
 423      DBC33AFD 
 423      F4B5AE94 
 423      9B4C6A
 424 06cf 6AACE7CA 		.ascii	"j\254\347\312\370U\211nI\217JZ.\350-m\254\217\264\227"
ARM GAS  /tmp/ccVnw7NL.s 			page 34


 424      F855896E 
 424      498F4A5A 
 424      2EE82D6D 
 424      AC8FB497 
 425 06e3 34BBDDE2 		.ascii	"4\273\335\342\377\032r\\\024V\345N;s\021W\261\311\371"
 425      FF1A725C 
 425      1456E54E 
 425      3B731157 
 425      B1C9F9
 426 06f6 80B4A936 		.ascii	"\200\264\2516\323\340\207\257T\225/;\222k+~\373\325"
 426      D3E087AF 
 426      54952F3B 
 426      926B2B7E 
 426      FBD5
 427 0708 E098018F 		.ascii	"\340\230\001\217\337\233\037T\232P\353\263 \266}na\223"
 427      DF9B1F54 
 427      9A50EBB3 
 427      20B67D6E 
 427      6193
 428 071a 25A290D0 		.ascii	"%\242\220\320\020\017_\306\364\177\006B\213\243\317"
 428      100F5FC6 
 428      F47F0642 
 428      8BA3CF
 429 0729 B01D98D7 		.ascii	"\260\035\230\327%\273\235{\177\001\255t^\213W\303\221"
 429      25BB9D7B 
 429      7F01AD74 
 429      5E8B57C3 
 429      91
 430 073a 71E23944 		.ascii	"q\3429D:i\2073R\367J\236\272\3559\320\013\0131,N\223"
 430      3A698733 
 430      52F74A9E 
 430      BAED39D0 
 430      0B0B312C 
 431 0750 F1893933 		.ascii	"\361\21193|\322\206\341j\023\303\372,\030\036\227\204"
 431      7CD286E1 
 431      6A13C3FA 
 431      2C181E97 
 431      84
 432 0761 3D928842 		.ascii	"=\222\210BB\257\233\030\346Q\367\234+\026\365\223\272"
 432      42AF9B18 
 432      E651F79C 
 432      2B16F593 
 432      BA
 433 0772 1D5FA1A0 		.ascii	"\035_\241\240\205Y2\036\233s\314\247mb.7\305|Z\214\331"
 433      8559321E 
 433      9B73CCA7 
 433      6D622E37 
 433      C57C5A8C 
 434 0787 B05B1240 		.ascii	"\260[\022@H\350\254)d\264\264\276>\240\375\305S\201"
 434      48E8AC29 
 434      64B4B4BE 
 434      3EA0FDC5 
 434      5381
 435 0799 503C1A8D 		.ascii	"P<\032\215\307`\024\011o\010\204c\241HK\243\022\010"
 435      C7601409 
 435      6F088463 
 435      A1484BA3 
ARM GAS  /tmp/ccVnw7NL.s 			page 35


 435      1208
 436 07ab 35372B72 		.ascii	"57+r\242\276\031UD\225h<\271)HO\203\252\373\261\257"
 436      A2BE1955 
 436      4495683C 
 436      B929484F 
 436      83AAFBB1 
 437 07c0 3D51BB16 		.ascii	"=Q\273\026\371\014\027\227\005ZR\311\000\325m\012"
 437      F90C1797 
 437      055A52C9 
 437      00D56D0A 
 438 07d0 85027232 		.ascii	"\205\002r2Z\027\213\307\224:E\336\020\016<\\\277\252"
 438      5A178BC7 
 438      943A45DE 
 438      100E3C5C 
 438      BFAA
 439 07e2 7E59CE66 		.ascii	"~Y\316fJmlT6\202Mw*\374C%\250\326\225\200\002\034\205"
 439      4A6D6C54 
 439      36824D77 
 439      2AFC4325 
 439      A8D69580 
 440 07f9 E2490594 		.ascii	"\342I\005\224\3740lR\324\215-\261PP\365$\222\361\357"
 440      FC306C52 
 440      D48D2DB1 
 440      5050F524 
 440      92F1EF
 441 080c 871B9564 		.ascii	"\207\033\225d\005\303\005\0370\016\252>\303\331\027"
 441      05C3051F 
 441      300EAA3E 
 441      C3D917
 442 081b 2DAC27E2 		.ascii	"-\254'\342I5\025X\363\315\307\327>\376\024\030\347\226"
 442      49351558 
 442      F3CDC7D7 
 442      3EFE1418 
 442      E796
 443 082d CB53EAF7 		.ascii	"\313S\352\367\344H\270)\026T\027\263`t\3671\345\007"
 443      E448B829 
 443      165417B3 
 443      6074F731 
 443      E507
 444 083f 140DE00E 		.ascii	"\024\015\340\016\307T\230\350i\201\357\225\017\003r"
 444      C75498E8 
 444      6981EF95 
 444      0F0372
 445 084e AB695139 		.ascii	"\253iQ9\324\034\216)\201 \004)\267D\324\240\272)\241"
 445      D41C8E29 
 445      81200429 
 445      B744D4A0 
 445      BA29A1
 446 0861 A4A8FD60 		.ascii	"\244\250\375`PWt1?\316\230\362\224\352J\310MJ\312\271"
 446      50577431 
 446      3FCE98F2 
 446      94EA4AC8 
 446      4D4ACAB9 
 447 0875 31A9284E 		.ascii	"1\251(N\012\333IIq\266\244\224F\267\026\300bc\000\261"
 447      0ADB4949 
 447      71B6A494 
 447      46B716C0 
ARM GAS  /tmp/ccVnw7NL.s 			page 36


 447      626300B1 
 448 0889 70C4C00A 		.ascii	"p\304\300\012\030\365\245\224\250\234h\206\010\202j"
 448      18F5A594 
 448      A89C6886 
 448      08826A
 449 0898 05DC0DE6 		.ascii	"\005\334\015\346\316W\025\015<\036M\204#J2\025xl\355"
 449      CE57150D 
 449      3C1E4D84 
 449      234A3215 
 449      786CED
 450 08ab 5AB0A6E3 		.ascii	"Z\260\246\343t\205b\000\272\014\240._\026T\275\301 "
 450      74856200 
 450      BA0CA02E 
 450      5F1654BD 
 450      C120
 451 08bd 1F39E0BA 		.ascii	"\0379\340\272\003\314?h\233\257T2\244WL\010\302eY\010"
 451      03CC3F68 
 451      9BAF5432 
 451      A4574C08 
 451      C2655908 
 452 08d1 C7C26A75 		.ascii	"\307\302ju\250y- Z\023\211\304Ckh\344Jce\250y\035\334"
 452      A8792D20 
 452      5A1389C4 
 452      436B68E4 
 452      4A6365A8 
 453 08e8 FEFA86EF 		.ascii	"\376\372\206\357*!\365\2530\307Eg'\034\033Z6Vk\267\214"
 453      2A21F5AB 
 453      30C74567 
 453      271C1B5A 
 453      36566BB7 
 454 08fd B3CBB54B 		.ascii	"\263\313\265K\217\002I8\341\327N\326\253\262\332\222"
 454      8F024938 
 454      E1D74ED6 
 454      ABB2DA92 
 455 090d 72AB7155 		.ascii	"r\253qU\216$<\0219\0114\252\011_\250y\275\022]\017Z"
 455      8E243C11 
 455      390934AA 
 455      095FA879 
 455      BD125D0F 
 456 0922 72C4154D 		.ascii	"r\304\025M5A\000\251M)5\034\005~X\336h$<\023tX\311\346"
 456      354100A9 
 456      4D29351C 
 456      057E58DE 
 456      68243C13 
 457 093a 7F5B0EAB 		.ascii	"\177[\016\253\337\2029\361\026\325\257\247\215%#\324"
 457      DF8239F1 
 457      16D5AFA7 
 457      8D2523D4 
 458 094a 2C273DC1 		.ascii	",'=\301 \253\266`\205>\250_\361\320\212\345\306\263"
 458      20ABB660 
 458      853EA85F 
 458      F1D08AE5 
 458      C6B3
 459 095c 95CB8C67 		.ascii	"\225\313\214g_Z\371_\363\321Z\335"
 459      5F5AF95F 
 459      F3D15ADD 
 460              		.text
ARM GAS  /tmp/ccVnw7NL.s 			page 37


 461              		.section	.gnu.lto_.symtab.ebb61f5faac79b65,"",%progbits
 462 0000 5F686561 		.ascii	"_heap_init\000\000\000\000\000\000\000\000\000\000\000"
 462      705F696E 
 462      69740000 
 462      00000000 
 462      00000000 
 463 0015 00EE0000 		.ascii	"\000\356\000\000\000chHeapObjectInit\000\000\000\000"
 463      00636848 
 463      6561704F 
 463      626A6563 
 463      74496E69 
 464 002e 00000000 		.ascii	"\000\000\000\000\000\000\000\000\364\000\000\000chH"
 464      00000000 
 464      F4000000 
 464      636848
 465 003d 65617041 		.ascii	"eapAllocAligned\000\000\000\000\000\000\000\000\000"
 465      6C6C6F63 
 465      416C6967 
 465      6E656400 
 465      00000000 
 466 0055 00000000 		.ascii	"\000\000\000\000\001\000\000chHeapFree\000\000\000\000"
 466      01000063 
 466      68486561 
 466      70467265 
 466      65000000 
 467 006a 00000000 		.ascii	"\000\000\000\000\000\000\000\000\012\001\000\000chH"
 467      00000000 
 467      0A010000 
 467      636848
 468 0079 65617053 		.ascii	"eapStatus\000\000\000\000\000\000\000\000\000\000\000"
 468      74617475 
 468      73000000 
 468      00000000 
 468      00000000 
 469 008d 00110100 		.ascii	"\000\021\001\000\000chCoreAllocAligned\000\000\002\000"
 469      00636843 
 469      6F726541 
 469      6C6C6F63 
 469      416C6967 
 470 00a8 00000000 		.ascii	"\000\000\000\000\000\000\000\000\362\000\000\000chS"
 470      00000000 
 470      F2000000 
 470      636853
 471 00b7 656D5369 		.ascii	"emSignal\000\000\002\000\000\000\000\000\000\000\000"
 471      676E616C 
 471      00000200 
 471      00000000 
 471      000000
 472 00ca 001D0100 		.ascii	"\000\035\001\000\000chSemWaitTimeout\000\000\002\000"
 472      00636853 
 472      656D5761 
 472      69745469 
 472      6D656F75 
 473 00e3 00000000 		.ascii	"\000\000\000\000\000\000\000\000\"\001\000\000"
 473      00000000 
 473      22010000 
 474              		.text
ARM GAS  /tmp/ccVnw7NL.s 			page 38


 475              		.section	.gnu.lto_.opts,"",%progbits
 476 0000 272D6D63 		.ascii	"'-mcpu=cortex-m0' '-mno-thumb-interwork' '-mthumb' "
 476      70753D63 
 476      6F727465 
 476      782D6D30 
 476      2720272D 
 477 0033 272D6767 		.ascii	"'-ggdb' '-O2' '-fomit-frame-pointer' '-falign-funct"
 477      64622720 
 477      272D4F32 
 477      2720272D 
 477      666F6D69 
 478 0066 696F6E73 		.ascii	"ions=16' '-ffunction-sections' '-fdata-sections' '-"
 478      3D313627 
 478      20272D66 
 478      66756E63 
 478      74696F6E 
 479 0099 666E6F2D 		.ascii	"fno-common' '-flto'\000"
 479      636F6D6D 
 479      6F6E2720 
 479      272D666C 
 479      746F2700 
 480              		.text
 481              		.cfi_sections	.debug_frame
 482              		.section	.text._heap_init,"ax",%progbits
 483              		.align	2
 484              		.p2align 4,,15
 485              		.global	_heap_init
 486              		.code	16
 487              		.thumb_func
 488              		.type	_heap_init, %function
 489              	_heap_init:
 490              	.LFB69:
 491              		.file 1 "../../../os/common/oslib/src/chheap.c"
 492              		.loc 1 107 0
 493              		.cfi_startproc
 494              		.loc 1 109 0
 495 0000 044B     		ldr	r3, .L2
 496 0002 054A     		ldr	r2, .L2+4
 497              		.loc 1 117 0
 498              		@ sp needed
 499              		.loc 1 109 0
 500 0004 1A60     		str	r2, [r3]
 501              		.loc 1 110 0
 502 0006 0022     		mov	r2, #0
 503 0008 9A60     		str	r2, [r3, #8]
 504              		.loc 1 111 0
 505 000a DA60     		str	r2, [r3, #12]
 506              		.loc 1 115 0
 507 000c 0122     		mov	r2, #1
 508 000e 1A61     		str	r2, [r3, #16]
 509              		.loc 1 117 0
 510 0010 7047     		bx	lr
 511              	.L3:
 512 0012 C046     		.align	2
 513              	.L2:
 514 0014 00000000 		.word	.LANCHOR0
 515 0018 00000000 		.word	chCoreAllocAligned
ARM GAS  /tmp/ccVnw7NL.s 			page 39


 516              		.cfi_endproc
 517              	.LFE69:
 518              		.size	_heap_init, .-_heap_init
 519 001c C046C046 		.section	.text.chHeapObjectInit,"ax",%progbits
 520              		.align	2
 521              		.p2align 4,,15
 522              		.global	chHeapObjectInit
 523              		.code	16
 524              		.thumb_func
 525              		.type	chHeapObjectInit, %function
 526              	chHeapObjectInit:
 527              	.LFB70:
 528              		.loc 1 130 0
 529              		.cfi_startproc
 530              	.LVL0:
 531              		.loc 1 137 0
 532 0000 0023     		mov	r3, #0
 533              		.loc 1 141 0
 534 0002 083A     		sub	r2, r2, #8
 535              	.LVL1:
 536              		.loc 1 137 0
 537 0004 0360     		str	r3, [r0]
 538              		.loc 1 139 0
 539 0006 C360     		str	r3, [r0, #12]
 540              		.loc 1 138 0
 541 0008 8160     		str	r1, [r0, #8]
 542              		.loc 1 141 0
 543 000a D208     		lsr	r2, r2, #3
 544              	.LVL2:
 545              		.loc 1 140 0
 546 000c 0B60     		str	r3, [r1]
 547              		.loc 1 145 0
 548 000e 0123     		mov	r3, #1
 549              		.loc 1 141 0
 550 0010 4A60     		str	r2, [r1, #4]
 551              		.loc 1 147 0
 552              		@ sp needed
 553              		.loc 1 145 0
 554 0012 0361     		str	r3, [r0, #16]
 555              		.loc 1 147 0
 556 0014 7047     		bx	lr
 557              		.cfi_endproc
 558              	.LFE70:
 559              		.size	chHeapObjectInit, .-chHeapObjectInit
 560 0016 C046C046 		.section	.text.chHeapAllocAligned,"ax",%progbits
 560      C046C046 
 560      C046
 561              		.align	2
 562              		.p2align 4,,15
 563              		.global	chHeapAllocAligned
 564              		.code	16
 565              		.thumb_func
 566              		.type	chHeapAllocAligned, %function
 567              	chHeapAllocAligned:
 568              	.LFB71:
 569              		.loc 1 166 0
 570              		.cfi_startproc
ARM GAS  /tmp/ccVnw7NL.s 			page 40


 571              	.LVL3:
 572 0000 F0B5     		push	{r4, r5, r6, r7, lr}
 573              		.cfi_def_cfa_offset 20
 574              		.cfi_offset 4, -20
 575              		.cfi_offset 5, -16
 576              		.cfi_offset 6, -12
 577              		.cfi_offset 7, -8
 578              		.cfi_offset 14, -4
 579 0002 5646     		mov	r6, r10
 580 0004 4D46     		mov	r5, r9
 581 0006 5F46     		mov	r7, fp
 582 0008 4446     		mov	r4, r8
 583 000a F0B4     		push	{r4, r5, r6, r7}
 584              		.cfi_def_cfa_offset 36
 585              		.cfi_offset 8, -36
 586              		.cfi_offset 9, -32
 587              		.cfi_offset 10, -28
 588              		.cfi_offset 11, -24
 589 000c 83B0     		sub	sp, sp, #12
 590              		.cfi_def_cfa_offset 48
 591              		.loc 1 166 0
 592 000e 8146     		mov	r9, r0
 593 0010 0191     		str	r1, [sp, #4]
 594 0012 161C     		mov	r6, r2
 595              		.loc 1 173 0
 596 0014 0028     		cmp	r0, #0
 597 0016 00D1     		bne	.LCB81
 598 0018 76E0     		b	.L25	@long jump
 599              	.LCB81:
 600              	.LVL4:
 601              	.L6:
 602              		.loc 1 178 0
 603 001a 072E     		cmp	r6, #7
 604 001c 00D8     		bhi	.L7
 605              		.loc 1 179 0
 606 001e 0826     		mov	r6, #8
 607              	.L7:
 608              	.LVL5:
 609              		.loc 1 183 0
 610 0020 019B     		ldr	r3, [sp, #4]
 611              		.loc 1 186 0
 612 0022 1021     		mov	r1, #16
 613              	.LVL6:
 614 0024 8A46     		mov	r10, r1
 615              		.loc 1 183 0
 616 0026 0733     		add	r3, r3, #7
 617              		.loc 1 186 0
 618 0028 CA44     		add	r10, r10, r9
 619              		.loc 1 183 0
 620 002a DB08     		lsr	r3, r3, #3
 621              		.loc 1 186 0
 622 002c 5046     		mov	r0, r10
 623 002e 0021     		mov	r1, #0
 624              		.loc 1 183 0
 625 0030 9846     		mov	r8, r3
 626              	.LVL7:
 627              		.loc 1 186 0
ARM GAS  /tmp/ccVnw7NL.s 			page 41


 628 0032 FFF7FEFF 		bl	chSemWaitTimeout
 629              	.LVL8:
 630              		.loc 1 189 0
 631 0036 4A46     		mov	r2, r9
 632              	.LBB2:
 633              		.loc 1 197 0
 634 0038 7342     		neg	r3, r6
 635              	.LBE2:
 636              		.loc 1 189 0
 637 003a 0832     		add	r2, r2, #8
 638              	.LVL9:
 639              	.LBB6:
 640              		.loc 1 197 0
 641 003c 9B46     		mov	fp, r3
 642              	.LBE6:
 643              		.loc 1 190 0
 644 003e 1368     		ldr	r3, [r2]
 645 0040 002B     		cmp	r3, #0
 646 0042 18D0     		beq	.L26
 647              	.L15:
 648              	.LVL10:
 649              	.LBB7:
 650              		.loc 1 197 0
 651 0044 0820     		mov	r0, #8
 652 0046 C018     		add	r0, r0, r3
 653 0048 8446     		mov	ip, r0
 654 004a D81D     		add	r0, r3, #7
 655 004c 5946     		mov	r1, fp
 656 004e 8019     		add	r0, r0, r6
 657 0050 0840     		and	r0, r1
 658              		.loc 1 199 0
 659 0052 5968     		ldr	r1, [r3, #4]
 660              		.loc 1 197 0
 661 0054 041C     		mov	r4, r0
 662              		.loc 1 199 0
 663 0056 4D1C     		add	r5, r1, #1
 664 0058 ED00     		lsl	r5, r5, #3
 665              		.loc 1 197 0
 666 005a 083C     		sub	r4, r4, #8
 667              	.LVL11:
 668              		.loc 1 199 0
 669 005c 5F19     		add	r7, r3, r5
 670 005e BC42     		cmp	r4, r7
 671 0060 05D2     		bcs	.L9
 672              		.loc 1 199 0 is_stmt 0 discriminator 1
 673 0062 083D     		sub	r5, r5, #8
 674 0064 1F1B     		sub	r7, r3, r4
 675 0066 7F19     		add	r7, r7, r5
 676 0068 FF10     		asr	r7, r7, #3
 677 006a B845     		cmp	r8, r7
 678 006c 1DD9     		bls	.L27
 679              	.L9:
 680 006e 1A1C     		mov	r2, r3
 681              	.LVL12:
 682              	.LBE7:
 683              		.loc 1 190 0 is_stmt 1 discriminator 1
 684 0070 1368     		ldr	r3, [r2]
ARM GAS  /tmp/ccVnw7NL.s 			page 42


 685              	.LVL13:
 686 0072 002B     		cmp	r3, #0
 687 0074 E6D1     		bne	.L15
 688              	.LVL14:
 689              	.L26:
 690              		.loc 1 259 0
 691 0076 5046     		mov	r0, r10
 692 0078 FFF7FEFF 		bl	chSemSignal
 693              	.LVL15:
 694              		.loc 1 263 0
 695 007c 4946     		mov	r1, r9
 696 007e 0B68     		ldr	r3, [r1]
 697 0080 002B     		cmp	r3, #0
 698 0082 48D0     		beq	.L17
 699              	.LVL16:
 700              		.loc 1 264 0
 701 0084 4046     		mov	r0, r8
 702 0086 0130     		add	r0, r0, #1
 703 0088 C000     		lsl	r0, r0, #3
 704 008a 311C     		mov	r1, r6
 705              	.LVL17:
 706 008c 9847     		blx	r3
 707              	.LVL18:
 708              		.loc 1 265 0
 709 008e 0028     		cmp	r0, #0
 710 0090 41D0     		beq	.L17
 711              		.loc 1 267 0
 712 0092 019E     		ldr	r6, [sp, #4]
 713              	.LVL19:
 714              		.loc 1 266 0
 715 0094 4A46     		mov	r2, r9
 716 0096 0260     		str	r2, [r0]
 717              		.loc 1 267 0
 718 0098 4660     		str	r6, [r0, #4]
 719              		.loc 1 270 0
 720 009a 0830     		add	r0, r0, #8
 721              	.LVL20:
 722              	.L14:
 723              		.loc 1 276 0
 724 009c 03B0     		add	sp, sp, #12
 725              		@ sp needed
 726              	.LVL21:
 727              	.LVL22:
 728              	.LVL23:
 729 009e 3CBC     		pop	{r2, r3, r4, r5}
 730 00a0 9046     		mov	r8, r2
 731 00a2 9946     		mov	r9, r3
 732 00a4 A246     		mov	r10, r4
 733 00a6 AB46     		mov	fp, r5
 734 00a8 F0BD     		pop	{r4, r5, r6, r7, pc}
 735              	.LVL24:
 736              	.L27:
 737 00aa 3E1C     		mov	r6, r7
 738              	.LVL25:
 739 00ac 6746     		mov	r7, ip
 740 00ae AC46     		mov	ip, r5
 741 00b0 351C     		mov	r5, r6
ARM GAS  /tmp/ccVnw7NL.s 			page 43


 742              	.LBB8:
 743              		.loc 1 203 0
 744 00b2 9C42     		cmp	r4, r3
 745 00b4 16D8     		bhi	.L28
 746              		.loc 1 227 0
 747 00b6 8845     		cmp	r8, r1
 748 00b8 29D0     		beq	.L29
 749              	.LBB3:
 750              		.loc 1 235 0
 751 00ba 4146     		mov	r1, r8
 752 00bc 0131     		add	r1, r1, #1
 753              		.loc 1 236 0
 754 00be 1868     		ldr	r0, [r3]
 755              		.loc 1 235 0
 756 00c0 C900     		lsl	r1, r1, #3
 757 00c2 5918     		add	r1, r3, r1
 758              	.LVL26:
 759              		.loc 1 236 0
 760 00c4 0860     		str	r0, [r1]
 761              		.loc 1 237 0
 762 00c6 581A     		sub	r0, r3, r1
 763 00c8 6044     		add	r0, r0, ip
 764 00ca C010     		asr	r0, r0, #3
 765 00cc 4860     		str	r0, [r1, #4]
 766              		.loc 1 238 0
 767 00ce 1C1C     		mov	r4, r3
 768              	.LVL27:
 769 00d0 1160     		str	r1, [r2]
 770              	.LVL28:
 771              	.L12:
 772              	.LBE3:
 773              		.loc 1 243 0
 774 00d2 019E     		ldr	r6, [sp, #4]
 775              		.loc 1 244 0
 776 00d4 4846     		mov	r0, r9
 777 00d6 2060     		str	r0, [r4]
 778              		.loc 1 243 0
 779 00d8 6660     		str	r6, [r4, #4]
 780              		.loc 1 247 0
 781 00da 5046     		mov	r0, r10
 782 00dc FFF7FEFF 		bl	chSemSignal
 783              	.LVL29:
 784              		.loc 1 250 0
 785 00e0 381C     		mov	r0, r7
 786 00e2 DBE7     		b	.L14
 787              	.LVL30:
 788              	.L28:
 789              	.LBB4:
 790              		.loc 1 208 0
 791 00e4 E71B     		sub	r7, r4, r7
 792 00e6 FF10     		asr	r7, r7, #3
 793 00e8 5F60     		str	r7, [r3, #4]
 794              		.loc 1 209 0
 795 00ea B045     		cmp	r8, r6
 796 00ec 0AD2     		bcs	.L23
 797              	.LBB5:
 798              		.loc 1 214 0
ARM GAS  /tmp/ccVnw7NL.s 			page 44


 799 00ee 4246     		mov	r2, r8
 800              	.LVL31:
 801              		.loc 1 215 0
 802 00f0 4646     		mov	r6, r8
 803 00f2 F143     		mvn	r1, r6
 804              		.loc 1 214 0
 805 00f4 0132     		add	r2, r2, #1
 806              		.loc 1 215 0
 807 00f6 4D19     		add	r5, r1, r5
 808              	.LVL32:
 809              		.loc 1 214 0
 810 00f8 D200     		lsl	r2, r2, #3
 811              		.loc 1 218 0
 812 00fa 1968     		ldr	r1, [r3]
 813              		.loc 1 214 0
 814 00fc A218     		add	r2, r4, r2
 815              	.LVL33:
 816              		.loc 1 215 0
 817 00fe 5560     		str	r5, [r2, #4]
 818              		.loc 1 218 0
 819 0100 1160     		str	r1, [r2]
 820              		.loc 1 219 0
 821 0102 1A60     		str	r2, [r3]
 822              	.LVL34:
 823              	.L23:
 824 0104 071C     		mov	r7, r0
 825 0106 E4E7     		b	.L12
 826              	.LVL35:
 827              	.L25:
 828              	.LBE5:
 829              	.LBE4:
 830              	.LBE8:
 831              		.loc 1 174 0
 832 0108 0448     		ldr	r0, .L30
 833              	.LVL36:
 834 010a 8146     		mov	r9, r0
 835              	.LVL37:
 836 010c 85E7     		b	.L6
 837              	.LVL38:
 838              	.L29:
 839              	.LBB9:
 840              		.loc 1 229 0
 841 010e 1E68     		ldr	r6, [r3]
 842 0110 1C1C     		mov	r4, r3
 843              	.LVL39:
 844 0112 1660     		str	r6, [r2]
 845 0114 DDE7     		b	.L12
 846              	.LVL40:
 847              	.L17:
 848              	.LBE9:
 849              		.loc 1 275 0
 850 0116 0020     		mov	r0, #0
 851 0118 C0E7     		b	.L14
 852              	.L31:
 853 011a C046     		.align	2
 854              	.L30:
 855 011c 00000000 		.word	.LANCHOR0
ARM GAS  /tmp/ccVnw7NL.s 			page 45


 856              		.cfi_endproc
 857              	.LFE71:
 858              		.size	chHeapAllocAligned, .-chHeapAllocAligned
 859              		.section	.text.chHeapFree,"ax",%progbits
 860              		.align	2
 861              		.p2align 4,,15
 862              		.global	chHeapFree
 863              		.code	16
 864              		.thumb_func
 865              		.type	chHeapFree, %function
 866              	chHeapFree:
 867              	.LFB72:
 868              		.loc 1 285 0
 869              		.cfi_startproc
 870              	.LVL41:
 871 0000 70B5     		push	{r4, r5, r6, lr}
 872              		.cfi_def_cfa_offset 16
 873              		.cfi_offset 4, -16
 874              		.cfi_offset 5, -12
 875              		.cfi_offset 6, -8
 876              		.cfi_offset 14, -4
 877              		.loc 1 292 0
 878 0002 041C     		mov	r4, r0
 879 0004 083C     		sub	r4, r4, #8
 880              	.LVL42:
 881              		.loc 1 298 0
 882 0006 6368     		ldr	r3, [r4, #4]
 883              		.loc 1 294 0
 884 0008 2668     		ldr	r6, [r4]
 885              	.LVL43:
 886              		.loc 1 298 0
 887 000a 0733     		add	r3, r3, #7
 888              		.loc 1 299 0
 889 000c DB08     		lsr	r3, r3, #3
 890              		.loc 1 295 0
 891 000e 351C     		mov	r5, r6
 892              		.loc 1 302 0
 893 0010 1036     		add	r6, r6, #16
 894              	.LVL44:
 895              		.loc 1 298 0
 896 0012 6360     		str	r3, [r4, #4]
 897              		.loc 1 295 0
 898 0014 0835     		add	r5, r5, #8
 899              	.LVL45:
 900              		.loc 1 302 0
 901 0016 301C     		mov	r0, r6
 902              	.LVL46:
 903 0018 0021     		mov	r1, #0
 904 001a FFF7FEFF 		bl	chSemWaitTimeout
 905              	.LVL47:
 906              		.loc 1 295 0
 907 001e 2B1C     		mov	r3, r5
 908              	.LVL48:
 909              	.L39:
 910              		.loc 1 307 0
 911 0020 AB42     		cmp	r3, r5
 912 0022 04D0     		beq	.L33
ARM GAS  /tmp/ccVnw7NL.s 			page 46


 913              	.L44:
 914              		.loc 1 307 0 is_stmt 0 discriminator 2
 915 0024 A342     		cmp	r3, r4
 916 0026 02D3     		bcc	.L33
 917 0028 1B68     		ldr	r3, [r3]
 918              	.LVL49:
 919              		.loc 1 307 0
 920 002a AB42     		cmp	r3, r5
 921 002c FAD1     		bne	.L44
 922              	.L33:
 923              		.loc 1 308 0 is_stmt 1 discriminator 1
 924 002e 1A68     		ldr	r2, [r3]
 925              		.loc 1 307 0 discriminator 1
 926 0030 002A     		cmp	r2, #0
 927 0032 03D0     		beq	.L35
 928              		.loc 1 308 0
 929 0034 9442     		cmp	r4, r2
 930 0036 01D3     		bcc	.L35
 931 0038 131C     		mov	r3, r2
 932              	.LVL50:
 933              		.loc 1 326 0
 934 003a F1E7     		b	.L39
 935              	.LVL51:
 936              	.L35:
 937              		.loc 1 313 0
 938 003c 6168     		ldr	r1, [r4, #4]
 939              		.loc 1 310 0
 940 003e 2260     		str	r2, [r4]
 941              		.loc 1 311 0
 942 0040 1C60     		str	r4, [r3]
 943              		.loc 1 313 0
 944 0042 4A1C     		add	r2, r1, #1
 945 0044 D200     		lsl	r2, r2, #3
 946 0046 2068     		ldr	r0, [r4]
 947 0048 A218     		add	r2, r4, r2
 948 004a 8242     		cmp	r2, r0
 949 004c 09D0     		beq	.L45
 950              		.loc 1 318 0
 951 004e 5A68     		ldr	r2, [r3, #4]
 952 0050 511C     		add	r1, r2, #1
 953 0052 C900     		lsl	r1, r1, #3
 954 0054 5918     		add	r1, r3, r1
 955 0056 8C42     		cmp	r4, r1
 956 0058 0FD0     		beq	.L46
 957              	.LVL52:
 958              	.L38:
 959              		.loc 1 329 0
 960 005a 301C     		mov	r0, r6
 961 005c FFF7FEFF 		bl	chSemSignal
 962              	.LVL53:
 963              		.loc 1 332 0
 964              		@ sp needed
 965              	.LVL54:
 966              	.LVL55:
 967 0060 70BD     		pop	{r4, r5, r6, pc}
 968              	.LVL56:
 969              	.L45:
ARM GAS  /tmp/ccVnw7NL.s 			page 47


 970              		.loc 1 315 0
 971 0062 5068     		ldr	r0, [r2, #4]
 972              		.loc 1 316 0
 973 0064 1268     		ldr	r2, [r2]
 974              		.loc 1 315 0
 975 0066 0918     		add	r1, r1, r0
 976 0068 0131     		add	r1, r1, #1
 977 006a 6160     		str	r1, [r4, #4]
 978              		.loc 1 316 0
 979 006c 2260     		str	r2, [r4]
 980              		.loc 1 318 0
 981 006e 5A68     		ldr	r2, [r3, #4]
 982 0070 511C     		add	r1, r2, #1
 983 0072 C900     		lsl	r1, r1, #3
 984 0074 5918     		add	r1, r3, r1
 985 0076 8C42     		cmp	r4, r1
 986 0078 EFD1     		bne	.L38
 987              	.L46:
 988              		.loc 1 320 0
 989 007a 6168     		ldr	r1, [r4, #4]
 990              		.loc 1 321 0
 991 007c 2468     		ldr	r4, [r4]
 992              	.LVL57:
 993              		.loc 1 320 0
 994 007e 5218     		add	r2, r2, r1
 995 0080 0132     		add	r2, r2, #1
 996 0082 5A60     		str	r2, [r3, #4]
 997              		.loc 1 321 0
 998 0084 1C60     		str	r4, [r3]
 999 0086 E8E7     		b	.L38
 1000              		.cfi_endproc
 1001              	.LFE72:
 1002              		.size	chHeapFree, .-chHeapFree
 1003 0088 C046C046 		.section	.text.chHeapStatus,"ax",%progbits
 1003      C046C046 
 1004              		.align	2
 1005              		.p2align 4,,15
 1006              		.global	chHeapStatus
 1007              		.code	16
 1008              		.thumb_func
 1009              		.type	chHeapStatus, %function
 1010              	chHeapStatus:
 1011              	.LFB73:
 1012              		.loc 1 349 0
 1013              		.cfi_startproc
 1014              	.LVL58:
 1015 0000 F0B5     		push	{r4, r5, r6, r7, lr}
 1016              		.cfi_def_cfa_offset 20
 1017              		.cfi_offset 4, -20
 1018              		.cfi_offset 5, -16
 1019              		.cfi_offset 6, -12
 1020              		.cfi_offset 7, -8
 1021              		.cfi_offset 14, -4
 1022 0002 5746     		mov	r7, r10
 1023 0004 4E46     		mov	r6, r9
 1024 0006 4546     		mov	r5, r8
 1025 0008 E0B4     		push	{r5, r6, r7}
ARM GAS  /tmp/ccVnw7NL.s 			page 48


 1026              		.cfi_def_cfa_offset 32
 1027              		.cfi_offset 8, -32
 1028              		.cfi_offset 9, -28
 1029              		.cfi_offset 10, -24
 1030              		.loc 1 349 0
 1031 000a 041C     		mov	r4, r0
 1032 000c 8A46     		mov	r10, r1
 1033 000e 9146     		mov	r9, r2
 1034              		.loc 1 353 0
 1035 0010 28D0     		beq	.L65
 1036              	.L48:
 1037              	.LVL59:
 1038              		.loc 1 357 0
 1039 0012 1023     		mov	r3, #16
 1040 0014 1B19     		add	r3, r3, r4
 1041 0016 181C     		mov	r0, r3
 1042 0018 0021     		mov	r1, #0
 1043              	.LVL60:
 1044 001a 9846     		mov	r8, r3
 1045 001c FFF7FEFF 		bl	chSemWaitTimeout
 1046              	.LVL61:
 1047              		.loc 1 362 0
 1048 0020 A368     		ldr	r3, [r4, #8]
 1049              		.loc 1 359 0
 1050 0022 0027     		mov	r7, #0
 1051              		.loc 1 358 0
 1052 0024 0026     		mov	r6, #0
 1053              		.loc 1 360 0
 1054 0026 0025     		mov	r5, #0
 1055              		.loc 1 362 0
 1056 0028 002B     		cmp	r3, #0
 1057 002a 08D0     		beq	.L49
 1058              	.LVL62:
 1059              	.L51:
 1060              	.LBB10:
 1061              		.loc 1 363 0
 1062 002c 5C68     		ldr	r4, [r3, #4]
 1063              	.LVL63:
 1064              		.loc 1 366 0
 1065 002e 0135     		add	r5, r5, #1
 1066              	.LVL64:
 1067              		.loc 1 367 0
 1068 0030 3619     		add	r6, r6, r4
 1069              	.LVL65:
 1070 0032 A742     		cmp	r7, r4
 1071 0034 00D2     		bcs	.L50
 1072 0036 271C     		mov	r7, r4
 1073              	.LVL66:
 1074              	.L50:
 1075              	.LBE10:
 1076              		.loc 1 362 0
 1077 0038 1B68     		ldr	r3, [r3]
 1078              	.LVL67:
 1079 003a 002B     		cmp	r3, #0
 1080 003c F6D1     		bne	.L51
 1081              	.LVL68:
 1082              	.L49:
ARM GAS  /tmp/ccVnw7NL.s 			page 49


 1083              		.loc 1 376 0
 1084 003e 5346     		mov	r3, r10
 1085 0040 002B     		cmp	r3, #0
 1086 0042 01D0     		beq	.L52
 1087              	.LVL69:
 1088              		.loc 1 377 0
 1089 0044 F600     		lsl	r6, r6, #3
 1090 0046 1E60     		str	r6, [r3]
 1091              	.L52:
 1092              		.loc 1 381 0
 1093 0048 4B46     		mov	r3, r9
 1094              	.LVL70:
 1095 004a 002B     		cmp	r3, #0
 1096 004c 01D0     		beq	.L53
 1097              	.LVL71:
 1098              		.loc 1 382 0
 1099 004e FF00     		lsl	r7, r7, #3
 1100 0050 1F60     		str	r7, [r3]
 1101              	.L53:
 1102              		.loc 1 384 0
 1103 0052 4046     		mov	r0, r8
 1104 0054 FFF7FEFF 		bl	chSemSignal
 1105              	.LVL72:
 1106              		.loc 1 387 0
 1107              		@ sp needed
 1108 0058 281C     		mov	r0, r5
 1109              	.LVL73:
 1110              	.LVL74:
 1111 005a 1CBC     		pop	{r2, r3, r4}
 1112 005c 9046     		mov	r8, r2
 1113 005e 9946     		mov	r9, r3
 1114 0060 A246     		mov	r10, r4
 1115 0062 F0BD     		pop	{r4, r5, r6, r7, pc}
 1116              	.LVL75:
 1117              	.L65:
 1118              		.loc 1 354 0
 1119 0064 004C     		ldr	r4, .L66
 1120 0066 D4E7     		b	.L48
 1121              	.L67:
 1122              		.align	2
 1123              	.L66:
 1124 0068 00000000 		.word	.LANCHOR0
 1125              		.cfi_endproc
 1126              	.LFE73:
 1127              		.size	chHeapStatus, .-chHeapStatus
 1128 006c C046C046 		.section	.bss.default_heap,"aw",%nobits
 1129              		.align	3
 1130              		.set	.LANCHOR0,. + 0
 1131              		.type	default_heap, %object
 1132              		.size	default_heap, 24
 1133              	default_heap:
 1134 0000 00000000 		.space	24
 1134      00000000 
 1134      00000000 
 1134      00000000 
 1134      00000000 
 1135              		.text
ARM GAS  /tmp/ccVnw7NL.s 			page 50


 1136              	.Letext0:
 1137              		.file 2 "/usr/lib/gcc/arm-none-eabi/4.8.2/include/stddef.h"
 1138              		.file 3 "/usr/include/newlib/machine/_default_types.h"
 1139              		.file 4 "/usr/include/newlib/stdint.h"
 1140              		.file 5 "../../../os/common/ports/ARMCMx/compilers/GCC/chtypes.h"
 1141              		.file 6 "../../../os/nil/include/ch.h"
 1142              		.file 7 "../../../os/common/ports/ARMCMx/chcore.h"
 1143              		.file 8 "../../../os/common/oslib/include/chmemcore.h"
 1144              		.file 9 "../../../os/common/oslib/include/chheap.h"
 1145              		.section	.debug_info,"",%progbits
 1146              	.Ldebug_info0:
 1147 0000 7A050000 		.4byte	0x57a
 1148 0004 0400     		.2byte	0x4
 1149 0006 00000000 		.4byte	.Ldebug_abbrev0
 1150 000a 04       		.byte	0x4
 1151 000b 01       		.uleb128 0x1
 1152 000c 07000000 		.4byte	.LASF53
 1153 0010 01       		.byte	0x1
 1154 0011 DA020000 		.4byte	.LASF54
 1155 0015 AB010000 		.4byte	.LASF55
 1156 0019 30000000 		.4byte	.Ldebug_ranges0+0x30
 1157 001d 00000000 		.4byte	0
 1158 0021 00000000 		.4byte	.Ldebug_line0
 1159 0025 02       		.uleb128 0x2
 1160 0026 04       		.byte	0x4
 1161 0027 05       		.byte	0x5
 1162 0028 696E7400 		.ascii	"int\000"
 1163 002c 03       		.uleb128 0x3
 1164 002d C4000000 		.4byte	.LASF5
 1165 0031 02       		.byte	0x2
 1166 0032 D4       		.byte	0xd4
 1167 0033 37000000 		.4byte	0x37
 1168 0037 04       		.uleb128 0x4
 1169 0038 04       		.byte	0x4
 1170 0039 07       		.byte	0x7
 1171 003a 1F030000 		.4byte	.LASF0
 1172 003e 04       		.uleb128 0x4
 1173 003f 01       		.byte	0x1
 1174 0040 06       		.byte	0x6
 1175 0041 6D010000 		.4byte	.LASF1
 1176 0045 04       		.uleb128 0x4
 1177 0046 01       		.byte	0x1
 1178 0047 08       		.byte	0x8
 1179 0048 53010000 		.4byte	.LASF2
 1180 004c 04       		.uleb128 0x4
 1181 004d 02       		.byte	0x2
 1182 004e 05       		.byte	0x5
 1183 004f BA000000 		.4byte	.LASF3
 1184 0053 04       		.uleb128 0x4
 1185 0054 02       		.byte	0x2
 1186 0055 07       		.byte	0x7
 1187 0056 FB010000 		.4byte	.LASF4
 1188 005a 03       		.uleb128 0x3
 1189 005b AE020000 		.4byte	.LASF6
 1190 005f 03       		.byte	0x3
 1191 0060 37       		.byte	0x37
 1192 0061 65000000 		.4byte	0x65
ARM GAS  /tmp/ccVnw7NL.s 			page 51


 1193 0065 04       		.uleb128 0x4
 1194 0066 04       		.byte	0x4
 1195 0067 05       		.byte	0x5
 1196 0068 34010000 		.4byte	.LASF7
 1197 006c 03       		.uleb128 0x3
 1198 006d 98020000 		.4byte	.LASF8
 1199 0071 03       		.byte	0x3
 1200 0072 38       		.byte	0x38
 1201 0073 77000000 		.4byte	0x77
 1202 0077 04       		.uleb128 0x4
 1203 0078 04       		.byte	0x4
 1204 0079 07       		.byte	0x7
 1205 007a 73020000 		.4byte	.LASF9
 1206 007e 04       		.uleb128 0x4
 1207 007f 08       		.byte	0x8
 1208 0080 05       		.byte	0x5
 1209 0081 E2000000 		.4byte	.LASF10
 1210 0085 03       		.uleb128 0x3
 1211 0086 5C020000 		.4byte	.LASF11
 1212 008a 03       		.byte	0x3
 1213 008b 4E       		.byte	0x4e
 1214 008c 90000000 		.4byte	0x90
 1215 0090 04       		.uleb128 0x4
 1216 0091 08       		.byte	0x8
 1217 0092 07       		.byte	0x7
 1218 0093 82010000 		.4byte	.LASF12
 1219 0097 03       		.uleb128 0x3
 1220 0098 3D010000 		.4byte	.LASF13
 1221 009c 04       		.byte	0x4
 1222 009d 41       		.byte	0x41
 1223 009e 5A000000 		.4byte	0x5a
 1224 00a2 03       		.uleb128 0x3
 1225 00a3 99010000 		.4byte	.LASF14
 1226 00a7 04       		.byte	0x4
 1227 00a8 42       		.byte	0x42
 1228 00a9 6C000000 		.4byte	0x6c
 1229 00ad 03       		.uleb128 0x3
 1230 00ae 79010000 		.4byte	.LASF15
 1231 00b2 04       		.byte	0x4
 1232 00b3 4E       		.byte	0x4e
 1233 00b4 85000000 		.4byte	0x85
 1234 00b8 03       		.uleb128 0x3
 1235 00b9 32030000 		.4byte	.LASF16
 1236 00bd 05       		.byte	0x5
 1237 00be 41       		.byte	0x41
 1238 00bf 97000000 		.4byte	0x97
 1239 00c3 03       		.uleb128 0x3
 1240 00c4 3F020000 		.4byte	.LASF17
 1241 00c8 05       		.byte	0x5
 1242 00c9 45       		.byte	0x45
 1243 00ca 97000000 		.4byte	0x97
 1244 00ce 05       		.uleb128 0x5
 1245 00cf 0E020000 		.4byte	.LASF18
 1246 00d3 06       		.byte	0x6
 1247 00d4 D001     		.2byte	0x1d0
 1248 00d6 A2000000 		.4byte	0xa2
 1249 00da 04       		.uleb128 0x4
ARM GAS  /tmp/ccVnw7NL.s 			page 52


 1250 00db 04       		.byte	0x4
 1251 00dc 07       		.byte	0x7
 1252 00dd CB000000 		.4byte	.LASF19
 1253 00e1 06       		.uleb128 0x6
 1254 00e2 04       		.byte	0x4
 1255 00e3 03       		.uleb128 0x3
 1256 00e4 BE020000 		.4byte	.LASF20
 1257 00e8 07       		.byte	0x7
 1258 00e9 6D       		.byte	0x6d
 1259 00ea AD000000 		.4byte	0xad
 1260 00ee 05       		.uleb128 0x5
 1261 00ef 61010000 		.4byte	.LASF21
 1262 00f3 06       		.byte	0x6
 1263 00f4 E101     		.2byte	0x1e1
 1264 00f6 FA000000 		.4byte	0xfa
 1265 00fa 07       		.uleb128 0x7
 1266 00fb 26010000 		.4byte	.LASF25
 1267 00ff 04       		.byte	0x4
 1268 0100 06       		.byte	0x6
 1269 0101 E601     		.2byte	0x1e6
 1270 0103 15010000 		.4byte	0x115
 1271 0107 08       		.uleb128 0x8
 1272 0108 636E7400 		.ascii	"cnt\000"
 1273 010c 06       		.byte	0x6
 1274 010d E701     		.2byte	0x1e7
 1275 010f 15010000 		.4byte	0x115
 1276 0113 00       		.byte	0
 1277 0114 00       		.byte	0
 1278 0115 09       		.uleb128 0x9
 1279 0116 C3000000 		.4byte	0xc3
 1280 011a 04       		.uleb128 0x4
 1281 011b 01       		.byte	0x1
 1282 011c 08       		.byte	0x8
 1283 011d 18020000 		.4byte	.LASF22
 1284 0121 0A       		.uleb128 0xa
 1285 0122 04       		.byte	0x4
 1286 0123 EE000000 		.4byte	0xee
 1287 0127 03       		.uleb128 0x3
 1288 0128 EE010000 		.4byte	.LASF23
 1289 012c 08       		.byte	0x8
 1290 012d 47       		.byte	0x47
 1291 012e 32010000 		.4byte	0x132
 1292 0132 0A       		.uleb128 0xa
 1293 0133 04       		.byte	0x4
 1294 0134 38010000 		.4byte	0x138
 1295 0138 0B       		.uleb128 0xb
 1296 0139 E1000000 		.4byte	0xe1
 1297 013d 4C010000 		.4byte	0x14c
 1298 0141 0C       		.uleb128 0xc
 1299 0142 2C000000 		.4byte	0x2c
 1300 0146 0C       		.uleb128 0xc
 1301 0147 37000000 		.4byte	0x37
 1302 014b 00       		.byte	0
 1303 014c 03       		.uleb128 0x3
 1304 014d 24020000 		.4byte	.LASF24
 1305 0151 09       		.byte	0x9
 1306 0152 48       		.byte	0x48
ARM GAS  /tmp/ccVnw7NL.s 			page 53


 1307 0153 57010000 		.4byte	0x157
 1308 0157 0D       		.uleb128 0xd
 1309 0158 45020000 		.4byte	.LASF26
 1310 015c 18       		.byte	0x18
 1311 015d 09       		.byte	0x9
 1312 015e 61       		.byte	0x61
 1313 015f 88010000 		.4byte	0x188
 1314 0163 0E       		.uleb128 0xe
 1315 0164 A2010000 		.4byte	.LASF27
 1316 0168 09       		.byte	0x9
 1317 0169 62       		.byte	0x62
 1318 016a 27010000 		.4byte	0x127
 1319 016e 00       		.byte	0
 1320 016f 0E       		.uleb128 0xe
 1321 0170 00000000 		.4byte	.LASF28
 1322 0174 09       		.byte	0x9
 1323 0175 64       		.byte	0x64
 1324 0176 88010000 		.4byte	0x188
 1325 017a 08       		.byte	0x8
 1326 017b 0F       		.uleb128 0xf
 1327 017c 73656D00 		.ascii	"sem\000"
 1328 0180 09       		.byte	0x9
 1329 0181 68       		.byte	0x68
 1330 0182 EE000000 		.4byte	0xee
 1331 0186 10       		.byte	0x10
 1332 0187 00       		.byte	0
 1333 0188 03       		.uleb128 0x3
 1334 0189 D4000000 		.4byte	.LASF29
 1335 018d 09       		.byte	0x9
 1336 018e 4D       		.byte	0x4d
 1337 018f 93010000 		.4byte	0x193
 1338 0193 10       		.uleb128 0x10
 1339 0194 CE020000 		.4byte	.LASF56
 1340 0198 08       		.byte	0x8
 1341 0199 09       		.byte	0x9
 1342 019a 52       		.byte	0x52
 1343 019b C1010000 		.4byte	0x1c1
 1344 019f 11       		.uleb128 0x11
 1345 01a0 B8020000 		.4byte	.LASF30
 1346 01a4 09       		.byte	0x9
 1347 01a5 53       		.byte	0x53
 1348 01a6 E3000000 		.4byte	0xe3
 1349 01aa 11       		.uleb128 0x11
 1350 01ab 14010000 		.4byte	.LASF31
 1351 01af 09       		.byte	0x9
 1352 01b0 57       		.byte	0x57
 1353 01b1 C1010000 		.4byte	0x1c1
 1354 01b5 11       		.uleb128 0x11
 1355 01b6 C9020000 		.4byte	.LASF32
 1356 01ba 09       		.byte	0x9
 1357 01bb 5B       		.byte	0x5b
 1358 01bc E8010000 		.4byte	0x1e8
 1359 01c0 00       		.byte	0
 1360 01c1 12       		.uleb128 0x12
 1361 01c2 08       		.byte	0x8
 1362 01c3 09       		.byte	0x9
 1363 01c4 54       		.byte	0x54
ARM GAS  /tmp/ccVnw7NL.s 			page 54


 1364 01c5 E2010000 		.4byte	0x1e2
 1365 01c9 0E       		.uleb128 0xe
 1366 01ca 38030000 		.4byte	.LASF33
 1367 01ce 09       		.byte	0x9
 1368 01cf 55       		.byte	0x55
 1369 01d0 E2010000 		.4byte	0x1e2
 1370 01d4 00       		.byte	0
 1371 01d5 0E       		.uleb128 0xe
 1372 01d6 2C030000 		.4byte	.LASF34
 1373 01da 09       		.byte	0x9
 1374 01db 56       		.byte	0x56
 1375 01dc 2C000000 		.4byte	0x2c
 1376 01e0 04       		.byte	0x4
 1377 01e1 00       		.byte	0
 1378 01e2 0A       		.uleb128 0xa
 1379 01e3 04       		.byte	0x4
 1380 01e4 88010000 		.4byte	0x188
 1381 01e8 12       		.uleb128 0x12
 1382 01e9 08       		.byte	0x8
 1383 01ea 09       		.byte	0x9
 1384 01eb 58       		.byte	0x58
 1385 01ec 09020000 		.4byte	0x209
 1386 01f0 0E       		.uleb128 0xe
 1387 01f1 0F010000 		.4byte	.LASF35
 1388 01f5 09       		.byte	0x9
 1389 01f6 59       		.byte	0x59
 1390 01f7 09020000 		.4byte	0x209
 1391 01fb 00       		.byte	0
 1392 01fc 0E       		.uleb128 0xe
 1393 01fd A3020000 		.4byte	.LASF36
 1394 0201 09       		.byte	0x9
 1395 0202 5A       		.byte	0x5a
 1396 0203 2C000000 		.4byte	0x2c
 1397 0207 04       		.byte	0x4
 1398 0208 00       		.byte	0
 1399 0209 0A       		.uleb128 0xa
 1400 020a 04       		.byte	0x4
 1401 020b 4C010000 		.4byte	0x14c
 1402 020f 13       		.uleb128 0x13
 1403 0210 3D030000 		.4byte	.LASF57
 1404 0214 01       		.byte	0x1
 1405 0215 6B       		.byte	0x6b
 1406 0216 00000000 		.4byte	.LFB69
 1407 021a 1C000000 		.4byte	.LFE69-.LFB69
 1408 021e 01       		.uleb128 0x1
 1409 021f 9C       		.byte	0x9c
 1410 0220 14       		.uleb128 0x14
 1411 0221 F0000000 		.4byte	.LASF41
 1412 0225 01       		.byte	0x1
 1413 0226 82       		.byte	0x82
 1414 0227 00000000 		.4byte	.LFB70
 1415 022b 16000000 		.4byte	.LFE70-.LFB70
 1416 022f 01       		.uleb128 0x1
 1417 0230 9C       		.byte	0x9c
 1418 0231 74020000 		.4byte	0x274
 1419 0235 15       		.uleb128 0x15
 1420 0236 A8020000 		.4byte	.LASF37
ARM GAS  /tmp/ccVnw7NL.s 			page 55


 1421 023a 01       		.byte	0x1
 1422 023b 82       		.byte	0x82
 1423 023c 09020000 		.4byte	0x209
 1424 0240 01       		.uleb128 0x1
 1425 0241 50       		.byte	0x50
 1426 0242 16       		.uleb128 0x16
 1427 0243 62756600 		.ascii	"buf\000"
 1428 0247 01       		.byte	0x1
 1429 0248 82       		.byte	0x82
 1430 0249 E1000000 		.4byte	0xe1
 1431 024d 01       		.uleb128 0x1
 1432 024e 51       		.byte	0x51
 1433 024f 17       		.uleb128 0x17
 1434 0250 A3020000 		.4byte	.LASF36
 1435 0254 01       		.byte	0x1
 1436 0255 82       		.byte	0x82
 1437 0256 2C000000 		.4byte	0x2c
 1438 025a 00000000 		.4byte	.LLST0
 1439 025e 18       		.uleb128 0x18
 1440 025f 687000   		.ascii	"hp\000"
 1441 0262 01       		.byte	0x1
 1442 0263 83       		.byte	0x83
 1443 0264 E2010000 		.4byte	0x1e2
 1444 0268 01       		.uleb128 0x1
 1445 0269 51       		.byte	0x51
 1446 026a 19       		.uleb128 0x19
 1447 026b 00030000 		.4byte	.LASF38
 1448 026f 84020000 		.4byte	0x284
 1449 0273 00       		.byte	0
 1450 0274 1A       		.uleb128 0x1a
 1451 0275 1A010000 		.4byte	0x11a
 1452 0279 84020000 		.4byte	0x284
 1453 027d 1B       		.uleb128 0x1b
 1454 027e DA000000 		.4byte	0xda
 1455 0282 10       		.byte	0x10
 1456 0283 00       		.byte	0
 1457 0284 1C       		.uleb128 0x1c
 1458 0285 74020000 		.4byte	0x274
 1459 0289 1D       		.uleb128 0x1d
 1460 028a 85020000 		.4byte	.LASF44
 1461 028e 01       		.byte	0x1
 1462 028f A6       		.byte	0xa6
 1463 0290 E1000000 		.4byte	0xe1
 1464 0294 00000000 		.4byte	.LFB71
 1465 0298 20010000 		.4byte	.LFE71-.LFB71
 1466 029c 01       		.uleb128 0x1
 1467 029d 9C       		.byte	0x9c
 1468 029e BF030000 		.4byte	0x3bf
 1469 02a2 17       		.uleb128 0x17
 1470 02a3 A8020000 		.4byte	.LASF37
 1471 02a7 01       		.byte	0x1
 1472 02a8 A6       		.byte	0xa6
 1473 02a9 09020000 		.4byte	0x209
 1474 02ad 2E000000 		.4byte	.LLST1
 1475 02b1 17       		.uleb128 0x17
 1476 02b2 A3020000 		.4byte	.LASF36
 1477 02b6 01       		.byte	0x1
ARM GAS  /tmp/ccVnw7NL.s 			page 56


 1478 02b7 A6       		.byte	0xa6
 1479 02b8 2C000000 		.4byte	0x2c
 1480 02bc 9C000000 		.4byte	.LLST2
 1481 02c0 17       		.uleb128 0x17
 1482 02c1 B8020000 		.4byte	.LASF30
 1483 02c5 01       		.byte	0x1
 1484 02c6 A6       		.byte	0xa6
 1485 02c7 37000000 		.4byte	0x37
 1486 02cb D2000000 		.4byte	.LLST3
 1487 02cf 1E       		.uleb128 0x1e
 1488 02d0 717000   		.ascii	"qp\000"
 1489 02d3 01       		.byte	0x1
 1490 02d4 A7       		.byte	0xa7
 1491 02d5 E2010000 		.4byte	0x1e2
 1492 02d9 3B010000 		.4byte	.LLST4
 1493 02dd 1E       		.uleb128 0x1e
 1494 02de 687000   		.ascii	"hp\000"
 1495 02e1 01       		.byte	0x1
 1496 02e2 A7       		.byte	0xa7
 1497 02e3 E2010000 		.4byte	0x1e2
 1498 02e7 6F010000 		.4byte	.LLST5
 1499 02eb 1F       		.uleb128 0x1f
 1500 02ec 2C030000 		.4byte	.LASF34
 1501 02f0 01       		.byte	0x1
 1502 02f1 A8       		.byte	0xa8
 1503 02f2 2C000000 		.4byte	0x2c
 1504 02f6 C4010000 		.4byte	.LLST6
 1505 02fa 19       		.uleb128 0x19
 1506 02fb 01010000 		.4byte	.LASF39
 1507 02ff CF030000 		.4byte	0x3cf
 1508 0303 20       		.uleb128 0x20
 1509 0304 00000000 		.4byte	.Ldebug_ranges0+0
 1510 0308 7D030000 		.4byte	0x37d
 1511 030c 1E       		.uleb128 0x1e
 1512 030d 61687000 		.ascii	"ahp\000"
 1513 0311 01       		.byte	0x1
 1514 0312 BF       		.byte	0xbf
 1515 0313 E2010000 		.4byte	0x1e2
 1516 0317 0A020000 		.4byte	.LLST7
 1517 031b 21       		.uleb128 0x21
 1518 031c BA000000 		.4byte	.LBB3
 1519 0320 18000000 		.4byte	.LBE3-.LBB3
 1520 0324 37030000 		.4byte	0x337
 1521 0328 1E       		.uleb128 0x1e
 1522 0329 667000   		.ascii	"fp\000"
 1523 032c 01       		.byte	0x1
 1524 032d E9       		.byte	0xe9
 1525 032e E2010000 		.4byte	0x1e2
 1526 0332 62020000 		.4byte	.LLST8
 1527 0336 00       		.byte	0
 1528 0337 21       		.uleb128 0x21
 1529 0338 E4000000 		.4byte	.LBB4
 1530 033c 24000000 		.4byte	.LBE4-.LBB4
 1531 0340 6C030000 		.4byte	0x36c
 1532 0344 1F       		.uleb128 0x1f
 1533 0345 E7010000 		.4byte	.LASF40
 1534 0349 01       		.byte	0x1
ARM GAS  /tmp/ccVnw7NL.s 			page 57


 1535 034a CD       		.byte	0xcd
 1536 034b 2C000000 		.4byte	0x2c
 1537 034f 75020000 		.4byte	.LLST9
 1538 0353 22       		.uleb128 0x22
 1539 0354 EE000000 		.4byte	.LBB5
 1540 0358 1A000000 		.4byte	.LBE5-.LBB5
 1541 035c 1E       		.uleb128 0x1e
 1542 035d 667000   		.ascii	"fp\000"
 1543 0360 01       		.byte	0x1
 1544 0361 D3       		.byte	0xd3
 1545 0362 E2010000 		.4byte	0x1e2
 1546 0366 9D020000 		.4byte	.LLST10
 1547 036a 00       		.byte	0
 1548 036b 00       		.byte	0
 1549 036c 23       		.uleb128 0x23
 1550 036d E0000000 		.4byte	.LVL29
 1551 0371 54050000 		.4byte	0x554
 1552 0375 24       		.uleb128 0x24
 1553 0376 01       		.uleb128 0x1
 1554 0377 50       		.byte	0x50
 1555 0378 02       		.uleb128 0x2
 1556 0379 7A       		.byte	0x7a
 1557 037a 00       		.sleb128 0
 1558 037b 00       		.byte	0
 1559 037c 00       		.byte	0
 1560 037d 25       		.uleb128 0x25
 1561 037e 36000000 		.4byte	.LVL8
 1562 0382 66050000 		.4byte	0x566
 1563 0386 96030000 		.4byte	0x396
 1564 038a 24       		.uleb128 0x24
 1565 038b 01       		.uleb128 0x1
 1566 038c 51       		.byte	0x51
 1567 038d 01       		.uleb128 0x1
 1568 038e 30       		.byte	0x30
 1569 038f 24       		.uleb128 0x24
 1570 0390 01       		.uleb128 0x1
 1571 0391 50       		.byte	0x50
 1572 0392 02       		.uleb128 0x2
 1573 0393 7A       		.byte	0x7a
 1574 0394 00       		.sleb128 0
 1575 0395 00       		.byte	0
 1576 0396 25       		.uleb128 0x25
 1577 0397 7C000000 		.4byte	.LVL15
 1578 039b 54050000 		.4byte	0x554
 1579 039f AA030000 		.4byte	0x3aa
 1580 03a3 24       		.uleb128 0x24
 1581 03a4 01       		.uleb128 0x1
 1582 03a5 50       		.byte	0x50
 1583 03a6 02       		.uleb128 0x2
 1584 03a7 7A       		.byte	0x7a
 1585 03a8 00       		.sleb128 0
 1586 03a9 00       		.byte	0
 1587 03aa 26       		.uleb128 0x26
 1588 03ab 8E000000 		.4byte	.LVL18
 1589 03af 24       		.uleb128 0x24
 1590 03b0 01       		.uleb128 0x1
 1591 03b1 51       		.byte	0x51
ARM GAS  /tmp/ccVnw7NL.s 			page 58


 1592 03b2 02       		.uleb128 0x2
 1593 03b3 76       		.byte	0x76
 1594 03b4 00       		.sleb128 0
 1595 03b5 24       		.uleb128 0x24
 1596 03b6 01       		.uleb128 0x1
 1597 03b7 50       		.byte	0x50
 1598 03b8 04       		.uleb128 0x4
 1599 03b9 78       		.byte	0x78
 1600 03ba 01       		.sleb128 1
 1601 03bb 33       		.byte	0x33
 1602 03bc 24       		.byte	0x24
 1603 03bd 00       		.byte	0
 1604 03be 00       		.byte	0
 1605 03bf 1A       		.uleb128 0x1a
 1606 03c0 1A010000 		.4byte	0x11a
 1607 03c4 CF030000 		.4byte	0x3cf
 1608 03c8 1B       		.uleb128 0x1b
 1609 03c9 DA000000 		.4byte	0xda
 1610 03cd 12       		.byte	0x12
 1611 03ce 00       		.byte	0
 1612 03cf 1C       		.uleb128 0x1c
 1613 03d0 BF030000 		.4byte	0x3bf
 1614 03d4 27       		.uleb128 0x27
 1615 03d5 51020000 		.4byte	.LASF42
 1616 03d9 01       		.byte	0x1
 1617 03da 1D01     		.2byte	0x11d
 1618 03dc 00000000 		.4byte	.LFB72
 1619 03e0 88000000 		.4byte	.LFE72-.LFB72
 1620 03e4 01       		.uleb128 0x1
 1621 03e5 9C       		.byte	0x9c
 1622 03e6 59040000 		.4byte	0x459
 1623 03ea 28       		.uleb128 0x28
 1624 03eb 7000     		.ascii	"p\000"
 1625 03ed 01       		.byte	0x1
 1626 03ee 1D01     		.2byte	0x11d
 1627 03f0 E1000000 		.4byte	0xe1
 1628 03f4 B0020000 		.4byte	.LLST11
 1629 03f8 29       		.uleb128 0x29
 1630 03f9 717000   		.ascii	"qp\000"
 1631 03fc 01       		.byte	0x1
 1632 03fd 1E01     		.2byte	0x11e
 1633 03ff E2010000 		.4byte	0x1e2
 1634 0403 DE020000 		.4byte	.LLST12
 1635 0407 29       		.uleb128 0x29
 1636 0408 687000   		.ascii	"hp\000"
 1637 040b 01       		.byte	0x1
 1638 040c 1E01     		.2byte	0x11e
 1639 040e E2010000 		.4byte	0x1e2
 1640 0412 1D030000 		.4byte	.LLST13
 1641 0416 2A       		.uleb128 0x2a
 1642 0417 A8020000 		.4byte	.LASF37
 1643 041b 01       		.byte	0x1
 1644 041c 1F01     		.2byte	0x11f
 1645 041e 09020000 		.4byte	0x209
 1646 0422 5B030000 		.4byte	.LLST14
 1647 0426 19       		.uleb128 0x19
 1648 0427 45010000 		.4byte	.LASF43
ARM GAS  /tmp/ccVnw7NL.s 			page 59


 1649 042b 69040000 		.4byte	0x469
 1650 042f 25       		.uleb128 0x25
 1651 0430 1E000000 		.4byte	.LVL47
 1652 0434 66050000 		.4byte	0x566
 1653 0438 48040000 		.4byte	0x448
 1654 043c 24       		.uleb128 0x24
 1655 043d 01       		.uleb128 0x1
 1656 043e 51       		.byte	0x51
 1657 043f 01       		.uleb128 0x1
 1658 0440 30       		.byte	0x30
 1659 0441 24       		.uleb128 0x24
 1660 0442 01       		.uleb128 0x1
 1661 0443 50       		.byte	0x50
 1662 0444 02       		.uleb128 0x2
 1663 0445 76       		.byte	0x76
 1664 0446 00       		.sleb128 0
 1665 0447 00       		.byte	0
 1666 0448 23       		.uleb128 0x23
 1667 0449 60000000 		.4byte	.LVL53
 1668 044d 54050000 		.4byte	0x554
 1669 0451 24       		.uleb128 0x24
 1670 0452 01       		.uleb128 0x1
 1671 0453 50       		.byte	0x50
 1672 0454 02       		.uleb128 0x2
 1673 0455 76       		.byte	0x76
 1674 0456 00       		.sleb128 0
 1675 0457 00       		.byte	0
 1676 0458 00       		.byte	0
 1677 0459 1A       		.uleb128 0x1a
 1678 045a 1A010000 		.4byte	0x11a
 1679 045e 69040000 		.4byte	0x469
 1680 0462 1B       		.uleb128 0x1b
 1681 0463 DA000000 		.4byte	0xda
 1682 0467 0A       		.byte	0xa
 1683 0468 00       		.byte	0
 1684 0469 1C       		.uleb128 0x1c
 1685 046a 59040000 		.4byte	0x459
 1686 046e 2B       		.uleb128 0x2b
 1687 046f 19010000 		.4byte	.LASF45
 1688 0473 01       		.byte	0x1
 1689 0474 5D01     		.2byte	0x15d
 1690 0476 2C000000 		.4byte	0x2c
 1691 047a 00000000 		.4byte	.LFB73
 1692 047e 6C000000 		.4byte	.LFE73-.LFB73
 1693 0482 01       		.uleb128 0x1
 1694 0483 9C       		.byte	0x9c
 1695 0484 3D050000 		.4byte	0x53d
 1696 0488 2C       		.uleb128 0x2c
 1697 0489 A8020000 		.4byte	.LASF37
 1698 048d 01       		.byte	0x1
 1699 048e 5D01     		.2byte	0x15d
 1700 0490 09020000 		.4byte	0x209
 1701 0494 AC030000 		.4byte	.LLST15
 1702 0498 2C       		.uleb128 0x2c
 1703 0499 B3000000 		.4byte	.LASF46
 1704 049d 01       		.byte	0x1
 1705 049e 5D01     		.2byte	0x15d
ARM GAS  /tmp/ccVnw7NL.s 			page 60


 1706 04a0 3D050000 		.4byte	0x53d
 1707 04a4 D5030000 		.4byte	.LLST16
 1708 04a8 2C       		.uleb128 0x2c
 1709 04a9 AA000000 		.4byte	.LASF47
 1710 04ad 01       		.byte	0x1
 1711 04ae 5D01     		.2byte	0x15d
 1712 04b0 3D050000 		.4byte	0x53d
 1713 04b4 22040000 		.4byte	.LLST17
 1714 04b8 29       		.uleb128 0x29
 1715 04b9 717000   		.ascii	"qp\000"
 1716 04bc 01       		.byte	0x1
 1717 04bd 5E01     		.2byte	0x15e
 1718 04bf E2010000 		.4byte	0x1e2
 1719 04c3 6F040000 		.4byte	.LLST18
 1720 04c7 29       		.uleb128 0x29
 1721 04c8 6E00     		.ascii	"n\000"
 1722 04ca 01       		.byte	0x1
 1723 04cb 5F01     		.2byte	0x15f
 1724 04cd 2C000000 		.4byte	0x2c
 1725 04d1 8F040000 		.4byte	.LLST19
 1726 04d5 2A       		.uleb128 0x2a
 1727 04d6 1D020000 		.4byte	.LASF48
 1728 04da 01       		.byte	0x1
 1729 04db 5F01     		.2byte	0x15f
 1730 04dd 2C000000 		.4byte	0x2c
 1731 04e1 AE040000 		.4byte	.LLST20
 1732 04e5 2A       		.uleb128 0x2a
 1733 04e6 48030000 		.4byte	.LASF49
 1734 04ea 01       		.byte	0x1
 1735 04eb 5F01     		.2byte	0x15f
 1736 04ed 2C000000 		.4byte	0x2c
 1737 04f1 CD040000 		.4byte	.LLST21
 1738 04f5 21       		.uleb128 0x21
 1739 04f6 2C000000 		.4byte	.LBB10
 1740 04fa 0C000000 		.4byte	.LBE10-.LBB10
 1741 04fe 13050000 		.4byte	0x513
 1742 0502 2A       		.uleb128 0x2a
 1743 0503 2C030000 		.4byte	.LASF34
 1744 0507 01       		.byte	0x1
 1745 0508 6B01     		.2byte	0x16b
 1746 050a 2C000000 		.4byte	0x2c
 1747 050e EC040000 		.4byte	.LLST22
 1748 0512 00       		.byte	0
 1749 0513 25       		.uleb128 0x25
 1750 0514 20000000 		.4byte	.LVL61
 1751 0518 66050000 		.4byte	0x566
 1752 051c 2C050000 		.4byte	0x52c
 1753 0520 24       		.uleb128 0x24
 1754 0521 01       		.uleb128 0x1
 1755 0522 51       		.byte	0x51
 1756 0523 01       		.uleb128 0x1
 1757 0524 30       		.byte	0x30
 1758 0525 24       		.uleb128 0x24
 1759 0526 01       		.uleb128 0x1
 1760 0527 50       		.byte	0x50
 1761 0528 02       		.uleb128 0x2
 1762 0529 78       		.byte	0x78
ARM GAS  /tmp/ccVnw7NL.s 			page 61


 1763 052a 00       		.sleb128 0
 1764 052b 00       		.byte	0
 1765 052c 23       		.uleb128 0x23
 1766 052d 58000000 		.4byte	.LVL72
 1767 0531 54050000 		.4byte	0x554
 1768 0535 24       		.uleb128 0x24
 1769 0536 01       		.uleb128 0x1
 1770 0537 50       		.byte	0x50
 1771 0538 02       		.uleb128 0x2
 1772 0539 78       		.byte	0x78
 1773 053a 00       		.sleb128 0
 1774 053b 00       		.byte	0
 1775 053c 00       		.byte	0
 1776 053d 0A       		.uleb128 0xa
 1777 053e 04       		.byte	0x4
 1778 053f 2C000000 		.4byte	0x2c
 1779 0543 2D       		.uleb128 0x2d
 1780 0544 32020000 		.4byte	.LASF50
 1781 0548 01       		.byte	0x1
 1782 0549 5C       		.byte	0x5c
 1783 054a 4C010000 		.4byte	0x14c
 1784 054e 05       		.uleb128 0x5
 1785 054f 03       		.byte	0x3
 1786 0550 00000000 		.4byte	default_heap
 1787 0554 2E       		.uleb128 0x2e
 1788 0555 67020000 		.4byte	.LASF51
 1789 0559 06       		.byte	0x6
 1790 055a 4305     		.2byte	0x543
 1791 055c 66050000 		.4byte	0x566
 1792 0560 0C       		.uleb128 0xc
 1793 0561 21010000 		.4byte	0x121
 1794 0565 00       		.byte	0
 1795 0566 2F       		.uleb128 0x2f
 1796 0567 0E030000 		.4byte	.LASF52
 1797 056b 06       		.byte	0x6
 1798 056c 4105     		.2byte	0x541
 1799 056e B8000000 		.4byte	0xb8
 1800 0572 0C       		.uleb128 0xc
 1801 0573 21010000 		.4byte	0x121
 1802 0577 0C       		.uleb128 0xc
 1803 0578 CE000000 		.4byte	0xce
 1804 057c 00       		.byte	0
 1805 057d 00       		.byte	0
 1806              		.section	.debug_abbrev,"",%progbits
 1807              	.Ldebug_abbrev0:
 1808 0000 01       		.uleb128 0x1
 1809 0001 11       		.uleb128 0x11
 1810 0002 01       		.byte	0x1
 1811 0003 25       		.uleb128 0x25
 1812 0004 0E       		.uleb128 0xe
 1813 0005 13       		.uleb128 0x13
 1814 0006 0B       		.uleb128 0xb
 1815 0007 03       		.uleb128 0x3
 1816 0008 0E       		.uleb128 0xe
 1817 0009 1B       		.uleb128 0x1b
 1818 000a 0E       		.uleb128 0xe
 1819 000b 55       		.uleb128 0x55
ARM GAS  /tmp/ccVnw7NL.s 			page 62


 1820 000c 17       		.uleb128 0x17
 1821 000d 11       		.uleb128 0x11
 1822 000e 01       		.uleb128 0x1
 1823 000f 10       		.uleb128 0x10
 1824 0010 17       		.uleb128 0x17
 1825 0011 00       		.byte	0
 1826 0012 00       		.byte	0
 1827 0013 02       		.uleb128 0x2
 1828 0014 24       		.uleb128 0x24
 1829 0015 00       		.byte	0
 1830 0016 0B       		.uleb128 0xb
 1831 0017 0B       		.uleb128 0xb
 1832 0018 3E       		.uleb128 0x3e
 1833 0019 0B       		.uleb128 0xb
 1834 001a 03       		.uleb128 0x3
 1835 001b 08       		.uleb128 0x8
 1836 001c 00       		.byte	0
 1837 001d 00       		.byte	0
 1838 001e 03       		.uleb128 0x3
 1839 001f 16       		.uleb128 0x16
 1840 0020 00       		.byte	0
 1841 0021 03       		.uleb128 0x3
 1842 0022 0E       		.uleb128 0xe
 1843 0023 3A       		.uleb128 0x3a
 1844 0024 0B       		.uleb128 0xb
 1845 0025 3B       		.uleb128 0x3b
 1846 0026 0B       		.uleb128 0xb
 1847 0027 49       		.uleb128 0x49
 1848 0028 13       		.uleb128 0x13
 1849 0029 00       		.byte	0
 1850 002a 00       		.byte	0
 1851 002b 04       		.uleb128 0x4
 1852 002c 24       		.uleb128 0x24
 1853 002d 00       		.byte	0
 1854 002e 0B       		.uleb128 0xb
 1855 002f 0B       		.uleb128 0xb
 1856 0030 3E       		.uleb128 0x3e
 1857 0031 0B       		.uleb128 0xb
 1858 0032 03       		.uleb128 0x3
 1859 0033 0E       		.uleb128 0xe
 1860 0034 00       		.byte	0
 1861 0035 00       		.byte	0
 1862 0036 05       		.uleb128 0x5
 1863 0037 16       		.uleb128 0x16
 1864 0038 00       		.byte	0
 1865 0039 03       		.uleb128 0x3
 1866 003a 0E       		.uleb128 0xe
 1867 003b 3A       		.uleb128 0x3a
 1868 003c 0B       		.uleb128 0xb
 1869 003d 3B       		.uleb128 0x3b
 1870 003e 05       		.uleb128 0x5
 1871 003f 49       		.uleb128 0x49
 1872 0040 13       		.uleb128 0x13
 1873 0041 00       		.byte	0
 1874 0042 00       		.byte	0
 1875 0043 06       		.uleb128 0x6
 1876 0044 0F       		.uleb128 0xf
ARM GAS  /tmp/ccVnw7NL.s 			page 63


 1877 0045 00       		.byte	0
 1878 0046 0B       		.uleb128 0xb
 1879 0047 0B       		.uleb128 0xb
 1880 0048 00       		.byte	0
 1881 0049 00       		.byte	0
 1882 004a 07       		.uleb128 0x7
 1883 004b 13       		.uleb128 0x13
 1884 004c 01       		.byte	0x1
 1885 004d 03       		.uleb128 0x3
 1886 004e 0E       		.uleb128 0xe
 1887 004f 0B       		.uleb128 0xb
 1888 0050 0B       		.uleb128 0xb
 1889 0051 3A       		.uleb128 0x3a
 1890 0052 0B       		.uleb128 0xb
 1891 0053 3B       		.uleb128 0x3b
 1892 0054 05       		.uleb128 0x5
 1893 0055 01       		.uleb128 0x1
 1894 0056 13       		.uleb128 0x13
 1895 0057 00       		.byte	0
 1896 0058 00       		.byte	0
 1897 0059 08       		.uleb128 0x8
 1898 005a 0D       		.uleb128 0xd
 1899 005b 00       		.byte	0
 1900 005c 03       		.uleb128 0x3
 1901 005d 08       		.uleb128 0x8
 1902 005e 3A       		.uleb128 0x3a
 1903 005f 0B       		.uleb128 0xb
 1904 0060 3B       		.uleb128 0x3b
 1905 0061 05       		.uleb128 0x5
 1906 0062 49       		.uleb128 0x49
 1907 0063 13       		.uleb128 0x13
 1908 0064 38       		.uleb128 0x38
 1909 0065 0B       		.uleb128 0xb
 1910 0066 00       		.byte	0
 1911 0067 00       		.byte	0
 1912 0068 09       		.uleb128 0x9
 1913 0069 35       		.uleb128 0x35
 1914 006a 00       		.byte	0
 1915 006b 49       		.uleb128 0x49
 1916 006c 13       		.uleb128 0x13
 1917 006d 00       		.byte	0
 1918 006e 00       		.byte	0
 1919 006f 0A       		.uleb128 0xa
 1920 0070 0F       		.uleb128 0xf
 1921 0071 00       		.byte	0
 1922 0072 0B       		.uleb128 0xb
 1923 0073 0B       		.uleb128 0xb
 1924 0074 49       		.uleb128 0x49
 1925 0075 13       		.uleb128 0x13
 1926 0076 00       		.byte	0
 1927 0077 00       		.byte	0
 1928 0078 0B       		.uleb128 0xb
 1929 0079 15       		.uleb128 0x15
 1930 007a 01       		.byte	0x1
 1931 007b 27       		.uleb128 0x27
 1932 007c 19       		.uleb128 0x19
 1933 007d 49       		.uleb128 0x49
ARM GAS  /tmp/ccVnw7NL.s 			page 64


 1934 007e 13       		.uleb128 0x13
 1935 007f 01       		.uleb128 0x1
 1936 0080 13       		.uleb128 0x13
 1937 0081 00       		.byte	0
 1938 0082 00       		.byte	0
 1939 0083 0C       		.uleb128 0xc
 1940 0084 05       		.uleb128 0x5
 1941 0085 00       		.byte	0
 1942 0086 49       		.uleb128 0x49
 1943 0087 13       		.uleb128 0x13
 1944 0088 00       		.byte	0
 1945 0089 00       		.byte	0
 1946 008a 0D       		.uleb128 0xd
 1947 008b 13       		.uleb128 0x13
 1948 008c 01       		.byte	0x1
 1949 008d 03       		.uleb128 0x3
 1950 008e 0E       		.uleb128 0xe
 1951 008f 0B       		.uleb128 0xb
 1952 0090 0B       		.uleb128 0xb
 1953 0091 3A       		.uleb128 0x3a
 1954 0092 0B       		.uleb128 0xb
 1955 0093 3B       		.uleb128 0x3b
 1956 0094 0B       		.uleb128 0xb
 1957 0095 01       		.uleb128 0x1
 1958 0096 13       		.uleb128 0x13
 1959 0097 00       		.byte	0
 1960 0098 00       		.byte	0
 1961 0099 0E       		.uleb128 0xe
 1962 009a 0D       		.uleb128 0xd
 1963 009b 00       		.byte	0
 1964 009c 03       		.uleb128 0x3
 1965 009d 0E       		.uleb128 0xe
 1966 009e 3A       		.uleb128 0x3a
 1967 009f 0B       		.uleb128 0xb
 1968 00a0 3B       		.uleb128 0x3b
 1969 00a1 0B       		.uleb128 0xb
 1970 00a2 49       		.uleb128 0x49
 1971 00a3 13       		.uleb128 0x13
 1972 00a4 38       		.uleb128 0x38
 1973 00a5 0B       		.uleb128 0xb
 1974 00a6 00       		.byte	0
 1975 00a7 00       		.byte	0
 1976 00a8 0F       		.uleb128 0xf
 1977 00a9 0D       		.uleb128 0xd
 1978 00aa 00       		.byte	0
 1979 00ab 03       		.uleb128 0x3
 1980 00ac 08       		.uleb128 0x8
 1981 00ad 3A       		.uleb128 0x3a
 1982 00ae 0B       		.uleb128 0xb
 1983 00af 3B       		.uleb128 0x3b
 1984 00b0 0B       		.uleb128 0xb
 1985 00b1 49       		.uleb128 0x49
 1986 00b2 13       		.uleb128 0x13
 1987 00b3 38       		.uleb128 0x38
 1988 00b4 0B       		.uleb128 0xb
 1989 00b5 00       		.byte	0
 1990 00b6 00       		.byte	0
ARM GAS  /tmp/ccVnw7NL.s 			page 65


 1991 00b7 10       		.uleb128 0x10
 1992 00b8 17       		.uleb128 0x17
 1993 00b9 01       		.byte	0x1
 1994 00ba 03       		.uleb128 0x3
 1995 00bb 0E       		.uleb128 0xe
 1996 00bc 0B       		.uleb128 0xb
 1997 00bd 0B       		.uleb128 0xb
 1998 00be 3A       		.uleb128 0x3a
 1999 00bf 0B       		.uleb128 0xb
 2000 00c0 3B       		.uleb128 0x3b
 2001 00c1 0B       		.uleb128 0xb
 2002 00c2 01       		.uleb128 0x1
 2003 00c3 13       		.uleb128 0x13
 2004 00c4 00       		.byte	0
 2005 00c5 00       		.byte	0
 2006 00c6 11       		.uleb128 0x11
 2007 00c7 0D       		.uleb128 0xd
 2008 00c8 00       		.byte	0
 2009 00c9 03       		.uleb128 0x3
 2010 00ca 0E       		.uleb128 0xe
 2011 00cb 3A       		.uleb128 0x3a
 2012 00cc 0B       		.uleb128 0xb
 2013 00cd 3B       		.uleb128 0x3b
 2014 00ce 0B       		.uleb128 0xb
 2015 00cf 49       		.uleb128 0x49
 2016 00d0 13       		.uleb128 0x13
 2017 00d1 00       		.byte	0
 2018 00d2 00       		.byte	0
 2019 00d3 12       		.uleb128 0x12
 2020 00d4 13       		.uleb128 0x13
 2021 00d5 01       		.byte	0x1
 2022 00d6 0B       		.uleb128 0xb
 2023 00d7 0B       		.uleb128 0xb
 2024 00d8 3A       		.uleb128 0x3a
 2025 00d9 0B       		.uleb128 0xb
 2026 00da 3B       		.uleb128 0x3b
 2027 00db 0B       		.uleb128 0xb
 2028 00dc 01       		.uleb128 0x1
 2029 00dd 13       		.uleb128 0x13
 2030 00de 00       		.byte	0
 2031 00df 00       		.byte	0
 2032 00e0 13       		.uleb128 0x13
 2033 00e1 2E       		.uleb128 0x2e
 2034 00e2 00       		.byte	0
 2035 00e3 3F       		.uleb128 0x3f
 2036 00e4 19       		.uleb128 0x19
 2037 00e5 03       		.uleb128 0x3
 2038 00e6 0E       		.uleb128 0xe
 2039 00e7 3A       		.uleb128 0x3a
 2040 00e8 0B       		.uleb128 0xb
 2041 00e9 3B       		.uleb128 0x3b
 2042 00ea 0B       		.uleb128 0xb
 2043 00eb 27       		.uleb128 0x27
 2044 00ec 19       		.uleb128 0x19
 2045 00ed 11       		.uleb128 0x11
 2046 00ee 01       		.uleb128 0x1
 2047 00ef 12       		.uleb128 0x12
ARM GAS  /tmp/ccVnw7NL.s 			page 66


 2048 00f0 06       		.uleb128 0x6
 2049 00f1 40       		.uleb128 0x40
 2050 00f2 18       		.uleb128 0x18
 2051 00f3 9742     		.uleb128 0x2117
 2052 00f5 19       		.uleb128 0x19
 2053 00f6 00       		.byte	0
 2054 00f7 00       		.byte	0
 2055 00f8 14       		.uleb128 0x14
 2056 00f9 2E       		.uleb128 0x2e
 2057 00fa 01       		.byte	0x1
 2058 00fb 3F       		.uleb128 0x3f
 2059 00fc 19       		.uleb128 0x19
 2060 00fd 03       		.uleb128 0x3
 2061 00fe 0E       		.uleb128 0xe
 2062 00ff 3A       		.uleb128 0x3a
 2063 0100 0B       		.uleb128 0xb
 2064 0101 3B       		.uleb128 0x3b
 2065 0102 0B       		.uleb128 0xb
 2066 0103 27       		.uleb128 0x27
 2067 0104 19       		.uleb128 0x19
 2068 0105 11       		.uleb128 0x11
 2069 0106 01       		.uleb128 0x1
 2070 0107 12       		.uleb128 0x12
 2071 0108 06       		.uleb128 0x6
 2072 0109 40       		.uleb128 0x40
 2073 010a 18       		.uleb128 0x18
 2074 010b 9742     		.uleb128 0x2117
 2075 010d 19       		.uleb128 0x19
 2076 010e 01       		.uleb128 0x1
 2077 010f 13       		.uleb128 0x13
 2078 0110 00       		.byte	0
 2079 0111 00       		.byte	0
 2080 0112 15       		.uleb128 0x15
 2081 0113 05       		.uleb128 0x5
 2082 0114 00       		.byte	0
 2083 0115 03       		.uleb128 0x3
 2084 0116 0E       		.uleb128 0xe
 2085 0117 3A       		.uleb128 0x3a
 2086 0118 0B       		.uleb128 0xb
 2087 0119 3B       		.uleb128 0x3b
 2088 011a 0B       		.uleb128 0xb
 2089 011b 49       		.uleb128 0x49
 2090 011c 13       		.uleb128 0x13
 2091 011d 02       		.uleb128 0x2
 2092 011e 18       		.uleb128 0x18
 2093 011f 00       		.byte	0
 2094 0120 00       		.byte	0
 2095 0121 16       		.uleb128 0x16
 2096 0122 05       		.uleb128 0x5
 2097 0123 00       		.byte	0
 2098 0124 03       		.uleb128 0x3
 2099 0125 08       		.uleb128 0x8
 2100 0126 3A       		.uleb128 0x3a
 2101 0127 0B       		.uleb128 0xb
 2102 0128 3B       		.uleb128 0x3b
 2103 0129 0B       		.uleb128 0xb
 2104 012a 49       		.uleb128 0x49
ARM GAS  /tmp/ccVnw7NL.s 			page 67


 2105 012b 13       		.uleb128 0x13
 2106 012c 02       		.uleb128 0x2
 2107 012d 18       		.uleb128 0x18
 2108 012e 00       		.byte	0
 2109 012f 00       		.byte	0
 2110 0130 17       		.uleb128 0x17
 2111 0131 05       		.uleb128 0x5
 2112 0132 00       		.byte	0
 2113 0133 03       		.uleb128 0x3
 2114 0134 0E       		.uleb128 0xe
 2115 0135 3A       		.uleb128 0x3a
 2116 0136 0B       		.uleb128 0xb
 2117 0137 3B       		.uleb128 0x3b
 2118 0138 0B       		.uleb128 0xb
 2119 0139 49       		.uleb128 0x49
 2120 013a 13       		.uleb128 0x13
 2121 013b 02       		.uleb128 0x2
 2122 013c 17       		.uleb128 0x17
 2123 013d 00       		.byte	0
 2124 013e 00       		.byte	0
 2125 013f 18       		.uleb128 0x18
 2126 0140 34       		.uleb128 0x34
 2127 0141 00       		.byte	0
 2128 0142 03       		.uleb128 0x3
 2129 0143 08       		.uleb128 0x8
 2130 0144 3A       		.uleb128 0x3a
 2131 0145 0B       		.uleb128 0xb
 2132 0146 3B       		.uleb128 0x3b
 2133 0147 0B       		.uleb128 0xb
 2134 0148 49       		.uleb128 0x49
 2135 0149 13       		.uleb128 0x13
 2136 014a 02       		.uleb128 0x2
 2137 014b 18       		.uleb128 0x18
 2138 014c 00       		.byte	0
 2139 014d 00       		.byte	0
 2140 014e 19       		.uleb128 0x19
 2141 014f 34       		.uleb128 0x34
 2142 0150 00       		.byte	0
 2143 0151 03       		.uleb128 0x3
 2144 0152 0E       		.uleb128 0xe
 2145 0153 49       		.uleb128 0x49
 2146 0154 13       		.uleb128 0x13
 2147 0155 34       		.uleb128 0x34
 2148 0156 19       		.uleb128 0x19
 2149 0157 00       		.byte	0
 2150 0158 00       		.byte	0
 2151 0159 1A       		.uleb128 0x1a
 2152 015a 01       		.uleb128 0x1
 2153 015b 01       		.byte	0x1
 2154 015c 49       		.uleb128 0x49
 2155 015d 13       		.uleb128 0x13
 2156 015e 01       		.uleb128 0x1
 2157 015f 13       		.uleb128 0x13
 2158 0160 00       		.byte	0
 2159 0161 00       		.byte	0
 2160 0162 1B       		.uleb128 0x1b
 2161 0163 21       		.uleb128 0x21
ARM GAS  /tmp/ccVnw7NL.s 			page 68


 2162 0164 00       		.byte	0
 2163 0165 49       		.uleb128 0x49
 2164 0166 13       		.uleb128 0x13
 2165 0167 2F       		.uleb128 0x2f
 2166 0168 0B       		.uleb128 0xb
 2167 0169 00       		.byte	0
 2168 016a 00       		.byte	0
 2169 016b 1C       		.uleb128 0x1c
 2170 016c 26       		.uleb128 0x26
 2171 016d 00       		.byte	0
 2172 016e 49       		.uleb128 0x49
 2173 016f 13       		.uleb128 0x13
 2174 0170 00       		.byte	0
 2175 0171 00       		.byte	0
 2176 0172 1D       		.uleb128 0x1d
 2177 0173 2E       		.uleb128 0x2e
 2178 0174 01       		.byte	0x1
 2179 0175 3F       		.uleb128 0x3f
 2180 0176 19       		.uleb128 0x19
 2181 0177 03       		.uleb128 0x3
 2182 0178 0E       		.uleb128 0xe
 2183 0179 3A       		.uleb128 0x3a
 2184 017a 0B       		.uleb128 0xb
 2185 017b 3B       		.uleb128 0x3b
 2186 017c 0B       		.uleb128 0xb
 2187 017d 27       		.uleb128 0x27
 2188 017e 19       		.uleb128 0x19
 2189 017f 49       		.uleb128 0x49
 2190 0180 13       		.uleb128 0x13
 2191 0181 11       		.uleb128 0x11
 2192 0182 01       		.uleb128 0x1
 2193 0183 12       		.uleb128 0x12
 2194 0184 06       		.uleb128 0x6
 2195 0185 40       		.uleb128 0x40
 2196 0186 18       		.uleb128 0x18
 2197 0187 9742     		.uleb128 0x2117
 2198 0189 19       		.uleb128 0x19
 2199 018a 01       		.uleb128 0x1
 2200 018b 13       		.uleb128 0x13
 2201 018c 00       		.byte	0
 2202 018d 00       		.byte	0
 2203 018e 1E       		.uleb128 0x1e
 2204 018f 34       		.uleb128 0x34
 2205 0190 00       		.byte	0
 2206 0191 03       		.uleb128 0x3
 2207 0192 08       		.uleb128 0x8
 2208 0193 3A       		.uleb128 0x3a
 2209 0194 0B       		.uleb128 0xb
 2210 0195 3B       		.uleb128 0x3b
 2211 0196 0B       		.uleb128 0xb
 2212 0197 49       		.uleb128 0x49
 2213 0198 13       		.uleb128 0x13
 2214 0199 02       		.uleb128 0x2
 2215 019a 17       		.uleb128 0x17
 2216 019b 00       		.byte	0
 2217 019c 00       		.byte	0
 2218 019d 1F       		.uleb128 0x1f
ARM GAS  /tmp/ccVnw7NL.s 			page 69


 2219 019e 34       		.uleb128 0x34
 2220 019f 00       		.byte	0
 2221 01a0 03       		.uleb128 0x3
 2222 01a1 0E       		.uleb128 0xe
 2223 01a2 3A       		.uleb128 0x3a
 2224 01a3 0B       		.uleb128 0xb
 2225 01a4 3B       		.uleb128 0x3b
 2226 01a5 0B       		.uleb128 0xb
 2227 01a6 49       		.uleb128 0x49
 2228 01a7 13       		.uleb128 0x13
 2229 01a8 02       		.uleb128 0x2
 2230 01a9 17       		.uleb128 0x17
 2231 01aa 00       		.byte	0
 2232 01ab 00       		.byte	0
 2233 01ac 20       		.uleb128 0x20
 2234 01ad 0B       		.uleb128 0xb
 2235 01ae 01       		.byte	0x1
 2236 01af 55       		.uleb128 0x55
 2237 01b0 17       		.uleb128 0x17
 2238 01b1 01       		.uleb128 0x1
 2239 01b2 13       		.uleb128 0x13
 2240 01b3 00       		.byte	0
 2241 01b4 00       		.byte	0
 2242 01b5 21       		.uleb128 0x21
 2243 01b6 0B       		.uleb128 0xb
 2244 01b7 01       		.byte	0x1
 2245 01b8 11       		.uleb128 0x11
 2246 01b9 01       		.uleb128 0x1
 2247 01ba 12       		.uleb128 0x12
 2248 01bb 06       		.uleb128 0x6
 2249 01bc 01       		.uleb128 0x1
 2250 01bd 13       		.uleb128 0x13
 2251 01be 00       		.byte	0
 2252 01bf 00       		.byte	0
 2253 01c0 22       		.uleb128 0x22
 2254 01c1 0B       		.uleb128 0xb
 2255 01c2 01       		.byte	0x1
 2256 01c3 11       		.uleb128 0x11
 2257 01c4 01       		.uleb128 0x1
 2258 01c5 12       		.uleb128 0x12
 2259 01c6 06       		.uleb128 0x6
 2260 01c7 00       		.byte	0
 2261 01c8 00       		.byte	0
 2262 01c9 23       		.uleb128 0x23
 2263 01ca 898201   		.uleb128 0x4109
 2264 01cd 01       		.byte	0x1
 2265 01ce 11       		.uleb128 0x11
 2266 01cf 01       		.uleb128 0x1
 2267 01d0 31       		.uleb128 0x31
 2268 01d1 13       		.uleb128 0x13
 2269 01d2 00       		.byte	0
 2270 01d3 00       		.byte	0
 2271 01d4 24       		.uleb128 0x24
 2272 01d5 8A8201   		.uleb128 0x410a
 2273 01d8 00       		.byte	0
 2274 01d9 02       		.uleb128 0x2
 2275 01da 18       		.uleb128 0x18
ARM GAS  /tmp/ccVnw7NL.s 			page 70


 2276 01db 9142     		.uleb128 0x2111
 2277 01dd 18       		.uleb128 0x18
 2278 01de 00       		.byte	0
 2279 01df 00       		.byte	0
 2280 01e0 25       		.uleb128 0x25
 2281 01e1 898201   		.uleb128 0x4109
 2282 01e4 01       		.byte	0x1
 2283 01e5 11       		.uleb128 0x11
 2284 01e6 01       		.uleb128 0x1
 2285 01e7 31       		.uleb128 0x31
 2286 01e8 13       		.uleb128 0x13
 2287 01e9 01       		.uleb128 0x1
 2288 01ea 13       		.uleb128 0x13
 2289 01eb 00       		.byte	0
 2290 01ec 00       		.byte	0
 2291 01ed 26       		.uleb128 0x26
 2292 01ee 898201   		.uleb128 0x4109
 2293 01f1 01       		.byte	0x1
 2294 01f2 11       		.uleb128 0x11
 2295 01f3 01       		.uleb128 0x1
 2296 01f4 00       		.byte	0
 2297 01f5 00       		.byte	0
 2298 01f6 27       		.uleb128 0x27
 2299 01f7 2E       		.uleb128 0x2e
 2300 01f8 01       		.byte	0x1
 2301 01f9 3F       		.uleb128 0x3f
 2302 01fa 19       		.uleb128 0x19
 2303 01fb 03       		.uleb128 0x3
 2304 01fc 0E       		.uleb128 0xe
 2305 01fd 3A       		.uleb128 0x3a
 2306 01fe 0B       		.uleb128 0xb
 2307 01ff 3B       		.uleb128 0x3b
 2308 0200 05       		.uleb128 0x5
 2309 0201 27       		.uleb128 0x27
 2310 0202 19       		.uleb128 0x19
 2311 0203 11       		.uleb128 0x11
 2312 0204 01       		.uleb128 0x1
 2313 0205 12       		.uleb128 0x12
 2314 0206 06       		.uleb128 0x6
 2315 0207 40       		.uleb128 0x40
 2316 0208 18       		.uleb128 0x18
 2317 0209 9742     		.uleb128 0x2117
 2318 020b 19       		.uleb128 0x19
 2319 020c 01       		.uleb128 0x1
 2320 020d 13       		.uleb128 0x13
 2321 020e 00       		.byte	0
 2322 020f 00       		.byte	0
 2323 0210 28       		.uleb128 0x28
 2324 0211 05       		.uleb128 0x5
 2325 0212 00       		.byte	0
 2326 0213 03       		.uleb128 0x3
 2327 0214 08       		.uleb128 0x8
 2328 0215 3A       		.uleb128 0x3a
 2329 0216 0B       		.uleb128 0xb
 2330 0217 3B       		.uleb128 0x3b
 2331 0218 05       		.uleb128 0x5
 2332 0219 49       		.uleb128 0x49
ARM GAS  /tmp/ccVnw7NL.s 			page 71


 2333 021a 13       		.uleb128 0x13
 2334 021b 02       		.uleb128 0x2
 2335 021c 17       		.uleb128 0x17
 2336 021d 00       		.byte	0
 2337 021e 00       		.byte	0
 2338 021f 29       		.uleb128 0x29
 2339 0220 34       		.uleb128 0x34
 2340 0221 00       		.byte	0
 2341 0222 03       		.uleb128 0x3
 2342 0223 08       		.uleb128 0x8
 2343 0224 3A       		.uleb128 0x3a
 2344 0225 0B       		.uleb128 0xb
 2345 0226 3B       		.uleb128 0x3b
 2346 0227 05       		.uleb128 0x5
 2347 0228 49       		.uleb128 0x49
 2348 0229 13       		.uleb128 0x13
 2349 022a 02       		.uleb128 0x2
 2350 022b 17       		.uleb128 0x17
 2351 022c 00       		.byte	0
 2352 022d 00       		.byte	0
 2353 022e 2A       		.uleb128 0x2a
 2354 022f 34       		.uleb128 0x34
 2355 0230 00       		.byte	0
 2356 0231 03       		.uleb128 0x3
 2357 0232 0E       		.uleb128 0xe
 2358 0233 3A       		.uleb128 0x3a
 2359 0234 0B       		.uleb128 0xb
 2360 0235 3B       		.uleb128 0x3b
 2361 0236 05       		.uleb128 0x5
 2362 0237 49       		.uleb128 0x49
 2363 0238 13       		.uleb128 0x13
 2364 0239 02       		.uleb128 0x2
 2365 023a 17       		.uleb128 0x17
 2366 023b 00       		.byte	0
 2367 023c 00       		.byte	0
 2368 023d 2B       		.uleb128 0x2b
 2369 023e 2E       		.uleb128 0x2e
 2370 023f 01       		.byte	0x1
 2371 0240 3F       		.uleb128 0x3f
 2372 0241 19       		.uleb128 0x19
 2373 0242 03       		.uleb128 0x3
 2374 0243 0E       		.uleb128 0xe
 2375 0244 3A       		.uleb128 0x3a
 2376 0245 0B       		.uleb128 0xb
 2377 0246 3B       		.uleb128 0x3b
 2378 0247 05       		.uleb128 0x5
 2379 0248 27       		.uleb128 0x27
 2380 0249 19       		.uleb128 0x19
 2381 024a 49       		.uleb128 0x49
 2382 024b 13       		.uleb128 0x13
 2383 024c 11       		.uleb128 0x11
 2384 024d 01       		.uleb128 0x1
 2385 024e 12       		.uleb128 0x12
 2386 024f 06       		.uleb128 0x6
 2387 0250 40       		.uleb128 0x40
 2388 0251 18       		.uleb128 0x18
 2389 0252 9742     		.uleb128 0x2117
ARM GAS  /tmp/ccVnw7NL.s 			page 72


 2390 0254 19       		.uleb128 0x19
 2391 0255 01       		.uleb128 0x1
 2392 0256 13       		.uleb128 0x13
 2393 0257 00       		.byte	0
 2394 0258 00       		.byte	0
 2395 0259 2C       		.uleb128 0x2c
 2396 025a 05       		.uleb128 0x5
 2397 025b 00       		.byte	0
 2398 025c 03       		.uleb128 0x3
 2399 025d 0E       		.uleb128 0xe
 2400 025e 3A       		.uleb128 0x3a
 2401 025f 0B       		.uleb128 0xb
 2402 0260 3B       		.uleb128 0x3b
 2403 0261 05       		.uleb128 0x5
 2404 0262 49       		.uleb128 0x49
 2405 0263 13       		.uleb128 0x13
 2406 0264 02       		.uleb128 0x2
 2407 0265 17       		.uleb128 0x17
 2408 0266 00       		.byte	0
 2409 0267 00       		.byte	0
 2410 0268 2D       		.uleb128 0x2d
 2411 0269 34       		.uleb128 0x34
 2412 026a 00       		.byte	0
 2413 026b 03       		.uleb128 0x3
 2414 026c 0E       		.uleb128 0xe
 2415 026d 3A       		.uleb128 0x3a
 2416 026e 0B       		.uleb128 0xb
 2417 026f 3B       		.uleb128 0x3b
 2418 0270 0B       		.uleb128 0xb
 2419 0271 49       		.uleb128 0x49
 2420 0272 13       		.uleb128 0x13
 2421 0273 02       		.uleb128 0x2
 2422 0274 18       		.uleb128 0x18
 2423 0275 00       		.byte	0
 2424 0276 00       		.byte	0
 2425 0277 2E       		.uleb128 0x2e
 2426 0278 2E       		.uleb128 0x2e
 2427 0279 01       		.byte	0x1
 2428 027a 3F       		.uleb128 0x3f
 2429 027b 19       		.uleb128 0x19
 2430 027c 03       		.uleb128 0x3
 2431 027d 0E       		.uleb128 0xe
 2432 027e 3A       		.uleb128 0x3a
 2433 027f 0B       		.uleb128 0xb
 2434 0280 3B       		.uleb128 0x3b
 2435 0281 05       		.uleb128 0x5
 2436 0282 27       		.uleb128 0x27
 2437 0283 19       		.uleb128 0x19
 2438 0284 3C       		.uleb128 0x3c
 2439 0285 19       		.uleb128 0x19
 2440 0286 01       		.uleb128 0x1
 2441 0287 13       		.uleb128 0x13
 2442 0288 00       		.byte	0
 2443 0289 00       		.byte	0
 2444 028a 2F       		.uleb128 0x2f
 2445 028b 2E       		.uleb128 0x2e
 2446 028c 01       		.byte	0x1
ARM GAS  /tmp/ccVnw7NL.s 			page 73


 2447 028d 3F       		.uleb128 0x3f
 2448 028e 19       		.uleb128 0x19
 2449 028f 03       		.uleb128 0x3
 2450 0290 0E       		.uleb128 0xe
 2451 0291 3A       		.uleb128 0x3a
 2452 0292 0B       		.uleb128 0xb
 2453 0293 3B       		.uleb128 0x3b
 2454 0294 05       		.uleb128 0x5
 2455 0295 27       		.uleb128 0x27
 2456 0296 19       		.uleb128 0x19
 2457 0297 49       		.uleb128 0x49
 2458 0298 13       		.uleb128 0x13
 2459 0299 3C       		.uleb128 0x3c
 2460 029a 19       		.uleb128 0x19
 2461 029b 00       		.byte	0
 2462 029c 00       		.byte	0
 2463 029d 00       		.byte	0
 2464              		.section	.debug_loc,"",%progbits
 2465              	.Ldebug_loc0:
 2466              	.LLST0:
 2467 0000 00000000 		.4byte	.LVL0
 2468 0004 04000000 		.4byte	.LVL1
 2469 0008 0100     		.2byte	0x1
 2470 000a 52       		.byte	0x52
 2471 000b 04000000 		.4byte	.LVL1
 2472 000f 0C000000 		.4byte	.LVL2
 2473 0013 0300     		.2byte	0x3
 2474 0015 72       		.byte	0x72
 2475 0016 08       		.sleb128 8
 2476 0017 9F       		.byte	0x9f
 2477 0018 0C000000 		.4byte	.LVL2
 2478 001c 16000000 		.4byte	.LFE70
 2479 0020 0400     		.2byte	0x4
 2480 0022 F3       		.byte	0xf3
 2481 0023 01       		.uleb128 0x1
 2482 0024 52       		.byte	0x52
 2483 0025 9F       		.byte	0x9f
 2484 0026 00000000 		.4byte	0
 2485 002a 00000000 		.4byte	0
 2486              	.LLST1:
 2487 002e 00000000 		.4byte	.LVL3
 2488 0032 1A000000 		.4byte	.LVL4
 2489 0036 0100     		.2byte	0x1
 2490 0038 50       		.byte	0x50
 2491 0039 1A000000 		.4byte	.LVL4
 2492 003d 84000000 		.4byte	.LVL16
 2493 0041 0100     		.2byte	0x1
 2494 0043 59       		.byte	0x59
 2495 0044 84000000 		.4byte	.LVL16
 2496 0048 8C000000 		.4byte	.LVL17
 2497 004c 0100     		.2byte	0x1
 2498 004e 51       		.byte	0x51
 2499 004f 8C000000 		.4byte	.LVL17
 2500 0053 9E000000 		.4byte	.LVL22
 2501 0057 0100     		.2byte	0x1
 2502 0059 59       		.byte	0x59
 2503 005a AA000000 		.4byte	.LVL24
ARM GAS  /tmp/ccVnw7NL.s 			page 74


 2504 005e 08010000 		.4byte	.LVL35
 2505 0062 0100     		.2byte	0x1
 2506 0064 59       		.byte	0x59
 2507 0065 08010000 		.4byte	.LVL35
 2508 0069 0A010000 		.4byte	.LVL36
 2509 006d 0100     		.2byte	0x1
 2510 006f 50       		.byte	0x50
 2511 0070 0A010000 		.4byte	.LVL36
 2512 0074 0C010000 		.4byte	.LVL37
 2513 0078 0100     		.2byte	0x1
 2514 007a 59       		.byte	0x59
 2515 007b 0C010000 		.4byte	.LVL37
 2516 007f 0E010000 		.4byte	.LVL38
 2517 0083 0400     		.2byte	0x4
 2518 0085 F3       		.byte	0xf3
 2519 0086 01       		.uleb128 0x1
 2520 0087 50       		.byte	0x50
 2521 0088 9F       		.byte	0x9f
 2522 0089 0E010000 		.4byte	.LVL38
 2523 008d 20010000 		.4byte	.LFE71
 2524 0091 0100     		.2byte	0x1
 2525 0093 59       		.byte	0x59
 2526 0094 00000000 		.4byte	0
 2527 0098 00000000 		.4byte	0
 2528              	.LLST2:
 2529 009c 00000000 		.4byte	.LVL3
 2530 00a0 24000000 		.4byte	.LVL6
 2531 00a4 0100     		.2byte	0x1
 2532 00a6 51       		.byte	0x51
 2533 00a7 24000000 		.4byte	.LVL6
 2534 00ab 08010000 		.4byte	.LVL35
 2535 00af 0200     		.2byte	0x2
 2536 00b1 91       		.byte	0x91
 2537 00b2 54       		.sleb128 -44
 2538 00b3 08010000 		.4byte	.LVL35
 2539 00b7 0E010000 		.4byte	.LVL38
 2540 00bb 0100     		.2byte	0x1
 2541 00bd 51       		.byte	0x51
 2542 00be 0E010000 		.4byte	.LVL38
 2543 00c2 20010000 		.4byte	.LFE71
 2544 00c6 0200     		.2byte	0x2
 2545 00c8 91       		.byte	0x91
 2546 00c9 54       		.sleb128 -44
 2547 00ca 00000000 		.4byte	0
 2548 00ce 00000000 		.4byte	0
 2549              	.LLST3:
 2550 00d2 00000000 		.4byte	.LVL3
 2551 00d6 20000000 		.4byte	.LVL5
 2552 00da 0100     		.2byte	0x1
 2553 00dc 52       		.byte	0x52
 2554 00dd 20000000 		.4byte	.LVL5
 2555 00e1 94000000 		.4byte	.LVL19
 2556 00e5 0100     		.2byte	0x1
 2557 00e7 56       		.byte	0x56
 2558 00e8 94000000 		.4byte	.LVL19
 2559 00ec 9E000000 		.4byte	.LVL23
 2560 00f0 0400     		.2byte	0x4
ARM GAS  /tmp/ccVnw7NL.s 			page 75


 2561 00f2 7B       		.byte	0x7b
 2562 00f3 00       		.sleb128 0
 2563 00f4 1F       		.byte	0x1f
 2564 00f5 9F       		.byte	0x9f
 2565 00f6 AA000000 		.4byte	.LVL24
 2566 00fa AC000000 		.4byte	.LVL25
 2567 00fe 0100     		.2byte	0x1
 2568 0100 56       		.byte	0x56
 2569 0101 AC000000 		.4byte	.LVL25
 2570 0105 08010000 		.4byte	.LVL35
 2571 0109 0400     		.2byte	0x4
 2572 010b 7B       		.byte	0x7b
 2573 010c 00       		.sleb128 0
 2574 010d 1F       		.byte	0x1f
 2575 010e 9F       		.byte	0x9f
 2576 010f 08010000 		.4byte	.LVL35
 2577 0113 0E010000 		.4byte	.LVL38
 2578 0117 0100     		.2byte	0x1
 2579 0119 52       		.byte	0x52
 2580 011a 0E010000 		.4byte	.LVL38
 2581 011e 16010000 		.4byte	.LVL40
 2582 0122 0400     		.2byte	0x4
 2583 0124 7B       		.byte	0x7b
 2584 0125 00       		.sleb128 0
 2585 0126 1F       		.byte	0x1f
 2586 0127 9F       		.byte	0x9f
 2587 0128 16010000 		.4byte	.LVL40
 2588 012c 20010000 		.4byte	.LFE71
 2589 0130 0100     		.2byte	0x1
 2590 0132 56       		.byte	0x56
 2591 0133 00000000 		.4byte	0
 2592 0137 00000000 		.4byte	0
 2593              	.LLST4:
 2594 013b 3C000000 		.4byte	.LVL9
 2595 013f 7B000000 		.4byte	.LVL15-1
 2596 0143 0100     		.2byte	0x1
 2597 0145 52       		.byte	0x52
 2598 0146 AA000000 		.4byte	.LVL24
 2599 014a D2000000 		.4byte	.LVL28
 2600 014e 0100     		.2byte	0x1
 2601 0150 52       		.byte	0x52
 2602 0151 E4000000 		.4byte	.LVL30
 2603 0155 F0000000 		.4byte	.LVL31
 2604 0159 0100     		.2byte	0x1
 2605 015b 52       		.byte	0x52
 2606 015c 0E010000 		.4byte	.LVL38
 2607 0160 16010000 		.4byte	.LVL40
 2608 0164 0100     		.2byte	0x1
 2609 0166 52       		.byte	0x52
 2610 0167 00000000 		.4byte	0
 2611 016b 00000000 		.4byte	0
 2612              	.LLST5:
 2613 016f 44000000 		.4byte	.LVL10
 2614 0173 72000000 		.4byte	.LVL13
 2615 0177 0100     		.2byte	0x1
 2616 0179 53       		.byte	0x53
 2617 017a 72000000 		.4byte	.LVL13
ARM GAS  /tmp/ccVnw7NL.s 			page 76


 2618 017e 76000000 		.4byte	.LVL14
 2619 0182 0100     		.2byte	0x1
 2620 0184 52       		.byte	0x52
 2621 0185 8E000000 		.4byte	.LVL18
 2622 0189 9C000000 		.4byte	.LVL20
 2623 018d 0100     		.2byte	0x1
 2624 018f 50       		.byte	0x50
 2625 0190 AA000000 		.4byte	.LVL24
 2626 0194 D2000000 		.4byte	.LVL28
 2627 0198 0100     		.2byte	0x1
 2628 019a 53       		.byte	0x53
 2629 019b D2000000 		.4byte	.LVL28
 2630 019f E4000000 		.4byte	.LVL30
 2631 01a3 0100     		.2byte	0x1
 2632 01a5 54       		.byte	0x54
 2633 01a6 E4000000 		.4byte	.LVL30
 2634 01aa 08010000 		.4byte	.LVL35
 2635 01ae 0100     		.2byte	0x1
 2636 01b0 53       		.byte	0x53
 2637 01b1 0E010000 		.4byte	.LVL38
 2638 01b5 16010000 		.4byte	.LVL40
 2639 01b9 0100     		.2byte	0x1
 2640 01bb 53       		.byte	0x53
 2641 01bc 00000000 		.4byte	0
 2642 01c0 00000000 		.4byte	0
 2643              	.LLST6:
 2644 01c4 32000000 		.4byte	.LVL7
 2645 01c8 35000000 		.4byte	.LVL8-1
 2646 01cc 0100     		.2byte	0x1
 2647 01ce 53       		.byte	0x53
 2648 01cf 35000000 		.4byte	.LVL8-1
 2649 01d3 9E000000 		.4byte	.LVL21
 2650 01d7 0100     		.2byte	0x1
 2651 01d9 58       		.byte	0x58
 2652 01da 9E000000 		.4byte	.LVL21
 2653 01de AA000000 		.4byte	.LVL24
 2654 01e2 0800     		.2byte	0x8
 2655 01e4 91       		.byte	0x91
 2656 01e5 54       		.sleb128 -44
 2657 01e6 06       		.byte	0x6
 2658 01e7 23       		.byte	0x23
 2659 01e8 07       		.uleb128 0x7
 2660 01e9 33       		.byte	0x33
 2661 01ea 25       		.byte	0x25
 2662 01eb 9F       		.byte	0x9f
 2663 01ec AA000000 		.4byte	.LVL24
 2664 01f0 08010000 		.4byte	.LVL35
 2665 01f4 0100     		.2byte	0x1
 2666 01f6 58       		.byte	0x58
 2667 01f7 0E010000 		.4byte	.LVL38
 2668 01fb 20010000 		.4byte	.LFE71
 2669 01ff 0100     		.2byte	0x1
 2670 0201 58       		.byte	0x58
 2671 0202 00000000 		.4byte	0
 2672 0206 00000000 		.4byte	0
 2673              	.LLST7:
 2674 020a 5C000000 		.4byte	.LVL11
ARM GAS  /tmp/ccVnw7NL.s 			page 77


 2675 020e 76000000 		.4byte	.LVL14
 2676 0212 0100     		.2byte	0x1
 2677 0214 54       		.byte	0x54
 2678 0215 AA000000 		.4byte	.LVL24
 2679 0219 D0000000 		.4byte	.LVL27
 2680 021d 0100     		.2byte	0x1
 2681 021f 54       		.byte	0x54
 2682 0220 D0000000 		.4byte	.LVL27
 2683 0224 DF000000 		.4byte	.LVL29-1
 2684 0228 0D00     		.2byte	0xd
 2685 022a 73       		.byte	0x73
 2686 022b 00       		.sleb128 0
 2687 022c 7B       		.byte	0x7b
 2688 022d 00       		.sleb128 0
 2689 022e 1C       		.byte	0x1c
 2690 022f 23       		.byte	0x23
 2691 0230 07       		.uleb128 0x7
 2692 0231 7B       		.byte	0x7b
 2693 0232 00       		.sleb128 0
 2694 0233 1A       		.byte	0x1a
 2695 0234 38       		.byte	0x38
 2696 0235 1C       		.byte	0x1c
 2697 0236 9F       		.byte	0x9f
 2698 0237 E4000000 		.4byte	.LVL30
 2699 023b 08010000 		.4byte	.LVL35
 2700 023f 0100     		.2byte	0x1
 2701 0241 54       		.byte	0x54
 2702 0242 0E010000 		.4byte	.LVL38
 2703 0246 12010000 		.4byte	.LVL39
 2704 024a 0100     		.2byte	0x1
 2705 024c 54       		.byte	0x54
 2706 024d 12010000 		.4byte	.LVL39
 2707 0251 16010000 		.4byte	.LVL40
 2708 0255 0300     		.2byte	0x3
 2709 0257 70       		.byte	0x70
 2710 0258 78       		.sleb128 -8
 2711 0259 9F       		.byte	0x9f
 2712 025a 00000000 		.4byte	0
 2713 025e 00000000 		.4byte	0
 2714              	.LLST8:
 2715 0262 C4000000 		.4byte	.LVL26
 2716 0266 D2000000 		.4byte	.LVL28
 2717 026a 0100     		.2byte	0x1
 2718 026c 51       		.byte	0x51
 2719 026d 00000000 		.4byte	0
 2720 0271 00000000 		.4byte	0
 2721              	.LLST9:
 2722 0275 E4000000 		.4byte	.LVL30
 2723 0279 F8000000 		.4byte	.LVL32
 2724 027d 0100     		.2byte	0x1
 2725 027f 55       		.byte	0x55
 2726 0280 F8000000 		.4byte	.LVL32
 2727 0284 08010000 		.4byte	.LVL35
 2728 0288 0B00     		.2byte	0xb
 2729 028a 73       		.byte	0x73
 2730 028b 00       		.sleb128 0
 2731 028c 74       		.byte	0x74
ARM GAS  /tmp/ccVnw7NL.s 			page 78


 2732 028d 00       		.sleb128 0
 2733 028e 1C       		.byte	0x1c
 2734 028f 7C       		.byte	0x7c
 2735 0290 00       		.sleb128 0
 2736 0291 22       		.byte	0x22
 2737 0292 33       		.byte	0x33
 2738 0293 26       		.byte	0x26
 2739 0294 9F       		.byte	0x9f
 2740 0295 00000000 		.4byte	0
 2741 0299 00000000 		.4byte	0
 2742              	.LLST10:
 2743 029d FE000000 		.4byte	.LVL33
 2744 02a1 04010000 		.4byte	.LVL34
 2745 02a5 0100     		.2byte	0x1
 2746 02a7 52       		.byte	0x52
 2747 02a8 00000000 		.4byte	0
 2748 02ac 00000000 		.4byte	0
 2749              	.LLST11:
 2750 02b0 00000000 		.4byte	.LVL41
 2751 02b4 18000000 		.4byte	.LVL46
 2752 02b8 0100     		.2byte	0x1
 2753 02ba 50       		.byte	0x50
 2754 02bb 18000000 		.4byte	.LVL46
 2755 02bf 5A000000 		.4byte	.LVL52
 2756 02c3 0300     		.2byte	0x3
 2757 02c5 74       		.byte	0x74
 2758 02c6 08       		.sleb128 8
 2759 02c7 9F       		.byte	0x9f
 2760 02c8 5A000000 		.4byte	.LVL52
 2761 02cc 88000000 		.4byte	.LFE72
 2762 02d0 0400     		.2byte	0x4
 2763 02d2 F3       		.byte	0xf3
 2764 02d3 01       		.uleb128 0x1
 2765 02d4 50       		.byte	0x50
 2766 02d5 9F       		.byte	0x9f
 2767 02d6 00000000 		.4byte	0
 2768 02da 00000000 		.4byte	0
 2769              	.LLST12:
 2770 02de 16000000 		.4byte	.LVL45
 2771 02e2 20000000 		.4byte	.LVL48
 2772 02e6 0100     		.2byte	0x1
 2773 02e8 55       		.byte	0x55
 2774 02e9 20000000 		.4byte	.LVL48
 2775 02ed 3A000000 		.4byte	.LVL50
 2776 02f1 0100     		.2byte	0x1
 2777 02f3 53       		.byte	0x53
 2778 02f4 3A000000 		.4byte	.LVL50
 2779 02f8 3C000000 		.4byte	.LVL51
 2780 02fc 0100     		.2byte	0x1
 2781 02fe 52       		.byte	0x52
 2782 02ff 3C000000 		.4byte	.LVL51
 2783 0303 5F000000 		.4byte	.LVL53-1
 2784 0307 0100     		.2byte	0x1
 2785 0309 53       		.byte	0x53
 2786 030a 62000000 		.4byte	.LVL56
 2787 030e 88000000 		.4byte	.LFE72
 2788 0312 0100     		.2byte	0x1
ARM GAS  /tmp/ccVnw7NL.s 			page 79


 2789 0314 53       		.byte	0x53
 2790 0315 00000000 		.4byte	0
 2791 0319 00000000 		.4byte	0
 2792              	.LLST13:
 2793 031d 06000000 		.4byte	.LVL42
 2794 0321 5A000000 		.4byte	.LVL52
 2795 0325 0100     		.2byte	0x1
 2796 0327 54       		.byte	0x54
 2797 0328 5A000000 		.4byte	.LVL52
 2798 032c 62000000 		.4byte	.LVL56
 2799 0330 0600     		.2byte	0x6
 2800 0332 F3       		.byte	0xf3
 2801 0333 01       		.uleb128 0x1
 2802 0334 50       		.byte	0x50
 2803 0335 38       		.byte	0x38
 2804 0336 1C       		.byte	0x1c
 2805 0337 9F       		.byte	0x9f
 2806 0338 62000000 		.4byte	.LVL56
 2807 033c 7E000000 		.4byte	.LVL57
 2808 0340 0100     		.2byte	0x1
 2809 0342 54       		.byte	0x54
 2810 0343 7E000000 		.4byte	.LVL57
 2811 0347 88000000 		.4byte	.LFE72
 2812 034b 0600     		.2byte	0x6
 2813 034d F3       		.byte	0xf3
 2814 034e 01       		.uleb128 0x1
 2815 034f 50       		.byte	0x50
 2816 0350 38       		.byte	0x38
 2817 0351 1C       		.byte	0x1c
 2818 0352 9F       		.byte	0x9f
 2819 0353 00000000 		.4byte	0
 2820 0357 00000000 		.4byte	0
 2821              	.LLST14:
 2822 035b 0A000000 		.4byte	.LVL43
 2823 035f 12000000 		.4byte	.LVL44
 2824 0363 0100     		.2byte	0x1
 2825 0365 56       		.byte	0x56
 2826 0366 12000000 		.4byte	.LVL44
 2827 036a 16000000 		.4byte	.LVL45
 2828 036e 0100     		.2byte	0x1
 2829 0370 55       		.byte	0x55
 2830 0371 16000000 		.4byte	.LVL45
 2831 0375 1D000000 		.4byte	.LVL47-1
 2832 0379 0200     		.2byte	0x2
 2833 037b 74       		.byte	0x74
 2834 037c 00       		.sleb128 0
 2835 037d 1D000000 		.4byte	.LVL47-1
 2836 0381 60000000 		.4byte	.LVL54
 2837 0385 0300     		.2byte	0x3
 2838 0387 75       		.byte	0x75
 2839 0388 78       		.sleb128 -8
 2840 0389 9F       		.byte	0x9f
 2841 038a 60000000 		.4byte	.LVL54
 2842 038e 60000000 		.4byte	.LVL55
 2843 0392 0300     		.2byte	0x3
 2844 0394 76       		.byte	0x76
 2845 0395 70       		.sleb128 -16
ARM GAS  /tmp/ccVnw7NL.s 			page 80


 2846 0396 9F       		.byte	0x9f
 2847 0397 62000000 		.4byte	.LVL56
 2848 039b 88000000 		.4byte	.LFE72
 2849 039f 0300     		.2byte	0x3
 2850 03a1 75       		.byte	0x75
 2851 03a2 78       		.sleb128 -8
 2852 03a3 9F       		.byte	0x9f
 2853 03a4 00000000 		.4byte	0
 2854 03a8 00000000 		.4byte	0
 2855              	.LLST15:
 2856 03ac 00000000 		.4byte	.LVL58
 2857 03b0 12000000 		.4byte	.LVL59
 2858 03b4 0100     		.2byte	0x1
 2859 03b6 50       		.byte	0x50
 2860 03b7 12000000 		.4byte	.LVL59
 2861 03bb 2C000000 		.4byte	.LVL62
 2862 03bf 0100     		.2byte	0x1
 2863 03c1 54       		.byte	0x54
 2864 03c2 64000000 		.4byte	.LVL75
 2865 03c6 6C000000 		.4byte	.LFE73
 2866 03ca 0100     		.2byte	0x1
 2867 03cc 50       		.byte	0x50
 2868 03cd 00000000 		.4byte	0
 2869 03d1 00000000 		.4byte	0
 2870              	.LLST16:
 2871 03d5 00000000 		.4byte	.LVL58
 2872 03d9 1A000000 		.4byte	.LVL60
 2873 03dd 0100     		.2byte	0x1
 2874 03df 51       		.byte	0x51
 2875 03e0 1A000000 		.4byte	.LVL60
 2876 03e4 44000000 		.4byte	.LVL69
 2877 03e8 0100     		.2byte	0x1
 2878 03ea 5A       		.byte	0x5a
 2879 03eb 44000000 		.4byte	.LVL69
 2880 03ef 4A000000 		.4byte	.LVL70
 2881 03f3 0100     		.2byte	0x1
 2882 03f5 53       		.byte	0x53
 2883 03f6 4A000000 		.4byte	.LVL70
 2884 03fa 5A000000 		.4byte	.LVL74
 2885 03fe 0100     		.2byte	0x1
 2886 0400 5A       		.byte	0x5a
 2887 0401 5A000000 		.4byte	.LVL74
 2888 0405 64000000 		.4byte	.LVL75
 2889 0409 0400     		.2byte	0x4
 2890 040b F3       		.byte	0xf3
 2891 040c 01       		.uleb128 0x1
 2892 040d 51       		.byte	0x51
 2893 040e 9F       		.byte	0x9f
 2894 040f 64000000 		.4byte	.LVL75
 2895 0413 6C000000 		.4byte	.LFE73
 2896 0417 0100     		.2byte	0x1
 2897 0419 51       		.byte	0x51
 2898 041a 00000000 		.4byte	0
 2899 041e 00000000 		.4byte	0
 2900              	.LLST17:
 2901 0422 00000000 		.4byte	.LVL58
 2902 0426 1F000000 		.4byte	.LVL61-1
ARM GAS  /tmp/ccVnw7NL.s 			page 81


 2903 042a 0100     		.2byte	0x1
 2904 042c 52       		.byte	0x52
 2905 042d 1F000000 		.4byte	.LVL61-1
 2906 0431 4E000000 		.4byte	.LVL71
 2907 0435 0100     		.2byte	0x1
 2908 0437 59       		.byte	0x59
 2909 0438 4E000000 		.4byte	.LVL71
 2910 043c 57000000 		.4byte	.LVL72-1
 2911 0440 0100     		.2byte	0x1
 2912 0442 53       		.byte	0x53
 2913 0443 57000000 		.4byte	.LVL72-1
 2914 0447 5A000000 		.4byte	.LVL73
 2915 044b 0100     		.2byte	0x1
 2916 044d 59       		.byte	0x59
 2917 044e 5A000000 		.4byte	.LVL73
 2918 0452 64000000 		.4byte	.LVL75
 2919 0456 0400     		.2byte	0x4
 2920 0458 F3       		.byte	0xf3
 2921 0459 01       		.uleb128 0x1
 2922 045a 52       		.byte	0x52
 2923 045b 9F       		.byte	0x9f
 2924 045c 64000000 		.4byte	.LVL75
 2925 0460 6C000000 		.4byte	.LFE73
 2926 0464 0100     		.2byte	0x1
 2927 0466 52       		.byte	0x52
 2928 0467 00000000 		.4byte	0
 2929 046b 00000000 		.4byte	0
 2930              	.LLST18:
 2931 046f 20000000 		.4byte	.LVL61
 2932 0473 2C000000 		.4byte	.LVL62
 2933 0477 0300     		.2byte	0x3
 2934 0479 74       		.byte	0x74
 2935 047a 08       		.sleb128 8
 2936 047b 9F       		.byte	0x9f
 2937 047c 38000000 		.4byte	.LVL66
 2938 0480 3A000000 		.4byte	.LVL67
 2939 0484 0100     		.2byte	0x1
 2940 0486 53       		.byte	0x53
 2941 0487 00000000 		.4byte	0
 2942 048b 00000000 		.4byte	0
 2943              	.LLST19:
 2944 048f 20000000 		.4byte	.LVL61
 2945 0493 2C000000 		.4byte	.LVL62
 2946 0497 0200     		.2byte	0x2
 2947 0499 30       		.byte	0x30
 2948 049a 9F       		.byte	0x9f
 2949 049b 2C000000 		.4byte	.LVL62
 2950 049f 3E000000 		.4byte	.LVL68
 2951 04a3 0100     		.2byte	0x1
 2952 04a5 55       		.byte	0x55
 2953 04a6 00000000 		.4byte	0
 2954 04aa 00000000 		.4byte	0
 2955              	.LLST20:
 2956 04ae 20000000 		.4byte	.LVL61
 2957 04b2 2C000000 		.4byte	.LVL62
 2958 04b6 0200     		.2byte	0x2
 2959 04b8 30       		.byte	0x30
ARM GAS  /tmp/ccVnw7NL.s 			page 82


 2960 04b9 9F       		.byte	0x9f
 2961 04ba 2C000000 		.4byte	.LVL62
 2962 04be 3E000000 		.4byte	.LVL68
 2963 04c2 0100     		.2byte	0x1
 2964 04c4 56       		.byte	0x56
 2965 04c5 00000000 		.4byte	0
 2966 04c9 00000000 		.4byte	0
 2967              	.LLST21:
 2968 04cd 20000000 		.4byte	.LVL61
 2969 04d1 2C000000 		.4byte	.LVL62
 2970 04d5 0200     		.2byte	0x2
 2971 04d7 30       		.byte	0x30
 2972 04d8 9F       		.byte	0x9f
 2973 04d9 2C000000 		.4byte	.LVL62
 2974 04dd 3E000000 		.4byte	.LVL68
 2975 04e1 0100     		.2byte	0x1
 2976 04e3 57       		.byte	0x57
 2977 04e4 00000000 		.4byte	0
 2978 04e8 00000000 		.4byte	0
 2979              	.LLST22:
 2980 04ec 2E000000 		.4byte	.LVL63
 2981 04f0 3E000000 		.4byte	.LVL68
 2982 04f4 0100     		.2byte	0x1
 2983 04f6 54       		.byte	0x54
 2984 04f7 00000000 		.4byte	0
 2985 04fb 00000000 		.4byte	0
 2986              		.section	.debug_aranges,"",%progbits
 2987 0000 3C000000 		.4byte	0x3c
 2988 0004 0200     		.2byte	0x2
 2989 0006 00000000 		.4byte	.Ldebug_info0
 2990 000a 04       		.byte	0x4
 2991 000b 00       		.byte	0
 2992 000c 0000     		.2byte	0
 2993 000e 0000     		.2byte	0
 2994 0010 00000000 		.4byte	.LFB69
 2995 0014 1C000000 		.4byte	.LFE69-.LFB69
 2996 0018 00000000 		.4byte	.LFB70
 2997 001c 16000000 		.4byte	.LFE70-.LFB70
 2998 0020 00000000 		.4byte	.LFB71
 2999 0024 20010000 		.4byte	.LFE71-.LFB71
 3000 0028 00000000 		.4byte	.LFB72
 3001 002c 88000000 		.4byte	.LFE72-.LFB72
 3002 0030 00000000 		.4byte	.LFB73
 3003 0034 6C000000 		.4byte	.LFE73-.LFB73
 3004 0038 00000000 		.4byte	0
 3005 003c 00000000 		.4byte	0
 3006              		.section	.debug_ranges,"",%progbits
 3007              	.Ldebug_ranges0:
 3008 0000 38000000 		.4byte	.LBB2
 3009 0004 3A000000 		.4byte	.LBE2
 3010 0008 3C000000 		.4byte	.LBB6
 3011 000c 3E000000 		.4byte	.LBE6
 3012 0010 44000000 		.4byte	.LBB7
 3013 0014 70000000 		.4byte	.LBE7
 3014 0018 B2000000 		.4byte	.LBB8
 3015 001c 08010000 		.4byte	.LBE8
 3016 0020 0E010000 		.4byte	.LBB9
ARM GAS  /tmp/ccVnw7NL.s 			page 83


 3017 0024 16010000 		.4byte	.LBE9
 3018 0028 00000000 		.4byte	0
 3019 002c 00000000 		.4byte	0
 3020 0030 00000000 		.4byte	.LFB69
 3021 0034 1C000000 		.4byte	.LFE69
 3022 0038 00000000 		.4byte	.LFB70
 3023 003c 16000000 		.4byte	.LFE70
 3024 0040 00000000 		.4byte	.LFB71
 3025 0044 20010000 		.4byte	.LFE71
 3026 0048 00000000 		.4byte	.LFB72
 3027 004c 88000000 		.4byte	.LFE72
 3028 0050 00000000 		.4byte	.LFB73
 3029 0054 6C000000 		.4byte	.LFE73
 3030 0058 00000000 		.4byte	0
 3031 005c 00000000 		.4byte	0
 3032              		.section	.debug_line,"",%progbits
 3033              	.Ldebug_line0:
 3034 0000 A0020000 		.section	.debug_str,"MS",%progbits,1
 3034      02008401 
 3034      00000201 
 3034      FB0E0D00 
 3034      01010101 
 3035              	.LASF28:
 3036 0000 68656164 		.ascii	"header\000"
 3036      657200
 3037              	.LASF53:
 3038 0007 474E5520 		.ascii	"GNU C 4.8.2 -mcpu=cortex-m0 -mno-thumb-interwork -m"
 3038      4320342E 
 3038      382E3220 
 3038      2D6D6370 
 3038      753D636F 
 3039 003a 7468756D 		.ascii	"thumb -ggdb -O2 -fomit-frame-pointer -falign-functi"
 3039      62202D67 
 3039      67646220 
 3039      2D4F3220 
 3039      2D666F6D 
 3040 006d 6F6E733D 		.ascii	"ons=16 -ffunction-sections -fdata-sections -fno-com"
 3040      3136202D 
 3040      6666756E 
 3040      6374696F 
 3040      6E2D7365 
 3041 00a0 6D6F6E20 		.ascii	"mon -flto\000"
 3041      2D666C74 
 3041      6F00
 3042              	.LASF47:
 3043 00aa 6C617267 		.ascii	"largestp\000"
 3043      65737470 
 3043      00
 3044              	.LASF46:
 3045 00b3 746F7461 		.ascii	"totalp\000"
 3045      6C7000
 3046              	.LASF3:
 3047 00ba 73686F72 		.ascii	"short int\000"
 3047      7420696E 
 3047      7400
 3048              	.LASF5:
 3049 00c4 73697A65 		.ascii	"size_t\000"
ARM GAS  /tmp/ccVnw7NL.s 			page 84


 3049      5F7400
 3050              	.LASF19:
 3051 00cb 73697A65 		.ascii	"sizetype\000"
 3051      74797065 
 3051      00
 3052              	.LASF29:
 3053 00d4 68656170 		.ascii	"heap_header_t\000"
 3053      5F686561 
 3053      6465725F 
 3053      7400
 3054              	.LASF10:
 3055 00e2 6C6F6E67 		.ascii	"long long int\000"
 3055      206C6F6E 
 3055      6720696E 
 3055      7400
 3056              	.LASF41:
 3057 00f0 63684865 		.ascii	"chHeapObjectInit\000"
 3057      61704F62 
 3057      6A656374 
 3057      496E6974 
 3057      00
 3058              	.LASF39:
 3059 0101 5F5F6675 		.ascii	"__func__.5062\000"
 3059      6E635F5F 
 3059      2E353036 
 3059      3200
 3060              	.LASF35:
 3061 010f 68656170 		.ascii	"heap\000"
 3061      00
 3062              	.LASF31:
 3063 0114 66726565 		.ascii	"free\000"
 3063      00
 3064              	.LASF45:
 3065 0119 63684865 		.ascii	"chHeapStatus\000"
 3065      61705374 
 3065      61747573 
 3065      00
 3066              	.LASF25:
 3067 0126 6E696C5F 		.ascii	"nil_semaphore\000"
 3067      73656D61 
 3067      70686F72 
 3067      6500
 3068              	.LASF7:
 3069 0134 6C6F6E67 		.ascii	"long int\000"
 3069      20696E74 
 3069      00
 3070              	.LASF13:
 3071 013d 696E7433 		.ascii	"int32_t\000"
 3071      325F7400 
 3072              	.LASF43:
 3073 0145 5F5F6675 		.ascii	"__func__.5076\000"
 3073      6E635F5F 
 3073      2E353037 
 3073      3600
 3074              	.LASF2:
 3075 0153 756E7369 		.ascii	"unsigned char\000"
 3075      676E6564 
ARM GAS  /tmp/ccVnw7NL.s 			page 85


 3075      20636861 
 3075      7200
 3076              	.LASF21:
 3077 0161 73656D61 		.ascii	"semaphore_t\000"
 3077      70686F72 
 3077      655F7400 
 3078              	.LASF1:
 3079 016d 7369676E 		.ascii	"signed char\000"
 3079      65642063 
 3079      68617200 
 3080              	.LASF15:
 3081 0179 75696E74 		.ascii	"uint64_t\000"
 3081      36345F74 
 3081      00
 3082              	.LASF12:
 3083 0182 6C6F6E67 		.ascii	"long long unsigned int\000"
 3083      206C6F6E 
 3083      6720756E 
 3083      7369676E 
 3083      65642069 
 3084              	.LASF14:
 3085 0199 75696E74 		.ascii	"uint32_t\000"
 3085      33325F74 
 3085      00
 3086              	.LASF27:
 3087 01a2 70726F76 		.ascii	"provider\000"
 3087      69646572 
 3087      00
 3088              	.LASF55:
 3089 01ab 2F686F6D 		.ascii	"/home/awygle/ChibiOS-RT/demos/STM32/NIL-STM32F051-D"
 3089      652F6177 
 3089      79676C65 
 3089      2F436869 
 3089      62694F53 
 3090 01de 4953434F 		.ascii	"ISCOVERY\000"
 3090      56455259 
 3090      00
 3091              	.LASF40:
 3092 01e7 62706167 		.ascii	"bpages\000"
 3092      657300
 3093              	.LASF23:
 3094 01ee 6D656D67 		.ascii	"memgetfunc_t\000"
 3094      65746675 
 3094      6E635F74 
 3094      00
 3095              	.LASF4:
 3096 01fb 73686F72 		.ascii	"short unsigned int\000"
 3096      7420756E 
 3096      7369676E 
 3096      65642069 
 3096      6E7400
 3097              	.LASF18:
 3098 020e 73797374 		.ascii	"systime_t\000"
 3098      696D655F 
 3098      7400
 3099              	.LASF22:
 3100 0218 63686172 		.ascii	"char\000"
ARM GAS  /tmp/ccVnw7NL.s 			page 86


 3100      00
 3101              	.LASF48:
 3102 021d 74706167 		.ascii	"tpages\000"
 3102      657300
 3103              	.LASF24:
 3104 0224 6D656D6F 		.ascii	"memory_heap_t\000"
 3104      72795F68 
 3104      6561705F 
 3104      7400
 3105              	.LASF50:
 3106 0232 64656661 		.ascii	"default_heap\000"
 3106      756C745F 
 3106      68656170 
 3106      00
 3107              	.LASF17:
 3108 023f 636E745F 		.ascii	"cnt_t\000"
 3108      7400
 3109              	.LASF26:
 3110 0245 6D656D6F 		.ascii	"memory_heap\000"
 3110      72795F68 
 3110      65617000 
 3111              	.LASF42:
 3112 0251 63684865 		.ascii	"chHeapFree\000"
 3112      61704672 
 3112      656500
 3113              	.LASF11:
 3114 025c 5F5F7569 		.ascii	"__uint64_t\000"
 3114      6E743634 
 3114      5F7400
 3115              	.LASF51:
 3116 0267 63685365 		.ascii	"chSemSignal\000"
 3116      6D536967 
 3116      6E616C00 
 3117              	.LASF9:
 3118 0273 6C6F6E67 		.ascii	"long unsigned int\000"
 3118      20756E73 
 3118      69676E65 
 3118      6420696E 
 3118      7400
 3119              	.LASF44:
 3120 0285 63684865 		.ascii	"chHeapAllocAligned\000"
 3120      6170416C 
 3120      6C6F6341 
 3120      6C69676E 
 3120      656400
 3121              	.LASF8:
 3122 0298 5F5F7569 		.ascii	"__uint32_t\000"
 3122      6E743332 
 3122      5F7400
 3123              	.LASF36:
 3124 02a3 73697A65 		.ascii	"size\000"
 3124      00
 3125              	.LASF37:
 3126 02a8 68656170 		.ascii	"heapp\000"
 3126      7000
 3127              	.LASF6:
 3128 02ae 5F5F696E 		.ascii	"__int32_t\000"
ARM GAS  /tmp/ccVnw7NL.s 			page 87


 3128      7433325F 
 3128      7400
 3129              	.LASF30:
 3130 02b8 616C6967 		.ascii	"align\000"
 3130      6E00
 3131              	.LASF20:
 3132 02be 73746B61 		.ascii	"stkalign_t\000"
 3132      6C69676E 
 3132      5F7400
 3133              	.LASF32:
 3134 02c9 75736564 		.ascii	"used\000"
 3134      00
 3135              	.LASF56:
 3136 02ce 68656170 		.ascii	"heap_header\000"
 3136      5F686561 
 3136      64657200 
 3137              	.LASF54:
 3138 02da 2E2E2F2E 		.ascii	"../../../os/common/oslib/src/chheap.c\000"
 3138      2E2F2E2E 
 3138      2F6F732F 
 3138      636F6D6D 
 3138      6F6E2F6F 
 3139              	.LASF38:
 3140 0300 5F5F6675 		.ascii	"__func__.5053\000"
 3140      6E635F5F 
 3140      2E353035 
 3140      3300
 3141              	.LASF52:
 3142 030e 63685365 		.ascii	"chSemWaitTimeout\000"
 3142      6D576169 
 3142      7454696D 
 3142      656F7574 
 3142      00
 3143              	.LASF0:
 3144 031f 756E7369 		.ascii	"unsigned int\000"
 3144      676E6564 
 3144      20696E74 
 3144      00
 3145              	.LASF34:
 3146 032c 70616765 		.ascii	"pages\000"
 3146      7300
 3147              	.LASF16:
 3148 0332 6D73675F 		.ascii	"msg_t\000"
 3148      7400
 3149              	.LASF33:
 3150 0338 6E657874 		.ascii	"next\000"
 3150      00
 3151              	.LASF57:
 3152 033d 5F686561 		.ascii	"_heap_init\000"
 3152      705F696E 
 3152      697400
 3153              	.LASF49:
 3154 0348 6C706167 		.ascii	"lpages\000"
 3154      657300
 3155              		.comm	__gnu_lto_v1,1,1
 3156              		.ident	"GCC: (4.8.2-14ubuntu1+6) 4.8.2"
ARM GAS  /tmp/ccVnw7NL.s 			page 88


DEFINED SYMBOLS
                            *ABS*:0000000000000000 chheap.c
     /tmp/ccVnw7NL.s:483    .text._heap_init:0000000000000000 $t
     /tmp/ccVnw7NL.s:489    .text._heap_init:0000000000000000 _heap_init
     /tmp/ccVnw7NL.s:514    .text._heap_init:0000000000000014 $d
     /tmp/ccVnw7NL.s:520    .text.chHeapObjectInit:0000000000000000 $t
     /tmp/ccVnw7NL.s:526    .text.chHeapObjectInit:0000000000000000 chHeapObjectInit
     /tmp/ccVnw7NL.s:561    .text.chHeapAllocAligned:0000000000000000 $t
     /tmp/ccVnw7NL.s:567    .text.chHeapAllocAligned:0000000000000000 chHeapAllocAligned
     /tmp/ccVnw7NL.s:855    .text.chHeapAllocAligned:000000000000011c $d
     /tmp/ccVnw7NL.s:860    .text.chHeapFree:0000000000000000 $t
     /tmp/ccVnw7NL.s:866    .text.chHeapFree:0000000000000000 chHeapFree
     /tmp/ccVnw7NL.s:1004   .text.chHeapStatus:0000000000000000 $t
     /tmp/ccVnw7NL.s:1010   .text.chHeapStatus:0000000000000000 chHeapStatus
     /tmp/ccVnw7NL.s:1124   .text.chHeapStatus:0000000000000068 $d
     /tmp/ccVnw7NL.s:1129   .bss.default_heap:0000000000000000 $d
     /tmp/ccVnw7NL.s:1133   .bss.default_heap:0000000000000000 default_heap
                            *COM*:0000000000000001 __gnu_lto_v1
                     .debug_frame:0000000000000010 $d
     /tmp/ccVnw7NL.s:519    .text._heap_init:000000000000001c $t
     /tmp/ccVnw7NL.s:1128   .text.chHeapStatus:000000000000006c $t

UNDEFINED SYMBOLS
chCoreAllocAligned
chSemWaitTimeout
chSemSignal
