ARM GAS  /tmp/ccAwFEBG.s 			page 1


   1              		.cpu cortex-m0
   2              		.fpu softvfp
   3              		.eabi_attribute 20, 1
   4              		.eabi_attribute 21, 1
   5              		.eabi_attribute 23, 3
   6              		.eabi_attribute 24, 1
   7              		.eabi_attribute 25, 1
   8              		.eabi_attribute 26, 1
   9              		.eabi_attribute 30, 2
  10              		.eabi_attribute 34, 0
  11              		.eabi_attribute 18, 4
  12              		.code	16
  13              		.file	"chmemcore.c"
  14              		.text
  15              	.Ltext0:
  16              		.section	.gnu.lto_.jmpfuncs.ed7fda948652dc8e,"",%progbits
  17 0000 789C6362 		.ascii	"x\234cb`b\300\006\270\2404\013\003\003+3\0333;\003\003"
  17      6062C006 
  17      B8A0340B 
  17      03032B33 
  17      1B333B03 
  18 0015 00021E00 		.ascii	"\000\002\036\000+"
  18      2B
  19              		.text
  20              		.section	.gnu.lto_.inline.ed7fda948652dc8e,"",%progbits
  21 0000 789C6362 		.ascii	"x\234cb`b\300\006*\2404\013\003\003+\013#\003\023\313"
  21      6062C006 
  21      2AA0340B 
  21      03032B0B 
  21      230313CB 
  22 0014 027906B6 		.ascii	"\002y\006\266\005\362`\305\254\014\202\002\214L\214"
  22      05F260C5 
  22      AC0C8202 
  22      8C4C8C
  23 0023 8C203688 		.ascii	"\214 6\210`\021\2310\223\021\"\313\366A\217\207\201"
  23      60119930 
  23      931122CB 
  23      F6418F87 
  23      81
  24 0034 E9023F0B 		.ascii	"\351\002?\013H\216\215AX\210\221\011\254\004\254\230"
  24      488E8D41 
  24      58889109 
  24      AC04AC98 
  25 0044 4562C30E 		.ascii	"Eb\303\0164u\034 u\354\014l\254@+\200bp+\030\000\354"
  25      34751C20 
  25      75EC0C6C 
  25      AC402B80 
  25      62702B18 
  26 005a 3A0CF7   		.ascii	":\014\367"
  27              		.text
  28              		.section	.gnu.lto_.pureconst.ed7fda948652dc8e,"",%progbits
  29 0000 789C6362 		.ascii	"x\234cb`b\340d\200\000\026\006\011V\0116+v\026\000\003"
  29      6062E064 
  29      80001606 
  29      09560936 
  29      2B761600 
  30 0015 380092   		.ascii	"8\000\222"
ARM GAS  /tmp/ccAwFEBG.s 			page 2


  31              		.text
  32              		.section	.gnu.lto__core_init.ed7fda948652dc8e,"",%progbits
  33 0000 789C7D4E 		.ascii	"x\234}N?K\303@\024\177\277\213\005\007\005Wq\021\235"
  33      3F4BC340 
  33      147FBF8B 
  33      05070557 
  33      71119D
  34 0013 044976DD 		.ascii	"\004Iv\335\365\013T\320\351Hc\240\001\257\221ft\350"
  34      F50B54D0 
  34      E94863A0 
  34      01AF9166 
  34      74E8
  35 0025 8B8A7411 		.ascii	"\213\212t\021\342 \202\235\212\270\252\233\203P2uS\020"
  35      E220829D 
  35      8AB8AA9B 
  35      83503275 
  35      5310
  36 0037 FD0071F7 		.ascii	"\375\000q\367\023t\360\274\344j\221\202>\356\336{\367"
  36      1374F0BC 
  36      E46A9182 
  36      3EEEDE7B 
  36      F7
  37 0048 DEFDFE08 		.ascii	"\336\375\376\010\0224\035\213\346n\203h\313T8\004\221"
  37      12341D8B 
  37      E66E8368 
  37      CB543804 
  37      91
  38 0059 BD10A5B3 		.ascii	"\275\020\245\263\002(\033\002u\004:{\250\376\336\213"
  38      02281B02 
  38      75043A7B 
  38      A8FEDE8B 
  39 0069 BCD0FA6E 		.ascii	"\274\320\372n0\274\372DO\314\230I\215N\231\263\345\025"
  39      30BCFA44 
  39      4FCC9849 
  39      8D4E99B3 
  39      E515
  40 007b EA7391E5 		.ascii	"\352s\221\345og\227\340\017\276\340/\255\021\301\250"
  40      6F6797E0 
  40      0FBEE02F 
  40      AD11C1A8 
  41 008b AD83024C 		.ascii	"\255\203\002L\264|\334`\342`\214y\0372\343!\357\262"
  41      B47CDC60 
  41      E2608C79 
  41      1F32E321 
  41      EFB2
  42 009d D69D0AB2 		.ascii	"\326\235\012\2621\005\271\305/\323vS7\271t\267cV\246"
  42      3105B9C5 
  42      2FD37653 
  42      37B974B7 
  42      6356A6
  43 00b0 3ACF743C 		.ascii	":\317t<:y<_\362\321G\215zt\2352/D\300\021\215\270[v"
  43      3A793C5F 
  43      F2D1478D 
  43      7A749D32 
  43      2F44C011 
  44 00c8 4255B85D 		.ascii	"BU\270]c\312\222\331\015oFp\024\254ZE\362\364?\211\370"
  44      63CA92D9 
ARM GAS  /tmp/ccAwFEBG.s 			page 3


  44      0D6F4670 
  44      14AC5A45 
  44      F2F43F89 
  45 00dd 9BC4A946 		.ascii	"\233\304\251F\257\224\026\203UK\361\023u#`\\\226\230"
  45      AF941683 
  45      554BF113 
  45      7523605C 
  45      9698
  46 00ef 35D7F5EC 		.ascii	"5\327\365\354\211\023/\210\225\212[\246;\210\032^\322"
  46      89132F88 
  46      958A5BA6 
  46      3B881A5E 
  46      D2
  47 0100 0EBCA0A9 		.ascii	"\016\274\240\251B\025\304\355\320\015h^\312f\350\037"
  47      4215C4ED 
  47      D00D685E 
  47      CA66E81F 
  48 0110 CA869F84 		.ascii	"\312\206\237\204R\316\215_ak_\312o\216\225o\014"
  48      52CE8D5F 
  48      616B5FCA 
  48      6F8E956F 
  48      0C
  49              		.text
  50              		.section	.gnu.lto_chCoreAllocAlignedI.ed7fda948652dc8e,"",%progbits
  51 0000 789C9D54 		.ascii	"x\234\235TMh\023Q\020\236yo\263I\363\323$\255\012\361"
  51      4D681351 
  51      109E796F 
  51      B349F3D3 
  51      24AD0AF1 
  52 0014 62E94D90 		.ascii	"b\351M\220D[\364\344\301\253W\261\240\240\207v\0151"
  52      445BF4E4 
  52      C1AB57B1 
  52      A0A08776 
  52      0D31
  53 0026 E026D2F6 		.ascii	"\340&\322\366 x\350K\267\320\372\203\011\342E\275\264"
  53      2078E84B 
  53      B7D0FA83 
  53      09E245BD 
  53      B4
  54 0037 88D85245 		.ascii	"\210\330RE\360$\0045\007Q+*z\024/\201R\020\024\321\233"
  54      F0240435 
  54      07512B2A 
  54      7A142F81 
  54      521014D1 
  55 004c B4E23AF3 		.ascii	"\264\342:\363\266\273m\322\242\301\307\356\314{\337"
  55      B6BB6DD2 
  55      A2C1C7EE 
  55      CC7BDF
  56 005b CC37336F 		.ascii	"\31473o2Y\001\002\332\327 \275\207\015\200\323\2441"
  56      32590102 
  56      DAD720BD 
  56      870D80D3 
  56      A431
  57 006d 04286AEF 		.ascii	"\004(j\357\000*\021!\214\317aPQ9\377\002@\305%\032\036"
  57      002A1121 
  57      8CCF6150 
  57      5139FF02 
ARM GAS  /tmp/ccAwFEBG.s 			page 4


  57      40C5251A 
  58 0082 6E20F206 		.ascii	"n \362\006\020&\2044p\342$r\020\263\037\346\224\272"
  58      10268434 
  58      70E22472 
  58      10B31FE6 
  58      94BA
  59 0094 DE5C597D 		.ascii	"\336\\Y}/n\336hL\315\252_\256\213XDJ\270\017\301B8A"
  59      2F6EDE68 
  59      4CCDAA5F 
  59      AE8B5844 
  59      4AB80FC1 
  60 00ab 07ECD34A 		.ascii	"\007\354\323J\030\255\025x\\\365h^ui\236,\242\024p\250"
  60      18AD1578 
  60      5CF5685E 
  60      75699E2C 
  60      A21470A8 
  61 00bf 335AE3D3 		.ascii	"3Z\343\323\364\325\314\345\331\311\232\372M\031u\302"
  61      F4D5CCE5 
  61      D9C99AFA 
  61      4D1975C2 
  62 00cf 23FF97F0 		.ascii	"#\377\227\360h\207\011\177\274\254f^\267$<\266-\323"
  62      6887097F 
  62      BCAC665E 
  62      B7243CB6 
  62      2DD3
  63 00e1 C62DD4FA 		.ascii	"\306-\324\372\364\265\214j\241\236\372W\322\207\242"
  63      F4B58C6A 
  63      A19EFA57 
  63      D287A2
  64 00f0 D174DD37 		.ascii	"\321t\3357\365\346\362\032\246w\"\024\321\220h#\032"
  64      F5E6F21A 
  64      A6772214 
  64      D1906823 
  64      1A
  65 0101 2444888E 		.ascii	"$D\210\216\322d\021f\021\241\234\"\012\3038\207\375"
  65      D2641166 
  65      11A19C22 
  65      0AC33887 
  65      FD
  66 0112 10237D87 		.ascii	"\020#}\207t\234-\011\026\335,\222\004/\022\234\"}\227"
  66      749C2D09 
  66      16DD2C92 
  66      042F129C 
  66      227D97
  67 0125 749AF43D 		.ascii	"t\232\364=\322=l\354\245\303\002\035h\205`J\251Z\237"
  67      D23D6CEC 
  67      A5C3021D 
  67      6885604A 
  67      A95A9F
  68 0138 E76CA304 		.ascii	"\347l\243\004\256\223\326q\222<\000C(X\313\267\340\314"
  68      AE93D671 
  68      923C0043 
  68      2858CBB7 
  68      E0CC
  69 014a 388BD5DD 		.ascii	"8\213\325\335\303\370\200\246\247\200\241\002\312\002"
  69      C3F880A6 
  69      A780A102 
ARM GAS  /tmp/ccAwFEBG.s 			page 5


  69      CA02
  70 0158 D225D820 		.ascii	"\322%\330 }\324$\003\337.\344\322J\002['\027\002k\270"
  70      7DD42403 
  70      DF2EE4D2 
  70      4A025B27 
  70      17026BB8 
  71 016c C0F18950 		.ascii	"\300\361\211PwF|,\242Ia\200%\020\036Fw#XS\227~\322\234"
  71      77467C2C 
  71      A2496180 
  71      25101E46 
  71      77235853 
  72 0184 F99ED1DB 		.ascii	"\371\236\321\333p\253\242T\212\372y\021V\325\014\357"
  72      70ABA254 
  72      8AFA7911 
  72      56D50CEF 
  73 0194 4CAFF99C 		.ascii	"L\257\371\234\322\\o$\321\276\005\031cDk+1\256\013\217"
  73      D25C6F24 
  73      D1BE0519 
  73      63446B2B 
  73      31AE0B8F 
  74 01a8 B5A10932 		.ascii	"\265\241\0112p\024\271Q\270S\017\254\335\272\366\204"
  74      7014B951 
  74      B8530FAC 
  74      DDBAF684 
  75 01b8 0EFEC5D9 		.ascii	"\016\376\305\331\345\303I\262l*\334\353!\301^\355\217"
  75      E5C349B2 
  75      6C2ADCEB 
  75      21C15EED 
  75      8F
  76 01c9 D71AE87B 		.ascii	"\327\032\350{\246\266\257\335\370[\355i\242\351:.9O"
  76      A6B6AFDD 
  76      F85BED69 
  76      A2E93A2E 
  76      394F
  77 01db 83403D1A 		.ascii	"\203@=\032\247\254\257\340\371J%\261\011\216l\314\322"
  77      A7ACAFE0 
  77      F94A25B1 
  77      098E6CCC 
  77      D2
  78 01ec 10B599FE 		.ascii	"\020\265\231\376\316\374\233]q\226\253{|\257^]\362z"
  78      CEFC9B5D 
  78      7196AB7B 
  78      7CAF5E5D 
  78      F27A
  79 01fe 6BBF9B1E 		.ascii	"k\277\233\036\334IW\211\352G6\3644|\240/\004\303\332"
  79      DC495789 
  79      EA4736F4 
  79      347CA02F 
  79      04C3DA
  80 0211 EF2320BB 		.ascii	"\357# \273\322e\304\327';(\207\274\377,\316\023\204"
  80      D265C4D7 
  80      273B2887 
  80      BCFF2CCE 
  80      1384
  81 0223 ECCB5FA2 		.ascii	"\354\313_\242\275\331l\316{\312c9\253l\333\345\022\355"
  81      BDD96CCE 
  81      7BCA6339 
ARM GAS  /tmp/ccAwFEBG.s 			page 6


  81      AB6CDBE5 
  81      12ED
  82 0235 CE154772 		.ascii	"\316\025Grc\243V\316:k\347m\253<\232\317Z\320U\312_"
  82      63A356CE 
  82      3A6BE76D 
  82      AB3C9ACF 
  82      5AD055CA 
  83 024a 18A76376 		.ascii	"\030\247cv\177\260;\020\311\227\316\360f\300\337\014"
  83      7FB03B10 
  83      C997CEF0 
  83      66C0DF0C 
  84 025a 06B68378 		.ascii	"\006\266\203x\376\017\315n\030\346"
  84      FE0FCD6E 
  84      18E6
  85              		.text
  86              		.section	.gnu.lto_chCoreAllocAligned.ed7fda948652dc8e,"",%progbits
  87 0000 789C9D54 		.ascii	"x\234\235T_HSa\024?\347\336;\267\271\251\363_\244\017"
  87      5F485361 
  87      143FE7DE 
  87      3BB7B9A9 
  87      F35FA40F 
  88 0014 293E15D4 		.ascii	")>\025\324\226J\275\005\205\020\364 A&\344\223\314\353"
  88      964ABD05 
  88      8510F420 
  88      4126E493 
  88      CCEB
  89 0026 9817DC26 		.ascii	"\230\027\334&\233\205\325\203w.\320RR\"!*A1K\2610\212"
  89      9B85D583 
  89      772ED052 
  89      5222212A 
  89      41314BB1 
  90 003c CAB03F83 		.ascii	"\312\260?\203\242R\313\212\202\250\036\222\006\021\364"
  90      A252CB8A 
  90      82A81E92 
  90      0611F4
  91 004b 077D2A2C 		.ascii	"\007}*,\274\235\357\376\331\246\256\224.\273\337\371"
  91      BC9DEFFE 
  91      D9A6AE94 
  91      2EBBDFF9 
  92 005b BEDFF97E 		.ascii	"\276\337\371~\347\374\276s\2773\0168X\376\224\323+\244"
  92      E7FCBE73 
  92      BF330E38 
  92      58FE94D3 
  92      2BA4
  93 006d 017C248B 		.ascii	"\001|$\213&@\256g\006 l\3418\341\263\031\344t~\370\021"
  93      2640AE67 
  93      06206CE1 
  93      38E1B319 
  93      E4747EF8 
  94 0082 806CE751 		.ascii	"\200l\347Q\320p\001\221M\000\241\225\343\005l\255A\026"
  94      D0700191 
  94      4D00A195 
  94      E3056CAD 
  94      4116
  95 0094 C45C0203 		.ascii	"\304\\\002\003\262|jv\350\342\355\002\271\277\255G^"
  95      B27C6A76 
  95      E8E2ED02 
ARM GAS  /tmp/ccAwFEBG.s 			page 7


  95      B9BFAD47 
  95      5E
  96 00a5 54149490 		.ascii	"T\024\224\220\322mF\020\021\016\320\002\213U\303\011"
  96      D26D4610 
  96      110ED002 
  96      8B55C309 
  97 00b5 4BF36BCC 		.ascii	"K\363k\314\350D\373\311d&\317A\351\032\231\363\217\273"
  97      E844FBC9 
  97      6426CF41 
  97      E91A99F3 
  97      8FBB
  98 00c7 0BA69630 		.ascii	"\013\246\2260\313S2}\270\202\372\276\275\253\340D\202"
  98      CB53327D 
  98      B882FABE 
  98      BDABE044 
  98      82
  99 00d8 2A70B063 		.ascii	"*p\260cmI\345k\303\262\265_\376\255(\274\232q\367\032"
  99      6D49E56B 
  99      C3B2B55F 
  99      FEAD28BC 
  99      9A71F71A 
 100 00ec B5BE69EF 		.ascii	"\265\276i\357]\226p\357\377%\254Y\2156\306Eg\025\345"
 100      5D9670EF 
 100      FF25AC59 
 100      8D36C645 
 100      6715E5
 101 00ff FCAB3BB1 		.ascii	"\374\253;\261\021\314)\344\321\207(\320\300\231\201"
 101      11CC29E4 
 101      D18728D0 
 101      C09981
 102 010e D25AD860 		.ascii	"\322Z\330`eC:\270q\000K\300F\366\012Y;\331Q\262\031"
 102      65433AB8 
 102      71004BC0 
 102      46F60A59 
 102      3BD951B2 
 103 0123 CC99C986 		.ascii	"\314\231\311\206,68\010\036$8\233\354\010\331\034\262"
 103      2C363808 
 103      1E24389B 
 103      EC08D91C 
 103      B2
 104 0134 97C8E632 		.ascii	"\227\310\3462g\036-\206h\221O\013\023\2456\3011Y\356"
 104      671E2D86 
 104      68914F0B 
 104      13A536C1 
 104      3159EE
 105 0147 29D68F7C 		.ascii	")\326\217|c\252+\371\303\232\334x\001\271U\304\003\363"
 105      63AA2BF9 
 105      C39ADC78 
 105      01B955C4 
 105      03F3
 106 0159 D3B39F46 		.ascii	"\323\263\237Fv\333\252\211A\226\237\201\360\374t,\266"
 106      76DBAA89 
 106      41969F81 
 106      F0FC742C 
 106      B6
 107 016a 5ECF60A4 		.ascii	"^\317`\244\212\336\352\375f\333\030_u\316\224\001I\032"
 107      8ADEEAFD 
ARM GAS  /tmp/ccAwFEBG.s 			page 8


 107      66DB185F 
 107      75CE9401 
 107      491A
 108 017c 233122B2 		.ascii	"#1\"\262:\351\227\036\341\001\362Z\007l\200\247\330"
 108      3AE9971E 
 108      E101F25A 
 108      076C80A7 
 108      D8
 109 018d 279FD929 		.ascii	"'\237\331)a\232\346\233\2046\013\350\265\360\322.\035"
 109      619AE69B 
 109      84360BE8 
 109      B5F0D22E 
 109      1D
 110 019e D0CF707D 		.ascii	"\320\317p}j\032\351\033\204\347\024%K\375j\257q\265"
 110      6A1AE91B 
 110      84E71425 
 110      4BFD6AAF 
 110      71B5
 111 01b0 FA7B9180 		.ascii	"\372{\221\200g\020\351\210\214v\027\352z\265\032\032"
 111      6710E988 
 111      8C7617EA 
 111      7AB51A1A 
 112 01c0 3AE51FA7 		.ascii	":\345\037\247\251\0307\011\321\322&4\363Z\0003\011Y"
 112      A9183709 
 112      D1D22634 
 112      F35A0033 
 112      0959
 113 01d2 12C68DE3 		.ascii	"\022\306\215\343\344\367\242\205|,'(\364d\001\333\320"
 113      E4F7A285 
 113      7C2C2728 
 113      F46401DB 
 113      D0
 114 01e3 36C21B5E 		.ascii	"6\302\033^\253\301\231\210\324\031X\272J\262\262cq\032"
 114      ABC19988 
 114      D41958BA 
 114      4AB2B263 
 114      711A
 115 01f5 661C355D 		.ascii	"f\0345]eO\376\\x\301\031\233m\347\340lX\226\035t\321"
 115      654FFE5C 
 115      78C1199B 
 115      6DE7E06C 
 115      58961D74 
 116 020a 8EC282DC 		.ascii	"\216\302\202\334\301ff\255{XV\263~B\242}\217'\265\023"
 116      C16666AD 
 116      7B5856B3 
 116      7E42A27D 
 116      8F27B513 
 117 021e 4D131A87 		.ascii	"M\023\032\2072H\0079\226\241\231\344`Q\204\204\366\310"
 117      32480739 
 117      96A199E4 
 117      60518484 
 117      F6C8
 118 0230 44DC9BA5 		.ascii	"D\334\233\245\312\317T\203\177\211\2543`\007y\226h\037"
 118      CACF5483 
 118      7F89AC33 
 118      60077996 
 118      681F
ARM GAS  /tmp/ccAwFEBG.s 			page 9


 119 0242 54B53B34 		.ascii	"T\265;4\355\343\277\242h\354\314N\255\235\377\227\366"
 119      EDE3BFA2 
 119      68ECCC4E 
 119      AD9DFF97 
 119      F6
 120 0253 1CA2A93A 		.ascii	"\034\242\251:\216G\356\305\003\345\2528e}\002\017?\205"
 120      8E47EEC5 
 120      03E5AA38 
 120      657D020F 
 120      3F85
 121 0265 33920A99 		.ascii	"3\222\012\231\233\370\310\325\024\230\376\037y\342v"
 121      9BF8C8D5 
 121      1498FE1F 
 121      79E276
 122 0274 4662DD45 		.ascii	"Fb\335E\306\256<U\262^\332\2714\015^KU\211jD\026\324"
 122      C6AE3C55 
 122      B25EDAB9 
 122      340D5E4B 
 122      55896A44 
 123 028a 1B4FD770 		.ascii	"\033O\327p\266o\010\265\233\341\306\253\352=\001P\033"
 123      B66F08B5 
 123      9BE1C6AB 
 123      EA3D0150 
 123      1B
 124 029b 21F20157 		.ascii	"!\362\001W6\302\242\255(\321\010\317\223\032A\240\327"
 124      36C2A2AD 
 124      28D108CF 
 124      931A41A0 
 124      D7
 125 02ac 6434C2BB 		.ascii	"d4\302\273\2776\302K\010\367\017\2334\222\027\363\031"
 125      BF36C24B 
 125      08F70F9B 
 125      349217F3 
 125      19
 126 02bd F416F299 		.ascii	"\364\026\362\231B\"s_\357\262\243\361\227\357\333Ys"
 126      4222735F 
 126      EFB2A3F1 
 126      97EFDB59 
 126      73
 127 02ce 2293C8C2 		.ascii	"\"\223\310\302lr:]\332/\020r\211\001\237/\340\247Y\243"
 127      6C723A5D 
 127      DA2F1072 
 127      89019F2F 
 127      E0A759A3 
 128 02e2 54E70A05 		.ascii	"T\347\012\005E\227\330\340\363\370\304@\320\343\024"
 128      4597D8E0 
 128      F3F8C440 
 128      D0E314
 129 02f1 41084947 		.ascii	"A\010IG<\330d\365{Z\232\011un\263x\374\365lRnL\312\342"
 129      3CD864F5 
 129      7B5A9A09 
 129      756EB378 
 129      FCF56C52 
 130 0309 BED2F86C 		.ascii	"\276\322\370lki\212\004\344sUTV\355\251rI~\261\361`"
 130      6B698A04 
 130      E4735554 
 130      56EDA972 
ARM GAS  /tmp/ccAwFEBG.s 			page 10


 130      497EB1F1 
 131 031e BDC725FA 		.ascii	"\275\307%\372BR\250\326+\212\316\006\330\222\202\321"
 131      4252A8D6 
 131      2B8ACE06 
 131      D89282D1 
 132 032e 14083687 		.ascii	"\024\0106\207\\\273\366UVT\266\220*&\251\366\320v\037"
 132      5CBBF655 
 132      5654B690 
 132      2A26A9F6 
 132      D0761F
 133 0341 EDB6884D 		.ascii	"\355\266\210M!\251\276X\0023\245\013\004\017\203\311"
 133      21A9BE58 
 133      0233A50B 
 133      040F83C9 
 134 0351 DD2879FD 		.ascii	"\335(y\375*\354!\370\017\364\246\262\233"
 134      2AEC21F8 
 134      0FF4A6B2 
 134      9B
 135              		.text
 136              		.section	.gnu.lto_chCoreGetStatusX.ed7fda948652dc8e,"",%progbits
 137 0000 789C9D52 		.ascii	"x\234\235R\277K\303@\030\375\276\273\\\233.\"N\272\225"
 137      BF4BC340 
 137      18FDBEBB 
 137      5C9B2E22 
 137      4EBA95
 138 0013 6E822493 		.ascii	"n\202$\223\277\026g\035\205\012:\326\030j\301$\320:"
 138      BF16671D 
 138      850A3AD6 
 138      186AC124 
 138      D03A
 139 0025 080EBDDA 		.ascii	"\010\016\275\332\016\272\225\342b],RT\020\012Nnvu\250"
 139      0EBA95E2 
 139      625D2C52 
 139      54100A4E 
 139      6E7675A8 
 140 0039 D0C9B5CE 		.ascii	"\320\311\265\316\202\177\200\024\342wW\023\250\210\212"
 140      827F8014 
 140      E2775713 
 140      A8888A
 141 0048 4772EFBB 		.ascii	"Gr\357\273\227{\357}w\204\001\203\257c\206\336i\242"
 141      977BEF7D 
 141      77840183 
 141      AF6386DE 
 141      69A2
 142 005a D7099103 		.ascii	"\327\011\221\003\262\372\023@\305d\210\252\000\2042"
 142      B2FA1340 
 142      C56488AA 
 142      008432
 143 0069 C3F216AA 		.ascii	"\303\362\026\252\255F\006ZR6\006\355N\237\237\235vk"
 143      AD46065A 
 143      523606ED 
 143      4E9F9F9D 
 143      766B
 144 007b 17721886 		.ascii	"\027r\030\206\210\005$\3339\004\007a\223\026\230\326"
 144      880524DB 
 144      39040761 
 144      931698D6 
ARM GAS  /tmp/ccAwFEBG.s 			page 11


 145 008b C08CF11C 		.ascii	"\300\214\361\034\255\255\313\273k\231\322:^@\316`\376"
 145      ADADCBBB 
 145      6B99D23A 
 145      5E40CE60 
 145      FE
 146 009c 4FB2C698 		.ascii	"O\262\306\230\214\322V\376\227\266\372\233\254\303\272"
 146      8CD256FE 
 146      97B6FA9B 
 146      ACC3BA
 147 00ab 8330BC7D 		.ascii	"\2030\274}\036\276<\340\224\311 \207-\314\000'\274$"
 147      1EBE3CE0 
 147      94C92087 
 147      2DCC0027 
 147      BC24
 148 00bd 3408DB84 		.ascii	"4\010\333\204\202\360\2120\001\344\232\244I\271\010"
 148      82F08A30 
 148      01E49AA4 
 148      49B908
 149 00cc A851621A 		.ascii	"\250Qb\032T\002\215,\315\352\0027\220)\344=8z\274\247"
 149      54028D2C 
 149      CDEA0237 
 149      9029E43D 
 149      387ABCA7 
 150 00e0 7BCBE10D 		.ascii	"{\313\341\015\012\310#;\207fE\312I:\316!\274\313cU\011"
 150      0AC8233B 
 150      876645CA 
 150      493ACE21 
 150      BCCB6355 
 151 00f5 4F4B5563 		.ascii	"OKUc\342\263!\222\275\306\032N2M\255E\214\361\275\013"
 151      E2B32192 
 151      BDC61A4E 
 151      324DAD45 
 151      8CF1BD0B 
 152 0109 FEE422F2 		.ascii	"\376\344\"\362\252\337\036TOb*\241\275\205\336\370V"
 152      AADF1E54 
 152      4F622AA1 
 152      BD85DEF8 
 152      56
 153 011a 9D88E824 		.ascii	"\235\210\350$}\001\350\003\306\304\310.K\001t&\365/"
 153      7D01E803 
 153      C6C4C82E 
 153      4B017426 
 153      F52F
 154 012c CD5A963D 		.ascii	"\315Z\226=z\202\222\355\004\236\027\370T\355\025\266"
 154      7A8292ED 
 154      049E17F8 
 154      54ED15B6 
 155 013c ED52D1B1 		.ascii	"\355R\321\261\235]\317\365\234\240\350Z\016\230\256"
 155      9D5DCFF5 
 155      9CA0E85A 
 155      0E98AE
 156 014b BF432B6B 		.ascii	"\277C+k!*\026S\276{\260\257\252\245\270Z\376\000\336"
 156      212A1653 
 156      BE7BB0AF 
 156      AAA5B85A 
 156      FE00DE
 157 015e B592CE   		.ascii	"\265\222\316"
ARM GAS  /tmp/ccAwFEBG.s 			page 12


 158              		.text
 159              		.section	.gnu.lto_.symbol_nodes.ed7fda948652dc8e,"",%progbits
 160 0000 789C4DCA 		.ascii	"x\234M\312\273\015\200@\020\003\321Y/\327$\3158%\244"
 160      BB0D8040 
 160      1003D159 
 160      2FD724CD 
 160      3825A4
 161 0013 02BAE18F 		.ascii	"\002\272\341\217\250\211CB:\234=k\204\350\371\246\025"
 161      A8894342 
 161      3A9C3D6B 
 161      84E8F9A6 
 161      15
 162 0024 C378833D 		.ascii	"\303x\203=\015Qf\350\234\345$\352_\026\364\352\"\253"
 162      0D5166E8 
 162      9CE524EA 
 162      5F16F4EA 
 162      22AB
 163 0036 B4E168A9 		.ascii	"\264\341h\251v\254\037\017\234\215<?)\030\335"
 163      76AC1F0F 
 163      9C8D3C3F 
 163      2918DD
 164              		.text
 165              		.section	.gnu.lto_.refs.ed7fda948652dc8e,"",%progbits
 166 0000 789C25C6 		.ascii	"x\234%\306\301\015\0000\010\303@'\001:G\367_\262\225"
 166      C10D0030 
 166      08C34027 
 166      013A47F7 
 166      5FB295
 167 0013 F0E76CCC 		.ascii	"\360\347l\314e+$[q\245\021\2212\253\017\371\367\000"
 167      652B245B 
 167      71A51191 
 167      32AB0FF9 
 167      F700
 168 0025 0A740064 		.ascii	"\012t\000d"
 169              		.text
 170              		.section	.gnu.lto_.decls.ed7fda948652dc8e,"",%progbits
 171 0000 789C9556 		.ascii	"x\234\225V]l\024U\024\276w\272mw\373'\212\022\2141m"
 171      5D6C1455 
 171      14BE77BA 
 171      6D77FB27 
 171      8A128C31 
 172 0015 8C988876 		.ascii	"\214\230\210vG\211h\237h\232>P\036\352\203\015\011o"
 172      4789689F 
 172      689A3E50 
 172      1EEA830D 
 172      096F
 173 0027 93DBD981 		.ascii	"\223\333\331\201\335\270;[vf\245\365\305\333\"ME\014"
 173      DDB83B5B 
 173      7666A5F5 
 173      C5DB224D 
 173      450C
 174 0039 6D110113 		.ascii	"m\021\001\023I+\264R\023(?J\212\241f\375\241?\374\230"
 174      492BB452 
 174      13283F4A 
 174      8AA166FD 
 174      A13FFC98 
 175 004d B68A420D 		.ascii	"\266\212B\015\272\326T\023\237\352\003\341E\030\317"
ARM GAS  /tmp/ccAwFEBG.s 			page 13


 175      BAD65413 
 175      9FEA03E1 
 175      4518CF
 176 005c 9DBDB333 		.ascii	"\235\275\2633;\235\335\226\233\236\355\235\271\347|"
 176      3B9DDD96 
 176      9B9EED9D 
 176      B9E77C
 177 006b DF77CE3D 		.ascii	"\337w\316=sg\004$\240\036\214\220\001\243\251\014\241"
 177      73670424 
 177      A01E8C90 
 177      01A3A90C 
 177      A1
 178 007c FB302F46 		.ascii	"\3730/F\010mA\366\360\201\015\202\015\203]\000\033\343"
 178      086D41F6 
 178      F0810D82 
 178      0D835D00 
 178      1BE3
 179 008e F72E835D 		.ascii	"\367.\203]\001\233\002\273\212r\307 \367\231\000\033"
 179      019B02BB 
 179      8A72C720 
 179      F799001B 
 180 009e 07BB0E76 		.ascii	"\007\273\016v\203\257a\307z!\014\306W\312\343\253\300"
 180      83AF61C7 
 180      7A210CC6 
 180      57CAE3AB 
 180      C0
 181 00af 2A50465B 		.ascii	"*PF[=\330\010\307\264\360\206\371\032\303;\013v\006"
 181      3DD808C7 
 181      B4F086F9 
 181      1AC33B0B 
 181      7606
 182 00c1 EC078EEB 		.ascii	"\354\007\216\353\034L\277\237\307[\230\343\016\334["
 182      1C4CBF9F 
 182      C75B98E3 
 182      0EDC5B
 183 00d0 0EDC12EE 		.ascii	"\016\334\022\356?\017v\207s,\200-:\264\177\011v\321"
 183      3F0F7687 
 183      732C802D 
 183      3AB47F09 
 183      76D1
 184 00e2 83678CC7 		.ascii	"\203g\214\307;\265\373<t3?\201\307_vaT\243\343t \235"
 184      3BB5FB3C 
 184      74333F81 
 184      C75F7661 
 184      54A3E374 
 185 00f8 5EFCFBEC 		.ascii	"^\374\373\354\223t\240+e\030\365h\035:La\014tS\212u"
 185      9374A02B 
 185      6518F568 
 185      1D3A4C61 
 185      0C74538A 
 186 010d 82B73C81 		.ascii	"\202\267<\201v`\202\253\002\250\306\234T\004L\022\204"
 186      766082AB 
 186      02A8C69C 
 186      54044C12 
 186      84
 187 011e 08FE14AF 		.ascii	"\010\376\024\257\343\263\355E\0318\001\275\210\321F"
 187      E3B3ED45 
ARM GAS  /tmp/ccAwFEBG.s 			page 14


 187      193801BD 
 187      88D146
 188 012d 3402F1BD 		.ascii	"4\002\361\275\224.<\205\274\306sh\210\021\320S\264\310"
 188      942E3C85 
 188      BCC67368 
 188      8811D053 
 188      B4C8
 189 013f 84670083 		.ascii	"\204g\000\203\270\332\351B\360\011,\270u\246\227R\227"
 189      B8DAE942 
 189      F0092CB8 
 189      75A69752 
 189      97
 190 0150 26AF61DA 		.ascii	"&\257a\332O\3773\214\275~\267\320\372\362\274B?\343"
 190      4FFF338C 
 190      BD7EB7D0 
 190      FAF2BC42 
 190      3FE3
 191 0162 428BCC3A 		.ascii	"B\213\314:\240\000\352\241\264\213\0056MA\341\274\242"
 191      A000EAA1 
 191      B48B0536 
 191      4D41E1BC 
 191      A2
 192 0173 36A09390 		.ascii	"6\240\223\220B\372\376\271ODJ\375\004\217\340\000\304"
 192      42FAFEB9 
 192      4F444AFD 
 192      048FE000 
 192      C4
 193 0184 EEC60076 		.ascii	"\356\306\000v\022o\314\252,\016\344\252\206k\313\201"
 193      126FCCAA 
 193      2C0EE4AA 
 193      866BCB81 
 194 0194 8199CB7C 		.ascii	"\201\231\313|\302\272\377\221\254\004+\324.\235Y\275"
 194      C2BAFF91 
 194      AC042BD4 
 194      2E9D59BD 
 195 01a4 F65C8267 		.ascii	"\366\\\202g\321\011J\373\323\373\356\315\370\216\321"
 195      D1094AFB 
 195      D3FBEECD 
 195      F88ED1
 196 01b3 94CF9271 		.ascii	"\224\317\222q\0003\267a(\231\227\364\214\027\217\245"
 196      0033B761 
 196      289997F4 
 196      8C178FA5 
 197 01c3 3F2A4D26 		.ascii	"?*M&\227\200\372V\210\312\01027\247\213\216v\357[\343"
 197      9780FA56 
 197      88CA0832 
 197      37A78B8E 
 197      76EF5BE3 
 198 01d7 336B8A0A 		.ascii	"3k\212\012\004\361\254O{\356\325\371\253\025\275\235"
 198      04F1AC4F 
 198      7BEED5F9 
 198      AB15BD9D 
 199 01e7 69C3A8CE 		.ascii	"i\303\250\316\324_@G\260Wv\364\020S\310$\023<\012@\004"
 199      D45F4047 
 199      B05776F4 
 199      1053C824 
 199      133C0A40 
ARM GAS  /tmp/ccAwFEBG.s 			page 15


 200 01fc 5F585562 		.ascii	"_XUb\263<1\202\317\255\020U \261|A<\261/\226'6\220N"
 200      B33C3182 
 200      CFAD1055 
 200      20B17C41 
 200      3CB12F96 
 201 0214 DDDD7FC0 		.ascii	"\335\335\177\300zX\374\256\036d\002\3635\341%\217\247"
 201      7A58FCAE 
 201      1E6402F3 
 201      35E1258F 
 201      A7
 202 0225 E5735749 		.ascii	"\345sWI\2622\317\237\242\001\236/8\214\025\226\371U"
 202      B232CF9F 
 202      A2019E2F 
 202      388C1596 
 202      F955
 203 0237 AECC67D0 		.ascii	"\256\314g\320 \245s)ch\232=+t\011\372\256\034\355\267"
 203      20A57329 
 203      63689A3D 
 203      2B7409FA 
 203      AE1CEDB7 
 204 024b 3B9EB77F 		.ascii	";\236\267\177z\210\256?j\267\277\337\002\306v\373\337"
 204      7A88AE3F 
 204      6AB7BFDF 
 204      02C676FB 
 204      DF
 205 025c 7BFFF40B 		.ascii	"{\377\364\013f\373\177m\366\335m\227\332\325\003\035"
 205      66FB7F6D 
 205      F6DD6D97 
 205      DAD5031D 
 206 026c 3A78BCCE 		.ascii	":x\274\316\004\372\306\004:(\270\037$\354z\220p\356"
 206      04FAC604 
 206      3A28B81F 
 206      24EC7A90 
 206      70EE
 207 027e 838403F6 		.ascii	"\203\204\003\366\304\300\350\241|\363\355\3078.\267"
 207      C4C0E8A1 
 207      7CF3EDC7 
 207      382EB7
 208 028d 3004742C 		.ascii	"0\004t,\253(\237\373\367v\221Y\201\323\275\351\241\177"
 208      AB289FFB 
 208      F7769159 
 208      81D3BDE9 
 208      A17F
 209 029f 66844EFA 		.ascii	"f\204N\372m'e\347\021\306\217\242^\326\0125G\2532\365"
 209      6D2765E7 
 209      11C68FA2 
 209      5ED60A35 
 209      47AB32F5 
 210 02b3 B2054EC0 		.ascii	"\262\005N\300\232c\010hPp\346@\360d.6l^\337\304\207"
 210      9A630868 
 210      5070E640 
 210      F0642E36 
 210      6C5EDFC4 
 211 02c8 ACC7287D 		.ascii	"\254\307(}\000\320\031\255\002\032]Q\344\264[d\352f"
 211      00D019AD 
 211      021A5D51 
 211      E4B45B64 
ARM GAS  /tmp/ccAwFEBG.s 			page 16


 211      EA66
 212 02da F7614CFF 		.ascii	"\367aL\377\240\026\020\223\"\240\213.\376kvXN\247d\210"
 212      A0161093 
 212      22A08B2E 
 212      FE6B7658 
 212      4EA76488 
 213 02ee F3915DB7 		.ascii	"\363\221]\267\013\350\212b,\371\242n\330QL\342\314L"
 213      0BE88A62 
 213      2CF9A26E 
 213      D8514CE2 
 213      CC4C
 214 0300 6A76F23D 		.ascii	"jv\362=\212i7\355d\235jW1\333]\251\302\335\305\3364"
 214      8A6937ED 
 214      649D6A57 
 214      31DB5DA9 
 214      C2DDC5DE 
 215 0315 82A315D7 		.ascii	"\202\243\025\327{\373\022<\2137\300\357\034\337\032"
 215      7BFB123C 
 215      8B37C0EF 
 215      1CDF1A
 216 0324 B63497ED 		.ascii	"\2664\227\355\2259\336,\002\372N\310\355/G\231\012\207"
 216      9539DE2C 
 216      02FA4EC8 
 216      ED2F4799 
 216      0A87
 217 0336 72D2016C 		.ascii	"r\322\001l\261>n:;\333b\316>\036\334n\004\377\304\273"
 217      B13E6E3A 
 217      3BDB62CE 
 217      3E1EDC6E 
 217      04FFC4BB 
 218 034a C44C8566 		.ascii	"\304L\205fkY\221\377D\271\351\320S\021\260'ksT[^\220"
 218      6B5991FF 
 218      44B9E9D0 
 218      5311B027 
 218      6B73545B 
 219 0360 DB94E07A 		.ascii	"\333\224\340z\005\270U\010h\226\247Op\031\316+\276\316"
 219      05B85508 
 219      6896A74F 
 219      7019CE2B 
 219      BECE
 220 0372 8A2AE5BE 		.ascii	"\212*\345\276\267\036Z\373\355<\332K\270nv\326\246\226"
 220      B71E5AFB 
 220      ED3CDA4B 
 220      B86E76D6 
 220      A696
 221 0384 D2C6CF77 		.ascii	"\322\306\317w\257\340\376\275t\312<\306\006\374\231"
 221      AFE0FEBD 
 221      74CA3CC6 
 221      06FC99
 222 0393 8F0E017D 		.ascii	"\217\016\001}P\344yp\272\276*\346\335_\025\277.?\320"
 222      50E47970 
 222      BABE2AE6 
 222      DD5F15BF 
 222      2E3FD0
 223 03a6 81E4F7F9 		.ascii	"\201\344\367\371\211>|$K\322#X,\3239,\346\253[@\277"
 223      893E7C24 
 223      4BD22358 
ARM GAS  /tmp/ccAwFEBG.s 			page 17


 223      2CD3392C 
 223      E6AB5B40 
 224 03bb 14E1429C 		.ascii	"\024\341B\234w\334\234\277yr\032\037=\360LlqU\211-\270"
 224      77DC9CBF 
 224      79721A1F 
 224      3DF04C6C 
 224      7155892D 
 225 03d0 49FEF44E 		.ascii	"I\376\364N\354\343\361\016\370px\227\032\306;\203Y\212"
 225      ECE3F10E 
 225      F8707897 
 225      1AC63B83 
 225      598A
 226 03e2 7F976745 		.ascii	"\177\227gEp\332\006\360\"\\t\023\376\225K\210\236\017"
 226      70DA06F0 
 226      225C7413 
 226      FE954B88 
 226      9E0F
 227 03f4 06C5CC5F 		.ascii	"\006\305\314_\\\023\345x,\026Wa\026\215\264\212ZB\026"
 227      5C13E578 
 227      2C165761 
 227      168DB48A 
 227      5A4216
 228 0407 E5704C89 		.ascii	"\345pL\211\311\361\204\022\224Q\231\304&RD\215\350%"
 228      C9F18412 
 228      945199C4 
 228      2652448D 
 228      E825
 229 0419 5B5FDF5E 		.ascii	"[_\337^\323\2106\211I-!2\337]\262,\222D\254V\215\253"
 229      D3883689 
 229      492D2132 
 229      DF5DB22C 
 229      9244AC56 
 230 042f 4AAD425A 		.ascii	"J\255BZ#\342+\301\272\340&1\242\312\321dH\0215=\024"
 230      23E22BC1 
 230      BAE02631 
 230      A2CAD164 
 230      4811353D 
 231 0444 527606C3 		.ascii	"Rv\006\303\250D\213\274\255H\372Z9\334\010`\015\321"
 231      A8448BBC 
 231      AD48FA5A 
 231      39DC0860 
 231      0DD1
 232 0456 685C6E88 		.ascii	"h\\n\210Fv\251Jh\233\217-\025\023v\365\330\362\3455"
 232      4676A94A 
 232      689B8F2D 
 232      151376F5 
 232      D8F2E535 
 233 046a 995B5B15 		.ascii	"\231[[\025\275E'zR\333\361\264In\021\250\312\036S\263"
 233      BD45277A 
 233      52DBF1B4 
 233      496E11A8 
 233      CA1E53B3 
 234 047e 1E8AA83A 		.ascii	"\036\212\250:\360\224&\341\177\235\244\327zy\305\210"
 234      F09426E1 
 234      7F9DA4D7 
 234      7A79C588 
 235 048e 1C8EA88A 		.ascii	"\034\216\250\212(\201&\222\214\352\222\336\321\246h"
ARM GAS  /tmp/ccAwFEBG.s 			page 18


 235      28812692 
 235      8CEA92DE 
 235      D1A668
 236 049d 10159024 		.ascii	"\020\025\220$\036W\252*\355:\344^)Ia\205\264I\255DS"
 236      1E57AA2A 
 236      ED3AE45E 
 236      29496185 
 236      B449AD44 
 237 04b2 24A94451 		.ascii	"$\251DQCp\263\202\337\204+I\362\311a\222\360K\322\316"
 237      4370B382 
 237      DF842B49 
 237      F2C96192 
 237      F04BD2CE 
 238 04c6 A42A4B52 		.ascii	"\244*KR\2455\011n~i\363k\265\036\305m\213'tMlx\243\271"
 238      A535096E 
 238      7E69F36B 
 238      B51EC56D 
 238      8B27744D 
 239 04de B1B91DEA 		.ascii	"\261\271\035\352k\326\364\255Wc\214\235-I\220\362\233"
 239      6BD6F4AD 
 239      57638C9D 
 239      2D4990F2 
 239      9B
 240 04ef 2F7BC481 		.ascii	"/{\304\201\036\261\261\271e[K6\0339\246E4\011J\017\261"
 240      1EB1B1B9 
 240      655B4B36 
 240      1B39A645 
 240      34094A0F 
 241 0504 C01B8A68 		.ascii	"\300\033\212h\2445\012\033\224\330]I\242{H\207\006{"
 241      A4350A1B 
 241      94D85D49 
 241      A27B4887 
 241      067B
 242 0516 15853CCB 		.ascii	"\025\205<\313M\334\244\312\220A\272\242Zn\377\003\335"
 242      4DDCA4CA 
 242      9041BAA2 
 242      5A6EFF03 
 242      DD
 243 0527 F8DCA3   		.ascii	"\370\334\243"
 244              		.text
 245              		.section	.gnu.lto_.symtab.ed7fda948652dc8e,"",%progbits
 246 0000 5F636F72 		.ascii	"_core_init\000\000\000\000\000\000\000\000\000\000\000"
 246      655F696E 
 246      69740000 
 246      00000000 
 246      00000000 
 247 0015 00A10000 		.ascii	"\000\241\000\000\000chCoreAllocAlignedI\000\000\000"
 247      00636843 
 247      6F726541 
 247      6C6C6F63 
 247      416C6967 
 248 0030 00000000 		.ascii	"\000\000\000\000\000\000\000\000\000\246\000\000\000"
 248      00000000 
 248      00A60000 
 248      00
 249 003d 6368436F 		.ascii	"chCoreAllocAligned\000\000\000\000\000\000\000\000\000"
 249      7265416C 
ARM GAS  /tmp/ccAwFEBG.s 			page 19


 249      6C6F6341 
 249      6C69676E 
 249      65640000 
 250 0058 000000B3 		.ascii	"\000\000\000\263\000\000\000chCoreGetStatusX\000\000"
 250      00000063 
 250      68436F72 
 250      65476574 
 250      53746174 
 251 0071 00000000 		.ascii	"\000\000\000\000\000\000\000\000\000\000\270\000\000"
 251      00000000 
 251      0000B800 
 251      00
 252 007e 005F5F68 		.ascii	"\000__heap_base__\000\000\002\000\000\000\000\000\000"
 252      6561705F 
 252      62617365 
 252      5F5F0000 
 252      02000000 
 253 0095 000000C5 		.ascii	"\000\000\000\305\000\000\000__heap_end__\000\000\002"
 253      0000005F 
 253      5F686561 
 253      705F656E 
 253      645F5F00 
 254 00ab 00000000 		.ascii	"\000\000\000\000\000\000\000\000\000\312\000\000\000"
 254      00000000 
 254      00CA0000 
 254      00
 255              		.text
 256              		.section	.gnu.lto_.opts,"",%progbits
 257 0000 272D6D63 		.ascii	"'-mcpu=cortex-m0' '-mno-thumb-interwork' '-mthumb' "
 257      70753D63 
 257      6F727465 
 257      782D6D30 
 257      2720272D 
 258 0033 272D6767 		.ascii	"'-ggdb' '-O2' '-fomit-frame-pointer' '-falign-funct"
 258      64622720 
 258      272D4F32 
 258      2720272D 
 258      666F6D69 
 259 0066 696F6E73 		.ascii	"ions=16' '-ffunction-sections' '-fdata-sections' '-"
 259      3D313627 
 259      20272D66 
 259      66756E63 
 259      74696F6E 
 260 0099 666E6F2D 		.ascii	"fno-common' '-flto'\000"
 260      636F6D6D 
 260      6F6E2720 
 260      272D666C 
 260      746F2700 
 261              		.text
 262              		.cfi_sections	.debug_frame
 263              		.section	.text._core_init,"ax",%progbits
 264              		.align	2
 265              		.p2align 4,,15
 266              		.global	_core_init
 267              		.code	16
 268              		.thumb_func
 269              		.type	_core_init, %function
ARM GAS  /tmp/ccAwFEBG.s 			page 20


 270              	_core_init:
 271              	.LFB69:
 272              		.file 1 "../../../os/common/oslib/src/chmemcore.c"
 273              		.loc 1 79 0
 274              		.cfi_startproc
 275              		.loc 1 85 0
 276 0000 034A     		ldr	r2, .L2
 277 0002 044B     		ldr	r3, .L2+4
 278              		.loc 1 94 0
 279              		@ sp needed
 280              		.loc 1 85 0
 281 0004 1A60     		str	r2, [r3]
 282              		.loc 1 86 0
 283 0006 044A     		ldr	r2, .L2+8
 284 0008 044B     		ldr	r3, .L2+12
 285 000a 1A60     		str	r2, [r3]
 286              		.loc 1 94 0
 287 000c 7047     		bx	lr
 288              	.L3:
 289 000e C046     		.align	2
 290              	.L2:
 291 0010 00000000 		.word	__heap_base__
 292 0014 00000000 		.word	.LANCHOR0
 293 0018 00000000 		.word	__heap_end__
 294 001c 00000000 		.word	.LANCHOR1
 295              		.cfi_endproc
 296              	.LFE69:
 297              		.size	_core_init, .-_core_init
 298              		.section	.text.chCoreAllocAlignedI,"ax",%progbits
 299              		.align	2
 300              		.p2align 4,,15
 301              		.global	chCoreAllocAlignedI
 302              		.code	16
 303              		.thumb_func
 304              		.type	chCoreAllocAlignedI, %function
 305              	chCoreAllocAlignedI:
 306              	.LFB70:
 307              		.loc 1 108 0
 308              		.cfi_startproc
 309              	.LVL0:
 310              		.loc 1 115 0
 311 0000 0A4A     		ldr	r2, .L8
 312              		.loc 1 108 0
 313 0002 10B5     		push	{r4, lr}
 314              		.cfi_def_cfa_offset 8
 315              		.cfi_offset 4, -8
 316              		.cfi_offset 14, -4
 317              		.loc 1 115 0
 318 0004 1468     		ldr	r4, [r2]
 319              		.loc 1 114 0
 320 0006 0138     		sub	r0, r0, #1
 321              	.LVL1:
 322              		.loc 1 115 0
 323 0008 013C     		sub	r4, r4, #1
 324              		.loc 1 114 0
 325 000a 4B42     		neg	r3, r1
 326 000c 4018     		add	r0, r0, r1
ARM GAS  /tmp/ccAwFEBG.s 			page 21


 327              	.LVL2:
 328              		.loc 1 115 0
 329 000e 6118     		add	r1, r4, r1
 330              	.LVL3:
 331 0010 1940     		and	r1, r3
 332              		.loc 1 114 0
 333 0012 1840     		and	r0, r3
 334              	.LVL4:
 335              		.loc 1 117 0
 336 0014 064B     		ldr	r3, .L8+4
 337              	.LVL5:
 338 0016 1B68     		ldr	r3, [r3]
 339 0018 5B1A     		sub	r3, r3, r1
 340 001a 9842     		cmp	r0, r3
 341 001c 03D8     		bhi	.L6
 342              		.loc 1 120 0
 343 001e 0818     		add	r0, r1, r0
 344              	.LVL6:
 345 0020 1060     		str	r0, [r2]
 346              		.loc 1 122 0
 347 0022 081C     		mov	r0, r1
 348              	.L5:
 349              		.loc 1 123 0
 350              		@ sp needed
 351 0024 10BD     		pop	{r4, pc}
 352              	.LVL7:
 353              	.L6:
 354              		.loc 1 118 0
 355 0026 0020     		mov	r0, #0
 356              	.LVL8:
 357 0028 FCE7     		b	.L5
 358              	.L9:
 359 002a C046     		.align	2
 360              	.L8:
 361 002c 00000000 		.word	.LANCHOR0
 362 0030 00000000 		.word	.LANCHOR1
 363              		.cfi_endproc
 364              	.LFE70:
 365              		.size	chCoreAllocAlignedI, .-chCoreAllocAlignedI
 366 0034 C046C046 		.section	.text.chCoreAllocAligned,"ax",%progbits
 366      C046C046 
 366      C046C046 
 367              		.align	2
 368              		.p2align 4,,15
 369              		.global	chCoreAllocAligned
 370              		.code	16
 371              		.thumb_func
 372              		.type	chCoreAllocAligned, %function
 373              	chCoreAllocAligned:
 374              	.LFB71:
 375              		.loc 1 137 0
 376              		.cfi_startproc
 377              	.LVL9:
 378 0000 10B5     		push	{r4, lr}
 379              		.cfi_def_cfa_offset 8
 380              		.cfi_offset 4, -8
 381              		.cfi_offset 14, -4
ARM GAS  /tmp/ccAwFEBG.s 			page 22


 382              	.LBB16:
 383              	.LBB17:
 384              	.LBB18:
 385              		.file 2 "../../../os/common/ext/CMSIS/include/cmsis_gcc.h"
 386              		.loc 2 71 0
 387              	@ 71 "../../../os/common/ext/CMSIS/include/cmsis_gcc.h" 1
 388 0002 72B6     		cpsid i
 389              	@ 0 "" 2
 390              	.LVL10:
 391              		.code	16
 392              	.LBE18:
 393              	.LBE17:
 394              	.LBE16:
 395              	.LBB19:
 396              	.LBB20:
 397              		.loc 1 114 0
 398 0004 4A1E     		sub	r2, r1, #1
 399 0006 1018     		add	r0, r2, r0
 400              	.LVL11:
 401              		.loc 1 115 0
 402 0008 094A     		ldr	r2, .L13
 403              		.loc 1 114 0
 404 000a 4B42     		neg	r3, r1
 405              		.loc 1 115 0
 406 000c 1468     		ldr	r4, [r2]
 407              		.loc 1 114 0
 408 000e 1840     		and	r0, r3
 409              	.LVL12:
 410              		.loc 1 115 0
 411 0010 013C     		sub	r4, r4, #1
 412 0012 6118     		add	r1, r4, r1
 413              	.LVL13:
 414 0014 1940     		and	r1, r3
 415              	.LVL14:
 416              		.loc 1 117 0
 417 0016 074B     		ldr	r3, .L13+4
 418              	.LVL15:
 419 0018 1B68     		ldr	r3, [r3]
 420 001a 5B1A     		sub	r3, r3, r1
 421 001c 9842     		cmp	r0, r3
 422 001e 04D8     		bhi	.L12
 423              		.loc 1 120 0
 424 0020 0818     		add	r0, r1, r0
 425              	.LVL16:
 426 0022 1060     		str	r0, [r2]
 427              		.loc 1 122 0
 428 0024 081C     		mov	r0, r1
 429              	.L11:
 430              	.LBE20:
 431              	.LBE19:
 432              	.LBB22:
 433              	.LBB23:
 434              	.LBB24:
 435              		.loc 2 60 0
 436              	@ 60 "../../../os/common/ext/CMSIS/include/cmsis_gcc.h" 1
 437 0026 62B6     		cpsie i
 438              	@ 0 "" 2
ARM GAS  /tmp/ccAwFEBG.s 			page 23


 439              		.code	16
 440              	.LBE24:
 441              	.LBE23:
 442              	.LBE22:
 443              		.loc 1 145 0
 444              		@ sp needed
 445 0028 10BD     		pop	{r4, pc}
 446              	.LVL17:
 447              	.L12:
 448              	.LBB25:
 449              	.LBB21:
 450              		.loc 1 118 0
 451 002a 0020     		mov	r0, #0
 452              	.LVL18:
 453 002c FBE7     		b	.L11
 454              	.L14:
 455 002e C046     		.align	2
 456              	.L13:
 457 0030 00000000 		.word	.LANCHOR0
 458 0034 00000000 		.word	.LANCHOR1
 459              	.LBE21:
 460              	.LBE25:
 461              		.cfi_endproc
 462              	.LFE71:
 463              		.size	chCoreAllocAligned, .-chCoreAllocAligned
 464 0038 C046C046 		.section	.text.chCoreGetStatusX,"ax",%progbits
 464      C046C046 
 465              		.align	2
 466              		.p2align 4,,15
 467              		.global	chCoreGetStatusX
 468              		.code	16
 469              		.thumb_func
 470              		.type	chCoreGetStatusX, %function
 471              	chCoreGetStatusX:
 472              	.LFB72:
 473              		.loc 1 154 0
 474              		.cfi_startproc
 475              		.loc 1 157 0
 476 0000 024B     		ldr	r3, .L16
 477              		.loc 1 159 0
 478              		@ sp needed
 479              		.loc 1 157 0
 480 0002 1868     		ldr	r0, [r3]
 481 0004 024B     		ldr	r3, .L16+4
 482 0006 1B68     		ldr	r3, [r3]
 483 0008 C01A     		sub	r0, r0, r3
 484              		.loc 1 159 0
 485 000a 7047     		bx	lr
 486              	.L17:
 487              		.align	2
 488              	.L16:
 489 000c 00000000 		.word	.LANCHOR1
 490 0010 00000000 		.word	.LANCHOR0
 491              		.cfi_endproc
 492              	.LFE72:
 493              		.size	chCoreGetStatusX, .-chCoreGetStatusX
 494 0014 C046C046 		.section	.bss.endmem,"aw",%nobits
ARM GAS  /tmp/ccAwFEBG.s 			page 24


 494      C046C046 
 494      C046C046 
 495              		.align	2
 496              		.set	.LANCHOR1,. + 0
 497              		.type	endmem, %object
 498              		.size	endmem, 4
 499              	endmem:
 500 0000 00000000 		.space	4
 501              		.section	.bss.nextmem,"aw",%nobits
 502              		.align	2
 503              		.set	.LANCHOR0,. + 0
 504              		.type	nextmem, %object
 505              		.size	nextmem, 4
 506              	nextmem:
 507 0000 00000000 		.space	4
 508              		.text
 509              	.Letext0:
 510              		.file 3 "/usr/lib/gcc/arm-none-eabi/4.8.2/include/stddef.h"
 511              		.file 4 "/usr/include/newlib/machine/_default_types.h"
 512              		.file 5 "/usr/include/newlib/stdint.h"
 513              		.file 6 "../../../os/common/ports/ARMCMx/chcore_v6m.h"