ARM GAS  /tmp/ccl7S0Iv.s 			page 1


   1              		.cpu cortex-m0
   2              		.fpu softvfp
   3              		.eabi_attribute 20, 1
   4              		.eabi_attribute 21, 1
   5              		.eabi_attribute 23, 3
   6              		.eabi_attribute 24, 1
   7              		.eabi_attribute 25, 1
   8              		.eabi_attribute 26, 1
   9              		.eabi_attribute 30, 2
  10              		.eabi_attribute 34, 0
  11              		.eabi_attribute 18, 4
  12              		.code	16
  13              		.file	"crt1.c"
  14              		.text
  15              	.Ltext0:
  16              		.section	.gnu.lto_.jmpfuncs.a3d2a0ed796a2042,"",%progbits
  17 0000 789C6362 		.ascii	"x\234cb`b\300\006x\2404+\003\003#P\0113\003\013\003"
  17      6062C006 
  17      78A0342B 
  17      03032350 
  17      0933030B 
  18 0015 03000236 		.ascii	"\003\000\0026\000 "
  18      0020
  19              		.text
  20              		.section	.gnu.lto_.inline.a3d2a0ed796a2042,"",%progbits
  21 0000 789C6362 		.ascii	"x\234cb`b\300\006\342\2414+\003\0033\023#X\021\333\002"
  21      6062C006 
  21      E2A1342B 
  21      03033313 
  21      235811DB 
  22 0015 79B05A46 		.ascii	"y\260ZF\014\021&\014\021f \017\"\302\002\261\200\205"
  22      0C11260C 
  22      1166200F 
  22      22C202B1 
  22      8085
  23 0027 41E41527 		.ascii	"A\344\025'PD\251m\321LF\2702\006\000\3774\006\240"
  23      5044A96D 
  23      D14C46B8 
  23      320600FF 
  23      3406A0
  24              		.text
  25              		.section	.gnu.lto_.pureconst.a3d2a0ed796a2042,"",%progbits
  26 0000 789C6362 		.ascii	"x\234cb`b\340f\200\000V\006\011F\011&\011f\023\026)"
  26      6062E066 
  26      80005606 
  26      09460926 
  26      09661316 
  27 0015 00044D00 		.ascii	"\000\004M\000\265"
  27      B5
  28              		.text
  29              		.section	.gnu.lto___core_init.a3d2a0ed796a2042,"",%progbits
  30 0000 789C6362 		.ascii	"x\234cb`b@\007\222@\034\014\304\226@\314\310\314\300"
  30      60624007 
  30      92401C0C 
  30      C49640CC 
  30      C8CCC0
  31 0013 C834E11C 		.ascii	"\3104\341\034\003C#\007\023##\210\301\300\310P\317\304"
ARM GAS  /tmp/ccl7S0Iv.s 			page 2


  31      03432307 
  31      13232388 
  31      C1C0C850 
  31      CFC4
  32 0025 581FC908 		.ascii	"X\037\311\010V\273\236\351\300\203\377\377\327m\350"
  32      56BB9EE9 
  32      C083FFFF 
  32      D76DE8
  33 0034 9AF38671 		.ascii	"\232\363\206q%\023\310,V\206\226\206\206\011\012\014"
  33      2513C82C 
  33      56869686 
  33      86090A0C 
  34 0044 0CC96015 		.ascii	"\014\311`\025!@\022\244-\224\221\011D3_d`Ld\\\310\310"
  34      214012A4 
  34      2D949109 
  34      44335F64 
  34      604C645C 
  35 005a 0AB72D84 		.ascii	"\012\267-\204\221\021$\001\322j\256\247\247\017A\371"
  35      91112401 
  35      D26AAEA7 
  35      A70F41F9 
  36 006a C5FAC9F9 		.ascii	"\305\372\311\371\271\271\371y\372\305%\211E%\245\005"
  36      B9B9F979 
  36      FAC52589 
  36      4525A505 
  37 007a FA8E41BE 		.ascii	"\372\216A\276\316\276\025 \321\202\314\234\324\242b"
  37      CEBE1520 
  37      D182CC9C 
  37      D4A262
  38 0089 7D776767 		.ascii	"}wgg\375\344\242\022C\275d\006\000\267\214)["
  38      FDE4A212 
  38      43BD6406 
  38      00B78C29 
  38      5B
  39              		.text
  40              		.section	.gnu.lto___early_init.a3d2a0ed796a2042,"",%progbits
  41 0000 789C6362 		.ascii	"x\234cb`b@\007\222@\034\000\304\226@\314\310\314\300"
  41      60624007 
  41      92401C00 
  41      C49640CC 
  41      C8CCC0
  42 0013 C834E11C 		.ascii	"\3104\341\034\003C#\007\023##\210\301\300\310P\317\304"
  42      03432307 
  42      13232388 
  42      C1C0C850 
  42      CFC4
  43 0025 581FC908 		.ascii	"X\037\311\010V\273\236\351\300\203\377\377\327};5G\002"
  43      56BB9EE9 
  43      C083FFFF 
  43      D77D3B35 
  43      4702
  44 0037 64102B43 		.ascii	"d\020+CKC\303\004\005\006\206d\260t\010\220\004\351"
  44      4B43C304 
  44      05068664 
  44      B0740890 
  44      04E9
  45 0049 09656402 		.ascii	"\011ed\002\321\314\027\031\030\023\031\0272\262\302"
ARM GAS  /tmp/ccl7S0Iv.s 			page 3


  45      D1CC1719 
  45      18131917 
  45      32B2C2
  46 0058 AD0A6164 		.ascii	"\255\012ad\004I\200\264\232\353\351\351CP~\261~r~nn"
  46      044980B4 
  46      9AEBE9E9 
  46      43507EB1 
  46      7E727E6E 
  47 006d 7E9E7E71 		.ascii	"~\236~qIbQIi\201\276c\220\257\263o\005H\264 3'\265\250"
  47      49625149 
  47      6981BE63 
  47      90AFB36F 
  47      0548B420 
  48 0085 58DFDDD9 		.ascii	"X\337\335\331Y?\271\250\304P/\231\001\000\031\306(^"
  48      593FB9A8 
  48      C4502F99 
  48      010019C6 
  48      285E
  49              		.text
  50              		.section	.gnu.lto___late_init.a3d2a0ed796a2042,"",%progbits
  51 0000 789C6362 		.ascii	"x\234cb`b@\007\222@\034\000\304\226@\314\310\314\300"
  51      60624007 
  51      92401C00 
  51      C49640CC 
  51      C8CCC0
  52 0013 C834E11C 		.ascii	"\3104\341\034\003C#\007\023##\210\301\300\310P\317\304"
  52      03432307 
  52      13232388 
  52      C1C0C850 
  52      CFC4
  53 0025 581FC908 		.ascii	"X\037\311\010V\273\236\351\300\203\377\377\327m\352"
  53      56BB9EE9 
  53      C083FFFF 
  53      D76DEA
  54 0034 9E230132 		.ascii	"\236#\0012\210\225\241\245\241a\202\002\003C2X:\004"
  54      8895A1A5 
  54      A1618202 
  54      03433258 
  54      3A04
  55 0046 4882F484 		.ascii	"H\202\364\20422\201h\346\213\014\214\211\214\013\031"
  55      32328168 
  55      E68B0C8C 
  55      898C0B19 
  56 0056 59E15685 		.ascii	"Y\341V\20502\202$@Z\315\365\364\364!(\277X?9?77?O\277"
  56      30328224 
  56      405ACDF5 
  56      F4F42128 
  56      BF583F39 
  57 0070 B824B1A8 		.ascii	"\270$\261\250\244\264@\3371\310\327\331\267\002$Z\220"
  57      A4B440DF 
  57      31C8D7D9 
  57      B702245A 
  57      90
  58 0081 99935A54 		.ascii	"\231\223ZT\254\357\356\354\254\237\\Tb\250\227\314\000"
  58      ACEFEEEC 
  58      AC9F5C54 
  58      62A897CC 
ARM GAS  /tmp/ccl7S0Iv.s 			page 4


  58      00
  59 0092 00DB0527 		.ascii	"\000\333\005'\333"
  59      DB
  60              		.text
  61              		.section	.gnu.lto___default_exit.a3d2a0ed796a2042,"",%progbits
  62 0000 789C6362 		.ascii	"x\234cb`b@\007:@\354\003\304\226@\314\310\312\300\310"
  62      60624007 
  62      3A40EC03 
  62      C49640CC 
  62      C8CAC0C8 
  63 0014 34E11C03 		.ascii	"4\341\034\003C#\007\023#3\210\301\310\314\310\002\021"
  63      43230713 
  63      233388C1 
  63      C8CCC802 
  63      11
  64 0025 60810838 		.ascii	"`\201\010822\32431\2630\326G2\202\265\257g:\360\340"
  64      3232D433 
  64      31B330D6 
  64      473282B5 
  64      AF673AF0 
  65 003a FFFF7577 		.ascii	"\377\377uwN\317\335\303\270\236\011$\306\312\320\322"
  65      4ECFDDC3 
  65      B89E0924 
  65      C6CAD0D2 
  66 004a D0304181 		.ascii	"\3200A\201\201!\031\254\"\004H2\002I&\240Y!\214\314"
  66      812119AC 
  66      22044832 
  66      024926A0 
  66      59218CCC 
  67 005e 0C404318 		.ascii	"\014@C\030C\030Y\2404\304\020\006s==}\010\312/\326O"
  67      431859A0 
  67      34C41006 
  67      733D3D7D 
  67      08CA2FD6 
  68 0073 CECFCDCD 		.ascii	"\316\317\315\315\317\323/.I,*)-\320w\014\362u\366\255"
  68      CFD32F2E 
  68      492C2A29 
  68      2DD0770C 
  68      F275F6AD 
  69 0087 00891664 		.ascii	"\000\211\026d\346\244\026\025\353\273;;\353'\027\225"
  69      E6A41615 
  69      EBBB3B3B 
  69      EB271795 
  70 0097 18EA2533 		.ascii	"\030\352%3\000\000\351N*\305"
  70      0000E94E 
  70      2AC5
  71              		.text
  72              		.section	.gnu.lto___init_ram_areas.a3d2a0ed796a2042,"",%progbits
  73 0000 789C8D54 		.ascii	"x\234\215T]HTA\024>g\346\336\273w\177lW\326 \241H$\350"
  73      5D485441 
  73      143E67E6 
  73      DEBB777F 
  73      6C57D620 
  74 0018 2172E949 		.ascii	"!r\351I\350!0\037z\362\241P\250\207\250m\213e\251\315"
  74      E821301F 
  74      7AF2A150 
  74      A887A86D 
ARM GAS  /tmp/ccl7S0Iv.s 			page 5


  74      8B65A9CD 
  75 002c 4557080A 		.ascii	"EW\010\012\234\325\015\242\244\266 \260\334@\021\351"
  75      9CD50DA2 
  75      A4B620B0 
  75      DC4011E9 
  76 003c 4F88E865 		.ascii	"O\210\350e\211\036V(T0\311G\243\300\222|\260 \304z("
  76      891E5628 
  76      5430C947 
  76      A3C0927C 
  76      B020C47A 
  77 0051 A2EDCC9D 		.ascii	"\242\355\314\235\271W\224\265\032\356\275g\346\3149"
  77      B95794B5 
  77      1AEEBD67 
  77      E6CC39
  78 0060 DF39E79B 		.ascii	"\3379\347\2339\227\001\203\215\243\237\336\263&\300"
  78      39970183 
  78      8DA39FDE 
  78      B326C0
  79 006f 41921802 		.ascii	"A\222\030\002d\205Y\200\234\315\220\253\011GSM\0145"
  79      64855980 
  79      9CCD90AB 
  79      0947534D 
  79      0C35
  80 0081 99B04D66 		.ascii	"\231\260Mf\014L\002\210\200\225\367\201\010YhK=\372"
  80      0C4C0288 
  80      8095F781 
  80      0859684B 
  80      3DFA
  81 0093 949CB06D 		.ascii	"\224\234\260m\346S\373~g\337\317\202j\031p\226A\005"
  81      E653FB7E 
  81      67DFCF82 
  81      6A197096 
  81      4105
  82 00a5 DC124094 		.ascii	"\334\022@\224\022\020z\0317L\313g\373\203\001\354=\206"
  82      12107A19 
  82      374CCB67 
  82      FB8301EC 
  82      3D86
  83 00b7 3229DE08 		.ascii	"2)\336\010#B\334Zx\365q\216\337\021\345\374\260\370"
  83      2342DC5A 
  83      78F5718E 
  83      DF11E5FC 
  83      B0F8
  84 00c9 55A920A6 		.ascii	"U\251 \246\220\012\330\217\220@8J\013lp\0043\326W\244"
  84      900AD88F 
  84      9040384A 
  84      0B6C7004 
  84      33D657A4 
  85 00dd 7CCB43B3 		.ascii	"|\313C\2637\352\305p_A\374&\327\024r\006\007\376\323"
  85      37EAC570 
  85      5F41FC26 
  85      D7147206 
  85      07FED3
  86 00f0 B3381B2A 		.ascii	"\2638\033*\344\256\210J\245\327qk\371\227\333\023V^"
  86      E4AE884A 
  86      A5D7716B 
  86      F997DB13 
ARM GAS  /tmp/ccl7S0Iv.s 			page 6


  86      565E
  87 0102 A8540656 		.ascii	"\250T\006V\276}(at+B\034G\260\2212\215\343(INr\214\244"
  87      BE7D2861 
  87      742B421C 
  87      47B09132 
  87      8DE32849 
  88 011a A1A5AD65 		.ascii	"\241\245\255e@\357\007\365:\004\024\255\206>FXk\"\332"
  88      40EF07F5 
  88      3A0414AD 
  88      863E4658 
  88      6B22DA
  89 012d A256EE44 		.ascii	"\242V\356D\265\262N\303\3230!/D\241\301]'\034\352\332"
  89      B5B24EC3 
  89      D330212F 
  89      44A1C15D 
  89      271CEADA 
  90 0141 E93B07D0 		.ascii	"\351;\007\320\201\214\004\237\206\276\205\253\223[\342"
  90      818C049F 
  90      86BE85AB 
  90      935BE2
  91 0150 781F4DED 		.ascii	"x\037M\355x\021~\212A!nR!f\032\327\252\350@\016y\237"
  91      78117E8A 
  91      41216E52 
  91      21661AD7 
  91      AAE8400E 
  92 0166 F4B0419B 		.ascii	"\364\260A\233&\221\366_C\337\333\322\342\017\364\242"
  92      2691F65F 
  92      43DFDBD2 
  92      E20FF4A2 
  93 0176 C994542E 		.ascii	"\311\224T.\322N\002\323Hb`\017<\022\005!N\244\320\032"
  93      D24E02D3 
  93      4862600F 
  93      3C120521 
  93      4EA4D01A 
  94 018a 82BB04EF 		.ascii	"\202\273\004\357#\177\311\227\302?\345\305\242\020\345"
  94      237FC997 
  94      C23FE5C5 
  94      A210E5
  95 0199 9D717CE8 		.ascii	"\235q|\350\2444\352\304\011\2508S\213\250\364I\014j"
  95      A434EAC4 
  95      09A83853 
  95      8BA8F449 
  95      0C6A
  96 01ab B8E39BC2 		.ascii	"\270\343\233\302a5\2701\007.(\365\363\200\252\326\362"
  96      6135B831 
  96      072E28F5 
  96      F380AAD6 
  96      F2
  97 01bc EDEBBBBC 		.ascii	"\355\353\273\274b\331\003\302\251\013\316|?)K6\200\356"
  97      62D903C2 
  97      A90BCE7C 
  97      3F294B36 
  97      80EE
  98 01ce 26A7D0CF 		.ascii	"&\247\320\317/\177.nwc\327\250\200v\022\231\014\310"
  98      2F7F2E6E 
  98      7763D7A8 
  98      80761299 
ARM GAS  /tmp/ccl7S0Iv.s 			page 7


  98      0CC8
  99 01e0 7520329B 		.ascii	"u 2\233~c)#\262\310\011!\302\216\025_\263\"gi\330\177"
  99      7E632923 
  99      B2C80921 
  99      C28E155F 
  99      B3226769 
 100 01f6 ADFF6B71 		.ascii	"\255\377kq\233\213\027\326&\316\305\231\006\266>\331"
 100      9B8B17D6 
 100      26CEC599 
 100      06B63ED9 
 101 0206 B076582D 		.ascii	"\260vX-\326\273\016\021\035y\243\203\"+\342\036\230"
 101      D6BB0E11 
 101      1D79A383 
 101      222BE21E 
 101      98
 102 0217 09D442DE 		.ascii	"\011\324B\336\211)4\356\020\342(\2245\323G\2704\317"
 102      892934EE 
 102      10E22894 
 102      35D347B8 
 102      34CF
 103 0229 5CF890E4 		.ascii	"\\\370\220\3446\262)\261\356Ob\012^.\345\232=\247\244"
 103      36B229B1 
 103      EE4F620A 
 103      5E2EE59A 
 103      3DA7A4
 104 023c 470451CB 		.ascii	"G\004Q\313\350\314\370\273\225K\224\2151\263zz\0368"
 104      E8CCF8BB 
 104      954B948D 
 104      31B37A7A 
 104      1E38
 105 024e B1CEBF48 		.ascii	"\261\316\277HE\330x\261\352\220k\311\373$\215%E&J\225"
 105      45D878B1 
 105      EA906BC9 
 105      FB248D25 
 105      45264A95 
 106 0262 CFE5BB54 		.ascii	"\317\345\273TZ\236\303*T\032kT\312\231\255x'v\036\337"
 106      5A9EC32A 
 106      541A6B54 
 106      CA99AD78 
 106      27761EDF 
 107 0276 F3E88C6A 		.ascii	"\363\350\214j\263\352tF]vl\311\016\256g\307Pd\014.\257"
 107      B3EA7446 
 107      5D766CC9 
 107      0EAE67C7 
 107      50640C2E 
 108 028b 9151FB77 		.ascii	"\221Q\373w2xU2j\035(\227\014#\211\266\205\024\3327\256"
 108      32785532 
 108      6A1D2897 
 108      0C2389B6 
 108      8514DA37 
 109 02a0 AE955F56 		.ascii	"\256\225_V\356\244\375t\207\353R\247\201Yd}\326\252"
 109      EEA4FD74 
 109      87EB52A7 
 109      8159647D 
 109      D6AA
 110 02b2 D1EA9C08 		.ascii	"\321\352\234\010\237&\336\317\242\352)R\351N=L\311\354"
 110      9F26DECF 
ARM GAS  /tmp/ccl7S0Iv.s 			page 8


 110      A2EA2952 
 110      E94E3D4C 
 110      C9EC
 111 02c4 8571D90C 		.ascii	"\205q\331\014=\224_Z\375\213\3746T\033\355t\367\237"
 111      3D945F5A 
 111      FD8BFC36 
 111      541BED74 
 111      F79F
 112 02d6 59D8411D 		.ascii	"Y\330A\035E\355?\007\271\205\322n\257I\265\005\322\226"
 112      45ED3F07 
 112      B985D26E 
 112      AF49B505 
 112      D296
 113 02e8 3CE3E6A6 		.ascii	"<\343\346\246\246\230z:\273c\211\316t\272\363|\254;"
 113      A6987A3A 
 113      BB6389CE 
 113      74BAF37C 
 113      AC3B
 114 02fa 1BEFCAF6 		.ascii	"\033\357\312\366db-G\332Z\333.Hm&u\356LWw\354Pkk,\321"
 114      64622D47 
 114      DA5ADB2E 
 114      486D2675 
 114      EE4C5777 
 115 0314 95DDD794 		.ascii	"\225\335\327\224\000\336\025\317\260l\0063\177\000T"
 115      00DE15CF 
 115      B06C0633 
 115      7F0054
 116 0323 E65540   		.ascii	"\346U@"
 117              		.text
 118              		.section	.gnu.lto_.symbol_nodes.a3d2a0ed796a2042,"",%progbits
 119 0000 789C4DC9 		.ascii	"x\234M\311E\016\002a\020\204\321\232\177fpw\207\340"
 119      450E0261 
 119      1084D19A 
 119      7F667077 
 119      87E0
 120 0012 EEAE5B6E 		.ascii	"\356\256[n\325[\226\234\200\263\340\3548\023T\010\201"
 120      D55B969C 
 120      80B3E0EC 
 120      38135408 
 120      81
 121 0023 5EBC2F95 		.ascii	"^\274/\225VP\010k\370\234*\010\260\177\002\"\207\235"
 121      5650086B 
 121      F89C2A08 
 121      B07F0222 
 121      879D
 122 0035 A68AA2FD 		.ascii	"\246\212\242\375\255\222\250\277U\026\375\273\266\252"
 122      AD92A8BF 
 122      5516FDBB 
 122      B6AA
 123 0043 22C6EF65 		.ascii	"\"\306\357e\346a\210nV5\010\314\232\242u\2356\014\332"
 123      E661886E 
 123      563508CC 
 123      9AA2759D 
 123      360CDA
 124 0056 3469CB42 		.ascii	"4i\313B\333V\332\261\321\256\235\366\034\264\357\244"
 124      DB56DAB1 
 124      D1AE9DF6 
ARM GAS  /tmp/ccl7S0Iv.s 			page 9


 124      1CB4EFA4 
 125 0066 03171DBA 		.ascii	"\003\027\035\272\351\310C\307^:\361\321\251\237\316"
 125      E9C843C7 
 125      5E3AF1D1 
 125      A99FCE
 126 0075 02741EA4 		.ascii	"\002t\036\244\213\020]\206\351*B\327Q\272\211\321#\342"
 126      8B105D86 
 126      E92A42D7 
 126      51BA89D1 
 126      23E2
 127 0087 CC0909E6 		.ascii	"\314\011\011\346\214$sA\212\271\"\315\334\220a\356\310"
 127      8C247341 
 127      8AB922CD 
 127      DC9061EE 
 127      C8
 128 0098 320FE4DE 		.ascii	"2\017\344\336\301\013^\3072\336"
 128      C10B5EC7 
 128      32DE
 129              		.text
 130              		.section	.gnu.lto_.refs.a3d2a0ed796a2042,"",%progbits
 131 0000 789C25C1 		.ascii	"x\234%\301[\026BP\000\000\300{\346\270Ry\246\007J\221"
 131      5B164250 
 131      0000C07B 
 131      E6B85279 
 131      A6074A91 
 132 0014 2CA6FD6F 		.ascii	",\246\375o\310\207\031A\370\207\235D\024\247(u\2209"
 132      C8871941 
 132      F8879D44 
 132      14A72875 
 132      9039
 133 0026 3A39CB15 		.ascii	":9\313\025J\225Z\343\242uus\367\320\351\015\236^Fo\037"
 133      4A955AE3 
 133      A2757573 
 133      F7D0E90D 
 133      9E5E466F 
 134 003b 93D9D7E2 		.ascii	"\223\331\327\342g\015\033s\304\003w"
 134      670D1B73 
 134      C40377
 135              		.text
 136              		.section	.gnu.lto_.decls.a3d2a0ed796a2042,"",%progbits
 137 0000 789C9558 		.ascii	"x\234\225Xml\024E\030\236\331+m\257=\012\242b0\020\256"
 137      6D6C1445 
 137      189ED92B 
 137      6DAF3D0A 
 137      A2623010 
 138 0015 2A9A10E9 		.ascii	"*\232\020\351\321\357h\0045\375\201\177\360\007\011"
 138      D1EF6804 
 138      35FD817F 
 138      F00709
 139 0024 89FF36EB 		.ascii	"\211\3776\353\261\206\013\327+\271n\003\350\237\005"
 139      B1860BD7 
 139      2BB96E03 
 139      E89F05
 140 0033 B11088A6 		.ascii	"\261\020\210\246\020\232b*\330*\220\022\213\366#\264"
 140      109A622A 
 140      D82A9012 
 140      8BF623B4 
ARM GAS  /tmp/ccl7S0Iv.s 			page 10


 141 0043 56A8DD36 		.ascii	"V\250\3356\001\212\015\006i\252\301\242^\242\321`4b"
 141      018A0D06 
 141      69AAC1A2 
 141      5EA2D160 
 141      3462
 142 0055 20105039 		.ascii	" \020P9\337\375\270\217yo\346\206N\356\271\235\335}"
 142      DFFDB88F 
 142      796FE686 
 142      4EEEB99D 
 142      DD7D
 143 0067 9FF79999 		.ascii	"\237\367\231\231g\336iz\012QH/%$\011\355\203G\010Y\353"
 143      67DE697A 
 143      0A51482F 
 143      252409ED 
 143      83470859 
 144 007c 23A490C0 		.ascii	"#\244\220\300\225d\332<@7\240\007\320\013\350\003\014"
 144      9564DA3C 
 144      4037A007 
 144      D00BE803 
 144      0C
 145 008d 01CA0123 		.ascii	"\001\312\001#\200o\001W\001\327\000?\001~\006\374\012"
 145      806F0157 
 145      01D7003F 
 145      017E06FC 
 145      0A
 146 009e B80EF803 		.ascii	"\270\016\370\003p\003p\023p\033p\027\360\237\235\024"
 146      70037013 
 146      701B7017 
 146      F09F9D14 
 147 00ae 347D8042 		.ascii	"4}\200B@\011`>`!\340a\300c\200\307\001\313\000A\300"
 147      4009603E 
 147      6021E061 
 147      C06380C7 
 147      01CB0041 
 148 00c3 53806700 		.ascii	"S\200g\000+\001\253\000\225\200\032@=\340yJ\230\326"
 148      2B01AB00 
 148      95801A40 
 148      3DE0794A 
 148      98D6
 149 00d5 9DD5A7E8 		.ascii	"\235\325\247\350>\325zPL\017'\246\027\305\364rb\372"
 149      3ED57A50 
 149      4C0F27A6 
 149      17C5F472 
 149      62FA
 150 00e7 504C1F27 		.ascii	"PL\037'\306^\247\022\300\013\020P\006\327\000`\034P"
 150      C65EA712 
 150      C00B1050 
 150      06D70060 
 150      1C50
 151 00f9 045803CF 		.ascii	"\004X\003\317\326\002\316@\177\002P\340\301\002\\\004"
 151      D602CE40 
 151      7F0250E0 
 151      C1025C04 
 152 0109 4C012E79 		.ascii	"L\001.y\271\207\274\353\010\312\277\234\0345\273\254"
 152      B987BCEB 
 152      08CABF9C 
 152      1C35BBAC 
ARM GAS  /tmp/ccl7S0Iv.s 			page 11


 153 0119 C43B27FA 		.ascii	"\304;'\372\227\230]\273\306\223\311\027\311b\322nB\353"
 153      97985DBB 
 153      C693C917 
 153      C962D26E 
 153      42EB
 154 012b 6A354D6A 		.ascii	"j5Mjht\355\243\3445\252\3212?\011:\235\200\337\021!"
 154      6874EDA3 
 154      E435AAD1 
 154      323F093A 
 154      9D80DF11 
 155 0140 44A31FD1 		.ascii	"D\243\037\321\305^o\243\317M\247\330\013\272\222\234"
 155      C55E6FA3 
 155      CF4DA7D8 
 155      0BBA929C 
 156 0150 047E9B69 		.ascii	"\004~\233iN<\211V\027\232\017b\340\263>\375\346ir\334"
 156      4E3C8956 
 156      179A0F62 
 156      E0B33EFD 
 156      E66972DC 
 157 0164 96337B4C 		.ascii	"\2263{L\237#f\247\353\246\313\2639\032\375\230*\271"
 157      9F2366A7 
 157      EBA6CBB3 
 157      391AFD98 
 157      2AB9
 158 0176 A3B66E7F 		.ascii	"\243\266n\177\025h\033O$\223\313\335\241(d\003\205\330"
 158      15681B4F 
 158      2493CBDD 
 158      A1286403 
 158      85D8
 159 0188 63746546 		.ascii	"cteFI\243'2T\236T\017\226:\311\225\032\230BR\352\334"
 159      49A32732 
 159      549E540F 
 159      963AC995 
 159      1A984252 
 160 019e A57AB1D4 		.ascii	"\245z\261\324)\216\324\270u\015Km\021Jy\213\371f\366"
 160      298ED4B8 
 160      750D4B6D 
 160      114A798B 
 160      F966F6
 161 01b1 32F394FB 		.ascii	"2\363\224\373\260r?G9a\265}\035h\333\231\255\3746\315"
 161      B0723F47 
 161      3961B57D 
 161      1D68DB99 
 161      ADFC36CD 
 162 01c5 9616651F 		.ascii	"\226\026e\037\302\331\207\331\354O\220n\363\362e\353"
 162      C2D987D9 
 162      EC4F906E 
 162      F3F265EB 
 163 01d5 6EEB8714 		.ascii	"n\353\207\024\366\230i\336O&\351C\244\315N\023\234,"
 163      F69869DE 
 163      4F26E943 
 163      A4CD4E13 
 163      9C2C
 164 01e7 5B440E38 		.ascii	"[D\0168\333\015v\333$\354po\257\2314\265\331\026B\206"
 164      DB0D76DB 
 164      24EC706F 
 164      AF9934B5 
ARM GAS  /tmp/ccl7S0Iv.s 			page 12


 164      D9164286 
 165 01fb 15E4186C 		.ascii	"\025\344\030l(\353\346|\305\213\016\012C5z\226\256 "
 165      28EBE67C 
 165      C58B0E0A 
 165      43357A96 
 165      AE20
 166 020d D2303BF0 		.ascii	"\3220;\360K\272\310\233\235\223\337\264\256\352A\367"
 166      4BBAC89B 
 166      9D93DFB4 
 166      AEEA41F7 
 167 021d 2941B3CE 		.ascii	")A\263\316j\345\004F\272\313\232\275~\221\232\007\003"
 167      6AE50446 
 167      BACB9ABD 
 167      7E919A07 
 167      03
 168 022e A5641FDC 		.ascii	"\245d\037\334\331\265\362\312$h\354\315\334\020n\325"
 168      D9B5F2CA 
 168      2468ECCD 
 168      DC106ED5 
 169 023e B813495C 		.ascii	"\270\023I\\\335wn\234\302J\300\213\011\352\207\205\036"
 169      DD776E9C 
 169      C24AC08B 
 169      09EA8785 
 169      1E
 170 024f 400BFDE0 		.ascii	"@\013\375\340\251\356\354?\373\234i\026k\364\234\223"
 170      A9EEEC3F 
 170      FB9C6916 
 170      6BF49C93 
 171 025f E83A4AA4 		.ascii	"\350:J\244\321\"?k\016\334\247\002\354l\316k\257c\037"
 171      D1223F6B 
 171      0EDCA702 
 171      EC6CCE6B 
 171      AF631F
 172 0272 E20BC85C 		.ascii	"\342\013\310\\\303E\247\3038-M\245Q\310-g\\\366\332"
 172      C345A7C3 
 172      382D4DA5 
 172      51C82D67 
 172      5CF6DA
 173 0285 F2C2BDAE 		.ascii	"\362\302\275\256\333\274\000f\275\023\347:\217\300\001"
 173      DBBC0066 
 173      BD13E73A 
 173      8FC001
 174 0294 3541DDB4 		.ascii	"5A\335\264\2603\225\271\346\0132\376\375\250O\256N\345"
 174      B03395B9 
 174      E60B32FE 
 174      FDA84FAE 
 174      4EE5
 175 02a6 7AF74172 		.ascii	"z\367Ar\025\013\307f\335\310\312ux\316\271\202h\203"
 175      150BC766 
 175      DDC8CA75 
 175      78CEB982 
 175      6883
 176 02b8 B9ABADD1 		.ascii	"\271\253\255\3211\330\306\032\265h9|_t\276\247\234\357"
 176      31D8C61A 
 176      B568397C 
 176      5F74BEA7 
 176      9CEF
ARM GAS  /tmp/ccl7S0Iv.s 			page 13


 177 02ca 4BB43C13 		.ascii	"K\264<\023\254\220\343\0126\334\335\300Y\3712\373\234"
 177      AC90E30A 
 177      36DCDDC0 
 177      59F932FB 
 177      9C
 178 02db C833A6AA 		.ascii	"\3103\246\252\24585X\323=\\2\005\253\321\321\314\364"
 178      A5383558 
 178      D33D5C32 
 178      05ABD1D1 
 178      CCF4
 179 02ed 72E2347A 		.ascii	"r\3424z\031\212\333n\316\0366\275=\354\204\210v\312"
 179      198ADB6E 
 179      CE1E36BD 
 179      3DEC8488 
 179      76CA
 180 02ff 37D49FD6 		.ascii	"7\324\237\326\016\3703\235\"f\032\251(\230\364\351\364"
 180      0EF8339D 
 180      22661AA9 
 180      2898F4E9 
 180      F4
 181 0310 A4C5C3B8 		.ascii	"\244\305\303\270\342\035B5d\320\334k\331\307\325\027"
 181      E21D4235 
 181      64D0DC6B 
 181      D9C7D517 
 182 0320 30B0B481 		.ascii	"0\260\264\201\356\343\2274z\306Y\035{U\336\"\367\314"
 182      EEE39734 
 182      7AC6591D 
 182      7B55DE22 
 182      F7CC
 183 0332 BDA6F54F 		.ascii	"\275\246\365O\253\342\272i\237[\211\203\326\201\363"
 183      ABE2BA69 
 183      9F5B8983 
 183      D681F3
 184 0341 879698DD 		.ascii	"\207\226\230\335\336\271\225*\3301<\202\234I}\307\034"
 184      DEB9952A 
 184      D8313C82 
 184      9C497DC7 
 184      1C
 185 0352 82EE8AA7 		.ascii	"\202\356\212\247\024\316/E\012'r\025\256H\025\276G\012"
 185      14CE2F45 
 185      0A277215 
 185      AE4815BE 
 185      470A
 186 0364 53D90ACF 		.ascii	"S\331\012\317\262\012\255C\271\012\011\251\302\017H"
 186      B20AAD43 
 186      B90A09A9 
 186      C20F48
 187 0373 E152F62A 		.ascii	"\341R\366*\255A\012\347\351\373\346\304n\323\374\027"
 187      AD410AE7 
 187      E9FBE6C4 
 187      6ED3FC17 
 188 0383 24D21A7F 		.ascii	"$\322\032\177I5\022\354\037\013/\214\3461(\211\014\352"
 188      493512EC 
 188      1F0B2F8C 
 188      E6312889 
 188      0CEA
 189 0395 E0199494 		.ascii	"\340\031\224\224\012\377\"6(\211\014\352\340\031t\320"
ARM GAS  /tmp/ccl7S0Iv.s 			page 14


 189      0AFF2236 
 189      28890CEA 
 189      E01974D0 
 190 03a5 2753F84D 		.ascii	"'S\370MlP\022\031\324\3013\250K\252\360\273\330\240"
 190      6C501219 
 190      D4C133A8 
 190      4BAAF0BB 
 190      D8A0
 191 03b7 2432A883 		.ascii	"$2\250\203o\320gR\215?\271\006)y\014j\337\303\032t\204"
 191      6FD06752 
 191      8D3FB906 
 191      29790C6A 
 191      DFC31A74 
 192 03cc 5B4152E1 		.ascii	"[AR\341\277\305\006\265_X\212\024x\025$U\270%6\250\375"
 192      BFC506B5 
 192      5F588A14 
 192      78152455 
 192      B82536A8 
 193 03e1 026BD011 		.ascii	"\002k\320\021n\005I\025\356\210\015j\337\263\006)\360"
 193      6E054915 
 193      EE880D6A 
 193      DFB30629 
 193      F0
 194 03f2 2B48AA71 		.ascii	"+H\252q\217k\220/\217A\235\310\240An\005I\205\357\213"
 194      8F6B902F 
 194      8F419DC8 
 194      A0416E05 
 194      4985EF8B 
 195 0406 0DEA4406 		.ascii	"\015\352D\006\015r+\250@\246\260S\021\032\324\211\014"
 195      0D722BA8 
 195      40A6B053 
 195      111AD489 
 195      0C
 196 0417 1AE45690 		.ascii	"\032\344V\220Ta\267\"4\250\023\0314(\250 \251\306\036"
 196      5461B722 
 196      34A81319 
 196      3428A820 
 196      A9C61E
 197 042a 85675041 		.ascii	"\205gPA\036\203\372\221A#\334\012\222\012\357W\204\006"
 197      1E83FA91 
 197      4123DC0A 
 197      920AEF57 
 197      8406
 198 043c F5238346 		.ascii	"\365#\203F\270\025$UxOlP?2h\204[AR\205\003b\203\372"
 198      B8152455 
 198      784F6C50 
 198      3F326884 
 198      5B415285 
 199 0454 91412382 		.ascii	"\221A#\202\012\222j\034\342\0324/\217A\303\310\2401"
 199      0A926A1C 
 199      E21A342F 
 199      8F41C3C8 
 199      A031
 200 0466 6E054985 		.ascii	"n\005I\205\017\213\015\032F\006\215q+h\236L\241Sl\320"
 200      0F8B0D1A 
 200      46068D71 
 200      2B689E4C 
ARM GAS  /tmp/ccl7S0Iv.s 			page 15


 200      A1536CD0 
 201 047a 3032688C 		.ascii	"02h\214[AR\205\243b\203\206\221Ac\202\012\222jts\015"
 201      5B415285 
 201      A3628386 
 201      91416382 
 201      0A926A74 
 202 0490 2ACC63D0 		.ascii	"*\314c\320(2h\206[AR\341\343b\203F\221A3\334\012\222"
 202      28326886 
 202      5B4152E1 
 202      E3628346 
 202      914133DC 
 203 04a6 2AF4880D 		.ascii	"*\364\210\015\032E\006\315p+H\252\360\211\330\240Qd"
 203      1A4506CD 
 203      702B48AA 
 203      F089D8A0 
 203      5164
 204 04b8 D08CA082 		.ascii	"\320\214\240\202\244\032\237r\015*\312c\32042h\226["
 204      A41A9F72 
 204      0D2ACA63 
 204      D0343268 
 204      965B
 205 04ca 4152E101 		.ascii	"AR\341\001\261A\323\310\240Yn\005\025\312\024N\213\015"
 205      B141D3C8 
 205      A0596E05 
 205      15CA144E 
 205      8B0D
 206 04dc 9A4606CD 		.ascii	"\232F\006\315r+H\252\360\271\330\240id\320\254\240\202"
 206      722B48AA 
 206      F0B9D8A0 
 206      6964D0AC 
 206      A082
 207 04ee A41A6758 		.ascii	"\244\032gX\203\010a~\272p\375\021q\317*\245\002V\326"
 207      8308617E 
 207      BA70FD11 
 207      71CF2AA5 
 207      0256D6
 208 0501 BF5439AC 		.ascii	"\277T9\254Q\016\313rX\366\230\037\340W\003R_Q\021r?"
 208      510ECB72 
 208      58F6981F 
 208      E0570352 
 208      5F511172 
 209 0516 4DCDA170 		.ascii	"M\315\241pSccS,\324lhq\243ek\350\345\015\353\033\326"
 209      53636353 
 209      2CD46C68 
 209      71A3656B 
 209      E8E50DEB 
 210 052c 6FB79F6E 		.ascii	"o\267\237n\215D\365xsh]CC(\0347*+\302\244TU\303Mq]\215"
 210      8D44F578 
 210      73685D43 
 210      43281C37 
 210      2A2BC2A4 
 211 0547 C42246E1 		.ascii	"\304\"F\341\272W7\006\033H\3016]\333\022PU]\213Gw8/"
 211      BA573706 
 211      1B48C136 
 211      5DDB1250 
 211      555D8B47 
 212 055e 2028AA19 		.ascii	" (\252\031nP\231\252n\322\337\320Z\242\206\252o\217"
ARM GAS  /tmp/ccl7S0Iv.s 			page 16


 212      6E5099AA 
 212      6ED2DFD0 
 212      5AA286AA 
 212      6F8F
 213 0570 18C53160 		.ascii	"\030\3051`\033-\361\330B\325y\255\306\265FU\213\353"
 213      1B2DF1D8 
 213      42D579AD 
 213      C6B54655 
 213      8BEB
 214 0582 5AF3B250 		.ascii	"Z\363\262PKs<\024\211\205\243-\233\364PL\337\026\215"
 214      4B733C14 
 214      8985A32D 
 214      9BF4504C 
 214      DF168D
 215 0595 BC0E43DA 		.ascii	"\274\016C\332\024\211\031\025\233Iq\013\\\253\253Tc"
 215      14891915 
 215      9B49710B 
 215      5CABAB54 
 215      63
 216 05a6 152FAC51 		.ascii	"\025/\254Q\013o\216\304\364PZ\312\330\261Uo\006Z\211"
 216      0B6F8EC4 
 216      F4505ACA 
 216      D8B1556F 
 216      065A89
 217 05b9 AAA68865 		.ascii	"\252\246\210e\216\234\241o7\034=\277sk\367J\302Q\030"
 217      8E9CA16F 
 217      371C3DBF 
 217      736BF74A 
 217      C25118
 218 05cc BAD30DC4 		.ascii	"\272\323\015\304\232\324\364\363\005\366\320\322w\252"
 218      9AD4F4F3 
 218      05F6D0D2 
 218      77AA
 219 05da E14F0F75 		.ascii	"\341O\017u\221j\017{\265\232\311\250\316\317~\244\226"
 219      916A0F7B 
 219      B59AC9A8 
 219      CECF7EA4 
 219      96
 220 05eb 79776E66 		.ascii	"ywnfu\201w\033kr_\273\374\312\\~%\303\257d\371\225\210"
 220      7581771B 
 220      6B725FBB 
 220      FCCA5C7E 
 220      25C3AF64 
 221 0602 5F95CBAF 		.ascii	"_\225\313\257b\370U,\277\012\361\253s\371\325\014\277"
 221      62F8552C 
 221      BF0AF1AB 
 221      73F9D50C 
 221      BF
 222 0613 9AE55723 		.ascii	"\232\345W#~M.\277\206\341\327\260\374\032\304\257\315"
 222      7E4D2EBF 
 222      86E1D7B0 
 222      FC1AC4AF 
 222      CD
 223 0624 E5D732FC 		.ascii	"\345\3272\374Z\226_\213\370u\271\374:\206_\307\362\353"
 223      5A965F8B 
 223      F875B9FC 
 223      3A865FC7 
ARM GAS  /tmp/ccl7S0Iv.s 			page 17


 223      F2EB
 224 0636 10BF3E97 		.ascii	"\020\277>\227_\317\360\353Y~}\232\377?@\215\001\312"
 224      5FCFF0EB 
 224      597E7D9A 
 224      FF3F408D 
 224      01CA
 225              		.text
 226              		.section	.gnu.lto_.symtab.a3d2a0ed796a2042,"",%progbits
 227 0000 5F5F636F 		.ascii	"__core_init\000\000\001\000\000\000\000\000\000\000"
 227      72655F69 
 227      6E697400 
 227      00010000 
 227      00000000 
 228 0015 0000A100 		.ascii	"\000\000\241\000\000\000__early_init\000\000\001\000"
 228      00005F5F 
 228      6561726C 
 228      795F696E 
 228      69740000 
 229 002b 00000000 		.ascii	"\000\000\000\000\000\000\000\000\250\000\000\000__l"
 229      00000000 
 229      A8000000 
 229      5F5F6C
 230 003a 6174655F 		.ascii	"ate_init\000\000\001\000\000\000\000\000\000\000\000"
 230      696E6974 
 230      00000100 
 230      00000000 
 230      000000
 231 004d 00AC0000 		.ascii	"\000\254\000\000\000__default_exit\000\000\001\000\000"
 231      005F5F64 
 231      65666175 
 231      6C745F65 
 231      78697400 
 232 0065 00000000 		.ascii	"\000\000\000\000\000\000\000\260\000\000\000__init_"
 232      000000B0 
 232      0000005F 
 232      5F696E69 
 232      745F
 233 0077 72616D5F 		.ascii	"ram_areas\000\000\000\000\000\000\000\000\000\000\000"
 233      61726561 
 233      73000000 
 233      00000000 
 233      00000000 
 234 008b 00B60000 		.ascii	"\000\266\000\000\000__ram0_init_text__\000\000\002\000"
 234      005F5F72 
 234      616D305F 
 234      696E6974 
 234      5F746578 
 235 00a6 00000000 		.ascii	"\000\000\000\000\000\000\000\000\326\000\000\000__r"
 235      00000000 
 235      D6000000 
 235      5F5F72
 236 00b5 616D305F 		.ascii	"am0_init__\000\000\002\000\000\000\000\000\000\000\000"
 236      696E6974 
 236      5F5F0000 
 236      02000000 
 236      00000000 
 237 00ca 00D90000 		.ascii	"\000\331\000\000\000__ram0_clear__\000\000\002\000\000"
ARM GAS  /tmp/ccl7S0Iv.s 			page 18


 237      005F5F72 
 237      616D305F 
 237      636C6561 
 237      725F5F00 
 238 00e2 00000000 		.ascii	"\000\000\000\000\000\000\000\334\000\000\000__ram0_"
 238      000000DC 
 238      0000005F 
 238      5F72616D 
 238      305F
 239 00f4 6E6F696E 		.ascii	"noinit__\000\000\002\000\000\000\000\000\000\000\000"
 239      69745F5F 
 239      00000200 
 239      00000000 
 239      000000
 240 0107 00DF0000 		.ascii	"\000\337\000\000\000__ram1_init_text__\000\000\002\000"
 240      005F5F72 
 240      616D315F 
 240      696E6974 
 240      5F746578 
 241 0122 00000000 		.ascii	"\000\000\000\000\000\000\000\000\343\000\000\000__r"
 241      00000000 
 241      E3000000 
 241      5F5F72
 242 0131 616D315F 		.ascii	"am1_init__\000\000\002\000\000\000\000\000\000\000\000"
 242      696E6974 
 242      5F5F0000 
 242      02000000 
 242      00000000 
 243 0146 00E60000 		.ascii	"\000\346\000\000\000__ram1_clear__\000\000\002\000\000"
 243      005F5F72 
 243      616D315F 
 243      636C6561 
 243      725F5F00 
 244 015e 00000000 		.ascii	"\000\000\000\000\000\000\000\351\000\000\000__ram1_"
 244      000000E9 
 244      0000005F 
 244      5F72616D 
 244      315F
 245 0170 6E6F696E 		.ascii	"noinit__\000\000\002\000\000\000\000\000\000\000\000"
 245      69745F5F 
 245      00000200 
 245      00000000 
 245      000000
 246 0183 00EC0000 		.ascii	"\000\354\000\000\000__ram2_init_text__\000\000\002\000"
 246      005F5F72 
 246      616D325F 
 246      696E6974 
 246      5F746578 
 247 019e 00000000 		.ascii	"\000\000\000\000\000\000\000\000\360\000\000\000__r"
 247      00000000 
 247      F0000000 
 247      5F5F72
 248 01ad 616D325F 		.ascii	"am2_init__\000\000\002\000\000\000\000\000\000\000\000"
 248      696E6974 
 248      5F5F0000 
 248      02000000 
 248      00000000 
ARM GAS  /tmp/ccl7S0Iv.s 			page 19


 249 01c2 00F30000 		.ascii	"\000\363\000\000\000__ram2_clear__\000\000\002\000\000"
 249      005F5F72 
 249      616D325F 
 249      636C6561 
 249      725F5F00 
 250 01da 00000000 		.ascii	"\000\000\000\000\000\000\000\366\000\000\000__ram2_"
 250      000000F6 
 250      0000005F 
 250      5F72616D 
 250      325F
 251 01ec 6E6F696E 		.ascii	"noinit__\000\000\002\000\000\000\000\000\000\000\000"
 251      69745F5F 
 251      00000200 
 251      00000000 
 251      000000
 252 01ff 00F90000 		.ascii	"\000\371\000\000\000__ram3_init_text__\000\000\002\000"
 252      005F5F72 
 252      616D335F 
 252      696E6974 
 252      5F746578 
 253 021a 00000000 		.ascii	"\000\000\000\000\000\000\000\000\375\000\000\000__r"
 253      00000000 
 253      FD000000 
 253      5F5F72
 254 0229 616D335F 		.ascii	"am3_init__\000\000\002\000\000\000\000\000\000\000\000"
 254      696E6974 
 254      5F5F0000 
 254      02000000 
 254      00000000 
 255 023e 00000100 		.ascii	"\000\000\001\000\000__ram3_clear__\000\000\002\000\000"
 255      005F5F72 
 255      616D335F 
 255      636C6561 
 255      725F5F00 
 256 0256 00000000 		.ascii	"\000\000\000\000\000\000\000\003\001\000\000__ram3_"
 256      00000003 
 256      0100005F 
 256      5F72616D 
 256      335F
 257 0268 6E6F696E 		.ascii	"noinit__\000\000\002\000\000\000\000\000\000\000\000"
 257      69745F5F 
 257      00000200 
 257      00000000 
 257      000000
 258 027b 00060100 		.ascii	"\000\006\001\000\000__ram4_init_text__\000\000\002\000"
 258      005F5F72 
 258      616D345F 
 258      696E6974 
 258      5F746578 
 259 0296 00000000 		.ascii	"\000\000\000\000\000\000\000\000\012\001\000\000__r"
 259      00000000 
 259      0A010000 
 259      5F5F72
 260 02a5 616D345F 		.ascii	"am4_init__\000\000\002\000\000\000\000\000\000\000\000"
 260      696E6974 
 260      5F5F0000 
 260      02000000 
ARM GAS  /tmp/ccl7S0Iv.s 			page 20


 260      00000000 
 261 02ba 000D0100 		.ascii	"\000\015\001\000\000__ram4_clear__\000\000\002\000\000"
 261      005F5F72 
 261      616D345F 
 261      636C6561 
 261      725F5F00 
 262 02d2 00000000 		.ascii	"\000\000\000\000\000\000\000\020\001\000\000__ram4_"
 262      00000010 
 262      0100005F 
 262      5F72616D 
 262      345F
 263 02e4 6E6F696E 		.ascii	"noinit__\000\000\002\000\000\000\000\000\000\000\000"
 263      69745F5F 
 263      00000200 
 263      00000000 
 263      000000
 264 02f7 00130100 		.ascii	"\000\023\001\000\000__ram5_init_text__\000\000\002\000"
 264      005F5F72 
 264      616D355F 
 264      696E6974 
 264      5F746578 
 265 0312 00000000 		.ascii	"\000\000\000\000\000\000\000\000\027\001\000\000__r"
 265      00000000 
 265      17010000 
 265      5F5F72
 266 0321 616D355F 		.ascii	"am5_init__\000\000\002\000\000\000\000\000\000\000\000"
 266      696E6974 
 266      5F5F0000 
 266      02000000 
 266      00000000 
 267 0336 001A0100 		.ascii	"\000\032\001\000\000__ram5_clear__\000\000\002\000\000"
 267      005F5F72 
 267      616D355F 
 267      636C6561 
 267      725F5F00 
 268 034e 00000000 		.ascii	"\000\000\000\000\000\000\000\035\001\000\000__ram5_"
 268      0000001D 
 268      0100005F 
 268      5F72616D 
 268      355F
 269 0360 6E6F696E 		.ascii	"noinit__\000\000\002\000\000\000\000\000\000\000\000"
 269      69745F5F 
 269      00000200 
 269      00000000 
 269      000000
 270 0373 00200100 		.ascii	"\000 \001\000\000__ram6_init_text__\000\000\002\000"
 270      005F5F72 
 270      616D365F 
 270      696E6974 
 270      5F746578 
 271 038e 00000000 		.ascii	"\000\000\000\000\000\000\000\000$\001\000\000__ram6"
 271      00000000 
 271      24010000 
 271      5F5F7261 
 271      6D36
 272 03a0 5F696E69 		.ascii	"_init__\000\000\002\000\000\000\000\000\000\000\000"
 272      745F5F00 
ARM GAS  /tmp/ccl7S0Iv.s 			page 21


 272      00020000 
 272      00000000 
 272      0000
 273 03b2 00270100 		.ascii	"\000'\001\000\000__ram6_clear__\000\000\002\000\000"
 273      005F5F72 
 273      616D365F 
 273      636C6561 
 273      725F5F00 
 274 03ca 00000000 		.ascii	"\000\000\000\000\000\000\000*\001\000\000__ram6_noi"
 274      0000002A 
 274      0100005F 
 274      5F72616D 
 274      365F6E6F 
 275 03df 6E69745F 		.ascii	"nit__\000\000\002\000\000\000\000\000\000\000\000\000"
 275      5F000002 
 275      00000000 
 275      00000000 
 275      00
 276 03f0 2D010000 		.ascii	"-\001\000\000__ra"
 276      5F5F7261 
 277 03f8 6D375F69 		.ascii	"m7_init_text__\000\000\002\000\000\000\000\000\000\000"
 277      6E69745F 
 277      74657874 
 277      5F5F0000 
 277      02000000 
 278 0410 00003101 		.ascii	"\000\0001\001\000\000__ram7_init__\000\000\002\000\000"
 278      00005F5F 
 278      72616D37 
 278      5F696E69 
 278      745F5F00 
 279 0428 00000000 		.ascii	"\000\000\000\000\000\000\0004\001\000\000__ram7_cle"
 279      00000034 
 279      0100005F 
 279      5F72616D 
 279      375F636C 
 280 043d 61725F5F 		.ascii	"ar__\000\000\002\000\000\000\000\000\000\000\000\000"
 280      00000200 
 280      00000000 
 280      00000000 
 281 044d 37010000 		.ascii	"7\001\000\000__ram7_noinit__\000\000\002\000\000\000"
 281      5F5F7261 
 281      6D375F6E 
 281      6F696E69 
 281      745F5F00 
 282 0466 00000000 		.ascii	"\000\000\000\000\000\000:\001\000\000"
 282      00003A01 
 282      0000
 283              		.text
 284              		.section	.gnu.lto_.opts,"",%progbits
 285 0000 272D6D63 		.ascii	"'-mcpu=cortex-m0' '-mno-thumb-interwork' '-mthumb' "
 285      70753D63 
 285      6F727465 
 285      782D6D30 
 285      2720272D 
 286 0033 272D6767 		.ascii	"'-ggdb' '-O2' '-fomit-frame-pointer' '-falign-funct"
 286      64622720 
 286      272D4F32 
ARM GAS  /tmp/ccl7S0Iv.s 			page 22


 286      2720272D 
 286      666F6D69 
 287 0066 696F6E73 		.ascii	"ions=16' '-ffunction-sections' '-fdata-sections' '-"
 287      3D313627 
 287      20272D66 
 287      66756E63 
 287      74696F6E 
 288 0099 666E6F2D 		.ascii	"fno-common' '-flto'\000"
 288      636F6D6D 
 288      6F6E2720 
 288      272D666C 
 288      746F2700 
 289              		.text
 290              		.cfi_sections	.debug_frame
 291              		.section	.text.__core_init,"ax",%progbits
 292              		.align	2
 293              		.p2align 4,,15
 294              		.weak	__core_init
 295              		.code	16
 296              		.thumb_func
 297              		.type	__core_init, %function
 298              	__core_init:
 299              	.LFB34:
 300              		.file 1 "../../../os/common/startup/ARMCMx/compilers/GCC/crt1.c"
 301              		.loc 1 136 0
 302              		.cfi_startproc
 303              		.loc 1 142 0
 304              		@ sp needed
 305 0000 7047     		bx	lr
 306              		.cfi_endproc
 307              	.LFE34:
 308              		.size	__core_init, .-__core_init
 309 0002 C046C046 		.section	.text.__early_init,"ax",%progbits
 309      C046C046 
 309      C046C046 
 309      C046
 310              		.align	2
 311              		.p2align 4,,15
 312              		.weak	__early_init
 313              		.code	16
 314              		.thumb_func
 315              		.type	__early_init, %function
 316              	__early_init:
 317              	.LFB35:
 318              		.loc 1 155 0
 319              		.cfi_startproc
 320              		.loc 1 155 0
 321              		@ sp needed
 322 0000 7047     		bx	lr
 323              		.cfi_endproc
 324              	.LFE35:
 325              		.size	__early_init, .-__early_init
 326 0002 C046C046 		.section	.text.__late_init,"ax",%progbits
 326      C046C046 
 326      C046C046 
 326      C046
 327              		.align	2
ARM GAS  /tmp/ccl7S0Iv.s 			page 23


 328              		.p2align 4,,15
 329              		.weak	__late_init
 330              		.code	16
 331              		.thumb_func
 332              		.type	__late_init, %function
 333              	__late_init:
 334              	.LFB36:
 335              		.loc 1 169 0
 336              		.cfi_startproc
 337              		.loc 1 169 0
 338              		@ sp needed
 339 0000 7047     		bx	lr
 340              		.cfi_endproc
 341              	.LFE36:
 342              		.size	__late_init, .-__late_init
 343 0002 C046C046 		.section	.text.__default_exit,"ax",%progbits
 343      C046C046 
 343      C046C046 
 343      C046
 344              		.align	2
 345              		.p2align 4,,15
 346              		.weak	__default_exit
 347              		.code	16
 348              		.thumb_func
 349              		.type	__default_exit, %function
 350              	__default_exit:
 351              	.LFB37:
 352              		.loc 1 182 0
 353              		.cfi_startproc
 354              	.L5:
 355 0000 FEE7     		b	.L5
 356              		.cfi_endproc
 357              	.LFE37:
 358              		.size	__default_exit, .-__default_exit
 359 0002 C046C046 		.section	.text.__init_ram_areas,"ax",%progbits
 359      C046C046 
 359      C046C046 
 359      C046
 360              		.align	2
 361              		.p2align 4,,15
 362              		.global	__init_ram_areas
 363              		.code	16
 364              		.thumb_func
 365              		.type	__init_ram_areas, %function
 366              	__init_ram_areas:
 367              	.LFB38:
 368              		.loc 1 192 0
 369              		.cfi_startproc
 370              	.LVL0:
 371              		.loc 1 192 0
 372 0000 F0B5     		push	{r4, r5, r6, r7, lr}
 373              		.cfi_def_cfa_offset 20
 374              		.cfi_offset 4, -20
 375              		.cfi_offset 5, -16
 376              		.cfi_offset 6, -12
 377              		.cfi_offset 7, -8
 378              		.cfi_offset 14, -4
ARM GAS  /tmp/ccl7S0Iv.s 			page 24


 379              		.loc 1 194 0
 380 0002 0F4E     		ldr	r6, .L19
 381              	.LBB2:
 382              		.loc 1 209 0
 383 0004 0025     		mov	r5, #0
 384              	.LBE2:
 385              		.loc 1 214 0
 386 0006 371C     		mov	r7, r6
 387 0008 8037     		add	r7, r7, #128
 388              	.LVL1:
 389              	.L15:
 390              	.LBB3:
 391              		.loc 1 198 0
 392 000a 7368     		ldr	r3, [r6, #4]
 393              		.loc 1 201 0
 394 000c B468     		ldr	r4, [r6, #8]
 395              		.loc 1 197 0
 396 000e 3168     		ldr	r1, [r6]
 397              	.LVL2:
 398              		.loc 1 201 0
 399 0010 A342     		cmp	r3, r4
 400 0012 0AD2     		bcs	.L7
 401 0014 1A1C     		mov	r2, r3
 402              	.LVL3:
 403              	.L9:
 404              		.loc 1 202 0
 405 0016 01C9     		ldmia	r1!, {r0}
 406              	.LVL4:
 407 0018 01C2     		stmia	r2!, {r0}
 408              	.LVL5:
 409              		.loc 1 201 0
 410 001a A242     		cmp	r2, r4
 411 001c FBD3     		bcc	.L9
 412 001e DA43     		mvn	r2, r3
 413              	.LVL6:
 414 0020 1219     		add	r2, r2, r4
 415 0022 9208     		lsr	r2, r2, #2
 416 0024 0132     		add	r2, r2, #1
 417 0026 9200     		lsl	r2, r2, #2
 418 0028 9B18     		add	r3, r3, r2
 419              	.L7:
 420              	.LVL7:
 421              		.loc 1 208 0 discriminator 1
 422 002a F268     		ldr	r2, [r6, #12]
 423 002c 9342     		cmp	r3, r2
 424 002e 02D2     		bcs	.L13
 425              	.L16:
 426              		.loc 1 209 0
 427 0030 20C3     		stmia	r3!, {r5}
 428              	.LVL8:
 429              		.loc 1 208 0
 430 0032 9342     		cmp	r3, r2
 431 0034 FCD3     		bcc	.L16
 432              	.L13:
 433              		.loc 1 212 0
 434 0036 1036     		add	r6, r6, #16
 435              	.LVL9:
ARM GAS  /tmp/ccl7S0Iv.s 			page 25


 436              	.LBE3:
 437              		.loc 1 214 0
 438 0038 BE42     		cmp	r6, r7
 439 003a E6D3     		bcc	.L15
 440              		.loc 1 216 0
 441              		@ sp needed
 442              	.LVL10:
 443 003c F0BD     		pop	{r4, r5, r6, r7, pc}
 444              	.L20:
 445 003e C046     		.align	2
 446              	.L19:
 447 0040 00000000 		.word	.LANCHOR0
 448              		.cfi_endproc
 449              	.LFE38:
 450              		.size	__init_ram_areas, .-__init_ram_areas
 451 0044 C046C046 		.section	.rodata.ram_areas,"a",%progbits
 451      C046C046 
 451      C046C046 
 452              		.align	2
 453              		.set	.LANCHOR0,. + 0
 454              		.type	ram_areas, %object
 455              		.size	ram_areas, 128
 456              	ram_areas:
 457 0000 00000000 		.word	__ram0_init_text__
 458 0004 00000000 		.word	__ram0_init__
 459 0008 00000000 		.word	__ram0_clear__
 460 000c 00000000 		.word	__ram0_noinit__
 461 0010 00000000 		.word	__ram1_init_text__
 462 0014 00000000 		.word	__ram1_init__
 463 0018 00000000 		.word	__ram1_clear__
 464 001c 00000000 		.word	__ram1_noinit__
 465 0020 00000000 		.word	__ram2_init_text__
 466 0024 00000000 		.word	__ram2_init__
 467 0028 00000000 		.word	__ram2_clear__
 468 002c 00000000 		.word	__ram2_noinit__
 469 0030 00000000 		.word	__ram3_init_text__
 470 0034 00000000 		.word	__ram3_init__
 471 0038 00000000 		.word	__ram3_clear__
 472 003c 00000000 		.word	__ram3_noinit__
 473 0040 00000000 		.word	__ram4_init_text__
 474 0044 00000000 		.word	__ram4_init__
 475 0048 00000000 		.word	__ram4_clear__
 476 004c 00000000 		.word	__ram4_noinit__
 477 0050 00000000 		.word	__ram5_init_text__
 478 0054 00000000 		.word	__ram5_init__
 479 0058 00000000 		.word	__ram5_clear__
 480 005c 00000000 		.word	__ram5_noinit__
 481 0060 00000000 		.word	__ram6_init_text__
 482 0064 00000000 		.word	__ram6_init__
 483 0068 00000000 		.word	__ram6_clear__
 484 006c 00000000 		.word	__ram6_noinit__
 485 0070 00000000 		.word	__ram7_init_text__
 486 0074 00000000 		.word	__ram7_init__
 487 0078 00000000 		.word	__ram7_clear__
 488 007c 00000000 		.word	__ram7_noinit__
 489              		.text
 490              	.Letext0:
ARM GAS  /tmp/ccl7S0Iv.s 			page 26


 491              		.file 2 "/usr/include/newlib/machine/_default_types.h"
 492              		.file 3 "/usr/include/newlib/stdint.h"