ARM GAS  /tmp/ccTk1ojM.s 			page 1


   1              		.cpu cortex-m0
   2              		.fpu softvfp
   3              		.eabi_attribute 20, 1
   4              		.eabi_attribute 21, 1
   5              		.eabi_attribute 23, 3
   6              		.eabi_attribute 24, 1
   7              		.eabi_attribute 25, 1
   8              		.eabi_attribute 26, 1
   9              		.eabi_attribute 30, 2
  10              		.eabi_attribute 34, 0
  11              		.eabi_attribute 18, 4
  12              		.code	16
  13              		.file	"hal_st_lld.c"
  14              		.text
  15              	.Ltext0:
  16              		.section	.gnu.lto_.jmpfuncs.b9c7ec26a4cb49d2,"",%progbits
  17 0000 789C6362 		.ascii	"x\234cb`b\300\006\324\2414P\226\021H12E0f\202\030@\036"
  17      6062C006 
  17      D4A13450 
  17      96114831 
  17      32453066 
  18 0018 1398CDC8 		.ascii	"\023\230\315\310\017\224\0043@\006\000\0003\227\002"
  18      0F940433 
  18      40060000 
  18      339702
  19 0027 95       		.ascii	"\225"
  20              		.text
  21              		.section	.gnu.lto_.inline.b9c7ec26a4cb49d2,"",%progbits
  22 0000 789C6362 		.ascii	"x\234cb`b\300\006\234\2404P\226W\214\221\201\211\357"
  22      6062C006 
  22      9CA03450 
  22      96578C91 
  22      8189EF
  23 0013 5E0003DB 		.ascii	"^\000\003\333\002y\260b&n\006\006\306\011~\214\\P5\214"
  23      0279B062 
  23      266E0606 
  23      C6097E8C 
  23      5C50358C 
  24 0027 40282203 		.ascii	"@(\"\003T$\363\340\026#\\\0253\017X7\003\000\352\216"
  24      5424F3E0 
  24      16235C15 
  24      330F5837 
  24      0300EA8E 
  25 003b 064D     		.ascii	"\006M"
  26              		.text
  27              		.section	.gnu.lto_.pureconst.b9c7ec26a4cb49d2,"",%progbits
  28 0000 789C6362 		.ascii	"x\234cb`b`e\200\000&\006+F)\000\001f\000a"
  28      60626065 
  28      80002606 
  28      2B462900 
  28      01660061 
  29              		.text
  30              		.section	.gnu.lto_Vector7C.b9c7ec26a4cb49d2,"",%progbits
  31 0000 789C8D52 		.ascii	"x\234\215RMh\023Q\020\236\331\335\374\267\376\340EA"
  31      4D681351 
  31      109ED9DD 
  31      FCB7FEE0 
ARM GAS  /tmp/ccTk1ojM.s 			page 2


  31      4541
  32 0012 62F06241 		.ascii	"b\360bA\232\245-\364\254\324K\241\271\230\024\364\024"
  32      9AA52DF4 
  32      ACD44BA1 
  32      B99814F4 
  32      14
  33 0023 E24B4816 		.ascii	"\342KH\026\222n\311\306P\361\320\027\023\241\240`P\020"
  33      926EC9C6 
  33      50F1D017 
  33      13A1A060 
  33      5010
  34 0035 7F502CC5 		.ascii	"\177P,\305\213=\210\240\240\365R=U\245-z\020\351\305"
  34      8B3D88A0 
  34      A0F5523D 
  34      55A52D7A 
  34      10E9C5
  35 0048 9482202A 		.ascii	"\224\202 *X\274\224\246M\234\267/\033cUpx\2773\363\276"
  35      58BC94A6 
  35      4D9CB72F 
  35      1B635570 
  35      78BF33F3 
  36 005d 996FDE28 		.ascii	"\231o\336(\240\300N\351\247\331\243\002\254\320\216"
  36      A0C04EE9 
  36      A7D9A302 
  36      ACD08E
  37 006c 2E40A5BA 		.ascii	".@\245\272\004P\362*\212:\027\004\356\327\336\353\300"
  37      0450F22A 
  37      8A3A1704 
  37      EED7DEEB 
  37      C0
  38 007d BB54D4A4 		.ascii	"\273T\324\244ZC\024\007@\230TT\015'O\243\300\300\303"
  38      5A431407 
  38      40985454 
  38      0D274FA3 
  38      C0C0C3
  39 0090 30CDF9D5 		.ascii	"0\315\371\325\332\375\315\233\007\370\275\013U\336h"
  39      DAFDCD9B 
  39      07F8BD0B 
  39      55DE68
  40 009f 36D1408A 		.ascii	"6\321@\2126\210\300\020N\321\005C\366\246h\277\207\177"
  40      3688C010 
  40      4ED10543 
  40      F6A668BF 
  40      877F
  41 00b1 A8CCD79A 		.ascii	"\250\314\327\232\315\255\372\306j\023\367\355\326 \201"
  41      CDADFAC6 
  41      6A13F7ED 
  41      D62081
  42 00c0 D384E602 		.ascii	"\323\204\346\002\003U\267X\310\305\005\025\316\253!"
  42      0355B758 
  42      C8C50515 
  42      CEAB21
  43 00cf 69018147 		.ascii	"i\001\201G\022\243Ud2\212\212\330\325e\250\324>\247"
  43      12A35564 
  43      328A8AD8 
  43      D565A8D4 
  43      3EA7
ARM GAS  /tmp/ccTk1ojM.s 			page 3


  44 00e1 1338431C 		.ascii	"\0238C\034\322\250\235\207M>\305\367\030\2501\264\375"
  44      D2A89D87 
  44      4D3EC5F7 
  44      18A831B4 
  44      FD
  45 00f2 EDE02E20 		.ascii	"\355\340. H7\300+P\244\247\304$\177\200Ex\271\362\241"
  45      4837C02B 
  45      50A4A7C4 
  45      247F8045 
  45      78B9F2A1 
  46 0106 BEAA3810 		.ascii	"\276\2528\020\256\243\360\200W\350\221\3476\334\242"
  46      AEA3F080 
  46      57E891E7 
  46      36DCA2
  47 0115 CD2B007C 		.ascii	"\315+\000|\234D\263\261|6\352\031t\210,B\371y\371\023"
  47      9C44B3B1 
  47      7C36EA19 
  47      74882C42 
  47      F979F913 
  48 0129 3ACFDD84 		.ascii	":\317\335\204 \334TQ\361\005\250|-u\267M\266\276\263"
  48      20DC5451 
  48      F105A87C 
  48      2D75B74D 
  48      B6BEB3
  49 013c 08A3749D 		.ascii	"\010\243t\235\013\252\224\302\323\215\372z+\005;~\211"
  49      0BAA94C2 
  49      D38DFA7A 
  49      2B053B7E 
  49      89
  50 014d 47FF3303 		.ascii	"G\3773\003\241\361\210\303\022\224\326\247\326\326\366"
  50      A1F188C3 
  50      1294D6A7 
  50      D6D6F6
  51 015c B7CAE6D4 		.ascii	"\267\312\346\324o~\366\312\267@\217s\343k\217\017\266"
  51      6F7EF6CA 
  51      B7408F73 
  51      E36B8F0F 
  51      B6
  52 016d 2D33D7EF 		.ascii	"-3\327\357\356\355k\337\336l\375\240:\311\034\030U\227"
  52      EEED6BDF 
  52      DE6CFDA0 
  52      3AC91C18 
  52      5597
  53 017f 51728C2A 		.ascii	"Qr\214*\304D\371\354\337\206\027\244\262;)\010\257\361"
  53      C444F9EC 
  53      DF8617A4 
  53      B23B2908 
  53      AFF1
  54 0191 0EBF71CC 		.ascii	"\016\277q\314@\277\264-C\371\373\302\305/\227{wF\277"
  54      40BFB42D 
  54      43F9FBC2 
  54      C52F977B 
  54      7746BF
  55 01a4 B45DF6FC 		.ascii	"\264]\366\374BuK\357\366/\005\030z\022\370HF0\260\253"
  55      42754BEF 
  55      F62F0518 
  55      7A12F848 
ARM GAS  /tmp/ccTk1ojM.s 			page 4


  55      4630B0AB 
  56 01b8 C5A2FC11 		.ascii	"\305\242\374\021\377d\321\010\034j\263\230}\022\354"
  56      FF64D108 
  56      1C6AB398 
  56      7D12EC
  57 01c7 60F1AC93 		.ascii	"`\361\254\223\305\366\265\216x^\232>\232~\232\001\207"
  57      C5F6B58E 
  57      785E9A3E 
  57      9A7E9A01 
  57      87
  58 01d8 C5BB7FB2 		.ascii	"\305\273\177\262\220\177\242\265\033\253\321j\254\216"
  58      907FA2B5 
  58      1BABD16A 
  58      AC8E
  59 01e6 8CBB99C8 		.ascii	"\214\273\231\310\222\204\232\307\300]\000o\241Tk\036"
  59      92849AC7 
  59      C05D006F 
  59      A1546B1E 
  60 01f6 71FCA4C4 		.ascii	"q\374\244\304\250\367\010C\004\031\010\207u9LK\317$"
  60      A8F70843 
  60      04190887 
  60      75394C4B 
  60      CF24
  61 0208 B2FAB899 		.ascii	"\262\372\270\231/Xz4\026\031\350\327GFN\350\261\341"
  61      2F587A34 
  61      1619E8D7 
  61      47464EE8 
  61      B1E1
  62 021a 48B14F58 		.ascii	"H\261OX\342V!\236\315&\303\014|q+QL%\343\331|_\347k"
  62      E256219E 
  62      CD26C30C 
  62      7C712B51 
  62      4C25E3D9 
  63 0232 66E672E6 		.ascii	"f\346r\346\230\236\232(\350C\221\350pT7\306X\366l2\245"
  63      989E9A28 
  63      E84391E8 
  63      705437C6 
  63      58F66C32 
  64 0247 B39C6558 		.ascii	"\263\234eX\3614c\341\014\364\376\345\205\014y\374dd"
  64      F13463E1 
  64      0CF4FEE5 
  64      850C79FC 
  64      6464
  65 0259 2832A1B3 		.ascii	"(2\241\263\0143\363\251xq0G\336\241\235\331\231\026"
  65      0C33F3A9 
  65      78713047 
  65      DEA19DD9 
  65      9916
  66 026b 2D63863C 		.ascii	"-c\206<\220\203\227\215[F2d\200'\227\312\231\371sR\221"
  66      9083978D 
  66      5B463264 
  66      802797CA 
  66      99F97352 
  67 0280 22C54FFB 		.ascii	"\"\305O\373\017\016\364"
  67      0F0EF4
  68              		.text
  69              		.section	.gnu.lto_st_lld_init.b9c7ec26a4cb49d2,"",%progbits
ARM GAS  /tmp/ccTk1ojM.s 			page 5


  70 0000 789C95D3 		.ascii	"x\234\225\323\277K\002Q\034\000\360\357\367\335\235"
  70      BF4B0251 
  70      1C00F0EF 
  70      F7DD9D
  71 000f BF0AACB1 		.ascii	"\277\012\254\261ZZ#\362(ini\021t\352\202\234\304\014"
  71      5A5A23F2 
  71      28696E69 
  71      1174EA82 
  71      9CC40C
  72 0022 4C108C94 		.ascii	"L\020\214\224\226\006\237\244\340\320 MR\015\265jhS"
  72      96069FA4 
  72      E0D0204D 
  72      520DB56A 
  72      6853
  73 0034 5C5BB835 		.ascii	"\\[\2705h\264I\223c\375\003!-\366\336\275\273\363WH"
  73      68B44993 
  73      63FD0321 
  73      2DF6DEBD 
  73      BBF35748 
  74 0048 F745BFEF 		.ascii	"\367E\277\357\356\336\373~\374\202\337#@`2\226\330w"
  74      EEDEFB7E 
  74      FC82DF23 
  74      40603296 
  74      D877
  75 005a 4506D866 		.ascii	"E\006\330f+J\200\244\322\001(x\010\"\277\000\204<\301"
  75      2B4A80A4 
  75      D2012878 
  75      0822BF00 
  75      843CC1
  76 006d 7C148DB3 		.ascii	"|\024\215\263M\362\322\033\014\032OW\267\227\330!\213"
  76      4DF2D21B 
  76      0C1A4F57 
  76      B797D821 
  76      8B
  77 007e 04520812 		.ascii	"\004R\010\022O\012O.\236X(P\244\264\262\012\2200n5\226"
  77      4F0A4F2E 
  77      9E582850 
  77      A4B4B20A 
  77      90306E35 
  78 0093 39B58F84 		.ascii	"9\265\217\204\257R\033Z\037zm9\216\367\250@\022\311"
  78      AF521B5A 
  78      1F7A6D39 
  78      8EF7A840 
  78      12C9
  79 00a5 3AD468B1 		.ascii	":\324h\261\260\220B\274\201kL!9`I\242we*\203qi\374\364"
  79      B09042BC 
  79      816B4C21 
  79      396049A2 
  79      77652A83 
  80 00bd 215A0DB7 		.ascii	"!Z\015\267\341\342Y\262\252\245\2448\017h\354\264Bb"
  80      E1E259B2 
  80      AAA5A438 
  80      0F68ECB4 
  80      4262
  81 00cf C39999E4 		.ascii	"\303\231\231\344\367\274\255r\235X\2602I\310\274N\241"
  81      F7BCAD72 
  81      9D58B032 
ARM GAS  /tmp/ccTk1ojM.s 			page 6


  81      49C8BC4E 
  81      A1
  82 00e0 8F259350 		.ascii	"\217%\223PL\002\377j\313\305\200\177\2645\333d\214Q"
  82      4C02FF6A 
  82      CBC5807F 
  82      B435DB64 
  82      8C51
  83 00f2 ACF7EB2D 		.ascii	"\254\367\353-i\024\240;\266\340\342en\312B\010nS\020"
  83      6914A03B 
  83      B6E0E265 
  83      6ECA4208 
  83      6E5310
  84 0105 FF337F82 		.ascii	"\3773\177\202\203o\"\232\320\253\015\307\2164\342\260"
  84      836F229A 
  84      D0AB0DC7 
  84      8E34E2B0 
  85 0115 F09B92EE 		.ascii	"\360\233\222\356\\\222\207\022\230J\327V6\340\201+Q"
  85      5C928712 
  85      984AD756 
  85      36E0812B 
  85      51
  86 0126 B639043D 		.ascii	"\2669\004=\263A\305\006\275\3660\217\361}\347M\272\246"
  86      B341C506 
  86      BDF6308F 
  86      F17DE74D 
  86      BAA6
  87 0138 956AD3B1 		.ascii	"\225j\323\261\342\236Vt\347\212\307V\254)\322\273\316"
  87      E29E5674 
  87      E78AC756 
  87      AC29D2BB 
  87      CE
  88 0149 15EFB8F2 		.ascii	"\025\357\270\362\006\245\336\353\227O \000\347\360C"
  88      06A5DEEB 
  88      974F2000 
  88      E7F043
  89 0158 CB940DA4 		.ascii	"\313\224\015\244/a\016\035?9\347\027\013\177\277\347"
  89      2F610E1D 
  89      3F39E717 
  89      0B7FBFE7 
  90 0168 01DEA1D0 		.ascii	"\001\336\241\320\373\\\263JDh\3548{\231\371d\005\003"
  90      FB5CB34A 
  90      4468EC38 
  90      7B99F964 
  90      0503
  91 017a 01557C32 		.ascii	"\001U|2Y\3658\236VO2\247\271\254\272\247E\202[j8\274"
  91      59F5389E 
  91      564F32A7 
  91      B9ACBAA7 
  91      45825B6A 
  92 0190 AB6AA1C8 		.ascii	"\253j\241\310\331&\337\211es\261t\372(\220\200_\013"
  92      D926DF89 
  92      6573B174 
  92      FA289080 
  92      5F0B
  93 01a2 84F8F8   		.ascii	"\204\370\370"
  94              		.text
  95              		.section	.gnu.lto_.symbol_nodes.b9c7ec26a4cb49d2,"",%progbits
ARM GAS  /tmp/ccTk1ojM.s 			page 7


  96 0000 789C45CD 		.ascii	"x\234E\315\313\015@`\020E\34133\324\241\011\275Y\216"
  96      CB0D4060 
  96      1045E133 
  96      33D4A109 
  96      BD598E
  97 0013 4482A50A 		.ascii	"D\202\245\012l\324\240\002{5\210\347F\015BB\374ws\362"
  97      6CD4A002 
  97      7B3588E7 
  97      460D4242 
  97      FC7773F2 
  98 0027 ADAEA264 		.ascii	"\255\256\242d|\323\031\207f\004\367\266\026]p\011\224"
  98      7CD31987 
  98      6604F7B6 
  98      165D7009 
  98      94
  99 0038 0DD79779 		.ascii	"\015\327\227y.\262\343\026\264\342Q\320\201\307\277"
  99      2EB2E316 
  99      B4E251D0 
  99      81C7BF
 100 0047 8C8862BA 		.ascii	"\214\210b\272\236\032K\237\332\363\330\225gb\0223Tg"
 100      9E1A4B9F 
 100      DAF3D895 
 100      67621233 
 100      5467
 101 0059 C20DC2A6 		.ascii	"\302\015\302\246$8"
 101      2438
 102              		.text
 103              		.section	.gnu.lto_.refs.b9c7ec26a4cb49d2,"",%progbits
 104 0000 789C6362 		.ascii	"x\234cb`b`d\200\002\000\000F\000\006"
 104      60626064 
 104      80020000 
 104      460006
 105              		.text
 106              		.section	.gnu.lto_.decls.b9c7ec26a4cb49d2,"",%progbits
 107 0000 789CA598 		.ascii	"x\234\245\230\177P\024\347\031\307\337w\3578  Qb\255"
 107      7F5014E7 
 107      19C7DF77 
 107      EF382020 
 107      5162AD
 108 0013 6D2793F3 		.ascii	"m'\223\363\217d\232\264\341\004\246\2513\355\244\302"
 108      8F649AB4 
 108      E104A6A9 
 108      33EDA4C2 
 109 0023 01C28CA8 		.ascii	"\001\302\214\250\263\207\251\223v\272\335\034\247\334"
 109      B387A993 
 109      76BADD1C 
 109      A7DC
 110 0031 F4B8B377 		.ascii	"\364\270\263w\207\301\277\\\002\265*m\005\374E\320("
 110      87C1BF5C 
 110      02B52A6D 
 110      05FC45D0 
 110      28
 111 0042 309A624A 		.ascii	"0\232bJZJ\214Qj\344$?\320:)\032%4\241IOm\034'\223\266"
 111      5A4A8C51 
 111      6AE4243F 
 111      D03A291A 
 111      2534A149 
ARM GAS  /tmp/ccTk1ojM.s 			page 8


 112 005c 36D618A3 		.ascii	"6\326\030\243\346\372\274\357\356\335\275\273\354\236"
 112      E6FABCEF 
 112      EEDDBDBB 
 112      EC9E
 113 006a BBE90ECF 		.ascii	"\273\351\016\317\263\357\355\275\357\347\371\276\317"
 113      B3EFEDBD 
 113      EFE7F9BE 
 113      CF
 114 0077 FBEE7BEF 		.ascii	"\373\356{\357\013\2078\364c\214P\002\256\326\257#t\321"
 114      0B8738F4 
 114      638C5002 
 114      AED6AF23 
 114      74D1
 115 0089 8610FCA1 		.ascii	"\206\020\374\241\307\3018\260,\260>$_\016\260\001\260"
 115      C7C138B0 
 115      2CB03E24 
 115      5F0EB001 
 115      B0
 116 009a 41B03F80 		.ascii	"A\260?\200\035\006;\002v\024\315\274H\275{\301\206\301"
 116      1D063B02 
 116      7614CDBC 
 116      48BD7BC1 
 116      86C1
 117 00ac 0AC0F2C1 		.ascii	"\012\300\362\301\262\301\216+\314Q\260\023`c`\327\301"
 117      B2C18E2B 
 117      CC51B013 
 117      606360D7 
 117      C1
 118 00bd 3E05BB05 		.ascii	">\005\273\005v\020\3546\330\020\030\310B\023`\263\024"
 118      7610EC36 
 118      D81018C8 
 118      421360B3 
 118      14
 119 00ce 1E897507 		.ascii	"\036\211u\007\311_\330\300\034`yX\326Q\000\3679`s\301"
 119      C95FD8C0 
 119      1C607958 
 119      D65100F7 
 119      396073C1 
 120 00e2 BE8A657D 		.ascii	"\276\212e}\332kPae+\261\277\001\365\276\007\366}\260"
 120      DA6B5061 
 120      652BB1BF 
 120      01F5BE07 
 120      F67DB0
 121 00f5 6A9CD672 		.ascii	"j\234\326r\021\314\016V\203\345\276\217\200\335\003"
 121      11CC0E56 
 121      83E5BE8F 
 121      80DD03
 122 0104 56049F2B 		.ascii	"V\004\237+\300\246\241\374>\3309\260\013`o\201\235\002"
 122      C0A6A1FC 
 122      3ED839B0 
 122      0B606F81 
 122      9D02
 123 0116 3B0B36AE 		.ascii	";\0136\256\344m\320 /\271h\223$=#\365n\224\252OB^Va"
 123      E46DD020 
 123      2FB96893 
 123      243D23F5 
 123      6E94AA4F 
ARM GAS  /tmp/ccTk1ojM.s 			page 9


 124 012e 1117E422 		.ascii	"\021\027\344\"'-\344\347\322\260\017\242\375\222\324"
 124      272DE4E7 
 124      D2B00FA2 
 124      FD92D4
 125 013d 117FE362 		.ascii	"\021\177\343b\234\223\244\034\021\367\341\\@:1z\004"
 125      9C93A41C 
 125      11F7E15C 
 125      403A317A 
 125      04
 126 014e 1D94E01B 		.ascii	"\035\224\340\033I\352\237\367\177\221\317^8m\243\344"
 126      49EA9FF7 
 126      7F91CF5E 
 126      386DA3E4 
 127 015e 0394FC13 		.ascii	"\003\224\374\023\214D\274\037?\242pD\234\235\313r\351"
 127      8C44BC1F 
 127      3FA27044 
 127      9C9DCB72 
 127      E9
 128 016f E7640502 		.ascii	"\347d\005\002\243_+\0052m\356EV\253?\200\366J\275\361"
 128      A35F2B05 
 128      326DEE45 
 128      56AB3F80 
 128      F64ABDF1 
 129 0183 F84BE3FF 		.ascii	"\370K\343\377\276\357Y)\326&%\022\033\320<\264\003:"
 129      BEEF5929 
 129      D6262512 
 129      1BD03CB4 
 129      033A
 130 0195 47E44B38 		.ascii	"G\344K8*\342\307\277\242\333\003\302?\210\347)\245\225"
 130      2AE2C7BF 
 130      A2DB03C2 
 130      3F88E729 
 130      A595
 131 01a7 36392687 		.ascii	"69&\207\236\303\352N \364\020:@x\322\200d\2434R\177"
 131      9EC3EA4E 
 131      20F4103A 
 131      4078D280 
 131      64A33452 
 132 01bc 003FA096 		.ascii	"\000?\240\226\372\002\346\330\007\262\256\330+]\247"
 132      FA02E6D8 
 132      07B2AED8 
 132      2B5DA7
 133 01cb B1D425DD 		.ascii	"\261\324%\335N$lJ8\016=o*\300\2406\300\2133\003\304"
 133      4E246C4A 
 133      380E3D6F 
 133      2AC0A036 
 133      C08B3303 
 134 01e0 3BE293ED 		.ascii	";\342\223\3557\332pgk\357I\351*\311\207\371\256\017"
 134      37DA7067 
 134      6BEF49E9 
 134      2AC987F9 
 134      AE0F
 135 01f2 295DB7D1 		.ascii	")]\267\3219\206\362\320\226\364\220\0336TF\275s\342"
 135      3986F2D0 
 135      96F4901B 
 135      365446BD 
 135      73E2
ARM GAS  /tmp/ccTk1ojM.s 			page 10


 136 0204 F27F700B 		.ascii	"\362\177p\013\204\020\3610\316\003\300\026N;\360?\310"
 136      8410F130 
 136      CE03C016 
 136      4E3BF03F 
 136      C8
 137 0215 53AB87CF 		.ascii	"S\253\207\317L\205t\276i\312\267q\332\214\310\225^\326"
 137      4C8574BE 
 137      69CAB771 
 137      DA8CC895 
 137      5ED6
 138 0227 EDF273DB 		.ascii	"\355\362s\333\376\373\355\356a\251m\263\364Eb\003Nf"
 138      FEFBEDEE 
 138      61A96DB3 
 138      F4456203 
 138      4E66
 139 0239 F57503C6 		.ascii	"\365u\003\306+j\306\017\261m\213=I\372`\347\004~V\032"
 139      2B6AC60F 
 139      B16D8B3D 
 139      49FA60E7 
 139      047E561A 
 140 024d B33A6B46 		.ascii	"\263:kF\324\251\223_+\325\207\231]l\265\351\313{U-O"
 140      D4A9935F 
 140      2BD58799 
 140      5D6CB5E9 
 140      CB7B552D 
 141 0262 350C1A45 		.ascii	"5\014\032E\220B#E\243ZEY\271j\001F\015\217\343\3248"
 141      90422345 
 141      A35A4559 
 141      B96A0146 
 141      0D8FE3D4 
 142 0277 D197BE35 		.ascii	"\321\227\2765\343K/\342~\374\240\251\327\262\020u\022"
 142      E34B2FE2 
 142      7EFCA0A9 
 142      D7B21075 
 142      12
 143 0288 E94E8624 		.ascii	"\351N\206$9\222\250\237\242\324Lz\267\347\306ct\375"
 143      3992A89F 
 143      A2D44C7A 
 143      B7E7C663 
 143      74FD
 144 029a 18C385A0 		.ascii	"\030\303\205\240}\\\223\245\273b\210\2467\240\251\334"
 144      7D5C93A5 
 144      BB6288A6 
 144      37A0A9DC 
 145 02aa 8842A5D8 		.ascii	"\210B\245\330\266\351|\311.?G:IW\256\005\250Wjk\215"
 145      B6E97CC9 
 145      2E3F473A 
 145      4957AE05 
 145      A8576A6B 
 146 02bf ED98DEF3 		.ascii	"\355\230\336\3635\251w\014\220'\350\022v\216J m\365"
 146      35A9770C 
 146      9027E812 
 146      768E4A20 
 146      6DF5
 147 02d1 32A01455 		.ascii	"2\240\024UIU\363vN\347w\210I\330\224e\230S\005\353f"
 147      4955F376 
 147      4EE77788 
ARM GAS  /tmp/ccTk1ojM.s 			page 11


 147      49D89465 
 147      985305EB 
 148 02e6 61D36660 		.ascii	"a\323f`9\306\312zXX\3342L\255l\017\013\373\320\014l"
 148      39C6CA7A 
 148      5858DC32 
 148      4CAD6C0F 
 148      0BFBD00C 
 149 02fb B6B1B2BD 		.ascii	"\266\261\262\275,\354\212e\230Z\331\020\013\373\330"
 149      2CEC8A65 
 149      985AD910 
 149      0BFBD8
 150 030a 0C6CBEB1 		.ascii	"\014l\276\261\262a\026\366\211e\230Z\331!\026\366\231"
 150      B26116F6 
 150      8965985A 
 150      D92116F6 
 150      99
 151 031b 1998D358 		.ascii	"\031\230\323X\331a\026v\3072L\255\354\010\013k\261\233"
 151      D9611676 
 151      C7324CAD 
 151      EC080B6B 
 151      B19B
 152 032d 807DD358 		.ascii	"\200}\323X\331\010\013\373\205e\230Z\3311\026\266\331"
 152      D9080BFB 
 152      8565985A 
 152      D93116B6 
 152      D9
 153 033e 0C6CA191 		.ascii	"\014l\241\221\262\226\330\361\037u\210sP\207\262\244"
 153      B296D8F1 
 153      1F758873 
 153      5087B2A4 
 154 034e C8D4E4B2 		.ascii	"\310\324\344\262\202\325S\213\255\326g\\M\304\227\360"
 154      82D5538B 
 154      ADD6675C 
 154      4DC497F0 
 155 035e 1C5AA2CB 		.ascii	"\034Z\242\313\247\224\372\001\315\317\325\325HZ\374"
 155      A794FA01 
 155      CDCFD5D5 
 155      485AFC
 156 036d 43FE8148 		.ascii	"C\376\201H\277\376J!\275Z\263\265\240\333\277\326v["
 156      BFFE4A21 
 156      BD5AB3B5 
 156      A0DBBFD6 
 156      765B
 157 037f AD42AFDF 		.ascii	"\255B\257\337\352$\236a\223\330i&\211\213\215ao\263"
 157      EA249E61 
 157      93D86926 
 157      898B8D61 
 157      6FB3
 158 0391 B09D6660 		.ascii	"\260\235f`\325\306s\345<\013\353\261\014S+{\207\205"
 158      D5C673E5 
 158      3C0BEBB1 
 158      0C532B7B 
 158      8785
 159 03a3 ED33035B 		.ascii	"\3553\003[a\254\354\257,\254\3372\214U\326\022{/=\361"
 159      61ACECAF 
 159      2CACDF32 
 159      8C55D612 
ARM GAS  /tmp/ccTk1ojM.s 			page 12


 159      7B2F3DF1 
 160 03b7 7A176B66 		.ascii	"z\027kf\336b\365j\253\252\326gXM\304\237X\236x\327\014"
 160      DE62F56A 
 160      ABAAD667 
 160      584DC49F 
 160      589E78D7 
 161 03cc 261E564D 		.ascii	"&\036VM\274k\351\2117\240\355\266J\204R\\\245\223C\275"
 161      BC6BE989 
 161      37A0EDB6 
 161      4A84525C 
 161      A59343BD 
 162 03e0 8BFDA116 		.ascii	"\213\375\241\026\361\233t#1\216\027\200?E\375i\352\337"
 162      F19B7423 
 162      318E1780 
 162      3F45FD69 
 162      EADF
 163 03f2 A27E82FA 		.ascii	"\242~\202\372\263\324\237\243~\222\372)\352\337\245"
 163      B3D49FA3 
 163      7E92FA29 
 163      EADFA5
 164 0401 7E9AFAF7 		.ascii	"~\232\372\367\251\377;\365\027\250\277L\375\025\352"
 164      A9FF3BF5 
 164      17A8BF4C 
 164      FD15EA
 165 0410 3FA2FE63 		.ascii	"?\242\376c\352\377E\375U\360\251K\263\351\0353\030_"
 165      EAFF45FD 
 165      55F0A94B 
 165      B3E91D33 
 165      185F
 166 0422 A2FD7A7A 		.ascii	"\242\375zz\243\224\\\032\272\013\224sR\374\2004\177"
 166      A3945C1A 
 166      BA0B9473 
 166      52FC8034 
 166      7F
 167 0433 7E2A0539 		.ascii	"~*\0059lZ\345\035\011\324\347D|\203N\245\027\355X\233"
 167      6C5AE51D 
 167      09D4E744 
 167      7C834EA5 
 167      17ED589B 
 168 0447 99647E6E 		.ascii	"\231d~n0\343#\227\223\245\004N\341\027%\361\331J\253"
 168      30E32397 
 168      93A5044E 
 168      E11725F1 
 168      D94AAB
 169 045a 4F2DCF83 		.ascii	"O-\317\203\317\015\346\201C?-d\177m\204\272\205U\373"
 169      CF0DE681 
 169      433F2D64 
 169      7F6D84BA 
 169      8555FB
 170 046d 7A4DCBA1 		.ascii	"zM\313\241\014-o\247\023Jv\343\261\253\361\311K\361"
 170      0C2D6FA7 
 170      134A76E3 
 170      B1ABF1C9 
 170      4BF1
 171 047f CDF8C481 		.ascii	"\315\370\304\201\215RGK<\261a_lvrk\177\316n\346\300"
 171      8D52474B 
 171      3CB1615F 
ARM GAS  /tmp/ccTk1ojM.s 			page 13


 171      6C76726B 
 171      7FCE6EE6 
 172 0494 74477B60 		.ascii	"tG{`\372b\346\351\001\242\234o\037w$O\212\013\222\021"
 172      FA62E6E9 
 172      01A29C6F 
 172      1F77244F 
 172      8A0B9211 
 173 04a8 2E9B8A20 		.ascii	".\233\212 q\232\010-\234N\204\330;S\371\244\007\011"
 173      719A082D 
 173      9C4E84D8 
 173      3B53F9A4 
 173      0709
 174 04ba A607374D 		.ascii	"\246\0077M\361[\265\3746=~|\327GW\346\337\034\226$z"
 174      F15BB5FC 
 174      363D7E7C 
 174      D74757E6 
 174      DF1C9624 
 175 04cf FE69694B 		.ascii	"\376iiKu\342\345,6\010=\012p\350\265,\234)\344Fm\310"
 175      75E2E52C 
 175      36083D0A 
 175      70E8B52C 
 175      9C29E446 
 176 04e5 5FEA869C 		.ascii	"_\352\206\234\274t\246Gwh\316f\231\351X\2736\312\257"
 176      BC74A647 
 176      7768CE66 
 176      99E958BB 
 176      36CAAF
 177 04f8 7413F7C1 		.ascii	"t\023\367\301\305\223\312a\271u\023\227:.\177h*\304"
 177      C593CA61 
 177      B9751397 
 177      3A2E7F68 
 177      2AC4
 178 050a 6FB421B6 		.ascii	"o\264!\266\352v\344|\373\371\231\243\377\271\251\010"
 178      EA76E47C 
 178      FBF999A3 
 178      FFB9A908 
 179 051a 9DDA085D 		.ascii	"\235\332\010]\272\235\370l\346\350ou\230\341o\327\362"
 179      BA9DF86C 
 179      E6E86F75 
 179      98E16FD7 
 179      F2
 180 052b 77188CFE 		.ascii	"w\030\214\376\231]xW\253$\037\370{7q\311(\273\0353\206"
 180      995D7857 
 180      AB241FF8 
 180      7B3771C9 
 180      28BB1D33 
 181 0540 5FC49BD3 		.ascii	"_\304\233\323\014\275\230\273\2641\273\3251u\316_1["
 181      0CBD98BB 
 181      B431BBD5 
 181      3175CE5F 
 181      315B
 182 0552 F24D5E84 		.ascii	"\362M^\204R\307\270?^\273\342o\245\377\017\330\315\221"
 182      52C7B83F 
 182      5EBBE26F 
 182      A5FF0FD8 
 182      CD91
 183 0564 73DC054D 		.ascii	"s\334\005M\217\357\312!\261\367r\232s\334\255)z\216"
ARM GAS  /tmp/ccTk1ojM.s 			page 14


 183      8FEFCA21 
 183      B1F7729A 
 183      73DCAD29 
 183      7A8E
 184 0576 23CFEF7E 		.ascii	"#\317\357~\216KLmW\235\343\376I%\220\266_\356\034\327"
 184      8E4B4C6D 
 184      579DE3FE 
 184      492590B6 
 184      5FEE1CD7 
 185 058a F11EF3FB 		.ascii	"\361\036\363\373\177\3252\314\251\202u\261\260\353f"
 185      7FD532CC 
 185      A98275B1 
 185      B0EB66
 186 0599 6019CE71 		.ascii	"`\031\316q\333Y\330M\3130\265\262\235,\354\231l\023"
 186      DB59D84D 
 186      CB30B5B2 
 186      9D2CEC99 
 186      6C13
 187 05ab B00CE7B8 		.ascii	"\260\014\347\270n\026\326n\031\246V\326\303\302\272"
 187      6E16D66E 
 187      19A656D6 
 187      C3C2BA
 188 05ba CCC0329C 		.ascii	"\314\3002\234\343\366\260\260\036\3130\265\262\275,"
 188      E3F6B0B0 
 188      1ECB30B5 
 188      B2BD2C
 189 05c9 ACDF0CCC 		.ascii	"\254\337\014\314i\254l\210\205\375\3262L\255l\230\205"
 189      69AC6C88 
 189      85FDD632 
 189      4CAD6C98 
 189      85
 190 05da FDCE0C2C 		.ascii	"\375\316\014,\3039\356\020\013{\3112L\255\3540\013;"
 190      C339EE10 
 190      0B7BC932 
 190      4CADEC30 
 190      0B3B
 191 05ec 6A066678 		.ascii	"j\006fx\216\203\343j\032&\342?c\316\"\314\211\014/v"
 191      8E83E36A 
 191      1A26E23F 
 191      63CE22CC 
 191      890C2F76 
 192 0600 1512F13E 		.ascii	"\025\022\361>\216lR{9\262q\354\247~?\365\317S?@\375"
 192      8E6C527B 
 192      39B271EC 
 192      A77E3FF5 
 192      CF533F40 
 193 0615 0BD40F52 		.ascii	"\013\324\017R\377{\352\207\250\037\246\376\020\365\207"
 193      FF7BEA87 
 193      A81FA6FE 
 193      10F587
 194 0624 A93F42FD 		.ascii	"\251?B\375\010g\274\001\335m\320\011\242\353O\\j\277"
 194      0867BC01 
 194      DD6DD009 
 194      A2EB4F5C 
 194      6ABF
 195 0636 A4F75F31 		.ascii	"\244\367_1\325\211P^\225c\223[\261S\304\307\350\212"
 195      D589505E 
ARM GAS  /tmp/ccTk1ojM.s 			page 15


 195      9563935B 
 195      B153C4C7 
 195      E88A
 196 0648 3C9A7DF7 		.ascii	"<\232}\367\377\254\3158\333\216jW\344\243\023tE\036"
 196      FFACCD38 
 196      DB8E6A57 
 196      E4A31374 
 196      451E
 197 065a 35B522BF 		.ascii	"5\265\"\277:\241^\221\377B%\214~\351\025\371\370\004"
 197      3AA15E91 
 197      FF42258C 
 197      7EE915F9 
 197      F804
 198 066c 33EA7D1C 		.ascii	"3\352}\034g\021\246\236\217g&\230\3718iFY\206\025\371"
 198      6711A69E 
 198      8F672698 
 198      F9386946 
 198      598615F9 
 199 0680 6D16F637 		.ascii	"m\026\3667\313\260\214\363q\224\231\2171:\037O\320y"
 199      CBB08CF3 
 199      7194998F 
 199      313A1F4F 
 199      D079
 200 0692 F41AF5AF 		.ascii	"\364\032\365\257S\377f\2069u,\303\234:\231\236S\232"
 200      53FF6686 
 200      39752CC3 
 200      9C3A999E 
 200      539A
 201 06a4 56231976 		.ascii	"V#\031v\356\247\322\255\320\375\256\246H\330\345\017"
 201      EEA7D2AD 
 201      D0FDAEA6 
 201      48D8E50F 
 202 06b4 7A034DF5 		.ascii	"z\003M\365>W\320\367t\300\377\224+\022\255\367\007\243"
 202      3E57D0F7 
 202      74C0FF94 
 202      2B12ADF7 
 202      07A3
 203 06c6 450D28A7 		.ascii	"E\015(\247\011\356\245%B\324\261d\331J\247\033=\252"
 203      09EEA525 
 203      42D4B164 
 203      D94AA71B 
 203      3DAA
 204 06d8 57BB51F4 		.ascii	"W\273Q\3646\370\203>\227P\357[-6\005\242Bt\375Z_\004"
 204      36F8833E 
 204      9750EF5B 
 204      2D3605A2 
 204      4274FD5A 
 205 06ee 5ADF2308 		.ascii	"Z\337#\010\311\366\245EE.\371/\024q5\210\001\327\332"
 205      C9F6A545 
 205      452EF92F 
 205      14713588 
 205      01D7DA
 206 0701 50381A71 		.ascii	"P8\032qy\352jKK\\K\227V\270\352jj\327\025\223o\204H"
 206      79EA6A4B 
 206      4B5C4B97 
 206      56B8EA6A 
 206      6AD71593 
ARM GAS  /tmp/ccTk1ojM.s 			page 16


 207 0718 540804EA 		.ascii	"T\010\004\352\213\274(\347\011\2377\032\012\177\327"
 207      8BBC28E7 
 207      099F371A 
 207      0A7FD7
 208 0727 9D273F12 		.ascii	"\235'?\022\374A\177\364Q\026\344\01556\206\202\012\253"
 208      FC417FF4 
 208      5116E40D 
 208      35368682 
 208      0AAB
 209 0739 8CAF75D7 		.ascii	"\214\257u\3276\273\274\015\336P\330'\254{\254\021\024"
 209      36BBBC0D 
 209      DE50D827 
 209      AC7BAC11 
 209      14
 210 074a 3C6CAE36 		.ascii	"<l\2566\351i\330\267F\0147\012\321B\201T\020\374\341"
 210      E969D8B7 
 210      460C370A 
 210      D1428154 
 210      10FCE1
 211 075d 9F0BBEB5 		.ascii	"\237\013\276\265\376@hM\223\357~\226\022\364\007R\011"
 211      FE40684D 
 211      93EF7E96 
 211      12F40752 
 211      09
 212 076e F03640CB 		.ascii	"\3606@\313Bo\203g}\244\316\337\350\013W\213\301\372"
 212      426F8367 
 212      7DA4CEDF 
 212      E80B578B 
 212      C1FA
 213 0780 802F5CF3 		.ascii	"\200/\\\363-\375\336*\002\224\320\301u~/4\237M\356\225"
 213      2DFDDE2A 
 213      0294D0C1 
 213      757E2F34 
 213      9F4DEE95 
 214 0794 41F1A980 		.ascii	"A\361\251\200O\356o\211\271TE\242\215$\261~\322\315"
 214      4FEE6F89 
 214      B95445A2 
 214      8D24B17E 
 214      D2CD
 215 07a6 BCD40721 		.ascii	"\274\324\007!js\363\305`%vO\255\233\267W\324T\362\234"
 215      6A73F3C5 
 215      6025764F 
 215      AD9BB757 
 215      D454F29C 
 216 07ba 87B7552E 		.ascii	"\207\267U.\341\263\334\356Z\276\230\372\022\273\333"
 216      E1B3DCEE 
 216      5ABE98FA 
 216      12BBDB
 217 07c9 5DC9DBDC 		.ascii	"]\311\333\334\313\352l"
 217      CBEA6C
 218 07d0 2B3C6E5B 		.ascii	"+<n[\031\317\333x7|\206\006\345\025u\274\255\202\264"
 218      19CFDB78 
 218      377C8606 
 218      E51575BC 
 218      AD82B4
 219 07e3 AC2DE3B9 		.ascii	"\254-\343\271\345r\253R\250\277\212\267{\033\304\260"
 219      E572AB52 
ARM GAS  /tmp/ccTk1ojM.s 			page 17


 219      A8BF8AB7 
 219      7B1BC4B0 
 220 07f3 53AB2E14 		.ascii	"S\253.\024\001G\222B\012$\035\344\016\011Y\032\362\376"
 220      01479242 
 220      0A241DE4 
 220      0E09591A 
 220      F2FE
 221 0805 AC2A1C6A 		.ascii	"\254*\034j\254\361\360\2054\243\001x \254\206'\202?"
 221      ACF1F085 
 221      34A30178 
 221      20AC8627 
 221      823F
 222 0817 12CE4D3D 		.ascii	"\022\316M=*\326\031\"_s\324\345\256\365\324x\322\231"
 222      2AD61922 
 222      5F73D4E5 
 222      AEF5D478 
 222      D299
 223 0829 6E8CF823 		.ascii	"n\214\370#\302\032/\311\330,A\250\367GH\302\310(\315"
 223      C21A2FC9 
 223      D82C41A8 
 223      F74748C2 
 223      C828CD
 224 083c 12034F8B 		.ascii	"\022\003O\213\353#09\0020\011\357#\321\227\253Gc\256"
 224      EB233039 
 224      023009EF 
 224      23D197AB 
 224      4763AE
 225 084f A2686530 		.ascii	"\242he0\220\3264\227\012h\012\252T\3451\017\363\005"
 225      90D63497 
 225      0A680AAA 
 225      54E5310F 
 225      F305
 226 0861 C1174C06 		.ascii	"\301\027L\006Y\224Q\244\247N\036\235\252\205\315\315"
 226      599451A4 
 226      A74E1E9D 
 226      AA85CDCD 
 227 0871 F2B8AC5E 		.ascii	"\362\270\254^\370\235\342\346Eddx\267[\250\203\367\241"
 227      F89DE2E6 
 227      45646478 
 227      B75BA883 
 227      F7A1
 228 0883 C2B79A83 		.ascii	"\302\267\232\203\254\272\253\226@\236k\370\234\262\025"
 228      ACBAAB96 
 228      409E6BF8 
 228      9CB215
 229 0892 E525BCA7 		.ascii	"\345%\274\247\216\026\212I\301QV]^\271\214\317&_(\367"
 229      8E168A49 
 229      C151565D 
 229      5EB98CCF 
 229      265F28F7 
 230 08a6 62B8C380 		.ascii	"b\270\303\200\220\221\361\300\203\352rR/\213 J\250/"
 230      9091F1C0 
 230      83EA7252 
 230      2F8B204A 
 230      A82F
 231 08b8 2DA8285F 		.ascii	"-\250(_R\353^\231\014\340\250\251p/\257\250t\220\246"
 231      52EB5E99 
ARM GAS  /tmp/ccTk1ojM.s 			page 18


 231      0CE0A8A9 
 231      702FAFA8 
 231      7490A6
 232 08cb 554F925B 		.ascii	"UO\222[I\325\223\377\003*\351\030\351"
 232      49D593FF 
 232      032AE918 
 232      E9
 233              		.text
 234              		.section	.gnu.lto_.symtab.b9c7ec26a4cb49d2,"",%progbits
 235 0000 56656374 		.ascii	"Vector7C\000\000\000\000\000\000\000\000\000\000\000"
 235      6F723743 
 235      00000000 
 235      00000000 
 235      000000
 236 0013 00A80000 		.ascii	"\000\250\000\000\000st_lld_init\000\000\000\000\000"
 236      0073745F 
 236      6C6C645F 
 236      696E6974 
 236      00000000 
 237 0028 00000000 		.ascii	"\000\000\000\000\000\000\000\254\000\000\000_port_i"
 237      000000AC 
 237      0000005F 
 237      706F7274 
 237      5F69
 238 003a 72715F65 		.ascii	"rq_epilogue\000\000\002\000\000\000\000\000\000\000"
 238      70696C6F 
 238      67756500 
 238      00020000 
 238      00000000 
 239 004f 0000AF00 		.ascii	"\000\000\257\000\000\000chSysTimerHandlerI\000\000\002"
 239      00006368 
 239      53797354 
 239      696D6572 
 239      48616E64 
 240 006a 00000000 		.ascii	"\000\000\000\000\000\000\000\000\000\266\000\000\000"
 240      00000000 
 240      00B60000 
 240      00
 241 0077 6E766963 		.ascii	"nvicEnableVector\000\000\002\000\000\000\000\000\000"
 241      456E6162 
 241      6C655665 
 241      63746F72 
 241      00000200 
 242 0090 000000B9 		.ascii	"\000\000\000\271\000\000\000"
 242      000000
 243              		.text
 244              		.section	.gnu.lto_.opts,"",%progbits
 245 0000 272D6D63 		.ascii	"'-mcpu=cortex-m0' '-mno-thumb-interwork' '-mthumb' "
 245      70753D63 
 245      6F727465 
 245      782D6D30 
 245      2720272D 
 246 0033 272D6767 		.ascii	"'-ggdb' '-O2' '-fomit-frame-pointer' '-falign-funct"
 246      64622720 
 246      272D4F32 
 246      2720272D 
 246      666F6D69 
ARM GAS  /tmp/ccTk1ojM.s 			page 19


 247 0066 696F6E73 		.ascii	"ions=16' '-ffunction-sections' '-fdata-sections' '-"
 247      3D313627 
 247      20272D66 
 247      66756E63 
 247      74696F6E 
 248 0099 666E6F2D 		.ascii	"fno-common' '-flto'\000"
 248      636F6D6D 
 248      6F6E2720 
 248      272D666C 
 248      746F2700 
 249              		.text
 250              		.cfi_sections	.debug_frame
 251              		.section	.text.Vector7C,"ax",%progbits
 252              		.align	2
 253              		.p2align 4,,15
 254              		.global	Vector7C
 255              		.code	16
 256              		.thumb_func
 257              		.type	Vector7C, %function
 258              	Vector7C:
 259              	.LFB98:
 260              		.file 1 "../../../os/hal/ports/STM32/LLD/TIMv1/hal_st_lld.c"
 261              		.loc 1 239 0
 262              		.cfi_startproc
 263              		.loc 1 246 0
 264 0000 8023     		mov	r3, #128
 265 0002 DB05     		lsl	r3, r3, #23
 266 0004 1A69     		ldr	r2, [r3, #16]
 267              		.loc 1 239 0
 268 0006 10B5     		push	{r4, lr}
 269              		.cfi_def_cfa_offset 8
 270              		.cfi_offset 4, -8
 271              		.cfi_offset 14, -4
 272              		.loc 1 241 0
 273 0008 7446     		mov	r4, lr
 274              	.LVL0:
 275              		.loc 1 246 0
 276 000a 9107     		lsl	r1, r2, #30
 277 000c 05D5     		bpl	.L2
 278              		.loc 1 247 0
 279 000e 0022     		mov	r2, #0
 280 0010 1A61     		str	r2, [r3, #16]
 281              	.LBB38:
 282              	.LBB39:
 283              	.LBB40:
 284              	.LBB41:
 285              	.LBB42:
 286              		.file 2 "../../../os/common/ext/CMSIS/include/cmsis_gcc.h"
 287              		.loc 2 71 0
 288              	@ 71 "../../../os/common/ext/CMSIS/include/cmsis_gcc.h" 1
 289 0012 72B6     		cpsid i
 290              	@ 0 "" 2
 291              		.code	16
 292              	.LBE42:
 293              	.LBE41:
 294              	.LBE40:
 295              	.LBE39:
ARM GAS  /tmp/ccTk1ojM.s 			page 20


 296              	.LBE38:
 297              	.LBB43:
 298              	.LBB44:
 299              		.file 3 "../../../os/hal/osal/nil/osal.h"
 300              		.loc 3 596 0
 301 0014 FFF7FEFF 		bl	chSysTimerHandlerI
 302              	.LVL1:
 303              	.LBE44:
 304              	.LBE43:
 305              	.LBB45:
 306              	.LBB46:
 307              	.LBB47:
 308              	.LBB48:
 309              	.LBB49:
 310              		.loc 2 60 0
 311              	@ 60 "../../../os/common/ext/CMSIS/include/cmsis_gcc.h" 1
 312 0018 62B6     		cpsie i
 313              	@ 0 "" 2
 314              		.code	16
 315              	.L2:
 316              	.LBE49:
 317              	.LBE48:
 318              	.LBE47:
 319              	.LBE46:
 320              	.LBE45:
 321              		.loc 1 254 0
 322 001a 201C     		mov	r0, r4
 323 001c FFF7FEFF 		bl	_port_irq_epilogue
 324              	.LVL2:
 325              		.loc 1 255 0
 326              		@ sp needed
 327              	.LVL3:
 328 0020 10BD     		pop	{r4, pc}
 329              		.cfi_endproc
 330              	.LFE98:
 331              		.size	Vector7C, .-Vector7C
 332 0022 C046C046 		.section	.text.st_lld_init,"ax",%progbits
 332      C046C046 
 332      C046C046 
 332      C046
 333              		.align	2
 334              		.p2align 4,,15
 335              		.global	st_lld_init
 336              		.code	16
 337              		.thumb_func
 338              		.type	st_lld_init, %function
 339              	st_lld_init:
 340              	.LFB99:
 341              		.loc 1 267 0
 342              		.cfi_startproc
 343 0000 08B5     		push	{r3, lr}
 344              		.cfi_def_cfa_offset 8
 345              		.cfi_offset 3, -8
 346              		.cfi_offset 14, -4
 347              		.loc 1 273 0
 348 0002 0E4B     		ldr	r3, .L8
 349 0004 0122     		mov	r2, #1
ARM GAS  /tmp/ccTk1ojM.s 			page 21


 350 0006 D969     		ldr	r1, [r3, #28]
 351              		.loc 1 289 0
 352 0008 0F20     		mov	r0, #15
 353              		.loc 1 273 0
 354 000a 1143     		orr	r1, r2
 355 000c D961     		str	r1, [r3, #28]
 356              		.loc 1 276 0
 357 000e 0C4B     		ldr	r3, .L8+4
 358              		.loc 1 304 0
 359              		@ sp needed
 360              		.loc 1 276 0
 361 0010 9968     		ldr	r1, [r3, #8]
 362 0012 1143     		orr	r1, r2
 363 0014 9960     		str	r1, [r3, #8]
 364              		.loc 1 279 0
 365 0016 0B49     		ldr	r1, .L8+8
 366 0018 8023     		mov	r3, #128
 367 001a DB05     		lsl	r3, r3, #23
 368 001c 9962     		str	r1, [r3, #40]
 369              		.loc 1 280 0
 370 001e 0121     		mov	r1, #1
 371 0020 4942     		neg	r1, r1
 372 0022 D962     		str	r1, [r3, #44]
 373              		.loc 1 281 0
 374 0024 0021     		mov	r1, #0
 375 0026 9961     		str	r1, [r3, #24]
 376              		.loc 1 282 0
 377 0028 5963     		str	r1, [r3, #52]
 378              		.loc 1 283 0
 379 002a D960     		str	r1, [r3, #12]
 380              		.loc 1 284 0
 381 002c 5960     		str	r1, [r3, #4]
 382              		.loc 1 285 0
 383 002e 5A61     		str	r2, [r3, #20]
 384              		.loc 1 289 0
 385 0030 0221     		mov	r1, #2
 386              		.loc 1 286 0
 387 0032 1A60     		str	r2, [r3]
 388              		.loc 1 289 0
 389 0034 FFF7FEFF 		bl	nvicEnableVector
 390              	.LVL4:
 391              		.loc 1 304 0
 392 0038 08BD     		pop	{r3, pc}
 393              	.L9:
 394 003a C046     		.align	2
 395              	.L8:
 396 003c 00100240 		.word	1073876992
 397 0040 00580140 		.word	1073829888
 398 0044 7FBB0000 		.word	47999
 399              		.cfi_endproc
 400              	.LFE99:
 401              		.size	st_lld_init, .-st_lld_init
 402 0048 C046C046 		.text
 402      C046C046 
 403              	.Letext0:
 404              		.file 4 "/usr/include/newlib/machine/_default_types.h"
 405              		.file 5 "/usr/include/newlib/stdint.h"
ARM GAS  /tmp/ccTk1ojM.s 			page 22


 406              		.file 6 "../../../os/common/ext/CMSIS/ST/STM32F0xx/stm32f051x8.h"
 407              		.file 7 "../../../os/common/ports/ARMCMx/chcore.h"
 408              		.file 8 "../../../os/hal/ports/STM32/LLD/TIMv1/stm32_tim.h"
 409              		.file 9 "../../../os/common/ports/ARMCMx/chcore_v6m.h"
 410              		.file 10 "../../../os/nil/include/ch.h"
 411              		.file 11 "../../../os/hal/ports/common/ARMCMx/nvic.h"