ARM GAS  /tmp/ccTk1ojM.s 			page 1


   1              		.cpu cortex-m0
   2              		.fpu softvfp
   3              		.eabi_attribute 20, 1
   4              		.eabi_attribute 21, 1
   5              		.eabi_attribute 23, 3
   6              		.eabi_attribute 24, 1
   7              		.eabi_attribute 25, 1
   8              		.eabi_attribute 26, 1
   9              		.eabi_attribute 30, 2
  10              		.eabi_attribute 34, 0
  11              		.eabi_attribute 18, 4
  12              		.code	16
  13              		.file	"hal_st_lld.c"
  14              		.text
  15              	.Ltext0:
  16              		.section	.gnu.lto_.jmpfuncs.b9c7ec26a4cb49d2,"",%progbits
  17 0000 789C6362 		.ascii	"x\234cb`b\300\006\324\2414P\226\021H12E0f\202\030@\036"
  17      6062C006 
  17      D4A13450 
  17      96114831 
  17      32453066 
  18 0018 1398CDC8 		.ascii	"\023\230\315\310\017\224\0043@\006\000\0003\227\002"
  18      0F940433 
  18      40060000 
  18      339702
  19 0027 95       		.ascii	"\225"
  20              		.text
  21              		.section	.gnu.lto_.inline.b9c7ec26a4cb49d2,"",%progbits
  22 0000 789C6362 		.ascii	"x\234cb`b\300\006\234\2404P\226W\214\221\201\211\357"
  22      6062C006 
  22      9CA03450 
  22      96578C91 
  22      8189EF
  23 0013 5E0003DB 		.ascii	"^\000\003\333\002y\260b&n\006\006\306\011~\214\\P5\214"
  23      0279B062 
  23      266E0606 
  23      C6097E8C 
  23      5C50358C 
  24 0027 40282203 		.ascii	"@(\"\003T$\363\340\026#\\\0253\017X7\003\000\352\216"
  24      5424F3E0 
  24      16235C15 
  24      330F5837 
  24      0300EA8E 
  25 003b 064D     		.ascii	"\006M"
  26              		.text
  27              		.section	.gnu.lto_.pureconst.b9c7ec26a4cb49d2,"",%progbits
  28 0000 789C6362 		.ascii	"x\234cb`b`e\200\000&\006+F)\000\001f\000a"
  28      60626065 
  28      80002606 
  28      2B462900 
  28      01660061 
  29              		.text
  30              		.section	.gnu.lto_Vector7C.b9c7ec26a4cb49d2,"",%progbits
  31 0000 789C8D52 		.ascii	"x\234\215RMh\023Q\020\236\331\335\374\267\376\340EA"
  31      4D681351 
  31      109ED9DD 
  31      FCB7FEE0 
ARM GAS  /tmp/ccTk1ojM.s 			page 2


  31      4541
  32 0012 62F06241 		.ascii	"b\360bA\232\245-\364\254\324K\241\271\230\024\364\024"
  32      9AA52DF4 
  32      ACD44BA1 
  32      B99814F4 
  32      14
  33 0023 E24B4816 		.ascii	"\342KH\026\222n\311\306P\361\320\027\023\241\240`P\020"
  33      926EC9C6 
  33      50F1D017 
  33      13A1A060 
  33      5010
  34 0035 7F502CC5 		.ascii	"\177P,\305\213=\210\240\240\365R=U\245-z\020\351\305"
  34      8B3D88A0 
  34      A0F5523D 
  34      55A52D7A 
  34      10E9C5
  35 0048 9482202A 		.ascii	"\224\202 *X\274\224\246M\234\267/\033cUpx\2773\363\276"
  35      58BC94A6 
  35      4D9CB72F 
  35      1B635570 
  35      78BF33F3 
  36 005d 996FDE28 		.ascii	"\231o\336(\240\300N\351\247\331\243\002\254\320\216"
  36      A0C04EE9 
  36      A7D9A302 
  36      ACD08E
  37 006c 2E40A5BA 		.ascii	".@\245\272\004P\362*\212:\027\004\356\327\336\353\300"
  37      0450F22A 
  37      8A3A1704 
  37      EED7DEEB 
  37      C0
  38 007d BB54D4A4 		.ascii	"\273T\324\244ZC\024\007@\230TT\015'O\243\300\300\303"
  38      5A431407 
  38      40985454 
  38      0D274FA3 
  38      C0C0C3
  39 0090 30CDF9D5 		.ascii	"0\315\371\325\332\375\315\233\007\370\275\013U\336h"
  39      DAFDCD9B 
  39      07F8BD0B 
  39      55DE68
  40 009f 36D1408A 		.ascii	"6\321@\2126\210\300\020N\321\005C\366\246h\277\207\177"
  40      3688C010 
  40      4ED10543 
  40      F6A668BF 
  40      877F
  41 00b1 A8CCD79A 		.ascii	"\250\314\327\232\315\255\372\306j\023\367\355\326 \201"
  41      CDADFAC6 
  41      6A13F7ED 
  41      D62081
  42 00c0 D384E602 		.ascii	"\323\204\346\002\003U\267X\310\305\005\025\316\253!"
  42      0355B758 
  42      C8C50515 
  42      CEAB21
  43 00cf 69018147 		.ascii	"i\001\201G\022\243Ud2\212\212\330\325e\250\324>\247"
  43      12A35564 
  43      328A8AD8 
  43      D565A8D4 
  43      3EA7
ARM GAS  /tmp/ccTk1ojM.s 			page 3


  44 00e1 1338431C 		.ascii	"\0238C\034\322\250\235\207M>\305\367\030\2501\264\375"
  44      D2A89D87 
  44      4D3EC5F7 
  44      18A831B4 
  44      FD
  45 00f2 EDE02E20 		.ascii	"\355\340. H7\300+P\244\247\304$\177\200Ex\271\362\241"
  45      4837C02B 
  45      50A4A7C4 
  45      247F8045 
  45      78B9F2A1 
  46 0106 BEAA3810 		.ascii	"\276\2528\020\256\243\360\200W\350\221\3476\334\242"
  46      AEA3F080 
  46      57E891E7 
  46      36DCA2
  47 0115 CD2B007C 		.ascii	"\315+\000|\234D\263\261|6\352\031t\210,B\371y\371\023"
  47      9C44B3B1 
  47      7C36EA19 
  47      74882C42 
  47      F979F913 
  48 0129 3ACFDD84 		.ascii	":\317\335\204 \334TQ\361\005\250|-u\267M\266\276\263"
  48      20DC5451 
  48      F105A87C 
  48      2D75B74D 
  48      B6BEB3
  49 013c 08A3749D 		.ascii	"\010\243t\235\013\252\224\302\323\215\372z+\005;~\211"
  49      0BAA94C2 
  49      D38DFA7A 
  49      2B053B7E 
  49      89
  50 014d 47FF3303 		.ascii	"G\3773\003\241\361\210\303\022\224\326\247\326\326\366"
  50      A1F188C3 
  50      1294D6A7 
  50      D6D6F6
  51 015c B7CAE6D4 		.ascii	"\267\312\346\324o~\366\312\267@\217s\343k\217\017\266"
  51      6F7EF6CA 
  51      B7408F73 
  51      E36B8F0F 
  51      B6
  52 016d 2D33D7EF 		.ascii	"-3\327\357\356\355k\337\336l\375\240:\311\034\030U\227"
  52      EEED6BDF 
  52      DE6CFDA0 
  52      3AC91C18 
  52      5597
  53 017f 51728C2A 		.ascii	"Qr\214*\304D\371\354\337\206\027\244\262;)\010\257\361"
  53      C444F9EC 
  53      DF8617A4 
  53      B23B2908 
  53      AFF1
  54 0191 0EBF71CC 		.ascii	"\016\277q\314@\277\264-C\371\373\302\305/\227{wF\277"
  54      40BFB42D 
  54      43F9FBC2 
  54      C52F977B 
  54      7746BF
  55 01a4 B45DF6FC 		.ascii	"\264]\366\374BuK\357\366/\005\030z\022\370HF0\260\253"
  55      42754BEF 
  55      F62F0518 
  55      7A12F848 
ARM GAS  /tmp/ccTk1ojM.s 			page 4


  55      4630B0AB 
  56 01b8 C5A2FC11 		.ascii	"\305\242\374\021\377d\321\010\034j\263\230}\022\354"
  56      FF64D108 
  56      1C6AB398 
  56      7D12EC
  57 01c7 60F1AC93 		.ascii	"`\361\254\223\305\366\265\216x^\232>\232~\232\001\207"
  57      C5F6B58E 
  57      785E9A3E 
  57      9A7E9A01 
  57      87
  58 01d8 C5BB7FB2 		.ascii	"\305\273\177\262\220\177\242\265\033\253\321j\254\216"
  58      907FA2B5 
  58      1BABD16A 
  58      AC8E
  59 01e6 8CBB99C8 		.ascii	"\214\273\231\310\222\204\232\307\300]\000o\241Tk\036"
  59      92849AC7 
  59      C05D006F 
  59      A1546B1E 
  60 01f6 71FCA4C4 		.ascii	"q\374\244\304\250\367\010C\004\031\010\207u9LK\317$"
  60      A8F70843 
  60      04190887 
  60      75394C4B 
  60      CF24
  61 0208 B2FAB899 		.ascii	"\262\372\270\231/Xz4\026\031\350\327GFN\350\261\341"
  61      2F587A34 
  61      1619E8D7 
  61      47464EE8 
  61      B1E1
  62 021a 48B14F58 		.ascii	"H\261OX\342V!\236\315&\303\014|q+QL%\343\331|_\347k"
  62      E256219E 
  62      CD26C30C 
  62      7C712B51 
  62      4C25E3D9 
  63 0232 66E672E6 		.ascii	"f\346r\346\230\236\232(\350C\221\350pT7\306X\366l2\245"
  63      989E9A28 
  63      E84391E8 
  63      705437C6 
  63      58F66C32 
  64 0247 B39C6558 		.ascii	"\263\234eX\3614c\341\014\364\376\345\205\014y\374dd"
  64      F13463E1 
  64      0CF4FEE5 
  64      850C79FC 
  64      6464
  65 0259 2832A1B3 		.ascii	"(2\241\263\0143\363\251xq0G\336\241\235\331\231\026"
  65      0C33F3A9 
  65      78713047 
  65      DEA19DD9 
  65      9916
  66 026b 2D63863C 		.ascii	"-c\206<\220\203\227\215[F2d\200'\227\312\231\371sR\221"
  66      9083978D 
  66      5B463264 
  66      802797CA 
  66      99F97352 
  67 0280 22C54FFB 		.ascii	"\"\305O\373\017\016\364"
  67      0F0EF4
  68              		.text
  69              		.section	.gnu.lto_st_lld_init.b9c7ec26a4cb49d2,"",%progbits
ARM GAS  /tmp/ccTk1ojM.s 			page 5


  70 0000 789C95D3 		.ascii	"x\234\225\323\277K\002Q\034\000\360\357\367\335\235"
  70      BF4B0251 
  70      1C00F0EF 
  70      F7DD9D
  71 000f BF0AACB1 		.ascii	"\277\012\254\261ZZ#\362(ini\021t\352\202\234\304\014"
  71      5A5A23F2 
  71      28696E69 
  71      1174EA82 
  71      9CC40C
  72 0022 4C108C94 		.ascii	"L\020\214\224\226\006\237\244\340\320 MR\015\265jhS"
  72      96069FA4 
  72      E0D0204D 
  72      520DB56A 
  72      6853
  73 0034 5C5BB835 		.ascii	"\\[\2705h\264I\223c\375\003!-\366\336\275\273\363WH"
  73      68B44993 
  73      63FD0321 
  73      2DF6DEBD 
  73      BBF35748 
  74 0048 F745BFEF 		.ascii	"\367E\277\357\356\336\373~\374\202\337#@`2\226\330w"
  74      EEDEFB7E 
  74      FC82DF23 
  74      40603296 
  74      D877
  75 005a 4506D866 		.ascii	"E\006\330f+J\200\244\322\001(x\010\"\277\000\204<\301"
  75      2B4A80A4 
  75      D2012878 
  75      0822BF00 
  75      843CC1
  76 006d 7C148DB3 		.ascii	"|\024\215\263M\362\322\033\014\032OW\267\227\330!\213"
  76      4DF2D21B 
  76      0C1A4F57 
  76      B797D821 
  76      8B
  77 007e 04520812 		.ascii	"\004R\010\022O\012O.\236X(P\244\264\262\012\2200n5\226"
  77      4F0A4F2E 
  77      9E582850 
  77      A4B4B20A 
  77      90306E35 
  78 0093 39B58F84 		.ascii	"9\265\217\204\257R\033Z\037zm9\216\367\250@\022\311"
  78      AF521B5A 
  78      1F7A6D39 
  78      8EF7A840 
  78      12C9
  79 00a5 3AD468B1 		.ascii	":\324h\261\260\220B\274\201kL!9`I\242we*\203qi\374\364"
  79      B09042BC 
  79      816B4C21 
  79      396049A2 
  79      77652A83 
  80 00bd 215A0DB7 		.ascii	"!Z\015\267\341\342Y\262\252\245\2448\017h\354\264Bb"
  80      E1E259B2 
  80      AAA5A438 
  80      0F68ECB4 
  80      4262
  81 00cf C39999E4 		.ascii	"\303\231\231\344\367\274\255r\235X\2602I\310\274N\241"
  81      F7BCAD72 
  81      9D58B032 
ARM GAS  /tmp/ccTk1ojM.s 			page 6


  81      49C8BC4E 
  81      A1
  82 00e0 8F259350 		.ascii	"\217%\223PL\002\377j\313\305\200\177\2645\333d\214Q"
  82      4C02FF6A 
  82      CBC5807F 
  82      B435DB64 
  82      8C51
  83 00f2 ACF7EB2D 		.ascii	"\254\367\353-i\024\240;\266\340\342en\312B\010nS\020"
  83      6914A03B 
  83      B6E0E265 
  83      6ECA4208 
  83      6E5310
  84 0105 FF337F82 		.ascii	"\3773\177\202\203o\"\232\320\253\015\307\2164\342\260"
  84      836F229A 
  84      D0AB0DC7 
  84      8E34E2B0 
  85 0115 F09B92EE 		.ascii	"\360\233\222\356\\\222\207\022\230J\327V6\340\201+Q"
  85      5C928712 
  85      984AD756 
  85      36E0812B 
  85      51
  86 0126 B639043D 		.ascii	"\2669\004=\263A\305\006\275\3660\217\361}\347M\272\246"
  86      B341C506 
  86      BDF6308F 
  86      F17DE74D 
  86      BAA6
  87 0138 956AD3B1 		.ascii	"\225j\323\261\342\236Vt\347\212\307V\254)\322\273\316"
  87      E29E5674 
  87      E78AC756 
  87      AC29D2BB 
  87      CE
  88 0149 15EFB8F2 		.ascii	"\025\357\270\362\006\245\336\353\227O \000\347\360C"
  88      06A5DEEB 
  88      974F2000 
  88      E7F043
  89 0158 CB940DA4 		.ascii	"\313\224\015\244/a\016\035?9\347\027\013\177\277\347"
  89      2F610E1D 
  89      3F39E717 
  89      0B7FBFE7 
  90 0168 01DEA1D0 		.ascii	"\001\336\241\320\373\\\263JDh\3548{\231\371d\005\003"
  90      FB5CB34A 
  90      4468EC38 
  90      7B99F964 
  90      0503
  91 017a 01557C32 		.ascii	"\001U|2Y\3658\236VO2\247\271\254\272\247E\202[j8\274"
  91      59F5389E 
  91      564F32A7 
  91      B9ACBAA7 
  91      45825B6A 
  92 0190 AB6AA1C8 		.ascii	"\253j\241\310\331&\337\211es\261t\372(\220\200_\013"
  92      D926DF89 
  92      6573B174 
  92      FA289080 
  92      5F0B
  93 01a2 84F8F8   		.ascii	"\204\370\370"
  94              		.text
  95              		.section	.gnu.lto_.symbol_nodes.b9c7ec26a4cb49d2,"",%progbits
ARM GAS  /tmp/ccTk1ojM.s 			page 7


  96 0000 789C45CD 		.ascii	"x\234E\315\313\015@`\020E\34133\324\241\011\275Y\216"
  96      CB0D4060 
  96      1045E133 
  96      33D4A109 
  96      BD598E
  97 0013 4482A50A 		.ascii	"D\202\245\012l\324\240\002{5\210\347F\015BB\374ws\362"
  97      6CD4A002 
  97      7B3588E7 
  97      460D4242 
  97      FC7773F2 
  98 0027 ADAEA264 		.ascii	"\255\256\242d|\323\031\207f\004\367\266\026]p\011\224"
  98      7CD31987 
  98      6604F7B6 
  98      165D7009 
  98      94
  99 0038 0DD79779 		.ascii	"\015\327\227y.\262\343\026\264\342Q\320\201\307\277"
  99      2EB2E316 
  99      B4E251D0 
  99      81C7BF
 100 0047 8C8862BA 		.ascii	"\214\210b\272\236\032K\237\332\363\330\225gb\0223Tg"
 100      9E1A4B9F 
 100      DAF3D895 
 100      67621233 
 100      5467
 101 0059 C20DC2A6 		.ascii	"\302\015\302\246$8"
 101      2438
 102              		.text
 103              		.section	.gnu.lto_.refs.b9c7ec26a4cb49d2,"",%progbits
 104 0000 789C6362 		.ascii	"x\234cb`b`d\200\002\000\000F\000\006"
 104      60626064 
 104      80020000 
 104      460006
 105              		.text
 106              		.section	.gnu.lto_.decls.b9c7ec26a4cb49d2,"",%progbits
 107 0000 789CA598 		.ascii	"x\234\245\230\177P\024\347\031\307\337w\3578  Qb\255"
 107      7F5014E7 
 107      19C7DF77 
 107      EF382020 
 107      5162AD
 108 0013 6D2793F3 		.ascii	"m'\223\363\217d\232\264\341\004\246\2513\355\244\302"
 108      8F649AB4 
 108      E104A6A9 
 108      33EDA4C2 
 109 0023 01C28CA8 		.ascii	"\001\302\214\250\263\207\251\223v\272\335\034\247\334"
 109      B387A993 
 109      76BADD1C 
 109      A7DC
 110 0031 F4B8B377 		.ascii	"\364\270\263w\207\301\277\\\002\265*m\005\374E\320("
 110      87C1BF5C 
 110      02B52A6D 
 110      05FC45D0 
 110      28
 111 0042 309A624A 		.ascii	"0\232bJZJ\214Qj\344$?\320:)\032%4\241IOm\034'\223\266"
 111      5A4A8C51 
 111      6AE4243F 
 111      D03A291A 
 111      2534A149 
ARM GAS  /tmp/ccTk1ojM.s 			page 8


 112 005c 36D618A3 		.ascii	"6\326\030\243\346\372\274\357\356\335\275\273\354\236"
 112      E6FABCEF 
 112      EEDDBDBB 
 112      EC9E
 113 006a BBE90ECF 		.ascii	"\273\351\016\317\263\357\355\275\357\347\371\276\317"
 113      B3EFEDBD 
 113      EFE7F9BE 
 113      CF
 114 0077 FBEE7BEF 		.ascii	"\373\356{\357\013\2078\364c\214P\002\256\326\257#t\321"
 114      0B8738F4 
 114      638C5002 
 114      AED6AF23 
 114      74D1
 115 0089 8610FCA1 		.ascii	"\206\020\374\241\307\3018\260,\260>$_\016\260\001\260"
 115      C7C138B0 
 115      2CB03E24 
 115      5F0EB001 
 115      B0
 116 009a 41B03F80 		.ascii	"A\260?\200\035\006;\002v\024\315\274H\275{\301\206\301"
 116      1D063B02 
 116      7614CDBC 
 116      48BD7BC1 
 116      86C1
 117 00ac 0AC0F2C1 		.ascii	"\012\300\362\301\262\301\216+\314Q\260\023`c`\327\301"
 117      B2C18E2B 
 117      CC51B013 
 117      606360D7 
 117      C1
 118 00bd 3E05BB05 		.ascii	">\005\273\005v\020\3546\330\020\030\310B\023`\263\024"
 118      7610EC36 
 118      D81018C8 
 118      421360B3 
 118      14
 119 00ce 1E897507 		.ascii	"\036\211u\007\311_\330\300\034`yX\326Q\000\3679`s\301"
 119      C95FD8C0 
 119      1C607958 
 119      D65100F7 
 119      396073C1 
 120 00e2 BE8A657D 		.ascii	"\276\212e}\332kPae+\261\277\001\365\276\007\366}\260"
 120      DA6B5061 
 120      652BB1BF 
 120      01F5BE07 
 120      F67DB0
 121 00f5 6A9CD672 		.ascii	"j\234\326r\021\314\016V\203\345\276\217\200\335\003"
 121      11CC0E56 
 121      83E5BE8F 
 121      80DD03
 122 0104 56049F2B 		.ascii	"V\004\237+\300\246\241\374>\3309\260\013`o\201\235\002"
 122      C0A6A1FC 
 122      3ED839B0 
 122      0B606F81 
 122      9D02
 123 0116 3B0B36AE 		.ascii	";\0136\256\344m\320 /\271h\223$=#\365n\224\252OB^Va"
 123      E46DD020 
 123      2FB96893 
 123      243D23F5 
 123      6E94AA4F 
ARM GAS  /tmp/ccTk1ojM.s 			page 9


 124 012e 1117E422 		.ascii	"\021\027\344\"'-\344\347\322\260\017\242\375\222\324"
 124      272DE4E7 
 124      D2B00FA2 
 124      FD92D4
 125 013d 117FE362 		.ascii	"\021\177\343b\234\223\244\034\021\367\341\\@:1z\004"
 125      9C93A41C 
 125      11F7E15C 
 125      403A317A 
 125      04
 126 014e 1D94E01B 		.ascii	"\035\224\340\033I\352\237\367\177\221\317^8m\243\344"
 126      49EA9FF7 
 126      7F91CF5E 
 126      386DA3E4 
 127 015e 0394FC13 		.ascii	"\003\224\374\023\214D\274\037?\242pD\234\235\313r\351"
 127      8C44BC1F 
 127      3FA27044 
 127      9C9DCB72 
 127      E9
 128 016f E7640502 		.ascii	"\347d\005\002\243_+\0052m\356EV\253?\200\366J\275\361"
 128      A35F2B05 
 128      326DEE45 
 128      56AB3F80 
 128      F64ABDF1 
 129 0183 F84BE3FF 		.ascii	"\370K\343\377\276\357Y)\326&%\022\033\320<\264\003:"
 129      BEEF5929 
 129      D6262512 
 129      1BD03CB4 
 129      033A
 130 0195 47E44B38 		.ascii	"G\344K8*\342\307\277\242\333\003\302?\210\347)\245\225"
 130      2AE2C7BF 
 130      A2DB03C2 
 130      3F88E729 
 130      A595
 131 01a7 36392687 		.ascii	"69&\207\236\303\352N \364\020:@x\322\200d\2434R\177"
 131      9EC3EA4E 
 131      20F4103A 
 131      4078D280 
 131      64A33452 
 132 01bc 003FA096 		.ascii	"\000?\240\226\372\002\346\330\007\262\256\330+]\247"
 132      FA02E6D8 
 132      07B2AED8 
 132      2B5DA7
 133 01cb B1D425DD 		.ascii	"\261\324%\335N$lJ8\016=o*\300\2406\300\2133\003\304"
 133      4E246C4A 
 133      380E3D6F 
 133      2AC0A036 
 133      C08B3303 
 134 01e0 3BE293ED 		.ascii	";\342\223\3557\332pgk\357I\351*\311\207\371\256\017"
 134      37DA7067 
 134      6BEF49E9 
 134      2AC987F9 
 134      AE0F
 135 01f2 295DB7D1 		.ascii	")]\267\3219\206\362\320\226\364\220\0336TF\275s\342"
 135      3986F2D0 
 135      96F4901B 
 135      365446BD 
 135      73E2
ARM GAS  /tmp/ccTk1ojM.s 			page 10


 136 0204 F27F700B 		.ascii	"\362\177p\013\204\020\3610\316\003\300\026N;\360?\310"
 136      8410F130 
 136      CE03C016 
 136      4E3BF03F 
 136      C8
 137 0215 53AB87CF 		.ascii	"S\253\207\317L\205t\276i\312\267q\332\214\310\225^\326"
 137      4C8574BE 
 137      69CAB771 
 137      DA8CC895 
 137      5ED6
 138 0227 EDF273DB 		.ascii	"\355\362s\333\376\373\355\356a\251m\263\364Eb\003Nf"
 138      FEFBEDEE 
 138      61A96DB3 
 138      F4456203 
 138      4E66
 139 0239 F57503C6 		.ascii	"\365u\003\306+j\306\017\261m\213=I\372`\347\004~V\032"
 139      2B6AC60F 
 139      B16D8B3D 
 139      49FA60E7 
 139      047E561A 
 140 024d B33A6B46 		.ascii	"\263:kF\324\251\223_+\325\207\231]l\265\351\313{U-O"
 140      D4A9935F 
 140      2BD58799 
 140      5D6CB5E9 
 140      CB7B552D 
 141 0262 350C1A45 		.ascii	"5\014\032E\220B#E\243ZEY\271j\001F\015\217\343\3248"
 141      90422345 
 141      A35A4559 
 141      B96A0146 
 141      0D8FE3D4 
 142 0277 D197BE35 		.ascii	"\321\227\2765\343K/\342~\374\240\251\327\262\020u\022"
 142      E34B2FE2 
 142      7EFCA0A9 
 142      D7B21075 
 142      12
 143 0288 E94E8624 		.ascii	"\351N\206$9\222\250\237\242\324Lz\267\347\306ct\375"
 143      3992A89F 
 143      A2D44C7A 
 143      B7E7C663 
 143      74FD
 144 029a 18C385A0 		.ascii	"\030\303\205\240}\\\223\245\273b\210\2467\240\251\334"
 144      7D5C93A5 
 144      BB6288A6 
 144      37A0A9DC 
 145 02aa 8842A5D8 		.ascii	"\210B\245\330\266\351|\311.?G:IW\256\005\250Wjk\215"
 145      B6E97CC9 
 145      2E3F473A 
 145      4957AE05 
 145      A8576A6B 
 146 02bf ED98DEF3 		.ascii	"\355\230\336\3635\251w\014\220'\350\022v\216J m\365"
 146      35A9770C 
 146      9027E812 
 146      768E4A20 
 146      6DF5
 147 02d1 32A01455 		.ascii	"2\240\024UIU\363vN\347w\210I\330\224e\230S\005\353f"
 147      4955F376 
 147      4EE77788 
ARM GAS  /tmp/ccTk1ojM.s 			page 11


 147      49D89465 
 147      985305EB 
 148 02e6 61D36660 		.ascii	"a\323f`9\306\312zXX\3342L\255l\017\013\373\320\014l"
 148      39C6CA7A 
 148      5858DC32 
 148      4CAD6C0F 
 148      0BFBD00C 
 149 02fb B6B1B2BD 		.ascii	"\266\261\262\275,\354\212e\230Z\331\020\013\373\330"
 149      2CEC8A65 
 149      985AD910 
 149      0BFBD8
 150 030a 0C6CBEB1 		.ascii	"\014l\276\261\262a\026\366\211e\230Z\331!\026\366\231"
 150      B26116F6 
 150      8965985A 
 150      D92116F6 
 150      99
 151 031b 1998D358 		.ascii	"\031\230\323X\331a\026v\3072L\255\354\010\013k\261\233"
 151      D9611676 
 151      C7324CAD 
 151      EC080B6B 
 151      B19B
 152 032d 807DD358 		.ascii	"\200}\323X\331\010\013\373\205e\230Z\3311\026\266\331"
 152      D9080BFB 
 152      8565985A 
 152      D93116B6 
 152      D9
 153 033e 0C6CA191 		.ascii	"\014l\241\221\262\226\330\361\037u\210sP\207\262\244"
 153      B296D8F1 
 153      1F758873 
 153      5087B2A4 
 154 034e C8D4E4B2 		.ascii	"\310\324\344\262\202\325S\213\255\326g\\M\304\227\360"
 154      82D5538B 
 154      ADD6675C 
 154      4DC497F0 
 155 035e 1C5AA2CB 		.ascii	"\034Z\242\313\247\224\372\001\315\317\325\325HZ\374"
 155      A794FA01 
 155      CDCFD5D5 
 155      485AFC
 156 036d 43FE8148 		.ascii	"C\376\201H\277\376J!\275Z\263\265\240\333\277\326v["
 156      BFFE4A21 
 156      BD5AB3B5 
 156      A0DBBFD6 
 156      765B
 157 037f AD42AFDF 		.ascii	"\255B\257\337\352$\236a\223\330i&\211\213\215ao\263"
 157      EA249E61 
 157      93D86926 
 157      898B8D61 
 157      6FB3
 158 0391 B09D6660 		.ascii	"\260\235f`\325\306s\345<\013\353\261\014S+{\207\205"
 158      D5C673E5 
 158      3C0BEBB1 
 158      0C532B7B 
 158      8785
 159 03a3 ED33035B 		.ascii	"\3553\003[a\254\354\257,\254\3372\214U\326\022{/=\361"
 159      61ACECAF 
 159      2CACDF32 
 159      8C55D612 
ARM GAS  /tmp/ccTk1ojM.s 			page 12


 159      7B2F3DF1 
 160 03b7 7A176B66 		.ascii	"z\027kf\336b\365j\253\252\326gXM\304\237X\236x\327\014"
 160      DE62F56A 
 160      ABAAD667 
 160      584DC49F 
 160      589E78D7 
 161 03cc 261E564D 		.ascii	"&\036VM\274k\351\2117\240\355\266J\204R\\\245\223C\275"
 161      BC6BE989 
 161      37A0EDB6 
 161      4A84525C 
 161      A59343BD 
 162 03e0 8BFDA116 		.ascii	"\213\375\241\026\361\233t#1\216\027\200?E\375i\352\337"
 162      F19B7423 
 162      318E1780 
 162      3F45FD69 
 162      EADF
 163 03f2 A27E82FA 		.ascii	"\242~\202\372\263\324\237\243~\222\372)\352\337\245"
 163      B3D49FA3 
 163      7E92FA29 
 163      EADFA5
 164 0401 7E9AFAF7 		.ascii	"~\232\372\367\251\377;\365\027\250\277L\375\025\352"
 164      A9FF3BF5 
 164      17A8BF4C 
 164      FD15EA
 165 0410 3FA2FE63 		.ascii	"?\242\376c\352\377E\375U\360\251K\263\351\0353\030_"
 165      EAFF45FD 
 165      55F0A94B 
 165      B3E91D33 
 165      185F
 166 0422 A2FD7A7A 		.ascii	"\242\375zz\243\224\\\032\272\013\224sR\374\2004\177"
 166      A3945C1A 
 166      BA0B9473 
 166      52FC8034 
 166      7F
 167 0433 7E2A0539 		.ascii	"~*\0059lZ\345\035\011\324\347D|\203N\245\027\355X\233"
 167      6C5AE51D 
 167      09D4E744 
 167      7C834EA5 
 167      17ED589B 
 168 0447 99647E6E 		.ascii	"\231d~n0\343#\227\223\245\004N\341\027%\361\331J\253"
 168      30E32397 
 168      93A5044E 
 168      E11725F1 
 168      D94AAB
 169 045a 4F2DCF83 		.ascii	"O-\317\203\317\015\346\201C?-d\177m\204\272\205U\373"
 169      CF0DE681 
 169      433F2D64 
 169      7F6D84BA 
 169      8555FB
 170 046d 7A4DCBA1 		.ascii	"zM\313\241\014-o\247\023Jv\343\261\253\361\311K\361"
 170      0C2D6FA7 
 170      134A76E3 
 170      B1ABF1C9 
 170      4BF1
 171 047f CDF8C481 		.ascii	"\315\370\304\201\215RGK<\261a_lvrk\177\316n\346\300"
 171      8D52474B 
 171      3CB1615F 
ARM GAS  /tmp/ccTk1ojM.s 			page 13


 171      6C76726B 
 171      7FCE6EE6 
 172 0494 74477B60 		.ascii	"tG{`\372b\346\351\001\242\234o\037w$O\212\013\222\021"
 172      FA62E6E9 
 172      01A29C6F 
 172      1F77244F 
 172      8A0B9211 
 173 04a8 2E9B8A20 		.ascii	".\233\212 q\232\010-\234N\204\330;S\371\244\007\011"
 173      719A082D 
 173      9C4E84D8 
 173      3B53F9A4 
 173      0709
 174 04ba A607374D 		.ascii	"\246\0077M\361[\265\3746=~|\327GW\346\337\034\226$z"
 174      F15BB5FC 
 174      363D7E7C 
 174      D74757E6 
 174      DF1C9624 
 175 04cf FE69694B 		.ascii	"\376iiKu\342\345,6\010=\012p\350\265,\234)\344Fm\310"
 175      75E2E52C 
 175      36083D0A 
 175      70E8B52C 
 175      9C29E446 
 176 04e5 5FEA869C 		.ascii	"_\352\206\234\274t\246Gwh\316f\231\351X\2736\312\257"
 176      BC74A647 
 176      7768CE66 
 176      99E958BB 
 176      36CAAF
 177 04f8 7413F7C1 		.ascii	"t\023\367\301\305\223\312a\271u\023\227:.\177h*\304"
 177      C593CA61 
 177      B9751397 
 177      3A2E7F68 
 177      2AC4
 178 050a 6FB421B6 		.ascii	"o\264!\266\352v\344|\373\371\231\243\377\271\251\010"
 178      EA76E47C 
 178      FBF999A3 
 178      FFB9A908 
 179 051a 9DDA085D 		.ascii	"\235\332\010]\272\235\370l\346\350ou\230\341o\327\362"
 179      BA9DF86C 
 179      E6E86F75 
 179      98E16FD7 
 179      F2
 180 052b 77188CFE 		.ascii	"w\030\214\376\231]xW\253$\037\370{7q\311(\273\0353\206"
 180      995D7857 
 180      AB241FF8 
 180      7B3771C9 
 180      28BB1D33 
 181 0540 5FC49BD3 		.ascii	"_\304\233\323\014\275\230\273\2641\273\3251u\316_1["
 181      0CBD98BB 
 181      B431BBD5 
 181      3175CE5F 
 181      315B
 182 0552 F24D5E84 		.ascii	"\362M^\204R\307\270?^\273\342o\245\377\017\330\315\221"
 182      52C7B83F 
 182      5EBBE26F 
 182      A5FF0FD8 
 182      CD91
 183 0564 73DC054D 		.ascii	"s\334\005M\217\357\312!\261\367r\232s\334\255)z\216"
ARM GAS  /tmp/ccTk1ojM.s 			page 14


 183      8FEFCA21 
 183      B1F7729A 
 183      73DCAD29 
 183      7A8E
 184 0576 23CFEF7E 		.ascii	"#\317\357~\216KLmW\235\343\376I%\220\266_\356\034\327"
 184      8E4B4C6D 
 184      579DE3FE 
 184      492590B6 
 184      5FEE1CD7 
 185 058a F11EF3FB 		.ascii	"\361\036\363\373\177\3252\314\251\202u\261\260\353f"
 185      7FD532CC 
 185      A98275B1 
 185      B0EB66
 186 0599 6019CE71 		.ascii	"`\031\316q\333Y\330M\3130\265\262\235,\354\231l\023"
 186      DB59D84D 
 186      CB30B5B2 
 186      9D2CEC99 
 186      6C13
 187 05ab B00CE7B8 		.ascii	"\260\014\347\270n\026\326n\031\246V\326\303\302\272"
 187      6E16D66E 
 187      19A656D6 
 187      C3C2BA
 188 05ba CCC0329C 		.ascii	"\314\3002\234\343\366\260\260\036\3130\265\262\275,"
 188      E3F6B0B0 
 188      1ECB30B5 
 188      B2BD2C
 189 05c9 ACDF0CCC 		.ascii	"\254\337\014\314i\254l\210\205\375\3262L\255l\230\205"
 189      69AC6C88 
 189      85FDD632 
 189      4CAD6C98 
 189      85
 190 05da FDCE0C2C 		.ascii	"\375\316\014,\3039\356\020\013{\3112L\255\3540\013;"
 190      C339EE10 
 190      0B7BC932 
 190      4CADEC30 
 190      0B3B
 191 05ec 6A066678 		.ascii	"j\006fx\216\203\343j\032&\342?c\316\"\314\211\014/v"
 191      8E83E36A 
 191      1A26E23F 
 191      63CE22CC 
 191      890C2F76 
 192 0600 1512F13E 		.ascii	"\025\022\361>\216lR{9\262q\354\247~?\365\317S?@\375"
 192      8E6C527B 
 192      39B271EC 
 192      A77E3FF5 
 192      CF533F40 
 193 0615 0BD40F52 		.ascii	"\013\324\017R\377{\352\207\250\037\246\376\020\365\207"
 193      FF7BEA87 
 193      A81FA6FE 
 193      10F587
 194 0624 A93F42FD 		.ascii	"\251?B\375\010g\274\001\335m\320\011\242\353O\\j\277"
 194      0867BC01 
 194      DD6DD009 
 194      A2EB4F5C 
 194      6ABF
 195 0636 A4F75F31 		.ascii	"\244\367_1\325\211P^\225c\223[\261S\304\307\350\212"
 195      D589505E 
ARM GAS  /tmp/ccTk1ojM.s 			page 15


 195      9563935B 
 195      B153C4C7 
 195      E88A
 196 0648 3C9A7DF7 		.ascii	"<\232}\367\377\254\3158\333\216jW\344\243\023tE\036"
 196      FFACCD38 
 196      DB8E6A57 
 196      E4A31374 
 196      451E
 197 065a 35B522BF 		.ascii	"5\265\"\277:\241^\221\377B%\214~\351\025\371\370\004"
 197      3AA15E91 
 197      FF42258C 
 197      7EE915F9 
 197      F804
 198 066c 33EA7D1C 		.ascii	"3\352}\034g\021\246\236\217g&\230\3718iFY\206\025\371"
 198      6711A69E 
 198      8F672698 
 198      F9386946 
 198      598615F9 
 199 0680 6D16F637 		.ascii	"m\026\3667\313\260\214\363q\224\231\2171:\037O\320y"
 199      CBB08CF3 
 199      7194998F 
 199      313A1F4F 
 199      D079
 200 0692 F41AF5AF 		.ascii	"\364\032\365\257S\377f\2069u,\303\234:\231\236S\232"
 200      53FF6686 
 200      39752CC3 
 200      9C3A999E 
 200      539A
 201 06a4 56231976 		.ascii	"V#\031v\356\247\322\255\320\375\256\246H\330\345\017"
 201      EEA7D2AD 
 201      D0FDAEA6 
 201      48D8E50F 
 202 06b4 7A034DF5 		.ascii	"z\003M\365>W\320\367t\300\377\224+\022\255\367\007\243"
 202      3E57D0F7 
 202      74C0FF94 
 202      2B12ADF7 
 202      07A3
 203 06c6 450D28A7 		.ascii	"E\015(\247\011\356\245%B\324\261d\331J\247\033=\252"
 203      09EEA525 
 203      42D4B164 
 203      D94AA71B 
 203      3DAA
 204 06d8 57BB51F4 		.ascii	"W\273Q\3646\370\203>\227P\357[-6\005\242Bt\375Z_\004"
 204      36F8833E 
 204      9750EF5B 
 204      2D3605A2 
 204      4274FD5A 
 205 06ee 5ADF2308 		.ascii	"Z\337#\010\311\366\245EE.\371/\024q5\210\001\327\332"
 205      C9F6A545 
 205      452EF92F 
 205      14713588 
 205      01D7DA
 206 0701 50381A71 		.ascii	"P8\032qy\352jKK\\K\227V\270\352jj\327\025\223o\204H"
 206      79EA6A4B 
 206      4B5C4B97 
 206      56B8EA6A 
 206      6AD71593 
ARM GAS  /tmp/ccTk1ojM.s 			page 16


 207 0718 540804EA 		.ascii	"T\010\004\352\213\274(\347\011\2377\032\012\177\327"
 207      8BBC28E7 
 207      099F371A 
 207      0A7FD7
 208 0727 9D273F12 		.ascii	"\235'?\022\374A\177\364Q\026\344\01556\206\202\012\253"
 208      FC417FF4 
 208      5116E40D 
 208      35368682 
 208      0AAB
 209 0739 8CAF75D7 		.ascii	"\214\257u\3276\273\274\015\336P\330'\254{\254\021\024"
 209      36BBBC0D 
 209      DE50D827 
 209      AC7BAC11 
 209      14
 210 074a 3C6CAE36 		.ascii	"<l\2566\351i\330\267F\0147\012\321B\201T\020\374\341"
 210      E969D8B7 
 210      460C370A 
 210      D1428154 
 210      10FCE1
 211 075d 9F0BBEB5 		.ascii	"\237\013\276\265\376@hM\223\357~\226\022\364\007R\011"
 211      FE40684D 
 211      93EF7E96 
 211      12F40752 
 211      09
 212 076e F03640CB 		.ascii	"\3606@\313Bo\203g}\244\316\337\350\013W\213\301\372"
 212      426F8367 
 212      7DA4CEDF 
 212      E80B578B 
 212      C1FA
 213 0780 802F5CF3 		.ascii	"\200/\\\363-\375\336*\002\224\320\301u~/4\237M\356\225"
 213      2DFDDE2A 
 213      0294D0C1 
 213      757E2F34 
 213      9F4DEE95 
 214 0794 41F1A980 		.ascii	"A\361\251\200O\356o\211\271TE\242\215$\261~\322\315"
 214      4FEE6F89 
 214      B95445A2 
 214      8D24B17E 
 214      D2CD
 215 07a6 BCD40721 		.ascii	"\274\324\007!js\363\305`%vO\255\233\267W\324T\362\234"
 215      6A73F3C5 
 215      6025764F 
 215      AD9BB757 
 215      D454F29C 
 216 07ba 87B7552E 		.ascii	"\207\267U.\341\263\334\356Z\276\230\372\022\273\333"
 216      E1B3DCEE 
 216      5ABE98FA 
 216      12BBDB
 217 07c9 5DC9DBDC 		.ascii	"]\311\333\334\313\352l"
 217      CBEA6C
 218 07d0 2B3C6E5B 		.ascii	"+<n[\031\317\333x7|\206\006\345\025u\274\255\202\264"
 218      19CFDB78 
 218      377C8606 
 218      E51575BC 
 218      AD82B4
 219 07e3 AC2DE3B9 		.ascii	"\254-\343\271\345r\253R\250\277\212\267{\033\304\260"
 219      E572AB52 
ARM GAS  /tmp/ccTk1ojM.s 			page 17


 219      A8BF8AB7 
 219      7B1BC4B0 
 220 07f3 53AB2E14 		.ascii	"S\253.\024\001G\222B\012$\035\344\016\011Y\032\362\376"
 220      01479242 
 220      0A241DE4 
 220      0E09591A 
 220      F2FE
 221 0805 AC2A1C6A 		.ascii	"\254*\034j\254\361\360\2054\243\001x \254\206'\202?"
 221      ACF1F085 
 221      34A30178 
 221      20AC8627 
 221      823F
 222 0817 12CE4D3D 		.ascii	"\022\316M=*\326\031\"_s\324\345\256\365\324x\322\231"
 222      2AD61922 
 222      5F73D4E5 
 222      AEF5D478 
 222      D299
 223 0829 6E8CF823 		.ascii	"n\214\370#\302\032/\311\330,A\250\367GH\302\310(\315"
 223      C21A2FC9 
 223      D82C41A8 
 223      F74748C2 
 223      C828CD
 224 083c 12034F8B 		.ascii	"\022\003O\213\353#09\0020\011\357#\321\227\253Gc\256"
 224      EB233039 
 224      023009EF 
 224      23D197AB 
 224      4763AE
 225 084f A2686530 		.ascii	"\242he0\220\3264\227\012h\012\252T\3451\017\363\005"
 225      90D63497 
 225      0A680AAA 
 225      54E5310F 
 225      F305
 226 0861 C1174C06 		.ascii	"\301\027L\006Y\224Q\244\247N\036\235\252\205\315\315"
 226      599451A4 
 226      A74E1E9D 
 226      AA85CDCD 
 227 0871 F2B8AC5E 		.ascii	"\362\270\254^\370\235\342\346Eddx\267[\250\203\367\241"
 227      F89DE2E6 
 227      45646478 
 227      B75BA883 
 227      F7A1
 228 0883 C2B79A83 		.ascii	"\302\267\232\203\254\272\253\226@\236k\370\234\262\025"
 228      ACBAAB96 
 228      409E6BF8 
 228      9CB215
 229 0892 E525BCA7 		.ascii	"\345%\274\247\216\026\212I\301QV]^\271\214\317&_(\367"
 229      8E168A49 
 229      C151565D 
 229      5EB98CCF 
 229      265F28F7 
 230 08a6 62B8C380 		.ascii	"b\270\303\200\220\221\361\300\203\352rR/\213 J\250/"
 230      9091F1C0 
 230      83EA7252 
 230      2F8B204A 
 230      A82F
 231 08b8 2DA8285F 		.ascii	"-\250(_R\353^\231\014\340\250\251p/\257\250t\220\246"
 231      52EB5E99 
ARM GAS  /tmp/ccTk1ojM.s 			page 18


 231      0CE0A8A9 
 231      702FAFA8 
 231      7490A6
 232 08cb 554F925B 		.ascii	"UO\222[I\325\223\377\003*\351\030\351"
 232      49D593FF 
 232      032AE918 
 232      E9
 233              		.text
 234              		.section	.gnu.lto_.symtab.b9c7ec26a4cb49d2,"",%progbits
 235 0000 56656374 		.ascii	"Vector7C\000\000\000\000\000\000\000\000\000\000\000"
 235      6F723743 
 235      00000000 
 235      00000000 
 235      000000
 236 0013 00A80000 		.ascii	"\000\250\000\000\000st_lld_init\000\000\000\000\000"
 236      0073745F 
 236      6C6C645F 
 236      696E6974 
 236      00000000 
 237 0028 00000000 		.ascii	"\000\000\000\000\000\000\000\254\000\000\000_port_i"
 237      000000AC 
 237      0000005F 
 237      706F7274 
 237      5F69
 238 003a 72715F65 		.ascii	"rq_epilogue\000\000\002\000\000\000\000\000\000\000"
 238      70696C6F 
 238      67756500 
 238      00020000 
 238      00000000 
 239 004f 0000AF00 		.ascii	"\000\000\257\000\000\000chSysTimerHandlerI\000\000\002"
 239      00006368 
 239      53797354 
 239      696D6572 
 239      48616E64 
 240 006a 00000000 		.ascii	"\000\000\000\000\000\000\000\000\000\266\000\000\000"
 240      00000000 
 240      00B60000 
 240      00
 241 0077 6E766963 		.ascii	"nvicEnableVector\000\000\002\000\000\000\000\000\000"
 241      456E6162 
 241      6C655665 
 241      63746F72 
 241      00000200 
 242 0090 000000B9 		.ascii	"\000\000\000\271\000\000\000"
 242      000000
 243              		.text
 244              		.section	.gnu.lto_.opts,"",%progbits
 245 0000 272D6D63 		.ascii	"'-mcpu=cortex-m0' '-mno-thumb-interwork' '-mthumb' "
 245      70753D63 
 245      6F727465 
 245      782D6D30 
 245      2720272D 
 246 0033 272D6767 		.ascii	"'-ggdb' '-O2' '-fomit-frame-pointer' '-falign-funct"
 246      64622720 
 246      272D4F32 
 246      2720272D 
 246      666F6D69 
ARM GAS  /tmp/ccTk1ojM.s 			page 19


 247 0066 696F6E73 		.ascii	"ions=16' '-ffunction-sections' '-fdata-sections' '-"
 247      3D313627 
 247      20272D66 
 247      66756E63 
 247      74696F6E 
 248 0099 666E6F2D 		.ascii	"fno-common' '-flto'\000"
 248      636F6D6D 
 248      6F6E2720 
 248      272D666C 
 248      746F2700 
 249              		.text
 250              		.cfi_sections	.debug_frame
 251              		.section	.text.Vector7C,"ax",%progbits
 252              		.align	2
 253              		.p2align 4,,15
 254              		.global	Vector7C
 255              		.code	16
 256              		.thumb_func
 257              		.type	Vector7C, %function
 258              	Vector7C:
 259              	.LFB98:
 260              		.file 1 "../../../os/hal/ports/STM32/LLD/TIMv1/hal_st_lld.c"
 261              		.loc 1 239 0
 262              		.cfi_startproc
 263              		.loc 1 246 0
 264 0000 8023     		mov	r3, #128
 265 0002 DB05     		lsl	r3, r3, #23
 266 0004 1A69     		ldr	r2, [r3, #16]
 267              		.loc 1 239 0
 268 0006 10B5     		push	{r4, lr}
 269              		.cfi_def_cfa_offset 8
 270              		.cfi_offset 4, -8
 271              		.cfi_offset 14, -4
 272              		.loc 1 241 0
 273 0008 7446     		mov	r4, lr
 274              	.LVL0:
 275              		.loc 1 246 0
 276 000a 9107     		lsl	r1, r2, #30
 277 000c 05D5     		bpl	.L2
 278              		.loc 1 247 0
 279 000e 0022     		mov	r2, #0
 280 0010 1A61     		str	r2, [r3, #16]
 281              	.LBB38:
 282              	.LBB39:
 283              	.LBB40:
 284              	.LBB41:
 285              	.LBB42:
 286              		.file 2 "../../../os/common/ext/CMSIS/include/cmsis_gcc.h"
 287              		.loc 2 71 0
 288              	@ 71 "../../../os/common/ext/CMSIS/include/cmsis_gcc.h" 1
 289 0012 72B6     		cpsid i
 290              	@ 0 "" 2
 291              		.code	16
 292              	.LBE42:
 293              	.LBE41:
 294              	.LBE40:
 295              	.LBE39:
ARM GAS  /tmp/ccTk1ojM.s 			page 20


 296              	.LBE38:
 297              	.LBB43:
 298              	.LBB44:
 299              		.file 3 "../../../os/hal/osal/nil/osal.h"
 300              		.loc 3 596 0
 301 0014 FFF7FEFF 		bl	chSysTimerHandlerI
 302              	.LVL1:
 303              	.LBE44:
 304              	.LBE43:
 305              	.LBB45:
 306              	.LBB46:
 307              	.LBB47:
 308              	.LBB48:
 309              	.LBB49:
 310              		.loc 2 60 0
 311              	@ 60 "../../../os/common/ext/CMSIS/include/cmsis_gcc.h" 1
 312 0018 62B6     		cpsie i
 313              	@ 0 "" 2
 314              		.code	16
 315              	.L2:
 316              	.LBE49:
 317              	.LBE48:
 318              	.LBE47:
 319              	.LBE46:
 320              	.LBE45:
 321              		.loc 1 254 0
 322 001a 201C     		mov	r0, r4
 323 001c FFF7FEFF 		bl	_port_irq_epilogue
 324              	.LVL2:
 325              		.loc 1 255 0
 326              		@ sp needed
 327              	.LVL3:
 328 0020 10BD     		pop	{r4, pc}
 329              		.cfi_endproc
 330              	.LFE98:
 331              		.size	Vector7C, .-Vector7C
 332 0022 C046C046 		.section	.text.st_lld_init,"ax",%progbits
 332      C046C046 
 332      C046C046 
 332      C046
 333              		.align	2
 334              		.p2align 4,,15
 335              		.global	st_lld_init
 336              		.code	16
 337              		.thumb_func
 338              		.type	st_lld_init, %function
 339              	st_lld_init:
 340              	.LFB99:
 341              		.loc 1 267 0
 342              		.cfi_startproc
 343 0000 08B5     		push	{r3, lr}
 344              		.cfi_def_cfa_offset 8
 345              		.cfi_offset 3, -8
 346              		.cfi_offset 14, -4
 347              		.loc 1 273 0
 348 0002 0E4B     		ldr	r3, .L8
 349 0004 0122     		mov	r2, #1
ARM GAS  /tmp/ccTk1ojM.s 			page 21


 350 0006 D969     		ldr	r1, [r3, #28]
 351              		.loc 1 289 0
 352 0008 0F20     		mov	r0, #15
 353              		.loc 1 273 0
 354 000a 1143     		orr	r1, r2
 355 000c D961     		str	r1, [r3, #28]
 356              		.loc 1 276 0
 357 000e 0C4B     		ldr	r3, .L8+4
 358              		.loc 1 304 0
 359              		@ sp needed
 360              		.loc 1 276 0
 361 0010 9968     		ldr	r1, [r3, #8]
 362 0012 1143     		orr	r1, r2
 363 0014 9960     		str	r1, [r3, #8]
 364              		.loc 1 279 0
 365 0016 0B49     		ldr	r1, .L8+8
 366 0018 8023     		mov	r3, #128
 367 001a DB05     		lsl	r3, r3, #23
 368 001c 9962     		str	r1, [r3, #40]
 369              		.loc 1 280 0
 370 001e 0121     		mov	r1, #1
 371 0020 4942     		neg	r1, r1
 372 0022 D962     		str	r1, [r3, #44]
 373              		.loc 1 281 0
 374 0024 0021     		mov	r1, #0
 375 0026 9961     		str	r1, [r3, #24]
 376              		.loc 1 282 0
 377 0028 5963     		str	r1, [r3, #52]
 378              		.loc 1 283 0
 379 002a D960     		str	r1, [r3, #12]
 380              		.loc 1 284 0
 381 002c 5960     		str	r1, [r3, #4]
 382              		.loc 1 285 0
 383 002e 5A61     		str	r2, [r3, #20]
 384              		.loc 1 289 0
 385 0030 0221     		mov	r1, #2
 386              		.loc 1 286 0
 387 0032 1A60     		str	r2, [r3]
 388              		.loc 1 289 0
 389 0034 FFF7FEFF 		bl	nvicEnableVector
 390              	.LVL4:
 391              		.loc 1 304 0
 392 0038 08BD     		pop	{r3, pc}
 393              	.L9:
 394 003a C046     		.align	2
 395              	.L8:
 396 003c 00100240 		.word	1073876992
 397 0040 00580140 		.word	1073829888
 398 0044 7FBB0000 		.word	47999
 399              		.cfi_endproc
 400              	.LFE99:
 401              		.size	st_lld_init, .-st_lld_init
 402 0048 C046C046 		.text
 402      C046C046 
 403              	.Letext0:
 404              		.file 4 "/usr/include/newlib/machine/_default_types.h"
 405              		.file 5 "/usr/include/newlib/stdint.h"
ARM GAS  /tmp/ccTk1ojM.s 			page 22


 406              		.file 6 "../../../os/common/ext/CMSIS/ST/STM32F0xx/stm32f051x8.h"
 407              		.file 7 "../../../os/common/ports/ARMCMx/chcore.h"
 408              		.file 8 "../../../os/hal/ports/STM32/LLD/TIMv1/stm32_tim.h"
 409              		.file 9 "../../../os/common/ports/ARMCMx/chcore_v6m.h"
 410              		.file 10 "../../../os/nil/include/ch.h"
 411              		.file 11 "../../../os/hal/ports/common/ARMCMx/nvic.h"
 412              		.section	.debug_info,"",%progbits
 413              	.Ldebug_info0:
 414 0000 79040000 		.4byte	0x479
 415 0004 0400     		.2byte	0x4
 416 0006 00000000 		.4byte	.Ldebug_abbrev0
 417 000a 04       		.byte	0x4
 418 000b 01       		.uleb128 0x1
 419 000c 18000000 		.4byte	.LASF51
 420 0010 01       		.byte	0x1
 421 0011 08010000 		.4byte	.LASF52
 422 0015 1F030000 		.4byte	.LASF53
 423 0019 00000000 		.4byte	.Ldebug_ranges0+0
 424 001d 00000000 		.4byte	0
 425 0021 00000000 		.4byte	.Ldebug_line0
 426 0025 02       		.uleb128 0x2
 427 0026 04       		.byte	0x4
 428 0027 05       		.byte	0x5
 429 0028 696E7400 		.ascii	"int\000"
 430 002c 03       		.uleb128 0x3
 431 002d 04       		.byte	0x4
 432 002e 07       		.byte	0x7
 433 002f 4A020000 		.4byte	.LASF0
 434 0033 03       		.uleb128 0x3
 435 0034 01       		.byte	0x1
 436 0035 06       		.byte	0x6
 437 0036 1E020000 		.4byte	.LASF1
 438 003a 03       		.uleb128 0x3
 439 003b 01       		.byte	0x1
 440 003c 08       		.byte	0x8
 441 003d F7010000 		.4byte	.LASF2
 442 0041 03       		.uleb128 0x3
 443 0042 02       		.byte	0x2
 444 0043 05       		.byte	0x5
 445 0044 3B010000 		.4byte	.LASF3
 446 0048 03       		.uleb128 0x3
 447 0049 02       		.byte	0x2
 448 004a 07       		.byte	0x7
 449 004b 68020000 		.4byte	.LASF4
 450 004f 03       		.uleb128 0x3
 451 0050 04       		.byte	0x4
 452 0051 05       		.byte	0x5
 453 0052 7D010000 		.4byte	.LASF5
 454 0056 04       		.uleb128 0x4
 455 0057 FD000000 		.4byte	.LASF9
 456 005b 04       		.byte	0x4
 457 005c 38       		.byte	0x38
 458 005d 61000000 		.4byte	0x61
 459 0061 03       		.uleb128 0x3
 460 0062 04       		.byte	0x4
 461 0063 07       		.byte	0x7
 462 0064 C0020000 		.4byte	.LASF6
ARM GAS  /tmp/ccTk1ojM.s 			page 23


 463 0068 03       		.uleb128 0x3
 464 0069 08       		.byte	0x8
 465 006a 05       		.byte	0x5
 466 006b 6A010000 		.4byte	.LASF7
 467 006f 03       		.uleb128 0x3
 468 0070 08       		.byte	0x8
 469 0071 07       		.byte	0x7
 470 0072 2A020000 		.4byte	.LASF8
 471 0076 04       		.uleb128 0x4
 472 0077 41020000 		.4byte	.LASF10
 473 007b 05       		.byte	0x5
 474 007c 42       		.byte	0x42
 475 007d 56000000 		.4byte	0x56
 476 0081 03       		.uleb128 0x3
 477 0082 04       		.byte	0x4
 478 0083 07       		.byte	0x7
 479 0084 16030000 		.4byte	.LASF11
 480 0088 05       		.uleb128 0x5
 481 0089 76000000 		.4byte	0x76
 482 008d 06       		.uleb128 0x6
 483 008e 76000000 		.4byte	0x76
 484 0092 9D000000 		.4byte	0x9d
 485 0096 07       		.uleb128 0x7
 486 0097 81000000 		.4byte	0x81
 487 009b 01       		.byte	0x1
 488 009c 00       		.byte	0
 489 009d 08       		.uleb128 0x8
 490 009e 10       		.byte	0x10
 491 009f 06       		.byte	0x6
 492 00a0 EC       		.byte	0xec
 493 00a1 D5000000 		.4byte	0xd5
 494 00a5 09       		.uleb128 0x9
 495 00a6 DB020000 		.4byte	.LASF12
 496 00aa 06       		.byte	0x6
 497 00ab EE       		.byte	0xee
 498 00ac 88000000 		.4byte	0x88
 499 00b0 00       		.byte	0
 500 00b1 0A       		.uleb128 0xa
 501 00b2 435200   		.ascii	"CR\000"
 502 00b5 06       		.byte	0x6
 503 00b6 EF       		.byte	0xef
 504 00b7 88000000 		.4byte	0x88
 505 00bb 04       		.byte	0x4
 506 00bc 09       		.uleb128 0x9
 507 00bd A2010000 		.4byte	.LASF13
 508 00c1 06       		.byte	0x6
 509 00c2 F0       		.byte	0xf0
 510 00c3 88000000 		.4byte	0x88
 511 00c7 08       		.byte	0x8
 512 00c8 09       		.uleb128 0x9
 513 00c9 53010000 		.4byte	.LASF14
 514 00cd 06       		.byte	0x6
 515 00ce F1       		.byte	0xf1
 516 00cf 88000000 		.4byte	0x88
 517 00d3 0C       		.byte	0xc
 518 00d4 00       		.byte	0
 519 00d5 04       		.uleb128 0x4
ARM GAS  /tmp/ccTk1ojM.s 			page 24


 520 00d6 9F020000 		.4byte	.LASF15
 521 00da 06       		.byte	0x6
 522 00db F2       		.byte	0xf2
 523 00dc 9D000000 		.4byte	0x9d
 524 00e0 06       		.uleb128 0x6
 525 00e1 76000000 		.4byte	0x76
 526 00e5 F0000000 		.4byte	0xf0
 527 00e9 07       		.uleb128 0x7
 528 00ea 81000000 		.4byte	0x81
 529 00ee 03       		.byte	0x3
 530 00ef 00       		.byte	0
 531 00f0 0B       		.uleb128 0xb
 532 00f1 38       		.byte	0x38
 533 00f2 06       		.byte	0x6
 534 00f3 7D01     		.2byte	0x17d
 535 00f5 AF010000 		.4byte	0x1af
 536 00f9 0C       		.uleb128 0xc
 537 00fa 435200   		.ascii	"CR\000"
 538 00fd 06       		.byte	0x6
 539 00fe 7F01     		.2byte	0x17f
 540 0100 88000000 		.4byte	0x88
 541 0104 00       		.byte	0
 542 0105 0D       		.uleb128 0xd
 543 0106 45010000 		.4byte	.LASF16
 544 010a 06       		.byte	0x6
 545 010b 8001     		.2byte	0x180
 546 010d 88000000 		.4byte	0x88
 547 0111 04       		.byte	0x4
 548 0112 0C       		.uleb128 0xc
 549 0113 43495200 		.ascii	"CIR\000"
 550 0117 06       		.byte	0x6
 551 0118 8101     		.2byte	0x181
 552 011a 88000000 		.4byte	0x88
 553 011e 08       		.byte	0x8
 554 011f 0D       		.uleb128 0xd
 555 0120 99010000 		.4byte	.LASF17
 556 0124 06       		.byte	0x6
 557 0125 8201     		.2byte	0x182
 558 0127 88000000 		.4byte	0x88
 559 012b 0C       		.byte	0xc
 560 012c 0D       		.uleb128 0xd
 561 012d CF000000 		.4byte	.LASF18
 562 0131 06       		.byte	0x6
 563 0132 8301     		.2byte	0x183
 564 0134 88000000 		.4byte	0x88
 565 0138 10       		.byte	0x10
 566 0139 0D       		.uleb128 0xd
 567 013a 92010000 		.4byte	.LASF19
 568 013e 06       		.byte	0x6
 569 013f 8401     		.2byte	0x184
 570 0141 88000000 		.4byte	0x88
 571 0145 14       		.byte	0x14
 572 0146 0D       		.uleb128 0xd
 573 0147 05020000 		.4byte	.LASF20
 574 014b 06       		.byte	0x6
 575 014c 8501     		.2byte	0x185
 576 014e 88000000 		.4byte	0x88
ARM GAS  /tmp/ccTk1ojM.s 			page 25


 577 0152 18       		.byte	0x18
 578 0153 0D       		.uleb128 0xd
 579 0154 5A010000 		.4byte	.LASF21
 580 0158 06       		.byte	0x6
 581 0159 8601     		.2byte	0x186
 582 015b 88000000 		.4byte	0x88
 583 015f 1C       		.byte	0x1c
 584 0160 0D       		.uleb128 0xd
 585 0161 EE000000 		.4byte	.LASF22
 586 0165 06       		.byte	0x6
 587 0166 8701     		.2byte	0x187
 588 0168 88000000 		.4byte	0x88
 589 016c 20       		.byte	0x20
 590 016d 0C       		.uleb128 0xc
 591 016e 43535200 		.ascii	"CSR\000"
 592 0172 06       		.byte	0x6
 593 0173 8801     		.2byte	0x188
 594 0175 88000000 		.4byte	0x88
 595 0179 24       		.byte	0x24
 596 017a 0D       		.uleb128 0xd
 597 017b 62010000 		.4byte	.LASF23
 598 017f 06       		.byte	0x6
 599 0180 8901     		.2byte	0x189
 600 0182 88000000 		.4byte	0x88
 601 0186 28       		.byte	0x28
 602 0187 0D       		.uleb128 0xd
 603 0188 57020000 		.4byte	.LASF24
 604 018c 06       		.byte	0x6
 605 018d 8A01     		.2byte	0x18a
 606 018f 88000000 		.4byte	0x88
 607 0193 2C       		.byte	0x2c
 608 0194 0D       		.uleb128 0xd
 609 0195 5D020000 		.4byte	.LASF25
 610 0199 06       		.byte	0x6
 611 019a 8B01     		.2byte	0x18b
 612 019c 88000000 		.4byte	0x88
 613 01a0 30       		.byte	0x30
 614 01a1 0C       		.uleb128 0xc
 615 01a2 43523200 		.ascii	"CR2\000"
 616 01a6 06       		.byte	0x6
 617 01a7 8C01     		.2byte	0x18c
 618 01a9 88000000 		.4byte	0x88
 619 01ad 34       		.byte	0x34
 620 01ae 00       		.byte	0
 621 01af 0E       		.uleb128 0xe
 622 01b0 86010000 		.4byte	.LASF26
 623 01b4 06       		.byte	0x6
 624 01b5 8D01     		.2byte	0x18d
 625 01b7 F0000000 		.4byte	0xf0
 626 01bb 04       		.uleb128 0x4
 627 01bc 4A010000 		.4byte	.LASF27
 628 01c0 07       		.byte	0x7
 629 01c1 65       		.byte	0x65
 630 01c2 C6010000 		.4byte	0x1c6
 631 01c6 0F       		.uleb128 0xf
 632 01c7 04       		.byte	0x4
 633 01c8 0B       		.uleb128 0xb
ARM GAS  /tmp/ccTk1ojM.s 			page 26


 634 01c9 60       		.byte	0x60
 635 01ca 08       		.byte	0x8
 636 01cb A101     		.2byte	0x1a1
 637 01cd D4020000 		.4byte	0x2d4
 638 01d1 0C       		.uleb128 0xc
 639 01d2 43523100 		.ascii	"CR1\000"
 640 01d6 08       		.byte	0x8
 641 01d7 A201     		.2byte	0x1a2
 642 01d9 88000000 		.4byte	0x88
 643 01dd 00       		.byte	0
 644 01de 0C       		.uleb128 0xc
 645 01df 43523200 		.ascii	"CR2\000"
 646 01e3 08       		.byte	0x8
 647 01e4 A301     		.2byte	0x1a3
 648 01e6 88000000 		.4byte	0x88
 649 01ea 04       		.byte	0x4
 650 01eb 0D       		.uleb128 0xd
 651 01ec DF010000 		.4byte	.LASF28
 652 01f0 08       		.byte	0x8
 653 01f1 A401     		.2byte	0x1a4
 654 01f3 88000000 		.4byte	0x88
 655 01f7 08       		.byte	0x8
 656 01f8 0D       		.uleb128 0xd
 657 01f9 63020000 		.4byte	.LASF29
 658 01fd 08       		.byte	0x8
 659 01fe A501     		.2byte	0x1a5
 660 0200 88000000 		.4byte	0x88
 661 0204 0C       		.byte	0xc
 662 0205 0C       		.uleb128 0xc
 663 0206 535200   		.ascii	"SR\000"
 664 0209 08       		.byte	0x8
 665 020a A601     		.2byte	0x1a6
 666 020c 88000000 		.4byte	0x88
 667 0210 10       		.byte	0x10
 668 0211 0C       		.uleb128 0xc
 669 0212 45475200 		.ascii	"EGR\000"
 670 0216 08       		.byte	0x8
 671 0217 A701     		.2byte	0x1a7
 672 0219 88000000 		.4byte	0x88
 673 021d 14       		.byte	0x14
 674 021e 0D       		.uleb128 0xd
 675 021f DD000000 		.4byte	.LASF30
 676 0223 08       		.byte	0x8
 677 0224 A801     		.2byte	0x1a8
 678 0226 88000000 		.4byte	0x88
 679 022a 18       		.byte	0x18
 680 022b 0D       		.uleb128 0xd
 681 022c E3000000 		.4byte	.LASF31
 682 0230 08       		.byte	0x8
 683 0231 A901     		.2byte	0x1a9
 684 0233 88000000 		.4byte	0x88
 685 0237 1C       		.byte	0x1c
 686 0238 0D       		.uleb128 0xd
 687 0239 13000000 		.4byte	.LASF32
 688 023d 08       		.byte	0x8
 689 023e AA01     		.2byte	0x1aa
 690 0240 88000000 		.4byte	0x88
ARM GAS  /tmp/ccTk1ojM.s 			page 27


 691 0244 20       		.byte	0x20
 692 0245 0C       		.uleb128 0xc
 693 0246 434E5400 		.ascii	"CNT\000"
 694 024a 08       		.byte	0x8
 695 024b AB01     		.2byte	0x1ab
 696 024d 88000000 		.4byte	0x88
 697 0251 24       		.byte	0x24
 698 0252 0C       		.uleb128 0xc
 699 0253 50534300 		.ascii	"PSC\000"
 700 0257 08       		.byte	0x8
 701 0258 AC01     		.2byte	0x1ac
 702 025a 88000000 		.4byte	0x88
 703 025e 28       		.byte	0x28
 704 025f 0C       		.uleb128 0xc
 705 0260 41525200 		.ascii	"ARR\000"
 706 0264 08       		.byte	0x8
 707 0265 AD01     		.2byte	0x1ad
 708 0267 88000000 		.4byte	0x88
 709 026b 2C       		.byte	0x2c
 710 026c 0C       		.uleb128 0xc
 711 026d 52435200 		.ascii	"RCR\000"
 712 0271 08       		.byte	0x8
 713 0272 AE01     		.2byte	0x1ae
 714 0274 88000000 		.4byte	0x88
 715 0278 30       		.byte	0x30
 716 0279 0C       		.uleb128 0xc
 717 027a 43435200 		.ascii	"CCR\000"
 718 027e 08       		.byte	0x8
 719 027f AF01     		.2byte	0x1af
 720 0281 D4020000 		.4byte	0x2d4
 721 0285 34       		.byte	0x34
 722 0286 0D       		.uleb128 0xd
 723 0287 87020000 		.4byte	.LASF33
 724 028b 08       		.byte	0x8
 725 028c B001     		.2byte	0x1b0
 726 028e 88000000 		.4byte	0x88
 727 0292 44       		.byte	0x44
 728 0293 0C       		.uleb128 0xc
 729 0294 44435200 		.ascii	"DCR\000"
 730 0298 08       		.byte	0x8
 731 0299 B101     		.2byte	0x1b1
 732 029b 88000000 		.4byte	0x88
 733 029f 48       		.byte	0x48
 734 02a0 0D       		.uleb128 0xd
 735 02a1 D8000000 		.4byte	.LASF34
 736 02a5 08       		.byte	0x8
 737 02a6 B201     		.2byte	0x1b2
 738 02a8 88000000 		.4byte	0x88
 739 02ac 4C       		.byte	0x4c
 740 02ad 0C       		.uleb128 0xc
 741 02ae 4F5200   		.ascii	"OR\000"
 742 02b1 08       		.byte	0x8
 743 02b2 B301     		.2byte	0x1b3
 744 02b4 88000000 		.4byte	0x88
 745 02b8 50       		.byte	0x50
 746 02b9 0D       		.uleb128 0xd
 747 02ba C4010000 		.4byte	.LASF35
ARM GAS  /tmp/ccTk1ojM.s 			page 28


 748 02be 08       		.byte	0x8
 749 02bf B401     		.2byte	0x1b4
 750 02c1 88000000 		.4byte	0x88
 751 02c5 54       		.byte	0x54
 752 02c6 0D       		.uleb128 0xd
 753 02c7 E9000000 		.4byte	.LASF36
 754 02cb 08       		.byte	0x8
 755 02cc B501     		.2byte	0x1b5
 756 02ce D9020000 		.4byte	0x2d9
 757 02d2 58       		.byte	0x58
 758 02d3 00       		.byte	0
 759 02d4 05       		.uleb128 0x5
 760 02d5 E0000000 		.4byte	0xe0
 761 02d9 05       		.uleb128 0x5
 762 02da 8D000000 		.4byte	0x8d
 763 02de 0E       		.uleb128 0xe
 764 02df 7B020000 		.4byte	.LASF37
 765 02e3 08       		.byte	0x8
 766 02e4 B601     		.2byte	0x1b6
 767 02e6 C8010000 		.4byte	0x1c8
 768 02ea 03       		.uleb128 0x3
 769 02eb 01       		.byte	0x1
 770 02ec 08       		.byte	0x8
 771 02ed 78010000 		.4byte	.LASF38
 772 02f1 03       		.uleb128 0x3
 773 02f2 01       		.byte	0x1
 774 02f3 02       		.byte	0x2
 775 02f4 AE020000 		.4byte	.LASF39
 776 02f8 10       		.uleb128 0x10
 777 02f9 B6010000 		.4byte	.LASF40
 778 02fd 02       		.byte	0x2
 779 02fe 45       		.byte	0x45
 780 02ff 03       		.byte	0x3
 781 0300 10       		.uleb128 0x10
 782 0301 A9010000 		.4byte	.LASF41
 783 0305 02       		.byte	0x2
 784 0306 3A       		.byte	0x3a
 785 0307 03       		.byte	0x3
 786 0308 11       		.uleb128 0x11
 787 0309 F3000000 		.4byte	.LASF42
 788 030d 09       		.byte	0x9
 789 030e 7301     		.2byte	0x173
 790 0310 03       		.byte	0x3
 791 0311 11       		.uleb128 0x11
 792 0312 B4020000 		.4byte	.LASF43
 793 0316 09       		.byte	0x9
 794 0317 7C01     		.2byte	0x17c
 795 0319 03       		.byte	0x3
 796 031a 11       		.uleb128 0x11
 797 031b 00000000 		.4byte	.LASF44
 798 031f 09       		.byte	0x9
 799 0320 8601     		.2byte	0x186
 800 0322 03       		.byte	0x3
 801 0323 11       		.uleb128 0x11
 802 0324 E2020000 		.4byte	.LASF45
 803 0328 09       		.byte	0x9
 804 0329 9001     		.2byte	0x190
ARM GAS  /tmp/ccTk1ojM.s 			page 29


 805 032b 03       		.byte	0x3
 806 032c 11       		.uleb128 0x11
 807 032d 8C020000 		.4byte	.LASF46
 808 0331 03       		.byte	0x3
 809 0332 0C02     		.2byte	0x20c
 810 0334 03       		.byte	0x3
 811 0335 11       		.uleb128 0x11
 812 0336 BB000000 		.4byte	.LASF47
 813 033a 03       		.byte	0x3
 814 033b 5202     		.2byte	0x252
 815 033d 03       		.byte	0x3
 816 033e 11       		.uleb128 0x11
 817 033f CA010000 		.4byte	.LASF48
 818 0343 03       		.byte	0x3
 819 0344 1702     		.2byte	0x217
 820 0346 03       		.byte	0x3
 821 0347 12       		.uleb128 0x12
 822 0348 D2020000 		.4byte	.LASF49
 823 034c 01       		.byte	0x1
 824 034d EF       		.byte	0xef
 825 034e 00000000 		.4byte	.LFB98
 826 0352 22000000 		.4byte	.LFE98-.LFB98
 827 0356 01       		.uleb128 0x1
 828 0357 9C       		.byte	0x9c
 829 0358 25040000 		.4byte	0x425
 830 035c 13       		.uleb128 0x13
 831 035d 5B030000 		.4byte	.LASF54
 832 0361 01       		.byte	0x1
 833 0362 F1       		.byte	0xf1
 834 0363 BB010000 		.4byte	0x1bb
 835 0367 00000000 		.4byte	.LLST0
 836 036b 14       		.uleb128 0x14
 837 036c 2C030000 		.4byte	0x32c
 838 0370 12000000 		.4byte	.LBB38
 839 0374 02000000 		.4byte	.LBE38-.LBB38
 840 0378 01       		.byte	0x1
 841 0379 F9       		.byte	0xf9
 842 037a B1030000 		.4byte	0x3b1
 843 037e 15       		.uleb128 0x15
 844 037f 1A030000 		.4byte	0x31a
 845 0383 12000000 		.4byte	.LBB39
 846 0387 02000000 		.4byte	.LBE39-.LBB39
 847 038b 03       		.byte	0x3
 848 038c 0E02     		.2byte	0x20e
 849 038e 15       		.uleb128 0x15
 850 038f 08030000 		.4byte	0x308
 851 0393 12000000 		.4byte	.LBB40
 852 0397 02000000 		.4byte	.LBE40-.LBB40
 853 039b 09       		.byte	0x9
 854 039c 8801     		.2byte	0x188
 855 039e 16       		.uleb128 0x16
 856 039f F8020000 		.4byte	0x2f8
 857 03a3 12000000 		.4byte	.LBB41
 858 03a7 02000000 		.4byte	.LBE41-.LBB41
 859 03ab 09       		.byte	0x9
 860 03ac 7501     		.2byte	0x175
 861 03ae 00       		.byte	0
ARM GAS  /tmp/ccTk1ojM.s 			page 30


 862 03af 00       		.byte	0
 863 03b0 00       		.byte	0
 864 03b1 14       		.uleb128 0x14
 865 03b2 35030000 		.4byte	0x335
 866 03b6 14000000 		.4byte	.LBB43
 867 03ba 04000000 		.4byte	.LBE43-.LBB43
 868 03be 01       		.byte	0x1
 869 03bf FA       		.byte	0xfa
 870 03c0 CE030000 		.4byte	0x3ce
 871 03c4 17       		.uleb128 0x17
 872 03c5 18000000 		.4byte	.LVL1
 873 03c9 50040000 		.4byte	0x450
 874 03cd 00       		.byte	0
 875 03ce 14       		.uleb128 0x14
 876 03cf 3E030000 		.4byte	0x33e
 877 03d3 18000000 		.4byte	.LBB45
 878 03d7 02000000 		.4byte	.LBE45-.LBB45
 879 03db 01       		.byte	0x1
 880 03dc FB       		.byte	0xfb
 881 03dd 14040000 		.4byte	0x414
 882 03e1 15       		.uleb128 0x15
 883 03e2 23030000 		.4byte	0x323
 884 03e6 18000000 		.4byte	.LBB46
 885 03ea 02000000 		.4byte	.LBE46-.LBB46
 886 03ee 03       		.byte	0x3
 887 03ef 1902     		.2byte	0x219
 888 03f1 15       		.uleb128 0x15
 889 03f2 11030000 		.4byte	0x311
 890 03f6 18000000 		.4byte	.LBB47
 891 03fa 02000000 		.4byte	.LBE47-.LBB47
 892 03fe 09       		.byte	0x9
 893 03ff 9201     		.2byte	0x192
 894 0401 16       		.uleb128 0x16
 895 0402 00030000 		.4byte	0x300
 896 0406 18000000 		.4byte	.LBB48
 897 040a 02000000 		.4byte	.LBE48-.LBB48
 898 040e 09       		.byte	0x9
 899 040f 7E01     		.2byte	0x17e
 900 0411 00       		.byte	0
 901 0412 00       		.byte	0
 902 0413 00       		.byte	0
 903 0414 18       		.uleb128 0x18
 904 0415 20000000 		.4byte	.LVL2
 905 0419 58040000 		.4byte	0x458
 906 041d 19       		.uleb128 0x19
 907 041e 01       		.uleb128 0x1
 908 041f 50       		.byte	0x50
 909 0420 02       		.uleb128 0x2
 910 0421 74       		.byte	0x74
 911 0422 00       		.sleb128 0
 912 0423 00       		.byte	0
 913 0424 00       		.byte	0
 914 0425 1A       		.uleb128 0x1a
 915 0426 0A030000 		.4byte	.LASF50
 916 042a 01       		.byte	0x1
 917 042b 0B01     		.2byte	0x10b
 918 042d 00000000 		.4byte	.LFB99
ARM GAS  /tmp/ccTk1ojM.s 			page 31


 919 0431 48000000 		.4byte	.LFE99-.LFB99
 920 0435 01       		.uleb128 0x1
 921 0436 9C       		.byte	0x9c
 922 0437 50040000 		.4byte	0x450
 923 043b 18       		.uleb128 0x18
 924 043c 38000000 		.4byte	.LVL4
 925 0440 6A040000 		.4byte	0x46a
 926 0444 19       		.uleb128 0x19
 927 0445 01       		.uleb128 0x1
 928 0446 51       		.byte	0x51
 929 0447 01       		.uleb128 0x1
 930 0448 32       		.byte	0x32
 931 0449 19       		.uleb128 0x19
 932 044a 01       		.uleb128 0x1
 933 044b 50       		.byte	0x50
 934 044c 01       		.uleb128 0x1
 935 044d 3F       		.byte	0x3f
 936 044e 00       		.byte	0
 937 044f 00       		.byte	0
 938 0450 1B       		.uleb128 0x1b
 939 0451 F7020000 		.4byte	.LASF55
 940 0455 0A       		.byte	0xa
 941 0456 3005     		.2byte	0x530
 942 0458 1C       		.uleb128 0x1c
 943 0459 E4010000 		.4byte	.LASF56
 944 045d 09       		.byte	0x9
 945 045e 3601     		.2byte	0x136
 946 0460 6A040000 		.4byte	0x46a
 947 0464 1D       		.uleb128 0x1d
 948 0465 BB010000 		.4byte	0x1bb
 949 0469 00       		.byte	0
 950 046a 1E       		.uleb128 0x1e
 951 046b 0D020000 		.4byte	.LASF57
 952 046f 0B       		.byte	0xb
 953 0470 4E       		.byte	0x4e
 954 0471 1D       		.uleb128 0x1d
 955 0472 76000000 		.4byte	0x76
 956 0476 1D       		.uleb128 0x1d
 957 0477 76000000 		.4byte	0x76
 958 047b 00       		.byte	0
 959 047c 00       		.byte	0
 960              		.section	.debug_abbrev,"",%progbits
 961              	.Ldebug_abbrev0:
 962 0000 01       		.uleb128 0x1
 963 0001 11       		.uleb128 0x11
 964 0002 01       		.byte	0x1
 965 0003 25       		.uleb128 0x25
 966 0004 0E       		.uleb128 0xe
 967 0005 13       		.uleb128 0x13
 968 0006 0B       		.uleb128 0xb
 969 0007 03       		.uleb128 0x3
 970 0008 0E       		.uleb128 0xe
 971 0009 1B       		.uleb128 0x1b
 972 000a 0E       		.uleb128 0xe
 973 000b 55       		.uleb128 0x55
 974 000c 17       		.uleb128 0x17
 975 000d 11       		.uleb128 0x11
ARM GAS  /tmp/ccTk1ojM.s 			page 32


 976 000e 01       		.uleb128 0x1
 977 000f 10       		.uleb128 0x10
 978 0010 17       		.uleb128 0x17
 979 0011 00       		.byte	0
 980 0012 00       		.byte	0
 981 0013 02       		.uleb128 0x2
 982 0014 24       		.uleb128 0x24
 983 0015 00       		.byte	0
 984 0016 0B       		.uleb128 0xb
 985 0017 0B       		.uleb128 0xb
 986 0018 3E       		.uleb128 0x3e
 987 0019 0B       		.uleb128 0xb
 988 001a 03       		.uleb128 0x3
 989 001b 08       		.uleb128 0x8
 990 001c 00       		.byte	0
 991 001d 00       		.byte	0
 992 001e 03       		.uleb128 0x3
 993 001f 24       		.uleb128 0x24
 994 0020 00       		.byte	0
 995 0021 0B       		.uleb128 0xb
 996 0022 0B       		.uleb128 0xb
 997 0023 3E       		.uleb128 0x3e
 998 0024 0B       		.uleb128 0xb
 999 0025 03       		.uleb128 0x3
 1000 0026 0E       		.uleb128 0xe
 1001 0027 00       		.byte	0
 1002 0028 00       		.byte	0
 1003 0029 04       		.uleb128 0x4
 1004 002a 16       		.uleb128 0x16
 1005 002b 00       		.byte	0
 1006 002c 03       		.uleb128 0x3
 1007 002d 0E       		.uleb128 0xe
 1008 002e 3A       		.uleb128 0x3a
 1009 002f 0B       		.uleb128 0xb
 1010 0030 3B       		.uleb128 0x3b
 1011 0031 0B       		.uleb128 0xb
 1012 0032 49       		.uleb128 0x49
 1013 0033 13       		.uleb128 0x13
 1014 0034 00       		.byte	0
 1015 0035 00       		.byte	0
 1016 0036 05       		.uleb128 0x5
 1017 0037 35       		.uleb128 0x35
 1018 0038 00       		.byte	0
 1019 0039 49       		.uleb128 0x49
 1020 003a 13       		.uleb128 0x13
 1021 003b 00       		.byte	0
 1022 003c 00       		.byte	0
 1023 003d 06       		.uleb128 0x6
 1024 003e 01       		.uleb128 0x1
 1025 003f 01       		.byte	0x1
 1026 0040 49       		.uleb128 0x49
 1027 0041 13       		.uleb128 0x13
 1028 0042 01       		.uleb128 0x1
 1029 0043 13       		.uleb128 0x13
 1030 0044 00       		.byte	0
 1031 0045 00       		.byte	0
 1032 0046 07       		.uleb128 0x7
ARM GAS  /tmp/ccTk1ojM.s 			page 33


 1033 0047 21       		.uleb128 0x21
 1034 0048 00       		.byte	0
 1035 0049 49       		.uleb128 0x49
 1036 004a 13       		.uleb128 0x13
 1037 004b 2F       		.uleb128 0x2f
 1038 004c 0B       		.uleb128 0xb
 1039 004d 00       		.byte	0
 1040 004e 00       		.byte	0
 1041 004f 08       		.uleb128 0x8
 1042 0050 13       		.uleb128 0x13
 1043 0051 01       		.byte	0x1
 1044 0052 0B       		.uleb128 0xb
 1045 0053 0B       		.uleb128 0xb
 1046 0054 3A       		.uleb128 0x3a
 1047 0055 0B       		.uleb128 0xb
 1048 0056 3B       		.uleb128 0x3b
 1049 0057 0B       		.uleb128 0xb
 1050 0058 01       		.uleb128 0x1
 1051 0059 13       		.uleb128 0x13
 1052 005a 00       		.byte	0
 1053 005b 00       		.byte	0
 1054 005c 09       		.uleb128 0x9
 1055 005d 0D       		.uleb128 0xd
 1056 005e 00       		.byte	0
 1057 005f 03       		.uleb128 0x3
 1058 0060 0E       		.uleb128 0xe
 1059 0061 3A       		.uleb128 0x3a
 1060 0062 0B       		.uleb128 0xb
 1061 0063 3B       		.uleb128 0x3b
 1062 0064 0B       		.uleb128 0xb
 1063 0065 49       		.uleb128 0x49
 1064 0066 13       		.uleb128 0x13
 1065 0067 38       		.uleb128 0x38
 1066 0068 0B       		.uleb128 0xb
 1067 0069 00       		.byte	0
 1068 006a 00       		.byte	0
 1069 006b 0A       		.uleb128 0xa
 1070 006c 0D       		.uleb128 0xd
 1071 006d 00       		.byte	0
 1072 006e 03       		.uleb128 0x3
 1073 006f 08       		.uleb128 0x8
 1074 0070 3A       		.uleb128 0x3a
 1075 0071 0B       		.uleb128 0xb
 1076 0072 3B       		.uleb128 0x3b
 1077 0073 0B       		.uleb128 0xb
 1078 0074 49       		.uleb128 0x49
 1079 0075 13       		.uleb128 0x13
 1080 0076 38       		.uleb128 0x38
 1081 0077 0B       		.uleb128 0xb
 1082 0078 00       		.byte	0
 1083 0079 00       		.byte	0
 1084 007a 0B       		.uleb128 0xb
 1085 007b 13       		.uleb128 0x13
 1086 007c 01       		.byte	0x1
 1087 007d 0B       		.uleb128 0xb
 1088 007e 0B       		.uleb128 0xb
 1089 007f 3A       		.uleb128 0x3a
ARM GAS  /tmp/ccTk1ojM.s 			page 34


 1090 0080 0B       		.uleb128 0xb
 1091 0081 3B       		.uleb128 0x3b
 1092 0082 05       		.uleb128 0x5
 1093 0083 01       		.uleb128 0x1
 1094 0084 13       		.uleb128 0x13
 1095 0085 00       		.byte	0
 1096 0086 00       		.byte	0
 1097 0087 0C       		.uleb128 0xc
 1098 0088 0D       		.uleb128 0xd
 1099 0089 00       		.byte	0
 1100 008a 03       		.uleb128 0x3
 1101 008b 08       		.uleb128 0x8
 1102 008c 3A       		.uleb128 0x3a
 1103 008d 0B       		.uleb128 0xb
 1104 008e 3B       		.uleb128 0x3b
 1105 008f 05       		.uleb128 0x5
 1106 0090 49       		.uleb128 0x49
 1107 0091 13       		.uleb128 0x13
 1108 0092 38       		.uleb128 0x38
 1109 0093 0B       		.uleb128 0xb
 1110 0094 00       		.byte	0
 1111 0095 00       		.byte	0
 1112 0096 0D       		.uleb128 0xd
 1113 0097 0D       		.uleb128 0xd
 1114 0098 00       		.byte	0
 1115 0099 03       		.uleb128 0x3
 1116 009a 0E       		.uleb128 0xe
 1117 009b 3A       		.uleb128 0x3a
 1118 009c 0B       		.uleb128 0xb
 1119 009d 3B       		.uleb128 0x3b
 1120 009e 05       		.uleb128 0x5
 1121 009f 49       		.uleb128 0x49
 1122 00a0 13       		.uleb128 0x13
 1123 00a1 38       		.uleb128 0x38
 1124 00a2 0B       		.uleb128 0xb
 1125 00a3 00       		.byte	0
 1126 00a4 00       		.byte	0
 1127 00a5 0E       		.uleb128 0xe
 1128 00a6 16       		.uleb128 0x16
 1129 00a7 00       		.byte	0
 1130 00a8 03       		.uleb128 0x3
 1131 00a9 0E       		.uleb128 0xe
 1132 00aa 3A       		.uleb128 0x3a
 1133 00ab 0B       		.uleb128 0xb
 1134 00ac 3B       		.uleb128 0x3b
 1135 00ad 05       		.uleb128 0x5
 1136 00ae 49       		.uleb128 0x49
 1137 00af 13       		.uleb128 0x13
 1138 00b0 00       		.byte	0
 1139 00b1 00       		.byte	0
 1140 00b2 0F       		.uleb128 0xf
 1141 00b3 0F       		.uleb128 0xf
 1142 00b4 00       		.byte	0
 1143 00b5 0B       		.uleb128 0xb
 1144 00b6 0B       		.uleb128 0xb
 1145 00b7 00       		.byte	0
 1146 00b8 00       		.byte	0
ARM GAS  /tmp/ccTk1ojM.s 			page 35


 1147 00b9 10       		.uleb128 0x10
 1148 00ba 2E       		.uleb128 0x2e
 1149 00bb 00       		.byte	0
 1150 00bc 03       		.uleb128 0x3
 1151 00bd 0E       		.uleb128 0xe
 1152 00be 3A       		.uleb128 0x3a
 1153 00bf 0B       		.uleb128 0xb
 1154 00c0 3B       		.uleb128 0x3b
 1155 00c1 0B       		.uleb128 0xb
 1156 00c2 27       		.uleb128 0x27
 1157 00c3 19       		.uleb128 0x19
 1158 00c4 20       		.uleb128 0x20
 1159 00c5 0B       		.uleb128 0xb
 1160 00c6 00       		.byte	0
 1161 00c7 00       		.byte	0
 1162 00c8 11       		.uleb128 0x11
 1163 00c9 2E       		.uleb128 0x2e
 1164 00ca 00       		.byte	0
 1165 00cb 03       		.uleb128 0x3
 1166 00cc 0E       		.uleb128 0xe
 1167 00cd 3A       		.uleb128 0x3a
 1168 00ce 0B       		.uleb128 0xb
 1169 00cf 3B       		.uleb128 0x3b
 1170 00d0 05       		.uleb128 0x5
 1171 00d1 27       		.uleb128 0x27
 1172 00d2 19       		.uleb128 0x19
 1173 00d3 20       		.uleb128 0x20
 1174 00d4 0B       		.uleb128 0xb
 1175 00d5 00       		.byte	0
 1176 00d6 00       		.byte	0
 1177 00d7 12       		.uleb128 0x12
 1178 00d8 2E       		.uleb128 0x2e
 1179 00d9 01       		.byte	0x1
 1180 00da 3F       		.uleb128 0x3f
 1181 00db 19       		.uleb128 0x19
 1182 00dc 03       		.uleb128 0x3
 1183 00dd 0E       		.uleb128 0xe
 1184 00de 3A       		.uleb128 0x3a
 1185 00df 0B       		.uleb128 0xb
 1186 00e0 3B       		.uleb128 0x3b
 1187 00e1 0B       		.uleb128 0xb
 1188 00e2 27       		.uleb128 0x27
 1189 00e3 19       		.uleb128 0x19
 1190 00e4 11       		.uleb128 0x11
 1191 00e5 01       		.uleb128 0x1
 1192 00e6 12       		.uleb128 0x12
 1193 00e7 06       		.uleb128 0x6
 1194 00e8 40       		.uleb128 0x40
 1195 00e9 18       		.uleb128 0x18
 1196 00ea 9742     		.uleb128 0x2117
 1197 00ec 19       		.uleb128 0x19
 1198 00ed 01       		.uleb128 0x1
 1199 00ee 13       		.uleb128 0x13
 1200 00ef 00       		.byte	0
 1201 00f0 00       		.byte	0
 1202 00f1 13       		.uleb128 0x13
 1203 00f2 34       		.uleb128 0x34
ARM GAS  /tmp/ccTk1ojM.s 			page 36


 1204 00f3 00       		.byte	0
 1205 00f4 03       		.uleb128 0x3
 1206 00f5 0E       		.uleb128 0xe
 1207 00f6 3A       		.uleb128 0x3a
 1208 00f7 0B       		.uleb128 0xb
 1209 00f8 3B       		.uleb128 0x3b
 1210 00f9 0B       		.uleb128 0xb
 1211 00fa 49       		.uleb128 0x49
 1212 00fb 13       		.uleb128 0x13
 1213 00fc 02       		.uleb128 0x2
 1214 00fd 17       		.uleb128 0x17
 1215 00fe 00       		.byte	0
 1216 00ff 00       		.byte	0
 1217 0100 14       		.uleb128 0x14
 1218 0101 1D       		.uleb128 0x1d
 1219 0102 01       		.byte	0x1
 1220 0103 31       		.uleb128 0x31
 1221 0104 13       		.uleb128 0x13
 1222 0105 11       		.uleb128 0x11
 1223 0106 01       		.uleb128 0x1
 1224 0107 12       		.uleb128 0x12
 1225 0108 06       		.uleb128 0x6
 1226 0109 58       		.uleb128 0x58
 1227 010a 0B       		.uleb128 0xb
 1228 010b 59       		.uleb128 0x59
 1229 010c 0B       		.uleb128 0xb
 1230 010d 01       		.uleb128 0x1
 1231 010e 13       		.uleb128 0x13
 1232 010f 00       		.byte	0
 1233 0110 00       		.byte	0
 1234 0111 15       		.uleb128 0x15
 1235 0112 1D       		.uleb128 0x1d
 1236 0113 01       		.byte	0x1
 1237 0114 31       		.uleb128 0x31
 1238 0115 13       		.uleb128 0x13
 1239 0116 11       		.uleb128 0x11
 1240 0117 01       		.uleb128 0x1
 1241 0118 12       		.uleb128 0x12
 1242 0119 06       		.uleb128 0x6
 1243 011a 58       		.uleb128 0x58
 1244 011b 0B       		.uleb128 0xb
 1245 011c 59       		.uleb128 0x59
 1246 011d 05       		.uleb128 0x5
 1247 011e 00       		.byte	0
 1248 011f 00       		.byte	0
 1249 0120 16       		.uleb128 0x16
 1250 0121 1D       		.uleb128 0x1d
 1251 0122 00       		.byte	0
 1252 0123 31       		.uleb128 0x31
 1253 0124 13       		.uleb128 0x13
 1254 0125 11       		.uleb128 0x11
 1255 0126 01       		.uleb128 0x1
 1256 0127 12       		.uleb128 0x12
 1257 0128 06       		.uleb128 0x6
 1258 0129 58       		.uleb128 0x58
 1259 012a 0B       		.uleb128 0xb
 1260 012b 59       		.uleb128 0x59
ARM GAS  /tmp/ccTk1ojM.s 			page 37


 1261 012c 05       		.uleb128 0x5
 1262 012d 00       		.byte	0
 1263 012e 00       		.byte	0
 1264 012f 17       		.uleb128 0x17
 1265 0130 898201   		.uleb128 0x4109
 1266 0133 00       		.byte	0
 1267 0134 11       		.uleb128 0x11
 1268 0135 01       		.uleb128 0x1
 1269 0136 31       		.uleb128 0x31
 1270 0137 13       		.uleb128 0x13
 1271 0138 00       		.byte	0
 1272 0139 00       		.byte	0
 1273 013a 18       		.uleb128 0x18
 1274 013b 898201   		.uleb128 0x4109
 1275 013e 01       		.byte	0x1
 1276 013f 11       		.uleb128 0x11
 1277 0140 01       		.uleb128 0x1
 1278 0141 31       		.uleb128 0x31
 1279 0142 13       		.uleb128 0x13
 1280 0143 00       		.byte	0
 1281 0144 00       		.byte	0
 1282 0145 19       		.uleb128 0x19
 1283 0146 8A8201   		.uleb128 0x410a
 1284 0149 00       		.byte	0
 1285 014a 02       		.uleb128 0x2
 1286 014b 18       		.uleb128 0x18
 1287 014c 9142     		.uleb128 0x2111
 1288 014e 18       		.uleb128 0x18
 1289 014f 00       		.byte	0
 1290 0150 00       		.byte	0
 1291 0151 1A       		.uleb128 0x1a
 1292 0152 2E       		.uleb128 0x2e
 1293 0153 01       		.byte	0x1
 1294 0154 3F       		.uleb128 0x3f
 1295 0155 19       		.uleb128 0x19
 1296 0156 03       		.uleb128 0x3
 1297 0157 0E       		.uleb128 0xe
 1298 0158 3A       		.uleb128 0x3a
 1299 0159 0B       		.uleb128 0xb
 1300 015a 3B       		.uleb128 0x3b
 1301 015b 05       		.uleb128 0x5
 1302 015c 27       		.uleb128 0x27
 1303 015d 19       		.uleb128 0x19
 1304 015e 11       		.uleb128 0x11
 1305 015f 01       		.uleb128 0x1
 1306 0160 12       		.uleb128 0x12
 1307 0161 06       		.uleb128 0x6
 1308 0162 40       		.uleb128 0x40
 1309 0163 18       		.uleb128 0x18
 1310 0164 9742     		.uleb128 0x2117
 1311 0166 19       		.uleb128 0x19
 1312 0167 01       		.uleb128 0x1
 1313 0168 13       		.uleb128 0x13
 1314 0169 00       		.byte	0
 1315 016a 00       		.byte	0
 1316 016b 1B       		.uleb128 0x1b
 1317 016c 2E       		.uleb128 0x2e
ARM GAS  /tmp/ccTk1ojM.s 			page 38


 1318 016d 00       		.byte	0
 1319 016e 3F       		.uleb128 0x3f
 1320 016f 19       		.uleb128 0x19
 1321 0170 03       		.uleb128 0x3
 1322 0171 0E       		.uleb128 0xe
 1323 0172 3A       		.uleb128 0x3a
 1324 0173 0B       		.uleb128 0xb
 1325 0174 3B       		.uleb128 0x3b
 1326 0175 05       		.uleb128 0x5
 1327 0176 27       		.uleb128 0x27
 1328 0177 19       		.uleb128 0x19
 1329 0178 3C       		.uleb128 0x3c
 1330 0179 19       		.uleb128 0x19
 1331 017a 00       		.byte	0
 1332 017b 00       		.byte	0
 1333 017c 1C       		.uleb128 0x1c
 1334 017d 2E       		.uleb128 0x2e
 1335 017e 01       		.byte	0x1
 1336 017f 3F       		.uleb128 0x3f
 1337 0180 19       		.uleb128 0x19
 1338 0181 03       		.uleb128 0x3
 1339 0182 0E       		.uleb128 0xe
 1340 0183 3A       		.uleb128 0x3a
 1341 0184 0B       		.uleb128 0xb
 1342 0185 3B       		.uleb128 0x3b
 1343 0186 05       		.uleb128 0x5
 1344 0187 27       		.uleb128 0x27
 1345 0188 19       		.uleb128 0x19
 1346 0189 3C       		.uleb128 0x3c
 1347 018a 19       		.uleb128 0x19
 1348 018b 01       		.uleb128 0x1
 1349 018c 13       		.uleb128 0x13
 1350 018d 00       		.byte	0
 1351 018e 00       		.byte	0
 1352 018f 1D       		.uleb128 0x1d
 1353 0190 05       		.uleb128 0x5
 1354 0191 00       		.byte	0
 1355 0192 49       		.uleb128 0x49
 1356 0193 13       		.uleb128 0x13
 1357 0194 00       		.byte	0
 1358 0195 00       		.byte	0
 1359 0196 1E       		.uleb128 0x1e
 1360 0197 2E       		.uleb128 0x2e
 1361 0198 01       		.byte	0x1
 1362 0199 3F       		.uleb128 0x3f
 1363 019a 19       		.uleb128 0x19
 1364 019b 03       		.uleb128 0x3
 1365 019c 0E       		.uleb128 0xe
 1366 019d 3A       		.uleb128 0x3a
 1367 019e 0B       		.uleb128 0xb
 1368 019f 3B       		.uleb128 0x3b
 1369 01a0 0B       		.uleb128 0xb
 1370 01a1 27       		.uleb128 0x27
 1371 01a2 19       		.uleb128 0x19
 1372 01a3 3C       		.uleb128 0x3c
 1373 01a4 19       		.uleb128 0x19
 1374 01a5 00       		.byte	0
ARM GAS  /tmp/ccTk1ojM.s 			page 39


 1375 01a6 00       		.byte	0
 1376 01a7 00       		.byte	0
 1377              		.section	.debug_loc,"",%progbits
 1378              	.Ldebug_loc0:
 1379              	.LLST0:
 1380 0000 0A000000 		.4byte	.LVL0
 1381 0004 20000000 		.4byte	.LVL3
 1382 0008 0100     		.2byte	0x1
 1383 000a 54       		.byte	0x54
 1384 000b 00000000 		.4byte	0
 1385 000f 00000000 		.4byte	0
 1386              		.section	.debug_aranges,"",%progbits
 1387 0000 24000000 		.4byte	0x24
 1388 0004 0200     		.2byte	0x2
 1389 0006 00000000 		.4byte	.Ldebug_info0
 1390 000a 04       		.byte	0x4
 1391 000b 00       		.byte	0
 1392 000c 0000     		.2byte	0
 1393 000e 0000     		.2byte	0
 1394 0010 00000000 		.4byte	.LFB98
 1395 0014 22000000 		.4byte	.LFE98-.LFB98
 1396 0018 00000000 		.4byte	.LFB99
 1397 001c 48000000 		.4byte	.LFE99-.LFB99
 1398 0020 00000000 		.4byte	0
 1399 0024 00000000 		.4byte	0
 1400              		.section	.debug_ranges,"",%progbits
 1401              	.Ldebug_ranges0:
 1402 0000 00000000 		.4byte	.LFB98
 1403 0004 22000000 		.4byte	.LFE98
 1404 0008 00000000 		.4byte	.LFB99
 1405 000c 48000000 		.4byte	.LFE99
 1406 0010 00000000 		.4byte	0
 1407 0014 00000000 		.4byte	0
 1408              		.section	.debug_line,"",%progbits
 1409              	.Ldebug_line0:
 1410 0000 25020000 		.section	.debug_str,"MS",%progbits,1
 1410      0200C401 
 1410      00000201 
 1410      FB0E0D00 
 1410      01010101 
 1411              	.LASF44:
 1412 0000 706F7274 		.ascii	"port_lock_from_isr\000"
 1412      5F6C6F63 
 1412      6B5F6672 
 1412      6F6D5F69 
 1412      737200
 1413              	.LASF32:
 1414 0013 43434552 		.ascii	"CCER\000"
 1414      00
 1415              	.LASF51:
 1416 0018 474E5520 		.ascii	"GNU C 4.8.2 -mcpu=cortex-m0 -mno-thumb-interwork -m"
 1416      4320342E 
 1416      382E3220 
 1416      2D6D6370 
 1416      753D636F 
 1417 004b 7468756D 		.ascii	"thumb -ggdb -O2 -fomit-frame-pointer -falign-functi"
 1417      62202D67 
ARM GAS  /tmp/ccTk1ojM.s 			page 40


 1417      67646220 
 1417      2D4F3220 
 1417      2D666F6D 
 1418 007e 6F6E733D 		.ascii	"ons=16 -ffunction-sections -fdata-sections -fno-com"
 1418      3136202D 
 1418      6666756E 
 1418      6374696F 
 1418      6E2D7365 
 1419 00b1 6D6F6E20 		.ascii	"mon -flto\000"
 1419      2D666C74 
 1419      6F00
 1420              	.LASF47:
 1421 00bb 6F73616C 		.ascii	"osalOsTimerHandlerI\000"
 1421      4F735469 
 1421      6D657248 
 1421      616E646C 
 1421      65724900 
 1422              	.LASF18:
 1423 00cf 41504231 		.ascii	"APB1RSTR\000"
 1423      52535452 
 1423      00
 1424              	.LASF34:
 1425 00d8 444D4152 		.ascii	"DMAR\000"
 1425      00
 1426              	.LASF30:
 1427 00dd 43434D52 		.ascii	"CCMR1\000"
 1427      3100
 1428              	.LASF31:
 1429 00e3 43434D52 		.ascii	"CCMR2\000"
 1429      3200
 1430              	.LASF36:
 1431 00e9 43435852 		.ascii	"CCXR\000"
 1431      00
 1432              	.LASF22:
 1433 00ee 42444352 		.ascii	"BDCR\000"
 1433      00
 1434              	.LASF42:
 1435 00f3 706F7274 		.ascii	"port_lock\000"
 1435      5F6C6F63 
 1435      6B00
 1436              	.LASF9:
 1437 00fd 5F5F7569 		.ascii	"__uint32_t\000"
 1437      6E743332 
 1437      5F7400
 1438              	.LASF52:
 1439 0108 2E2E2F2E 		.ascii	"../../../os/hal/ports/STM32/LLD/TIMv1/hal_st_lld.c\000"
 1439      2E2F2E2E 
 1439      2F6F732F 
 1439      68616C2F 
 1439      706F7274 
 1440              	.LASF3:
 1441 013b 73686F72 		.ascii	"short int\000"
 1441      7420696E 
 1441      7400
 1442              	.LASF16:
 1443 0145 43464752 		.ascii	"CFGR\000"
 1443      00
ARM GAS  /tmp/ccTk1ojM.s 			page 41


 1444              	.LASF27:
 1445 014a 72656761 		.ascii	"regarm_t\000"
 1445      726D5F74 
 1445      00
 1446              	.LASF14:
 1447 0153 41504232 		.ascii	"APB2FZ\000"
 1447      465A00
 1448              	.LASF21:
 1449 015a 41504231 		.ascii	"APB1ENR\000"
 1449      454E5200 
 1450              	.LASF23:
 1451 0162 41484252 		.ascii	"AHBRSTR\000"
 1451      53545200 
 1452              	.LASF7:
 1453 016a 6C6F6E67 		.ascii	"long long int\000"
 1453      206C6F6E 
 1453      6720696E 
 1453      7400
 1454              	.LASF38:
 1455 0178 63686172 		.ascii	"char\000"
 1455      00
 1456              	.LASF5:
 1457 017d 6C6F6E67 		.ascii	"long int\000"
 1457      20696E74 
 1457      00
 1458              	.LASF26:
 1459 0186 5243435F 		.ascii	"RCC_TypeDef\000"
 1459      54797065 
 1459      44656600 
 1460              	.LASF19:
 1461 0192 41484245 		.ascii	"AHBENR\000"
 1461      4E5200
 1462              	.LASF17:
 1463 0199 41504232 		.ascii	"APB2RSTR\000"
 1463      52535452 
 1463      00
 1464              	.LASF13:
 1465 01a2 41504231 		.ascii	"APB1FZ\000"
 1465      465A00
 1466              	.LASF41:
 1467 01a9 5F5F656E 		.ascii	"__enable_irq\000"
 1467      61626C65 
 1467      5F697271 
 1467      00
 1468              	.LASF40:
 1469 01b6 5F5F6469 		.ascii	"__disable_irq\000"
 1469      7361626C 
 1469      655F6972 
 1469      7100
 1470              	.LASF35:
 1471 01c4 43434D52 		.ascii	"CCMR3\000"
 1471      3300
 1472              	.LASF48:
 1473 01ca 6F73616C 		.ascii	"osalSysUnlockFromISR\000"
 1473      53797355 
 1473      6E6C6F63 
 1473      6B46726F 
ARM GAS  /tmp/ccTk1ojM.s 			page 42


 1473      6D495352 
 1474              	.LASF28:
 1475 01df 534D4352 		.ascii	"SMCR\000"
 1475      00
 1476              	.LASF56:
 1477 01e4 5F706F72 		.ascii	"_port_irq_epilogue\000"
 1477      745F6972 
 1477      715F6570 
 1477      696C6F67 
 1477      756500
 1478              	.LASF2:
 1479 01f7 756E7369 		.ascii	"unsigned char\000"
 1479      676E6564 
 1479      20636861 
 1479      7200
 1480              	.LASF20:
 1481 0205 41504232 		.ascii	"APB2ENR\000"
 1481      454E5200 
 1482              	.LASF57:
 1483 020d 6E766963 		.ascii	"nvicEnableVector\000"
 1483      456E6162 
 1483      6C655665 
 1483      63746F72 
 1483      00
 1484              	.LASF1:
 1485 021e 7369676E 		.ascii	"signed char\000"
 1485      65642063 
 1485      68617200 
 1486              	.LASF8:
 1487 022a 6C6F6E67 		.ascii	"long long unsigned int\000"
 1487      206C6F6E 
 1487      6720756E 
 1487      7369676E 
 1487      65642069 
 1488              	.LASF10:
 1489 0241 75696E74 		.ascii	"uint32_t\000"
 1489      33325F74 
 1489      00
 1490              	.LASF0:
 1491 024a 756E7369 		.ascii	"unsigned int\000"
 1491      676E6564 
 1491      20696E74 
 1491      00
 1492              	.LASF24:
 1493 0257 43464752 		.ascii	"CFGR2\000"
 1493      3200
 1494              	.LASF25:
 1495 025d 43464752 		.ascii	"CFGR3\000"
 1495      3300
 1496              	.LASF29:
 1497 0263 44494552 		.ascii	"DIER\000"
 1497      00
 1498              	.LASF4:
 1499 0268 73686F72 		.ascii	"short unsigned int\000"
 1499      7420756E 
 1499      7369676E 
 1499      65642069 
ARM GAS  /tmp/ccTk1ojM.s 			page 43


 1499      6E7400
 1500              	.LASF37:
 1501 027b 73746D33 		.ascii	"stm32_tim_t\000"
 1501      325F7469 
 1501      6D5F7400 
 1502              	.LASF33:
 1503 0287 42445452 		.ascii	"BDTR\000"
 1503      00
 1504              	.LASF46:
 1505 028c 6F73616C 		.ascii	"osalSysLockFromISR\000"
 1505      5379734C 
 1505      6F636B46 
 1505      726F6D49 
 1505      535200
 1506              	.LASF15:
 1507 029f 4442474D 		.ascii	"DBGMCU_TypeDef\000"
 1507      43555F54 
 1507      79706544 
 1507      656600
 1508              	.LASF39:
 1509 02ae 5F426F6F 		.ascii	"_Bool\000"
 1509      6C00
 1510              	.LASF43:
 1511 02b4 706F7274 		.ascii	"port_unlock\000"
 1511      5F756E6C 
 1511      6F636B00 
 1512              	.LASF6:
 1513 02c0 6C6F6E67 		.ascii	"long unsigned int\000"
 1513      20756E73 
 1513      69676E65 
 1513      6420696E 
 1513      7400
 1514              	.LASF49:
 1515 02d2 56656374 		.ascii	"Vector7C\000"
 1515      6F723743 
 1515      00
 1516              	.LASF12:
 1517 02db 4944434F 		.ascii	"IDCODE\000"
 1517      444500
 1518              	.LASF45:
 1519 02e2 706F7274 		.ascii	"port_unlock_from_isr\000"
 1519      5F756E6C 
 1519      6F636B5F 
 1519      66726F6D 
 1519      5F697372 
 1520              	.LASF55:
 1521 02f7 63685379 		.ascii	"chSysTimerHandlerI\000"
 1521      7354696D 
 1521      65724861 
 1521      6E646C65 
 1521      724900
 1522              	.LASF50:
 1523 030a 73745F6C 		.ascii	"st_lld_init\000"
 1523      6C645F69 
 1523      6E697400 
 1524              	.LASF11:
 1525 0316 73697A65 		.ascii	"sizetype\000"
ARM GAS  /tmp/ccTk1ojM.s 			page 44


 1525      74797065 
 1525      00
 1526              	.LASF53:
 1527 031f 2F686F6D 		.ascii	"/home/awygle/ChibiOS-RT/demos/STM32/NIL-STM32F051-D"
 1527      652F6177 
 1527      79676C65 
 1527      2F436869 
 1527      62694F53 
 1528 0352 4953434F 		.ascii	"ISCOVERY\000"
 1528      56455259 
 1528      00
 1529              	.LASF54:
 1530 035b 5F736176 		.ascii	"_saved_lr\000"
 1530      65645F6C 
 1530      7200
 1531              		.comm	__gnu_lto_v1,1,1
 1532              		.ident	"GCC: (4.8.2-14ubuntu1+6) 4.8.2"
ARM GAS  /tmp/ccTk1ojM.s 			page 45


DEFINED SYMBOLS
                            *ABS*:0000000000000000 hal_st_lld.c
     /tmp/ccTk1ojM.s:252    .text.Vector7C:0000000000000000 $t
     /tmp/ccTk1ojM.s:258    .text.Vector7C:0000000000000000 Vector7C
     /tmp/ccTk1ojM.s:333    .text.st_lld_init:0000000000000000 $t
     /tmp/ccTk1ojM.s:339    .text.st_lld_init:0000000000000000 st_lld_init
     /tmp/ccTk1ojM.s:396    .text.st_lld_init:000000000000003c $d
                            *COM*:0000000000000001 __gnu_lto_v1
                     .debug_frame:0000000000000010 $d
     /tmp/ccTk1ojM.s:402    .text.st_lld_init:0000000000000048 $t

UNDEFINED SYMBOLS
chSysTimerHandlerI
_port_irq_epilogue
nvicEnableVector
