ARM GAS  /tmp/ccoexaHt.s 			page 1


   1              		.cpu cortex-m0
   2              		.fpu softvfp
   3              		.eabi_attribute 20, 1
   4              		.eabi_attribute 21, 1
   5              		.eabi_attribute 23, 3
   6              		.eabi_attribute 24, 1
   7              		.eabi_attribute 25, 1
   8              		.eabi_attribute 26, 1
   9              		.eabi_attribute 30, 2
  10              		.eabi_attribute 34, 0
  11              		.eabi_attribute 18, 4
  12              		.code	16
  13              		.file	"hal_pal.c"
  14              		.text
  15              	.Ltext0:
  16              		.section	.gnu.lto_.jmpfuncs.3d8ebabbe0c1e5ba,"",%progbits
  17 0000 789C6362 		.ascii	"x\234cb`b\300\006D\24043\003##3\02333\204\315\300X\006"
  17      6062C006 
  17      44A03433 
  17      03232333 
  17      13333384 
  18 0018 A4010623 		.ascii	"\244\001\006#\000\243"
  18      00A3
  19              		.text
  20              		.section	.gnu.lto_.inline.3d8ebabbe0c1e5ba,"",%progbits
  21 0000 789C6362 		.ascii	"x\234cb`b\300\006\276Cif\006\006N\016Ff\006F0\023D:"
  21      6062C006 
  21      BE436966 
  21      06064E0E 
  21      46660646 
  22 0018 8049050E 		.ascii	"\200I\005\016\266\017z\014l\013\344\231\030\030_\260"
  22      B60F7A0C 
  22      6C0BE499 
  22      18185FB0 
  23 0028 B3404810 		.ascii	"\263@H\020\301\001fr\200\010\0010S\000d\014#\003\037"
  23      C1016672 
  23      80080130 
  23      5300640C 
  23      23031F
  24 003b 2F230BC4 		.ascii	"/#\013\304\024FF\210\010\320\020\210\201\334L\027\370"
  24      14464688 
  24      08D01088 
  24      81DC4C17 
  24      F8
  25 004c 318C028A 		.ascii	"1\214\002\212\241\030\302\262@^\002\304R`b`\336!\256"
  25      A118C2B2 
  25      405E02C4 
  25      52606260 
  25      DE21AE
  26 005f C000B4DE 		.ascii	"\300\000\264\336\002d\016\023\003\2670\212\373\240\206"
  26      02640E13 
  26      03B7308A 
  26      FBA086
  27 006e 7202E588 		.ascii	"r\002\345\210s\036\320&\011\220I,\274@}\023\374@\220"
  27      731ED026 
  27      0990492C 
  27      BC407D13 
ARM GAS  /tmp/ccoexaHt.s 			page 2


  27      FC4090
  28 0081 01003C62 		.ascii	"\001\000<b\037\210"
  28      1F88
  29              		.text
  30              		.section	.gnu.lto_.pureconst.3d8ebabbe0c1e5ba,"",%progbits
  31 0000 789C6362 		.ascii	"x\234cb`b`g\200\000f\006)F)&I\000\001\312\000_"
  31      60626067 
  31      80006606 
  31      29462926 
  31      490001CA 
  32              		.text
  33              		.section	.gnu.lto_palReadBus.3d8ebabbe0c1e5ba,"",%progbits
  34 0000 789C6D90 		.ascii	"x\234m\220\275N\303@\020\204g\366|\261\235\202\236\006"
  34      BD4EC340 
  34      108467F6 
  34      7CB19D82 
  34      9E06
  35 0012 A52692FD 		.ascii	"\245&\222\3752A\002\032d\\\004K\211@\344\001b\342TT"
  35      3241021A 
  35      645C044B 
  35      8940E401 
  35      62E25454 
  36 0026 1115828A 		.ascii	"\021\025\202\212\206\202\"\264H4\210\202.\010Z*$Z\304"
  36      868222B4 
  36      48348882 
  36      2E085A2A 
  36      245AC4
  37 0039 2B843D1B 		.ascii	"+\204=\033\033\201r\272\233\275\237\375fW'\020\374\037"
  37      1B8172BA 
  37      9BBD9FFD 
  37      66572710 
  37      FC1F
  38 004b EBBA4E09 		.ascii	"\353\272N\011t4\322\2002{\006N\002!\335\006\304X8\336"
  38      7434D280 
  38      327B064E 
  38      0221DD06 
  38      C45838DE 
  39 005f 61997B2B 		.ascii	"a\231{+\017\357\313\345\374\354\351\372\223\347\322"
  39      0FEFCBE5 
  39      FCECE9FA 
  39      93E7D2
  40 006e 160E0983 		.ascii	"\026\016\011\203\214\360ThU\244\245b|w\014\234\204*"
  40      8CF05468 
  40      55A4A562 
  40      7C770C9C 
  40      842A
  41 0080 9E9216D3 		.ascii	"\236\222\026\323<\237u\206T\243\2644\353\251\272\012"
  41      3C9F7586 
  41      54A3B434 
  41      EBA9BA0A 
  42 0090 5B1417CD 		.ascii	"[\024\027\315\002\223\267\273\217\027&\274R\247>M\027"
  42      0293B7BB 
  42      8F1726BC 
  42      52A73E4D 
  42      17
  43 00a1 9B19ED25 		.ascii	"\233\031\355%.\230\261\325\247lk\364\3136\366Y7\277"
  43      2E98B1D5 
ARM GAS  /tmp/ccoexaHt.s 			page 3


  43      A76C6BF4 
  43      CB36F659 
  43      37BF
  44 00b3 C0E36E0D 		.ascii	"\300\343n\015x]\334\344SM\012*&T\017\307\330\037\206"
  44      785DDCE4 
  44      534D0A2A 
  44      26540FC7 
  44      D81F86
  45 00c6 0D336918 		.ascii	"\0153i\030[\026i\257.\"\277\300\227\251\011M\262\356"
  45      5B1669AF 
  45      2E22BFC0 
  45      97A9094D 
  45      B2EE
  46 00d8 AA983757 		.ascii	"\252\2307W\276\326\326\207\277\316A\351\354\255v6\215"
  46      BED6D687 
  46      BFCE41E9 
  46      ECAD7636 
  46      8D
  47 00e9 73715FAC 		.ascii	"sq_\254\325HXZ\005\300+\232_\010\253\304\236v\257\237"
  47      D548585A 
  47      05C02B9A 
  47      5F08ABC4 
  47      9E76AF9F 
  48 00fd E43ADA88 		.ascii	"\344:\332\210\242\270\232\207\243\370 \031\304\243\343"
  48      A2B89A87 
  48      A3F82019 
  48      C4A3E3
  49 010c D4C5BDA3 		.ascii	"\324\305\275\243d\020\245\370\006}\023S\301"
  49      6410A5F8 
  49      067D1353 
  49      C1
  50              		.text
  51              		.section	.gnu.lto_palWriteBus.3d8ebabbe0c1e5ba,"",%progbits
  52 0000 789C6D51 		.ascii	"x\234mQ\261N\002A\020\235\331=\216\343\340\016\355\264"
  52      B14E0241 
  52      109DD93D 
  52      8EE3E00E 
  52      EDB4
  53 0012 31247692 		.ascii	"1$v\222\300\007\370\005\366\230\250\2159)\360\022\210"
  53      C007F805 
  53      F698A88D 
  53      3929F012 
  53      88
  54 0023 463E0050 		.ascii	"F>\000P\012Kj\251lM\324\306\206h\242\261\260\323\304"
  54      0A4B6AA9 
  54      6C4DD4C6 
  54      8668A2B1 
  54      B0D3C4
  55 0036 CE58F105 		.ascii	"\316X\361\005\332X\232\340\233=\366\210\204\315\335"
  55      DA589AE0 
  55      9B3DF688 
  55      84CDDD
  56 0045 9BD9B733 		.ascii	"\233\331\2673o\337\334)R4\277V\361n\202.!\262&V\203"
  56      6FDFDC29 
  56      5234BF56 
  56      F16E822E 
  56      21B22656 
ARM GAS  /tmp/ccoexaHt.s 			page 4


  57 005a 37A29EA7 		.ascii	"7\242\236\247\230%!\246\216\342\316.\233\332[\3654\236"
  57      982521A6 
  57      8EE2CE2E 
  57      9BDA5BF5 
  57      349E
  58 006c 4C6E7E5E 		.ascii	"Ln~^\356~y\250\226\025\267\2304\305L\0162\316 cW +\340"
  58      EE7E79A8 
  58      9615B798 
  58      34C54C0E 
  58      32CE2063 
  59 0084 01544EC0 		.ascii	"\001TN\300\007\350\274p\005\201@\266\241dE\001\350f"
  59      07E8BC70 
  59      058140B6 
  59      A1644501 
  59      E866
  60 0096 A8DFED0E 		.ascii	"\250\337\355\016J-\206\217\272\271\252\006\224\373\267"
  60      4A2D868F 
  60      BAB9AA06 
  60      94FBB7
  61 00a5 4121EA57 		.ascii	"A!\352W:\375\374\370^\211\370\022\3274X\227i#fgH\027"
  61      3AFDFCF8 
  61      5E89F812 
  61      D7345897 
  61      69236667 
  62 00bb 1C73A6C1 		.ascii	"\034s\246\301j\007\3215\036\017\330N\206\236\007m;P"
  62      6A07D135 
  62      1E0FD84E 
  62      869E076D 
  62      3B50
  63 00cd E4186ACF 		.ascii	"\344\030j\3172\256\321\310.\326\340T\343\354>\325\310"
  63      32AED1C8 
  63      2ED6E054 
  63      E3EC3ED5 
  63      C8
  64 00de 1A19F7BF 		.ascii	"\032\031\367\277\214gd\274\3052j&s\236\312\344\320$"
  64      8C6764BC 
  64      C5326A26 
  64      739ECAE4 
  64      D024
  65 00f0 456A2931 		.ascii	"Ej)1\371\225\236\37084\305\327)\2257\327\372sN\012\230"
  65      F9959EF8 
  65      3834C5D7 
  65      299537D7 
  65      FA734E0A 
  66 0105 C63A99B5 		.ascii	"\306:\231\265\007\020\236k\017Mm`\330Q\312\026\215n"
  66      07109E6B 
  66      0F4D6D60 
  66      D851CA16 
  66      8D6E
  67 0117 28ECF356 		.ascii	"(\354\363VB\226\351\252\333\207\251\234M\374d\"\324"
  67      4296E9AA 
  67      DB87A99C 
  67      4DFC6422 
  67      D4
  68 0128 6931EB4C 		.ascii	"i1\353L'\322\323\230\354!E\364N\275\361\343z\"cW\015"
  68      27D2D398 
  68      EC2145F4 
ARM GAS  /tmp/ccoexaHt.s 			page 5


  68      4EBDF1E3 
  68      7A226357 
  69 013d 5F10FF4D 		.ascii	"_\020\377M\346_\253T\252\311s\324\256\036F\315j\373"
  69      E65FAB54 
  69      AAC973D4 
  69      AE1E46CD 
  69      6AFB
  70 014f A42E71FF 		.ascii	"\244.q\3778jV\352\364\0076Ft8"
  70      386A56EA 
  70      F4073646 
  70      7438
  71              		.text
  72              		.section	.gnu.lto_palSetBusMode.3d8ebabbe0c1e5ba,"",%progbits
  73 0000 789C6D90 		.ascii	"x\234m\220\277J\003A\020\306\277o\366\376\231\312R\033"
  73      BF4A0341 
  73      10C6BF6F 
  73      F6FE99CA 
  73      521B
  74 0012 09A453B8 		.ascii	"\011\244S\270{\231\010j#\347\201\347A\202bJ\213\\\324"
  74      7B99086A 
  74      23E781E7 
  74      4182624A 
  74      8B5CD4
  75 0025 C232B582 		.ascii	"\3022\265\202\340\003hZK;+\025-S\345\001$\017\240E2"
  75      E003685A 
  75      4B3B2B15 
  75      2D53E501 
  75      240FA045 
  76 003a BBE729C8 		.ascii	"\273\347)\310-\2733\273\337\316ofv\005\202\377c]\327"
  76      2DBB33BB 
  76      DFCE6F66 
  76      760582FF 
  76      635DD7
  77 004d 2181B67A 		.ascii	"!\201\266z\032P\306\257\300(\022\322n@\014\205\303]"
  77      1A50C6AF 
  77      C02812D2 
  77      6E400C85 
  77      C35D
  78 005f BAD8893C 		.ascii	"\272\330\211<\315\026\213\207\217\347\311'o\245%\354"
  78      CD168B87 
  78      8FE7C927 
  78      6FA525EC 
  79 006f 130605E1 		.ascii	"\023\006\005\341\251\241\257F\0025&\264\307Ho-\346\343"
  79      A9A1AF46 
  79      023526B4 
  79      C7486F2D 
  79      E6E3
  80 0081 B22CC7ED 		.ascii	"\262,\307\355>\265v\346\362t\325\332\344\333*\2517/"
  80      3EB576E6 
  80      F274D5DA 
  80      E4DB2AA9 
  80      372F
  81 0093 389F3E7E 		.ascii	"8\237>~\257\245\274\323\0349\315\0266\013z7\270fA?\247"
  81      AFA5BCD3 
  81      1C39CD16 
  81      360B7A37 
  81      B866413F 
ARM GAS  /tmp/ccoexaHt.s 			page 6


  82 00a8 ECA80F5C 		.ascii	"\354\250\017\\\003\007\254\333Vf\257\006<\007\204\315"
  82      0307ACDB 
  82      5666AF06 
  82      3C0784CD 
  83 00b8 001B00DF 		.ascii	"\000\033\000\337\001Q3 \177\300\334\324D\240\220\225"
  83      01513320 
  83      7FC0DCD4 
  83      44A09095 
  84 00c8 2EEE7FA5 		.ascii	".\356\177\245P\013\347\226zCPi\300\031\276\312\253r"
  84      500BE796 
  84      7A435069 
  84      C019BECA 
  84      AB72
  85 00da B5E04AF6 		.ascii	"\265\340J\366SX\237\343B\243\202-\340\035\243\331\274"
  85      53589FE3 
  85      42A3822D 
  85      E01DA3D9 
  85      BC
  86 00eb 534757A3 		.ascii	"SGW\243\253\221\372\013\266\354F\034'\325<\036$Gi/\031"
  86      AB91FA0B 
  86      B6EC461C 
  86      27D53C1E 
  86      2447692F 
  87 0100 9C66D6EF 		.ascii	"\234f\326\357\237\244\2758\303\022\012MNp"
  87      9FA4BD38 
  87      C3120A4D 
  87      4E70
  88              		.text
  89              		.section	.gnu.lto_.symbol_nodes.3d8ebabbe0c1e5ba,"",%progbits
  90 0000 789C6362 		.ascii	"x\234cb`bpe\200\002\246G\014\365\014\014\023\31610\324"
  90      60627065 
  90      8002A647 
  90      0CF50C0C 
  90      13CE3130 
  91 0015 D7CFEB60 		.ascii	"\327\317\353`dz\314P\317\210\304}\302P\317\204\3402"
  91      647ACC50 
  91      CF88C47D 
  91      C250CF84 
  91      E032
  92 0027 3E67A867 		.ascii	">g\250g\206p\033\032\030\231\231\230\031\026?\374\307"
  92      86701B1A 
  92      18999998 
  92      19163FFC 
  92      C7
  93 0038 C8000006 		.ascii	"\310\000\000\006@\025\325"
  93      4015D5
  94              		.text
  95              		.section	.gnu.lto_.refs.3d8ebabbe0c1e5ba,"",%progbits
  96 0000 789C6362 		.ascii	"x\234cb`b`d\200\002\000\000F\000\006"
  96      60626064 
  96      80020000 
  96      460006
  97              		.text
  98              		.section	.gnu.lto_.decls.3d8ebabbe0c1e5ba,"",%progbits
  99 0000 789CB558 		.ascii	"x\234\265X}L\024G\024\237\331\273C\016ND\255\006\223"
  99      7D4C1447 
  99      149FD9BB 
ARM GAS  /tmp/ccoexaHt.s 			page 7


  99      430E4E44 
  99      AD0693
 100 0013 56A8A98D 		.ascii	"V\250\251\2151\226\253XI\373\217i\025*\246X\310\241"
 100      3196AB58 
 100      49FB8F69 
 100      152AA658 
 100      C8A1
 101 0025 D1FEB55D 		.ascii	"\321\376\265]\271C.E\216pK\033\223&\035\300\257\222"
 101      B9432E45 
 101      8E704B1B 
 101      93261DC0 
 101      AF92
 102 0037 D4222AA5 		.ascii	"\324\"*\245\221\352!*\3324ZQ\244Z4\247Q\244h\300\330"
 102      91EA212A 
 102      DA345A51 
 102      A45A34A7 
 102      51A468C0 
 103 004c 609A7E5E 		.ascii	"`\232~^\255\306\020M\203\255\246\326\026\257ofw\271"
 103      ADC6104D 
 103      83ADA6D6 
 103      16AF6F66 
 103      77B9
 104 005e DD65F73E 		.ascii	"\335e\367>H\272\27177\273;\357\367~\357cfv\227C\034"
 104      48BAB937 
 104      37BB3BEF 
 104      F77EEF63 
 104      66769743 
 105 0073 7A1F2314 		.ascii	"z\037#\024\206c\343S\010M\343\020\262\"\204\226\240"
 105      8663E353 
 105      084DE310 
 105      B2228496 
 105      A0
 106 0084 C841CFDB 		.ascii	"\310A\317\333@\036\200\214\202\3301\032w\320\373\251"
 106      401E808C 
 106      82D8311A 
 106      77D0FBA9 
 107 0094 20774026 		.ascii	" w@&\201\330d\275v\220.\220c GAz@N\201\334\223\357\237"
 107      81D864BD 
 107      76902E90 
 107      63204741 
 107      7A404E81 
 108 00ac 04B90872 		.ascii	"\004\271\010r\027d\030\004\313X@\003\335\007\231\242"
 108      17641804 
 108      CB584003 
 108      DD0799A2 
 109 00bc B3453938 		.ascii	"\263E98\014\354\250m\264\313\370\324\3267\262=\233l"
 109      0CECA86D 
 109      B4CBF8D4 
 109      D637B23D 
 109      9B6C
 110 00ce 6B58B6D5 		.ascii	"kX\266\325\007rU\266G1- \177\203<\006\231\245\2639j"
 110      077255B6 
 110      47312D20 
 110      7F833C06 
 110      99A5B339 
 111 00e3 E29B91CD 		.ascii	"\342\233\221\315\331\240\233\202%<\265=N\025;z\317\006"
 111      D9A09B82 
ARM GAS  /tmp/ccoexaHt.s 			page 8


 111      253CB53D 
 111      4E153B7A 
 111      CF06
 112 00f5 FF492099 		.ascii	"\377I \231:[\231h/\011\204B\007o\216\340OIp\023\011"
 112      3A5B9968 
 112      2F098442 
 112      076F8EE0 
 112      4F497013 
 113 010a 873F4033 		.ascii	"\207?@3\321n\002G`\013!X\264\243m\204\324\321\223\202"
 113      D16E0247 
 113      600B2158 
 113      B4A36D84 
 113      D4D19382 
 114 011e BE3484D6 		.ascii	"\2764\204\326b\001\247\331Q\026\3538\354\214\327\\t"
 114      6201A7D9 
 114      5116EB38 
 114      EC8CD75C 
 114      74
 115 012f 8090C6D0 		.ascii	"\200\220\306\320\316\321\216\371\204$\013\270\035\333"
 115      CED18EF9 
 115      84240BB8 
 115      1DDB
 116 013d C1FE1A8C 		.ascii	"\301\376\032\214\346\243#\200\323\010\372\213\014R\210"
 116      E6A32380 
 116      D308FA8B 
 116      0C5288
 117 014c E287EEDE 		.ascii	"\342\207\356\336z\351<\256\003:\002\356`\340\037b\214"
 117      7AE93CAE 
 117      033A02EE 
 117      60E01F62 
 117      8C
 118 015d 047C08CF 		.ascii	"\004|\010\317O\030j\250\241\347\025\306\362s\006\024"
 118      4F186AA8 
 118      A1E715C6 
 118      F2730614 
 119 016d D4010978 		.ascii	"\324\001\011x\222]\315\221\235+\003(\032\273-wh\021"
 119      925DCD91 
 119      9D2B0328 
 119      1ABB2D77 
 119      6811
 120 017f 4F41FFF3 		.ascii	"OA\377\363p#_\250\346~<\223\365,,\327P0\015\221\010"
 120      70235FA8 
 120      E67E3C93 
 120      F52C2CD7 
 120      50300D91 
 121 0194 4C433B68 		.ascii	"LC;h\006\263T\261x[\321w\250\302:\360c\016\213\3051"
 121      06B354B1 
 121      785BD177 
 121      A8C23AF0 
 121      630E8BC5 
 122 01a9 3C0D507E 		.ascii	"<\015P~\327\305\"\026\012e\321\011\232\222\016\303$"
 122      D7C52216 
 122      0A65D109 
 122      9A920EC3 
 122      24
 123 01ba C1AE7E07 		.ascii	"\301\256~\007\261J\327\221\006Ms<\213\002\3006x\266"
 123      B14AD791 
ARM GAS  /tmp/ccoexaHt.s 			page 9


 123      064D733C 
 123      8B02C036 
 123      78B6
 124 01cc BF751609 		.ascii	"\277u\026\011\\\300\261\310\2078\305\356\002U\275\265"
 124      5CC0B1C8 
 124      8738C5EE 
 124      0255BDB5 
 125 01dc EDB330F6 		.ascii	"\355\2630\366\247\030\373\007\261\331ka(\275\323z\372"
 125      A718FB07 
 125      B1D96B61 
 125      28BDD37A 
 125      FA
 126 01ed FF0C30FA 		.ascii	"\377\0140\372\247c\323\337T\037\014\017H\364Y\365\325"
 126      A763D3DF 
 126      541F0C0F 
 126      48F459F5 
 126      D5
 127 01fe 47AD3E01 		.ascii	"G\255>\001\037\306s\343\3127\207j9,S3B\222\273\322!"
 127      1FC673E3 
 127      CA37876A 
 127      392C5333 
 127      4292BBD2 
 128 0213 0FD0D26A 		.ascii	"\017\320\322j\034t4\012\002\356a\005\2765a\260,\015"
 128      1C74340A 
 128      02EE6105 
 128      BE3561B0 
 128      2C0D
 129 0225 58931A6C 		.ascii	"X\223\032l{<`\311\346\314v\251\301\232\023\006\3232"
 129      7B3C60C9 
 129      E6CC76A9 
 129      C19A1306 
 129      D332
 130 0237 6B5683B5 		.ascii	"kV\203\265\306\003\226n\316\254E\015\026H\030L\315\254"
 130      C603966E 
 130      CEAC450D 
 130      1648184C 
 130      CDAC
 131 0249 36D83DD8 		.ascii	"6\330=\330\217I\223c:j\"\244\226\004\222\314\212\002"
 131      8F499363 
 131      3A6A22A4 
 131      960492CC 
 131      8A02
 132 025b 21368444 		.ascii	"!6\204D\035\"\340~<][\244{>N\243EJ\257\307\236c\237"
 132      1D22E07E 
 132      3C5D5BA4 
 132      7B3E4EA3 
 132      454AAFC7 
 133 0272 0D4A45AA 		.ascii	"\015JE\252,\235\007\230sTw\002\325E'\370`*ip\310\263"
 133      2C9D0798 
 133      73547702 
 133      D54527F8 
 133      602A6970 
 134 0288 2BF0EAE1 		.ascii	"+\360\352\341(\304\007\365\263k\337 \227%]\216\315\373"
 134      28C407F5 
 134      B36BDF20 
 134      97255D8E 
 134      CDFB
ARM GAS  /tmp/ccoexaHt.s 			page 10


 135 029a F8606B06 		.ascii	"\370`k\006\011\234\307\362\322N\266\220y*[\351\212-"
 135      099CC7F2 
 135      D24EB690 
 135      792A5BE9 
 135      8A2D
 136 02ac BAF88DED 		.ascii	"\272\370\215\355\022\335\013\330\202p\2359z\2103\334"
 136      12DD0BD8 
 136      82709D39 
 136      7A8833DC 
 137 02bc 23E2001A 		.ascii	"#\342\000\032j\350\220\366\210!\006t\214\323\357\021"
 137      6AE890F6 
 137      88210674 
 137      8CD3EF11 
 138 02cc 16DD1E61 		.ascii	"\026\335\036a\321\316j\213=\322\011\207-(\261\301\034"
 138      D1CE6A8B 
 138      3DD20987 
 138      2D28B1C1 
 138      1C
 139 02dd 3AC30C0E 		.ascii	":\303\014\016F\352OC2V\212\352BM\267\367\262\320)\221"
 139      46EA4F43 
 139      32568AEA 
 139      424DB7F7 
 139      B2D02991 
 140 02f1 3897305E 		.ascii	"8\2270^\272.'\034\2728\321\262Qy.9-\340\253\370Yh\007"
 140      BA2E271C 
 140      BA38D1B2 
 140      51792E39 
 140      2DE0ABF8 
 141 0308 A05519E8 		.ascii	"\240U\031\350\215g\322e\2308\0153\370+\365\014\276\222"
 141      8D67D265 
 141      98380D33 
 141      F82BF50C 
 141      BE92
 142 031a 30589606 		.ascii	"0X\226\006\354\214\032\354Z<`Y\346\314z\324`C\011\203"
 142      EC8C1AEC 
 142      5A3C6059 
 142      E6CC7AD4 
 142      60430983 
 143 032e 69999D53 		.ascii	"i\231\235S\203}\037\017\330\274hI\321\344'\262\033\012"
 143      837D1F0F 
 143      D8BC6849 
 143      D1E427B2 
 143      1B0A
 144 0340 F80CDBAE 		.ascii	"\370\014\333\256\276f\231:\307\332 k/\260\366\"k{Y\333"
 144      BE66993A 
 144      C7DA206B 
 144      2FB0F622 
 144      6B7B59DB 
 145 0354 C7DA9F58 		.ascii	"\307\332\237X\373\013k\177e\355o\352\374\232?\221\005"
 145      FB0B6B7F 
 145      65ED6FEA 
 145      FC9A3F91 
 145      05
 146 0365 BF6D7E9A 		.ascii	"\277m~\232\256f]\360\024\300\241\237usM\363d m\365f"
 146      AE665DF0 
 146      14C0A19F 
 146      75734DF3 
ARM GAS  /tmp/ccoexaHt.s 			page 11


 146      64206DF5 
 147 037a ABCD1D00 		.ascii	"\253\315\035\0000^T\306\335\343\3200\263\3239\261=\026"
 147      305E54C6 
 147      DDE3D030 
 147      B3D339B1 
 147      3D16
 148 038c A658F7F6 		.ascii	"\246X\367\366\033Mxg=\351{Qy\336\035I\0301K\215\030"
 148      1B4D7867 
 148      3DE97B51 
 148      79DE1D49 
 148      18314B8D 
 149 03a1 1CE987C4 		.ascii	"\034\351\207\304&\362H|\353>\256g\217\304\367\230\375"
 149      26F2487C 
 149      EB3EAE67 
 149      8FC4F798 
 149      FD
 150 03b2 87E35629 		.ascii	"\207\343V)\233n\225\262i\027\036\233=\322\031{\366\250"
 150      9B6E95B2 
 150      69171E9B 
 150      3DD2197B 
 150      F6A8
 151 03c4 B3C4E185 		.ascii	"\263\304\341\205\321\016o\\Q\235\252\212:\301*\352$"
 151      D10E6F5C 
 151      519DAA8A 
 151      3AC12AEA 
 151      24
 152 03d5 AB8D61D6 		.ascii	"\253\215a\326\336\215U!\024\342(N\215\340\255\216,\246"
 152      DE8D5521 
 152      14E2284E 
 152      8DE0AD8E 
 152      2CA6
 153 03e7 F01260D1 		.ascii	"\360\022`\321z\374\034j'\244\011\336e\202Vx\227\261"
 153      7AFC1C6A 
 153      27A409DE 
 153      65825678 
 153      97B1
 154 03f9 4AAA1CDA 		.ascii	"J\252\034\332\305\206\265\341L\223\0073\331\300\363"
 154      C586B5E1 
 154      4C930733 
 154      D9C0F3
 155 0408 E8200DFD 		.ascii	"\350 \015\375\331[\305\005RJQ\024-\231\316\010\346\324"
 155      D95BC505 
 155      524A5114 
 155      2D99CE08 
 155      E6D4
 156 041a FE4A2F53 		.ascii	"\376J/S\301\207[\256\300\366O\376\245\253\271\346]J"
 156      C1875BAE 
 156      C0F64FFE 
 156      A5ABB9E6 
 156      5D4A
 157 042c C04B6698 		.ascii	"\300Kf\230\372\371P\373</\361\032;\221\010\351#\320"
 157      FAF950FB 
 157      3C2FF11A 
 157      3B9108E9 
 157      23D0
 158 043e 621801F2 		.ascii	"b\030\001\362\247\273@R\027\360\037\300P\300\017\242"
 158      A7BB4052 
ARM GAS  /tmp/ccoexaHt.s 			page 12


 158      17F01FC0 
 158      50C00FA2 
 159 044e 3B2FAB75 		.ascii	";/\253u{\012\224b>\300\200\315\325d:,f\204|D6\247c\346"
 159      7B0A9462 
 159      3EC080CD 
 159      D5643A2C 
 159      66847C44 
 160 0466 1C92B534 		.ascii	"\034\222\2654E\360\3100J\327/;\032kC\341pf\374!z\022"
 160      45F0C830 
 160      4AD72F3B 
 160      1A6B43E1 
 160      7066FC21 
 161 047c 254409BC 		.ascii	"%D\011\274\247\036\377BzO\255\345\250\253G,\372y\323"
 161      A71EFF42 
 161      7A4FADE5 
 161      A8AB472C 
 161      FA79D3
 162 048f 8127F20A 		.ascii	"\201'\362\012\250KM\247Iq>\376\316\022)N%?\243q\345"
 162      A84B4DA7 
 162      49713EFE 
 162      CE12294E 
 162      253FA371 
 163 04a4 E704CD8F 		.ascii	"\347\004\315\217D:\310\320\315\325\350(\263\374\214"
 163      443AC8D0 
 163      CDD5E828 
 163      B3FC8C
 164 04b3 EAF3B389 		.ascii	"\352\363\263\211\033\227\237\020\015So-\336Q\037\350"
 164      1B979F10 
 164      0D536F2D 
 164      DE511FE8 
 165 04c3 2323D4C5 		.ascii	"##\324\305\370\263\324\300\351\262\324eP\310c\3472S"
 165      F8B3D4C0 
 165      E9B2D465 
 165      50C863E7 
 165      3253
 166 04d5 5DF42EE9 		.ascii	"]\364.\351\242\247P\335\256\245:\007\265\221k\327B\267"
 166      A2A750DD 
 166      AEA53A07 
 166      B5916BD7 
 166      42B7
 167 04e7 6FB6E06D 		.ascii	"o\266\340m!\322H\236\204\303x*jd\357}-irI\204\016\006"
 167      21D2489E 
 167      84C3782A 
 167      6A64EF7D 
 167      2D697249 
 168 04fe 335A2225 		.ascii	"3Z\"%\221\254\360\305JI\320/\024\334\330`\222\221a<"
 168      91ACF0C5 
 168      4A49D02F 
 168      14DCD860 
 168      9291613C 
 169 0512 56C04D1C 		.ascii	"V\300M\034]\301vJ\214\331-\251\257\364\302\230r\377"
 169      5DC1764A 
 169      8CD92DA9 
 169      AFF4C298 
 169      72FF
 170 0524 C162F4B1 		.ascii	"\301b\364\261\203\001DW\225\215\256U\214J\353^\304\037"
 170      83014457 
ARM GAS  /tmp/ccoexaHt.s 			page 13


 170      958DAE55 
 170      8C4AEB5E 
 170      C41F
 171 0536 69A4F128 		.ascii	"i\244\361(\001\357\346\246\262\036s\204\214\355\230"
 171      01EFE6A6 
 171      B21E7384 
 171      8CED98
 172 0545 0EBB69A2 		.ascii	"\016\273i\242\232Ul\034\366H'E\303Y\031\005\236\205"
 172      9A556C1C 
 172      F6482745 
 172      C3591905 
 172      9E85
 173 0557 F42BA98E 		.ascii	"\364+\251\216\004l\253\262\357\002\246\037\245\244\364"
 173      046CABB2 
 173      EF02A61F 
 173      A5A4F4
 174 0566 041FF592 		.ascii	"\004\037\365\222\344/\3116\372mI\355\314\216\2103\272"
 174      E42FC936 
 174      FA6D49ED 
 174      CC8E8833 
 174      BA
 175 0577 CF0A262E 		.ascii	"\317\012&.\217\373\370\260'a\227[M\\\036\333b4\243\240"
 175      8FFBF8B0 
 175      2761975B 
 175      4D5C1EDB 
 175      6234A3A0 
 176 058b FB09A75B 		.ascii	"\373\011\247[?u$8\364\227\306e\335\363\012\235\013f"
 176      3F752438 
 176      F497C665 
 176      DDF30A9D 
 176      0B66
 177 059d 5CF67263 		.ascii	"\\\366rcV\345@\335\270\034+PU\012HZ\264@\351FA\312\022"
 177      56E540DD 
 177      B81C2B50 
 177      550A485A 
 177      B440E946 
 178 05b4 0ED47E93 		.ascii	"\016\324~\223@M\326\004j\277>P\252\025IG\202C\233\255"
 178      404DD604 
 178      6ABF3E50 
 178      AA154947 
 178      82439BAD 
 179 05c8 EA40A1D9 		.ascii	"\352@\241\331\331\331N\351\347\363;\313\205\012\247"
 179      D9D94EE9 
 179      E7F33BCB 
 179      850AA7
 180 05d7 BFBA94FE 		.ascii	"\277\272\224\376\363UBEv)Z\254\277]\345\253\026\375"
 180      F3554245 
 180      76295AAC 
 180      BF5DE5AB 
 180      16FD
 181 05e9 CE92552B 		.ascii	"\316\222U+\027\3458\013\013\363\234\313\213W\024\275"
 181      17E5380B 
 181      0BF39CCB 
 181      8B5714BD 
 182 05f9 9BA368F0 		.ascii	"\233\243h\360\025\025\356\354r\344\360\372\350\270\015"
 182      1515EEEC 
 182      72E4F0FA 
ARM GAS  /tmp/ccoexaHt.s 			page 14


 182      E8B80D
 183 0608 82FF1D5E 		.ascii	"\202\377\035^LZ\376\346\352\254e\350\031g\215\277\332"
 183      4C5AFEE6 
 183      EAAC65E8 
 183      19678DBF 
 183      DA
 184 0619 E9AD2CAD 		.ascii	"\351\255,\255\250q{\234\225\236\367*\274\353\234~\321"
 184      A8717B9C 
 184      959EF72A 
 184      BCEB9C7E 
 184      D1
 185 062a EDAD1441 		.ascii	"\355\255\024A#\271\006\376\027\345\360\342\013F\303"
 185      23B906FE 
 185      17E5F0E2 
 185      0B46C3
 186 0639 3608A5E5 		.ascii	"6\010\245\345\336J\217\223w{\312\204\232\012\221\027"
 186      DE4A8F93 
 186      777BCA84 
 186      9A0A9117 
 187 0649 375679FC 		.ascii	"7Vy\374\240\226\302\363\212\342\034=S\005Cq\246\034"
 187      A096C2F3 
 187      8AE21C3D 
 187      53054371 
 187      A61C
 188 065b D956142D 		.ascii	"\331V\024-\255\361;\374\342\006PX_\345\365\361\242m"
 188      ADF13BFC 
 188      E2065058 
 188      5FE5F5F1 
 188      A26D
 189 066d 65515EBE 		.ascii	"eQ^\276+\251h\325[\305\371\256IE%\305\371\371y.[\361"
 189      2BA968D5 
 189      5BC5F9AE 
 189      494525C5 
 189      F9F9792E 
 190 0683 EAE23C97 		.ascii	"\352\342<\227e\005HQ\236\013\257a\344\026\346\362\242"
 190      65054851 
 190      9E0BAF61 
 190      E416E6F2 
 190      A2
 191 0694 6C8E762D 		.ascii	"l\216v-~\217h+\255\360\010\325\270\300\272\264\304\345"
 191      7E8F682B 
 191      ADF008D5 
 191      B8C0BAB4 
 191      C4E5
 192 06a6 B2162E7B 		.ascii	"\262\026.{\303e}\355uW!m\012,K]\256\024)\014^7\004A"
 192      C3657DED 
 192      7557216D 
 192      0A2C4B5D 
 192      AE14290C 
 193 06be EA586948 		.ascii	"\352XiH\034\024\203/\023\374\342\313p\303WV\006P)\300"
 193      1C14832F 
 193      13FCE2CB 
 193      70C35756 
 193      065029C0 
 194 06d2 D0E511DC 		.ascii	"\320\345\021\334\300\317\262\256\306\237\012\247k\252"
 194      C0CFB2AE 
 194      C69F0AA7 
ARM GAS  /tmp/ccoexaHt.s 			page 15


 194      6BAA
 195 06e0 BDA207CE 		.ascii	"\275\242\007\316\255\353\274\242?\331\353\333\340s{"
 195      ADEBBCA2 
 195      3FD9EBDB 
 195      E0737B
 196 06ef 787132DC 		.ascii	"xq2\334)\361\210p}%\234[\351\305\031J\344y\000Z_\355"
 196      29F18870 
 196      7D259C5B 
 196      E9C5194A 
 196      E479005A 
 197 0705 ABA9A257 		.ascii	"\253\251\242W\255\245\345Bu2\317\227\325T\226\362\374"
 197      ADA5E542 
 197      7532CF97 
 197      D55496F2 
 197      FC
 198 0716 64A593BD 		.ascii	"d\245\223\2758\367\245\\\365\331\342\205\232\263\334"
 198      38F7A55C 
 198      F5D9E285 
 198      9AB3DC
 199 0725 FF003157 		.ascii	"\377\0001Wp\301"
 199      70C1
 200              		.text
 201              		.section	.gnu.lto_.symtab.3d8ebabbe0c1e5ba,"",%progbits
 202 0000 70616C52 		.ascii	"palReadBus\000\000\000\000\000\000\000\000\000\000\000"
 202      65616442 
 202      75730000 
 202      00000000 
 202      00000000 
 203 0015 00A10000 		.ascii	"\000\241\000\000\000palWriteBus\000\000\000\000\000"
 203      0070616C 
 203      57726974 
 203      65427573 
 203      00000000 
 204 002a 00000000 		.ascii	"\000\000\000\000\000\000\000\364\000\000\000palSetB"
 204      000000F4 
 204      00000070 
 204      616C5365 
 204      7442
 205 003c 75734D6F 		.ascii	"usMode\000\000\000\000\000\000\000\000\000\000\000\000"
 205      64650000 
 205      00000000 
 205      00000000 
 205      0000
 206 004e FD000000 		.ascii	"\375\000\000\000_pal_lld_setgroupmode\000\000\002\000"
 206      5F70616C 
 206      5F6C6C64 
 206      5F736574 
 206      67726F75 
 207 006b 00000000 		.ascii	"\000\000\000\000\000\000\000\000\011\001\000\000"
 207      00000000 
 207      09010000 
 208              		.text
 209              		.section	.gnu.lto_.opts,"",%progbits
 210 0000 272D6D63 		.ascii	"'-mcpu=cortex-m0' '-mno-thumb-interwork' '-mthumb' "
 210      70753D63 
 210      6F727465 
 210      782D6D30 
ARM GAS  /tmp/ccoexaHt.s 			page 16


 210      2720272D 
 211 0033 272D6767 		.ascii	"'-ggdb' '-O2' '-fomit-frame-pointer' '-falign-funct"
 211      64622720 
 211      272D4F32 
 211      2720272D 
 211      666F6D69 
 212 0066 696F6E73 		.ascii	"ions=16' '-ffunction-sections' '-fdata-sections' '-"
 212      3D313627 
 212      20272D66 
 212      66756E63 
 212      74696F6E 
 213 0099 666E6F2D 		.ascii	"fno-common' '-flto'\000"
 213      636F6D6D 
 213      6F6E2720 
 213      272D666C 
 213      746F2700 
 214              		.text
 215              		.cfi_sections	.debug_frame
 216              		.section	.text.palReadBus,"ax",%progbits
 217              		.align	2
 218              		.p2align 4,,15
 219              		.global	palReadBus
 220              		.code	16
 221              		.thumb_func
 222              		.type	palReadBus, %function
 223              	palReadBus:
 224              	.LFB98:
 225              		.file 1 "../../../os/hal/src/hal_pal.c"
 226              		.loc 1 65 0
 227              		.cfi_startproc
 228              	.LVL0:
 229              		.loc 1 69 0
 230 0000 0368     		ldr	r3, [r0]
 231 0002 8268     		ldr	r2, [r0, #8]
 232 0004 1B69     		ldr	r3, [r3, #16]
 233 0006 4068     		ldr	r0, [r0, #4]
 234              	.LVL1:
 235 0008 D340     		lsr	r3, r3, r2
 236 000a 1840     		and	r0, r3
 237              		.loc 1 70 0
 238              		@ sp needed
 239 000c 7047     		bx	lr
 240              		.cfi_endproc
 241              	.LFE98:
 242              		.size	palReadBus, .-palReadBus
 243 000e C046     		.section	.text.palWriteBus,"ax",%progbits
 244              		.align	2
 245              		.p2align 4,,15
 246              		.global	palWriteBus
 247              		.code	16
 248              		.thumb_func
 249              		.type	palWriteBus, %function
 250              	palWriteBus:
 251              	.LFB99:
 252              		.loc 1 90 0
 253              		.cfi_startproc
 254              	.LVL2:
ARM GAS  /tmp/ccoexaHt.s 			page 17


 255              		.loc 1 94 0
 256 0000 4268     		ldr	r2, [r0, #4]
 257 0002 8368     		ldr	r3, [r0, #8]
 258              		.loc 1 90 0
 259 0004 30B5     		push	{r4, r5, lr}
 260              		.cfi_def_cfa_offset 12
 261              		.cfi_offset 4, -12
 262              		.cfi_offset 5, -8
 263              		.cfi_offset 14, -4
 264              		.loc 1 94 0
 265 0006 151C     		mov	r5, r2
 266 0008 0468     		ldr	r4, [r0]
 267 000a 8D43     		bic	r5, r1
 268 000c 181C     		mov	r0, r3
 269              	.LVL3:
 270 000e 1140     		and	r1, r2
 271              	.LVL4:
 272 0010 1030     		add	r0, r0, #16
 273 0012 9940     		lsl	r1, r1, r3
 274 0014 8540     		lsl	r5, r5, r0
 275 0016 0B1C     		mov	r3, r1
 276 0018 2B43     		orr	r3, r5
 277 001a A361     		str	r3, [r4, #24]
 278              		.loc 1 95 0
 279              		@ sp needed
 280 001c 30BD     		pop	{r4, r5, pc}
 281              		.cfi_endproc
 282              	.LFE99:
 283              		.size	palWriteBus, .-palWriteBus
 284 001e C046     		.section	.text.palSetBusMode,"ax",%progbits
 285              		.align	2
 286              		.p2align 4,,15
 287              		.global	palSetBusMode
 288              		.code	16
 289              		.thumb_func
 290              		.type	palSetBusMode, %function
 291              	palSetBusMode:
 292              	.LFB100:
 293              		.loc 1 113 0
 294              		.cfi_startproc
 295              	.LVL5:
 296 0000 08B5     		push	{r3, lr}
 297              		.cfi_def_cfa_offset 8
 298              		.cfi_offset 3, -8
 299              		.cfi_offset 14, -4
 300              		.loc 1 113 0
 301 0002 031C     		mov	r3, r0
 302 0004 0A1C     		mov	r2, r1
 303              		.loc 1 117 0
 304 0006 5968     		ldr	r1, [r3, #4]
 305              	.LVL6:
 306 0008 9B68     		ldr	r3, [r3, #8]
 307 000a 0068     		ldr	r0, [r0]
 308              	.LVL7:
 309 000c 9940     		lsl	r1, r1, r3
 310 000e FFF7FEFF 		bl	_pal_lld_setgroupmode
 311              	.LVL8:
ARM GAS  /tmp/ccoexaHt.s 			page 18


 312              		.loc 1 118 0
 313              		@ sp needed
 314 0012 08BD     		pop	{r3, pc}
 315              		.cfi_endproc
 316              	.LFE100:
 317              		.size	palSetBusMode, .-palSetBusMode
 318 0014 C046C046 		.text
 318      C046C046 
 318      C046C046 
 319              	.Letext0:
 320              		.file 2 "/usr/include/newlib/machine/_default_types.h"
 321              		.file 3 "/usr/include/newlib/stdint.h"
 322              		.file 4 "../../../os/hal/ports/STM32/LLD/GPIOv2/hal_pal_lld.h"
 323              		.file 5 "../../../os/hal/include/hal_pal.h"