ARM GAS  /tmp/cckQpYO3.s 			page 1


   1              		.cpu cortex-m0
   2              		.fpu softvfp
   3              		.eabi_attribute 20, 1
   4              		.eabi_attribute 21, 1
   5              		.eabi_attribute 23, 3
   6              		.eabi_attribute 24, 1
   7              		.eabi_attribute 25, 1
   8              		.eabi_attribute 26, 1
   9              		.eabi_attribute 30, 2
  10              		.eabi_attribute 34, 0
  11              		.eabi_attribute 18, 4
  12              		.code	16
  13              		.file	"hal_st.c"
  14              		.text
  15              	.Ltext0:
  16              		.section	.gnu.lto_.jmpfuncs.b174d582d238fb3c,"",%progbits
  17 0000 789C6362 		.ascii	"x\234cb`b\300\006x\2414+\020322103\26200\000\000\002"
  17      6062C006 
  17      78A1342B 
  17      10333232 
  17      313033B2 
  18 0019 6D0023   		.ascii	"m\000#"
  19              		.text
  20              		.section	.gnu.lto_.inline.b174d582d238fb3c,"",%progbits
  21 0000 789C6362 		.ascii	"x\234cb`b\300\006R\2414+\003\003\013\017#X\021\333\002"
  21      6062C006 
  21      52A1342B 
  21      03030B0F 
  21      235811DB 
  22 0015 79B05A46 		.ascii	"y\260ZF.\020\301\300\306\012\024f\373\240\007\027gb"
  22      2E10C1C0 
  22      C60A1466 
  22      FBA00717 
  22      6762
  23 0027 6061060A 		.ascii	"`a\006\0121]\340\207\0131c\012\261`\0121\000\000\232"
  23      315DE087 
  23      0B31630A 
  23      B1600A31 
  23      00009A
  24 003a 48086D   		.ascii	"H\010m"
  25              		.text
  26              		.section	.gnu.lto_.pureconst.b174d582d238fb3c,"",%progbits
  27 0000 789C6362 		.ascii	"x\234cb`b\340f\200\000V\006\011F)&)f)\026)\000\004\027"
  27      6062E066 
  27      80005606 
  27      09462926 
  27      29662916 
  28 0018 009F     		.ascii	"\000\237"
  29              		.text
  30              		.section	.gnu.lto_stInit.b174d582d238fb3c,"",%progbits
  31 0000 789C6362 		.ascii	"x\234cb`b@\007\222@\\\011\304\362@\314\310\314\300\310"
  31      60624007 
  31      92405C09 
  31      C4F240CC 
  31      C8CCC0C8 
  32 0014 34E11C03 		.ascii	"4\341\034\003C#\007\023##\210\301\300\310P\317\304X"
  32      43230713 
ARM GAS  /tmp/cckQpYO3.s 			page 2


  32      232388C1 
  32      C0C850CF 
  32      C458
  33 0026 1FC90856 		.ascii	"\037\311\010V\273\236\351\300\203\377\377\327\375X\373"
  33      BB9EE9C0 
  33      83FFFFD7 
  33      FD58FB
  34 0035 B01EA894 		.ascii	"\260\036\250\224\201\201\225\241\245\241a\202\002\003"
  34      818195A1 
  34      A5A16182 
  34      0203
  35 0043 4332583E 		.ascii	"C2X>\004H\2024\20522\201h\346\363\014\315\017\376\331"
  35      04488234 
  35      85323281 
  35      68E6F30C 
  35      CD0FFED9 
  36 0057 24322E64 		.ascii	"$2.dd\005\312V3\374j\350h\020\310d\004\252\206\030\227"
  36      6405CA56 
  36      33FC6AE8 
  36      6810C864 
  36      04AA8618 
  37 006c 09A22F32 		.ascii	"\011\242/24>\370\317\004S\004\001!@\011\240\001 \307"
  37      343EF8CF 
  37      04530401 
  37      214009A0 
  37      0120C7
  38 007f CAEAE9E9 		.ascii	"\312\352\351\351CP~\261~Fb\216~qQ2\210\216/.\321Kf\000"
  38      43507EB1 
  38      7E46628E 
  38      7E715132 
  38      888E2F2E 
  39 0097 0032792A 		.ascii	"\0002y*\325"
  39      D5
  40              		.text
  41              		.section	.gnu.lto_stStartAlarm.b174d582d238fb3c,"",%progbits
  42 0000 789C9D91 		.ascii	"x\234\235\221AK\002A\024\307\337\177vW\275\325\265C"
  42      414B0241 
  42      14C7DF7F 
  42      7657BDD5 
  42      B543
  43 0012 205EAB5D 		.ascii	" ^\253]\312\017\320\245K\240\247\014\354$\233E.(\206"
  43      CA0FD0A5 
  43      4BA0A70C 
  43      EC249B45 
  43      2E2886
  44 0025 2B5D9D15 		.ascii	"+]\235\025\361,B\020zR\212 $O\201T\007\353VR u\015\374"
  44      F12C4210 
  44      7A528A20 
  44      244F8154 
  44      07EB5652 
  45 003d 0281DF60 		.ascii	"\002\201\337`\233\031\225\320K\320cv\337\314\177\337"
  45      9B1995D0 
  45      4BD06376 
  45      DFCC7FDF 
  46 004d FBFD1F3B 		.ascii	"\373\375\037;\214\030-\306\212x^A\224\024\031\032\201"
  46      8C182DC6 
  46      8A785E41 
ARM GAS  /tmp/cckQpYO3.s 			page 3


  46      9414191A 
  46      81
  47 005e D5DE89BC 		.ascii	"\325\336\211\274\020\003\344\206@%\206\322\001Tm\227"
  47      1003E486 
  47      402586D2 
  47      01546D97 
  48 006e F547BE7F 		.ascii	"\365G\276\177{_\275\356\240\301\202\0149\245\033T\341"
  48      7B5FBDEE 
  48      A0C1820C 
  48      39A51B54 
  48      E1
  49 007f BC16CE41 		.ascii	"\274\026\316A\234\322JI\210\267l\337\007\223Y{\241r"
  49      9CD24A49 
  49      88B76CDF 
  49      0793597B 
  49      A172
  50 0091 8828422D 		.ascii	"\210(B-\316\353\375\207\352\000\274\316\275\261\357"
  50      CEEBFD87 
  50      EA00BCCE 
  50      BDB1EF
  51 00a0 2F391023 		.ascii	"/9\020#\205!\333\222p\200\260JL\237\237\361D`\350\215"
  51      8521DB92 
  51      7080B04A 
  51      4C9F9FF1 
  51      4460E88D 
  52 00b4 9E078F1F 		.ascii	"\236\007\217\037_\345\340\324n\346\333\037|\016\015"
  52      5FE5E0D4 
  52      6EE6DB1F 
  52      7C0E0D
  53 00c3 1B6D4444 		.ascii	"\033mDD\245\215\026\014ASSlP\207W\274Q\363\373|\335"
  53      A58D160C 
  53      4153536C 
  53      508757BC 
  53      51F3FB7C 
  54 00d8 81B64637 		.ascii	"\201\266F7\342\304\267\035\350Mjx5\276\354\300\220n"
  54      E2C4B71D 
  54      E84D6A78 
  54      35BEECC0 
  54      906E
  55 00ea 012E4257 		.ascii	"\001.BW\306\001ew\010E\272\022$\245\006'SL\225\3310"
  55      C6016577 
  55      0845BA12 
  55      24A50627 
  55      534C95D9 
  56 00ff BD8BEE93 		.ascii	"\275\213\356\223f\343Rh\277h\355O4\346\320\232\024%"
  56      66E35268 
  56      BF68ED4F 
  56      34E6D09A 
  56      1425
  57 0111 ACF72F18 		.ascii	"\254\367/\030\233\207\311\333\035\2227n\337\351\223"
  57      9B87C9DB 
  57      1D92376E 
  57      DFE993
  58 0120 1F318B84 		.ascii	"\0371\213\204\260\025\367 \277\257\232\2465Yy\327\312"
  58      B015F720 
  58      BFAF9AA6 
  58      355979D7 
ARM GAS  /tmp/cckQpYO3.s 			page 4


  58      CA
  59 0131 D859CB2D 		.ascii	"\330Y\313-\244eN\271E3Mz\321\311\035G\027KN\363\205"
  59      A4654EB9 
  59      45334D7A 
  59      D1C91D47 
  59      174B4EF3 
  60 0146 A26BED25 		.ascii	"\242k\355%\342\321-+\026\333\261\022\273\361\263\315"
  60      E2D12D2B 
  60      16DBB112 
  60      BBF1B3CD 
  61 0156 69532A9B 		.ascii	"iS*\233=23\364\003I\226\213\214"
  61      3D3233F4 
  61      0349968B 
  61      8C
  62              		.text
  63              		.section	.gnu.lto_stStopAlarm.b174d582d238fb3c,"",%progbits
  64 0000 789C6362 		.ascii	"x\234cb`b@\007\222@|\024\210\203\201\230\221\231\201"
  64      60624007 
  64      92407C14 
  64      88838198 
  64      919981
  65 0013 9169C239 		.ascii	"\221i\3029\006\206F\016&FF\020\203\201\221\241\236\211"
  65      0686460E 
  65      26464610 
  65      838191A1 
  65      9E89
  66 0025 B13E9211 		.ascii	"\261>\222\021\254v=\323\201\007\377\377\257\373\326"
  66      AC763DD3 
  66      8107FFFF 
  66      AFFBD6
  67 0034 36E70DE3 		.ascii	"6\347\015\343l&\026\240\010+CKC\303\004\005\006\206"
  67      6C2616A0 
  67      082B434B 
  67      43C30405 
  67      0686
  68 0046 64B08A10 		.ascii	"d\260\212\020 \011\322\026\312\310\004\242\231\3172"
  68      2009D216 
  68      CAC804A2 
  68      99CF32
  69 0055 1CDA31E7 		.ascii	"\034\3321\347\322\363G\254pu\020\306\201\323\367\016"
  69      D2F347AC 
  69      707510C6 
  69      81D3F70E 
  70 0065 B2323024 		.ascii	"\26220$2.dd\005j\005\353\325fX\325\320\322\370`\342"
  70      322E6464 
  70      056A05EB 
  70      D56658D5 
  70      D0D2F860 
  71 007a DE69F299 		.ascii	"\336i\362\231\214\014\263\031f5Nh\020\310dd\214`\314"
  71      8C0CB319 
  71      66354E68 
  71      10C86464 
  71      8C60CC
  72 008d 64646A00 		.ascii	"ddj\000\002\026\0060\023\354\222$\220\226D\306\305@"
  72      02160630 
  72      13EC9224 
  72      909644C6 
ARM GAS  /tmp/cckQpYO3.s 			page 5


  72      C540
  73 009f ED6051B0 		.ascii	"\355`Q\260\340E\206\306\017\217\266\263@L\205\201\020"
  73      E04586C6 
  73      0F8FB6B3 
  73      404C8581 
  73      10
  74 00b0 A0E940A7 		.ascii	"\240\351@\247\200\264\311\352\351\351CP~\261~Fb\216"
  74      80B4C9EA 
  74      E9E94350 
  74      7EB17E46 
  74      628E
  75 00c2 7E715132 		.ascii	"~qQ2\210\216/.\321Kf0F\227-\310/*)\326\017\016\3615"
  75      888E2F2E 
  75      D14B6630 
  75      46972DC8 
  75      2F2A29D6 
  76 00da 36D2F7F1 		.ascii	"6\322\367\361q\321\017\361\364-3\204\252\217\317\311"
  76      71D10FF1 
  76      F42D3384 
  76      AA8FCFC9 
  77 00ea 49D1CB60 		.ascii	"I\321\313`\000\000\313\255P\252"
  77      0000CBAD 
  77      50AA
  78              		.text
  79              		.section	.gnu.lto_stSetAlarm.b174d582d238fb3c,"",%progbits
  80 0000 789C5D50 		.ascii	"x\234]P=K\003A\020\235\267\271K\322ik!\204\264\352\235"
  80      3D4B0341 
  80      109DB7B9 
  80      4BD2696B 
  80      2184B4EA 
  81 0015 9A1F6063 		.ascii	"\232\037`c#$\225'\304*\304(\346\340B$\027l\263\027\002"
  81      23249527 
  81      C42AC428 
  81      E6E04224 
  81      176CB317 
  82 002a 69431AC1 		.ascii	"iC\032\301`\021A\013\361\003\265\324\342\260\223\240"
  82      6011410B 
  82      F103B5D4 
  82      E2B093A0 
  83 003a 20FE8160 		.ascii	" \376\201`-\222\306\372\234\335$\205\031v\367\355<f"
  83      2D92C6FA 
  83      9CDD2485 
  83      1976F7ED 
  83      3C66
  84 004c E6BD5D41 		.ascii	"\346\275]A\202fc\201\367*\210\362\214\210\021D\347\235"
  84      82666381 
  84      F72A88F2 
  84      8C881144 
  84      E79D
  85 005e 28480A40 		.ascii	"(H\012@]\010\324\020h\354B\327\336\211p\030E\267\017"
  85      5D08D410 
  85      68EC42D7 
  85      DE897018 
  85      45B70F
  86 0071 EDCB6F9C 		.ascii	"\355\313o\234\011S\240\242y\223ZRvR\025pV\322\214\303"
  86      0953A0A2 
  86      79935A52 
ARM GAS  /tmp/cckQpYO3.s 			page 6


  86      76521570 
  86      56D28CC3 
  87 0085 A76ADF81 		.ascii	"\247j\337\201P\030{\245f\222(M})\273\341c{\000\331\225"
  87      50187BA5 
  87      6692284D 
  87      7D29BBE1 
  87      637B00D9 
  88 009a C1288AE6 		.ascii	"\301(\212\346\\\260\245\024T[\036.\220\322 \214\377"
  88      5CB0A514 
  88      545B1E2E 
  88      90D2208C 
  88      FF
  89 00ab 1E0F790C 		.ascii	"\036\017y\014\275\321\313\340\371\363\267\231\230\310"
  89      BDD1CBE0 
  89      F9F3B799 
  89      98C8
  90 00b9 4D75C3C1 		.ascii	"Mu\303\301\317\275Y\3049\322\\YD\037&O\323.V\350Z\266"
  90      CFBD59C4 
  90      39D25C59 
  90      441F264F 
  90      D32E56E8 
  91 00cf 8261EFE6 		.ascii	"\202a\357\346d\331El\211\2568\223\033.\214\036\235\006"
  91      64D9456C 
  91      89AE3893 
  91      1B2E8C1E 
  91      9D06
  92 00e1 1D39EFC2 		.ascii	"\0359\357\302Tjq\311ah\341\270\226\333\203\236t\301"
  92      546A71C9 
  92      6168E1B8 
  92      96DB839E 
  92      74C1
  93 00f3 93349B18 		.ascii	"\2234\233\030\273\2300\332\314\007\005\243\257'c,7\015"
  93      BB9830DA 
  93      CC0705A3 
  93      AF27632C 
  93      370D
  94 0105 8765F9B5 		.ascii	"\207e\371\265\352\217\027-\313\036\257\252o\227\213"
  94      EA8F172D 
  94      CB1EAFAA 
  94      6F978B
  95 0114 9EEDD74A 		.ascii	"\236\355\327J\012\013~\335*\221Qw+\007\231\331\222\243"
  95      0A0B7EDD 
  95      2A915177 
  95      2B0799D9 
  95      92A3
  96 0126 6AADEEDB 		.ascii	"j\255\356\333\333N.\263ng\263\233\266\263\225;^\233"
  96      DB4E2EB3 
  96      6E67B39B 
  96      B6B3953B 
  96      5E9B
  97 0138 34153C6F 		.ascii	"4\025<o\337*\323\037\203\203g/"
  97      DF2AD31F 
  97      8383672F 
  98              		.text
  99              		.section	.gnu.lto_stGetAlarm.b174d582d238fb3c,"",%progbits
 100 0000 789C6362 		.ascii	"x\234cb`b@\007\222@\374\014\210\203\201\230\221\231"
 100      60624007 
ARM GAS  /tmp/cckQpYO3.s 			page 7


 100      9240FC0C 
 100      88838198 
 100      9199
 101 0012 819169C2 		.ascii	"\201\221i\3029\006\206F\016&FF\020\203\201\221\241\236"
 101      39068646 
 101      0E264646 
 101      10838191 
 101      A19E
 102 0024 89B13E92 		.ascii	"\211\261>\222\021\254v=\323\201\007\377\377\257\373"
 102      11AC763D 
 102      D38107FF 
 102      FFAFFB
 103 0033 D43EEF0D 		.ascii	"\324>\357\015\343|&\026f\206L\2608+CKC\303\004\205\\"
 103      E37C2616 
 103      66864CB0 
 103      382B434B 
 103      43C30485 
 104 0048 1027192C 		.ascii	"\020'\031,\022\002$A\332C\031\231@4\363Y\206Cw\346\\"
 104      12022441 
 104      DA431999 
 104      4034F359 
 104      864377E6 
 105 005d FA6F0455 		.ascii	"\372o\004U\011\323r\340\344?\240\302D\306\205\214\254"
 105      09D372E0 
 105      E43FA0C2 
 105      44C6858C 
 105      AC
 106 006e 408D609D 		.ascii	"@\215`\235\351\214\314\272\014k\032Z\032\037L\374;]"
 106      E98CCCBA 
 106      0C6B1A5A 
 106      1A1F4CFC 
 106      3B5D
 107 0080 2A939151 		.ascii	"*\223\221Q\233a\025\220\3270\2311\223\221i6\303\254"
 107      9B611590 
 107      D7309931 
 107      93916936 
 107      C3AC
 108 0092 C6090D02 		.ascii	"\306\011\015\002\231\214\314\021@.K\003\020\2600\200"
 108      998CCC11 
 108      402E4B03 
 108      10B03080 
 109 00a2 9960E725 		.ascii	"\231`\347%\201LHd\\\0144\015,\312\012\361!T\204\201"
 109      814C4864 
 109      5C0C340D 
 109      2CCA0AF1 
 109      21548481 
 110 00b6 E12243E3 		.ascii	"\341\"C\343\207K\373y \366\001-\202H\207\000-\006\272"
 110      874BFB79 
 110      20F6012D 
 110      82488700 
 110      2D06BA
 111 00c9 111432B2 		.ascii	"\021\0242\262zz\372\020\224_\254\237\221\230\243_\\"
 111      7A7AFA10 
 111      945FAC9F 
 111      9198A35F 
 111      5C
 112 00da 940CA2E3 		.ascii	"\224\014\242\343\213K\364\222\031\214\321e\013\362\213"
ARM GAS  /tmp/cckQpYO3.s 			page 8


 112      8B4BF492 
 112      198CD165 
 112      0BF28B
 113 00e9 4A8AF583 		.ascii	"J\212\365\203C|\215\215\364}|\\\364C<}\313\014\241\352"
 113      437C8D8D 
 113      F47D7C5C 
 113      F4433C7D 
 113      CB0CA1EA 
 114 00fd E3737252 		.ascii	"\343srR\3642\030\000\326MV\220"
 114      F4321800 
 114      D64D5690 
 115              		.text
 116              		.section	.gnu.lto_.symbol_nodes.b174d582d238fb3c,"",%progbits
 117 0000 789C4DC7 		.ascii	"x\234M\307\261\015\2000\014E\301g\207L\312 ?\022\015"
 117      B10D8030 
 117      0C45C167 
 117      874CCA20 
 117      3F120D
 118 0013 25133012 		.ascii	"%\0230\0223\240@\302\026\210\002$|\3359\316\310\307"
 118      33A040C2 
 118      16880224 
 118      7CDD39CE 
 118      C8C7
 119 0025 2B826503 		.ascii	"+\202e\003i\235\315\017d\241'\362\320\206RhG\303_\273"
 119      699DCD0F 
 119      64A127F2 
 119      D0865268 
 119      47C35FBB 
 120 0039 507E5B8A 		.ascii	"P~[\212%2\323~\033\017Ll\037\256"
 120      2532D37E 
 120      1B0F4C6C 
 120      1FAE
 121              		.text
 122              		.section	.gnu.lto_.refs.b174d582d238fb3c,"",%progbits
 123 0000 789C6362 		.ascii	"x\234cb`b`d\200\002\000\000F\000\006"
 123      60626064 
 123      80020000 
 123      460006
 124              		.text
 125              		.section	.gnu.lto_.decls.b174d582d238fb3c,"",%progbits
 126 0000 789CB558 		.ascii	"x\234\265Xol\024E\024\237\331=\313]{\224\002\212\365"
 126      6F6C1445 
 126      149FD93D 
 126      CB5D7B94 
 126      028AF5
 127 0013 03A11831 		.ascii	"\003\241\0301\206\304\036\264\322\204/\010^\011mB\221"
 127      86C41EB4 
 127      D2842F08 
 127      5E096D42 
 127      91
 128 0024 5C4BD2C4 		.ascii	"\\K\322\304\017\347\322\036\366\222\353\237\364\266"
 128      0FE7D21E 
 128      F692EB9F 
 128      F4B6
 129 0032 1ABE4D5B 		.ascii	"\032\276M[\212(\220\264EH%\010-\177\012\025\014\246"
 129      8A2890B4 
 129      45482508 
ARM GAS  /tmp/cckQpYO3.s 			page 9


 129      2D7F0A15 
 129      0CA6
 130 0044 904A2985 		.ascii	"\220J)\205\343\177\223j@\020\021+zB\260\0325\326\240"
 130      E37F936A 
 130      4010112B 
 130      7A42B01A 
 130      35D6A0
 131 0057 40117BBE 		.ascii	"@\021{\276\235\335\275\233\335\316\226=\0227\274\327"
 131      9DDDBD9B 
 131      DDCE963D 
 131      1237BCD7 
 132 0067 B9DDF77E 		.ascii	"\271\335\367~\363\233\367\336\354\276A@\002\332\201"
 132      F39BF7DE 
 132      ECBE4140 
 132      02DA81
 133 0076 118AC135 		.ascii	"\021\212\3015g:B\205\002B)\010\241E(q)\277;@:Az@zA\372"
 133      673A4285 
 133      02422908 
 133      A1452871 
 133      29BF3B40 
 134 0091 414EA3F1 		.ascii	"AN\243\361\227b\007\020\350,\310n\355\236\240\335\347"
 134      97620710 
 134      E82CC86E 
 134      ED9EA0DD 
 134      E7
 135 00a2 D92B984E 		.ascii	"\331+\230N\220.\220t\0207\3109\220\363 \003 \017@\034"
 135      902E9074 
 135      1037C839 
 135      90F32003 
 135      200F401C 
 136 00b6 2022C830 		.ascii	" \"\3100\3105\220\253\032\246\342;\252\215\217\200\214"
 136      C83590AB 
 136      1AA6E23B 
 136      AA8D8F80 
 136      8C
 137 00c7 99B07B34 		.ascii	"\231\260{4\277s\014\026f\374\225\347N<\236S\257MNX\343"
 137      BF730C16 
 137      66FC95E7 
 137      4E3C9E53 
 137      AF4D4E58 
 138 00dc 24683E69 		.ascii	"$h>iX\035\367\201L1\341*\361J\3210\037\207\245\330>"
 138      581DF781 
 138      4C31E12A 
 138      F14AD130 
 138      1F87A5D8 
 139 00f1 8DD57BCF 		.ascii	"\215\325{\317\232pf\241\235\244=\032m\3325\210I+y\024"
 139      9A7066A1 
 139      9DA43D1A 
 139      6DDA3588 
 139      492B7914 
 140 0105 8B896806 		.ascii	"\213\211h\006\332J\340j_O\010\226%\274\350\031T\212"
 140      DA4AE06A 
 140      5F4F0896 
 140      25BCE819 
 140      548A
 141 0117 259CEE42 		.ascii	"%\234\356BYt\340v\321\011\020\222\360n<C\033\255\022"
 141      5974E076 
ARM GAS  /tmp/cckQpYO3.s 			page 10


 141      D1091092 
 141      F06E3C43 
 141      1BAD12
 142 012a 55380165 		.ascii	"U8\001ea4\027u\201\1773!\267\246\217\017\006\\/\242"
 142      61341775 
 142      817F3321 
 142      B7A68F0F 
 142      065C2FA2 
 143 013e 7DCA04E4 		.ascii	"}\312\004\344\000\021)\274\002\320\201g\261&\022\336"
 143      001129BC 
 143      02D08167 
 143      B12612DE 
 144 014e 830533CF 		.ascii	"\203\0053\317\350H\344\370\005ws}4\026\233e\237\344"
 144      E848E4F8 
 144      0577737D 
 144      34169B65 
 144      9FE4
 145 0160 7E8DA448 		.ascii	"~\215\244Hc\201\\h\003!\015\212c\301\000$\203\3475\007"
 145      63815C68 
 145      03210D8A 
 145      63C10024 
 145      83E73507 
 146 0174 ED05FAD1 		.ascii	"\355\005\372\321\376\216\376\271\2048%\334\205]\340"
 146      FE8EFEB9 
 146      843825DC 
 146      855DE0
 147 0183 BB1C03D8 		.ascii	"\273\034\003\330^<W#d\037\347\346\372\363\247q\003\360"
 147      5E3C5723 
 147      641FE7E6 
 147      FAF3A771 
 147      03F0
 148 0195 94F0218A 		.ascii	"\224\360!\212$?)\322?\357\236XH\031\035\2468\007\261"
 148      243F29D2 
 148      3FEF9E58 
 148      48191DA6 
 148      3807B1
 149 01a8 1148C293 		.ascii	"\021H\302\223\\\306 \302o\335@A\243\217\265\201\262"
 149      5CC620C2 
 149      6FDD4041 
 149      A38FB581 
 149      B2
 150 01b9 41A7A0FF 		.ascii	"A\247\240\377\331<Q\030\2646zL\204_@{\010i\215\356\033"
 150      D93C5118 
 150      B4367A4C 
 150      845F407B 
 150      08698DEE 
 151 01ce FE59FC90 		.ascii	"\376Y\374\220D\034z\244\317R\263N\250\010^,T\253D\031"
 151      441C7AA4 
 151      CF52B34E 
 151      A8085E2C 
 151      54AB4419 
 152 01e2 6D264D19 		.ascii	"m&M\0318^G\235\346:\352\346\326\321=\275\216\324\"\026"
 152      385E479D 
 152      E63AEAE6 
 152      D6D13DBD 
 152      8ED42216 
 153 01f6 D0A0891A 		.ascii	"\320\240\211\032\277J{\314\350\237q\321\273/\306\321"
ARM GAS  /tmp/cckQpYO3.s 			page 11


 153      BF4A7BCC 
 153      E89F71D1 
 153      BB2FC6D1 
 154 0206 F753F4EB 		.ascii	"\367S\364\353\334\205\223\373\345\005\352j$|\024\200"
 154      DC8593FB 
 154      E505EA6A 
 154      247C1480 
 155 0216 24DCFB44 		.ascii	"$\334\373Dk\3565\263:\316eu\367\342\346\347H{C$\026"
 155      6BEE35B3 
 155      3ACE6575 
 155      F7E2E6E7 
 155      487B4324 
 156 022b 7BD5BCC7 		.ascii	"{\325\274\307\025t\253\375s\222\263\311o\361\243\325"
 156      1574ABFD 
 156      7392B3C9 
 156      6FF1A3D5 
 157 023b 40BA0F10 		.ascii	"@\272\017\020\227NV\302\375\026\313\321\360Nqh6G\373"
 157      974E56C2 
 157      FD16CBD1 
 157      F04E7168 
 157      3647FB
 158 024e 2EFD5B8F 		.ascii	".\375[\217[\032\333\007\310\210RCz\202:\004\363\224"
 158      5B1ADB07 
 158      C8885243 
 158      7A823A04 
 158      F394
 159 0260 2AC81923 		.ascii	"*\310\031#H\032z?\261\231T_\253\205\235\305i,\"\335"
 159      481A7A3F 
 159      B199545F 
 159      AB859DC5 
 159      692C22DD 
 160 0274 868D136E 		.ascii	"\206\215\023nC\011\177\202\347\330*\374\251\250Y\211"
 160      43097F82 
 160      E7D82AFC 
 160      A9A85989 
 161 0284 6F96C2E1 		.ascii	"o\226\302\341\\\"\270\004\353p\031tN\326\354\220\265"
 161      5C22B804 
 161      EB701974 
 161      4ED6EC90 
 161      B5
 162 0295 99842FE0 		.ascii	"\231\204/\340\251\011\222$\276<\267u\332.\252\005\243"
 162      A9099224 
 162      BE3CB775 
 162      DA2EAA05 
 162      A3
 163 02a6 DF8E0F12 		.ascii	"\337\216\017\022\373\221\265B\323P\213\306$\276t\222"
 163      FB91B542 
 163      D3508BC6 
 163      24BE7492 
 164 02b6 A2FBBC89 		.ascii	"\242\373\274\211\342\257\240\276-\367\363\350+h\000"
 164      E2AFA0BE 
 164      2DF7F3E8 
 164      2B6800
 165 02c5 4F83AC44 		.ascii	"O\203\254DMYy,\2142\351 \270\252N\024\224D\266\014\271"
 165      4D59792C 
 165      8C32E920 
 165      B8AA4E14 
ARM GAS  /tmp/cckQpYO3.s 			page 12


 165      9444B60C 
 166 02da 8943BD8F 		.ascii	"\211C\275\2178I\326\256\331\250\235\254k\214l\035\332"
 166      3849D6AE 
 166      D9A89DAC 
 166      6B8C6C1D 
 166      DA
 167 02eb 01657C06 		.ascii	"\001e|\006\253\201\025\320o\224\202\342\313\013E|\371"
 167      AB8115D0 
 167      6F9482E2 
 167      CB0B457C 
 167      F9
 168 02fc 7A2CD25D 		.ascii	"z,\322]&\274mC\356fI\007\033I\032,\313\000\326\306\202"
 168      26BC6D43 
 168      EE664907 
 168      1B491A2C 
 168      CB00D6C6 
 169 0311 FD6507CC 		.ascii	"\375e\007\314i\315l;\0136\2324\230\221\331\016\026l"
 169      69CD6C3B 
 169      0B369A34 
 169      9891D90E 
 169      166C
 170 0323 CC0E5886 		.ascii	"\314\016X\2065\263\235,X\275\230,\230\221\331\247,X"
 170      35B39D2C 
 170      58BD982C 
 170      9891D9A7 
 170      2C58
 171 0335 931DB04C 		.ascii	"\223\035\260Lkf\335,\330\306\244\301\214\314\216\262"
 171      6B66DD2C 
 171      D8C6A4C1 
 171      8CCC8EB2 
 172 0345 602D76C0 		.ascii	"`-v\300\262\254\231\365\260`\333\222\00632;\306\202"
 172      B2AC99F5 
 172      B060DB92 
 172      0633323B 
 172      C682
 173 0357 6DB703F6 		.ascii	"m\267\003\366\2225\263\343,\330\316\244\301\214\314"
 173      9235B3E3 
 173      2CD8CEA4 
 173      C18CCC
 174 0366 4EB060BB 		.ascii	"N\260`\273\355\200\315\263bV\0379\371\206\202u\036^"
 174      ED80CDB3 
 174      62561F39 
 174      F9868275 
 174      1E5E
 175 0378 7E02EA34 		.ascii	"~\002\3524c\031\337\222<0#\263\313,\263\217\3550[l\015"
 175      6319DF92 
 175      3C3023B3 
 175      CB2CB38F 
 175      ED305B6C 
 176 038d 7685053B 		.ascii	"v\205\005;l\007\254\300:\001_\261`G\222\00632\373\232"
 176      6C07ACC0 
 176      3A015FB1 
 176      60479206 
 176      3332FB9A 
 177 03a1 053B6607 		.ascii	"\005;f\007l\2455\263oX\260\276\244\301Xf\365\221o!\233"
 177      6CA535B3 
 177      6F58B0BE 
ARM GAS  /tmp/cckQpYO3.s 			page 13


 177      A4C15866 
 177      F5916F21 
 178 03b6 DA17AF7D 		.ascii	"\332\027\257}\261\351\313\270\330\370\0123\230\035\262"
 178      B1E9CBB8 
 178      D8F80A33 
 178      981DB2
 179 03c5 3493F0DF 		.ascii	"4\223\360\337I\177\030\357Y|\030\331\203Q\302\012\226"
 179      497F18EF 
 179      597C18D9 
 179      8351C20A 
 179      96
 180 03d6 7DDABC6C 		.ascii	"}\332\274l\003\011mX\312\211!\357b\277~\022\376\234"
 180      03096D58 
 180      CA8921EF 
 180      62BF7E12 
 180      FE9C
 181 03e8 B6135FE0 		.ascii	"\266\023_\340\331\240/Q\375%\325W\251\276F\365u\252"
 181      D9A02F51 
 181      FD25D557 
 181      A9BE46F5 
 181      75AA
 182 03fa 6F503D44 		.ascii	"oP=D\365M\252\177\240\372G\252oS}\207\352a\252\177\241"
 182      F54DAA7F 
 182      A0FA47AA 
 182      6F537D87 
 182      EA61AA7F 
 183 040f FA57AA7F 		.ascii	"\372W\252\177\247\372\017\252\377\244\372.\350\370e"
 183      A7FA0FAA 
 183      FFA4FA2E 
 183      E8F865
 184 041e 6A99062C 		.ascii	"j\231\006,\362\253p\177\000-\223v)\335Zd\004\272\265"
 184      F2AB707F 
 184      002D9376 
 184      29DD5A64 
 184      04BAB5
 185 0431 EFCEE0D6 		.ascii	"\357\316\340\326F\242vk\355N\275\343\275 r;\336\253"
 185      46A2766B 
 185      ED4EBDE3 
 185      BD20723B 
 185      DEAB
 186 0443 8102BDCB 		.ascii	"\201\002\275\313\277A-Fmv\2747\310\312\314x\303;jnx"
 186      BF412D46 
 186      6D76BC37 
 186      C8CACC78 
 186      C33B6A6E 
 187 0458 1F1A9BC0 		.ascii	"\037\032\233\300\347Q\007\271|9zg\270\015o\210\302A"
 187      E75107B9 
 187      7C397A67 
 187      B80D6F88 
 187      C241
 188 046a 742C16C3 		.ascii	"t,\026\303z\253\325\226\256\235\267\242\373\"\231m\211"
 188      7AABD596 
 188      AE9DB7A2 
 188      FB22996D 
 188      89
 189 047b 36C5C9D6 		.ascii	"6\305\311\326\201\332\227\200\203\0207&\231\231|[\011"
 189      81DA9780 
ARM GAS  /tmp/cckQpYO3.s 			page 14


 189      83103726 
 189      99997C5B 
 189      09
 190 048c D70B4A16 		.ascii	"\327\013J\026\033\204D]\251c}\024\243\347\370\357E\316"
 190      1B84445D 
 190      A9637D14 
 190      A3E7F8EF 
 190      45CE
 191 049e 7F0DA8F4 		.ascii	"\177\015\250\364'v\325&\255\320'\235Lm\023\353Q-\371"
 191      2776D526 
 191      ADD0279D 
 191      4C6D13EB 
 191      512DF9
 192 04b1 56125E27 		.ascii	"V\022^'$\273A\232\004\376\006q\0338\353V\260\262\333"
 192      24BB419A 
 192      04FE0671 
 192      1B38EB56 
 192      B0B2DB
 193 04c4 A2E9BC66 		.ascii	"\242\351\274f\"\001=\232\266v\011\247b\246t~2\225\216"
 193      22013D9A 
 193      B67609A7 
 193      62A6747E 
 193      32958E
 194 04d7 DAE93F34 		.ascii	"\332\351?4\225\016\377(\266A0\325\300{\302\270\323D"
 194      950EFF28 
 194      B64130D5 
 194      C07BC2B8 
 194      D344
 195 04e9 64247265 		.ascii	"d$reP=\212\355\212d\350\245\271\311\301-\315S\201\370"
 195      503D8AED 
 195      8A64E8A5 
 195      B9C9C12D 
 195      CD5381F8 
 196 04fd 61EC113D 		.ascii	"a\354\021=\214m\024\236\24047\232im\022\270\245y\217"
 196      8C6D149E 
 196      A034379A 
 196      696D12B8 
 196      A5798F
 197 0510 5B9A1226 		.ascii	"[\232\022&\211T\226\352\223\246M\224p\223\225\204[\222"
 197      895496EA 
 197      93A64D94 
 197      70939584 
 197      5B92
 198 0522 4E78AB45 		.ascii	"Nx\253E\302S\015\013\321\255`\270^0\035VM$\004\364\221"
 198      C2530D0B 
 198      D1AD60B8 
 198      5E301D56 
 198      4D2404F4 
 199 0537 839BF0B1 		.ascii	"\203\233\360\261V\274\205M\370I\232\220\203\016n\302"
 199      56BC854D 
 199      F8499A90 
 199      830E6EC2 
 200 0547 CDA7C90F 		.ascii	"\315\247\311\017,\362\241M\264\225\037\3501&\320\022"
 200      2CF2A14D 
 200      B4951FE8 
 200      3126D012 
 201 0557 6E86E0E8 		.ascii	"n\206\340\350\374\373'\340\177\302\300\037\315\314\316"
ARM GAS  /tmp/cckQpYO3.s 			page 15


 201      FCFB27E0 
 201      7FC2C01F 
 201      CDCCCE
 202 0566 F6A8FFAA 		.ascii	"\366\250\377\252\303\236\012)\344\011\327\226)\177\375"
 202      C39E0A29 
 202      E409D796 
 202      297FFD
 203 0575 6139BB0C 		.ascii	"a9\273\014\245\204\345\302\252\240\234\262l\305\252"
 203      A584E5C2 
 203      AAA09CB2 
 203      6CC5AA
 204 0584 2CAFD1B6 		.ascii	",\257\321\266*\030\362\004\253\312Bu\345\001OYEv\005"
 204      2A18F204 
 204      ABCA4275 
 204      E5014F59 
 204      457605
 205 0597 7285D786 		.ascii	"r\205\327\206\345`e\300/\317\364\324\205k\343\017\253"
 205      E56065C0 
 205      2FCFF4D4 
 205      856BE30F 
 205      AB
 206 05a8 02EF8482 		.ascii	"\002\357\204\202\253=a\271<X%\203\235\263\016\376\346"
 206      AB3D61B9 
 206      3C582583 
 206      9DB30EFE 
 206      E6
 207 05b9 E6F8E597 		.ascii	"\346\370\345\227yf\225RYE\260*\340\361\227\007\326H"
 207      79669552 
 207      5945B02A 
 207      E0F19707 
 207      D648
 208 05cb 7521D92F 		.ascii	"u!\331/\257\255\011\204\301-\325\357\327\035\335a\271"
 208      AFAD0984 
 208      C12DD5EF 
 208      D71DDD61 
 208      B9
 209 05dc 58966AE5 		.ascii	"X\226j\345%!\251\266r\222\264\232N\233\246\334\254\256"
 209      2521A9B6 
 209      7292B49A 
 209      4E9BA6DC 
 209      ACAE
 210 05ee A1F75261 		.ascii	"\241\367Ra\034\220\365\3412m\230k^jMu\255\034\366\024"
 210      1C90F5E1 
 210      326D986B 
 210      5E6A4D75 
 210      AD1CF614 
 211 0602 9714E5E6 		.ascii	"\227\024\345\346x\226/\317\367\224\024\026\275=_[\274"
 211      78962FCF 
 211      F7941416 
 211      BD3D5F5B 
 211      BC
 212 0613 3F142A87 		.ascii	"?\024*\207Y\323\324\221?\010Q\310\261\347\037\226+\025"
 212      59D3D491 
 212      3F0851C8 
 212      B1E71F96 
 212      2B15
 213 0625 92C14AD5 		.ascii	"\222\301J\325]\373\341\227E\257o>H\216\243\270\310\353"
ARM GAS  /tmp/cckQpYO3.s 			page 16


 213      5DFBE197 
 213      45AF6F3E 
 213      488EA3B8 
 213      C8EB
 214 0637 73E4172E 		.ascii	"s\344\027.\365\011\305>q\3512\337S^o\221o>\3259\016"
 214      F509C53E 
 214      71E932DF 
 214      535E6F91 
 214      6F3ED539 
 215 064c AF77A94F 		.ascii	"\257w\251O\364\256(\021W\026{\305%>\237\350\363\302"
 215      F4AE2811 
 215      57167BC5 
 215      253E9FE8 
 215      F3C2
 216 065e 6F70782D 		.ascii	"opx-\277\304'\346+\236EK|\302\353\252W.\330\227\372"
 216      BFC427E6 
 216      2B9E454B 
 216      7CC2EBAA 
 216      572ED897 
 217 0673 A66924C3 		.ascii	"\246i$\303JP\374\222\262V\207\022\022GY\205T\353\364"
 217      4A50FC92 
 217      B2568712 
 217      12475985 
 217      54EBF4
 218 0686 FBD7D455 		.ascii	"\373\327\324U\225\371\375\223\365A\366\202\274W\026"
 218      95F9FD93 
 218      F541F682 
 218      BC5716
 219 0695 4E8DFB54 		.ascii	"N\215\373T\327\250.\031\372\235\200\206\301:,\310\323"
 219      D7A82E19 
 219      FA9D8086 
 219      C13A2CC8 
 219      D3
 220 06a6 1FBFC57B 		.ascii	"\037\277\305{\2347\357?\272Zg\015"
 220      9C37EF3F 
 220      BA5A670D 
 221              		.text
 222              		.section	.gnu.lto_.symtab.b174d582d238fb3c,"",%progbits
 223 0000 7374496E 		.ascii	"stInit\000\000\000\000\000\000\000\000\000\000\000\000"
 223      69740000 
 223      00000000 
 223      00000000 
 223      0000
 224 0012 A1000000 		.ascii	"\241\000\000\000stStartAlarm\000\000\000\000\000\000"
 224      73745374 
 224      61727441 
 224      6C61726D 
 224      00000000 
 225 0028 00000000 		.ascii	"\000\000\000\000\000\000\246\000\000\000stStopAlarm"
 225      0000A600 
 225      00007374 
 225      53746F70 
 225      416C6172 
 226 003d 00000000 		.ascii	"\000\000\000\000\000\000\000\000\000\000\000\000\266"
 226      00000000 
 226      00000000 
 226      B6
ARM GAS  /tmp/cckQpYO3.s 			page 17


 227 004a 00000073 		.ascii	"\000\000\000stSetAlarm\000\000\000\000\000\000\000\000"
 227      74536574 
 227      416C6172 
 227      6D000000 
 227      00000000 
 228 005f 00000000 		.ascii	"\000\000\000\000\271\000\000\000stGetAlarm\000\000\000"
 228      B9000000 
 228      73744765 
 228      74416C61 
 228      726D0000 
 229 0074 00000000 		.ascii	"\000\000\000\000\000\000\000\000\000\275\000\000\000"
 229      00000000 
 229      00BD0000 
 229      00
 230 0081 73745F6C 		.ascii	"st_lld_init\000\000\002\000\000\000\000\000\000\000"
 230      6C645F69 
 230      6E697400 
 230      00020000 
 230      00000000 
 231 0096 0000C100 		.ascii	"\000\000\301\000\000\000"
 231      0000
 232              		.text
 233              		.section	.gnu.lto_.opts,"",%progbits
 234 0000 272D6D63 		.ascii	"'-mcpu=cortex-m0' '-mno-thumb-interwork' '-mthumb' "
 234      70753D63 
 234      6F727465 
 234      782D6D30 
 234      2720272D 
 235 0033 272D6767 		.ascii	"'-ggdb' '-O2' '-fomit-frame-pointer' '-falign-funct"
 235      64622720 
 235      272D4F32 
 235      2720272D 
 235      666F6D69 
 236 0066 696F6E73 		.ascii	"ions=16' '-ffunction-sections' '-fdata-sections' '-"
 236      3D313627 
 236      20272D66 
 236      66756E63 
 236      74696F6E 
 237 0099 666E6F2D 		.ascii	"fno-common' '-flto'\000"
 237      636F6D6D 
 237      6F6E2720 
 237      272D666C 
 237      746F2700 
 238              		.text
 239              		.cfi_sections	.debug_frame
 240              		.section	.text.stInit,"ax",%progbits
 241              		.align	2
 242              		.p2align 4,,15
 243              		.global	stInit
 244              		.code	16
 245              		.thumb_func
 246              		.type	stInit, %function
 247              	stInit:
 248              	.LFB98:
 249              		.file 1 "../../../os/hal/src/hal_st.c"
 250              		.loc 1 60 0
 251              		.cfi_startproc
ARM GAS  /tmp/cckQpYO3.s 			page 18


 252 0000 08B5     		push	{r3, lr}
 253              		.cfi_def_cfa_offset 8
 254              		.cfi_offset 3, -8
 255              		.cfi_offset 14, -4
 256              		.loc 1 62 0
 257 0002 FFF7FEFF 		bl	st_lld_init
 258              	.LVL0:
 259              		.loc 1 63 0
 260              		@ sp needed
 261 0006 08BD     		pop	{r3, pc}
 262              		.cfi_endproc
 263              	.LFE98:
 264              		.size	stInit, .-stInit
 265 0008 C046C046 		.section	.text.stStartAlarm,"ax",%progbits
 265      C046C046 
 266              		.align	2
 267              		.p2align 4,,15
 268              		.global	stStartAlarm
 269              		.code	16
 270              		.thumb_func
 271              		.type	stStartAlarm, %function
 272              	stStartAlarm:
 273              	.LFB99:
 274              		.loc 1 77 0
 275              		.cfi_startproc
 276              	.LVL1:
 277              	.LBB10:
 278              	.LBB11:
 279              		.file 2 "../../../os/hal/ports/STM32/LLD/TIMv1/hal_st_lld.h"
 280              		.loc 2 155 0
 281 0000 8023     		mov	r3, #128
 282 0002 DB05     		lsl	r3, r3, #23
 283              		.loc 2 156 0
 284 0004 0022     		mov	r2, #0
 285              		.loc 2 155 0
 286 0006 5863     		str	r0, [r3, #52]
 287              		.loc 2 156 0
 288 0008 1A61     		str	r2, [r3, #16]
 289              		.loc 2 157 0
 290 000a 0222     		mov	r2, #2
 291 000c DA60     		str	r2, [r3, #12]
 292              	.LBE11:
 293              	.LBE10:
 294              		.loc 1 82 0
 295              		@ sp needed
 296 000e 7047     		bx	lr
 297              		.cfi_endproc
 298              	.LFE99:
 299              		.size	stStartAlarm, .-stStartAlarm
 300              		.section	.text.stStopAlarm,"ax",%progbits
 301              		.align	2
 302              		.p2align 4,,15
 303              		.global	stStopAlarm
 304              		.code	16
 305              		.thumb_func
 306              		.type	stStopAlarm, %function
 307              	stStopAlarm:
ARM GAS  /tmp/cckQpYO3.s 			page 19


 308              	.LFB100:
 309              		.loc 1 91 0
 310              		.cfi_startproc
 311              	.LBB12:
 312              	.LBB13:
 313              		.loc 2 167 0
 314 0000 8023     		mov	r3, #128
 315 0002 0022     		mov	r2, #0
 316 0004 DB05     		lsl	r3, r3, #23
 317 0006 DA60     		str	r2, [r3, #12]
 318              	.LBE13:
 319              	.LBE12:
 320              		.loc 1 94 0
 321              		@ sp needed
 322 0008 7047     		bx	lr
 323              		.cfi_endproc
 324              	.LFE100:
 325              		.size	stStopAlarm, .-stStopAlarm
 326              		.section	.text.stSetAlarm,"ax",%progbits
 327              		.align	2
 328              		.p2align 4,,15
 329              		.global	stSetAlarm
 330              		.code	16
 331              		.thumb_func
 332              		.type	stSetAlarm, %function
 333              	stSetAlarm:
 334              	.LFB101:
 335              		.loc 1 105 0
 336              		.cfi_startproc
 337              	.LVL2:
 338              	.LBB14:
 339              	.LBB15:
 340              		.loc 2 179 0
 341 0000 8023     		mov	r3, #128
 342 0002 DB05     		lsl	r3, r3, #23
 343 0004 5863     		str	r0, [r3, #52]
 344              	.LBE15:
 345              	.LBE14:
 346              		.loc 1 110 0
 347              		@ sp needed
 348 0006 7047     		bx	lr
 349              		.cfi_endproc
 350              	.LFE101:
 351              		.size	stSetAlarm, .-stSetAlarm
 352              		.section	.text.stGetAlarm,"ax",%progbits
 353              		.align	2
 354              		.p2align 4,,15
 355              		.global	stGetAlarm
 356              		.code	16
 357              		.thumb_func
 358              		.type	stGetAlarm, %function
 359              	stGetAlarm:
 360              	.LFB102:
 361              		.loc 1 121 0
 362              		.cfi_startproc
 363              	.LBB16:
 364              	.LBB17:
ARM GAS  /tmp/cckQpYO3.s 			page 20


 365              		.loc 2 191 0
 366 0000 8023     		mov	r3, #128
 367 0002 DB05     		lsl	r3, r3, #23
 368 0004 586B     		ldr	r0, [r3, #52]
 369              	.LBE17:
 370              	.LBE16:
 371              		.loc 1 126 0
 372              		@ sp needed
 373 0006 7047     		bx	lr
 374              		.cfi_endproc
 375              	.LFE102:
 376              		.size	stGetAlarm, .-stGetAlarm
 377 0008 C046C046 		.text
 377      C046C046 
 378              	.Letext0:
 379              		.file 3 "/usr/include/newlib/machine/_default_types.h"
 380              		.file 4 "/usr/include/newlib/stdint.h"
 381              		.file 5 "../../../os/nil/include/ch.h"
 382              		.file 6 "../../../os/hal/ports/STM32/LLD/TIMv1/stm32_tim.h"
 383              		.section	.debug_info,"",%progbits
 384              	.Ldebug_info0:
 385 0000 5C030000 		.4byte	0x35c
 386 0004 0400     		.2byte	0x4
 387 0006 00000000 		.4byte	.Ldebug_abbrev0
 388 000a 04       		.byte	0x4
 389 000b 01       		.uleb128 0x1
 390 000c 14010000 		.4byte	.LASF36
 391 0010 01       		.byte	0x1
 392 0011 90000000 		.4byte	.LASF37
 393 0015 0F000000 		.4byte	.LASF38
 394 0019 00000000 		.4byte	.Ldebug_ranges0+0
 395 001d 00000000 		.4byte	0
 396 0021 00000000 		.4byte	.Ldebug_line0
 397 0025 02       		.uleb128 0x2
 398 0026 04       		.byte	0x4
 399 0027 05       		.byte	0x5
 400 0028 696E7400 		.ascii	"int\000"
 401 002c 03       		.uleb128 0x3
 402 002d 04       		.byte	0x4
 403 002e 07       		.byte	0x7
 404 002f D2010000 		.4byte	.LASF0
 405 0033 03       		.uleb128 0x3
 406 0034 01       		.byte	0x1
 407 0035 06       		.byte	0x6
 408 0036 8C020000 		.4byte	.LASF1
 409 003a 03       		.uleb128 0x3
 410 003b 01       		.byte	0x1
 411 003c 08       		.byte	0x8
 412 003d C5000000 		.4byte	.LASF2
 413 0041 03       		.uleb128 0x3
 414 0042 02       		.byte	0x2
 415 0043 05       		.byte	0x5
 416 0044 B7010000 		.4byte	.LASF3
 417 0048 03       		.uleb128 0x3
 418 0049 02       		.byte	0x2
 419 004a 07       		.byte	0x7
 420 004b 4B000000 		.4byte	.LASF4
ARM GAS  /tmp/cckQpYO3.s 			page 21


 421 004f 03       		.uleb128 0x3
 422 0050 04       		.byte	0x4
 423 0051 05       		.byte	0x5
 424 0052 72020000 		.4byte	.LASF5
 425 0056 04       		.uleb128 0x4
 426 0057 04010000 		.4byte	.LASF9
 427 005b 03       		.byte	0x3
 428 005c 38       		.byte	0x38
 429 005d 61000000 		.4byte	0x61
 430 0061 03       		.uleb128 0x3
 431 0062 04       		.byte	0x4
 432 0063 07       		.byte	0x7
 433 0064 E1000000 		.4byte	.LASF6
 434 0068 03       		.uleb128 0x3
 435 0069 08       		.byte	0x8
 436 006a 05       		.byte	0x5
 437 006b 1E020000 		.4byte	.LASF7
 438 006f 03       		.uleb128 0x3
 439 0070 08       		.byte	0x8
 440 0071 07       		.byte	0x7
 441 0072 DF010000 		.4byte	.LASF8
 442 0076 04       		.uleb128 0x4
 443 0077 69020000 		.4byte	.LASF10
 444 007b 04       		.byte	0x4
 445 007c 42       		.byte	0x42
 446 007d 56000000 		.4byte	0x56
 447 0081 05       		.uleb128 0x5
 448 0082 05000000 		.4byte	.LASF11
 449 0086 05       		.byte	0x5
 450 0087 D001     		.2byte	0x1d0
 451 0089 76000000 		.4byte	0x76
 452 008d 03       		.uleb128 0x3
 453 008e 04       		.byte	0x4
 454 008f 07       		.byte	0x7
 455 0090 0E020000 		.4byte	.LASF12
 456 0094 06       		.uleb128 0x6
 457 0095 76000000 		.4byte	0x76
 458 0099 07       		.uleb128 0x7
 459 009a 76000000 		.4byte	0x76
 460 009e A9000000 		.4byte	0xa9
 461 00a2 08       		.uleb128 0x8
 462 00a3 8D000000 		.4byte	0x8d
 463 00a7 01       		.byte	0x1
 464 00a8 00       		.byte	0
 465 00a9 07       		.uleb128 0x7
 466 00aa 76000000 		.4byte	0x76
 467 00ae B9000000 		.4byte	0xb9
 468 00b2 08       		.uleb128 0x8
 469 00b3 8D000000 		.4byte	0x8d
 470 00b7 03       		.byte	0x3
 471 00b8 00       		.byte	0
 472 00b9 09       		.uleb128 0x9
 473 00ba 60       		.byte	0x60
 474 00bb 06       		.byte	0x6
 475 00bc A101     		.2byte	0x1a1
 476 00be C5010000 		.4byte	0x1c5
 477 00c2 0A       		.uleb128 0xa
ARM GAS  /tmp/cckQpYO3.s 			page 22


 478 00c3 43523100 		.ascii	"CR1\000"
 479 00c7 06       		.byte	0x6
 480 00c8 A201     		.2byte	0x1a2
 481 00ca 94000000 		.4byte	0x94
 482 00ce 00       		.byte	0
 483 00cf 0A       		.uleb128 0xa
 484 00d0 43523200 		.ascii	"CR2\000"
 485 00d4 06       		.byte	0x6
 486 00d5 A301     		.2byte	0x1a3
 487 00d7 94000000 		.4byte	0x94
 488 00db 04       		.byte	0x4
 489 00dc 0B       		.uleb128 0xb
 490 00dd 36020000 		.4byte	.LASF13
 491 00e1 06       		.byte	0x6
 492 00e2 A401     		.2byte	0x1a4
 493 00e4 94000000 		.4byte	0x94
 494 00e8 08       		.byte	0x8
 495 00e9 0B       		.uleb128 0xb
 496 00ea AD000000 		.4byte	.LASF14
 497 00ee 06       		.byte	0x6
 498 00ef A501     		.2byte	0x1a5
 499 00f1 94000000 		.4byte	0x94
 500 00f5 0C       		.byte	0xc
 501 00f6 0A       		.uleb128 0xa
 502 00f7 535200   		.ascii	"SR\000"
 503 00fa 06       		.byte	0x6
 504 00fb A601     		.2byte	0x1a6
 505 00fd 94000000 		.4byte	0x94
 506 0101 10       		.byte	0x10
 507 0102 0A       		.uleb128 0xa
 508 0103 45475200 		.ascii	"EGR\000"
 509 0107 06       		.byte	0x6
 510 0108 A701     		.2byte	0x1a7
 511 010a 94000000 		.4byte	0x94
 512 010e 14       		.byte	0x14
 513 010f 0B       		.uleb128 0xb
 514 0110 3B020000 		.4byte	.LASF15
 515 0114 06       		.byte	0x6
 516 0115 A801     		.2byte	0x1a8
 517 0117 94000000 		.4byte	0x94
 518 011b 18       		.byte	0x18
 519 011c 0B       		.uleb128 0xb
 520 011d 41020000 		.4byte	.LASF16
 521 0121 06       		.byte	0x6
 522 0122 A901     		.2byte	0x1a9
 523 0124 94000000 		.4byte	0x94
 524 0128 1C       		.byte	0x1c
 525 0129 0B       		.uleb128 0xb
 526 012a 31020000 		.4byte	.LASF17
 527 012e 06       		.byte	0x6
 528 012f AA01     		.2byte	0x1aa
 529 0131 94000000 		.4byte	0x94
 530 0135 20       		.byte	0x20
 531 0136 0A       		.uleb128 0xa
 532 0137 434E5400 		.ascii	"CNT\000"
 533 013b 06       		.byte	0x6
 534 013c AB01     		.2byte	0x1ab
ARM GAS  /tmp/cckQpYO3.s 			page 23


 535 013e 94000000 		.4byte	0x94
 536 0142 24       		.byte	0x24
 537 0143 0A       		.uleb128 0xa
 538 0144 50534300 		.ascii	"PSC\000"
 539 0148 06       		.byte	0x6
 540 0149 AC01     		.2byte	0x1ac
 541 014b 94000000 		.4byte	0x94
 542 014f 28       		.byte	0x28
 543 0150 0A       		.uleb128 0xa
 544 0151 41525200 		.ascii	"ARR\000"
 545 0155 06       		.byte	0x6
 546 0156 AD01     		.2byte	0x1ad
 547 0158 94000000 		.4byte	0x94
 548 015c 2C       		.byte	0x2c
 549 015d 0A       		.uleb128 0xa
 550 015e 52435200 		.ascii	"RCR\000"
 551 0162 06       		.byte	0x6
 552 0163 AE01     		.2byte	0x1ae
 553 0165 94000000 		.4byte	0x94
 554 0169 30       		.byte	0x30
 555 016a 0A       		.uleb128 0xa
 556 016b 43435200 		.ascii	"CCR\000"
 557 016f 06       		.byte	0x6
 558 0170 AF01     		.2byte	0x1af
 559 0172 C5010000 		.4byte	0x1c5
 560 0176 34       		.byte	0x34
 561 0177 0B       		.uleb128 0xb
 562 0178 00000000 		.4byte	.LASF18
 563 017c 06       		.byte	0x6
 564 017d B001     		.2byte	0x1b0
 565 017f 94000000 		.4byte	0x94
 566 0183 44       		.byte	0x44
 567 0184 0A       		.uleb128 0xa
 568 0185 44435200 		.ascii	"DCR\000"
 569 0189 06       		.byte	0x6
 570 018a B101     		.2byte	0x1b1
 571 018c 94000000 		.4byte	0x94
 572 0190 48       		.byte	0x48
 573 0191 0B       		.uleb128 0xb
 574 0192 C1010000 		.4byte	.LASF19
 575 0196 06       		.byte	0x6
 576 0197 B201     		.2byte	0x1b2
 577 0199 94000000 		.4byte	0x94
 578 019d 4C       		.byte	0x4c
 579 019e 0A       		.uleb128 0xa
 580 019f 4F5200   		.ascii	"OR\000"
 581 01a2 06       		.byte	0x6
 582 01a3 B301     		.2byte	0x1b3
 583 01a5 94000000 		.4byte	0x94
 584 01a9 50       		.byte	0x50
 585 01aa 0B       		.uleb128 0xb
 586 01ab 47020000 		.4byte	.LASF20
 587 01af 06       		.byte	0x6
 588 01b0 B401     		.2byte	0x1b4
 589 01b2 94000000 		.4byte	0x94
 590 01b6 54       		.byte	0x54
 591 01b7 0B       		.uleb128 0xb
ARM GAS  /tmp/cckQpYO3.s 			page 24


 592 01b8 9E020000 		.4byte	.LASF21
 593 01bc 06       		.byte	0x6
 594 01bd B501     		.2byte	0x1b5
 595 01bf CA010000 		.4byte	0x1ca
 596 01c3 58       		.byte	0x58
 597 01c4 00       		.byte	0
 598 01c5 06       		.uleb128 0x6
 599 01c6 A9000000 		.4byte	0xa9
 600 01ca 06       		.uleb128 0x6
 601 01cb 99000000 		.4byte	0x99
 602 01cf 05       		.uleb128 0x5
 603 01d0 72000000 		.4byte	.LASF22
 604 01d4 06       		.byte	0x6
 605 01d5 B601     		.2byte	0x1b6
 606 01d7 B9000000 		.4byte	0xb9
 607 01db 03       		.uleb128 0x3
 608 01dc 01       		.byte	0x1
 609 01dd 08       		.byte	0x8
 610 01de 2C020000 		.4byte	.LASF23
 611 01e2 03       		.uleb128 0x3
 612 01e3 01       		.byte	0x1
 613 01e4 02       		.byte	0x2
 614 01e5 98020000 		.4byte	.LASF24
 615 01e9 0C       		.uleb128 0xc
 616 01ea B2000000 		.4byte	.LASF25
 617 01ee 02       		.byte	0x2
 618 01ef 99       		.byte	0x99
 619 01f0 03       		.byte	0x3
 620 01f1 01020000 		.4byte	0x201
 621 01f5 0D       		.uleb128 0xd
 622 01f6 0F010000 		.4byte	.LASF27
 623 01fa 02       		.byte	0x2
 624 01fb 99       		.byte	0x99
 625 01fc 81000000 		.4byte	0x81
 626 0200 00       		.byte	0
 627 0201 0E       		.uleb128 0xe
 628 0202 7E000000 		.4byte	.LASF39
 629 0206 02       		.byte	0x2
 630 0207 A5       		.byte	0xa5
 631 0208 03       		.byte	0x3
 632 0209 0C       		.uleb128 0xc
 633 020a F3000000 		.4byte	.LASF26
 634 020e 02       		.byte	0x2
 635 020f B1       		.byte	0xb1
 636 0210 03       		.byte	0x3
 637 0211 21020000 		.4byte	0x221
 638 0215 0D       		.uleb128 0xd
 639 0216 0F010000 		.4byte	.LASF27
 640 021a 02       		.byte	0x2
 641 021b B1       		.byte	0xb1
 642 021c 81000000 		.4byte	0x81
 643 0220 00       		.byte	0
 644 0221 0F       		.uleb128 0xf
 645 0222 7B020000 		.4byte	.LASF40
 646 0226 02       		.byte	0x2
 647 0227 BD       		.byte	0xbd
 648 0228 81000000 		.4byte	0x81
ARM GAS  /tmp/cckQpYO3.s 			page 25


 649 022c 03       		.byte	0x3
 650 022d 10       		.uleb128 0x10
 651 022e 17020000 		.4byte	.LASF28
 652 0232 01       		.byte	0x1
 653 0233 3C       		.byte	0x3c
 654 0234 00000000 		.4byte	.LFB98
 655 0238 08000000 		.4byte	.LFE98-.LFB98
 656 023c 01       		.uleb128 0x1
 657 023d 9C       		.byte	0x9c
 658 023e 4C020000 		.4byte	0x24c
 659 0242 11       		.uleb128 0x11
 660 0243 06000000 		.4byte	.LVL0
 661 0247 58030000 		.4byte	0x358
 662 024b 00       		.byte	0
 663 024c 10       		.uleb128 0x10
 664 024d F6010000 		.4byte	.LASF29
 665 0251 01       		.byte	0x1
 666 0252 4D       		.byte	0x4d
 667 0253 00000000 		.4byte	.LFB99
 668 0257 10000000 		.4byte	.LFE99-.LFB99
 669 025b 01       		.uleb128 0x1
 670 025c 9C       		.byte	0x9c
 671 025d 8F020000 		.4byte	0x28f
 672 0261 12       		.uleb128 0x12
 673 0262 6A000000 		.4byte	.LASF32
 674 0266 01       		.byte	0x1
 675 0267 4D       		.byte	0x4d
 676 0268 81000000 		.4byte	0x81
 677 026c 01       		.uleb128 0x1
 678 026d 50       		.byte	0x50
 679 026e 13       		.uleb128 0x13
 680 026f 5B020000 		.4byte	.LASF33
 681 0273 9F020000 		.4byte	0x29f
 682 0277 14       		.uleb128 0x14
 683 0278 E9010000 		.4byte	0x1e9
 684 027c 00000000 		.4byte	.LBB10
 685 0280 0E000000 		.4byte	.LBE10-.LBB10
 686 0284 01       		.byte	0x1
 687 0285 51       		.byte	0x51
 688 0286 15       		.uleb128 0x15
 689 0287 F5010000 		.4byte	0x1f5
 690 028b 01       		.uleb128 0x1
 691 028c 50       		.byte	0x50
 692 028d 00       		.byte	0
 693 028e 00       		.byte	0
 694 028f 07       		.uleb128 0x7
 695 0290 DB010000 		.4byte	0x1db
 696 0294 9F020000 		.4byte	0x29f
 697 0298 08       		.uleb128 0x8
 698 0299 8D000000 		.4byte	0x8d
 699 029d 0C       		.byte	0xc
 700 029e 00       		.byte	0
 701 029f 16       		.uleb128 0x16
 702 02a0 8F020000 		.4byte	0x28f
 703 02a4 10       		.uleb128 0x10
 704 02a5 C6010000 		.4byte	.LASF30
 705 02a9 01       		.byte	0x1
ARM GAS  /tmp/cckQpYO3.s 			page 26


 706 02aa 5B       		.byte	0x5b
 707 02ab 00000000 		.4byte	.LFB100
 708 02af 0A000000 		.4byte	.LFE100-.LFB100
 709 02b3 01       		.uleb128 0x1
 710 02b4 9C       		.byte	0x9c
 711 02b5 C9020000 		.4byte	0x2c9
 712 02b9 17       		.uleb128 0x17
 713 02ba 01020000 		.4byte	0x201
 714 02be 00000000 		.4byte	.LBB12
 715 02c2 08000000 		.4byte	.LBE12-.LBB12
 716 02c6 01       		.byte	0x1
 717 02c7 5D       		.byte	0x5d
 718 02c8 00       		.byte	0
 719 02c9 10       		.uleb128 0x10
 720 02ca 03020000 		.4byte	.LASF31
 721 02ce 01       		.byte	0x1
 722 02cf 69       		.byte	0x69
 723 02d0 00000000 		.4byte	.LFB101
 724 02d4 08000000 		.4byte	.LFE101-.LFB101
 725 02d8 01       		.uleb128 0x1
 726 02d9 9C       		.byte	0x9c
 727 02da 0C030000 		.4byte	0x30c
 728 02de 12       		.uleb128 0x12
 729 02df 6A000000 		.4byte	.LASF32
 730 02e3 01       		.byte	0x1
 731 02e4 69       		.byte	0x69
 732 02e5 81000000 		.4byte	0x81
 733 02e9 01       		.uleb128 0x1
 734 02ea 50       		.byte	0x50
 735 02eb 13       		.uleb128 0x13
 736 02ec D3000000 		.4byte	.LASF34
 737 02f0 1C030000 		.4byte	0x31c
 738 02f4 14       		.uleb128 0x14
 739 02f5 09020000 		.4byte	0x209
 740 02f9 00000000 		.4byte	.LBB14
 741 02fd 06000000 		.4byte	.LBE14-.LBB14
 742 0301 01       		.byte	0x1
 743 0302 6D       		.byte	0x6d
 744 0303 15       		.uleb128 0x15
 745 0304 15020000 		.4byte	0x215
 746 0308 01       		.uleb128 0x1
 747 0309 50       		.byte	0x50
 748 030a 00       		.byte	0
 749 030b 00       		.byte	0
 750 030c 07       		.uleb128 0x7
 751 030d DB010000 		.4byte	0x1db
 752 0311 1C030000 		.4byte	0x31c
 753 0315 08       		.uleb128 0x8
 754 0316 8D000000 		.4byte	0x8d
 755 031a 0A       		.byte	0xa
 756 031b 00       		.byte	0
 757 031c 16       		.uleb128 0x16
 758 031d 0C030000 		.4byte	0x30c
 759 0321 18       		.uleb128 0x18
 760 0322 A3020000 		.4byte	.LASF41
 761 0326 01       		.byte	0x1
 762 0327 79       		.byte	0x79
ARM GAS  /tmp/cckQpYO3.s 			page 27


 763 0328 81000000 		.4byte	0x81
 764 032c 00000000 		.4byte	.LFB102
 765 0330 08000000 		.4byte	.LFE102-.LFB102
 766 0334 01       		.uleb128 0x1
 767 0335 9C       		.byte	0x9c
 768 0336 53030000 		.4byte	0x353
 769 033a 13       		.uleb128 0x13
 770 033b 4D020000 		.4byte	.LASF35
 771 033f 53030000 		.4byte	0x353
 772 0343 17       		.uleb128 0x17
 773 0344 21020000 		.4byte	0x221
 774 0348 00000000 		.4byte	.LBB16
 775 034c 06000000 		.4byte	.LBE16-.LBB16
 776 0350 01       		.byte	0x1
 777 0351 7D       		.byte	0x7d
 778 0352 00       		.byte	0
 779 0353 16       		.uleb128 0x16
 780 0354 0C030000 		.4byte	0x30c
 781 0358 19       		.uleb128 0x19
 782 0359 5E000000 		.4byte	.LASF42
 783 035d 02       		.byte	0x2
 784 035e 7B       		.byte	0x7b
 785 035f 00       		.byte	0
 786              		.section	.debug_abbrev,"",%progbits
 787              	.Ldebug_abbrev0:
 788 0000 01       		.uleb128 0x1
 789 0001 11       		.uleb128 0x11
 790 0002 01       		.byte	0x1
 791 0003 25       		.uleb128 0x25
 792 0004 0E       		.uleb128 0xe
 793 0005 13       		.uleb128 0x13
 794 0006 0B       		.uleb128 0xb
 795 0007 03       		.uleb128 0x3
 796 0008 0E       		.uleb128 0xe
 797 0009 1B       		.uleb128 0x1b
 798 000a 0E       		.uleb128 0xe
 799 000b 55       		.uleb128 0x55
 800 000c 17       		.uleb128 0x17
 801 000d 11       		.uleb128 0x11
 802 000e 01       		.uleb128 0x1
 803 000f 10       		.uleb128 0x10
 804 0010 17       		.uleb128 0x17
 805 0011 00       		.byte	0
 806 0012 00       		.byte	0
 807 0013 02       		.uleb128 0x2
 808 0014 24       		.uleb128 0x24
 809 0015 00       		.byte	0
 810 0016 0B       		.uleb128 0xb
 811 0017 0B       		.uleb128 0xb
 812 0018 3E       		.uleb128 0x3e
 813 0019 0B       		.uleb128 0xb
 814 001a 03       		.uleb128 0x3
 815 001b 08       		.uleb128 0x8
 816 001c 00       		.byte	0
 817 001d 00       		.byte	0
 818 001e 03       		.uleb128 0x3
 819 001f 24       		.uleb128 0x24
ARM GAS  /tmp/cckQpYO3.s 			page 28


 820 0020 00       		.byte	0
 821 0021 0B       		.uleb128 0xb
 822 0022 0B       		.uleb128 0xb
 823 0023 3E       		.uleb128 0x3e
 824 0024 0B       		.uleb128 0xb
 825 0025 03       		.uleb128 0x3
 826 0026 0E       		.uleb128 0xe
 827 0027 00       		.byte	0
 828 0028 00       		.byte	0
 829 0029 04       		.uleb128 0x4
 830 002a 16       		.uleb128 0x16
 831 002b 00       		.byte	0
 832 002c 03       		.uleb128 0x3
 833 002d 0E       		.uleb128 0xe
 834 002e 3A       		.uleb128 0x3a
 835 002f 0B       		.uleb128 0xb
 836 0030 3B       		.uleb128 0x3b
 837 0031 0B       		.uleb128 0xb
 838 0032 49       		.uleb128 0x49
 839 0033 13       		.uleb128 0x13
 840 0034 00       		.byte	0
 841 0035 00       		.byte	0
 842 0036 05       		.uleb128 0x5
 843 0037 16       		.uleb128 0x16
 844 0038 00       		.byte	0
 845 0039 03       		.uleb128 0x3
 846 003a 0E       		.uleb128 0xe
 847 003b 3A       		.uleb128 0x3a
 848 003c 0B       		.uleb128 0xb
 849 003d 3B       		.uleb128 0x3b
 850 003e 05       		.uleb128 0x5
 851 003f 49       		.uleb128 0x49
 852 0040 13       		.uleb128 0x13
 853 0041 00       		.byte	0
 854 0042 00       		.byte	0
 855 0043 06       		.uleb128 0x6
 856 0044 35       		.uleb128 0x35
 857 0045 00       		.byte	0
 858 0046 49       		.uleb128 0x49
 859 0047 13       		.uleb128 0x13
 860 0048 00       		.byte	0
 861 0049 00       		.byte	0
 862 004a 07       		.uleb128 0x7
 863 004b 01       		.uleb128 0x1
 864 004c 01       		.byte	0x1
 865 004d 49       		.uleb128 0x49
 866 004e 13       		.uleb128 0x13
 867 004f 01       		.uleb128 0x1
 868 0050 13       		.uleb128 0x13
 869 0051 00       		.byte	0
 870 0052 00       		.byte	0
 871 0053 08       		.uleb128 0x8
 872 0054 21       		.uleb128 0x21
 873 0055 00       		.byte	0
 874 0056 49       		.uleb128 0x49
 875 0057 13       		.uleb128 0x13
 876 0058 2F       		.uleb128 0x2f
ARM GAS  /tmp/cckQpYO3.s 			page 29


 877 0059 0B       		.uleb128 0xb
 878 005a 00       		.byte	0
 879 005b 00       		.byte	0
 880 005c 09       		.uleb128 0x9
 881 005d 13       		.uleb128 0x13
 882 005e 01       		.byte	0x1
 883 005f 0B       		.uleb128 0xb
 884 0060 0B       		.uleb128 0xb
 885 0061 3A       		.uleb128 0x3a
 886 0062 0B       		.uleb128 0xb
 887 0063 3B       		.uleb128 0x3b
 888 0064 05       		.uleb128 0x5
 889 0065 01       		.uleb128 0x1
 890 0066 13       		.uleb128 0x13
 891 0067 00       		.byte	0
 892 0068 00       		.byte	0
 893 0069 0A       		.uleb128 0xa
 894 006a 0D       		.uleb128 0xd
 895 006b 00       		.byte	0
 896 006c 03       		.uleb128 0x3
 897 006d 08       		.uleb128 0x8
 898 006e 3A       		.uleb128 0x3a
 899 006f 0B       		.uleb128 0xb
 900 0070 3B       		.uleb128 0x3b
 901 0071 05       		.uleb128 0x5
 902 0072 49       		.uleb128 0x49
 903 0073 13       		.uleb128 0x13
 904 0074 38       		.uleb128 0x38
 905 0075 0B       		.uleb128 0xb
 906 0076 00       		.byte	0
 907 0077 00       		.byte	0
 908 0078 0B       		.uleb128 0xb
 909 0079 0D       		.uleb128 0xd
 910 007a 00       		.byte	0
 911 007b 03       		.uleb128 0x3
 912 007c 0E       		.uleb128 0xe
 913 007d 3A       		.uleb128 0x3a
 914 007e 0B       		.uleb128 0xb
 915 007f 3B       		.uleb128 0x3b
 916 0080 05       		.uleb128 0x5
 917 0081 49       		.uleb128 0x49
 918 0082 13       		.uleb128 0x13
 919 0083 38       		.uleb128 0x38
 920 0084 0B       		.uleb128 0xb
 921 0085 00       		.byte	0
 922 0086 00       		.byte	0
 923 0087 0C       		.uleb128 0xc
 924 0088 2E       		.uleb128 0x2e
 925 0089 01       		.byte	0x1
 926 008a 03       		.uleb128 0x3
 927 008b 0E       		.uleb128 0xe
 928 008c 3A       		.uleb128 0x3a
 929 008d 0B       		.uleb128 0xb
 930 008e 3B       		.uleb128 0x3b
 931 008f 0B       		.uleb128 0xb
 932 0090 27       		.uleb128 0x27
 933 0091 19       		.uleb128 0x19
ARM GAS  /tmp/cckQpYO3.s 			page 30


 934 0092 20       		.uleb128 0x20
 935 0093 0B       		.uleb128 0xb
 936 0094 01       		.uleb128 0x1
 937 0095 13       		.uleb128 0x13
 938 0096 00       		.byte	0
 939 0097 00       		.byte	0
 940 0098 0D       		.uleb128 0xd
 941 0099 05       		.uleb128 0x5
 942 009a 00       		.byte	0
 943 009b 03       		.uleb128 0x3
 944 009c 0E       		.uleb128 0xe
 945 009d 3A       		.uleb128 0x3a
 946 009e 0B       		.uleb128 0xb
 947 009f 3B       		.uleb128 0x3b
 948 00a0 0B       		.uleb128 0xb
 949 00a1 49       		.uleb128 0x49
 950 00a2 13       		.uleb128 0x13
 951 00a3 00       		.byte	0
 952 00a4 00       		.byte	0
 953 00a5 0E       		.uleb128 0xe
 954 00a6 2E       		.uleb128 0x2e
 955 00a7 00       		.byte	0
 956 00a8 03       		.uleb128 0x3
 957 00a9 0E       		.uleb128 0xe
 958 00aa 3A       		.uleb128 0x3a
 959 00ab 0B       		.uleb128 0xb
 960 00ac 3B       		.uleb128 0x3b
 961 00ad 0B       		.uleb128 0xb
 962 00ae 27       		.uleb128 0x27
 963 00af 19       		.uleb128 0x19
 964 00b0 20       		.uleb128 0x20
 965 00b1 0B       		.uleb128 0xb
 966 00b2 00       		.byte	0
 967 00b3 00       		.byte	0
 968 00b4 0F       		.uleb128 0xf
 969 00b5 2E       		.uleb128 0x2e
 970 00b6 00       		.byte	0
 971 00b7 03       		.uleb128 0x3
 972 00b8 0E       		.uleb128 0xe
 973 00b9 3A       		.uleb128 0x3a
 974 00ba 0B       		.uleb128 0xb
 975 00bb 3B       		.uleb128 0x3b
 976 00bc 0B       		.uleb128 0xb
 977 00bd 27       		.uleb128 0x27
 978 00be 19       		.uleb128 0x19
 979 00bf 49       		.uleb128 0x49
 980 00c0 13       		.uleb128 0x13
 981 00c1 20       		.uleb128 0x20
 982 00c2 0B       		.uleb128 0xb
 983 00c3 00       		.byte	0
 984 00c4 00       		.byte	0
 985 00c5 10       		.uleb128 0x10
 986 00c6 2E       		.uleb128 0x2e
 987 00c7 01       		.byte	0x1
 988 00c8 3F       		.uleb128 0x3f
 989 00c9 19       		.uleb128 0x19
 990 00ca 03       		.uleb128 0x3
ARM GAS  /tmp/cckQpYO3.s 			page 31


 991 00cb 0E       		.uleb128 0xe
 992 00cc 3A       		.uleb128 0x3a
 993 00cd 0B       		.uleb128 0xb
 994 00ce 3B       		.uleb128 0x3b
 995 00cf 0B       		.uleb128 0xb
 996 00d0 27       		.uleb128 0x27
 997 00d1 19       		.uleb128 0x19
 998 00d2 11       		.uleb128 0x11
 999 00d3 01       		.uleb128 0x1
 1000 00d4 12       		.uleb128 0x12
 1001 00d5 06       		.uleb128 0x6
 1002 00d6 40       		.uleb128 0x40
 1003 00d7 18       		.uleb128 0x18
 1004 00d8 9742     		.uleb128 0x2117
 1005 00da 19       		.uleb128 0x19
 1006 00db 01       		.uleb128 0x1
 1007 00dc 13       		.uleb128 0x13
 1008 00dd 00       		.byte	0
 1009 00de 00       		.byte	0
 1010 00df 11       		.uleb128 0x11
 1011 00e0 898201   		.uleb128 0x4109
 1012 00e3 00       		.byte	0
 1013 00e4 11       		.uleb128 0x11
 1014 00e5 01       		.uleb128 0x1
 1015 00e6 31       		.uleb128 0x31
 1016 00e7 13       		.uleb128 0x13
 1017 00e8 00       		.byte	0
 1018 00e9 00       		.byte	0
 1019 00ea 12       		.uleb128 0x12
 1020 00eb 05       		.uleb128 0x5
 1021 00ec 00       		.byte	0
 1022 00ed 03       		.uleb128 0x3
 1023 00ee 0E       		.uleb128 0xe
 1024 00ef 3A       		.uleb128 0x3a
 1025 00f0 0B       		.uleb128 0xb
 1026 00f1 3B       		.uleb128 0x3b
 1027 00f2 0B       		.uleb128 0xb
 1028 00f3 49       		.uleb128 0x49
 1029 00f4 13       		.uleb128 0x13
 1030 00f5 02       		.uleb128 0x2
 1031 00f6 18       		.uleb128 0x18
 1032 00f7 00       		.byte	0
 1033 00f8 00       		.byte	0
 1034 00f9 13       		.uleb128 0x13
 1035 00fa 34       		.uleb128 0x34
 1036 00fb 00       		.byte	0
 1037 00fc 03       		.uleb128 0x3
 1038 00fd 0E       		.uleb128 0xe
 1039 00fe 49       		.uleb128 0x49
 1040 00ff 13       		.uleb128 0x13
 1041 0100 34       		.uleb128 0x34
 1042 0101 19       		.uleb128 0x19
 1043 0102 00       		.byte	0
 1044 0103 00       		.byte	0
 1045 0104 14       		.uleb128 0x14
 1046 0105 1D       		.uleb128 0x1d
 1047 0106 01       		.byte	0x1
ARM GAS  /tmp/cckQpYO3.s 			page 32


 1048 0107 31       		.uleb128 0x31
 1049 0108 13       		.uleb128 0x13
 1050 0109 11       		.uleb128 0x11
 1051 010a 01       		.uleb128 0x1
 1052 010b 12       		.uleb128 0x12
 1053 010c 06       		.uleb128 0x6
 1054 010d 58       		.uleb128 0x58
 1055 010e 0B       		.uleb128 0xb
 1056 010f 59       		.uleb128 0x59
 1057 0110 0B       		.uleb128 0xb
 1058 0111 00       		.byte	0
 1059 0112 00       		.byte	0
 1060 0113 15       		.uleb128 0x15
 1061 0114 05       		.uleb128 0x5
 1062 0115 00       		.byte	0
 1063 0116 31       		.uleb128 0x31
 1064 0117 13       		.uleb128 0x13
 1065 0118 02       		.uleb128 0x2
 1066 0119 18       		.uleb128 0x18
 1067 011a 00       		.byte	0
 1068 011b 00       		.byte	0
 1069 011c 16       		.uleb128 0x16
 1070 011d 26       		.uleb128 0x26
 1071 011e 00       		.byte	0
 1072 011f 49       		.uleb128 0x49
 1073 0120 13       		.uleb128 0x13
 1074 0121 00       		.byte	0
 1075 0122 00       		.byte	0
 1076 0123 17       		.uleb128 0x17
 1077 0124 1D       		.uleb128 0x1d
 1078 0125 00       		.byte	0
 1079 0126 31       		.uleb128 0x31
 1080 0127 13       		.uleb128 0x13
 1081 0128 11       		.uleb128 0x11
 1082 0129 01       		.uleb128 0x1
 1083 012a 12       		.uleb128 0x12
 1084 012b 06       		.uleb128 0x6
 1085 012c 58       		.uleb128 0x58
 1086 012d 0B       		.uleb128 0xb
 1087 012e 59       		.uleb128 0x59
 1088 012f 0B       		.uleb128 0xb
 1089 0130 00       		.byte	0
 1090 0131 00       		.byte	0
 1091 0132 18       		.uleb128 0x18
 1092 0133 2E       		.uleb128 0x2e
 1093 0134 01       		.byte	0x1
 1094 0135 3F       		.uleb128 0x3f
 1095 0136 19       		.uleb128 0x19
 1096 0137 03       		.uleb128 0x3
 1097 0138 0E       		.uleb128 0xe
 1098 0139 3A       		.uleb128 0x3a
 1099 013a 0B       		.uleb128 0xb
 1100 013b 3B       		.uleb128 0x3b
 1101 013c 0B       		.uleb128 0xb
 1102 013d 27       		.uleb128 0x27
 1103 013e 19       		.uleb128 0x19
 1104 013f 49       		.uleb128 0x49
ARM GAS  /tmp/cckQpYO3.s 			page 33


 1105 0140 13       		.uleb128 0x13
 1106 0141 11       		.uleb128 0x11
 1107 0142 01       		.uleb128 0x1
 1108 0143 12       		.uleb128 0x12
 1109 0144 06       		.uleb128 0x6
 1110 0145 40       		.uleb128 0x40
 1111 0146 18       		.uleb128 0x18
 1112 0147 9742     		.uleb128 0x2117
 1113 0149 19       		.uleb128 0x19
 1114 014a 01       		.uleb128 0x1
 1115 014b 13       		.uleb128 0x13
 1116 014c 00       		.byte	0
 1117 014d 00       		.byte	0
 1118 014e 19       		.uleb128 0x19
 1119 014f 2E       		.uleb128 0x2e
 1120 0150 00       		.byte	0
 1121 0151 3F       		.uleb128 0x3f
 1122 0152 19       		.uleb128 0x19
 1123 0153 03       		.uleb128 0x3
 1124 0154 0E       		.uleb128 0xe
 1125 0155 3A       		.uleb128 0x3a
 1126 0156 0B       		.uleb128 0xb
 1127 0157 3B       		.uleb128 0x3b
 1128 0158 0B       		.uleb128 0xb
 1129 0159 27       		.uleb128 0x27
 1130 015a 19       		.uleb128 0x19
 1131 015b 3C       		.uleb128 0x3c
 1132 015c 19       		.uleb128 0x19
 1133 015d 00       		.byte	0
 1134 015e 00       		.byte	0
 1135 015f 00       		.byte	0
 1136              		.section	.debug_aranges,"",%progbits
 1137 0000 3C000000 		.4byte	0x3c
 1138 0004 0200     		.2byte	0x2
 1139 0006 00000000 		.4byte	.Ldebug_info0
 1140 000a 04       		.byte	0x4
 1141 000b 00       		.byte	0
 1142 000c 0000     		.2byte	0
 1143 000e 0000     		.2byte	0
 1144 0010 00000000 		.4byte	.LFB98
 1145 0014 08000000 		.4byte	.LFE98-.LFB98
 1146 0018 00000000 		.4byte	.LFB99
 1147 001c 10000000 		.4byte	.LFE99-.LFB99
 1148 0020 00000000 		.4byte	.LFB100
 1149 0024 0A000000 		.4byte	.LFE100-.LFB100
 1150 0028 00000000 		.4byte	.LFB101
 1151 002c 08000000 		.4byte	.LFE101-.LFB101
 1152 0030 00000000 		.4byte	.LFB102
 1153 0034 08000000 		.4byte	.LFE102-.LFB102
 1154 0038 00000000 		.4byte	0
 1155 003c 00000000 		.4byte	0
 1156              		.section	.debug_ranges,"",%progbits
 1157              	.Ldebug_ranges0:
 1158 0000 00000000 		.4byte	.LFB98
 1159 0004 08000000 		.4byte	.LFE98
 1160 0008 00000000 		.4byte	.LFB99
 1161 000c 10000000 		.4byte	.LFE99
ARM GAS  /tmp/cckQpYO3.s 			page 34


 1162 0010 00000000 		.4byte	.LFB100
 1163 0014 0A000000 		.4byte	.LFE100
 1164 0018 00000000 		.4byte	.LFB101
 1165 001c 08000000 		.4byte	.LFE101
 1166 0020 00000000 		.4byte	.LFB102
 1167 0024 08000000 		.4byte	.LFE102
 1168 0028 00000000 		.4byte	0
 1169 002c 00000000 		.4byte	0
 1170              		.section	.debug_line,"",%progbits
 1171              	.Ldebug_line0:
 1172 0000 73010000 		.section	.debug_str,"MS",%progbits,1
 1172      0200E800 
 1172      00000201 
 1172      FB0E0D00 
 1172      01010101 
 1173              	.LASF18:
 1174 0000 42445452 		.ascii	"BDTR\000"
 1174      00
 1175              	.LASF11:
 1176 0005 73797374 		.ascii	"systime_t\000"
 1176      696D655F 
 1176      7400
 1177              	.LASF38:
 1178 000f 2F686F6D 		.ascii	"/home/awygle/ChibiOS-RT/demos/STM32/NIL-STM32F051-D"
 1178      652F6177 
 1178      79676C65 
 1178      2F436869 
 1178      62694F53 
 1179 0042 4953434F 		.ascii	"ISCOVERY\000"
 1179      56455259 
 1179      00
 1180              	.LASF4:
 1181 004b 73686F72 		.ascii	"short unsigned int\000"
 1181      7420756E 
 1181      7369676E 
 1181      65642069 
 1181      6E7400
 1182              	.LASF42:
 1183 005e 73745F6C 		.ascii	"st_lld_init\000"
 1183      6C645F69 
 1183      6E697400 
 1184              	.LASF32:
 1185 006a 61627374 		.ascii	"abstime\000"
 1185      696D6500 
 1186              	.LASF22:
 1187 0072 73746D33 		.ascii	"stm32_tim_t\000"
 1187      325F7469 
 1187      6D5F7400 
 1188              	.LASF39:
 1189 007e 73745F6C 		.ascii	"st_lld_stop_alarm\000"
 1189      6C645F73 
 1189      746F705F 
 1189      616C6172 
 1189      6D00
 1190              	.LASF37:
 1191 0090 2E2E2F2E 		.ascii	"../../../os/hal/src/hal_st.c\000"
 1191      2E2F2E2E 
ARM GAS  /tmp/cckQpYO3.s 			page 35


 1191      2F6F732F 
 1191      68616C2F 
 1191      7372632F 
 1192              	.LASF14:
 1193 00ad 44494552 		.ascii	"DIER\000"
 1193      00
 1194              	.LASF25:
 1195 00b2 73745F6C 		.ascii	"st_lld_start_alarm\000"
 1195      6C645F73 
 1195      74617274 
 1195      5F616C61 
 1195      726D00
 1196              	.LASF2:
 1197 00c5 756E7369 		.ascii	"unsigned char\000"
 1197      676E6564 
 1197      20636861 
 1197      7200
 1198              	.LASF34:
 1199 00d3 5F5F6675 		.ascii	"__func__.5656\000"
 1199      6E635F5F 
 1199      2E353635 
 1199      3600
 1200              	.LASF6:
 1201 00e1 6C6F6E67 		.ascii	"long unsigned int\000"
 1201      20756E73 
 1201      69676E65 
 1201      6420696E 
 1201      7400
 1202              	.LASF26:
 1203 00f3 73745F6C 		.ascii	"st_lld_set_alarm\000"
 1203      6C645F73 
 1203      65745F61 
 1203      6C61726D 
 1203      00
 1204              	.LASF9:
 1205 0104 5F5F7569 		.ascii	"__uint32_t\000"
 1205      6E743332 
 1205      5F7400
 1206              	.LASF27:
 1207 010f 74696D65 		.ascii	"time\000"
 1207      00
 1208              	.LASF36:
 1209 0114 474E5520 		.ascii	"GNU C 4.8.2 -mcpu=cortex-m0 -mno-thumb-interwork -m"
 1209      4320342E 
 1209      382E3220 
 1209      2D6D6370 
 1209      753D636F 
 1210 0147 7468756D 		.ascii	"thumb -ggdb -O2 -fomit-frame-pointer -falign-functi"
 1210      62202D67 
 1210      67646220 
 1210      2D4F3220 
 1210      2D666F6D 
 1211 017a 6F6E733D 		.ascii	"ons=16 -ffunction-sections -fdata-sections -fno-com"
 1211      3136202D 
 1211      6666756E 
 1211      6374696F 
 1211      6E2D7365 
ARM GAS  /tmp/cckQpYO3.s 			page 36


 1212 01ad 6D6F6E20 		.ascii	"mon -flto\000"
 1212      2D666C74 
 1212      6F00
 1213              	.LASF3:
 1214 01b7 73686F72 		.ascii	"short int\000"
 1214      7420696E 
 1214      7400
 1215              	.LASF19:
 1216 01c1 444D4152 		.ascii	"DMAR\000"
 1216      00
 1217              	.LASF30:
 1218 01c6 73745374 		.ascii	"stStopAlarm\000"
 1218      6F70416C 
 1218      61726D00 
 1219              	.LASF0:
 1220 01d2 756E7369 		.ascii	"unsigned int\000"
 1220      676E6564 
 1220      20696E74 
 1220      00
 1221              	.LASF8:
 1222 01df 6C6F6E67 		.ascii	"long long unsigned int\000"
 1222      206C6F6E 
 1222      6720756E 
 1222      7369676E 
 1222      65642069 
 1223              	.LASF29:
 1224 01f6 73745374 		.ascii	"stStartAlarm\000"
 1224      61727441 
 1224      6C61726D 
 1224      00
 1225              	.LASF31:
 1226 0203 73745365 		.ascii	"stSetAlarm\000"
 1226      74416C61 
 1226      726D00
 1227              	.LASF12:
 1228 020e 73697A65 		.ascii	"sizetype\000"
 1228      74797065 
 1228      00
 1229              	.LASF28:
 1230 0217 7374496E 		.ascii	"stInit\000"
 1230      697400
 1231              	.LASF7:
 1232 021e 6C6F6E67 		.ascii	"long long int\000"
 1232      206C6F6E 
 1232      6720696E 
 1232      7400
 1233              	.LASF23:
 1234 022c 63686172 		.ascii	"char\000"
 1234      00
 1235              	.LASF17:
 1236 0231 43434552 		.ascii	"CCER\000"
 1236      00
 1237              	.LASF13:
 1238 0236 534D4352 		.ascii	"SMCR\000"
 1238      00
 1239              	.LASF15:
 1240 023b 43434D52 		.ascii	"CCMR1\000"
ARM GAS  /tmp/cckQpYO3.s 			page 37


 1240      3100
 1241              	.LASF16:
 1242 0241 43434D52 		.ascii	"CCMR2\000"
 1242      3200
 1243              	.LASF20:
 1244 0247 43434D52 		.ascii	"CCMR3\000"
 1244      3300
 1245              	.LASF35:
 1246 024d 5F5F6675 		.ascii	"__func__.5660\000"
 1246      6E635F5F 
 1246      2E353636 
 1246      3000
 1247              	.LASF33:
 1248 025b 5F5F6675 		.ascii	"__func__.5649\000"
 1248      6E635F5F 
 1248      2E353634 
 1248      3900
 1249              	.LASF10:
 1250 0269 75696E74 		.ascii	"uint32_t\000"
 1250      33325F74 
 1250      00
 1251              	.LASF5:
 1252 0272 6C6F6E67 		.ascii	"long int\000"
 1252      20696E74 
 1252      00
 1253              	.LASF40:
 1254 027b 73745F6C 		.ascii	"st_lld_get_alarm\000"
 1254      6C645F67 
 1254      65745F61 
 1254      6C61726D 
 1254      00
 1255              	.LASF1:
 1256 028c 7369676E 		.ascii	"signed char\000"
 1256      65642063 
 1256      68617200 
 1257              	.LASF24:
 1258 0298 5F426F6F 		.ascii	"_Bool\000"
 1258      6C00
 1259              	.LASF21:
 1260 029e 43435852 		.ascii	"CCXR\000"
 1260      00
 1261              	.LASF41:
 1262 02a3 73744765 		.ascii	"stGetAlarm\000"
 1262      74416C61 
 1262      726D00
 1263              		.comm	__gnu_lto_v1,1,1
 1264              		.ident	"GCC: (4.8.2-14ubuntu1+6) 4.8.2"
ARM GAS  /tmp/cckQpYO3.s 			page 38


DEFINED SYMBOLS
                            *ABS*:0000000000000000 hal_st.c
     /tmp/cckQpYO3.s:241    .text.stInit:0000000000000000 $t
     /tmp/cckQpYO3.s:247    .text.stInit:0000000000000000 stInit
     /tmp/cckQpYO3.s:266    .text.stStartAlarm:0000000000000000 $t
     /tmp/cckQpYO3.s:272    .text.stStartAlarm:0000000000000000 stStartAlarm
     /tmp/cckQpYO3.s:301    .text.stStopAlarm:0000000000000000 $t
     /tmp/cckQpYO3.s:307    .text.stStopAlarm:0000000000000000 stStopAlarm
     /tmp/cckQpYO3.s:327    .text.stSetAlarm:0000000000000000 $t
     /tmp/cckQpYO3.s:333    .text.stSetAlarm:0000000000000000 stSetAlarm
     /tmp/cckQpYO3.s:353    .text.stGetAlarm:0000000000000000 $t
     /tmp/cckQpYO3.s:359    .text.stGetAlarm:0000000000000000 stGetAlarm
                            *COM*:0000000000000001 __gnu_lto_v1
                     .debug_frame:0000000000000010 $d

UNDEFINED SYMBOLS
st_lld_init
