ARM GAS  /tmp/ccy76ghP.s 			page 1


   1              		.cpu cortex-m0
   2              		.fpu softvfp
   3              		.eabi_attribute 20, 1
   4              		.eabi_attribute 21, 1
   5              		.eabi_attribute 23, 3
   6              		.eabi_attribute 24, 1
   7              		.eabi_attribute 25, 1
   8              		.eabi_attribute 26, 1
   9              		.eabi_attribute 30, 2
  10              		.eabi_attribute 34, 0
  11              		.eabi_attribute 18, 4
  12              		.code	16
  13              		.file	"hal_pal_lld.c"
  14              		.text
  15              	.Ltext0:
  16              		.section	.gnu.lto_.jmpfuncs.e44cad171b98086c,"",%progbits
  17 0000 789C6362 		.ascii	"x\234cb`b\300\006\330\2404\023\003##;\003\000\001/\000"
  17      6062C006 
  17      D8A03413 
  17      0323233B 
  17      0300012F 
  18 0015 16       		.ascii	"\026"
  19              		.text
  20              		.section	.gnu.lto_.inline.e44cad171b98086c,"",%progbits
  21 0000 789C6362 		.ascii	"x\234cb`b\300\006vBi\240\354\031\206\323\014\214\354"
  21      6062C006 
  21      764269A0 
  21      EC1986D3 
  21      0C8CEC
  22 0013 0C8C0C0C 		.ascii	"\014\214\014\014\314\012`\322\001L&\200\311\006F0\265"
  22      CC0A60D2 
  22      014C2680 
  22      C9064630 
  22      B5
  23 0024 00421D80 		.ascii	"\000B\035\200P\014\002\031\007\326\2601(5\374bdb`|\301"
  23      500C0219 
  23      07D6B031 
  23      2835FC62 
  23      6462607C 
  24 0039 CE022141 		.ascii	"\316\002!A\004\007\230\311\001\"\004\300L\001\020\241"
  24      040798C9 
  24      012204C0 
  24      4C0110A1 
  25 0049 00662A80 		.ascii	"\000f*\200\010\0070\323\001D4@t\203\254\000\222L\020"
  25      080730D3 
  25      01443440 
  25      7483AC00 
  25      924C10
  26 005c 0ED8B98C 		.ascii	"\016\330\271\214\014\347\030\3662122\001mc`.\272\360"
  26      0CE718F6 
  26      32313232 
  26      016D6360 
  26      2EBAF0
  27 006f 47914162 		.ascii	"G\221Ab\316Ef&\006\241\013=\214,`\207\003\000|c\037"
  27      CE456626 
  27      06A10B3D 
  27      8C2C6087 
ARM GAS  /tmp/ccy76ghP.s 			page 2


  27      03007C63 
  28 0084 C5       		.ascii	"\305"
  29              		.text
  30              		.section	.gnu.lto_.pureconst.e44cad171b98086c,"",%progbits
  31 0000 789C6362 		.ascii	"x\234cb`b`e\200\000&\006)F)\000\001\006\000A"
  31      60626065 
  31      80002606 
  31      29462900 
  31      01060041 
  32              		.text
  33              		.section	.gnu.lto__pal_lld_init.e44cad171b98086c,"",%progbits
  34 0000 789CB599 		.ascii	"x\234\265\231Kl\033U\024\206\357\275\343\361\333\036"
  34      4B6C1B55 
  34      1486EFBD 
  34      E3F1DB1E 
  35 0010 E7FD725E 		.ascii	"\347\375r^\316\373iQT)+V\225P\245\"@\030\011V\310\004"
  35      CEFB6951 
  35      54292B56 
  35      9550A522 
  35      40180956 
  36 0026 31584A88 		.ascii	"1XJ\210E\201\015\213^\227\012e\201\204U\361\210`\001"
  36      45810D8B 
  36      5E970A65 
  36      818455F1 
  36      886001
  37 0039 159B1020 		.ascii	"\025\233\020 ]\322\224\215\325\005RU%$;\324UD\027\200"
  37      5DD2948D 
  37      D5055255 
  37      25243BD4 
  37      55441780 
  38 004d 2A552DE9 		.ascii	"*U-\351\242ec\346\314q2\307\225\355\353*7\243\370\237"
  38      A26563E6 
  38      CC7132C7 
  38      95EDEB2A 
  38      37A3F89F 
  39 0061 198FE7F8 		.ascii	"\031\217\347\370\233{\216\277M\004\023\354\311\255\307"
  39      9B7B8EBF 
  39      4D0413EC 
  39      C9ADC7
  40 0070 799D76E2 		.ascii	"y\235v\342\214\263\347\006\343\242\270\303X!(8\207\003"
  40      8CB3E706 
  40      E3A2B8C3 
  40      58212838 
  40      8703
  41 0082 C6D905C1 		.ascii	"\306\331\005\301/\274\316\335\317^\025\245\375ry\363"
  41      2FBCCEDD 
  41      CF5E15A5 
  41      FD7279F3 
  42 0092 FE6F9B9F 		.ascii	"\376o\233\237\362\015\361\262`9\316\014\010\223/s\026"
  42      F20DF1B2 
  42      6039CE0C 
  42      08932F73 
  42      16
  43 00a3 81A32844 		.ascii	"\201\243(D\014\"\016aA$ Z Z!\332 \332!: :!\272 \272"
  43      0C220E61 
  43      4124205A 
  43      205A21DA 
ARM GAS  /tmp/ccy76ghP.s 			page 3


  43      20DA213A 
  44 00bd 217A207A 		.ascii	"!z z!\372 \222\020\375\020\003\020\203\020C\020\303"
  44      21FA2092 
  44      10FD1003 
  44      10831043 
  44      10C3
  45 00cf 10298811 		.ascii	"\020)\210\021\210Q\2101\210q\210\011\210I\210)\210i"
  45      88518831 
  45      88718809 
  45      88498829 
  45      8869
  46 00e1 88198859 		.ascii	"\210\031\210Y\2109\010g3\331%)\213C\214-\272\247\031"
  46      88390867 
  46      33D92529 
  46      8B438C2D 
  46      BAA719
  47 00f4 27E1A15F 		.ascii	"'\341\241_\345\002\366\3066\273q{\355\240;\313\257p"
  47      E502F6C6 
  47      36BB717B 
  47      EDA03BCB 
  47      AF70
  48 0106 93D95CCC 		.ascii	"\223\331\\\314\260\015y\251\220\310q\376\015\373\232"
  48      B00D79A9 
  48      90C871FE 
  48      0DFB9A
  49 0115 E7B878CD 		.ascii	"\347\270x\315\011C~\267*}\314=t\027\351M~\270\264\333"
  49      09437EB7 
  49      2A7DCC3D 
  49      7417E94D 
  49      7EB8B4DB 
  50 0129 ECE32DE3 		.ascii	"\354\343-\343\360n\303\306\3173)\037\011\367\342\215"
  50      F06EC3C6 
  50      CF33291F 
  50      09F7E28D 
  51 0139 B378EDE9 		.ascii	"\263x\355\351\312\332p~\223]\334\377\373\216\037\357"
  51      CADA707E 
  51      935DDCFF 
  51      FB8E1FEF 
  52 0149 5FE6FC23 		.ascii	"_\346\374#\366\237t\012\370\240TQ\312\017r\334\304Z"
  52      F69F740A 
  52      F8A05451 
  52      CA0F72DC 
  52      C45A
  53 015b 7E9B9B50 		.ascii	"~\233\233P#P\251\201E\360>\346\326)\365\341Y\212]\221"
  53      2350A981 
  53      45F03EE6 
  53      D629F5E1 
  53      598A5D91 
  54 016f F272E9C1 		.ascii	"\362r\351\301'\267\270\274,\013\367\313e+\307\203\202"
  54      27B7B8BC 
  54      2C0BF7CB 
  54      652BC783 
  54      82
  55 0180 2D70581D 		.ascii	"-pX\035\250\021\032rwa_\365\000\301{A)e\311\307\236"
  55      A8111A72 
  55      77615FF5 
  55      00C17B41 
ARM GAS  /tmp/ccy76ghP.s 			page 4


  55      2965C9C7 
  56 0195 00AB59D2 		.ascii	"\000\253Y\322'\330s\252\222\313\300\271\315.\336~\364"
  56      27D873AA 
  56      92CBC0B9 
  56      CD2EDE7E 
  56      F4
  57 01a6 6DFF518F 		.ascii	"m\377Q\217\360@~\377\231\003\374#O9\017\361\203\223"
  57      F0407EFF 
  57      9903FC23 
  57      4F390FF1 
  57      8393
  58 01b8 870FB388 		.ascii	"\207\017\263\210\217f\363\010\256A\251\374\217S8\342"
  58      8F66F308 
  58      AE41A9FC 
  58      8F5338E2 
  59 01c8 AC4241C2 		.ascii	"\254BA\302\322D+\013\341\253,\204\200\0337q\025\234"
  59      D2442B0B 
  59      E1AB2C84 
  59      801B3771 
  59      159C
  60 01da 56DCDC0D 		.ascii	"V\334\334\015g\371\317G\315\220\317`7\012E\2707F\036"
  60      67F9CF47 
  60      CD90CF60 
  60      370A45B8 
  60      37461E
  61 01ed D13DACD4 		.ascii	"\321=\254\3240\216j8_\213\300k\177\356\032X\310\346"
  61      308E6A38 
  61      5F8BC06B 
  61      7FEE1A58 
  61      C8E6
  62 01ff 51A89568 		.ascii	"Q\250\225h\004\341\323\000a\022\210(B\\#\0201%\204_"
  62      04E1D300 
  62      61128828 
  62      425C2310 
  62      3125845F 
  63 0213 03448040 		.ascii	"\003D\200@\304\020\342\017\002\021WB\0045@\204\010D"
  63      C410E20F 
  63      02115742 
  63      04354084 
  63      0844
  64 0225 BC323F04 		.ascii	"\2742?\004\302RB\2045@D\010\204U\231\211;\036DB\011"
  64      C2524284 
  64      35404408 
  64      84559989 
  64      3B1E4442 
  65 023a 11D50011 		.ascii	"\021\325\000\021#\020\211\312L\020\210\026%D\\\003\204"
  65      231089CA 
  65      4C108816 
  65      25445C03 
  65      84
  66 024b 45205AD0 		.ascii	"E Z\320\014w=e\211\246\225\225xJee\371\206\363\353n"
  66      0C773D65 
  66      89A69595 
  66      784A6565 
  66      F986F3EB 
  67 0260 C659AB9E 		.ascii	"\306Y\253\236\263\3566vV\226\377\244\254\271\014N\251"
  67      B3EE3676 
ARM GAS  /tmp/ccy76ghP.s 			page 5


  67      5696FFA4 
  67      ACB90C4E 
  67      A9
  68 0271 23ADAB20 		.ascii	"#\255\253 \255\337]i\355\324\222V\253BZI\"\255\275\352"
  68      ADDF5D69 
  68      EDD49256 
  68      AB425A49 
  68      22ADBDEA 
  69 0285 B6EC366E 		.ascii	"\266\3546n\313jMi\355a[Z\251\264v\335\331h\253?\033"
  69      CB6A4D69 
  69      ED615B5A 
  69      A9B476DD 
  69      D968AB3F 
  70 029a 4922AD63 		.ascii	"I\"\255cB\230\004\242\215J\013!\332\225\020~\015\020"
  70      429804A2 
  70      8D4A0B21 
  70      DA95107E 
  70      0D10
  71 02ac 0102D14E 		.ascii	"\001\002\321N\245\205\020\035J\210\240\006\210\020\201"
  71      A585101D 
  71      4A88A006 
  71      881081
  72 02bb E8A0D242 		.ascii	"\350\240\322B\210N%DX\003D\204@tRi!D\227\022\"\252\001"
  72      884E2544 
  72      58034484 
  72      40745269 
  72      21449712 
  73 02d2 224620BA 		.ascii	"\"F \272\250\264\020\242[\011\021\327\000a\021\210n"
  73      A8B410A2 
  73      5B0911D7 
  73      00611188 
  73      6E
  74 02e3 54C33D4F 		.ascii	"T\303=OZF\323\322j91i\025=i\335\323!-\243\256\264~\005"
  74      5A46D3D2 
  74      6A393169 
  74      153D69DD 
  74      D3212DA3 
  75 02fb 69FDEB4A 		.ascii	"i\375\353J\353A-i\365(\244\265@\244\365\260\272-\007"
  75      EB412D69 
  75      F528A4B5 
  75      40A4F5B0 
  75      BA2D07
  76 030e 8DDB52AC 		.ascii	"\215\333R\254)\255\207\330\226\036*\255\003w6z\353\317"
  76      29AD87D8 
  76      961E2AAD 
  76      0377367A 
  76      EBCF
  77 0320 C60291D6 		.ascii	"\306\002\221\3261!L\002\321K\245\205\020}J\010\277\006"
  77      31214C02 
  77      D14BA585 
  77      107D4A08 
  77      BF06
  78 0332 880081E8 		.ascii	"\210\000\201\350\243\322B\210\244\022\"\250\001\"D "
  78      A3D24288 
  78      A41222A8 
  78      01224420 
  79 0342 92545A08 		.ascii	"\222TZ\010\321\257\204\010k\200\210\020\210~*-\204\030"
ARM GAS  /tmp/ccy76ghP.s 			page 6


  79      D1AF8408 
  79      6B808810 
  79      887E2A2D 
  79      8418
  80 0354 50424435 		.ascii	"PBD5@\304\010\304\000\225\026B\014*!\342\032 ,\0021"
  80      40C408C4 
  80      00951642 
  80      0C2A21E2 
  80      1A202C02 
  81 0369 886A78EC 		.ascii	"\210jx\354I\313\327\264\264ZOLZk\236\264\036\353\220"
  81      49CBD7B4 
  81      B45A4F4C 
  81      5A6B9EB4 
  81      1EEB90
  82 037c 96AFAEB4 		.ascii	"\226\257\256\264\376\002i}!@Z\237\213\032\322\032RH"
  82      FE02697D 
  82      21405A9F 
  82      8B1AD21A 
  82      5248
  83 038e 2B43A4F5 		.ascii	"+C\244\365\225\250j\313\227\242a[\326jJ\313\255\341"
  83      95A86ACB 
  83      97A2615B 
  83      D66A4ACB 
  83      ADE1
  84 03a0 7C2D9516 		.ascii	"|-\225\026\024\262\371p\375\331\310\020i\035\023\302"
  84      14B2F970 
  84      FDD9C810 
  84      691D13C2 
  85 03b0 2410C354 		.ascii	"$\020\303TZ\010\221RB\3705@\004\010D\212J\013!F\224"
  85      5A089152 
  85      42F83540 
  85      0408448A 
  85      4A0B2146 
  86 03c5 10410D10 		.ascii	"\020A\015\020!\0021B\245\205\020\243J\210\260\006\210"
  86      21023142 
  86      A58510A3 
  86      4A88B006 
  86      88
  87 03d6 088118A5 		.ascii	"\010\201\030\245\322B\2101%DT\003D\214@\214Qi!\304\270"
  87      D2428831 
  87      25445403 
  87      448C408C 
  87      516921C4 
  88 03eb 1222AE01 		.ascii	"\022\"\256\001\302\"\020\343\250\206\262'-\263ii\265"
  88      C22210E3 
  88      A886B227 
  88      2DB36969 
  88      B5
  89 03fc 9D98B4D6 		.ascii	"\235\230\264\326=i\225uH\313\254+\2552H\353\232+\255"
  89      3D699575 
  89      48CBAC2B 
  89      AD3248EB 
  89      9A2BAD
  90 040f 5F6A496B 		.ascii	"_jIkB!\255<\221\326\365\352\266l5n\313zMi]\307\266L"
  90      4221AD3C 
  90      91D6F5EA 
  90      B66C356E 
ARM GAS  /tmp/ccy76ghP.s 			page 7


  90      CB7A4D69 
  91 0427 50696DB9 		.ascii	"Pim\271\2631Y\1776\362DZ\307\2040\011\304$\225\026B"
  91      B331597F 
  91      36F2445A 
  91      C7843009 
  91      C4249516 
  92 043c 4C2921FC 		.ascii	"L)!\374\032 \002\004b\212J\013!\246\225\020A\015\020"
  92      1A200204 
  92      628A4A0B 
  92      21A69510 
  92      410D10
  93 044f 2102314D 		.ascii	"!\0021M\245\205\0203J\210\260\006\210\010\201\230\241"
  93      A5851033 
  93      4A88B006 
  93      88088198 
  93      A1
  94 0460 D2428859 		.ascii	"\322B\210Y%DT\003D\214@\314Ri!\304\234\022\"\256\001"
  94      25445403 
  94      448C40CC 
  94      526921C4 
  94      9C1222AE 
  95 0475 C2221073 		.ascii	"\302\"\020s\214\355\261\302\376\372\330\221{\334-\343"
  95      8CEDB1C2 
  95      FEFAD891 
  95      7BDC2DE3 
  96 0485 FC688B3B 		.ascii	"\374h\213;\356?ZN\317\317\247\361o\345|\372\235\354"
  96      EE3F5A4E 
  96      CFCFA7F1 
  96      6FE57CFA 
  96      9DEC
  97 0497 523ABFF2 		.ascii	"R:\277\362\336\373\347\323\257d^x\366T\372\334\2713"
  97      DEFBE7D3 
  97      AF645E78 
  97      F654FADC 
  97      B933
  98 04a9 E9E75F3A 		.ascii	"\351\347_:\373\342\207\247\340\322\033y\347\265\264"
  98      FBE287A7 
  98      E0D21B79 
  98      E7B5B4
  99 04b8 F4D6FC22 		.ascii	"\364\326\374\"3\355|n%\357_\\y\367\355\234\375?\352"
  99      33ED7C6E 
  99      25EF5F5C 
  99      79F7ED9C 
  99      FD3FEA
 100 04cb A2041B   		.ascii	"\242\004\033"
 101              		.text
 102              		.section	.gnu.lto__pal_lld_setgroupmode.e44cad171b98086c,"",%progbits
 103 0000 789C9D57 		.ascii	"x\234\235WklTE\024\236\231\273ww\273\217\026(B\237\264"
 103      6B6C5445 
 103      149E99BB 
 103      7777BB8F 
 103      1628429F 
 104 0015 9447098F 		.ascii	"\224G\011\217.\345e\241\002\341]\241M\237$\360G)\264"
 104      2EE565A1 
 104      02E15DA1 
 104      4D9F24F0 
 104      4729B4
ARM GAS  /tmp/ccy76ghP.s 			page 8


 105 0028 592AADAD 		.ascii	"Y*\255\255m5\321?l\331\376h,!\215by\330\230\"\022D\202"
 105      6D35D13F 
 105      6CD9FE68 
 105      2C218D62 
 105      79D89822 
 106 003f A53658A4 		.ascii	"\2456X\244Mi\215F\210h4\361\007\253&bM \206\006\301"
 106      4D698D46 
 106      886834F1 
 106      07AB2662 
 106      4D208606 
 107 0054 0625015D 		.ascii	"\006%\001]\317\231\307\335W\343.\335\264g\356\234s\276"
 107      CF99C7DD 
 107      57E32EDD 
 107      B467EE9C 
 107      73BE
 108 0066 6FBE9939 		.ascii	"o\276\2319;w\226\021F\302?\347\341\377\316\024B\232"
 108      3B779611 
 108      46C23FE7 
 108      E1FFCE14 
 108      429A
 109 0078 A0A50984 		.ascii	"\240\245\011\204\262\216o\011i\2612\252\211\007\215"
 109      B28E6F09 
 109      69B132AA 
 109      89078D
 110 0087 99DAB289 		.ascii	"\231\332\262\211\307\346@\35301\375\3763\320\213\353"
 110      C7E640EB 
 110      3031FDFE 
 110      33D08BEB 
 111 0097 CE839ECE 		.ascii	"\316\203\236\316\314<f\34113\265\012\210E=X\251C<\304"
 111      CC3C66E1 
 111      3133B50A 
 111      88453D58 
 111      A9433CC4 
 112 00ab 311B4FB4 		.ascii	"1\033O\264\363D\233r\333\325\203\203\305\267Z \356<"
 112      F3449B72 
 112      DBD58383 
 112      C5B75A20 
 112      EE3C
 113 00bd FC158104 		.ascii	"\374\025\201\004\247\030|\304\032O)>\020J\0162\315\244"
 113      A7187CC4 
 113      1A4F293E 
 113      104A0E32 
 113      CDA4
 114 00cf 9B2DD638 		.ascii	"\233-\3268\233\335\341\214\247\007wS\024o\317\"\247"
 114      9BDDE18C 
 114      A7077753 
 114      146FCF22 
 114      A7
 115 00e0 3C9E8E5B 		.ascii	"<\236\216[_\366?\240'\216\016\267v{\236\370\375\224"
 115      5FF63FA0 
 115      278E0EB7 
 115      767B9EF8 
 115      FD94
 116 00f2 D6509868 		.ascii	"\326P\230h\036%\373(\331\005\035\232\311\033f\012\235"
 116      1E25FB28 
 116      D9051D9A 
 116      C91B660A 
ARM GAS  /tmp/ccy76ghP.s 			page 9


 116      9D
 117 0103 39C7BE35 		.ascii	"9\307\2765|\254\375H\262\247\373P\207\347_\200\326P"
 117      7CACFD48 
 117      B2A7FB50 
 117      87E75F80 
 117      D650
 118 0115 8D917531 		.ascii	"\215\221u1\"\217\177\355\350hi\363\370\375\0079ls\214"
 118      228F7FED 
 118      E86869F3 
 118      F8FD0739 
 118      6C738C
 119 0128 B093A1B0 		.ascii	"\260\223\241\260\0351\302\272Ba\3451\302\336\013\205"
 119      1D31C2BA 
 119      4261E531 
 119      C2DE0B85 
 120 0138 ED8E1176 		.ascii	"\355\216\021v1\024\366B\214\260\376\366\243a\213\271"
 120      3114F642 
 120      8CB0FEF6 
 120      A3618BB9 
 121 0148 3736A4E7 		.ascii	"76\244\347a\3255O\353\260\337\277\236\243\016\304\210"
 121      61D5354F 
 121      EBB0DFBF 
 121      9EA30EC4 
 121      88
 122 0159 FA2704F5 		.ascii	"\372'\004\365r\214\250w\252\203Q\257DC\365\260\341["
 122      728CA877 
 122      AA8351AF 
 122      4443F5B0 
 122      E15B
 123 016b 7E7F976F 		.ascii	"~\177\227ol\364C\232\270\223\222:,\257Jz\232f\021\015"
 123      6CF4439A 
 123      B893923A 
 123      2CAF4A7A 
 123      9A66110D 
 124 017f DA33D09A 		.ascii	"\3323\320\232\240=\013\255\016\3559h\315\320^\200\326"
 124      A03D0BAD 
 124      0EED3968 
 124      CDD05E80 
 124      D6
 125 0190 46EB28B5 		.ascii	"F\353(\265\313d\007\251\241&\247D\304c'A\302\246`g\252"
 125      CB6407A9 
 125      A126A744 
 125      C4632741 
 125      C2A66067 
 126 01a5 C44EC34E 		.ascii	"\304N\303N\"t\316Cg:\020\220\031\350\231\211&\011M2"
 126      2274CE43 
 126      673A1090 
 126      19E89989 
 126      26094D32 
 127 01b9 18920209 		.ascii	"\030\222\002\011=\220\220\012\355)h\323\320\231\016"
 127      3D90900A 
 127      ED2968D3 
 127      D0990E
 128 01c8 9D5EE8CC 		.ascii	"\235^\350\314\302\264\014\364d\242\231\015\356>pgag"
 128      C2B40CF4 
 128      64A2990D 
 128      EE3E7067 
ARM GAS  /tmp/ccy76ghP.s 			page 10


 128      6167
 129 01da 0E742E41 		.ascii	"\016t.Ag.0\263y\2308\037M6\232\005h\026\242Y\204f1\232"
 129      672E30B3 
 129      7998381F 
 129      4D369A05 
 129      6816A259 
 130 01f2 25685C68 		.ascii	"%h\\h\226\242\311E\263\034\315\0124+\321\254B\223\207"
 130      96A2C945 
 130      B31CCD0A 
 130      342BD1AC 
 130      429387
 131 0205 66359A35 		.ascii	"f5\2325h\362\321\254E\263\016\315z4\033\320lD\263\011"
 131      68F2D1AC 
 131      45B30ECD 
 131      7A341BD0 
 131      6C44B309 
 132 0219 CD16345B 		.ascii	"\315\0264[\321lCS\200f;\232\035h\012\321\024\241)\306"
 132      D16C4353 
 132      80663B9A 
 132      1D680AD1 
 132      14A129C6 
 133 022d 152F91EB 		.ascii	"\025/\221\353V*\227\254L\256V\271\\\334\012\271\342"
 133      562A97AC 
 133      4CAE56B9 
 133      5CDC0AB9 
 133      E2
 134 023e F0D1492B 		.ascii	"\360\321I+\034\012\231\302/P\002#\020baU\366>~\220T"
 134      1C0A99C2 
 134      2F500223 
 134      10626155 
 134      F63E7E90 
 135 0253 80851368 		.ascii	"\200\205\023h'e\320h\337\020\357\200\267\2473\255\222"
 135      2765D068 
 135      DF10EF80 
 135      B7A733AD 
 135      92
 136 0264 F6539DB8 		.ascii	"\366S\235\270\251\335MmX\030&\015R\257\023&\374\202"
 136      A9DD4D6D 
 136      5818260D 
 136      52AF1326 
 136      FC82
 137 0276 1FA28470 		.ascii	"\037\242\204p@_\347s\012\340P\000\254$\010~\354mT!'"
 137      405FE773 
 137      0AE05000 
 137      AC24087E 
 137      EC6D5421 
 138 028b 44778913 		.ascii	"Dw\211\023*\204\353\014\347rJ\256\376\000W\274\342J"
 138      2A84EB0C 
 138      E7724AAE 
 138      FE0057BC 
 138      E24A
 139 029d 8AE04A80 		.ascii	"\212\340J\200(\347\012\323u\226s%H\256\201\000\327\024"
 139      28E70AD3 
 139      75967325 
 139      48AE8100 
 139      D714
 140 02af C5B52782 		.ascii	"\305\265'\202k*D9\227\036\312u\216sM\225\\W\003\\\323"
ARM GAS  /tmp/ccy76ghP.s 			page 11


 140      6B2A4439 
 140      971ECA75 
 140      8E734D95 
 140      5C57035C 
 141 02c4 14972721 		.ascii	"\024\227'!\202,\021\302\234\314\022Jv\236\223%\242\357"
 141      822C11C2 
 141      9CCC124A 
 141      769E9325 
 141      A2EF
 142 02d6 50F74D5D 		.ascii	"P\367M]\271q'0]S\337\270\235\360\010\007\277\006iV\""
 142      B9712730 
 142      5D53DFB8 
 142      9DF00807 
 142      BF066956 
 143 02eb 13DCD4CC 		.ascii	"\023\334\324\314q\334!T\351\001\207\230\262)\340\020"
 143      71DC2154 
 143      E9018798 
 143      B229E010 
 144 02fb EBA9051C 		.ascii	"\353\251\005\034b\263\230r@I\271)\225\323\272\333\231"
 144      62B39872 
 144      4049B929 
 144      95D3BADB 
 144      99
 145 030c A1A4CF00 		.ascii	"\241\244\317\000/\237\026\326\3055\322:\326\222k\204"
 145      2F9F16D6 
 145      C535D23A 
 145      D6926B84 
 146 031c B83F702E 		.ascii	"\270?p.\370\010u\323\351\014L\261\363\311\203\375>\302"
 146      F80875D3 
 146      E90C4CB1 
 146      F3C983FD 
 146      3EC2
 147 032e A018D8A0 		.ascii	"\240\030\330\240\257\301M\313\235?\217\327\372\210\006"
 147      AFC14DCB 
 147      9D3F8FD7 
 147      FA8806
 148 033d 3BCA6EA0 		.ascii	";\312n\240\243\304\371A\223\217\230`W\330\017\273\335"
 148      A3C4F941 
 148      938F9860 
 148      57D80FBB 
 148      DD
 149 034e B4D43938 		.ascii	"\264\32498\336\354#:\254,\033\303x\231\363\006\002\314"
 149      DEEC233A 
 149      AC2C1BC3 
 149      7899F306 
 149      02CC
 150 0360 7219D8E1 		.ascii	"r\031\330\341\237\300Y\341\034\033\337\203\253a\"m\331"
 150      9FC059E1 
 150      1C1BDF83 
 150      AB61226D 
 150      D9
 151 0371 A22AFFEE 		.ascii	"\242*\377\356,0\312\273\207\227q/\267}\334^\342%-\364"
 151      2C30CABB 
 151      8797712F 
 151      B77DDC5E 
 151      E2252DF4 
 152 0385 C2C74D67 		.ascii	"\302\307Mg\302\252q\325\026\261Goz?\205\315\270\314"
ARM GAS  /tmp/ccy76ghP.s 			page 12


 152      C2AA71D5 
 152      16B1476F 
 152      7A3F85CD 
 152      B8CC
 153 0397 A79304E1 		.ascii	"\247\223\004\341\240\"=t\317;DU,\031\302\034p\301\373"
 153      A0223D74 
 153      CF3B4455 
 153      2C19C21C 
 153      70C1FB
 154 03aa BEE14CE1 		.ascii	"\276\341L\341\033\233,w\3642\337\272\036\276\252)\222"
 154      1B9B2C77 
 154      F432DFBA 
 154      1EBEAA29 
 154      92
 155 03bb E071E72C 		.ascii	"\340q\347,\225\234\312\367\013\0314\345J\343%\201\353"
 155      959CCAF7 
 155      0B1934E5 
 155      4AE32581 
 155      EB
 156 03cc 9E2AF35F 		.ascii	"\236*\363_R\241t\210\206\360\366r\336t)\332\337\231"
 156      52A17488 
 156      86F0F672 
 156      DE7429DA 
 156      DF99
 157 03de A33267A9 		.ascii	"\2432g\251\0311\245\372\015\025\312\200h\330\220\231"
 157      1931A5FA 
 157      0D15CA80 
 157      68D89099 
 158 03ee F2EB01C1 		.ascii	"\362\353\001\301\360!gC4d\310>>\344l9\355\323\3072T"
 158      F0216743 
 158      3464C83E 
 158      3EE46C39 
 158      EDD3C732 
 159 0403 66162749 		.ascii	"f\026'I |\356\241$s\334\270\342A$\2278\311\034\314\373"
 159      207CEEA1 
 159      2473DCB8 
 159      E2412497 
 159      38C91CCC 
 160 0418 FCC7CB57 		.ascii	"\374\307\313W~5\224\314[D>\362\264\002\221\376.9\011"
 160      7E3594CC 
 160      5B443EF2 
 160      B40291FE 
 160      2E3909
 161 042b 8DD94DE7 		.ascii	"\215\331M\347\"\257\205\227\322^\252\212\012\370\007"
 161      22AF8597 
 161      D25EAA8A 
 161      0AF807
 162 043a BD43C626 		.ascii	"\275C\306&\315W\2130\020\264s\331@\007!\356\377\314"
 162      CD578B30 
 162      10B473D9 
 162      400721EE 
 162      FFCC
 163 044c FBA7E15F 		.ascii	"\373\247\341_\300C\032\037\374\372E\273p\363q[<\317"
 163      C0431A1F 
 163      FCFA45BB 
 163      70F3715B 
 163      3CCF
ARM GAS  /tmp/ccy76ghP.s 			page 13


 164 045e 461919D0 		.ascii	"F\031\031\320B\364\315 \321\013\243\210\246\301\242"
 164      42F4CD20 
 164      D10BA388 
 164      A6C1A2
 165 046d 470D1D8B 		.ascii	"G\015\035\213\3242\016x\257\030\316\305@\007!)\372/"
 165      D4320E78 
 165      AF18CEC5 
 165      40072129 
 165      FA2F
 166 047f C3BF8487 		.ascii	"\303\277\204\207LO)\232J\321K\204\350GA\242]QD3C4\350"
 166      4C4F299A 
 166      4AD14B84 
 166      E84741A2 
 166      5D514433 
 167 0496 FBC4D0B1 		.ascii	"\373\304\320\261\224\353vI}\367\014\177.\017\351O\251"
 167      94EB7649 
 167      7DF70C7F 
 167      2E0FE94F 
 167      A9
 168 04a7 8F497DB9 		.ascii	"\217I}\271x\210|qg\304\327\356T\204\314(\337\300q\247"
 168      78887C71 
 168      67C4D7EE 
 168      5484CC28 
 168      DFC071A7 
 169 04bb 9347360D 		.ascii	"\223G6\015N\233\333#\277\264\307\253Dq\030XB\022\315"
 169      4E9BDB23 
 169      BFB4C7AB 
 169      44711858 
 169      4212CD
 170 04ce 6450D770 		.ascii	"dP\327p\306\307\207~7f\274<\312\2145c\306\260M\201\035"
 170      C6C7877E 
 170      3766BC3C 
 170      CA8C3563 
 170      C6B04D81 
 171 04e3 59210B35 		.ascii	"Y!\0135d\031V\002\035\204\"\226a\025\017\245\210e\370"
 171      64195602 
 171      1D842296 
 171      61150FA5 
 171      8865F8
 172 04f6 2E7419D6 		.ascii	".t\031\326G\031\031\320J\277E\351\277\031\244?/\212"
 172      471919D0 
 172      4ABF45E9 
 172      BF19A43F 
 172      2F8A
 173 0508 7ED3C4FA 		.ascii	"~\323\304\372WO\244\177\015\320A(B\177>\017=\255~\223"
 173      574FA47F 
 173      0DD04128 
 173      427F3E0F 
 173      3DAD7E93 
 174 051c D49FAFF4 		.ascii	"\324\237\257\364[q\243x\305\015=0\364\257\215\242_\017"
 174      5B71A378 
 174      C50D3D30 
 174      F4AF8DA2 
 174      5F0F
 175 052e AEB880FE 		.ascii	"\256\270\200\376u\274\342\326F|#\326\363\020\023R\357"
 175      75BCE2D6 
 175      467C23D6 
ARM GAS  /tmp/ccy76ghP.s 			page 14


 175      F3101352 
 175      EF
 176 053f 874ACD8F 		.ascii	"\207J\315\2172\010\240\225\3248\322\221&Je4 u\303\344"
 176      3208A095 
 176      D438D291 
 176      264A6534 
 176      2075C3E4 
 177 0553 A46EE452 		.ascii	"\244n\344R7DH\335\304C\223\225\272\211\277ao\217\274"
 177      374448DD 
 177      C4439395 
 177      BA89BF61 
 177      6F8FBC
 178 0566 7DE47F6B 		.ascii	"}\344\177k\336F\332\342E\315\214\006jf\313\344j~\353"
 178      DE46DAE2 
 178      45CD8C06 
 178      6A66CBE4 
 178      6A7EEB
 179 0579 4435B30D 		.ascii	"D5\263\015\350 \024Q3\005<4\331\232/P\372\355J\377\361"
 179      E8201451 
 179      33053C34 
 179      D99A2F50 
 179      FAED4AFF 
 180 058e DF02FAB7 		.ascii	"\337\002\372\267O\256\346wL\244\277\020\350 \024\241"
 180      4FAEE677 
 180      4CA4BF10 
 180      E82014A1 
 181 059e BF888726 		.ascii	"\277\210\207&[\363EJ\277\203\337\305\370\015\357jW\212"
 181      5BF3454A 
 181      BF83DFC5 
 181      F80DEF6A 
 181      578A
 182 05b0 BA0D15CB 		.ascii	"\272\015\025\313\213\022\301\243\330\270\343\361kU\261"
 182      8B12C1A3 
 182      D8B8E3F1 
 182      6B55B1
 183 05bf 3CF47A8F 		.ascii	"<\364z\2178\214\354\260\273\023\362:\011\374\334\327"
 183      388CECB0 
 183      BB13F23A 
 183      09FCDCD7 
 184 05cf F8DBF66E 		.ascii	"\370\333\366n\227q\331.\2017X$\257\272\320\225\310\327"
 184      9771D92E 
 184      81375824 
 184      AFBAD095 
 184      C8D7
 185 05e1 F31F5DE9 		.ascii	"\363\037]\351\012P\012o\217\211n\324\342JX*\001\343"
 185      0A500A6F 
 185      8F896ED4 
 185      E24A582A 
 185      01E3
 186 05f3 5DA90A50 		.ascii	"]\251\012P\006\307\371D\000q\251,\223\200\207\206\242"
 186      06C7F944 
 186      0071A92C 
 186      93808786 
 186      A2
 187 0604 72796687 		.ascii	"ryf\207\347\213\033e9\317o\363>\356JR\200\012U\307a"
 187      E78B1B65 
 187      39CF6FF3 
ARM GAS  /tmp/ccy76ghP.s 			page 15


 187      3EEE4A52 
 187      800A55C7 
 188 0619 5310D7D8 		.ascii	"S\020\327\330\0125\377x\374\255\361=i\271u\342\0165"
 188      0A35FF78 
 188      FCADF13D 
 188      69B975E2 
 188      0E35
 189 062b EE6CFC53 		.ascii	"\356l\374S\001\357\267V\013\016\2672'\307%\376\352\233"
 189      01EFB756 
 189      0B0EB732 
 189      27C725FE 
 189      EA9B
 190 063d 5CFB2B6B 		.ascii	"\\\373+k]\015\365\215\315M\256\362\212\242\345\313\\"
 190      5D0DF58D 
 190      CD4DAEF2 
 190      8AA2E5CB 
 190      5C
 191 064e 85859B5D 		.ascii	"\205\205\233]\333J\236/~m\031\206^l\200\377\332\332"
 191      DB4A9E2F 
 191      7E6D1986 
 191      5E6C80FF 
 191      DADA
 192 0660 AA9C7D44 		.ascii	"\252\234}D\337[\323\234\263T\257\253\257\252n4\3277"
 192      DF5BD39C 
 192      B354AFAB 
 192      AFAA6E34 
 192      D737
 193 0672 BFDE50DD 		.ascii	"\277\336P\335h\251oj\250\256\256j\324\033^m\250j4U\326"
 193      68A96F6A 
 193      A8AEAE6A 
 193      D41B5E6D 
 193      A86A3455 
 194 0687 36376A90 		.ascii	"67j\220e\305\207\272\312\246\003\254.\227\325-cu+\376"
 194      65C587BA 
 194      CAA603AC 
 194      2E97D52D 
 194      63752BFE 
 195 069b 0370B2EE 		.ascii	"\003p\262\356B"
 195      42
 196              		.text
 197              		.section	.gnu.lto_.symbol_nodes.e44cad171b98086c,"",%progbits
 198 0000 789C6362 		.ascii	"x\234cb`bP`\200\002\246\307\014\365\014\014\023\316"
 198      60625060 
 198      8002A6C7 
 198      0CF50C0C 
 198      13CE
 199 0012 3130D4D7 		.ascii	"10\324\327\317\353`dz\302P\317\210\3402\000\000\244"
 199      CFEB6064 
 199      7AC250CF 
 199      88E03200 
 199      00A4
 200 0024 0609F5   		.ascii	"\006\011\365"
 201              		.text
 202              		.section	.gnu.lto_.refs.e44cad171b98086c,"",%progbits
 203 0000 789C6362 		.ascii	"x\234cb`b`d\200\002\000\000F\000\006"
 203      60626064 
 203      80020000 
ARM GAS  /tmp/ccy76ghP.s 			page 16


 203      460006
 204              		.text
 205              		.section	.gnu.lto_.decls.e44cad171b98086c,"",%progbits
 206 0000 789CBD59 		.ascii	"x\234\275Y\177l\023\327\035\177\357\316q\222\306\243"
 206      7F6C13D7 
 206      1D7FEFCE 
 206      7192C6A3 
 207 0010 112D08B4 		.ascii	"\021-\010\264N\270\322\272\242\252\303\020\324\216\375"
 207      4EB8D2BA 
 207      A2AAC310 
 207      D48EFD
 208 001f 6A973881 		.ascii	"j\2278\201d\015\215u\001m\223&Y\267\330\001kIl\331\316"
 208      640D8D75 
 208      016D9326 
 208      59B7D801 
 208      6B496CD9 
 209 0034 C6FE3B92 		.ascii	"\306\376;\222\302\252\264c!e\214\264!\230\026BJ\351"
 209      C2AAB463 
 209      21658CB4 
 209      21981642 
 209      4AE9
 210 0046 02196DA1 		.ascii	"\002\031m\241\201\306\024\015E\200HK\3322\245\260\244"
 210      81C6140D 
 210      4580484B 
 210      DA32A5B0 
 210      A4
 211 0057 43B45413 		.ascii	"C\264T\023]\246\215j]U\274\357\373\336\331~\317\370"
 211      5DA68D6A 
 211      5D55BCEF 
 211      FBDED97E 
 211      CFF8
 212 0069 E2BBACDA 		.ascii	"\342\273\254\332\311\337\357{~\367\375~\336\347\375"
 212      C9DFEF7B 
 212      7EF7FD7E 
 212      DEE7FD
 213 0078 B8F7FDFA 		.ascii	"\270\367\375\372,\021\211\374\224\022\222\202+\370U"
 213      2C1189FC 
 213      94129282 
 213      2BF855
 214 0087 420E4984 		.ascii	"B\016I\204\310\204\220GH\366\202&\262\027d\202\334~"
 214      C8849047 
 214      48F68226 
 214      B2176482 
 214      DC7E
 215 0099 B1F67920 		.ascii	"\261\366y \305 W@\026\003\326w@\276\013\362}\220\375"
 215      C5205740 
 215      1603D677 
 215      40BE0BF2 
 215      7D90FD
 216 00ac D0B60FA4 		.ascii	"\320\266\017\244\204\352v.\206\015\365\357\201\\\202"
 216      84EA762E 
 216      860DF5EF 
 216      815C82
 217 00bb FADD204B 		.ascii	"\372\335 K\241\376\022\224\307A\246@F@>\0009\011r\025"
 217      A1FE1294 
 217      C741A640 
 217      46403E00 
ARM GAS  /tmp/ccy76ghP.s 			page 17


 217      39097215 
 218 00cf 6414E423 		.ascii	"d\024\344#\220S\254C\260=\3158Ay\004\312\313 g@\306"
 218      9053AC43 
 218      B03DCD38 
 218      417904CA 
 218      CB206740 
 219 00e4 40CE829C 		.ascii	"@\316\202\234\347\370>\0126N(\337\002\251\205z\035\310"
 219      E7F83E0A 
 219      364E28DF 
 219      02A9857A 
 219      1DC8
 220 00f6 0F411E03 		.ascii	"\017A\036\003\251\247\3428\330\330J@\034$\313s\230\033"
 220      A9A7E238 
 220      D8D84A40 
 220      1C24CB73 
 220      981B
 221 0108 17E3FA1E 		.ascii	"\027\343\372\036\321\361\246\014~W\015>\214\313e\275"
 221      D1F1A60C 
 221      7E570D3E 
 221      8CCB65BD 
 222 0118 8A386CFE 		.ascii	"\2128l\376\356\206/\013A\346\347\364\263\204\364k\211"
 222      EE862F0B 
 222      41E6E7F4 
 222      B384F46B 
 222      89
 223 0129 E9E92D9F 		.ascii	"\351\351-\237\034^\254%:\222\251\324\243d!\371\235\006"
 223      1C5EAC25 
 223      3A92A9D4 
 223      A36421F9 
 223      9D06
 224 013b 5762ABA6 		.ascii	"Wb\253\246\321\270J\037Y@~LU:\257\224\270\261\342*E"
 224      D1B84A1F 
 224      59407E4C 
 224      553AAF94 
 224      B8B1E22A 
 225 0150 5284A8F4 		.ascii	"R\204\250\364y\272\020k2\016\221\224\221.M\353`\216"
 225      79BA106B 
 225      320E9194 
 225      912E4DEB 
 225      608E
 226 0162 B563F3E6 		.ascii	"\265c\363\346\223\355\210\002 c0\000\003b\272$\215\361"
 226      93ED8802 
 226      20633000 
 226      0362BA24 
 226      8DF1
 227 0174 3423721F 		.ascii	"4#r\037\331\247i\335\323\377\370\370\200\254i%\206\213"
 227      D9A769DD 
 227      D3FFF8F8 
 227      80AC6925 
 227      868B
 228 0186 DBDC5EA5 		.ascii	"\333\334^\245\003\364>R\330\216Y\016\322\371\344\001"
 228      03F43E52 
 228      D88E590E 
 228      D2F9E401 
 229 0196 F2221876 		.ascii	"\362\"\030vk\332\233\337\022\307\215\035k\311\221\213"
 229      6BDA9BDF 
 229      12C78D1D 
ARM GAS  /tmp/ccy76ghP.s 			page 18


 229      6BC9918B 
 230 01a6 2ECDA19B 		.ascii	".\315\241\2332\227\027\351\003y\266\024\271\227$\230"
 230      329717E9 
 230      0379B614 
 230      B9972498 
 231 01b6 F1DB17FB 		.ascii	"\361\333\027\373\250\226x\223\346\353\236\246\273\277"
 231      A8967893 
 231      E6EB9EA6 
 231      BBBF
 232 01c4 2733AA64 		.ascii	"'3\252d\357E\352V\351!\260\227H;\025\340\013B06C\340"
 232      EF45EA56 
 232      E921B097 
 232      483B15E0 
 232      0B423036 
 233 01da A93B196C 		.ascii	"\251;\031l\337\037G\266C\026\330v$\247\306\373\0263"
 233      DF1F47B6 
 233      4316D876 
 233      24A7C6FB 
 233      1633
 234 01ec B6A5E4C9 		.ascii	"\266\245\344\311\354\242\220\274Ki\254\302\221\256?"
 234      ECA290BC 
 234      4B69ACC2 
 234      91AE3F
 235 01fb 9DA21DB0 		.ascii	"\235\242\035\260^*\035\0067\211\014P\221\265u\250\321"
 235      5E2A1D06 
 235      37890C50 
 235      91B575A8 
 235      D1
 236 020c A74E7C1B 		.ascii	"\247N|\033\026T\245\257 \320\225\034 \225\026\227\362"
 236      1654A5AF 
 236      20D0951C 
 236      20951697 
 236      F2
 237 021d 94F17BDA 		.ascii	"\224\361{\332\200\241\341m\243\302N\202;\211]s\211\\"
 237      80A1E16D 
 237      A3C24E82 
 237      3B895D73 
 237      895C
 238 022f C74ED964 		.ascii	"\307N\331d\345#jT\365\3130\020&pz\346\332\036\234\300"
 238      E5236A54 
 238      F5CB3010 
 238      26707AE6 
 238      DA1E9CC0 
 239 0243 F46C7C62 		.ascii	"\364l|b\033\317-,\310\247\343\256n5\015v\323\012X\211"
 239      1BCF2D2C 
 239      C8A7E3AE 
 239      6E350D76 
 239      D30A5889 
 240 0257 29B9E47F 		.ascii	")\271\344\177x\260/l\203\211\314n\361`\235\222\005\260"
 240      78B02F6C 
 240      8389CC6E 
 240      F1609D92 
 240      05B0
 241 0269 7273663D 		.ascii	"rsf=\0279\260_\333\006\023\231\355\344\301\236\266\002"
 241      1739B05F 
 241      DB061399 
 241      EDE4C19E 
ARM GAS  /tmp/ccy76ghP.s 			page 19


 241      B602
 242 027b B6280FB3 		.ascii	"\266(\017\263|\027\377x\251\3640\234**=B\357\005}\034"
 242      7C17FF78 
 242      A9F4309C 
 242      2A2A3D42 
 242      EF057D1C 
 243 028f F508EA93 		.ascii	"\365\010\352\223\250GQ\237B}\032t\346\222\310v\3444"
 243      A847519F 
 243      427D1A74 
 243      E692C876 
 243      E434
 244 02a1 98E5243E 		.ascii	"\230\345$>\306\205v\231\226\374\263\302\006\250\037"
 244      C6857699 
 244      96FCB3C2 
 244      06A81F
 245 02b0 12BB2C81 		.ascii	"\022\273,\201\011#t\013`3\034\330\036K`\253\314\231"
 245      0923740B 
 245      60331CD8 
 245      1E4B60AB 
 245      CC99
 246 02c2 FD9B031B 		.ascii	"\375\233\003\033\260\004\3463g\266\2531\013\366\262"
 246      B004E633 
 246      67B6AB31 
 246      0BF6B2
 247 02d1 25B0C86C 		.ascii	"%\260\310l\013\231^\267\203\270n/\341\312\234A=\206"
 247      0B995EB7 
 247      83B86E2F 
 247      E1CA9C41 
 247      3D86
 248 02e3 FA2CEAF3 		.ascii	"\372,\352\363\342Z\035\225rO!\375\334\347P\0073{\202"
 248      E25A1D95 
 248      724F21FD 
 248      DCE75007 
 248      337B82
 249 02f6 58C5358B 		.ascii	"X\3055\213\215\373hY\026w\275\314\361x#\207\307\327"
 249      8DFB6859 
 249      1677BDCC 
 249      F1782387 
 249      C7D7
 250 0308 C90B9AD6 		.ascii	"\311\013\232\326\003!\370\272\243WK:tW\211\234G\263"
 250      0321F8BA 
 250      A3574B3A 
 250      7457899C 
 250      47B3
 251 031a BD7449DE 		.ascii	"\275tI\336.2\035|\203\354g\241\3447\332\226r\212\301"
 251      2E321D7C 
 251      83EC67A1 
 251      E437DA96 
 251      728AC1
 252 032d 9A185EC2 		.ascii	"\232\030^\302\300\306\251\3047\350Q?y\353\254\253{\363"
 252      C0C6A9C4 
 252      37E8513F 
 252      79EBACAB 
 252      7BF3
 253 033f 742AB5C4 		.ascii	"t*\265\304z\310\177\247p\310\027\242\232\224\006x\220"
 253      7AC87FA7 
 253      70C817A2 
ARM GAS  /tmp/ccy76ghP.s 			page 20


 253      9A940678 
 253      90
 254 0350 64C3FDDE 		.ascii	"d\303\375\336=2F\207K\270\037&\244\302\301Q\200a<&s"
 254      3D324687 
 254      4BB81F26 
 254      A4C2C151 
 254      80613C26 
 255 0365 83E3E717 		.ascii	"\203\343\347\02708N\026\016\216Ot&S\027\270\340\330"
 255      30384E16 
 255      0E8E4F74 
 255      265317B8 
 255      E0D8
 256 0377 396B4453 		.ascii	"9kDS\351\037q\223Y\0119\3238\222\311\271\205\034\240"
 256      E91F7193 
 256      590939D3 
 256      3892C9B9 
 256      851CA0
 257 038a D5AD1FC4 		.ascii	"\325\255\037\304W\360\270\373\3206\230[\000\353\341"
 257      57F0B8FB 
 257      D036985B 
 257      00EBE1
 258 0399 C16E5801 		.ascii	"\301nX\0013\2137\000\266\203\007\273i\033Ld\266\223"
 258      338B3700 
 258      B68307BB 
 258      691B4C64 
 258      B693
 259 03ab 07FBDC0A 		.ascii	"\007\373\334\012\230Y\274\001\260]<X\3126\030\317ls"
 259      9859BC01 
 259      B05D3C58 
 259      CA3618CF 
 259      6C73
 260 03bd F2B5F1B3 		.ascii	"\362\265\361\263T\353q\335Ez4m\263\226p\232m\012B\320"
 260      54EB71DD 
 260      457A346D 
 260      B396709A 
 260      6D0A42D0 
 261 03d1 449BD544 		.ascii	"D\233\325D\245\177\243w\211\233\364\271\337\316c\233"
 261      A57FA377 
 261      899BF4B9 
 261      DFCE639B 
 262 03e1 94B517CE 		.ascii	"\224\265\027\316\340v\033\031\\&2\313\324\300\234KB"
 262      E0761B19 
 262      5C2632CB 
 262      D4C09C4B 
 262      42
 263 03f2 A3255F19 		.ascii	"\243%_\031/\323\272\\\351\274\374\007\203\263\020\237"
 263      2FD3BA5C 
 263      E9BCFC07 
 263      83B3109F 
 264 0402 C97DBAF6 		.ascii	"\311}\272\366\214Kn\275\2710\357#\343}\213\264\304\251"
 264      8C4B6EBD 
 264      B930EF23 
 264      E37D8BB4 
 264      C4A9
 265 0414 74E6A96D 		.ascii	"t\346\251m\325\226r}\225\247\373b\347G&\363|\355A<\020"
 265      D596727D 
 265      95A7FB62 
ARM GAS  /tmp/ccy76ghP.s 			page 21


 265      E74726F3 
 265      7CED413C 
 266 0429 FE8903DD 		.ascii	"\376\211\003\335\"\347\315;-\000\215>u@\317;?E\240m"
 266      22E7CD3B 
 266      2D008D3E 
 266      7540CF3B 
 266      3F45A06D 
 267 043d 72EE892F 		.ascii	"r\356\211/\347\344\235\262\370T\313\245\331J*%\023{"
 267      E7E49DB2 
 267      F854CBA5 
 267      D94A2A25 
 267      137B
 268 044f C612E9C5 		.ascii	"\306\022\351\305\016g\262\373O i%\347\354\307\251K\317"
 268      0E67B2FB 
 268      4F206925 
 268      E7ECC7A9 
 268      4BCF
 269 0461 C46EDB78 		.ascii	"\304n\333x\3459k\"\221\027\346\272m\270\221\247#\342"
 269      E5396B22 
 269      9117E6BA 
 269      6DB891A7 
 269      23E2
 270 0473 0D8C7F7F 		.ascii	"\015\214\177\177\027\343\352~\331\302C\227//3\236\340"
 270      17E3EA7E 
 270      D9C24397 
 270      2F2F339E 
 270      E0
 271 0484 63FC137C 		.ascii	"c\374\023|\3206\230[\000{\235\007\033\262\002\3466g"
 271      D036985B 
 271      007B9D07 
 271      1BB202E6 
 271      3667
 272 0496 7682073B 		.ascii	"v\202\007;j\033Ld\366\006\017v\334\012\330\322\331\026"
 272      6A1B4C64 
 272      F6060F76 
 272      DC0AD8D2 
 272      D916
 273 04a8 45589F49 		.ascii	"EX\237I.\227}\037\303\325e\\\251)\324\037\240\276\212"
 273      2E977D1F 
 273      C3D5655C 
 273      A929D41F 
 273      A0BE8A
 274 04bb FA1AEA8F 		.ascii	"\372\032\352\217P\177\214\372\026jMb\272\003\365\023"
 274      507F8CFA 
 274      166A4D62 
 274      BA03F513 
 275 04cb 5281FCC6 		.ascii	"R\201\374\306\370\201;\261\363\036v\232\275\207\351"
 275      F8813BB1 
 275      F31E769A 
 275      BD87E9
 276 04da CAC99C67 		.ascii	"\312\311\234gM\310\014\364Pov\332<)\225\231\034*\267"
 276      4DC80CF4 
 276      506F76DA 
 276      3C299599 
 276      1C2AB7
 277 04ed DD33D20E 		.ascii	"\3353\322\016\313\277D\223\251g\0260\216]\022\233\365"
 277      CBBF4493 
ARM GAS  /tmp/ccy76ghP.s 			page 22


 277      A9671630 
 277      8E5D129B 
 277      F5
 278 04fe B1DBCE03 		.ascii	"\261\333\316\003v\262\012\375Y\372!j\233\305\256\205"
 278      76B20AFD 
 278      59FA216A 
 278      9BC5AE85 
 279 050e 924AB721 		.ascii	"\222J\267!\207w\277$\0169I\345_r`\215\244\362\332\320"
 279      8777BF24 
 279      0E3949E5 
 279      5F72608D 
 279      A4F2DAD0 
 280 0522 674652A9 		.ascii	"gFR\251\257\322\277\320l\3024\251dV\206or\373\271C\020"
 280      AFD2BFD0 
 280      6CC234A9 
 280      6456866F 
 280      72FBB943 
 281 0537 7FA4F4E4 		.ascii	"\177\244\364\344}V\300\225Y\245]\23797\240\273\352c"
 281      7D56C095 
 281      59A55D9F 
 281      3937A0BB 
 281      EA63
 282 0549 BE55C095 		.ascii	"\276U\300\225Y\221t*\233Luu&\250\346\314$\263\023\271"
 282      5991742A 
 282      9B4C7575 
 282      26A8E6CC 
 282      24B313B9 
 283 055d C9EC7649 		.ascii	"\311\354vIHf\363\344\213I\231\377\201c\004\207\337\377"
 283      4866F3E4 
 283      8B4999FF 
 283      81630487 
 283      DFFF
 284 056f F57AA813 		.ascii	"\365z\250\023_o\364J,\357<\341(\230w\2128\254\357>)"
 284      5F6FF44A 
 284      2CEF3CE1 
 284      2898778A 
 284      38ACEF3E 
 285 0584 37EFBC84 		.ascii	"7\357\274\204y'k\267\220w^\332a\204t\375\030\030C\012"
 285      79276BB7 
 285      90775EDA 
 285      618474FD 
 285      1818430A 
 286 0598 CC778E09 		.ascii	"\314w\216\011\343$w\246\234\263\015\346\026\300zx\260"
 286      E32477A6 
 286      9CB30DE6 
 286      16C07A78 
 286      B0
 287 05a9 B7AC80CD 		.ascii	"\267\254\200\315\2260\362`\357\330\006\023\231\355\344"
 287      9630F260 
 287      EFD80613 
 287      99EDE4
 288 05b8 C1AE5801 		.ascii	"\301\256X\001\233-a\344\301>\264\015&2{\226\007\273"
 288      9B2D61E4 
 288      C13EB40D 
 288      26327B96 
 288      07BB
 289 05ca 61056C96 		.ascii	"a\005l\226@\330\307\203\335\264\015&2\353\347\301\276"
ARM GAS  /tmp/ccy76ghP.s 			page 23


 289      40D8C783 
 289      DDB40D26 
 289      32EBE7C1 
 289      BE
 290 05db B002E636 		.ascii	"\260\002\3466gv\230\007\353(\262\013&2\033\346\301\266"
 290      67769807 
 290      EB28B20B 
 290      26321BE6 
 290      C1B6
 291 05ed 5A01CB17 		.ascii	"Z\001\313\027\010\015\260\243<\3306\333`\"\263Wy\260"
 291      080DB0A3 
 291      3CD836DB 
 291      6022B357 
 291      79B0
 292 05ff 1D56C096 		.ascii	"\035V\300\226\2333;\306\203=k\033\314ML/\376\024R\351"
 292      9B333BC6 
 292      833D6B1B 
 292      CC4D4C2F 
 292      FE1452E9 
 293 0613 6E89C5FB 		.ascii	"n\211\305\373~\214\334\011\324\317\243\336\207z\000"
 293      7E8CDC09 
 293      D4CFA3DE 
 293      877A00
 294 0622 F520EA83 		.ascii	"\365 \352\203\250\017\241\376\003\352\303\250\207Q\037"
 294      A80FA1FE 
 294      03EAC3A8 
 294      87511F
 295 0631 45FD2AEA 		.ascii	"E\375*\352c|\006\220\023\311{M\006\301x\275.\225\345"
 295      637C0690 
 295      13C97B4D 
 295      06C178BD 
 295      2E95E5
 296 0644 F532F933 		.ascii	"\3652\3713@x\357\243\322\2271s\031\022\336\301\330~"
 296      4078EFA3 
 296      D2973173 
 296      1912DEC1 
 296      D87E
 297 0656 2767466D 		.ascii	"'gFm$K\315\012\033\362\2773\311\244\007\311/\341\345"
 297      244BCD0A 
 297      1BF2BF33 
 297      C9A407C9 
 297      2FE1E5
 298 0669 027B6393 		.ascii	"\002{c\223\234\231\336?\265\315\370\237fT\2436\376\251"
 298      9C99DE3F 
 298      B5CDF89F 
 298      6654A336 
 298      FEA9
 299 067b 494AC26B 		.ascii	"IJ\302k\033=\257\312|1\346&'\245\350/\312\227Rh\275"
 299      1B3DAFCA 
 299      7C31E626 
 299      27A5E82F 
 299      CA975268 
 300 0690 C15ADD5D 		.ascii	"\301Z\335]\"\007\320bT2\213\353\314*\355\366\334\031"
 300      2207D062 
 300      54328BEB 
 300      CC2AEDF6 
 300      DC19
ARM GAS  /tmp/ccy76ghP.s 			page 24


 301 06a2 5737D5BB 		.ascii	"W7\325\273R\351\333T\232\325\321 d\274\333\032\321|"
 301      52E9DB54 
 301      9AD5D120 
 301      64BCDB1A 
 301      D17C
 302 06b4 8B32D900 		.ascii	"\2132\331\000s\022\236\205\323b6p?\031\300?k.\214mf"
 302      73129E85 
 302      D3623670 
 302      3F19C03F 
 302      6B2E8C6D 
 303 06c9 7FBF70CB 		.ascii	"\177\277p\313\316\337\327\206\023\345\377\277\233\344"
 303      CEDFD786 
 303      13E5FFBF 
 303      9BE4
 304 06d7 A165CB3C 		.ascii	"\241e\313<\372'\034\363lT[<\221p4\036\3634\256[\273"
 304      FA271CF3 
 304      6C545B3C 
 304      9170341E 
 304      F334AE5B 
 305 06ec B2C2535F 		.ascii	"\262\302S__\355Y\343\253k\370E\005\273\345\217\200\264"
 305      5FED59E3 
 305      AB6BF845 
 305      05BBE58F 
 305      80B4
 306 06fe B4049635 		.ascii	"\264\004\2265\315\311k#q\256y|\275\333K\346\307\342"
 306      CDC96B23 
 306      71AE797C 
 306      BDDB4BE6 
 306      C7E2
 307 0710 AD2B2BFC 		.ascii	"\255++\374\033\"\241\260?\026\214\267G\374\361\257y"
 307      1B22A1B0 
 307      3F168CB7 
 307      47FCF1AF 
 307      79
 308 0721 DA63514F 		.ascii	"\332cQO\250\255\251\245=\020\364\264\005\177\331\022"
 308      A8ADA9A5 
 308      3D10F4B4 
 308      057FD912 
 309 0731 FA992716 		.ascii	"\372\231'\026\017\204\332\342\340W\322\016%x\304\277"
 309      0F84DAE2 
 309      E057D20E 
 309      2578C4BF 
 310 0741 99CFAC55 		.ascii	"\231\317\254Um\332\030j\013z\374\201`\263\332\336\022"
 310      6DDA186A 
 310      0B7AFC81 
 310      60B3DADE 
 310      12
 311 0752 F7C77F15 		.ascii	"\367\307\177\025\011\306\300\355\016\277?\355X\324\032"
 311      09C6C0ED 
 311      0EBF3FED 
 311      58D41A
 312 0761 0E04A3CE 		.ascii	"\016\004\243\3160\273\025-\016\307\"\301` Z\024i\217"
 312      30BB152D 
 312      0EC722C1 
 312      60205A14 
 312      698F
 313 0773 04A27238 		.ascii	"\004\242r8\020u\250\315\321\026\2466:}\225\325j\\u\372"
ARM GAS  /tmp/ccy76ghP.s 			page 25


 313      1075A8CD 
 313      D116A636 
 313      3A7D95D5 
 313      6A5C75FA 
 314 0787 AAF4C2AB 		.ascii	"\252\364\302\253\027\325z\261\232\025\245\276\312zo"
 314      17D57AB1 
 314      9A15A5BE 
 314      CA7A6F
 315 0796 B8AD39B4 		.ascii	"\270\2559\264\341+\351\261\371Cm\241\270\263\011\033"
 315      E12BE9B1 
 315      F9436DA1 
 315      B8B3091B 
 316 07a6 5DDCE8E2 		.ascii	"]\334\350\342Ek\033\252k\024g\303\272\237\370j\224\342"
 316      456B1BAA 
 316      6B1467C3 
 316      BA9FF86A 
 316      94E2
 317 07b8 86465F4D 		.ascii	"\206F_MM\265R\344[\357\253V\344:\220\206j\205\376\010"
 317      4DB552E4 
 317      5BEFAB56 
 317      E43A9086 
 317      6A85FE08 
 318 07cc 87B7E261 		.ascii	"\207\267\342a"
 319 07d0 7FDC20CC 		.ascii	"\177\334 \314\2522LLQSKP\215\322ZGU\243\2428\352\275"
 319      AA324C4C 
 319      51534B50 
 319      8DD25A47 
 319      55A3A238 
 320 07e6 8F298ECA 		.ascii	"\217)\216\312\325J=S\265r\225\242\334\021\012\263i\017"
 320      D54A3D53 
 320      B57295A2 
 320      DC110AB3 
 320      690F
 321 07f8 05FC7197 		.ascii	"\005\374q\227^mUc?\367\307KBa6\\\177|A\206\037\240m"
 321      5E6D5563 
 321      3FF7C74B 
 321      4261365C 
 321      7F7C4186 
 322 080f 8886DB23 		.ascii	"\210\206\333#\254\335\301,\035\314\324\301\276\256\342"
 322      ACDDC12C 
 322      1DCCD4C1 
 322      BEAEE2
 323 081e 97B229DC 		.ascii	"\227\262)\334\332\032n\363\0047\305=\336\265\215u\215"
 323      DA1A6EF3 
 323      0437C53D 
 323      DEB58D75 
 323      8D
 324 082f B0A2FAA2 		.ascii	"\260\242\372\242\256^\276i\223\007G\326\274\374\241"
 324      AE5EBE69 
 324      930747D6 
 324      BCFCA1
 325 083e 159B56C1 		.ascii	"\025\233V\301\364\226)^\257\177\035Lhu\260Y\362*\016"
 325      F496295E 
 325      AF7F1D4C 
 325      6875B059 
 325      F22A0E
 326 0851 EFEA358A 		.ascii	"\357\3525\212\354\255SJ*}U\025J\343:\254\254`\025ge"
ARM GAS  /tmp/ccy76ghP.s 			page 26


 326      ECAD534A 
 326      2A7D5515 
 326      4AE33AAC 
 326      AC601567 
 327 0866 6D55CDE3 		.ascii	"mU\315\343J1\273a\224+\240tTU{\301\243\021\032j\253"
 327      4A31BB61 
 327      942BA074 
 327      54557BC1 
 327      A3111A6A 
 328 087b 985D1183 		.ascii	"\230]\021\203\250@\275R\366*\025%lZ\331D\0261\025\371"
 328      A840BD52 
 328      F62A1525 
 328      6C5AD944 
 328      163115F9 
 329 088f 2F4D01C3 		.ascii	"/M\001\303\311"
 329      C9
 330              		.text
 331              		.section	.gnu.lto_.symtab.e44cad171b98086c,"",%progbits
 332 0000 5F70616C 		.ascii	"_pal_lld_init\000\000\000\000\000\000\000\000\000\000"
 332      5F6C6C64 
 332      5F696E69 
 332      74000000 
 332      00000000 
 333 0017 0000A100 		.ascii	"\000\000\241\000\000\000_pal_lld_setgroupmode\000\000"
 333      00005F70 
 333      616C5F6C 
 333      6C645F73 
 333      65746772 
 334 0034 00000000 		.ascii	"\000\000\000\000\000\000\000\000\000\000\323\000\000"
 334      00000000 
 334      0000D300 
 334      00
 335 0041 00       		.ascii	"\000"
 336              		.text
 337              		.section	.gnu.lto_.opts,"",%progbits
 338 0000 272D6D63 		.ascii	"'-mcpu=cortex-m0' '-mno-thumb-interwork' '-mthumb' "
 338      70753D63 
 338      6F727465 
 338      782D6D30 
 338      2720272D 
 339 0033 272D6767 		.ascii	"'-ggdb' '-O2' '-fomit-frame-pointer' '-falign-funct"
 339      64622720 
 339      272D4F32 
 339      2720272D 
 339      666F6D69 
 340 0066 696F6E73 		.ascii	"ions=16' '-ffunction-sections' '-fdata-sections' '-"
 340      3D313627 
 340      20272D66 
 340      66756E63 
 340      74696F6E 
 341 0099 666E6F2D 		.ascii	"fno-common' '-flto'\000"
 341      636F6D6D 
 341      6F6E2720 
 341      272D666C 
 341      746F2700 
 342              		.text
 343              		.cfi_sections	.debug_frame
ARM GAS  /tmp/ccy76ghP.s 			page 27


 344              		.section	.text._pal_lld_init,"ax",%progbits
 345              		.align	2
 346              		.p2align 4,,15
 347              		.global	_pal_lld_init
 348              		.code	16
 349              		.thumb_func
 350              		.type	_pal_lld_init, %function
 351              	_pal_lld_init:
 352              	.LFB99:
 353              		.file 1 "../../../os/hal/ports/STM32/LLD/GPIOv2/hal_pal_lld.c"
 354              		.loc 1 88 0
 355              		.cfi_startproc
 356              	.LVL0:
 357              		.loc 1 100 0
 358 0000 2A4B     		ldr	r3, .L2
 359 0002 BC22     		mov	r2, #188
 360 0004 5969     		ldr	r1, [r3, #20]
 361 0006 D203     		lsl	r2, r2, #15
 362 0008 0A43     		orr	r2, r1
 363 000a 5A61     		str	r2, [r3, #20]
 364              	.LVL1:
 365              	.LBB12:
 366              	.LBB13:
 367              		.loc 1 63 0
 368 000c 4268     		ldr	r2, [r0, #4]
 369 000e 9023     		mov	r3, #144
 370 0010 DB05     		lsl	r3, r3, #23
 371 0012 5A60     		str	r2, [r3, #4]
 372              		.loc 1 64 0
 373 0014 8268     		ldr	r2, [r0, #8]
 374              	.LBE13:
 375              	.LBE12:
 376              		.loc 1 144 0
 377              		@ sp needed
 378              	.LBB15:
 379              	.LBB14:
 380              		.loc 1 64 0
 381 0016 9A60     		str	r2, [r3, #8]
 382              		.loc 1 65 0
 383 0018 C268     		ldr	r2, [r0, #12]
 384 001a DA60     		str	r2, [r3, #12]
 385              		.loc 1 66 0
 386 001c 0269     		ldr	r2, [r0, #16]
 387 001e 5A61     		str	r2, [r3, #20]
 388              		.loc 1 67 0
 389 0020 4269     		ldr	r2, [r0, #20]
 390 0022 1A62     		str	r2, [r3, #32]
 391              		.loc 1 68 0
 392 0024 8269     		ldr	r2, [r0, #24]
 393 0026 5A62     		str	r2, [r3, #36]
 394              		.loc 1 69 0
 395 0028 0268     		ldr	r2, [r0]
 396 002a 1A60     		str	r2, [r3]
 397              	.LVL2:
 398              	.LBE14:
 399              	.LBE15:
 400              	.LBB16:
ARM GAS  /tmp/ccy76ghP.s 			page 28


 401              	.LBB17:
 402              		.loc 1 63 0
 403 002c 026A     		ldr	r2, [r0, #32]
 404 002e 204B     		ldr	r3, .L2+4
 405 0030 5A60     		str	r2, [r3, #4]
 406              		.loc 1 64 0
 407 0032 426A     		ldr	r2, [r0, #36]
 408 0034 9A60     		str	r2, [r3, #8]
 409              		.loc 1 65 0
 410 0036 826A     		ldr	r2, [r0, #40]
 411 0038 DA60     		str	r2, [r3, #12]
 412              		.loc 1 66 0
 413 003a C26A     		ldr	r2, [r0, #44]
 414 003c 5A61     		str	r2, [r3, #20]
 415              		.loc 1 67 0
 416 003e 026B     		ldr	r2, [r0, #48]
 417 0040 1A62     		str	r2, [r3, #32]
 418              		.loc 1 68 0
 419 0042 426B     		ldr	r2, [r0, #52]
 420 0044 5A62     		str	r2, [r3, #36]
 421              		.loc 1 69 0
 422 0046 C269     		ldr	r2, [r0, #28]
 423 0048 1A60     		str	r2, [r3]
 424              	.LVL3:
 425              	.LBE17:
 426              	.LBE16:
 427              	.LBB18:
 428              	.LBB19:
 429              		.loc 1 63 0
 430 004a C26B     		ldr	r2, [r0, #60]
 431 004c 194B     		ldr	r3, .L2+8
 432 004e 5A60     		str	r2, [r3, #4]
 433              		.loc 1 64 0
 434 0050 026C     		ldr	r2, [r0, #64]
 435 0052 9A60     		str	r2, [r3, #8]
 436              		.loc 1 65 0
 437 0054 426C     		ldr	r2, [r0, #68]
 438 0056 DA60     		str	r2, [r3, #12]
 439              		.loc 1 66 0
 440 0058 826C     		ldr	r2, [r0, #72]
 441 005a 5A61     		str	r2, [r3, #20]
 442              		.loc 1 67 0
 443 005c C26C     		ldr	r2, [r0, #76]
 444 005e 1A62     		str	r2, [r3, #32]
 445              		.loc 1 68 0
 446 0060 026D     		ldr	r2, [r0, #80]
 447 0062 5A62     		str	r2, [r3, #36]
 448              		.loc 1 69 0
 449 0064 826B     		ldr	r2, [r0, #56]
 450 0066 1A60     		str	r2, [r3]
 451              	.LVL4:
 452              	.LBE19:
 453              	.LBE18:
 454              	.LBB20:
 455              	.LBB21:
 456              		.loc 1 63 0
 457 0068 826D     		ldr	r2, [r0, #88]
ARM GAS  /tmp/ccy76ghP.s 			page 29


 458 006a 134B     		ldr	r3, .L2+12
 459 006c 5A60     		str	r2, [r3, #4]
 460              		.loc 1 64 0
 461 006e C26D     		ldr	r2, [r0, #92]
 462 0070 9A60     		str	r2, [r3, #8]
 463              		.loc 1 65 0
 464 0072 026E     		ldr	r2, [r0, #96]
 465 0074 DA60     		str	r2, [r3, #12]
 466              		.loc 1 66 0
 467 0076 426E     		ldr	r2, [r0, #100]
 468 0078 5A61     		str	r2, [r3, #20]
 469              		.loc 1 67 0
 470 007a 826E     		ldr	r2, [r0, #104]
 471 007c 1A62     		str	r2, [r3, #32]
 472              		.loc 1 68 0
 473 007e C26E     		ldr	r2, [r0, #108]
 474 0080 5A62     		str	r2, [r3, #36]
 475              		.loc 1 69 0
 476 0082 426D     		ldr	r2, [r0, #84]
 477 0084 1A60     		str	r2, [r3]
 478              	.LVL5:
 479              	.LBE21:
 480              	.LBE20:
 481              	.LBB22:
 482              	.LBB23:
 483              		.loc 1 63 0
 484 0086 426F     		ldr	r2, [r0, #116]
 485 0088 0C4B     		ldr	r3, .L2+16
 486 008a 5A60     		str	r2, [r3, #4]
 487              		.loc 1 64 0
 488 008c 826F     		ldr	r2, [r0, #120]
 489 008e 9A60     		str	r2, [r3, #8]
 490              		.loc 1 65 0
 491 0090 C26F     		ldr	r2, [r0, #124]
 492 0092 DA60     		str	r2, [r3, #12]
 493              		.loc 1 66 0
 494 0094 8022     		mov	r2, #128
 495 0096 8258     		ldr	r2, [r0, r2]
 496 0098 5A61     		str	r2, [r3, #20]
 497              		.loc 1 67 0
 498 009a 8422     		mov	r2, #132
 499 009c 8258     		ldr	r2, [r0, r2]
 500 009e 1A62     		str	r2, [r3, #32]
 501              		.loc 1 68 0
 502 00a0 8822     		mov	r2, #136
 503 00a2 8258     		ldr	r2, [r0, r2]
 504 00a4 5A62     		str	r2, [r3, #36]
 505              		.loc 1 69 0
 506 00a6 026F     		ldr	r2, [r0, #112]
 507 00a8 1A60     		str	r2, [r3]
 508              	.LBE23:
 509              	.LBE22:
 510              		.loc 1 144 0
 511 00aa 7047     		bx	lr
 512              	.L3:
 513              		.align	2
 514              	.L2:
ARM GAS  /tmp/ccy76ghP.s 			page 30


 515 00ac 00100240 		.word	1073876992
 516 00b0 00040048 		.word	1207960576
 517 00b4 00080048 		.word	1207961600
 518 00b8 000C0048 		.word	1207962624
 519 00bc 00140048 		.word	1207964672
 520              		.cfi_endproc
 521              	.LFE99:
 522              		.size	_pal_lld_init, .-_pal_lld_init
 523              		.section	.text._pal_lld_setgroupmode,"ax",%progbits
 524              		.align	2
 525              		.p2align 4,,15
 526              		.global	_pal_lld_setgroupmode
 527              		.code	16
 528              		.thumb_func
 529              		.type	_pal_lld_setgroupmode, %function
 530              	_pal_lld_setgroupmode:
 531              	.LFB100:
 532              		.loc 1 161 0
 533              		.cfi_startproc
 534              	.LVL6:
 535 0000 F0B5     		push	{r4, r5, r6, r7, lr}
 536              		.cfi_def_cfa_offset 20
 537              		.cfi_offset 4, -20
 538              		.cfi_offset 5, -16
 539              		.cfi_offset 6, -12
 540              		.cfi_offset 7, -8
 541              		.cfi_offset 14, -4
 542 0002 5F46     		mov	r7, fp
 543 0004 5646     		mov	r6, r10
 544 0006 4D46     		mov	r5, r9
 545 0008 4446     		mov	r4, r8
 546 000a F0B4     		push	{r4, r5, r6, r7}
 547              		.cfi_def_cfa_offset 36
 548              		.cfi_offset 8, -36
 549              		.cfi_offset 9, -32
 550              		.cfi_offset 10, -28
 551              		.cfi_offset 11, -24
 552              		.loc 1 163 0
 553 000c 0324     		mov	r4, #3
 554              		.loc 1 164 0
 555 000e 5707     		lsl	r7, r2, #29
 556              		.loc 1 165 0
 557 0010 D606     		lsl	r6, r2, #27
 558              		.loc 1 166 0
 559 0012 5506     		lsl	r5, r2, #25
 560              		.loc 1 163 0
 561 0014 1440     		and	r4, r2
 562              	.LVL7:
 563              		.loc 1 167 0
 564 0016 5205     		lsl	r2, r2, #21
 565              	.LVL8:
 566 0018 120F     		lsr	r2, r2, #28
 567              		.loc 1 161 0
 568 001a 83B0     		sub	sp, sp, #12
 569              		.cfi_def_cfa_offset 48
 570              		.loc 1 166 0
 571 001c AD0F     		lsr	r5, r5, #30
ARM GAS  /tmp/ccy76ghP.s 			page 31


 572              		.loc 1 167 0
 573 001e 9346     		mov	fp, r2
 574              		.loc 1 170 0
 575 0020 0122     		mov	r2, #1
 576              		.loc 1 164 0
 577 0022 FF0F     		lsr	r7, r7, #31
 578              	.LVL9:
 579              		.loc 1 165 0
 580 0024 B60F     		lsr	r6, r6, #30
 581              	.LVL10:
 582              		.loc 1 168 0
 583 0026 0023     		mov	r3, #0
 584              		.loc 1 170 0
 585 0028 9446     		mov	ip, r2
 586              	.LBB24:
 587              		.loc 1 187 0
 588 002a 0095     		str	r5, [sp]
 589 002c 0EE0     		b	.L11
 590              	.LVL11:
 591              	.L17:
 592              		.loc 1 194 0
 593 002e 026A     		ldr	r2, [r0, #32]
 594 0030 4D46     		mov	r5, r9
 595 0032 AA43     		bic	r2, r5
 596 0034 4546     		mov	r5, r8
 597 0036 2A43     		orr	r2, r5
 598 0038 0262     		str	r2, [r0, #32]
 599              	.LVL12:
 600              	.L5:
 601              	.LBE24:
 602              		.loc 1 199 0
 603 003a 4908     		lsr	r1, r1, #1
 604              	.LVL13:
 605              		.loc 1 200 0
 606 003c 3ED0     		beq	.L4
 607              	.L18:
 608              		.loc 1 204 0
 609 003e 009A     		ldr	r2, [sp]
 610              		.loc 1 202 0
 611 0040 7F00     		lsl	r7, r7, #1
 612              	.LVL14:
 613              		.loc 1 204 0
 614 0042 9200     		lsl	r2, r2, #2
 615              		.loc 1 203 0
 616 0044 B600     		lsl	r6, r6, #2
 617              	.LVL15:
 618              		.loc 1 204 0
 619 0046 0092     		str	r2, [sp]
 620              	.LVL16:
 621              		.loc 1 205 0
 622 0048 A400     		lsl	r4, r4, #2
 623              	.LVL17:
 624              		.loc 1 206 0
 625 004a 0133     		add	r3, r3, #1
 626              	.LVL18:
 627              	.L11:
 628              		.loc 1 170 0
ARM GAS  /tmp/ccy76ghP.s 			page 32


 629 004c 6546     		mov	r5, ip
 630 004e 0D42     		tst	r5, r1
 631 0050 F3D0     		beq	.L5
 632              	.LBB25:
 633              		.loc 1 173 0
 634 0052 0722     		mov	r2, #7
 635 0054 1A40     		and	r2, r3
 636 0056 9500     		lsl	r5, r2, #2
 637 0058 5A46     		mov	r2, fp
 638 005a AA40     		lsl	r2, r2, r5
 639 005c 9046     		mov	r8, r2
 640              	.LVL19:
 641              		.loc 1 176 0
 642 005e 0F22     		mov	r2, #15
 643              	.LVL20:
 644 0060 AA40     		lsl	r2, r2, r5
 645 0062 9146     		mov	r9, r2
 646              	.LVL21:
 647              		.loc 1 177 0
 648 0064 4568     		ldr	r5, [r0, #4]
 649              		.loc 1 174 0
 650 0066 6246     		mov	r2, ip
 651              	.LVL22:
 652 0068 9A40     		lsl	r2, r2, r3
 653              		.loc 1 177 0
 654 006a 9543     		bic	r5, r2
 655 006c 2A1C     		mov	r2, r5
 656 006e 3A43     		orr	r2, r7
 657 0070 4260     		str	r2, [r0, #4]
 658              		.loc 1 178 0
 659 0072 8568     		ldr	r5, [r0, #8]
 660              		.loc 1 175 0
 661 0074 0322     		mov	r2, #3
 662              		.loc 1 178 0
 663 0076 AA46     		mov	r10, r5
 664 0078 5D00     		lsl	r5, r3, #1
 665              		.loc 1 175 0
 666 007a AA40     		lsl	r2, r2, r5
 667              	.LVL23:
 668              		.loc 1 178 0
 669 007c D543     		mvn	r5, r2
 670 007e 5246     		mov	r2, r10
 671              	.LVL24:
 672 0080 2A40     		and	r2, r5
 673 0082 3243     		orr	r2, r6
 674 0084 8260     		str	r2, [r0, #8]
 675 0086 0195     		str	r5, [sp, #4]
 676              		.loc 1 179 0
 677 0088 C568     		ldr	r5, [r0, #12]
 678              	.LVL25:
 679 008a 2A1C     		mov	r2, r5
 680 008c 019D     		ldr	r5, [sp, #4]
 681 008e 2A40     		and	r2, r5
 682 0090 009D     		ldr	r5, [sp]
 683 0092 2A43     		orr	r2, r5
 684 0094 C260     		str	r2, [r0, #12]
 685              		.loc 1 180 0
ARM GAS  /tmp/ccy76ghP.s 			page 33


 686 0096 022C     		cmp	r4, #2
 687 0098 17D0     		beq	.L16
 688              		.loc 1 192 0
 689 009a 0268     		ldr	r2, [r0]
 690 009c 9246     		mov	r10, r2
 691 009e 019A     		ldr	r2, [sp, #4]
 692 00a0 5546     		mov	r5, r10
 693 00a2 2A40     		and	r2, r5
 694 00a4 2243     		orr	r2, r4
 695 00a6 0260     		str	r2, [r0]
 696              		.loc 1 193 0
 697 00a8 072B     		cmp	r3, #7
 698 00aa C0D9     		bls	.L17
 699              		.loc 1 196 0
 700 00ac 426A     		ldr	r2, [r0, #36]
 701 00ae 4D46     		mov	r5, r9
 702 00b0 AA43     		bic	r2, r5
 703 00b2 4546     		mov	r5, r8
 704 00b4 2A43     		orr	r2, r5
 705 00b6 4262     		str	r2, [r0, #36]
 706              	.LBE25:
 707              		.loc 1 199 0
 708 00b8 4908     		lsr	r1, r1, #1
 709              	.LVL26:
 710              		.loc 1 200 0
 711 00ba C0D1     		bne	.L18
 712              	.LVL27:
 713              	.L4:
 714              		.loc 1 208 0
 715 00bc 03B0     		add	sp, sp, #12
 716              	.LVL28:
 717              		@ sp needed
 718              	.LVL29:
 719              	.LVL30:
 720              	.LVL31:
 721              	.LVL32:
 722 00be 3CBC     		pop	{r2, r3, r4, r5}
 723 00c0 9046     		mov	r8, r2
 724 00c2 9946     		mov	r9, r3
 725 00c4 A246     		mov	r10, r4
 726 00c6 AB46     		mov	fp, r5
 727 00c8 F0BD     		pop	{r4, r5, r6, r7, pc}
 728              	.LVL33:
 729              	.L16:
 730              	.LBB26:
 731              		.loc 1 183 0
 732 00ca 072B     		cmp	r3, #7
 733 00cc 0FD8     		bhi	.L7
 734              		.loc 1 184 0
 735 00ce 026A     		ldr	r2, [r0, #32]
 736 00d0 151C     		mov	r5, r2
 737              	.LVL34:
 738 00d2 4A46     		mov	r2, r9
 739 00d4 9543     		bic	r5, r2
 740 00d6 4246     		mov	r2, r8
 741 00d8 1543     		orr	r5, r2
 742 00da 0562     		str	r5, [r0, #32]
ARM GAS  /tmp/ccy76ghP.s 			page 34


 743              	.L8:
 744              		.loc 1 187 0 discriminator 1
 745 00dc 0268     		ldr	r2, [r0]
 746 00de 9046     		mov	r8, r2
 747              	.LVL35:
 748 00e0 019A     		ldr	r2, [sp, #4]
 749 00e2 4546     		mov	r5, r8
 750 00e4 2A40     		and	r2, r5
 751 00e6 0225     		mov	r5, #2
 752 00e8 2A43     		orr	r2, r5
 753 00ea 0260     		str	r2, [r0]
 754 00ec A5E7     		b	.L5
 755              	.LVL36:
 756              	.L7:
 757              		.loc 1 186 0
 758 00ee 456A     		ldr	r5, [r0, #36]
 759              	.LVL37:
 760 00f0 2A1C     		mov	r2, r5
 761 00f2 4D46     		mov	r5, r9
 762 00f4 AA43     		bic	r2, r5
 763 00f6 4546     		mov	r5, r8
 764 00f8 2A43     		orr	r2, r5
 765 00fa 4262     		str	r2, [r0, #36]
 766 00fc EEE7     		b	.L8
 767              	.LBE26:
 768              		.cfi_endproc
 769              	.LFE100:
 770              		.size	_pal_lld_setgroupmode, .-_pal_lld_setgroupmode
 771 00fe C046     		.text
 772              	.Letext0:
 773              		.file 2 "/usr/include/newlib/machine/_default_types.h"
 774              		.file 3 "/usr/include/newlib/stdint.h"
 775              		.file 4 "../../../os/common/ext/CMSIS/ST/STM32F0xx/stm32f051x8.h"
 776              		.file 5 "../../../os/hal/ports/STM32/LLD/GPIOv2/hal_pal_lld.h"
 777              		.section	.debug_info,"",%progbits
 778              	.Ldebug_info0:
 779 0000 2A050000 		.4byte	0x52a
 780 0004 0400     		.2byte	0x4
 781 0006 00000000 		.4byte	.Ldebug_abbrev0
 782 000a 04       		.byte	0x4
 783 000b 01       		.uleb128 0x1
 784 000c 1D000000 		.4byte	.LASF60
 785 0010 01       		.byte	0x1
 786 0011 6E010000 		.4byte	.LASF61
 787 0015 FC020000 		.4byte	.LASF62
 788 0019 38000000 		.4byte	.Ldebug_ranges0+0x38
 789 001d 00000000 		.4byte	0
 790 0021 00000000 		.4byte	.Ldebug_line0
 791 0025 02       		.uleb128 0x2
 792 0026 04       		.byte	0x4
 793 0027 05       		.byte	0x5
 794 0028 696E7400 		.ascii	"int\000"
 795 002c 03       		.uleb128 0x3
 796 002d 04       		.byte	0x4
 797 002e 07       		.byte	0x7
 798 002f 44020000 		.4byte	.LASF0
 799 0033 03       		.uleb128 0x3
ARM GAS  /tmp/ccy76ghP.s 			page 35


 800 0034 01       		.byte	0x1
 801 0035 06       		.byte	0x6
 802 0036 62010000 		.4byte	.LASF1
 803 003a 03       		.uleb128 0x3
 804 003b 01       		.byte	0x1
 805 003c 08       		.byte	0x8
 806 003d 0E020000 		.4byte	.LASF2
 807 0041 03       		.uleb128 0x3
 808 0042 02       		.byte	0x2
 809 0043 05       		.byte	0x5
 810 0044 FA000000 		.4byte	.LASF3
 811 0048 04       		.uleb128 0x4
 812 0049 35010000 		.4byte	.LASF6
 813 004d 02       		.byte	0x2
 814 004e 26       		.byte	0x26
 815 004f 53000000 		.4byte	0x53
 816 0053 03       		.uleb128 0x3
 817 0054 02       		.byte	0x2
 818 0055 07       		.byte	0x7
 819 0056 70020000 		.4byte	.LASF4
 820 005a 03       		.uleb128 0x3
 821 005b 04       		.byte	0x4
 822 005c 05       		.byte	0x5
 823 005d C6010000 		.4byte	.LASF5
 824 0061 04       		.uleb128 0x4
 825 0062 25010000 		.4byte	.LASF7
 826 0066 02       		.byte	0x2
 827 0067 38       		.byte	0x38
 828 0068 6C000000 		.4byte	0x6c
 829 006c 03       		.uleb128 0x3
 830 006d 04       		.byte	0x4
 831 006e 07       		.byte	0x7
 832 006f C7020000 		.4byte	.LASF8
 833 0073 03       		.uleb128 0x3
 834 0074 08       		.byte	0x8
 835 0075 05       		.byte	0x5
 836 0076 AA010000 		.4byte	.LASF9
 837 007a 03       		.uleb128 0x3
 838 007b 08       		.byte	0x8
 839 007c 07       		.byte	0x7
 840 007d 24020000 		.4byte	.LASF10
 841 0081 04       		.uleb128 0x4
 842 0082 95020000 		.4byte	.LASF11
 843 0086 03       		.byte	0x3
 844 0087 36       		.byte	0x36
 845 0088 48000000 		.4byte	0x48
 846 008c 04       		.uleb128 0x4
 847 008d 3B020000 		.4byte	.LASF12
 848 0091 03       		.byte	0x3
 849 0092 42       		.byte	0x42
 850 0093 61000000 		.4byte	0x61
 851 0097 03       		.uleb128 0x3
 852 0098 04       		.byte	0x4
 853 0099 07       		.byte	0x7
 854 009a 11010000 		.4byte	.LASF13
 855 009e 05       		.uleb128 0x5
 856 009f 8C000000 		.4byte	0x8c
ARM GAS  /tmp/ccy76ghP.s 			page 36


 857 00a3 06       		.uleb128 0x6
 858 00a4 38       		.byte	0x38
 859 00a5 04       		.byte	0x4
 860 00a6 7D01     		.2byte	0x17d
 861 00a8 62010000 		.4byte	0x162
 862 00ac 07       		.uleb128 0x7
 863 00ad 435200   		.ascii	"CR\000"
 864 00b0 04       		.byte	0x4
 865 00b1 7F01     		.2byte	0x17f
 866 00b3 9E000000 		.4byte	0x9e
 867 00b7 00       		.byte	0
 868 00b8 08       		.uleb128 0x8
 869 00b9 47010000 		.4byte	.LASF14
 870 00bd 04       		.byte	0x4
 871 00be 8001     		.2byte	0x180
 872 00c0 9E000000 		.4byte	0x9e
 873 00c4 04       		.byte	0x4
 874 00c5 07       		.uleb128 0x7
 875 00c6 43495200 		.ascii	"CIR\000"
 876 00ca 04       		.byte	0x4
 877 00cb 8101     		.2byte	0x181
 878 00cd 9E000000 		.4byte	0x9e
 879 00d1 08       		.byte	0x8
 880 00d2 08       		.uleb128 0x8
 881 00d3 F4010000 		.4byte	.LASF15
 882 00d7 04       		.byte	0x4
 883 00d8 8201     		.2byte	0x182
 884 00da 9E000000 		.4byte	0x9e
 885 00de 0C       		.byte	0xc
 886 00df 08       		.uleb128 0x8
 887 00e0 C0000000 		.4byte	.LASF16
 888 00e4 04       		.byte	0x4
 889 00e5 8301     		.2byte	0x183
 890 00e7 9E000000 		.4byte	0x9e
 891 00eb 10       		.byte	0x10
 892 00ec 08       		.uleb128 0x8
 893 00ed E7010000 		.4byte	.LASF17
 894 00f1 04       		.byte	0x4
 895 00f2 8401     		.2byte	0x184
 896 00f4 9E000000 		.4byte	0x9e
 897 00f8 14       		.byte	0x14
 898 00f9 08       		.uleb128 0x8
 899 00fa 1C020000 		.4byte	.LASF18
 900 00fe 04       		.byte	0x4
 901 00ff 8501     		.2byte	0x185
 902 0101 9E000000 		.4byte	0x9e
 903 0105 18       		.byte	0x18
 904 0106 08       		.uleb128 0x8
 905 0107 53010000 		.4byte	.LASF19
 906 010b 04       		.byte	0x4
 907 010c 8601     		.2byte	0x186
 908 010e 9E000000 		.4byte	0x9e
 909 0112 1C       		.byte	0x1c
 910 0113 08       		.uleb128 0x8
 911 0114 1A010000 		.4byte	.LASF20
 912 0118 04       		.byte	0x4
 913 0119 8701     		.2byte	0x187
ARM GAS  /tmp/ccy76ghP.s 			page 37


 914 011b 9E000000 		.4byte	0x9e
 915 011f 20       		.byte	0x20
 916 0120 07       		.uleb128 0x7
 917 0121 43535200 		.ascii	"CSR\000"
 918 0125 04       		.byte	0x4
 919 0126 8801     		.2byte	0x188
 920 0128 9E000000 		.4byte	0x9e
 921 012c 24       		.byte	0x24
 922 012d 08       		.uleb128 0x8
 923 012e E9020000 		.4byte	.LASF21
 924 0132 04       		.byte	0x4
 925 0133 8901     		.2byte	0x189
 926 0135 9E000000 		.4byte	0x9e
 927 0139 28       		.byte	0x28
 928 013a 08       		.uleb128 0x8
 929 013b 51020000 		.4byte	.LASF22
 930 013f 04       		.byte	0x4
 931 0140 8A01     		.2byte	0x18a
 932 0142 9E000000 		.4byte	0x9e
 933 0146 2C       		.byte	0x2c
 934 0147 08       		.uleb128 0x8
 935 0148 57020000 		.4byte	.LASF23
 936 014c 04       		.byte	0x4
 937 014d 8B01     		.2byte	0x18b
 938 014f 9E000000 		.4byte	0x9e
 939 0153 30       		.byte	0x30
 940 0154 07       		.uleb128 0x7
 941 0155 43523200 		.ascii	"CR2\000"
 942 0159 04       		.byte	0x4
 943 015a 8C01     		.2byte	0x18c
 944 015c 9E000000 		.4byte	0x9e
 945 0160 34       		.byte	0x34
 946 0161 00       		.byte	0
 947 0162 09       		.uleb128 0x9
 948 0163 D6010000 		.4byte	.LASF24
 949 0167 04       		.byte	0x4
 950 0168 8D01     		.2byte	0x18d
 951 016a A3000000 		.4byte	0xa3
 952 016e 03       		.uleb128 0x3
 953 016f 01       		.byte	0x1
 954 0170 08       		.byte	0x8
 955 0171 90020000 		.4byte	.LASF25
 956 0175 03       		.uleb128 0x3
 957 0176 01       		.byte	0x1
 958 0177 02       		.byte	0x2
 959 0178 AF020000 		.4byte	.LASF26
 960 017c 0A       		.uleb128 0xa
 961 017d 04       		.byte	0x4
 962 017e 05       		.byte	0x5
 963 017f E7       		.byte	0xe7
 964 0180 9D010000 		.4byte	0x19d
 965 0184 0B       		.uleb128 0xb
 966 0185 73657400 		.ascii	"set\000"
 967 0189 05       		.byte	0x5
 968 018a E8       		.byte	0xe8
 969 018b 81000000 		.4byte	0x81
 970 018f 00       		.byte	0
ARM GAS  /tmp/ccy76ghP.s 			page 38


 971 0190 0C       		.uleb128 0xc
 972 0191 FD010000 		.4byte	.LASF27
 973 0195 05       		.byte	0x5
 974 0196 E9       		.byte	0xe9
 975 0197 81000000 		.4byte	0x81
 976 019b 02       		.byte	0x2
 977 019c 00       		.byte	0
 978 019d 0D       		.uleb128 0xd
 979 019e 04       		.byte	0x4
 980 019f 05       		.byte	0x5
 981 01a0 E5       		.byte	0xe5
 982 01a1 B8010000 		.4byte	0x1b8
 983 01a5 0E       		.uleb128 0xe
 984 01a6 5700     		.ascii	"W\000"
 985 01a8 05       		.byte	0x5
 986 01a9 E6       		.byte	0xe6
 987 01aa 8C000000 		.4byte	0x8c
 988 01ae 0E       		.uleb128 0xe
 989 01af 4800     		.ascii	"H\000"
 990 01b1 05       		.byte	0x5
 991 01b2 EA       		.byte	0xea
 992 01b3 7C010000 		.4byte	0x17c
 993 01b7 00       		.byte	0
 994 01b8 0A       		.uleb128 0xa
 995 01b9 2C       		.byte	0x2c
 996 01ba 05       		.byte	0x5
 997 01bb DD       		.byte	0xdd
 998 01bc 45020000 		.4byte	0x245
 999 01c0 0C       		.uleb128 0xc
 1000 01c1 EE010000 		.4byte	.LASF28
 1001 01c5 05       		.byte	0x5
 1002 01c6 DF       		.byte	0xdf
 1003 01c7 9E000000 		.4byte	0x9e
 1004 01cb 00       		.byte	0
 1005 01cc 0C       		.uleb128 0xc
 1006 01cd 5B010000 		.4byte	.LASF29
 1007 01d1 05       		.byte	0x5
 1008 01d2 E0       		.byte	0xe0
 1009 01d3 9E000000 		.4byte	0x9e
 1010 01d7 04       		.byte	0x4
 1011 01d8 0C       		.uleb128 0xc
 1012 01d9 BF020000 		.4byte	.LASF30
 1013 01dd 05       		.byte	0x5
 1014 01de E1       		.byte	0xe1
 1015 01df 9E000000 		.4byte	0x9e
 1016 01e3 08       		.byte	0x8
 1017 01e4 0C       		.uleb128 0xc
 1018 01e5 B8010000 		.4byte	.LASF31
 1019 01e9 05       		.byte	0x5
 1020 01ea E2       		.byte	0xe2
 1021 01eb 9E000000 		.4byte	0x9e
 1022 01ef 0C       		.byte	0xc
 1023 01f0 0B       		.uleb128 0xb
 1024 01f1 49445200 		.ascii	"IDR\000"
 1025 01f5 05       		.byte	0x5
 1026 01f6 E3       		.byte	0xe3
 1027 01f7 9E000000 		.4byte	0x9e
ARM GAS  /tmp/ccy76ghP.s 			page 39


 1028 01fb 10       		.byte	0x10
 1029 01fc 0B       		.uleb128 0xb
 1030 01fd 4F445200 		.ascii	"ODR\000"
 1031 0201 05       		.byte	0x5
 1032 0202 E4       		.byte	0xe4
 1033 0203 9E000000 		.4byte	0x9e
 1034 0207 14       		.byte	0x14
 1035 0208 0C       		.uleb128 0xc
 1036 0209 E2010000 		.4byte	.LASF32
 1037 020d 05       		.byte	0x5
 1038 020e EB       		.byte	0xeb
 1039 020f 45020000 		.4byte	0x245
 1040 0213 18       		.byte	0x18
 1041 0214 0C       		.uleb128 0xc
 1042 0215 41030000 		.4byte	.LASF33
 1043 0219 05       		.byte	0x5
 1044 021a EC       		.byte	0xec
 1045 021b 9E000000 		.4byte	0x9e
 1046 021f 1C       		.byte	0x1c
 1047 0220 0C       		.uleb128 0xc
 1048 0221 6B020000 		.4byte	.LASF34
 1049 0225 05       		.byte	0x5
 1050 0226 ED       		.byte	0xed
 1051 0227 9E000000 		.4byte	0x9e
 1052 022b 20       		.byte	0x20
 1053 022c 0C       		.uleb128 0xc
 1054 022d 66020000 		.4byte	.LASF35
 1055 0231 05       		.byte	0x5
 1056 0232 EE       		.byte	0xee
 1057 0233 9E000000 		.4byte	0x9e
 1058 0237 24       		.byte	0x24
 1059 0238 0B       		.uleb128 0xb
 1060 0239 42525200 		.ascii	"BRR\000"
 1061 023d 05       		.byte	0x5
 1062 023e EF       		.byte	0xef
 1063 023f 9E000000 		.4byte	0x9e
 1064 0243 28       		.byte	0x28
 1065 0244 00       		.byte	0
 1066 0245 05       		.uleb128 0x5
 1067 0246 9D010000 		.4byte	0x19d
 1068 024a 04       		.uleb128 0x4
 1069 024b 04010000 		.4byte	.LASF36
 1070 024f 05       		.byte	0x5
 1071 0250 F0       		.byte	0xf0
 1072 0251 B8010000 		.4byte	0x1b8
 1073 0255 0A       		.uleb128 0xa
 1074 0256 1C       		.byte	0x1c
 1075 0257 05       		.byte	0x5
 1076 0258 F5       		.byte	0xf5
 1077 0259 B4020000 		.4byte	0x2b4
 1078 025d 0C       		.uleb128 0xc
 1079 025e F6020000 		.4byte	.LASF37
 1080 0262 05       		.byte	0x5
 1081 0263 F7       		.byte	0xf7
 1082 0264 8C000000 		.4byte	0x8c
 1083 0268 00       		.byte	0
 1084 0269 0C       		.uleb128 0xc
ARM GAS  /tmp/ccy76ghP.s 			page 40


 1085 026a 4C010000 		.4byte	.LASF38
 1086 026e 05       		.byte	0x5
 1087 026f F9       		.byte	0xf9
 1088 0270 8C000000 		.4byte	0x8c
 1089 0274 04       		.byte	0x4
 1090 0275 0C       		.uleb128 0xc
 1091 0276 BE010000 		.4byte	.LASF39
 1092 027a 05       		.byte	0x5
 1093 027b FB       		.byte	0xfb
 1094 027c 8C000000 		.4byte	0x8c
 1095 0280 08       		.byte	0x8
 1096 0281 0C       		.uleb128 0xc
 1097 0282 DE020000 		.4byte	.LASF40
 1098 0286 05       		.byte	0x5
 1099 0287 FD       		.byte	0xfd
 1100 0288 8C000000 		.4byte	0x8c
 1101 028c 0C       		.byte	0xc
 1102 028d 0B       		.uleb128 0xb
 1103 028e 6F647200 		.ascii	"odr\000"
 1104 0292 05       		.byte	0x5
 1105 0293 FF       		.byte	0xff
 1106 0294 8C000000 		.4byte	0x8c
 1107 0298 10       		.byte	0x10
 1108 0299 08       		.uleb128 0x8
 1109 029a F1020000 		.4byte	.LASF41
 1110 029e 05       		.byte	0x5
 1111 029f 0101     		.2byte	0x101
 1112 02a1 8C000000 		.4byte	0x8c
 1113 02a5 14       		.byte	0x14
 1114 02a6 08       		.uleb128 0x8
 1115 02a7 E4020000 		.4byte	.LASF42
 1116 02ab 05       		.byte	0x5
 1117 02ac 0301     		.2byte	0x103
 1118 02ae 8C000000 		.4byte	0x8c
 1119 02b2 18       		.byte	0x18
 1120 02b3 00       		.byte	0
 1121 02b4 09       		.uleb128 0x9
 1122 02b5 D7000000 		.4byte	.LASF43
 1123 02b9 05       		.byte	0x5
 1124 02ba 0401     		.2byte	0x104
 1125 02bc 55020000 		.4byte	0x255
 1126 02c0 06       		.uleb128 0x6
 1127 02c1 8C       		.byte	0x8c
 1128 02c2 05       		.byte	0x5
 1129 02c3 0D01     		.2byte	0x10d
 1130 02c5 0B030000 		.4byte	0x30b
 1131 02c9 08       		.uleb128 0x8
 1132 02ca A3010000 		.4byte	.LASF44
 1133 02ce 05       		.byte	0x5
 1134 02cf 1001     		.2byte	0x110
 1135 02d1 B4020000 		.4byte	0x2b4
 1136 02d5 00       		.byte	0
 1137 02d6 08       		.uleb128 0x8
 1138 02d7 A8020000 		.4byte	.LASF45
 1139 02db 05       		.byte	0x5
 1140 02dc 1401     		.2byte	0x114
 1141 02de B4020000 		.4byte	0x2b4
ARM GAS  /tmp/ccy76ghP.s 			page 41


 1142 02e2 1C       		.byte	0x1c
 1143 02e3 08       		.uleb128 0x8
 1144 02e4 00000000 		.4byte	.LASF46
 1145 02e8 05       		.byte	0x5
 1146 02e9 1801     		.2byte	0x118
 1147 02eb B4020000 		.4byte	0x2b4
 1148 02ef 38       		.byte	0x38
 1149 02f0 08       		.uleb128 0x8
 1150 02f1 CF010000 		.4byte	.LASF47
 1151 02f5 05       		.byte	0x5
 1152 02f6 1C01     		.2byte	0x11c
 1153 02f8 B4020000 		.4byte	0x2b4
 1154 02fc 54       		.byte	0x54
 1155 02fd 08       		.uleb128 0x8
 1156 02fe EA000000 		.4byte	.LASF48
 1157 0302 05       		.byte	0x5
 1158 0303 2401     		.2byte	0x124
 1159 0305 B4020000 		.4byte	0x2b4
 1160 0309 70       		.byte	0x70
 1161 030a 00       		.byte	0
 1162 030b 09       		.uleb128 0x9
 1163 030c 9E020000 		.4byte	.LASF49
 1164 0310 05       		.byte	0x5
 1165 0311 3A01     		.2byte	0x13a
 1166 0313 C0020000 		.4byte	0x2c0
 1167 0317 09       		.uleb128 0x9
 1168 0318 83020000 		.4byte	.LASF50
 1169 031c 05       		.byte	0x5
 1170 031d 3F01     		.2byte	0x13f
 1171 031f 8C000000 		.4byte	0x8c
 1172 0323 09       		.uleb128 0x9
 1173 0324 5D020000 		.4byte	.LASF51
 1174 0328 05       		.byte	0x5
 1175 0329 4401     		.2byte	0x144
 1176 032b 8C000000 		.4byte	0x8c
 1177 032f 09       		.uleb128 0x9
 1178 0330 03020000 		.4byte	.LASF52
 1179 0334 05       		.byte	0x5
 1180 0335 5101     		.2byte	0x151
 1181 0337 3B030000 		.4byte	0x33b
 1182 033b 0F       		.uleb128 0xf
 1183 033c 04       		.byte	0x4
 1184 033d 4A020000 		.4byte	0x24a
 1185 0341 10       		.uleb128 0x10
 1186 0342 F1000000 		.4byte	.LASF63
 1187 0346 01       		.byte	0x1
 1188 0347 3D       		.byte	0x3d
 1189 0348 01       		.byte	0x1
 1190 0349 64030000 		.4byte	0x364
 1191 034d 11       		.uleb128 0x11
 1192 034e 1F010000 		.4byte	.LASF53
 1193 0352 01       		.byte	0x1
 1194 0353 3D       		.byte	0x3d
 1195 0354 3B030000 		.4byte	0x33b
 1196 0358 11       		.uleb128 0x11
 1197 0359 40010000 		.4byte	.LASF54
 1198 035d 01       		.byte	0x1
ARM GAS  /tmp/ccy76ghP.s 			page 42


 1199 035e 3D       		.byte	0x3d
 1200 035f 64030000 		.4byte	0x364
 1201 0363 00       		.byte	0
 1202 0364 0F       		.uleb128 0xf
 1203 0365 04       		.byte	0x4
 1204 0366 6A030000 		.4byte	0x36a
 1205 036a 12       		.uleb128 0x12
 1206 036b B4020000 		.4byte	0x2b4
 1207 036f 13       		.uleb128 0x13
 1208 0370 C9000000 		.4byte	.LASF64
 1209 0374 01       		.byte	0x1
 1210 0375 58       		.byte	0x58
 1211 0376 00000000 		.4byte	.LFB99
 1212 037a C0000000 		.4byte	.LFE99-.LFB99
 1213 037e 01       		.uleb128 0x1
 1214 037f 9C       		.byte	0x9c
 1215 0380 4C040000 		.4byte	0x44c
 1216 0384 14       		.uleb128 0x14
 1217 0385 40010000 		.4byte	.LASF54
 1218 0389 01       		.byte	0x1
 1219 038a 58       		.byte	0x58
 1220 038b 4C040000 		.4byte	0x44c
 1221 038f 01       		.uleb128 0x1
 1222 0390 50       		.byte	0x50
 1223 0391 15       		.uleb128 0x15
 1224 0392 41030000 		.4byte	0x341
 1225 0396 0C000000 		.4byte	.LBB12
 1226 039a 00000000 		.4byte	.Ldebug_ranges0+0
 1227 039e 01       		.byte	0x1
 1228 039f 70       		.byte	0x70
 1229 03a0 B5030000 		.4byte	0x3b5
 1230 03a4 16       		.uleb128 0x16
 1231 03a5 58030000 		.4byte	0x358
 1232 03a9 01       		.uleb128 0x1
 1233 03aa 50       		.byte	0x50
 1234 03ab 17       		.uleb128 0x17
 1235 03ac 4D030000 		.4byte	0x34d
 1236 03b0 00000048 		.4byte	0x48000000
 1237 03b4 00       		.byte	0
 1238 03b5 18       		.uleb128 0x18
 1239 03b6 41030000 		.4byte	0x341
 1240 03ba 2C000000 		.4byte	.LBB16
 1241 03be 1E000000 		.4byte	.LBE16-.LBB16
 1242 03c2 01       		.byte	0x1
 1243 03c3 73       		.byte	0x73
 1244 03c4 DB030000 		.4byte	0x3db
 1245 03c8 16       		.uleb128 0x16
 1246 03c9 58030000 		.4byte	0x358
 1247 03cd 03       		.uleb128 0x3
 1248 03ce 70       		.byte	0x70
 1249 03cf 1C       		.sleb128 28
 1250 03d0 9F       		.byte	0x9f
 1251 03d1 17       		.uleb128 0x17
 1252 03d2 4D030000 		.4byte	0x34d
 1253 03d6 00040048 		.4byte	0x48000400
 1254 03da 00       		.byte	0
 1255 03db 18       		.uleb128 0x18
ARM GAS  /tmp/ccy76ghP.s 			page 43


 1256 03dc 41030000 		.4byte	0x341
 1257 03e0 4A000000 		.4byte	.LBB18
 1258 03e4 1E000000 		.4byte	.LBE18-.LBB18
 1259 03e8 01       		.byte	0x1
 1260 03e9 76       		.byte	0x76
 1261 03ea 01040000 		.4byte	0x401
 1262 03ee 16       		.uleb128 0x16
 1263 03ef 58030000 		.4byte	0x358
 1264 03f3 03       		.uleb128 0x3
 1265 03f4 70       		.byte	0x70
 1266 03f5 38       		.sleb128 56
 1267 03f6 9F       		.byte	0x9f
 1268 03f7 17       		.uleb128 0x17
 1269 03f8 4D030000 		.4byte	0x34d
 1270 03fc 00080048 		.4byte	0x48000800
 1271 0400 00       		.byte	0
 1272 0401 18       		.uleb128 0x18
 1273 0402 41030000 		.4byte	0x341
 1274 0406 68000000 		.4byte	.LBB20
 1275 040a 1E000000 		.4byte	.LBE20-.LBB20
 1276 040e 01       		.byte	0x1
 1277 040f 79       		.byte	0x79
 1278 0410 28040000 		.4byte	0x428
 1279 0414 16       		.uleb128 0x16
 1280 0415 58030000 		.4byte	0x358
 1281 0419 04       		.uleb128 0x4
 1282 041a 70       		.byte	0x70
 1283 041b D400     		.sleb128 84
 1284 041d 9F       		.byte	0x9f
 1285 041e 17       		.uleb128 0x17
 1286 041f 4D030000 		.4byte	0x34d
 1287 0423 000C0048 		.4byte	0x48000c00
 1288 0427 00       		.byte	0
 1289 0428 19       		.uleb128 0x19
 1290 0429 41030000 		.4byte	0x341
 1291 042d 86000000 		.4byte	.LBB22
 1292 0431 24000000 		.4byte	.LBE22-.LBB22
 1293 0435 01       		.byte	0x1
 1294 0436 7F       		.byte	0x7f
 1295 0437 16       		.uleb128 0x16
 1296 0438 58030000 		.4byte	0x358
 1297 043c 04       		.uleb128 0x4
 1298 043d 70       		.byte	0x70
 1299 043e F000     		.sleb128 112
 1300 0440 9F       		.byte	0x9f
 1301 0441 17       		.uleb128 0x17
 1302 0442 4D030000 		.4byte	0x34d
 1303 0446 00140048 		.4byte	0x48001400
 1304 044a 00       		.byte	0
 1305 044b 00       		.byte	0
 1306 044c 0F       		.uleb128 0xf
 1307 044d 04       		.byte	0x4
 1308 044e 52040000 		.4byte	0x452
 1309 0452 12       		.uleb128 0x12
 1310 0453 0B030000 		.4byte	0x30b
 1311 0457 1A       		.uleb128 0x1a
 1312 0458 07000000 		.4byte	.LASF65
ARM GAS  /tmp/ccy76ghP.s 			page 44


 1313 045c 01       		.byte	0x1
 1314 045d 9F       		.byte	0x9f
 1315 045e 00000000 		.4byte	.LFB100
 1316 0462 FE000000 		.4byte	.LFE100-.LFB100
 1317 0466 01       		.uleb128 0x1
 1318 0467 9C       		.byte	0x9c
 1319 0468 14       		.uleb128 0x14
 1320 0469 B5020000 		.4byte	.LASF55
 1321 046d 01       		.byte	0x1
 1322 046e 9F       		.byte	0x9f
 1323 046f 2F030000 		.4byte	0x32f
 1324 0473 01       		.uleb128 0x1
 1325 0474 50       		.byte	0x50
 1326 0475 1B       		.uleb128 0x1b
 1327 0476 D9020000 		.4byte	.LASF56
 1328 047a 01       		.byte	0x1
 1329 047b A0       		.byte	0xa0
 1330 047c 17030000 		.4byte	0x317
 1331 0480 00000000 		.4byte	.LLST0
 1332 0484 1B       		.uleb128 0x1b
 1333 0485 30010000 		.4byte	.LASF57
 1334 0489 01       		.byte	0x1
 1335 048a A1       		.byte	0xa1
 1336 048b 23030000 		.4byte	0x323
 1337 048f 1E000000 		.4byte	.LLST1
 1338 0493 1C       		.uleb128 0x1c
 1339 0494 F6020000 		.4byte	.LASF37
 1340 0498 01       		.byte	0x1
 1341 0499 A3       		.byte	0xa3
 1342 049a 8C000000 		.4byte	0x8c
 1343 049e 3F000000 		.4byte	.LLST2
 1344 04a2 1C       		.uleb128 0x1c
 1345 04a3 4C010000 		.4byte	.LASF38
 1346 04a7 01       		.byte	0x1
 1347 04a8 A4       		.byte	0xa4
 1348 04a9 8C000000 		.4byte	0x8c
 1349 04ad 5D000000 		.4byte	.LLST3
 1350 04b1 1C       		.uleb128 0x1c
 1351 04b2 BE010000 		.4byte	.LASF39
 1352 04b6 01       		.byte	0x1
 1353 04b7 A5       		.byte	0xa5
 1354 04b8 8C000000 		.4byte	0x8c
 1355 04bc 7B000000 		.4byte	.LLST4
 1356 04c0 1C       		.uleb128 0x1c
 1357 04c1 DE020000 		.4byte	.LASF40
 1358 04c5 01       		.byte	0x1
 1359 04c6 A6       		.byte	0xa6
 1360 04c7 8C000000 		.4byte	0x8c
 1361 04cb 99000000 		.4byte	.LLST5
 1362 04cf 1C       		.uleb128 0x1c
 1363 04d0 BA020000 		.4byte	.LASF58
 1364 04d4 01       		.byte	0x1
 1365 04d5 A7       		.byte	0xa7
 1366 04d6 8C000000 		.4byte	0x8c
 1367 04da 09010000 		.4byte	.LLST6
 1368 04de 1D       		.uleb128 0x1d
 1369 04df 62697400 		.ascii	"bit\000"
ARM GAS  /tmp/ccy76ghP.s 			page 45


 1370 04e3 01       		.byte	0x1
 1371 04e4 A8       		.byte	0xa8
 1372 04e5 8C000000 		.4byte	0x8c
 1373 04e9 39010000 		.4byte	.LLST7
 1374 04ed 1E       		.uleb128 0x1e
 1375 04ee 18000000 		.4byte	.Ldebug_ranges0+0x18
 1376 04f2 1C       		.uleb128 0x1c
 1377 04f3 38030000 		.4byte	.LASF59
 1378 04f7 01       		.byte	0x1
 1379 04f8 AB       		.byte	0xab
 1380 04f9 8C000000 		.4byte	0x8c
 1381 04fd 58010000 		.4byte	.LLST8
 1382 0501 1D       		.uleb128 0x1d
 1383 0502 6D3100   		.ascii	"m1\000"
 1384 0505 01       		.byte	0x1
 1385 0506 AB       		.byte	0xab
 1386 0507 8C000000 		.4byte	0x8c
 1387 050b AB010000 		.4byte	.LLST9
 1388 050f 1D       		.uleb128 0x1d
 1389 0510 6D3200   		.ascii	"m2\000"
 1390 0513 01       		.byte	0x1
 1391 0514 AB       		.byte	0xab
 1392 0515 8C000000 		.4byte	0x8c
 1393 0519 E0010000 		.4byte	.LLST10
 1394 051d 1D       		.uleb128 0x1d
 1395 051e 6D3400   		.ascii	"m4\000"
 1396 0521 01       		.byte	0x1
 1397 0522 AB       		.byte	0xab
 1398 0523 8C000000 		.4byte	0x8c
 1399 0527 3F020000 		.4byte	.LLST11
 1400 052b 00       		.byte	0
 1401 052c 00       		.byte	0
 1402 052d 00       		.byte	0
 1403              		.section	.debug_abbrev,"",%progbits
 1404              	.Ldebug_abbrev0:
 1405 0000 01       		.uleb128 0x1
 1406 0001 11       		.uleb128 0x11
 1407 0002 01       		.byte	0x1
 1408 0003 25       		.uleb128 0x25
 1409 0004 0E       		.uleb128 0xe
 1410 0005 13       		.uleb128 0x13
 1411 0006 0B       		.uleb128 0xb
 1412 0007 03       		.uleb128 0x3
 1413 0008 0E       		.uleb128 0xe
 1414 0009 1B       		.uleb128 0x1b
 1415 000a 0E       		.uleb128 0xe
 1416 000b 55       		.uleb128 0x55
 1417 000c 17       		.uleb128 0x17
 1418 000d 11       		.uleb128 0x11
 1419 000e 01       		.uleb128 0x1
 1420 000f 10       		.uleb128 0x10
 1421 0010 17       		.uleb128 0x17
 1422 0011 00       		.byte	0
 1423 0012 00       		.byte	0
 1424 0013 02       		.uleb128 0x2
 1425 0014 24       		.uleb128 0x24
 1426 0015 00       		.byte	0
ARM GAS  /tmp/ccy76ghP.s 			page 46


 1427 0016 0B       		.uleb128 0xb
 1428 0017 0B       		.uleb128 0xb
 1429 0018 3E       		.uleb128 0x3e
 1430 0019 0B       		.uleb128 0xb
 1431 001a 03       		.uleb128 0x3
 1432 001b 08       		.uleb128 0x8
 1433 001c 00       		.byte	0
 1434 001d 00       		.byte	0
 1435 001e 03       		.uleb128 0x3
 1436 001f 24       		.uleb128 0x24
 1437 0020 00       		.byte	0
 1438 0021 0B       		.uleb128 0xb
 1439 0022 0B       		.uleb128 0xb
 1440 0023 3E       		.uleb128 0x3e
 1441 0024 0B       		.uleb128 0xb
 1442 0025 03       		.uleb128 0x3
 1443 0026 0E       		.uleb128 0xe
 1444 0027 00       		.byte	0
 1445 0028 00       		.byte	0
 1446 0029 04       		.uleb128 0x4
 1447 002a 16       		.uleb128 0x16
 1448 002b 00       		.byte	0
 1449 002c 03       		.uleb128 0x3
 1450 002d 0E       		.uleb128 0xe
 1451 002e 3A       		.uleb128 0x3a
 1452 002f 0B       		.uleb128 0xb
 1453 0030 3B       		.uleb128 0x3b
 1454 0031 0B       		.uleb128 0xb
 1455 0032 49       		.uleb128 0x49
 1456 0033 13       		.uleb128 0x13
 1457 0034 00       		.byte	0
 1458 0035 00       		.byte	0
 1459 0036 05       		.uleb128 0x5
 1460 0037 35       		.uleb128 0x35
 1461 0038 00       		.byte	0
 1462 0039 49       		.uleb128 0x49
 1463 003a 13       		.uleb128 0x13
 1464 003b 00       		.byte	0
 1465 003c 00       		.byte	0
 1466 003d 06       		.uleb128 0x6
 1467 003e 13       		.uleb128 0x13
 1468 003f 01       		.byte	0x1
 1469 0040 0B       		.uleb128 0xb
 1470 0041 0B       		.uleb128 0xb
 1471 0042 3A       		.uleb128 0x3a
 1472 0043 0B       		.uleb128 0xb
 1473 0044 3B       		.uleb128 0x3b
 1474 0045 05       		.uleb128 0x5
 1475 0046 01       		.uleb128 0x1
 1476 0047 13       		.uleb128 0x13
 1477 0048 00       		.byte	0
 1478 0049 00       		.byte	0
 1479 004a 07       		.uleb128 0x7
 1480 004b 0D       		.uleb128 0xd
 1481 004c 00       		.byte	0
 1482 004d 03       		.uleb128 0x3
 1483 004e 08       		.uleb128 0x8
ARM GAS  /tmp/ccy76ghP.s 			page 47


 1484 004f 3A       		.uleb128 0x3a
 1485 0050 0B       		.uleb128 0xb
 1486 0051 3B       		.uleb128 0x3b
 1487 0052 05       		.uleb128 0x5
 1488 0053 49       		.uleb128 0x49
 1489 0054 13       		.uleb128 0x13
 1490 0055 38       		.uleb128 0x38
 1491 0056 0B       		.uleb128 0xb
 1492 0057 00       		.byte	0
 1493 0058 00       		.byte	0
 1494 0059 08       		.uleb128 0x8
 1495 005a 0D       		.uleb128 0xd
 1496 005b 00       		.byte	0
 1497 005c 03       		.uleb128 0x3
 1498 005d 0E       		.uleb128 0xe
 1499 005e 3A       		.uleb128 0x3a
 1500 005f 0B       		.uleb128 0xb
 1501 0060 3B       		.uleb128 0x3b
 1502 0061 05       		.uleb128 0x5
 1503 0062 49       		.uleb128 0x49
 1504 0063 13       		.uleb128 0x13
 1505 0064 38       		.uleb128 0x38
 1506 0065 0B       		.uleb128 0xb
 1507 0066 00       		.byte	0
 1508 0067 00       		.byte	0
 1509 0068 09       		.uleb128 0x9
 1510 0069 16       		.uleb128 0x16
 1511 006a 00       		.byte	0
 1512 006b 03       		.uleb128 0x3
 1513 006c 0E       		.uleb128 0xe
 1514 006d 3A       		.uleb128 0x3a
 1515 006e 0B       		.uleb128 0xb
 1516 006f 3B       		.uleb128 0x3b
 1517 0070 05       		.uleb128 0x5
 1518 0071 49       		.uleb128 0x49
 1519 0072 13       		.uleb128 0x13
 1520 0073 00       		.byte	0
 1521 0074 00       		.byte	0
 1522 0075 0A       		.uleb128 0xa
 1523 0076 13       		.uleb128 0x13
 1524 0077 01       		.byte	0x1
 1525 0078 0B       		.uleb128 0xb
 1526 0079 0B       		.uleb128 0xb
 1527 007a 3A       		.uleb128 0x3a
 1528 007b 0B       		.uleb128 0xb
 1529 007c 3B       		.uleb128 0x3b
 1530 007d 0B       		.uleb128 0xb
 1531 007e 01       		.uleb128 0x1
 1532 007f 13       		.uleb128 0x13
 1533 0080 00       		.byte	0
 1534 0081 00       		.byte	0
 1535 0082 0B       		.uleb128 0xb
 1536 0083 0D       		.uleb128 0xd
 1537 0084 00       		.byte	0
 1538 0085 03       		.uleb128 0x3
 1539 0086 08       		.uleb128 0x8
 1540 0087 3A       		.uleb128 0x3a
ARM GAS  /tmp/ccy76ghP.s 			page 48


 1541 0088 0B       		.uleb128 0xb
 1542 0089 3B       		.uleb128 0x3b
 1543 008a 0B       		.uleb128 0xb
 1544 008b 49       		.uleb128 0x49
 1545 008c 13       		.uleb128 0x13
 1546 008d 38       		.uleb128 0x38
 1547 008e 0B       		.uleb128 0xb
 1548 008f 00       		.byte	0
 1549 0090 00       		.byte	0
 1550 0091 0C       		.uleb128 0xc
 1551 0092 0D       		.uleb128 0xd
 1552 0093 00       		.byte	0
 1553 0094 03       		.uleb128 0x3
 1554 0095 0E       		.uleb128 0xe
 1555 0096 3A       		.uleb128 0x3a
 1556 0097 0B       		.uleb128 0xb
 1557 0098 3B       		.uleb128 0x3b
 1558 0099 0B       		.uleb128 0xb
 1559 009a 49       		.uleb128 0x49
 1560 009b 13       		.uleb128 0x13
 1561 009c 38       		.uleb128 0x38
 1562 009d 0B       		.uleb128 0xb
 1563 009e 00       		.byte	0
 1564 009f 00       		.byte	0
 1565 00a0 0D       		.uleb128 0xd
 1566 00a1 17       		.uleb128 0x17
 1567 00a2 01       		.byte	0x1
 1568 00a3 0B       		.uleb128 0xb
 1569 00a4 0B       		.uleb128 0xb
 1570 00a5 3A       		.uleb128 0x3a
 1571 00a6 0B       		.uleb128 0xb
 1572 00a7 3B       		.uleb128 0x3b
 1573 00a8 0B       		.uleb128 0xb
 1574 00a9 01       		.uleb128 0x1
 1575 00aa 13       		.uleb128 0x13
 1576 00ab 00       		.byte	0
 1577 00ac 00       		.byte	0
 1578 00ad 0E       		.uleb128 0xe
 1579 00ae 0D       		.uleb128 0xd
 1580 00af 00       		.byte	0
 1581 00b0 03       		.uleb128 0x3
 1582 00b1 08       		.uleb128 0x8
 1583 00b2 3A       		.uleb128 0x3a
 1584 00b3 0B       		.uleb128 0xb
 1585 00b4 3B       		.uleb128 0x3b
 1586 00b5 0B       		.uleb128 0xb
 1587 00b6 49       		.uleb128 0x49
 1588 00b7 13       		.uleb128 0x13
 1589 00b8 00       		.byte	0
 1590 00b9 00       		.byte	0
 1591 00ba 0F       		.uleb128 0xf
 1592 00bb 0F       		.uleb128 0xf
 1593 00bc 00       		.byte	0
 1594 00bd 0B       		.uleb128 0xb
 1595 00be 0B       		.uleb128 0xb
 1596 00bf 49       		.uleb128 0x49
 1597 00c0 13       		.uleb128 0x13
ARM GAS  /tmp/ccy76ghP.s 			page 49


 1598 00c1 00       		.byte	0
 1599 00c2 00       		.byte	0
 1600 00c3 10       		.uleb128 0x10
 1601 00c4 2E       		.uleb128 0x2e
 1602 00c5 01       		.byte	0x1
 1603 00c6 03       		.uleb128 0x3
 1604 00c7 0E       		.uleb128 0xe
 1605 00c8 3A       		.uleb128 0x3a
 1606 00c9 0B       		.uleb128 0xb
 1607 00ca 3B       		.uleb128 0x3b
 1608 00cb 0B       		.uleb128 0xb
 1609 00cc 27       		.uleb128 0x27
 1610 00cd 19       		.uleb128 0x19
 1611 00ce 20       		.uleb128 0x20
 1612 00cf 0B       		.uleb128 0xb
 1613 00d0 01       		.uleb128 0x1
 1614 00d1 13       		.uleb128 0x13
 1615 00d2 00       		.byte	0
 1616 00d3 00       		.byte	0
 1617 00d4 11       		.uleb128 0x11
 1618 00d5 05       		.uleb128 0x5
 1619 00d6 00       		.byte	0
 1620 00d7 03       		.uleb128 0x3
 1621 00d8 0E       		.uleb128 0xe
 1622 00d9 3A       		.uleb128 0x3a
 1623 00da 0B       		.uleb128 0xb
 1624 00db 3B       		.uleb128 0x3b
 1625 00dc 0B       		.uleb128 0xb
 1626 00dd 49       		.uleb128 0x49
 1627 00de 13       		.uleb128 0x13
 1628 00df 00       		.byte	0
 1629 00e0 00       		.byte	0
 1630 00e1 12       		.uleb128 0x12
 1631 00e2 26       		.uleb128 0x26
 1632 00e3 00       		.byte	0
 1633 00e4 49       		.uleb128 0x49
 1634 00e5 13       		.uleb128 0x13
 1635 00e6 00       		.byte	0
 1636 00e7 00       		.byte	0
 1637 00e8 13       		.uleb128 0x13
 1638 00e9 2E       		.uleb128 0x2e
 1639 00ea 01       		.byte	0x1
 1640 00eb 3F       		.uleb128 0x3f
 1641 00ec 19       		.uleb128 0x19
 1642 00ed 03       		.uleb128 0x3
 1643 00ee 0E       		.uleb128 0xe
 1644 00ef 3A       		.uleb128 0x3a
 1645 00f0 0B       		.uleb128 0xb
 1646 00f1 3B       		.uleb128 0x3b
 1647 00f2 0B       		.uleb128 0xb
 1648 00f3 27       		.uleb128 0x27
 1649 00f4 19       		.uleb128 0x19
 1650 00f5 11       		.uleb128 0x11
 1651 00f6 01       		.uleb128 0x1
 1652 00f7 12       		.uleb128 0x12
 1653 00f8 06       		.uleb128 0x6
 1654 00f9 40       		.uleb128 0x40
ARM GAS  /tmp/ccy76ghP.s 			page 50


 1655 00fa 18       		.uleb128 0x18
 1656 00fb 9742     		.uleb128 0x2117
 1657 00fd 19       		.uleb128 0x19
 1658 00fe 01       		.uleb128 0x1
 1659 00ff 13       		.uleb128 0x13
 1660 0100 00       		.byte	0
 1661 0101 00       		.byte	0
 1662 0102 14       		.uleb128 0x14
 1663 0103 05       		.uleb128 0x5
 1664 0104 00       		.byte	0
 1665 0105 03       		.uleb128 0x3
 1666 0106 0E       		.uleb128 0xe
 1667 0107 3A       		.uleb128 0x3a
 1668 0108 0B       		.uleb128 0xb
 1669 0109 3B       		.uleb128 0x3b
 1670 010a 0B       		.uleb128 0xb
 1671 010b 49       		.uleb128 0x49
 1672 010c 13       		.uleb128 0x13
 1673 010d 02       		.uleb128 0x2
 1674 010e 18       		.uleb128 0x18
 1675 010f 00       		.byte	0
 1676 0110 00       		.byte	0
 1677 0111 15       		.uleb128 0x15
 1678 0112 1D       		.uleb128 0x1d
 1679 0113 01       		.byte	0x1
 1680 0114 31       		.uleb128 0x31
 1681 0115 13       		.uleb128 0x13
 1682 0116 52       		.uleb128 0x52
 1683 0117 01       		.uleb128 0x1
 1684 0118 55       		.uleb128 0x55
 1685 0119 17       		.uleb128 0x17
 1686 011a 58       		.uleb128 0x58
 1687 011b 0B       		.uleb128 0xb
 1688 011c 59       		.uleb128 0x59
 1689 011d 0B       		.uleb128 0xb
 1690 011e 01       		.uleb128 0x1
 1691 011f 13       		.uleb128 0x13
 1692 0120 00       		.byte	0
 1693 0121 00       		.byte	0
 1694 0122 16       		.uleb128 0x16
 1695 0123 05       		.uleb128 0x5
 1696 0124 00       		.byte	0
 1697 0125 31       		.uleb128 0x31
 1698 0126 13       		.uleb128 0x13
 1699 0127 02       		.uleb128 0x2
 1700 0128 18       		.uleb128 0x18
 1701 0129 00       		.byte	0
 1702 012a 00       		.byte	0
 1703 012b 17       		.uleb128 0x17
 1704 012c 05       		.uleb128 0x5
 1705 012d 00       		.byte	0
 1706 012e 31       		.uleb128 0x31
 1707 012f 13       		.uleb128 0x13
 1708 0130 1C       		.uleb128 0x1c
 1709 0131 06       		.uleb128 0x6
 1710 0132 00       		.byte	0
 1711 0133 00       		.byte	0
ARM GAS  /tmp/ccy76ghP.s 			page 51


 1712 0134 18       		.uleb128 0x18
 1713 0135 1D       		.uleb128 0x1d
 1714 0136 01       		.byte	0x1
 1715 0137 31       		.uleb128 0x31
 1716 0138 13       		.uleb128 0x13
 1717 0139 11       		.uleb128 0x11
 1718 013a 01       		.uleb128 0x1
 1719 013b 12       		.uleb128 0x12
 1720 013c 06       		.uleb128 0x6
 1721 013d 58       		.uleb128 0x58
 1722 013e 0B       		.uleb128 0xb
 1723 013f 59       		.uleb128 0x59
 1724 0140 0B       		.uleb128 0xb
 1725 0141 01       		.uleb128 0x1
 1726 0142 13       		.uleb128 0x13
 1727 0143 00       		.byte	0
 1728 0144 00       		.byte	0
 1729 0145 19       		.uleb128 0x19
 1730 0146 1D       		.uleb128 0x1d
 1731 0147 01       		.byte	0x1
 1732 0148 31       		.uleb128 0x31
 1733 0149 13       		.uleb128 0x13
 1734 014a 11       		.uleb128 0x11
 1735 014b 01       		.uleb128 0x1
 1736 014c 12       		.uleb128 0x12
 1737 014d 06       		.uleb128 0x6
 1738 014e 58       		.uleb128 0x58
 1739 014f 0B       		.uleb128 0xb
 1740 0150 59       		.uleb128 0x59
 1741 0151 0B       		.uleb128 0xb
 1742 0152 00       		.byte	0
 1743 0153 00       		.byte	0
 1744 0154 1A       		.uleb128 0x1a
 1745 0155 2E       		.uleb128 0x2e
 1746 0156 01       		.byte	0x1
 1747 0157 3F       		.uleb128 0x3f
 1748 0158 19       		.uleb128 0x19
 1749 0159 03       		.uleb128 0x3
 1750 015a 0E       		.uleb128 0xe
 1751 015b 3A       		.uleb128 0x3a
 1752 015c 0B       		.uleb128 0xb
 1753 015d 3B       		.uleb128 0x3b
 1754 015e 0B       		.uleb128 0xb
 1755 015f 27       		.uleb128 0x27
 1756 0160 19       		.uleb128 0x19
 1757 0161 11       		.uleb128 0x11
 1758 0162 01       		.uleb128 0x1
 1759 0163 12       		.uleb128 0x12
 1760 0164 06       		.uleb128 0x6
 1761 0165 40       		.uleb128 0x40
 1762 0166 18       		.uleb128 0x18
 1763 0167 9742     		.uleb128 0x2117
 1764 0169 19       		.uleb128 0x19
 1765 016a 00       		.byte	0
 1766 016b 00       		.byte	0
 1767 016c 1B       		.uleb128 0x1b
 1768 016d 05       		.uleb128 0x5
ARM GAS  /tmp/ccy76ghP.s 			page 52


 1769 016e 00       		.byte	0
 1770 016f 03       		.uleb128 0x3
 1771 0170 0E       		.uleb128 0xe
 1772 0171 3A       		.uleb128 0x3a
 1773 0172 0B       		.uleb128 0xb
 1774 0173 3B       		.uleb128 0x3b
 1775 0174 0B       		.uleb128 0xb
 1776 0175 49       		.uleb128 0x49
 1777 0176 13       		.uleb128 0x13
 1778 0177 02       		.uleb128 0x2
 1779 0178 17       		.uleb128 0x17
 1780 0179 00       		.byte	0
 1781 017a 00       		.byte	0
 1782 017b 1C       		.uleb128 0x1c
 1783 017c 34       		.uleb128 0x34
 1784 017d 00       		.byte	0
 1785 017e 03       		.uleb128 0x3
 1786 017f 0E       		.uleb128 0xe
 1787 0180 3A       		.uleb128 0x3a
 1788 0181 0B       		.uleb128 0xb
 1789 0182 3B       		.uleb128 0x3b
 1790 0183 0B       		.uleb128 0xb
 1791 0184 49       		.uleb128 0x49
 1792 0185 13       		.uleb128 0x13
 1793 0186 02       		.uleb128 0x2
 1794 0187 17       		.uleb128 0x17
 1795 0188 00       		.byte	0
 1796 0189 00       		.byte	0
 1797 018a 1D       		.uleb128 0x1d
 1798 018b 34       		.uleb128 0x34
 1799 018c 00       		.byte	0
 1800 018d 03       		.uleb128 0x3
 1801 018e 08       		.uleb128 0x8
 1802 018f 3A       		.uleb128 0x3a
 1803 0190 0B       		.uleb128 0xb
 1804 0191 3B       		.uleb128 0x3b
 1805 0192 0B       		.uleb128 0xb
 1806 0193 49       		.uleb128 0x49
 1807 0194 13       		.uleb128 0x13
 1808 0195 02       		.uleb128 0x2
 1809 0196 17       		.uleb128 0x17
 1810 0197 00       		.byte	0
 1811 0198 00       		.byte	0
 1812 0199 1E       		.uleb128 0x1e
 1813 019a 0B       		.uleb128 0xb
 1814 019b 01       		.byte	0x1
 1815 019c 55       		.uleb128 0x55
 1816 019d 17       		.uleb128 0x17
 1817 019e 00       		.byte	0
 1818 019f 00       		.byte	0
 1819 01a0 00       		.byte	0
 1820              		.section	.debug_loc,"",%progbits
 1821              	.Ldebug_loc0:
 1822              	.LLST0:
 1823 0000 00000000 		.4byte	.LVL6
 1824 0004 3C000000 		.4byte	.LVL13
 1825 0008 0100     		.2byte	0x1
ARM GAS  /tmp/ccy76ghP.s 			page 53


 1826 000a 51       		.byte	0x51
 1827 000b 3C000000 		.4byte	.LVL13
 1828 000f FE000000 		.4byte	.LFE100
 1829 0013 0100     		.2byte	0x1
 1830 0015 51       		.byte	0x51
 1831 0016 00000000 		.4byte	0
 1832 001a 00000000 		.4byte	0
 1833              	.LLST1:
 1834 001e 00000000 		.4byte	.LVL6
 1835 0022 18000000 		.4byte	.LVL8
 1836 0026 0100     		.2byte	0x1
 1837 0028 52       		.byte	0x52
 1838 0029 18000000 		.4byte	.LVL8
 1839 002d FE000000 		.4byte	.LFE100
 1840 0031 0400     		.2byte	0x4
 1841 0033 F3       		.byte	0xf3
 1842 0034 01       		.uleb128 0x1
 1843 0035 52       		.byte	0x52
 1844 0036 9F       		.byte	0x9f
 1845 0037 00000000 		.4byte	0
 1846 003b 00000000 		.4byte	0
 1847              	.LLST2:
 1848 003f 16000000 		.4byte	.LVL7
 1849 0043 BE000000 		.4byte	.LVL29
 1850 0047 0100     		.2byte	0x1
 1851 0049 54       		.byte	0x54
 1852 004a CA000000 		.4byte	.LVL33
 1853 004e FE000000 		.4byte	.LFE100
 1854 0052 0100     		.2byte	0x1
 1855 0054 54       		.byte	0x54
 1856 0055 00000000 		.4byte	0
 1857 0059 00000000 		.4byte	0
 1858              	.LLST3:
 1859 005d 24000000 		.4byte	.LVL9
 1860 0061 BE000000 		.4byte	.LVL31
 1861 0065 0100     		.2byte	0x1
 1862 0067 57       		.byte	0x57
 1863 0068 CA000000 		.4byte	.LVL33
 1864 006c FE000000 		.4byte	.LFE100
 1865 0070 0100     		.2byte	0x1
 1866 0072 57       		.byte	0x57
 1867 0073 00000000 		.4byte	0
 1868 0077 00000000 		.4byte	0
 1869              	.LLST4:
 1870 007b 26000000 		.4byte	.LVL10
 1871 007f BE000000 		.4byte	.LVL30
 1872 0083 0100     		.2byte	0x1
 1873 0085 56       		.byte	0x56
 1874 0086 CA000000 		.4byte	.LVL33
 1875 008a FE000000 		.4byte	.LFE100
 1876 008e 0100     		.2byte	0x1
 1877 0090 56       		.byte	0x56
 1878 0091 00000000 		.4byte	0
 1879 0095 00000000 		.4byte	0
 1880              	.LLST5:
 1881 0099 26000000 		.4byte	.LVL10
 1882 009d 2E000000 		.4byte	.LVL11
ARM GAS  /tmp/ccy76ghP.s 			page 54


 1883 00a1 0100     		.2byte	0x1
 1884 00a3 55       		.byte	0x55
 1885 00a4 2E000000 		.4byte	.LVL11
 1886 00a8 48000000 		.4byte	.LVL16
 1887 00ac 0200     		.2byte	0x2
 1888 00ae 7D       		.byte	0x7d
 1889 00af 00       		.sleb128 0
 1890 00b0 48000000 		.4byte	.LVL16
 1891 00b4 4C000000 		.4byte	.LVL18
 1892 00b8 0100     		.2byte	0x1
 1893 00ba 52       		.byte	0x52
 1894 00bb 4C000000 		.4byte	.LVL18
 1895 00bf BE000000 		.4byte	.LVL28
 1896 00c3 0200     		.2byte	0x2
 1897 00c5 7D       		.byte	0x7d
 1898 00c6 00       		.sleb128 0
 1899 00c7 BE000000 		.4byte	.LVL28
 1900 00cb CA000000 		.4byte	.LVL33
 1901 00cf 0200     		.2byte	0x2
 1902 00d1 91       		.byte	0x91
 1903 00d2 50       		.sleb128 -48
 1904 00d3 CA000000 		.4byte	.LVL33
 1905 00d7 D2000000 		.4byte	.LVL34
 1906 00db 0100     		.2byte	0x1
 1907 00dd 55       		.byte	0x55
 1908 00de D2000000 		.4byte	.LVL34
 1909 00e2 EE000000 		.4byte	.LVL36
 1910 00e6 0200     		.2byte	0x2
 1911 00e8 7D       		.byte	0x7d
 1912 00e9 00       		.sleb128 0
 1913 00ea EE000000 		.4byte	.LVL36
 1914 00ee F0000000 		.4byte	.LVL37
 1915 00f2 0100     		.2byte	0x1
 1916 00f4 55       		.byte	0x55
 1917 00f5 F0000000 		.4byte	.LVL37
 1918 00f9 FE000000 		.4byte	.LFE100
 1919 00fd 0200     		.2byte	0x2
 1920 00ff 7D       		.byte	0x7d
 1921 0100 00       		.sleb128 0
 1922 0101 00000000 		.4byte	0
 1923 0105 00000000 		.4byte	0
 1924              	.LLST6:
 1925 0109 26000000 		.4byte	.LVL10
 1926 010d BE000000 		.4byte	.LVL32
 1927 0111 0100     		.2byte	0x1
 1928 0113 5B       		.byte	0x5b
 1929 0114 BE000000 		.4byte	.LVL32
 1930 0118 CA000000 		.4byte	.LVL33
 1931 011c 0800     		.2byte	0x8
 1932 011e F3       		.byte	0xf3
 1933 011f 01       		.uleb128 0x1
 1934 0120 52       		.byte	0x52
 1935 0121 45       		.byte	0x45
 1936 0122 24       		.byte	0x24
 1937 0123 4C       		.byte	0x4c
 1938 0124 25       		.byte	0x25
 1939 0125 9F       		.byte	0x9f
ARM GAS  /tmp/ccy76ghP.s 			page 55


 1940 0126 CA000000 		.4byte	.LVL33
 1941 012a FE000000 		.4byte	.LFE100
 1942 012e 0100     		.2byte	0x1
 1943 0130 5B       		.byte	0x5b
 1944 0131 00000000 		.4byte	0
 1945 0135 00000000 		.4byte	0
 1946              	.LLST7:
 1947 0139 26000000 		.4byte	.LVL10
 1948 013d 2E000000 		.4byte	.LVL11
 1949 0141 0200     		.2byte	0x2
 1950 0143 30       		.byte	0x30
 1951 0144 9F       		.byte	0x9f
 1952 0145 2E000000 		.4byte	.LVL11
 1953 0149 FE000000 		.4byte	.LFE100
 1954 014d 0100     		.2byte	0x1
 1955 014f 53       		.byte	0x53
 1956 0150 00000000 		.4byte	0
 1957 0154 00000000 		.4byte	0
 1958              	.LLST8:
 1959 0158 2E000000 		.4byte	.LVL11
 1960 015c 3A000000 		.4byte	.LVL12
 1961 0160 0100     		.2byte	0x1
 1962 0162 58       		.byte	0x58
 1963 0163 5E000000 		.4byte	.LVL19
 1964 0167 60000000 		.4byte	.LVL20
 1965 016b 0100     		.2byte	0x1
 1966 016d 52       		.byte	0x52
 1967 016e 60000000 		.4byte	.LVL20
 1968 0172 BC000000 		.4byte	.LVL27
 1969 0176 0100     		.2byte	0x1
 1970 0178 58       		.byte	0x58
 1971 0179 CA000000 		.4byte	.LVL33
 1972 017d E0000000 		.4byte	.LVL35
 1973 0181 0100     		.2byte	0x1
 1974 0183 58       		.byte	0x58
 1975 0184 E0000000 		.4byte	.LVL35
 1976 0188 EE000000 		.4byte	.LVL36
 1977 018c 0A00     		.2byte	0xa
 1978 018e 7B       		.byte	0x7b
 1979 018f 00       		.sleb128 0
 1980 0190 73       		.byte	0x73
 1981 0191 00       		.sleb128 0
 1982 0192 37       		.byte	0x37
 1983 0193 1A       		.byte	0x1a
 1984 0194 32       		.byte	0x32
 1985 0195 24       		.byte	0x24
 1986 0196 24       		.byte	0x24
 1987 0197 9F       		.byte	0x9f
 1988 0198 EE000000 		.4byte	.LVL36
 1989 019c FE000000 		.4byte	.LFE100
 1990 01a0 0100     		.2byte	0x1
 1991 01a2 58       		.byte	0x58
 1992 01a3 00000000 		.4byte	0
 1993 01a7 00000000 		.4byte	0
 1994              	.LLST9:
 1995 01ab 2E000000 		.4byte	.LVL11
 1996 01af 3A000000 		.4byte	.LVL12
ARM GAS  /tmp/ccy76ghP.s 			page 56


 1997 01b3 0500     		.2byte	0x5
 1998 01b5 31       		.byte	0x31
 1999 01b6 73       		.byte	0x73
 2000 01b7 00       		.sleb128 0
 2001 01b8 24       		.byte	0x24
 2002 01b9 9F       		.byte	0x9f
 2003 01ba 5E000000 		.4byte	.LVL19
 2004 01be BC000000 		.4byte	.LVL27
 2005 01c2 0500     		.2byte	0x5
 2006 01c4 31       		.byte	0x31
 2007 01c5 73       		.byte	0x73
 2008 01c6 00       		.sleb128 0
 2009 01c7 24       		.byte	0x24
 2010 01c8 9F       		.byte	0x9f
 2011 01c9 CA000000 		.4byte	.LVL33
 2012 01cd FE000000 		.4byte	.LFE100
 2013 01d1 0500     		.2byte	0x5
 2014 01d3 31       		.byte	0x31
 2015 01d4 73       		.byte	0x73
 2016 01d5 00       		.sleb128 0
 2017 01d6 24       		.byte	0x24
 2018 01d7 9F       		.byte	0x9f
 2019 01d8 00000000 		.4byte	0
 2020 01dc 00000000 		.4byte	0
 2021              	.LLST10:
 2022 01e0 2E000000 		.4byte	.LVL11
 2023 01e4 3A000000 		.4byte	.LVL12
 2024 01e8 0500     		.2byte	0x5
 2025 01ea 91       		.byte	0x91
 2026 01eb 54       		.sleb128 -44
 2027 01ec 06       		.byte	0x6
 2028 01ed 20       		.byte	0x20
 2029 01ee 9F       		.byte	0x9f
 2030 01ef 5E000000 		.4byte	.LVL19
 2031 01f3 7C000000 		.4byte	.LVL23
 2032 01f7 0700     		.2byte	0x7
 2033 01f9 33       		.byte	0x33
 2034 01fa 73       		.byte	0x73
 2035 01fb 00       		.sleb128 0
 2036 01fc 31       		.byte	0x31
 2037 01fd 24       		.byte	0x24
 2038 01fe 24       		.byte	0x24
 2039 01ff 9F       		.byte	0x9f
 2040 0200 7C000000 		.4byte	.LVL23
 2041 0204 80000000 		.4byte	.LVL24
 2042 0208 0100     		.2byte	0x1
 2043 020a 52       		.byte	0x52
 2044 020b 80000000 		.4byte	.LVL24
 2045 020f 8A000000 		.4byte	.LVL25
 2046 0213 0400     		.2byte	0x4
 2047 0215 75       		.byte	0x75
 2048 0216 00       		.sleb128 0
 2049 0217 20       		.byte	0x20
 2050 0218 9F       		.byte	0x9f
 2051 0219 8A000000 		.4byte	.LVL25
 2052 021d BC000000 		.4byte	.LVL27
 2053 0221 0500     		.2byte	0x5
ARM GAS  /tmp/ccy76ghP.s 			page 57


 2054 0223 91       		.byte	0x91
 2055 0224 54       		.sleb128 -44
 2056 0225 06       		.byte	0x6
 2057 0226 20       		.byte	0x20
 2058 0227 9F       		.byte	0x9f
 2059 0228 CA000000 		.4byte	.LVL33
 2060 022c FE000000 		.4byte	.LFE100
 2061 0230 0500     		.2byte	0x5
 2062 0232 91       		.byte	0x91
 2063 0233 54       		.sleb128 -44
 2064 0234 06       		.byte	0x6
 2065 0235 20       		.byte	0x20
 2066 0236 9F       		.byte	0x9f
 2067 0237 00000000 		.4byte	0
 2068 023b 00000000 		.4byte	0
 2069              	.LLST11:
 2070 023f 2E000000 		.4byte	.LVL11
 2071 0243 3A000000 		.4byte	.LVL12
 2072 0247 0100     		.2byte	0x1
 2073 0249 59       		.byte	0x59
 2074 024a 64000000 		.4byte	.LVL21
 2075 024e 68000000 		.4byte	.LVL22
 2076 0252 0100     		.2byte	0x1
 2077 0254 52       		.byte	0x52
 2078 0255 68000000 		.4byte	.LVL22
 2079 0259 BC000000 		.4byte	.LVL27
 2080 025d 0100     		.2byte	0x1
 2081 025f 59       		.byte	0x59
 2082 0260 CA000000 		.4byte	.LVL33
 2083 0264 FE000000 		.4byte	.LFE100
 2084 0268 0100     		.2byte	0x1
 2085 026a 59       		.byte	0x59
 2086 026b 00000000 		.4byte	0
 2087 026f 00000000 		.4byte	0
 2088              		.section	.debug_aranges,"",%progbits
 2089 0000 24000000 		.4byte	0x24
 2090 0004 0200     		.2byte	0x2
 2091 0006 00000000 		.4byte	.Ldebug_info0
 2092 000a 04       		.byte	0x4
 2093 000b 00       		.byte	0
 2094 000c 0000     		.2byte	0
 2095 000e 0000     		.2byte	0
 2096 0010 00000000 		.4byte	.LFB99
 2097 0014 C0000000 		.4byte	.LFE99-.LFB99
 2098 0018 00000000 		.4byte	.LFB100
 2099 001c FE000000 		.4byte	.LFE100-.LFB100
 2100 0020 00000000 		.4byte	0
 2101 0024 00000000 		.4byte	0
 2102              		.section	.debug_ranges,"",%progbits
 2103              	.Ldebug_ranges0:
 2104 0000 0C000000 		.4byte	.LBB12
 2105 0004 16000000 		.4byte	.LBE12
 2106 0008 16000000 		.4byte	.LBB15
 2107 000c 2C000000 		.4byte	.LBE15
 2108 0010 00000000 		.4byte	0
 2109 0014 00000000 		.4byte	0
 2110 0018 2A000000 		.4byte	.LBB24
ARM GAS  /tmp/ccy76ghP.s 			page 58


 2111 001c 3A000000 		.4byte	.LBE24
 2112 0020 52000000 		.4byte	.LBB25
 2113 0024 B8000000 		.4byte	.LBE25
 2114 0028 CA000000 		.4byte	.LBB26
 2115 002c FE000000 		.4byte	.LBE26
 2116 0030 00000000 		.4byte	0
 2117 0034 00000000 		.4byte	0
 2118 0038 00000000 		.4byte	.LFB99
 2119 003c C0000000 		.4byte	.LFE99
 2120 0040 00000000 		.4byte	.LFB100
 2121 0044 FE000000 		.4byte	.LFE100
 2122 0048 00000000 		.4byte	0
 2123 004c 00000000 		.4byte	0
 2124              		.section	.debug_line,"",%progbits
 2125              	.Ldebug_line0:
 2126 0000 89010000 		.section	.debug_str,"MS",%progbits,1
 2126      0200E700 
 2126      00000201 
 2126      FB0E0D00 
 2126      01010101 
 2127              	.LASF46:
 2128 0000 50434461 		.ascii	"PCData\000"
 2128      746100
 2129              	.LASF65:
 2130 0007 5F70616C 		.ascii	"_pal_lld_setgroupmode\000"
 2130      5F6C6C64 
 2130      5F736574 
 2130      67726F75 
 2130      706D6F64 
 2131              	.LASF60:
 2132 001d 474E5520 		.ascii	"GNU C 4.8.2 -mcpu=cortex-m0 -mno-thumb-interwork -m"
 2132      4320342E 
 2132      382E3220 
 2132      2D6D6370 
 2132      753D636F 
 2133 0050 7468756D 		.ascii	"thumb -ggdb -O2 -fomit-frame-pointer -falign-functi"
 2133      62202D67 
 2133      67646220 
 2133      2D4F3220 
 2133      2D666F6D 
 2134 0083 6F6E733D 		.ascii	"ons=16 -ffunction-sections -fdata-sections -fno-com"
 2134      3136202D 
 2134      6666756E 
 2134      6374696F 
 2134      6E2D7365 
 2135 00b6 6D6F6E20 		.ascii	"mon -flto\000"
 2135      2D666C74 
 2135      6F00
 2136              	.LASF16:
 2137 00c0 41504231 		.ascii	"APB1RSTR\000"
 2137      52535452 
 2137      00
 2138              	.LASF64:
 2139 00c9 5F70616C 		.ascii	"_pal_lld_init\000"
 2139      5F6C6C64 
 2139      5F696E69 
 2139      7400
ARM GAS  /tmp/ccy76ghP.s 			page 59


 2140              	.LASF43:
 2141 00d7 73746D33 		.ascii	"stm32_gpio_setup_t\000"
 2141      325F6770 
 2141      696F5F73 
 2141      65747570 
 2141      5F7400
 2142              	.LASF48:
 2143 00ea 50464461 		.ascii	"PFData\000"
 2143      746100
 2144              	.LASF63:
 2145 00f1 696E6974 		.ascii	"initgpio\000"
 2145      6770696F 
 2145      00
 2146              	.LASF3:
 2147 00fa 73686F72 		.ascii	"short int\000"
 2147      7420696E 
 2147      7400
 2148              	.LASF36:
 2149 0104 73746D33 		.ascii	"stm32_gpio_t\000"
 2149      325F6770 
 2149      696F5F74 
 2149      00
 2150              	.LASF13:
 2151 0111 73697A65 		.ascii	"sizetype\000"
 2151      74797065 
 2151      00
 2152              	.LASF20:
 2153 011a 42444352 		.ascii	"BDCR\000"
 2153      00
 2154              	.LASF53:
 2155 011f 6770696F 		.ascii	"gpiop\000"
 2155      7000
 2156              	.LASF7:
 2157 0125 5F5F7569 		.ascii	"__uint32_t\000"
 2157      6E743332 
 2157      5F7400
 2158              	.LASF57:
 2159 0130 6D6F6465 		.ascii	"mode\000"
 2159      00
 2160              	.LASF6:
 2161 0135 5F5F7569 		.ascii	"__uint16_t\000"
 2161      6E743136 
 2161      5F7400
 2162              	.LASF54:
 2163 0140 636F6E66 		.ascii	"config\000"
 2163      696700
 2164              	.LASF14:
 2165 0147 43464752 		.ascii	"CFGR\000"
 2165      00
 2166              	.LASF38:
 2167 014c 6F747970 		.ascii	"otyper\000"
 2167      657200
 2168              	.LASF19:
 2169 0153 41504231 		.ascii	"APB1ENR\000"
 2169      454E5200 
 2170              	.LASF29:
 2171 015b 4F545950 		.ascii	"OTYPER\000"
ARM GAS  /tmp/ccy76ghP.s 			page 60


 2171      455200
 2172              	.LASF1:
 2173 0162 7369676E 		.ascii	"signed char\000"
 2173      65642063 
 2173      68617200 
 2174              	.LASF61:
 2175 016e 2E2E2F2E 		.ascii	"../../../os/hal/ports/STM32/LLD/GPIOv2/hal_pal_lld."
 2175      2E2F2E2E 
 2175      2F6F732F 
 2175      68616C2F 
 2175      706F7274 
 2176 01a1 6300     		.ascii	"c\000"
 2177              	.LASF44:
 2178 01a3 50414461 		.ascii	"PAData\000"
 2178      746100
 2179              	.LASF9:
 2180 01aa 6C6F6E67 		.ascii	"long long int\000"
 2180      206C6F6E 
 2180      6720696E 
 2180      7400
 2181              	.LASF31:
 2182 01b8 50555044 		.ascii	"PUPDR\000"
 2182      5200
 2183              	.LASF39:
 2184 01be 6F737065 		.ascii	"ospeedr\000"
 2184      65647200 
 2185              	.LASF5:
 2186 01c6 6C6F6E67 		.ascii	"long int\000"
 2186      20696E74 
 2186      00
 2187              	.LASF47:
 2188 01cf 50444461 		.ascii	"PDData\000"
 2188      746100
 2189              	.LASF24:
 2190 01d6 5243435F 		.ascii	"RCC_TypeDef\000"
 2190      54797065 
 2190      44656600 
 2191              	.LASF32:
 2192 01e2 42535252 		.ascii	"BSRR\000"
 2192      00
 2193              	.LASF17:
 2194 01e7 41484245 		.ascii	"AHBENR\000"
 2194      4E5200
 2195              	.LASF28:
 2196 01ee 4D4F4445 		.ascii	"MODER\000"
 2196      5200
 2197              	.LASF15:
 2198 01f4 41504232 		.ascii	"APB2RSTR\000"
 2198      52535452 
 2198      00
 2199              	.LASF27:
 2200 01fd 636C6561 		.ascii	"clear\000"
 2200      7200
 2201              	.LASF52:
 2202 0203 696F706F 		.ascii	"ioportid_t\000"
 2202      72746964 
 2202      5F7400
ARM GAS  /tmp/ccy76ghP.s 			page 61


 2203              	.LASF2:
 2204 020e 756E7369 		.ascii	"unsigned char\000"
 2204      676E6564 
 2204      20636861 
 2204      7200
 2205              	.LASF18:
 2206 021c 41504232 		.ascii	"APB2ENR\000"
 2206      454E5200 
 2207              	.LASF10:
 2208 0224 6C6F6E67 		.ascii	"long long unsigned int\000"
 2208      206C6F6E 
 2208      6720756E 
 2208      7369676E 
 2208      65642069 
 2209              	.LASF12:
 2210 023b 75696E74 		.ascii	"uint32_t\000"
 2210      33325F74 
 2210      00
 2211              	.LASF0:
 2212 0244 756E7369 		.ascii	"unsigned int\000"
 2212      676E6564 
 2212      20696E74 
 2212      00
 2213              	.LASF22:
 2214 0251 43464752 		.ascii	"CFGR2\000"
 2214      3200
 2215              	.LASF23:
 2216 0257 43464752 		.ascii	"CFGR3\000"
 2216      3300
 2217              	.LASF51:
 2218 025d 696F6D6F 		.ascii	"iomode_t\000"
 2218      64655F74 
 2218      00
 2219              	.LASF35:
 2220 0266 41465248 		.ascii	"AFRH\000"
 2220      00
 2221              	.LASF34:
 2222 026b 4146524C 		.ascii	"AFRL\000"
 2222      00
 2223              	.LASF4:
 2224 0270 73686F72 		.ascii	"short unsigned int\000"
 2224      7420756E 
 2224      7369676E 
 2224      65642069 
 2224      6E7400
 2225              	.LASF50:
 2226 0283 696F706F 		.ascii	"ioportmask_t\000"
 2226      72746D61 
 2226      736B5F74 
 2226      00
 2227              	.LASF25:
 2228 0290 63686172 		.ascii	"char\000"
 2228      00
 2229              	.LASF11:
 2230 0295 75696E74 		.ascii	"uint16_t\000"
 2230      31365F74 
 2230      00
ARM GAS  /tmp/ccy76ghP.s 			page 62


 2231              	.LASF49:
 2232 029e 50414C43 		.ascii	"PALConfig\000"
 2232      6F6E6669 
 2232      6700
 2233              	.LASF45:
 2234 02a8 50424461 		.ascii	"PBData\000"
 2234      746100
 2235              	.LASF26:
 2236 02af 5F426F6F 		.ascii	"_Bool\000"
 2236      6C00
 2237              	.LASF55:
 2238 02b5 706F7274 		.ascii	"port\000"
 2238      00
 2239              	.LASF58:
 2240 02ba 616C7472 		.ascii	"altr\000"
 2240      00
 2241              	.LASF30:
 2242 02bf 4F535045 		.ascii	"OSPEEDR\000"
 2242      45445200 
 2243              	.LASF8:
 2244 02c7 6C6F6E67 		.ascii	"long unsigned int\000"
 2244      20756E73 
 2244      69676E65 
 2244      6420696E 
 2244      7400
 2245              	.LASF56:
 2246 02d9 6D61736B 		.ascii	"mask\000"
 2246      00
 2247              	.LASF40:
 2248 02de 70757064 		.ascii	"pupdr\000"
 2248      7200
 2249              	.LASF42:
 2250 02e4 61667268 		.ascii	"afrh\000"
 2250      00
 2251              	.LASF21:
 2252 02e9 41484252 		.ascii	"AHBRSTR\000"
 2252      53545200 
 2253              	.LASF41:
 2254 02f1 6166726C 		.ascii	"afrl\000"
 2254      00
 2255              	.LASF37:
 2256 02f6 6D6F6465 		.ascii	"moder\000"
 2256      7200
 2257              	.LASF62:
 2258 02fc 2F686F6D 		.ascii	"/home/awygle/ChibiOS-RT/demos/STM32/NIL-STM32F051-D"
 2258      652F6177 
 2258      79676C65 
 2258      2F436869 
 2258      62694F53 
 2259 032f 4953434F 		.ascii	"ISCOVERY\000"
 2259      56455259 
 2259      00
 2260              	.LASF59:
 2261 0338 616C7472 		.ascii	"altrmask\000"
 2261      6D61736B 
 2261      00
 2262              	.LASF33:
ARM GAS  /tmp/ccy76ghP.s 			page 63


 2263 0341 4C434B52 		.ascii	"LCKR\000"
 2263      00
 2264              		.comm	__gnu_lto_v1,1,1
 2265              		.ident	"GCC: (4.8.2-14ubuntu1+6) 4.8.2"
ARM GAS  /tmp/ccy76ghP.s 			page 64


DEFINED SYMBOLS
                            *ABS*:0000000000000000 hal_pal_lld.c
     /tmp/ccy76ghP.s:345    .text._pal_lld_init:0000000000000000 $t
     /tmp/ccy76ghP.s:351    .text._pal_lld_init:0000000000000000 _pal_lld_init
     /tmp/ccy76ghP.s:515    .text._pal_lld_init:00000000000000ac $d
     /tmp/ccy76ghP.s:524    .text._pal_lld_setgroupmode:0000000000000000 $t
     /tmp/ccy76ghP.s:530    .text._pal_lld_setgroupmode:0000000000000000 _pal_lld_setgroupmode
                            *COM*:0000000000000001 __gnu_lto_v1
                     .debug_frame:0000000000000010 $d

NO UNDEFINED SYMBOLS
