ARM GAS  /tmp/ccfh9BXD.s 			page 1


   1              		.cpu cortex-m0
   2              		.fpu softvfp
   3              		.eabi_attribute 20, 1
   4              		.eabi_attribute 21, 1
   5              		.eabi_attribute 23, 3
   6              		.eabi_attribute 24, 1
   7              		.eabi_attribute 25, 1
   8              		.eabi_attribute 26, 1
   9              		.eabi_attribute 30, 2
  10              		.eabi_attribute 34, 0
  11              		.eabi_attribute 18, 4
  12              		.code	16
  13              		.file	"hal_lld.c"
  14              		.text
  15              	.Ltext0:
  16              		.section	.gnu.lto_.jmpfuncs.8b6961f164e63a8f,"",%progbits
  17 0000 789C6362 		.ascii	"x\234cb`b\300\0068\24143\003\003#\003H\015\000\001\211"
  17      6062C006 
  17      38A13433 
  17      03032303 
  17      480D0001 
  18 0015 0014     		.ascii	"\000\024"
  19              		.text
  20              		.section	.gnu.lto_.inline.8b6961f164e63a8f,"",%progbits
  21 0000 789C6362 		.ascii	"x\234cb`b\300\006\\\24043\003\203\230\020#\003\223\332"
  21      6062C006 
  21      5CA03433 
  21      03839810 
  21      230393DA 
  22 0014 89DF8C0C 		.ascii	"\211\337\214\014l\013\344\301\252\031\031\004%\201b"
  22      6C0BE4C1 
  22      AA191904 
  22      258162
  23 0023 52134E23 		.ascii	"R\023N#\211q\001\011&\006\2535L@\231\274\206\325*p\031"
  23      89710109 
  23      2606AB35 
  23      4C4099BC 
  23      86D52A70 
  24 0038 06004564 		.ascii	"\006\000Ed\011\017"
  24      090F
  25              		.text
  26              		.section	.gnu.lto_.pureconst.8b6961f164e63a8f,"",%progbits
  27 0000 789C6362 		.ascii	"x\234cb`b`g\200\000f\006)F)&)\000\001\313\000`"
  27      60626067 
  27      80006606 
  27      29462926 
  27      290001CB 
  28              		.text
  29              		.section	.gnu.lto_hal_lld_backup_domain_init.8b6961f164e63a8f,"",%progbits
  30 0000 789CA592 		.ascii	"x\234\245\222\277K#A\024\307\337\233\235\331\004M4A"
  30      BF4B2341 
  30      14C7DF9B 
  30      9DD9044D 
  30      3441
  31 0012 6C55B03C 		.ascii	"lU\260<\310\372\243\361/\020D\254L@+\361\007h\270\200"
  31      C8FAA3F1 
  31      2F1044AC 
ARM GAS  /tmp/ccfh9BXD.s 			page 2


  31      4C402BF1 
  31      0768B880 
  32 0026 A257D839 		.ascii	"\242W\3309\213),-\217\263\211m\012m\375U\210X\330(\010"
  32      8B292C2D 
  32      8FB3896D 
  32      0A6DFD55 
  32      8858D828 
  33 003b 16414483 		.ascii	"\026AD\203\215\242\026\226\012\202\2767\223\335\015"
  33      8DA21696 
  33      0A82BE37 
  33      93DD0D
  34 004a C2897719 		.ascii	"\302\211w\031v\277\273\373\336\316g\276\363\336\010"
  34      76BFBBFB 
  34      DECE67BE 
  34      F3DE08
  35 0059 10F0790C 		.ascii	"\020\360y\014\323\375\346\000\364\321\023c\200b\375"
  35      D3FDE600 
  35      F4D11363 
  35      8062FD
  36 0068 0CC08F0B 		.ascii	"\014\300\217\013\341\224\006@7\311\347v\320\011\007"
  36      E1940640 
  36      37C9E776 
  36      D00907
  37 0077 A50D4BA1 		.ascii	"\245\015K\241.<\012\273\007\035\024V\350\332\260\213"
  37      2E3C0ABB 
  37      071D1456 
  37      E8DAB08B 
  38 0087 C82F80B0 		.ascii	"\310/\200\260\"\034\251\\\\\031GC\337\026\207\325\367"
  38      221CA95C 
  38      5C194743 
  38      DF1687D5 
  38      F7
  39 0098 F7ADABD7 		.ascii	"\367\255\253\327\333=L\267I\310#(\226\030K\234\245\231"
  39      DB3D4CB7 
  39      49C82328 
  39      96184B9C 
  39      A599
  40 00aa 25C19264 		.ascii	"%\301\222diaI\261\244Yh((j\275\336\0050m>\263\244\274"
  40      696149B1 
  40      A4596828 
  40      286ABDDE 
  40      05306D3E 
  41 00c1 560E053F 		.ascii	"V\016\005?\235S8\272\334\271NN\342&*\230E\371\003\312"
  41      9D5338BA 
  41      DCB94E4E 
  41      E2262A98 
  41      45F903CA 
  42 00d5 BAE8A7F2 		.ascii	"\272\350\247\362\210\033\360\007\363(\306H\034]\365"
  42      881BF007 
  42      F328C648 
  42      1C5DF5
  43 00e4 B504F36A 		.ascii	"\265\004\363j|Ma\260\377SX\335u\202\331\212\000\374"
  43      7C4D61B0 
  43      FF5358DD 
  43      7582D98A 
  43      00FC
  44 00f6 13686152 		.ascii	"\023haRGC6\363oP\342\230\311\227k\235\0018f\010\030"
ARM GAS  /tmp/ccfh9BXD.s 			page 3


  44      474336F3 
  44      6F50E298 
  44      C9976B9D 
  44      01386608 
  45 010b 02CC2A4A 		.ascii	"\002\314*J\227\326j\000U\003`\344j\177\265\214\301\364"
  45      97D66A00 
  45      550360E4 
  45      6A7FB58C 
  45      C1F4
  46 011d 3811AC2F 		.ascii	"8\021\254/\227\222'P|\362\303\035\307mB\326\3654G\206"
  46      97922750 
  46      7CF2C31D 
  46      C76D42D6 
  46      F5344786 
  47 0131 4A035C9A 		.ascii	"J\003\\\232\235\312Mk\375\026t\3577-X\250\2412\346\245"
  47      9DCA4D6B 
  47      FD1674EF 
  47      372D58A8 
  47      A132E6A5 
  48 0145 010C46B6 		.ascii	"\001\014F\266d\330\262\312C%\334]sc\305I\020\241fW\230"
  48      64D8B2CA 
  48      4325DC5D 
  48      7363C549 
  48      10A16657 
  49 015a EA1CDF45 		.ascii	"\352\034\337E\325I\230L\375\310Q\374\3023&~?\276\204"
  49      D549984C 
  49      FDC851FC 
  49      C233267E 
  49      3FBE84
  50 016d 94E4E71E 		.ascii	"\224\344\347\036\177\303EtpZ\010\020\365\341\357\007"
  50      7FC34574 
  50      705A0810 
  50      F5E1EF07 
  51 017d E76B2871 		.ascii	"\347k(q\354\301\271\377\031\200S\015\331J\023\240\256"
  51      ECC1B9FF 
  51      1980530D 
  51      D94A13A0 
  51      AE
  52 018e 34FFEF2B 		.ascii	"4\377\357+\035\324\3165\035<\007\277\272\327mQ\301\310"
  52      1DD4CE35 
  52      1D3C07BF 
  52      BAD76D51 
  52      C1C8
  53 01a0 D2CF94E3 		.ascii	"\322\317\224\343uz2\031\317^\363K\336\334d\301[\230"
  53      757A3219 
  53      CF5EF34B 
  53      DEDC64C1 
  53      5B98
  54 01b2 5FFCB5E4 		.ascii	"_\374\265\344\215fG\372\373\254\016\366,/sf\242P\230"
  54      8D6647FA 
  54      FBAC0EF6 
  54      2C2F7366 
  54      A25098
  55 01c5 C94CC307 		.ascii	"\311L\303\007\035\033\357\230"
  55      1D1BEF98 
  56              		.text
  57              		.section	.gnu.lto_hal_lld_init.8b6961f164e63a8f,"",%progbits
ARM GAS  /tmp/ccfh9BXD.s 			page 4


  58 0000 789CAD93 		.ascii	"x\234\255\223=H\002a\030\307\237\347\275\273\322P4\232"
  58      3D480261 
  58      18C79FE7 
  58      BDBBD250 
  58      349A
  59 0012 DCC4A521 		.ascii	"\334\304\245!\360,\227Z\032\203\206\246\014j\0123(A"
  59      F02C975A 
  59      1A8386A6 
  59      0C6A0A33 
  59      2841
  60 0024 30324268 		.ascii	"02Bh\3605\035$\034\244\251\217E\211(Z\232\333\244\275"
  60      F0351D24 
  60      1CA4A98F 
  60      4589285A 
  60      9ADBA4BD 
  61 0038 A4D5960B 		.ascii	"\244\325\226\013jt1\210\012\352z\336\3730J!\225\036"
  61      6A743188 
  61      0AEA7ADE 
  61      FB304A21 
  61      951E
  62 004a EE9EE73E 		.ascii	"\356\236\347>\336\377\377\376?^\216\001\203\337\345"
  62      DEFFFFFE 
  62      3F5E8E01 
  62      83DFE5
  63 0059 A3735806 		.ascii	"\243sX\006\230\246\211\022 +\335\002d\035\014Q\\\000"
  63      98A68912 
  63      202BDD02 
  63      641D0C51 
  63      5C00
  64 006b 42866166 		.ascii	"B\206af\011\305R\026\200\012\347\373\332S\363\320\267"
  64      09C55216 
  64      800AE7FB 
  64      DA53F3D0 
  64      B7
  65 007c 57DE2DF1 		.ascii	"W\336-\361O]\3078\222i\030!\206\260H7\3507\006\223\177"
  65      4F5DC738 
  65      92691821 
  65      86B04837 
  65      E8370693 
  66 0091 7EC55456 		.ascii	"~\305TV\017j\305\241R\266\300u=c\350\246\376\322]\262"
  66      0F6AC5A1 
  66      52B6C075 
  66      3D63E8A6 
  66      FED25DB2 
  67 00a5 AAA6EBC5 		.ascii	"\252\246\353\305\267\307\207\006\216x\031D\261\202\001"
  67      B7C78706 
  67      8E781944 
  67      B18201
  68 00b4 50689ED0 		.ascii	"Ph\236\320t\000\2718Es\211\346\026\215J\201<\347%?\010"
  68      7400B938 
  68      457389E6 
  68      168D4A81 
  68      3CE7253F 
  69 00c9 6FAA0875 		.ascii	"o\252\010u\301\262\200LL\351\006\256\353\257M_\024O"
  69      C1B2804C 
  69      4CE906AE 
  69      EBAF4D5F 
ARM GAS  /tmp/ccfh9BXD.s 			page 5


  69      144F
  70 00db 51813564 		.ascii	"Q\2015dcp\301\363Yo\034\245c8\242\014\262\010\242\360"
  70      6370C1F3 
  70      596F1CA5 
  70      6338A20C 
  70      B208A2F0 
  71 00ef 7281CB46 		.ascii	"r\201\313F&\305H\262\202v&\322O\232\342\336\224\342"
  71      26C548B2 
  71      827626D2 
  71      4F9AE2DE 
  71      94E2
  72 0101 09E8549E 		.ascii	"\011\350T\236v\023\354\301C\262B\324\013\317hC(\335"
  72      7613ECC1 
  72      43B242D4 
  72      0BCF6843 
  72      28DD
  73 0113 46C1BE21 		.ascii	"F\301\276!\360\037 \260\035\342\374\033\302\321m\024"
  73      F01F20B0 
  73      1DE2FC1B 
  73      C2D16D14 
  74 0123 D682C85D 		.ascii	"\326\202\310]I\266\332I\006v\272\017+\335lo\210\246"
  74      49B6DA49 
  74      0676BA0F 
  74      2BDD6C6F 
  74      88A6
  75 0135 2F59F581 		.ascii	"/Y\365\201\306:\354\317K\013\315\325m\004\251\023\232"
  75      C63AECCF 
  75      4B0BCDD5 
  75      6D04A913 
  75      9A
  76 0146 9B0C0C34 		.ascii	"\233\014\0144N\205}\241I\026\232\033\240\0069\355\376"
  76      4E857DA1 
  76      49169A1B 
  76      A00639ED 
  76      FE
  77 0157 CC63EA01 		.ascii	"\314c\352\001v\340\235\02789\014\304\254\375\211\343"
  77      76E09D17 
  77      38390CC4 
  77      ACFD89E3 
  78 0167 20C01D64 		.ascii	" \300\035d\265\306\250\275\310\254\010-\240?H\240\206"
  78      B5C6A8BD 
  78      C8AC082D 
  78      A03F48A0 
  78      86
  79 0178 8241D53C 		.ascii	"\202A\325<\222)u=\232P7\222\233[)u>2\027\2360\373L("
  79      9229753D 
  79      9A503792 
  79      9B5B2975 
  79      3E32179E 
  80 0190 9D166F96 		.ascii	"\235\026o\226\023\211\325`\014\224\355d\"\0302\372\370"
  80      1389D560 
  80      0C94ED64 
  80      221832FA 
  80      F8
  81 01a1 17D41FF7 		.ascii	"\027\324\037\367\021"
  81      11
  82              		.text
ARM GAS  /tmp/ccfh9BXD.s 			page 6


  83              		.section	.gnu.lto_stm32_clock_init.8b6961f164e63a8f,"",%progbits
  84 0000 789CA556 		.ascii	"x\234\245V\317K\033A\030\235o6\233\335$\233l~\031E\017"
  84      CF4B1B41 
  84      189D6F36 
  84      9BDD249B 
  84      6C7E1945 
  85 0015 06455143 		.ascii	"\006EQC\215\325\277 \227B\017=U\241=\025k\301\012\202"
  85      8DD5BF20 
  85      97420F3D 
  85      55A13D15 
  85      6BC10A82 
  86 0029 A5F6E0CD 		.ascii	"\245\366\340\315\015\346\320C\017\036C\013\305\266`"
  86      0DE6D043 
  86      0F1E430B 
  86      C5B660
  87 0038 41680B1E 		.ascii	"Ah\013\036J\252\320\212\024\332\213-\275\205\320\203"
  87      4AAAD08A 
  87      14DA8B2D 
  87      BD85D083 
  88 0048 D883C5F6 		.ascii	"\330\203\305\366\344\311\026!\235ofw'\325\010\233l\320"
  88      E4C91621 
  88      9D6F6677 
  88      27D5089B 
  88      6CD0
  89 005a B7C9BCCC 		.ascii	"\267\311\274\314\333o\336\367f'\224Pr\366\365\213\375"
  89      DB6FDEF7 
  89      66279450 
  89      72F6F58B 
  89      FD
  90 006b 6722848C 		.ascii	"g\"\204\214\263+t\020\240\253_\010)\352\024\024\361"
  90      B32B7410 
  90      A0AB5F08 
  90      29EA1414 
  90      F1
  91 007c 46A1E947 		.ascii	"F\241\351G\237\010\261\302\201\222F,#-\306\013\001P"
  91      9F08B1C2 
  91      8192462C 
  91      232DC60B 
  91      0150
  92 008e 05AFD294 		.ascii	"\005\257\322\224\340\203\234O\211\361B\0204\301k4)x"
  92      E0839C4F 
  92      89F14210 
  92      34C16B34 
  92      2978
  93 00a0 9DF34931 		.ascii	"\235\363I1^\320!$\370\020M\010>\314\371\204\030/\204"
  93      5ED02124 
  93      F8104D08 
  93      3ECCF984 
  93      182F84
  94 00b3 2122F808 		.ascii	"!\"\370\010\215\013\336\340|\\\214\027\014\210\012>"
  94      8D0BDEE0 
  94      7C5C8C17 
  94      0C880A3E 
  95 00c3 4A4DC1C7 		.ascii	"JM\301\3078o\212\361B\014\000\257\004\3102U\322\001"
  95      386F8AF1 
  95      420C00AF 
  95      04C83255 
ARM GAS  /tmp/ccfh9BXD.s 			page 7


  95      D201
  96 00d5 3515D492 		.ascii	"5\025\324\222z(\021\216\304\215\250\031\203\345\233"
  96      7A28118E 
  96      C48DA819 
  96      83E59B
  97 00e4 C057FF86 		.ascii	"\300W\377\206\356\354\327\353\257O\277>\375\0165z\211"
  97      EEECD7EB 
  97      AF4FBF3E 
  97      FD0E357A 
  97      89
  98 00f5 9239200A 		.ascii	"\2229 \012\202\212\020D\320\020t\2040\202\201\020E\210"
  98      828A1044 
  98      D0107484 
  98      30828110 
  98      4588
  99 0107 21980849 		.ascii	"!\230\010I\204\024B\007B\006\241\023\241\013\241\033"
  99      84144207 
  99      4206A113 
  99      A10BA11B 
 100 0117 A107A117 		.ascii	"\241\007\241\027!\213\320\207\320\2170\2000\2100\204"
 100      218BD087 
 100      D08F3080 
 100      30883084 
 101 0127 308C3082 		.ascii	"0\2140\202\220C`/\225\224,k5K\310\014\3778\311\220\255"
 101      9043602F 
 101      95942C6B 
 101      354BC80C 
 101      FF38C990 
 102 013c 740A28BB 		.ascii	"t\012(\273({d\267v\362\274\006\323\360\014T2\0134G6"
 102      287B64B7 
 102      76F2BC06 
 102      D3F00C54 
 102      320B3447 
 103 0151 AC52313E 		.ascii	"\254R1>\007\360\204<\2069\2407\030(\326\332C+@\370["
 103      07F0843C 
 103      8639A037 
 103      1828D6DA 
 103      432B40F8 
 104 0166 BEECDBE0 		.ascii	"\276\354\333\340\264\177\217\254\274S\234\331\312\254"
 104      B47F8FAC 
 104      BC539CD9 
 104      CAAC
 105 0174 F83E01CE 		.ascii	"\370>\001\316\354^\025Dk\232\263\366gV\242BX\017x\215"
 105      EC5E1544 
 105      6B9AB3F6 
 105      6756A242 
 105      580F788D 
 106 0188 E5177FDD 		.ascii	"\345\027\177\335\032U\256\007\255\224\270\275\262\351"
 106      1A55AE07 
 106      AD94B8BD 
 106      B2E9
 107 0196 4E0F3205 		.ascii	"N\0172\005^$f\3713\371xX\234p)>\336\370\232\2044a\361"
 107      5E2466F9 
 107      33F97858 
 107      9C70293E 
 107      DEF89A84 
 108 01ad 80290838 		.ascii	"\200)\0108vU\327\217\\-\315\353\322\240\241\026\327"
ARM GAS  /tmp/ccfh9BXD.s 			page 8


 108      7655D78F 
 108      5C2DCDEB 
 108      D2A0A116 
 108      D7
 109 01be 2E9D09F0 		.ascii	".\235\011\360;\236\326\353u\263-\313\300\266L\347\223"
 109      3B9ED6EB 
 109      75B32DCB 
 109      C0B64CE7 
 109      93
 110 01cf 6B3FD7A9 		.ascii	"k?\327\251#\036n\275\264vo\036v\372\245\312~\275<vM"
 110      231E6EBD 
 110      B4766F1E 
 110      76FAA5CA 
 110      7EBD3C76 
 111 01e4 323CF6AB 		.ascii	"2<\366\253\321\243\225\267\356\364(S\340.\031\274_\245"
 111      D1A395B7 
 111      EEF42853 
 111      E02E19BC 
 111      5FA5
 112 01f6 DFB25FD1 		.ascii	"\337\262_\321&\375J\331\375\012:\375*o\310x\307\332"
 112      26FD4AD9 
 112      FD0A3AFD 
 112      2A6FC878 
 112      C7DA
 113 0208 88B7EC97 		.ascii	"\210\267\354\227\311\004\370\035\377\370\313\267\311"
 113      C904F81D 
 113      FFF8CBB7 
 113      C9
 114 0215 27572A1B 		.ascii	"'W*\033N\220\204\200\025\365h\021\216\200\335\262Zu"
 114      4E908480 
 114      15F56811 
 114      8E80DDB2 
 114      5A75
 115 0227 F3C05D5E 		.ascii	"\363\300]^\322k%T.O\356\336\024\023\360\261{\251\275"
 115      D26B2554 
 115      2E4FEEDE 
 115      1413F0B1 
 115      7BA9BD
 116 023a BA949306 		.ascii	"\272\224\223\006\315M\303\311\246\334\275\035\036\323"
 116      CD4DC3C9 
 116      A6DCBD1D 
 116      1ED3
 117 0248 D0506263 		.ascii	"\320Pbc\0322L\341\202\335\233i\222\206\244\235\006\335"
 117      1A324CE1 
 117      82DD9B69 
 117      9286A49D 
 117      06DD
 118 025a 4DC396B4 		.ascii	"M\303\226\264\253\323\353\322\224fvu1\001\037v)\266"
 118      ABD3EBD2 
 118      94667675 
 118      31011F76 
 118      29B6
 119 026c 5D5D8E5D 		.ascii	"]]\216]!\327\256\312\226\334<\335\036\355j(\261\361"
 119      21D7AECA 
 119      96DC3CDD 
 119      1EED6A28 
 119      B1F1
ARM GAS  /tmp/ccfh9BXD.s 			page 9


 120 027e 61D7C314 		.ascii	"a\327\303\024.\260\253\247\211]\011\333\256\260mW\245"
 120      2EB0ABA7 
 120      895D09DB 
 120      AEB06D57 
 120      A5
 121 028f BA7DEC23 		.ascii	"\272}\354#\243\226\265f\233S)\277oY(p.\354\225\362\207"
 121      A396B566 
 121      9B5329BF 
 121      6F592870 
 121      2EEC95F2 
 122 02a4 9655D4F3 		.ascii	"\226U\324\363[\246r \237\340\275\276\016\274,\023\340"
 122      5BA67220 
 122      9FE0BDBE 
 122      0EBC2C13 
 122      E0
 123 02b5 365A96A5 		.ascii	"6Z\226\245\373z&d\235\030D\334\030T\017\344\256\351"
 123      FB7A2664 
 123      9D1844DC 
 123      18540FE4 
 123      AEE9
 124 02c7 F377E6F5 		.ascii	"\363w\346\3653\005\247\316\370\271$\3647IB\334N\202"
 124      3305A7CE 
 124      F8B924F4 
 124      374942DC 
 124      4E82
 125 02d9 E124E1E4 		.ascii	"\341$\341\344\307\031\353/\273\305\004p\276j\3558\305"
 125      C719EB2F 
 125      BBC50470 
 125      BE6AED38 
 125      C5
 126 02ea A8763141 		.ascii	"\250v1Ai}\302\266\276|(\255\037h\343\360\224\326\017"
 126      697DC2B6 
 126      BE7C28AD 
 126      1F68E3F0 
 126      94D60F
 127 02fd 320137D9 		.ascii	"2\0017\331\355\237]\203\216\357Q\271\375\016\345\366"
 127      ED9F5D83 
 127      8EEF51B9 
 127      FD0EE5F6 
 128 030d 1BF27776 		.ascii	"\033\362wv\0153\205\013\316\256a>\256\377g\272i\233"
 128      0D33850B 
 128      CEAE613E 
 128      AEFF67BA 
 128      699B
 129 031f 1E737F9A 		.ascii	"\036s\177\232\035u;\337\037\361\2722\255\231[9&\340"
 129      1D753BDF 
 129      1FF1BA32 
 129      AD995B39 
 129      26E0
 130 0331 E361A5D9 		.ascii	"\343a\245\331n\345\010\371F\212\373\257rb\272\254\034"
 130      6EE508F9 
 130      468AFBAF 
 130      7262BAAC 
 130      1C
 131 0342 58C5D888 		.ascii	"X\305\330\210\261\321\321\274\370[X\314\337\235\236"
 131      B1D1D1BC 
 131      F85B58CC 
ARM GAS  /tmp/ccfh9BXD.s 			page 10


 131      DF9D9E
 132 0351 CFDF5BB8 		.ascii	"\317\337[\270\377`1\177}\362\332\304\270\300+cKK\310"
 132      FF60317F 
 132      7DF2DAC4 
 132      B8C02B63 
 132      4B4BC8
 133 0364 DC9A9FBF 		.ascii	"\334\232\237\2773:C\376\001gJ\203\327"
 133      333A43FE 
 133      01674A83 
 133      D7
 134              		.text
 135              		.section	.gnu.lto_.symbol_nodes.8b6961f164e63a8f,"",%progbits
 136 0000 789C6362 		.ascii	"x\234cb`b\260c\200\002\246\307\014\365\014\014\023\316"
 136      6062B063 
 136      8002A6C7 
 136      0CF50C0C 
 136      13CE
 137 0012 3130D4D7 		.ascii	"10\324\327\317\355Hdz\302P\317\010\345\316\353`dz\312"
 137      CFED4864 
 137      7AC250CF 
 137      08E5CEEB 
 137      60647ACA 
 138 0026 50CF84E0 		.ascii	"P\317\204\340\262>b``\255g`fd`X\324\376F\236\001\000"
 138      B23E6260 
 138      60AD6760 
 138      66646058 
 138      D4FE469E 
 139 003c 78671300 		.ascii	"xg\023\000"
 140              		.text
 141              		.section	.gnu.lto_.refs.8b6961f164e63a8f,"",%progbits
 142 0000 789C6362 		.ascii	"x\234cb`b`d\200\002\000\000F\000\006"
 142      60626064 
 142      80020000 
 142      460006
 143              		.text
 144              		.section	.gnu.lto_.decls.8b6961f164e63a8f,"",%progbits
 145 0000 789C9D96 		.ascii	"x\234\235\226\177lSU\024\307\357}\255\254uu#$,j\242"
 145      7F6C5355 
 145      14C7EF7D 
 145      ADAC7575 
 145      23242C6A 
 146 0015 2B46D410 		.ascii	"+F\324\020m\367#$\363\037d{\333\030Q`y\335\004\377j"
 146      6DF72324 
 146      F31F647B 
 146      DB185160 
 146      79DD04FF 
 147 002a DEDA2E6B 		.ascii	"\336\332.k\350\217e}\213\343\277\347f\224\360\207v\013"
 147      E88F657D 
 147      8BE3BFE7 
 147      6694F087 
 147      760B
 148 003c 1063103B 		.ascii	"\020c\020;\304\351\214\0222e\376\030\2622,Y\220\000"
 148      C4E98C12 
 148      3265FE18 
 148      B2322C59 
 148      9000
 149 004e 7664954D 		.ascii	"vd\225M\262.L\242\206(d\342\214,\326\363n\337[\357\253"
ARM GAS  /tmp/ccfh9BXD.s 			page 11


 149      B22E4CA2 
 149      862864E2 
 149      8C2CD6F3 
 149      6EDF5BEF 
 150 0063 7DDD2B37 		.ascii	"}\335+7;\347\335\336w\317\347~\357=\267\247c\020\203"
 150      3BE7DDDE 
 150      77CFE77E 
 150      EF3DB7A7 
 150      631083
 151 0076 9EC508A5 		.ascii	"\236\305\010\245\240\005K\020\232\206\276\021!\264\005"
 151      A0054B10 
 151      9A86BE11 
 151      21B405
 152 0085 659A016C 		.ascii	"e\232\001l\020l\010l\030\014\246\240O\221\272I\357\327"
 152      106C086C 
 152      180CA6A0 
 152      4F91BA49 
 152      EFD7
 153 0097 8015819D 		.ascii	"\200\025\201\235\002\033\005\033\007\213\202\315\201"
 153      021B051B 
 153      078B82CD 
 153      81
 154 00a4 31606360 		.ascii	"1`c`W\345\370A\364\377&\361M2\003\244 \213\314R\030"
 154      57E5F841 
 154      F4FF26F1 
 154      4D3203A4 
 154      208BCC52 
 155 00b9 49B06328 		.ascii	"I\260c(\255/\001v\021\354\002X\\\346\017ip\207\263\264"
 155      AD2F0176 
 155      11EC0258 
 155      5CE60F69 
 155      7087B3B4 
 156 00cd 29BC79B0 		.ascii	")\274y\260%y\315\030\330y\260\353`\323`\327\300f\301"
 156      2579CD18 
 156      D879B0EB 
 156      60D360D7 
 156      C066C1
 157 00e0 6E825D91 		.ascii	"n\202]\2215\017\347`\227\243\243b\364v26\373\326#b\244"
 157      350FE760 
 157      97A3A362 
 157      F4763236 
 157      FBD62362 
 158 00f5 379A4ABD 		.ascii	"7\232J\275\200\312\320!\021Z\344\015Q\304\002\217\267"
 158      80CAD021 
 158      115AE40D 
 158      51C4028F 
 158      B7
 159 0106 AC477B30 		.ascii	"\254G{0\217K\314\310J:\0263\331\000B<>\206\313\344^"
 159      8F4BCCC8 
 159      4A3A1633 
 159      D900423C 
 159      3E86CBE4 
 160 011b AB218D63 		.ascii	"\253!\215cP5F\233\3200\304\207Eq\342i\234cI\204\236"
 160      5035469B 
 160      D030C487 
 160      4571E269 
 160      9C634984 
ARM GAS  /tmp/ccfh9BXD.s 			page 12


 161 0130 421F4A2B 		.ascii	"B\037J+\210\037\213\006\302\227\010\203\270\234\236"
 161      881F8B06 
 161      C2970883 
 161      B89C9E
 162 013f C2E30F30 		.ascii	"\302\343\0170\223-4\222\214\366\277\375=\026\007\304"
 162      932D3492 
 162      8CF6BFFD 
 162      3D1607C4 
 163 014f E554CA20 		.ascii	"\345T\312 \013`P+\206\356q\274)/\177(\233\377QN\376"
 163      0B60502B 
 163      86EE71BC 
 163      292F7F28 
 163      9BFF514E 
 164 0164 F2654BF8 		.ascii	"\362eK\370\265d*U\256\300\333\364\300\207\263\341\237"
 164      B5642A55 
 164      AEC0DBF4 
 164      C087B3E1 
 164      9F
 165 0175 A8E14FA0 		.ascii	"\250\341O\240A12\021}\377\327II\274x;\225*5\243\375"
 165      41313211 
 165      7DFFD749 
 165      49BC783B 
 165      952A35A3 
 166 018a A2D82B9D 		.ascii	"\242\330+\235r\323$\\\226\\G\274\021\035\207cL&\336"
 166      72D3245C 
 166      965C47BC 
 166      111D8763 
 166      4C26DE
 167 019d 8C9DC5BD 		.ascii	"\214\235\305\275\220\014\036\177\206\315 \251\037\253"
 167      900C1E7F 
 167      86CD20A9 
 167      1FAB
 168 01ab 35E947DD 		.ascii	"5\351G\335=p\372yQ4\361\370$\001Mf\201x\\dV\357\003"
 168      3D70FA79 
 168      5134F1F8 
 168      24014D66 
 168      81785C64 
 169 01c2 3E2B1324 		.ascii	">+\023$\032y-w\244o\\)*t:\203\246V\026\325\272V\237"
 169      1A792D77 
 169      A46F5C29 
 169      2A743A83 
 169      A65616D5 
 170 01d9 C3E13D8E 		.ascii	"\303\341=\216n\340\367D\023\031\331#\357\\\374\361N"
 170      6EE0F744 
 170      1319D923 
 170      EF5CFCF1 
 170      4E
 171 01ea 99BCDBBE 		.ascii	"\231\274\333\276\274\273\345\361\011\274Q\227\234u\250"
 171      BCBBE5F1 
 171      09BC5197 
 171      9C75A8
 172 01f9 9FDCF5AD 		.ascii	"\237\334\365\255\024j\253\2022e\016n\361\362\322frp"
 172      146AAB82 
 172      32650E6E 
 172      F1F2D266 
 172      7270
 173 020b A3781DEC 		.ascii	"\243x\035\354a\204Q\037\334\252\030I\323\327\020\232"
ARM GAS  /tmp/ccfh9BXD.s 			page 13


 173      6184511F 
 173      DCAA1849 
 173      D3D7109A 
 174 021b 0E225031 		.ascii	"\016\"P1\232HXDcz\034e]2\252m@\021\361\365\276\350l"
 174      9A485844 
 174      637A1C65 
 174      5D32AA6D 
 174      4011F1F5 
 175 0232 E2207C43 		.ascii	"\342 |C'\000y\212\344\356\014\221 \305\346:\001\271"
 175      2700798A 
 175      E4EE0C91 
 175      20C5E63A 
 175      01B9
 176 0244 8B56CEAF 		.ascii	"\213V\316\257\304\234\305\373)a\011\363\012\354l\301"
 176      C49CC5FB 
 176      296109F3 
 176      0AEC6CC1 
 177 0254 306B2EA9 		.ascii	"0k.\251\3125\310\354\224\307\337\220L\214\341\015\340"
 177      CA35C8EC 
 177      94C7DF90 
 177      4C8CE10D 
 177      E0
 178 0265 BF05BFD2 		.ascii	"\277\005\277\322\212\321\201\314\255M\037\254\326\205"
 178      8AD181CC 
 178      AD4D1FAC 
 178      D685
 179 0273 18C7C54A 		.ascii	"\030\307\305J\224|\322V\352\240\243\006e~\315J\302\242"
 179      947CD256 
 179      EAA0A306 
 179      657ECD4A 
 179      C2A2
 180 0285 6333D8CA 		.ascii	"c3\330\312\343(\311V,w\266\264\031\322\232\347\262\263"
 180      E328C956 
 180      2C77B6B4 
 180      19D29AE7 
 180      B2B3
 181 0297 752F9DAD 		.ascii	"u/\235\255s\272\262\225Re\213\307\247\341J\247c\357"
 181      73BAB295 
 181      52658BC7 
 181      A7E14AA7 
 181      63EF
 182 02a9 2F5BE119 		.ascii	"/[\341\031*[?\220\375\024\002\263\252`\0034lZ\017\314"
 182      2A5B3F90 
 182      FD1402B3 
 182      AA600334 
 182      6C5A0FCC 
 183 02bd A4ADEC20 		.ascii	"\244\255\354 \015\233)\030\246Vv\230\206\335\320\003"
 183      0D9B2918 
 183      A6567698 
 183      86DDD003 
 184 02cd 5BABADEC 		.ascii	"[\253\255\354\035\032v\253`\230Z\331\2734lQ\017\354"
 184      1D1A76AB 
 184      60985AD9 
 184      BB346C51 
 184      0FEC
 185 02df 616D6547 		.ascii	"ameGh\330\275\202ajeGiX\237A\007\314\252\255\354d\006"
 185      68D8BD82 
ARM GAS  /tmp/ccfh9BXD.s 			page 14


 185      616A6547 
 185      69589F41 
 185      07CCAAAD 
 186 02f6 C6E3337A 		.ascii	"\306\3433z.\255U[\331\010\255l\277\036e\317h+\373\202"
 186      2EAD555B 
 186      D908AD6C 
 186      BF1E65CF 
 186      682BFB82 
 187 030a 86850B86 		.ascii	"\206\205\013\206\251\225\215\322\260\303z`\025\332\312"
 187      A9958DD2 
 187      B0C37A60 
 187      15DACA
 188 0319 BEA26147 		.ascii	"\276\242aG\012\206Y\221f\243\253\020\217\277#\2254F"
 188      0A865991 
 188      66A3AB10 
 188      8FBF2395 
 188      3446
 189 032b 2AE979E2 		.ascii	"*\351y\342'\211\277@\374E\342/\021\177\205\3708\361"
 189      2789BF40 
 189      FC45E22F 
 189      117F85F8 
 189      38F1
 190 033d 57899F26 		.ascii	"W\211\237&>A\3745\342g\211\277\236\247\"G\363T\344\271"
 190      3E41FC35 
 190      E26789BF 
 190      9EA72247 
 190      F354E4B9 
 191 0351 4C45CE8A 		.ascii	"LE\316\212\222\376k\322\212JB\024U9s\324\341\010\243"
 191      92FE6BD2 
 191      8A4A4214 
 191      553973D4 
 191      E108A3
 192 0364 C43C8956 		.ascii	"\304<\211Vj\371\241)\251\226\317\223Z\0361\254Z\313"
 192      6AF9A129 
 192      A996CF93 
 192      5A1E31AC 
 192      5ACB
 193 0376 D50C69DD 		.ascii	"\325\014i\335\205\354Z>\027'\265|AW-_\214\253\177yO"
 193      85EC5A3E 
 193      1727B57C 
 193      41572D5F 
 193      8CAB7F79 
 194 038b 10090BF7 		.ascii	"\020\011\013\367]\313\377\214S\367e\244`\230\372&\377"
 194      5DCBFF8C 
 194      53F765A4 
 194      6098FA26 
 194      FF
 195 039c 45C3BED4 		.ascii	"E\303\276\324\003\313S\313\377\246a\343\005\303\324"
 195      03CB53CB 
 195      FFA661E3 
 195      05C3D4
 196 03ab CAFE8953 		.ascii	"\312\376\211S\245$\375\373\267\012,O-_\246\225M\350"
 196      A524FDFB 
 196      B70A2C4F 
 196      2D5FA695 
 196      4DE8
 197 03bd 5196A796 		.ascii	"Q\226\247\226\377K\303bz`yjyx\212\202]*\030\246V6@\303"
ARM GAS  /tmp/ccfh9BXD.s 			page 15


 197      FF4BC362 
 197      7A60796A 
 197      79788A82 
 197      5D2A18A6 
 198 03d5 E27A60D6 		.ascii	"\342z`\326\034\312r5\372K\300\343\237I)\271IJ\300/\304"
 198      1CCA7235 
 198      FA4BC0E3 
 198      9F4929B9 
 198      494AC02F 
 199 03ea FF46FC2D 		.ascii	"\377F\374-\342\177'\376\017\342\357\020\277H\374\335"
 199      E27F27FE 
 199      0FE2EF10 
 199      BF48FCDD 
 200 03fa 3CC5623E 		.ascii	"<\305b>O\261X\312\024\013Ta\263\331\323\177\301\220"
 200      4FB158CA 
 200      140B5461 
 200      B3D9D37F 
 200      C190
 201 040c BD83F7D9 		.ascii	"\275\203\367\331;\203]B\310\356h\331Q]\225\366\215\025"
 201      3B835D42 
 201      C8EE68D9 
 201      515D95F6 
 201      8D15
 202 041e 3D3DD21B 		.ascii	"==\322\033\247\317\347\266\271\320\243r\327\331\306"
 202      A7CFE7B6 
 202      B9D0A372 
 202      D7D9C6
 203 042d BBF67677 		.ascii	"\273\366vw:\335A?\357\0158\275\001\257\260f\333\316"
 203      3ADD413F 
 203      EF0D38BD 
 203      01AFB066 
 203      DBCE
 204 043f 562B8B2C 		.ascii	"V+\213,\312\014ilmH\360WW9]\276\240k/\031x\314\336\035"
 204      CA0C696C 
 204      6D48F057 
 204      57395DBE 
 204      A06B2F19 
 205 0457 EAB27B03 		.ascii	"\352\262{\003._\267\333c\017x^\365y\333\354!\301\355"
 205      2E5FB7DB 
 205      630F785E 
 205      F579DBEC 
 205      21C1ED
 206 046a 0D08B60E 		.ascii	"\015\010\266\016d\352\206'\314\027\236\3135\315\317"
 206      64EA8627 
 206      CC179ECB 
 206      35CDCF
 207 0479 BB3ABC01 		.ascii	"\273:\274\001\217\335\351\366\264\363\335>\301)\354"
 207      8FDDE9F6 
 207      B4F3DD3E 
 207      C129EC
 208 0488 EBF48420 		.ascii	"\353\364\204 \354A\247S\011,u\354\013\011\036?\033\354"
 208      EC41A753 
 208      092C75EC 
 208      0B091E3F 
 208      1BEC
 209 049a F2B0D2A2 		.ascii	"\362\260\322\242\353mn^\340mY\2435\364\266]A\277?\030"
 209      EB6D6E5E 
ARM GAS  /tmp/ccfh9BXD.s 			page 16


 209      E06D59A3 
 209      35F4B65D 
 209      41BF3F18 
 210 04ae B07B7A04 		.ascii	"\260{z\004;\273\303\261\335\001\373\246\266N6\320^\261"
 210      3BBBC3B1 
 210      DD01FBA6 
 210      B64E36D0 
 210      5EB1
 211 04c0 B9B2A706 		.ascii	"\271\262\247\006V*n\336\3159[`\331zO;\303r\006\326\301"
 211      562A6EDE 
 211      CD395B60 
 211      D97A4F3B 
 211      C37206D6 
 212 04d5 15732CAB 		.ascii	"\025s,\253\014\031\331\306m0\270\2353\3256\327Uq\216"
 212      0C19D9C6 
 212      6D30B89D 
 212      33D536D7 
 212      55718E
 213 04e8 16D2A994 		.ascii	"\026\322\251\224:kj\233\352\032vrE\322\013\371Y\011"
 213      3A6B6A9B 
 213      EA1A7672 
 213      45D20BF9 
 213      5909
 214 04fa 4F635D3D 		.ascii	"Oc]=\013\037\232\352\2449\017H\341U\304W\033X\256\352"
 214      0B1F9AEA 
 214      A4390F48 
 214      E155C457 
 214      1B58AEEA 
 215 050e A1C6976A 		.ascii	"\241\306\227j\035M\012\334P\313r\306\027\033^\341\212"
 215      1D4D0ADC 
 215      50CB72C6 
 215      171B5EE1 
 215      8A
 216 051f 7635B748 		.ascii	"v5\267HO\306\3011\265\234\211kp4p/7\324\033v\325q\306"
 216      4FC6C131 
 216      B59C896B 
 216      7034702F 
 216      37D41B76 
 217 0536 DD5C33F7 		.ascii	"\335\\3\367\037_\314B#"
 217      1F5FCC42 
 217      23
 218              		.text
 219              		.section	.gnu.lto_.symtab.8b6961f164e63a8f,"",%progbits
 220 0000 68616C5F 		.ascii	"hal_lld_init\000\000\000\000\000\000\000\000\000\000"
 220      6C6C645F 
 220      696E6974 
 220      00000000 
 220      00000000 
 221 0016 0000A600 		.ascii	"\000\000\246\000\000\000stm32_clock_init\000\000\000"
 221      00007374 
 221      6D33325F 
 221      636C6F63 
 221      6B5F696E 
 222 002f 00000000 		.ascii	"\000\000\000\000\000\000\000\000\000\251\000\000\000"
 222      00000000 
 222      00A90000 
 222      00
ARM GAS  /tmp/ccfh9BXD.s 			page 17


 223 003c 53797374 		.ascii	"SystemCoreClock\000\000\000\000\000\000\000\000\000"
 223      656D436F 
 223      7265436C 
 223      6F636B00 
 223      00000000 
 224 0054 000000AC 		.ascii	"\000\000\000\254\000\000\000"
 224      000000
 225              		.text
 226              		.section	.gnu.lto_.opts,"",%progbits
 227 0000 272D6D63 		.ascii	"'-mcpu=cortex-m0' '-mno-thumb-interwork' '-mthumb' "
 227      70753D63 
 227      6F727465 
 227      782D6D30 
 227      2720272D 
 228 0033 272D6767 		.ascii	"'-ggdb' '-O2' '-fomit-frame-pointer' '-falign-funct"
 228      64622720 
 228      272D4F32 
 228      2720272D 
 228      666F6D69 
 229 0066 696F6E73 		.ascii	"ions=16' '-ffunction-sections' '-fdata-sections' '-"
 229      3D313627 
 229      20272D66 
 229      66756E63 
 229      74696F6E 
 230 0099 666E6F2D 		.ascii	"fno-common' '-flto'\000"
 230      636F6D6D 
 230      6F6E2720 
 230      272D666C 
 230      746F2700 
 231              		.text
 232              		.cfi_sections	.debug_frame
 233              		.section	.text.hal_lld_init,"ax",%progbits
 234              		.align	2
 235              		.p2align 4,,15
 236              		.global	hal_lld_init
 237              		.code	16
 238              		.thumb_func
 239              		.type	hal_lld_init, %function
 240              	hal_lld_init:
 241              	.LFB99:
 242              		.file 1 "../../../os/hal/ports/STM32/STM32F0xx/hal_lld.c"
 243              		.loc 1 224 0
 244              		.cfi_startproc
 245              		.loc 1 227 0
 246 0000 1A4B     		ldr	r3, .L5
 247 0002 0121     		mov	r1, #1
 248 0004 9A6A     		ldr	r2, [r3, #40]
 249 0006 4942     		neg	r1, r1
 250 0008 0022     		mov	r2, #0
 251              		.loc 1 224 0
 252 000a 10B5     		push	{r4, lr}
 253              		.cfi_def_cfa_offset 8
 254              		.cfi_offset 4, -8
 255              		.cfi_offset 14, -4
 256              		.loc 1 227 0
 257 000c 9962     		str	r1, [r3, #40]
 258 000e 9A62     		str	r2, [r3, #40]
ARM GAS  /tmp/ccfh9BXD.s 			page 18


 259              		.loc 1 228 0
 260 0010 1869     		ldr	r0, [r3, #16]
 261 0012 1961     		str	r1, [r3, #16]
 262 0014 1A61     		str	r2, [r3, #16]
 263              		.loc 1 229 0
 264 0016 D968     		ldr	r1, [r3, #12]
 265 0018 1548     		ldr	r0, .L5+4
 266 001a 0143     		orr	r1, r0
 267 001c D960     		str	r1, [r3, #12]
 268 001e DA60     		str	r2, [r3, #12]
 269              		.loc 1 232 0
 270 0020 D869     		ldr	r0, [r3, #28]
 271 0022 8021     		mov	r1, #128
 272 0024 4905     		lsl	r1, r1, #21
 273 0026 0143     		orr	r1, r0
 274 0028 D961     		str	r1, [r3, #28]
 275              	.LBB4:
 276              	.LBB5:
 277              		.loc 1 57 0
 278 002a 1249     		ldr	r1, .L5+8
 279 002c 8020     		mov	r0, #128
 280 002e 0C68     		ldr	r4, [r1]
 281 0030 4000     		lsl	r0, r0, #1
 282 0032 2043     		orr	r0, r4
 283 0034 0860     		str	r0, [r1]
 284              		.loc 1 60 0
 285 0036 196A     		ldr	r1, [r3, #32]
 286 0038 C020     		mov	r0, #192
 287 003a 8000     		lsl	r0, r0, #2
 288 003c 0840     		and	r0, r1
 289 003e 8021     		mov	r1, #128
 290 0040 8900     		lsl	r1, r1, #2
 291 0042 8842     		cmp	r0, r1
 292 0044 03D0     		beq	.L2
 293              		.loc 1 62 0
 294 0046 8021     		mov	r1, #128
 295 0048 4902     		lsl	r1, r1, #9
 296 004a 1962     		str	r1, [r3, #32]
 297              		.loc 1 63 0
 298 004c 1A62     		str	r2, [r3, #32]
 299              	.L2:
 300              		.loc 1 82 0
 301 004e 074B     		ldr	r3, .L5
 302 0050 8022     		mov	r2, #128
 303 0052 196A     		ldr	r1, [r3, #32]
 304 0054 1202     		lsl	r2, r2, #8
 305 0056 1142     		tst	r1, r2
 306 0058 07D1     		bne	.L1
 307              		.loc 1 84 0
 308 005a 186A     		ldr	r0, [r3, #32]
 309 005c 8021     		mov	r1, #128
 310 005e 8900     		lsl	r1, r1, #2
 311 0060 0143     		orr	r1, r0
 312 0062 1962     		str	r1, [r3, #32]
 313              		.loc 1 87 0
 314 0064 196A     		ldr	r1, [r3, #32]
 315 0066 0A43     		orr	r2, r1
ARM GAS  /tmp/ccfh9BXD.s 			page 19


 316 0068 1A62     		str	r2, [r3, #32]
 317              	.L1:
 318              	.LBE5:
 319              	.LBE4:
 320              		.loc 1 245 0
 321              		@ sp needed
 322 006a 10BD     		pop	{r4, pc}
 323              	.L6:
 324              		.align	2
 325              	.L5:
 326 006c 00100240 		.word	1073876992
 327 0070 FFFFBFFF 		.word	-4194305
 328 0074 00700040 		.word	1073770496
 329              		.cfi_endproc
 330              	.LFE99:
 331              		.size	hal_lld_init, .-hal_lld_init
 332 0078 C046C046 		.section	.text.stm32_clock_init,"ax",%progbits
 332      C046C046 
 333              		.align	2
 334              		.p2align 4,,15
 335              		.global	stm32_clock_init
 336              		.code	16
 337              		.thumb_func
 338              		.type	stm32_clock_init, %function
 339              	stm32_clock_init:
 340              	.LFB100:
 341              		.loc 1 254 0
 342              		.cfi_startproc
 343              		.loc 1 259 0
 344 0000 2748     		ldr	r0, .L20
 345 0002 0123     		mov	r3, #1
 346 0004 0268     		ldr	r2, [r0]
 347              		.loc 1 260 0
 348 0006 0221     		mov	r1, #2
 349              		.loc 1 259 0
 350 0008 1343     		orr	r3, r2
 351 000a 0360     		str	r3, [r0]
 352              	.L9:
 353              		.loc 1 260 0 discriminator 1
 354 000c 0368     		ldr	r3, [r0]
 355 000e 244A     		ldr	r2, .L20
 356 0010 1942     		tst	r1, r3
 357 0012 FBD0     		beq	.L9
 358              		.loc 1 266 0
 359 0014 5368     		ldr	r3, [r2, #4]
 360 0016 0321     		mov	r1, #3
 361 0018 8B43     		bic	r3, r1
 362 001a 5360     		str	r3, [r2, #4]
 363              		.loc 1 267 0
 364 001c 5368     		ldr	r3, [r2, #4]
 365              		.loc 1 268 0
 366 001e 101C     		mov	r0, r2
 367              		.loc 1 267 0
 368 0020 5360     		str	r3, [r2, #4]
 369              		.loc 1 268 0
 370 0022 0C21     		mov	r1, #12
 371              	.L11:
ARM GAS  /tmp/ccfh9BXD.s 			page 20


 372              		.loc 1 268 0 is_stmt 0 discriminator 1
 373 0024 4368     		ldr	r3, [r0, #4]
 374 0026 1E4A     		ldr	r2, .L20
 375 0028 0B40     		and	r3, r1
 376 002a FBD1     		bne	.L11
 377              		.loc 1 272 0 is_stmt 1
 378 002c 1168     		ldr	r1, [r2]
 379 002e F920     		mov	r0, #249
 380 0030 0140     		and	r1, r0
 381 0032 1160     		str	r1, [r2]
 382              		.loc 1 273 0
 383 0034 5360     		str	r3, [r2, #4]
 384              		.loc 1 290 0
 385 0036 516B     		ldr	r1, [r2, #52]
 386 0038 0123     		mov	r3, #1
 387 003a 0B43     		orr	r3, r1
 388 003c 5363     		str	r3, [r2, #52]
 389              		.loc 1 291 0
 390 003e 0220     		mov	r0, #2
 391              	.L13:
 392              		.loc 1 291 0 is_stmt 0 discriminator 1
 393 0040 536B     		ldr	r3, [r2, #52]
 394 0042 1749     		ldr	r1, .L20
 395 0044 1842     		tst	r0, r3
 396 0046 FBD0     		beq	.L13
 397              		.loc 1 304 0 is_stmt 1
 398 0048 4A6A     		ldr	r2, [r1, #36]
 399 004a 0123     		mov	r3, #1
 400 004c 1343     		orr	r3, r2
 401 004e 4B62     		str	r3, [r1, #36]
 402              		.loc 1 305 0
 403 0050 0220     		mov	r0, #2
 404              	.L15:
 405              		.loc 1 305 0 is_stmt 0 discriminator 1
 406 0052 4B6A     		ldr	r3, [r1, #36]
 407 0054 124A     		ldr	r2, .L20
 408 0056 1842     		tst	r0, r3
 409 0058 FBD0     		beq	.L15
 410              		.loc 1 310 0 is_stmt 1
 411 005a A023     		mov	r3, #160
 412 005c 9B03     		lsl	r3, r3, #14
 413 005e 5360     		str	r3, [r2, #4]
 414              		.loc 1 312 0
 415 0060 0023     		mov	r3, #0
 416 0062 D362     		str	r3, [r2, #44]
 417              		.loc 1 316 0
 418 0064 1363     		str	r3, [r2, #48]
 419              		.loc 1 321 0
 420 0066 1168     		ldr	r1, [r2]
 421 0068 8023     		mov	r3, #128
 422 006a 5B04     		lsl	r3, r3, #17
 423 006c 0B43     		orr	r3, r1
 424              		.loc 1 322 0
 425 006e 8020     		mov	r0, #128
 426              		.loc 1 321 0
 427 0070 1360     		str	r3, [r2]
 428              		.loc 1 322 0
ARM GAS  /tmp/ccfh9BXD.s 			page 21


 429 0072 8004     		lsl	r0, r0, #18
 430              	.L17:
 431              		.loc 1 322 0 is_stmt 0 discriminator 1
 432 0074 1368     		ldr	r3, [r2]
 433 0076 0A49     		ldr	r1, .L20
 434 0078 0342     		tst	r3, r0
 435 007a FBD0     		beq	.L17
 436              		.loc 1 327 0 is_stmt 1
 437 007c 094B     		ldr	r3, .L20+4
 438 007e 1122     		mov	r2, #17
 439 0080 1A60     		str	r2, [r3]
 440              		.loc 1 332 0
 441 0082 4A68     		ldr	r2, [r1, #4]
 442 0084 0223     		mov	r3, #2
 443 0086 1343     		orr	r3, r2
 444 0088 4B60     		str	r3, [r1, #4]
 445              		.loc 1 333 0
 446 008a 0C20     		mov	r0, #12
 447              	.L19:
 448              		.loc 1 333 0 is_stmt 0 discriminator 1
 449 008c 4B68     		ldr	r3, [r1, #4]
 450 008e 044A     		ldr	r2, .L20
 451 0090 0340     		and	r3, r0
 452 0092 082B     		cmp	r3, #8
 453 0094 FAD1     		bne	.L19
 454              		.loc 1 339 0 is_stmt 1
 455 0096 9169     		ldr	r1, [r2, #24]
 456 0098 0123     		mov	r3, #1
 457 009a 0B43     		orr	r3, r1
 458 009c 9361     		str	r3, [r2, #24]
 459              		.loc 1 341 0
 460              		@ sp needed
 461 009e 7047     		bx	lr
 462              	.L21:
 463              		.align	2
 464              	.L20:
 465 00a0 00100240 		.word	1073876992
 466 00a4 00200240 		.word	1073881088
 467              		.cfi_endproc
 468              	.LFE100:
 469              		.size	stm32_clock_init, .-stm32_clock_init
 470              		.global	SystemCoreClock
 471 00a8 C046C046 		.section	.data.SystemCoreClock,"aw",%progbits
 471      C046C046 
 472              		.align	2
 473              		.type	SystemCoreClock, %object
 474              		.size	SystemCoreClock, 4
 475              	SystemCoreClock:
 476 0000 006CDC02 		.word	48000000
 477              		.text
 478              	.Letext0:
 479              		.file 2 "/usr/include/newlib/machine/_default_types.h"
 480              		.file 3 "/usr/include/newlib/stdint.h"
 481              		.file 4 "../../../os/common/ext/CMSIS/ST/STM32F0xx/stm32f051x8.h"
 482              		.section	.debug_info,"",%progbits
 483              	.Ldebug_info0:
 484 0000 69020000 		.4byte	0x269
ARM GAS  /tmp/ccfh9BXD.s 			page 22


 485 0004 0400     		.2byte	0x4
 486 0006 00000000 		.4byte	.Ldebug_abbrev0
 487 000a 04       		.byte	0x4
 488 000b 01       		.uleb128 0x1
 489 000c CA010000 		.4byte	.LASF31
 490 0010 01       		.byte	0x1
 491 0011 63000000 		.4byte	.LASF32
 492 0015 20000000 		.4byte	.LASF33
 493 0019 00000000 		.4byte	.Ldebug_ranges0+0
 494 001d 00000000 		.4byte	0
 495 0021 00000000 		.4byte	.Ldebug_line0
 496 0025 02       		.uleb128 0x2
 497 0026 04       		.byte	0x4
 498 0027 05       		.byte	0x5
 499 0028 696E7400 		.ascii	"int\000"
 500 002c 03       		.uleb128 0x3
 501 002d 04       		.byte	0x4
 502 002e 07       		.byte	0x7
 503 002f 3C010000 		.4byte	.LASF0
 504 0033 03       		.uleb128 0x3
 505 0034 01       		.byte	0x1
 506 0035 06       		.byte	0x6
 507 0036 6D020000 		.4byte	.LASF1
 508 003a 03       		.uleb128 0x3
 509 003b 01       		.byte	0x1
 510 003c 08       		.byte	0x8
 511 003d 2E010000 		.4byte	.LASF2
 512 0041 03       		.uleb128 0x3
 513 0042 02       		.byte	0x2
 514 0043 05       		.byte	0x5
 515 0044 8C010000 		.4byte	.LASF3
 516 0048 03       		.uleb128 0x3
 517 0049 02       		.byte	0x2
 518 004a 07       		.byte	0x7
 519 004b AD000000 		.4byte	.LASF4
 520 004f 03       		.uleb128 0x3
 521 0050 04       		.byte	0x4
 522 0051 05       		.byte	0x5
 523 0052 BC010000 		.4byte	.LASF5
 524 0056 04       		.uleb128 0x4
 525 0057 F7000000 		.4byte	.LASF9
 526 005b 02       		.byte	0x2
 527 005c 38       		.byte	0x38
 528 005d 61000000 		.4byte	0x61
 529 0061 03       		.uleb128 0x3
 530 0062 04       		.byte	0x4
 531 0063 07       		.byte	0x7
 532 0064 D4000000 		.4byte	.LASF6
 533 0068 03       		.uleb128 0x3
 534 0069 08       		.byte	0x8
 535 006a 05       		.byte	0x5
 536 006b 69010000 		.4byte	.LASF7
 537 006f 03       		.uleb128 0x3
 538 0070 08       		.byte	0x8
 539 0071 07       		.byte	0x7
 540 0072 49010000 		.4byte	.LASF8
 541 0076 04       		.uleb128 0x4
ARM GAS  /tmp/ccfh9BXD.s 			page 23


 542 0077 B3010000 		.4byte	.LASF10
 543 007b 03       		.byte	0x3
 544 007c 42       		.byte	0x42
 545 007d 56000000 		.4byte	0x56
 546 0081 03       		.uleb128 0x3
 547 0082 04       		.byte	0x4
 548 0083 07       		.byte	0x7
 549 0084 60010000 		.4byte	.LASF11
 550 0088 05       		.uleb128 0x5
 551 0089 76000000 		.4byte	0x76
 552 008d 06       		.uleb128 0x6
 553 008e 24       		.byte	0x24
 554 008f 04       		.byte	0x4
 555 0090 1701     		.2byte	0x117
 556 0092 09010000 		.4byte	0x109
 557 0096 07       		.uleb128 0x7
 558 0097 41435200 		.ascii	"ACR\000"
 559 009b 04       		.byte	0x4
 560 009c 1901     		.2byte	0x119
 561 009e 88000000 		.4byte	0x88
 562 00a2 00       		.byte	0
 563 00a3 08       		.uleb128 0x8
 564 00a4 C5010000 		.4byte	.LASF12
 565 00a8 04       		.byte	0x4
 566 00a9 1A01     		.2byte	0x11a
 567 00ab 88000000 		.4byte	0x88
 568 00af 04       		.byte	0x4
 569 00b0 08       		.uleb128 0x8
 570 00b1 C0000000 		.4byte	.LASF13
 571 00b5 04       		.byte	0x4
 572 00b6 1B01     		.2byte	0x11b
 573 00b8 88000000 		.4byte	0x88
 574 00bc 08       		.byte	0x8
 575 00bd 07       		.uleb128 0x7
 576 00be 535200   		.ascii	"SR\000"
 577 00c1 04       		.byte	0x4
 578 00c2 1C01     		.2byte	0x11c
 579 00c4 88000000 		.4byte	0x88
 580 00c8 0C       		.byte	0xc
 581 00c9 07       		.uleb128 0x7
 582 00ca 435200   		.ascii	"CR\000"
 583 00cd 04       		.byte	0x4
 584 00ce 1D01     		.2byte	0x11d
 585 00d0 88000000 		.4byte	0x88
 586 00d4 10       		.byte	0x10
 587 00d5 07       		.uleb128 0x7
 588 00d6 415200   		.ascii	"AR\000"
 589 00d9 04       		.byte	0x4
 590 00da 1E01     		.2byte	0x11e
 591 00dc 88000000 		.4byte	0x88
 592 00e0 14       		.byte	0x14
 593 00e1 08       		.uleb128 0x8
 594 00e2 E6000000 		.4byte	.LASF14
 595 00e6 04       		.byte	0x4
 596 00e7 1F01     		.2byte	0x11f
 597 00e9 88000000 		.4byte	0x88
 598 00ed 18       		.byte	0x18
ARM GAS  /tmp/ccfh9BXD.s 			page 24


 599 00ee 07       		.uleb128 0x7
 600 00ef 4F425200 		.ascii	"OBR\000"
 601 00f3 04       		.byte	0x4
 602 00f4 2001     		.2byte	0x120
 603 00f6 88000000 		.4byte	0x88
 604 00fa 1C       		.byte	0x1c
 605 00fb 08       		.uleb128 0x8
 606 00fc 93000000 		.4byte	.LASF15
 607 0100 04       		.byte	0x4
 608 0101 2101     		.2byte	0x121
 609 0103 88000000 		.4byte	0x88
 610 0107 20       		.byte	0x20
 611 0108 00       		.byte	0
 612 0109 09       		.uleb128 0x9
 613 010a 12000000 		.4byte	.LASF16
 614 010e 04       		.byte	0x4
 615 010f 2201     		.2byte	0x122
 616 0111 8D000000 		.4byte	0x8d
 617 0115 06       		.uleb128 0x6
 618 0116 08       		.byte	0x8
 619 0117 04       		.byte	0x4
 620 0118 7301     		.2byte	0x173
 621 011a 38010000 		.4byte	0x138
 622 011e 07       		.uleb128 0x7
 623 011f 435200   		.ascii	"CR\000"
 624 0122 04       		.byte	0x4
 625 0123 7501     		.2byte	0x175
 626 0125 88000000 		.4byte	0x88
 627 0129 00       		.byte	0
 628 012a 07       		.uleb128 0x7
 629 012b 43535200 		.ascii	"CSR\000"
 630 012f 04       		.byte	0x4
 631 0130 7601     		.2byte	0x176
 632 0132 88000000 		.4byte	0x88
 633 0136 04       		.byte	0x4
 634 0137 00       		.byte	0
 635 0138 09       		.uleb128 0x9
 636 0139 C8000000 		.4byte	.LASF17
 637 013d 04       		.byte	0x4
 638 013e 7701     		.2byte	0x177
 639 0140 15010000 		.4byte	0x115
 640 0144 06       		.uleb128 0x6
 641 0145 38       		.byte	0x38
 642 0146 04       		.byte	0x4
 643 0147 7D01     		.2byte	0x17d
 644 0149 03020000 		.4byte	0x203
 645 014d 07       		.uleb128 0x7
 646 014e 435200   		.ascii	"CR\000"
 647 0151 04       		.byte	0x4
 648 0152 7F01     		.2byte	0x17f
 649 0154 88000000 		.4byte	0x88
 650 0158 00       		.byte	0
 651 0159 08       		.uleb128 0x8
 652 015a 05000000 		.4byte	.LASF18
 653 015e 04       		.byte	0x4
 654 015f 8001     		.2byte	0x180
 655 0161 88000000 		.4byte	0x88
ARM GAS  /tmp/ccfh9BXD.s 			page 25


 656 0165 04       		.byte	0x4
 657 0166 07       		.uleb128 0x7
 658 0167 43495200 		.ascii	"CIR\000"
 659 016b 04       		.byte	0x4
 660 016c 8101     		.2byte	0x181
 661 016e 88000000 		.4byte	0x88
 662 0172 08       		.byte	0x8
 663 0173 08       		.uleb128 0x8
 664 0174 25010000 		.4byte	.LASF19
 665 0178 04       		.byte	0x4
 666 0179 8201     		.2byte	0x182
 667 017b 88000000 		.4byte	0x88
 668 017f 0C       		.byte	0xc
 669 0180 08       		.uleb128 0x8
 670 0181 98000000 		.4byte	.LASF20
 671 0185 04       		.byte	0x4
 672 0186 8301     		.2byte	0x183
 673 0188 88000000 		.4byte	0x88
 674 018c 10       		.byte	0x10
 675 018d 08       		.uleb128 0x8
 676 018e 5C000000 		.4byte	.LASF21
 677 0192 04       		.byte	0x4
 678 0193 8401     		.2byte	0x184
 679 0195 88000000 		.4byte	0x88
 680 0199 14       		.byte	0x14
 681 019a 08       		.uleb128 0x8
 682 019b EF000000 		.4byte	.LASF22
 683 019f 04       		.byte	0x4
 684 01a0 8501     		.2byte	0x185
 685 01a2 88000000 		.4byte	0x88
 686 01a6 18       		.byte	0x18
 687 01a7 08       		.uleb128 0x8
 688 01a8 1D010000 		.4byte	.LASF23
 689 01ac 04       		.byte	0x4
 690 01ad 8601     		.2byte	0x186
 691 01af 88000000 		.4byte	0x88
 692 01b3 1C       		.byte	0x1c
 693 01b4 08       		.uleb128 0x8
 694 01b5 00000000 		.4byte	.LASF24
 695 01b9 04       		.byte	0x4
 696 01ba 8701     		.2byte	0x187
 697 01bc 88000000 		.4byte	0x88
 698 01c0 20       		.byte	0x20
 699 01c1 07       		.uleb128 0x7
 700 01c2 43535200 		.ascii	"CSR\000"
 701 01c6 04       		.byte	0x4
 702 01c7 8801     		.2byte	0x188
 703 01c9 88000000 		.4byte	0x88
 704 01cd 24       		.byte	0x24
 705 01ce 08       		.uleb128 0x8
 706 01cf 0A000000 		.4byte	.LASF25
 707 01d3 04       		.byte	0x4
 708 01d4 8901     		.2byte	0x189
 709 01d6 88000000 		.4byte	0x88
 710 01da 28       		.byte	0x28
 711 01db 08       		.uleb128 0x8
 712 01dc A1000000 		.4byte	.LASF26
ARM GAS  /tmp/ccfh9BXD.s 			page 26


 713 01e0 04       		.byte	0x4
 714 01e1 8A01     		.2byte	0x18a
 715 01e3 88000000 		.4byte	0x88
 716 01e7 2C       		.byte	0x2c
 717 01e8 08       		.uleb128 0x8
 718 01e9 A7000000 		.4byte	.LASF27
 719 01ed 04       		.byte	0x4
 720 01ee 8B01     		.2byte	0x18b
 721 01f0 88000000 		.4byte	0x88
 722 01f4 30       		.byte	0x30
 723 01f5 07       		.uleb128 0x7
 724 01f6 43523200 		.ascii	"CR2\000"
 725 01fa 04       		.byte	0x4
 726 01fb 8C01     		.2byte	0x18c
 727 01fd 88000000 		.4byte	0x88
 728 0201 34       		.byte	0x34
 729 0202 00       		.byte	0
 730 0203 09       		.uleb128 0x9
 731 0204 A7010000 		.4byte	.LASF28
 732 0208 04       		.byte	0x4
 733 0209 8D01     		.2byte	0x18d
 734 020b 44010000 		.4byte	0x144
 735 020f 03       		.uleb128 0x3
 736 0210 01       		.byte	0x1
 737 0211 08       		.byte	0x8
 738 0212 77010000 		.4byte	.LASF29
 739 0216 03       		.uleb128 0x3
 740 0217 01       		.byte	0x1
 741 0218 02       		.byte	0x2
 742 0219 86020000 		.4byte	.LASF30
 743 021d 0A       		.uleb128 0xa
 744 021e 02010000 		.4byte	.LASF34
 745 0222 01       		.byte	0x1
 746 0223 36       		.byte	0x36
 747 0224 01       		.byte	0x1
 748 0225 0B       		.uleb128 0xb
 749 0226 79020000 		.4byte	.LASF35
 750 022a 01       		.byte	0x1
 751 022b E0       		.byte	0xe0
 752 022c 00000000 		.4byte	.LFB99
 753 0230 78000000 		.4byte	.LFE99-.LFB99
 754 0234 01       		.uleb128 0x1
 755 0235 9C       		.byte	0x9c
 756 0236 4A020000 		.4byte	0x24a
 757 023a 0C       		.uleb128 0xc
 758 023b 1D020000 		.4byte	0x21d
 759 023f 2A000000 		.4byte	.LBB4
 760 0243 40000000 		.4byte	.LBE4-.LBB4
 761 0247 01       		.byte	0x1
 762 0248 EB       		.byte	0xeb
 763 0249 00       		.byte	0
 764 024a 0D       		.uleb128 0xd
 765 024b 96010000 		.4byte	.LASF36
 766 024f 01       		.byte	0x1
 767 0250 FE       		.byte	0xfe
 768 0251 00000000 		.4byte	.LFB100
 769 0255 A8000000 		.4byte	.LFE100-.LFB100
ARM GAS  /tmp/ccfh9BXD.s 			page 27


 770 0259 01       		.uleb128 0x1
 771 025a 9C       		.byte	0x9c
 772 025b 0E       		.uleb128 0xe
 773 025c 7C010000 		.4byte	.LASF37
 774 0260 01       		.byte	0x1
 775 0261 27       		.byte	0x27
 776 0262 76000000 		.4byte	0x76
 777 0266 05       		.uleb128 0x5
 778 0267 03       		.byte	0x3
 779 0268 00000000 		.4byte	SystemCoreClock
 780 026c 00       		.byte	0
 781              		.section	.debug_abbrev,"",%progbits
 782              	.Ldebug_abbrev0:
 783 0000 01       		.uleb128 0x1
 784 0001 11       		.uleb128 0x11
 785 0002 01       		.byte	0x1
 786 0003 25       		.uleb128 0x25
 787 0004 0E       		.uleb128 0xe
 788 0005 13       		.uleb128 0x13
 789 0006 0B       		.uleb128 0xb
 790 0007 03       		.uleb128 0x3
 791 0008 0E       		.uleb128 0xe
 792 0009 1B       		.uleb128 0x1b
 793 000a 0E       		.uleb128 0xe
 794 000b 55       		.uleb128 0x55
 795 000c 17       		.uleb128 0x17
 796 000d 11       		.uleb128 0x11
 797 000e 01       		.uleb128 0x1
 798 000f 10       		.uleb128 0x10
 799 0010 17       		.uleb128 0x17
 800 0011 00       		.byte	0
 801 0012 00       		.byte	0
 802 0013 02       		.uleb128 0x2
 803 0014 24       		.uleb128 0x24
 804 0015 00       		.byte	0
 805 0016 0B       		.uleb128 0xb
 806 0017 0B       		.uleb128 0xb
 807 0018 3E       		.uleb128 0x3e
 808 0019 0B       		.uleb128 0xb
 809 001a 03       		.uleb128 0x3
 810 001b 08       		.uleb128 0x8
 811 001c 00       		.byte	0
 812 001d 00       		.byte	0
 813 001e 03       		.uleb128 0x3
 814 001f 24       		.uleb128 0x24
 815 0020 00       		.byte	0
 816 0021 0B       		.uleb128 0xb
 817 0022 0B       		.uleb128 0xb
 818 0023 3E       		.uleb128 0x3e
 819 0024 0B       		.uleb128 0xb
 820 0025 03       		.uleb128 0x3
 821 0026 0E       		.uleb128 0xe
 822 0027 00       		.byte	0
 823 0028 00       		.byte	0
 824 0029 04       		.uleb128 0x4
 825 002a 16       		.uleb128 0x16
 826 002b 00       		.byte	0
ARM GAS  /tmp/ccfh9BXD.s 			page 28


 827 002c 03       		.uleb128 0x3
 828 002d 0E       		.uleb128 0xe
 829 002e 3A       		.uleb128 0x3a
 830 002f 0B       		.uleb128 0xb
 831 0030 3B       		.uleb128 0x3b
 832 0031 0B       		.uleb128 0xb
 833 0032 49       		.uleb128 0x49
 834 0033 13       		.uleb128 0x13
 835 0034 00       		.byte	0
 836 0035 00       		.byte	0
 837 0036 05       		.uleb128 0x5
 838 0037 35       		.uleb128 0x35
 839 0038 00       		.byte	0
 840 0039 49       		.uleb128 0x49
 841 003a 13       		.uleb128 0x13
 842 003b 00       		.byte	0
 843 003c 00       		.byte	0
 844 003d 06       		.uleb128 0x6
 845 003e 13       		.uleb128 0x13
 846 003f 01       		.byte	0x1
 847 0040 0B       		.uleb128 0xb
 848 0041 0B       		.uleb128 0xb
 849 0042 3A       		.uleb128 0x3a
 850 0043 0B       		.uleb128 0xb
 851 0044 3B       		.uleb128 0x3b
 852 0045 05       		.uleb128 0x5
 853 0046 01       		.uleb128 0x1
 854 0047 13       		.uleb128 0x13
 855 0048 00       		.byte	0
 856 0049 00       		.byte	0
 857 004a 07       		.uleb128 0x7
 858 004b 0D       		.uleb128 0xd
 859 004c 00       		.byte	0
 860 004d 03       		.uleb128 0x3
 861 004e 08       		.uleb128 0x8
 862 004f 3A       		.uleb128 0x3a
 863 0050 0B       		.uleb128 0xb
 864 0051 3B       		.uleb128 0x3b
 865 0052 05       		.uleb128 0x5
 866 0053 49       		.uleb128 0x49
 867 0054 13       		.uleb128 0x13
 868 0055 38       		.uleb128 0x38
 869 0056 0B       		.uleb128 0xb
 870 0057 00       		.byte	0
 871 0058 00       		.byte	0
 872 0059 08       		.uleb128 0x8
 873 005a 0D       		.uleb128 0xd
 874 005b 00       		.byte	0
 875 005c 03       		.uleb128 0x3
 876 005d 0E       		.uleb128 0xe
 877 005e 3A       		.uleb128 0x3a
 878 005f 0B       		.uleb128 0xb
 879 0060 3B       		.uleb128 0x3b
 880 0061 05       		.uleb128 0x5
 881 0062 49       		.uleb128 0x49
 882 0063 13       		.uleb128 0x13
 883 0064 38       		.uleb128 0x38
ARM GAS  /tmp/ccfh9BXD.s 			page 29


 884 0065 0B       		.uleb128 0xb
 885 0066 00       		.byte	0
 886 0067 00       		.byte	0
 887 0068 09       		.uleb128 0x9
 888 0069 16       		.uleb128 0x16
 889 006a 00       		.byte	0
 890 006b 03       		.uleb128 0x3
 891 006c 0E       		.uleb128 0xe
 892 006d 3A       		.uleb128 0x3a
 893 006e 0B       		.uleb128 0xb
 894 006f 3B       		.uleb128 0x3b
 895 0070 05       		.uleb128 0x5
 896 0071 49       		.uleb128 0x49
 897 0072 13       		.uleb128 0x13
 898 0073 00       		.byte	0
 899 0074 00       		.byte	0
 900 0075 0A       		.uleb128 0xa
 901 0076 2E       		.uleb128 0x2e
 902 0077 00       		.byte	0
 903 0078 03       		.uleb128 0x3
 904 0079 0E       		.uleb128 0xe
 905 007a 3A       		.uleb128 0x3a
 906 007b 0B       		.uleb128 0xb
 907 007c 3B       		.uleb128 0x3b
 908 007d 0B       		.uleb128 0xb
 909 007e 27       		.uleb128 0x27
 910 007f 19       		.uleb128 0x19
 911 0080 20       		.uleb128 0x20
 912 0081 0B       		.uleb128 0xb
 913 0082 00       		.byte	0
 914 0083 00       		.byte	0
 915 0084 0B       		.uleb128 0xb
 916 0085 2E       		.uleb128 0x2e
 917 0086 01       		.byte	0x1
 918 0087 3F       		.uleb128 0x3f
 919 0088 19       		.uleb128 0x19
 920 0089 03       		.uleb128 0x3
 921 008a 0E       		.uleb128 0xe
 922 008b 3A       		.uleb128 0x3a
 923 008c 0B       		.uleb128 0xb
 924 008d 3B       		.uleb128 0x3b
 925 008e 0B       		.uleb128 0xb
 926 008f 27       		.uleb128 0x27
 927 0090 19       		.uleb128 0x19
 928 0091 11       		.uleb128 0x11
 929 0092 01       		.uleb128 0x1
 930 0093 12       		.uleb128 0x12
 931 0094 06       		.uleb128 0x6
 932 0095 40       		.uleb128 0x40
 933 0096 18       		.uleb128 0x18
 934 0097 9742     		.uleb128 0x2117
 935 0099 19       		.uleb128 0x19
 936 009a 01       		.uleb128 0x1
 937 009b 13       		.uleb128 0x13
 938 009c 00       		.byte	0
 939 009d 00       		.byte	0
 940 009e 0C       		.uleb128 0xc
ARM GAS  /tmp/ccfh9BXD.s 			page 30


 941 009f 1D       		.uleb128 0x1d
 942 00a0 00       		.byte	0
 943 00a1 31       		.uleb128 0x31
 944 00a2 13       		.uleb128 0x13
 945 00a3 11       		.uleb128 0x11
 946 00a4 01       		.uleb128 0x1
 947 00a5 12       		.uleb128 0x12
 948 00a6 06       		.uleb128 0x6
 949 00a7 58       		.uleb128 0x58
 950 00a8 0B       		.uleb128 0xb
 951 00a9 59       		.uleb128 0x59
 952 00aa 0B       		.uleb128 0xb
 953 00ab 00       		.byte	0
 954 00ac 00       		.byte	0
 955 00ad 0D       		.uleb128 0xd
 956 00ae 2E       		.uleb128 0x2e
 957 00af 00       		.byte	0
 958 00b0 3F       		.uleb128 0x3f
 959 00b1 19       		.uleb128 0x19
 960 00b2 03       		.uleb128 0x3
 961 00b3 0E       		.uleb128 0xe
 962 00b4 3A       		.uleb128 0x3a
 963 00b5 0B       		.uleb128 0xb
 964 00b6 3B       		.uleb128 0x3b
 965 00b7 0B       		.uleb128 0xb
 966 00b8 27       		.uleb128 0x27
 967 00b9 19       		.uleb128 0x19
 968 00ba 11       		.uleb128 0x11
 969 00bb 01       		.uleb128 0x1
 970 00bc 12       		.uleb128 0x12
 971 00bd 06       		.uleb128 0x6
 972 00be 40       		.uleb128 0x40
 973 00bf 18       		.uleb128 0x18
 974 00c0 9742     		.uleb128 0x2117
 975 00c2 19       		.uleb128 0x19
 976 00c3 00       		.byte	0
 977 00c4 00       		.byte	0
 978 00c5 0E       		.uleb128 0xe
 979 00c6 34       		.uleb128 0x34
 980 00c7 00       		.byte	0
 981 00c8 03       		.uleb128 0x3
 982 00c9 0E       		.uleb128 0xe
 983 00ca 3A       		.uleb128 0x3a
 984 00cb 0B       		.uleb128 0xb
 985 00cc 3B       		.uleb128 0x3b
 986 00cd 0B       		.uleb128 0xb
 987 00ce 49       		.uleb128 0x49
 988 00cf 13       		.uleb128 0x13
 989 00d0 3F       		.uleb128 0x3f
 990 00d1 19       		.uleb128 0x19
 991 00d2 02       		.uleb128 0x2
 992 00d3 18       		.uleb128 0x18
 993 00d4 00       		.byte	0
 994 00d5 00       		.byte	0
 995 00d6 00       		.byte	0
 996              		.section	.debug_aranges,"",%progbits
 997 0000 24000000 		.4byte	0x24
ARM GAS  /tmp/ccfh9BXD.s 			page 31


 998 0004 0200     		.2byte	0x2
 999 0006 00000000 		.4byte	.Ldebug_info0
 1000 000a 04       		.byte	0x4
 1001 000b 00       		.byte	0
 1002 000c 0000     		.2byte	0
 1003 000e 0000     		.2byte	0
 1004 0010 00000000 		.4byte	.LFB99
 1005 0014 78000000 		.4byte	.LFE99-.LFB99
 1006 0018 00000000 		.4byte	.LFB100
 1007 001c A8000000 		.4byte	.LFE100-.LFB100
 1008 0020 00000000 		.4byte	0
 1009 0024 00000000 		.4byte	0
 1010              		.section	.debug_ranges,"",%progbits
 1011              	.Ldebug_ranges0:
 1012 0000 00000000 		.4byte	.LFB99
 1013 0004 78000000 		.4byte	.LFE99
 1014 0008 00000000 		.4byte	.LFB100
 1015 000c A8000000 		.4byte	.LFE100
 1016 0010 00000000 		.4byte	0
 1017 0014 00000000 		.4byte	0
 1018              		.section	.debug_line,"",%progbits
 1019              	.Ldebug_line0:
 1020 0000 53010000 		.section	.debug_str,"MS",%progbits,1
 1020      0200D100 
 1020      00000201 
 1020      FB0E0D00 
 1020      01010101 
 1021              	.LASF24:
 1022 0000 42444352 		.ascii	"BDCR\000"
 1022      00
 1023              	.LASF18:
 1024 0005 43464752 		.ascii	"CFGR\000"
 1024      00
 1025              	.LASF25:
 1026 000a 41484252 		.ascii	"AHBRSTR\000"
 1026      53545200 
 1027              	.LASF16:
 1028 0012 464C4153 		.ascii	"FLASH_TypeDef\000"
 1028      485F5479 
 1028      70654465 
 1028      6600
 1029              	.LASF33:
 1030 0020 2F686F6D 		.ascii	"/home/awygle/ChibiOS-RT/demos/STM32/NIL-STM32F051-D"
 1030      652F6177 
 1030      79676C65 
 1030      2F436869 
 1030      62694F53 
 1031 0053 4953434F 		.ascii	"ISCOVERY\000"
 1031      56455259 
 1031      00
 1032              	.LASF21:
 1033 005c 41484245 		.ascii	"AHBENR\000"
 1033      4E5200
 1034              	.LASF32:
 1035 0063 2E2E2F2E 		.ascii	"../../../os/hal/ports/STM32/STM32F0xx/hal_lld.c\000"
 1035      2E2F2E2E 
 1035      2F6F732F 
ARM GAS  /tmp/ccfh9BXD.s 			page 32


 1035      68616C2F 
 1035      706F7274 
 1036              	.LASF15:
 1037 0093 57525052 		.ascii	"WRPR\000"
 1037      00
 1038              	.LASF20:
 1039 0098 41504231 		.ascii	"APB1RSTR\000"
 1039      52535452 
 1039      00
 1040              	.LASF26:
 1041 00a1 43464752 		.ascii	"CFGR2\000"
 1041      3200
 1042              	.LASF27:
 1043 00a7 43464752 		.ascii	"CFGR3\000"
 1043      3300
 1044              	.LASF4:
 1045 00ad 73686F72 		.ascii	"short unsigned int\000"
 1045      7420756E 
 1045      7369676E 
 1045      65642069 
 1045      6E7400
 1046              	.LASF13:
 1047 00c0 4F50544B 		.ascii	"OPTKEYR\000"
 1047      45595200 
 1048              	.LASF17:
 1049 00c8 5057525F 		.ascii	"PWR_TypeDef\000"
 1049      54797065 
 1049      44656600 
 1050              	.LASF6:
 1051 00d4 6C6F6E67 		.ascii	"long unsigned int\000"
 1051      20756E73 
 1051      69676E65 
 1051      6420696E 
 1051      7400
 1052              	.LASF14:
 1053 00e6 52455345 		.ascii	"RESERVED\000"
 1053      52564544 
 1053      00
 1054              	.LASF22:
 1055 00ef 41504232 		.ascii	"APB2ENR\000"
 1055      454E5200 
 1056              	.LASF9:
 1057 00f7 5F5F7569 		.ascii	"__uint32_t\000"
 1057      6E743332 
 1057      5F7400
 1058              	.LASF34:
 1059 0102 68616C5F 		.ascii	"hal_lld_backup_domain_init\000"
 1059      6C6C645F 
 1059      6261636B 
 1059      75705F64 
 1059      6F6D6169 
 1060              	.LASF23:
 1061 011d 41504231 		.ascii	"APB1ENR\000"
 1061      454E5200 
 1062              	.LASF19:
 1063 0125 41504232 		.ascii	"APB2RSTR\000"
 1063      52535452 
ARM GAS  /tmp/ccfh9BXD.s 			page 33


 1063      00
 1064              	.LASF2:
 1065 012e 756E7369 		.ascii	"unsigned char\000"
 1065      676E6564 
 1065      20636861 
 1065      7200
 1066              	.LASF0:
 1067 013c 756E7369 		.ascii	"unsigned int\000"
 1067      676E6564 
 1067      20696E74 
 1067      00
 1068              	.LASF8:
 1069 0149 6C6F6E67 		.ascii	"long long unsigned int\000"
 1069      206C6F6E 
 1069      6720756E 
 1069      7369676E 
 1069      65642069 
 1070              	.LASF11:
 1071 0160 73697A65 		.ascii	"sizetype\000"
 1071      74797065 
 1071      00
 1072              	.LASF7:
 1073 0169 6C6F6E67 		.ascii	"long long int\000"
 1073      206C6F6E 
 1073      6720696E 
 1073      7400
 1074              	.LASF29:
 1075 0177 63686172 		.ascii	"char\000"
 1075      00
 1076              	.LASF37:
 1077 017c 53797374 		.ascii	"SystemCoreClock\000"
 1077      656D436F 
 1077      7265436C 
 1077      6F636B00 
 1078              	.LASF3:
 1079 018c 73686F72 		.ascii	"short int\000"
 1079      7420696E 
 1079      7400
 1080              	.LASF36:
 1081 0196 73746D33 		.ascii	"stm32_clock_init\000"
 1081      325F636C 
 1081      6F636B5F 
 1081      696E6974 
 1081      00
 1082              	.LASF28:
 1083 01a7 5243435F 		.ascii	"RCC_TypeDef\000"
 1083      54797065 
 1083      44656600 
 1084              	.LASF10:
 1085 01b3 75696E74 		.ascii	"uint32_t\000"
 1085      33325F74 
 1085      00
 1086              	.LASF5:
 1087 01bc 6C6F6E67 		.ascii	"long int\000"
 1087      20696E74 
 1087      00
 1088              	.LASF12:
ARM GAS  /tmp/ccfh9BXD.s 			page 34


 1089 01c5 4B455952 		.ascii	"KEYR\000"
 1089      00
 1090              	.LASF31:
 1091 01ca 474E5520 		.ascii	"GNU C 4.8.2 -mcpu=cortex-m0 -mno-thumb-interwork -m"
 1091      4320342E 
 1091      382E3220 
 1091      2D6D6370 
 1091      753D636F 
 1092 01fd 7468756D 		.ascii	"thumb -ggdb -O2 -fomit-frame-pointer -falign-functi"
 1092      62202D67 
 1092      67646220 
 1092      2D4F3220 
 1092      2D666F6D 
 1093 0230 6F6E733D 		.ascii	"ons=16 -ffunction-sections -fdata-sections -fno-com"
 1093      3136202D 
 1093      6666756E 
 1093      6374696F 
 1093      6E2D7365 
 1094 0263 6D6F6E20 		.ascii	"mon -flto\000"
 1094      2D666C74 
 1094      6F00
 1095              	.LASF1:
 1096 026d 7369676E 		.ascii	"signed char\000"
 1096      65642063 
 1096      68617200 
 1097              	.LASF35:
 1098 0279 68616C5F 		.ascii	"hal_lld_init\000"
 1098      6C6C645F 
 1098      696E6974 
 1098      00
 1099              	.LASF30:
 1100 0286 5F426F6F 		.ascii	"_Bool\000"
 1100      6C00
 1101              		.comm	__gnu_lto_v1,1,1
 1102              		.ident	"GCC: (4.8.2-14ubuntu1+6) 4.8.2"
ARM GAS  /tmp/ccfh9BXD.s 			page 35


DEFINED SYMBOLS
                            *ABS*:0000000000000000 hal_lld.c
     /tmp/ccfh9BXD.s:234    .text.hal_lld_init:0000000000000000 $t
     /tmp/ccfh9BXD.s:240    .text.hal_lld_init:0000000000000000 hal_lld_init
     /tmp/ccfh9BXD.s:326    .text.hal_lld_init:000000000000006c $d
     /tmp/ccfh9BXD.s:333    .text.stm32_clock_init:0000000000000000 $t
     /tmp/ccfh9BXD.s:339    .text.stm32_clock_init:0000000000000000 stm32_clock_init
     /tmp/ccfh9BXD.s:465    .text.stm32_clock_init:00000000000000a0 $d
     /tmp/ccfh9BXD.s:475    .data.SystemCoreClock:0000000000000000 SystemCoreClock
     /tmp/ccfh9BXD.s:472    .data.SystemCoreClock:0000000000000000 $d
                            *COM*:0000000000000001 __gnu_lto_v1
                     .debug_frame:0000000000000010 $d
     /tmp/ccfh9BXD.s:332    .text.hal_lld_init:0000000000000078 $t
     /tmp/ccfh9BXD.s:471    .text.stm32_clock_init:00000000000000a8 $t

NO UNDEFINED SYMBOLS
