ARM GAS  /tmp/cc7qF5TC.s 			page 1


   1              		.cpu cortex-m0
   2              		.fpu softvfp
   3              		.eabi_attribute 20, 1
   4              		.eabi_attribute 21, 1
   5              		.eabi_attribute 23, 3
   6              		.eabi_attribute 24, 1
   7              		.eabi_attribute 25, 1
   8              		.eabi_attribute 26, 1
   9              		.eabi_attribute 30, 2
  10              		.eabi_attribute 34, 0
  11              		.eabi_attribute 18, 4
  12              		.code	16
  13              		.file	"main.c"
  14              		.text
  15              	.Ltext0:
  16              		.section	.gnu.lto_.jmpfuncs.a95c7d47e7cb846a,"",%progbits
  17 0000 789C6362 		.ascii	"x\234cb`b\300\006\356\000\261\000\020\2630002E0f22|"
  17      6062C006 
  17      EE00B100 
  17      10B33030 
  17      30324530 
  18 0018 614665C2 		.ascii	"aFe\3028\277\030\031\220\231L0\316\005~\006\006f0\223"
  18      38BF1819 
  18      90994C30 
  18      CE057E06 
  18      06663093 
  19 002c B1A1A1E1 		.ascii	"\261\241\241\341\000\320 \210x\003\007\224\305\324\304"
  19      00D02088 
  19      78030794 
  19      C5D4C4
  20 003b 8843050B 		.ascii	"\210C\005\013\262\012&\246j\206_\015\035\015\002\231"
  20      B20A26A6 
  20      6A865F0D 
  20      1D0D0299 
  21 004b 8CCCB98C 		.ascii	"\214\314\271\214`\307\201%\201\212\200\2721\345@\"3"
  21      60C78125 
  21      818A80BA 
  21      31E54022 
  21      33
  22 005c 4022AC72 		.ascii	"@\"\254r\014\214s\033f8d2\262!t\261\36310\324\203\275"
  22      0C8C731B 
  22      66386432 
  22      B22174B1 
  22      F33130D4 
  23 0072 C5C0C0EF 		.ascii	"\305\300\300\357\221\232\223\223\257\020\236_\224\223"
  23      919A9393 
  23      AF109E5F 
  23      9493
  24 0080 A2C8CBC5 		.ascii	"\242\310\313\305\000\000~\001)Q"
  24      00007E01 
  24      2951
  25              		.text
  26              		.section	.gnu.lto_.inline.a95c7d47e7cb846a,"",%progbits
  27 0000 789C6362 		.ascii	"x\234cb`b\300\006\246Ai\026\006\006\216\007B\214\014"
  27      6062C006 
  27      A6416916 
  27      06068E07 
ARM GAS  /tmp/cc7qF5TC.s 			page 2


  27      428C0C
  28 0013 4C2C0D5B 		.ascii	"L,\015[%\200<\260j&nF\006F(\311H@\236\211A\374\220\004"
  28      25803CB0 
  28      6A266E46 
  28      064628C9 
  28      48409E89 
  29 002b 5679165E 		.ascii	"Vy\026^\006\006f\220\025P\232\231\207\001$\315\0064"
  29      06066690 
  29      15509A99 
  29      870124CD 
  29      0634
  30 003d 0D2CCCC0 		.ascii	"\015,\314\300\"\302\010V\017\325\305\310\005#\030\000"
  30      22C20856 
  30      0FD5C5C8 
  30      05231800 
  31 004d 922E0870 		.ascii	"\222.\010p"
  32              		.text
  33              		.section	.gnu.lto_.pureconst.a95c7d47e7cb846a,"",%progbits
  34 0000 789C6362 		.ascii	"x\234cb`b\340d\200\000\026\0063F3&S\026\023\000\004"
  34      6062E064 
  34      80001606 
  34      33463326 
  34      53161300 
  35 0015 9300EE   		.ascii	"\223\000\356"
  36              		.text
  37              		.section	.gnu.lto_Thread1.a95c7d47e7cb846a,"",%progbits
  38 0000 789CAD50 		.ascii	"x\234\255P\241n\002A\020}ov\257GU\373\011\365$\375\004"
  38      A16E0241 
  38      107D6F76 
  38      AF4755FB 
  38      09F524FD 
  39 0015 121C4143 		.ascii	"\022\034ACB%=u\002\022t\005Kr\002y\032\014X\004\265"
  39      42253D75 
  39      02127405 
  39      4B720279 
  39      1A0C5804 
  40 002a 48826FF9 		.ascii	"H\202o\371\205\326U\"\2520tv\367\212h\020\025l\262\363"
  40      85D65522 
  40      AA307476 
  40      F78A6810 
  40      156CB2F3 
  41 003e DE6467E6 		.ascii	"\336dg\346\275\035\201\340\357\251\353\035\021\270U"
  41      BD1D81E0 
  41      EFA9EB1D 
  41      11B855
  42 004d 64024AF9 		.ascii	"d\002J\371\016LjB\343\011\015m@\033\363&1\026c9~b\350"
  42      0E4C6A42 
  42      E3090D6D 
  42      401BF326 
  42      31166339 
  43 0064 7E95EDC7 		.ascii	"~\225\355\307\351\264>\034>\333L5OP8W>\000Yx\357h\244"
  43      E9B43E1C 
  43      3EDB4C35 
  43      4F503857 
  43      3E005978 
  44 007b 46D1415D 		.ascii	"F\321A]\032\350\010\276a\267\331\354\245\317\245\312"
  44      1AE808BE 
ARM GAS  /tmp/cc7qF5TC.s 			page 3


  44      61B7D9EC 
  44      A5CFA5CA 
  45 008b D5B17205 		.ascii	"\325\261r\005s\236\011\177\211\3141S0=\015\326\225n"
  45      739E097F 
  45      89CC3153 
  45      303D0DD6 
  45      956E
  46 009d 6B116890 		.ascii	"k\021h\220}\216\352\212\2540~\314W$\316\363=\212E#j"
  46      7D8EEA8A 
  46      AC307ECC 
  46      5724CEF3 
  46      3D8A4523 
  47 00b2 002F38BA 		.ascii	"\000/8\272\251\273\317y\223U\015\2760\3756\310Y\003"
  47      A9BBCF79 
  47      93550DBE 
  47      30FD36C8 
  47      5903
  48 00c4 BCA3AFBB 		.ascii	"\274\243\257\273+\0332\027\014\265\376i(\256\316\206"
  48      2B1B3217 
  48      0CB5FE69 
  48      28AECE86 
  49 00d4 7575AA02 		.ascii	"uu\252\002\244\203~>|\314\360\003M\374S/"
  49      A4837E3E 
  49      7CCCF003 
  49      4DFC532F 
  50              		.text
  51              		.section	.gnu.lto_Thread2.a95c7d47e7cb846a,"",%progbits
  52 0000 789CAD50 		.ascii	"x\234\255P\241N\003A\020}ov\257w8\034\026\177I\377\241"
  52      A14E0341 
  52      107D6F76 
  52      AF77381C 
  52      167F49FF 
  53 0015 FFD026AD 		.ascii	"\377\320&\255!9\316p$%\251\256\350\222\234\250<\015"
  53      2139CE70 
  53      2425A9AE 
  53      E8929CA8 
  53      3C0D
  54 0027 A6B50840 		.ascii	"\246\265\010@V6x@b\301a\2615\327\331\335\003A\020\025"
  54      56367840 
  54      62C161B1 
  54      35D7D9DD 
  54      03411015 
  55 003b 6CB2F366 		.ascii	"l\262\363f\262o\346\275\035\201\340\367\311\365\316"
  55      B26FE6BD 
  55      1D81E0F7 
  55      C9F5CE
  56 004a 081C2932 		.ascii	"\010\034)2\001\245y\001\2563\241\361\011\015m@\033\353"
  56      01A57901 
  56      AE33A1F1 
  56      090D6D40 
  56      1BEB
  57 005c 01B11063 		.ascii	"\001\261\020c\271\2300t?\310\366\275m\357\037\277>."
  57      B9983074 
  57      3FC8F6BD 
  57      6DEF1FBF 
  57      3E2E
  58 006e 996A9DA0 		.ascii	"\231j\235\240v\2569\005\312\360>\324H\215\242\203F4"
ARM GAS  /tmp/cc7qF5TC.s 			page 4


  58      76AE3905 
  58      CAF03ED4 
  58      488DA283 
  58      4634
  59 0080 D0117CC6 		.ascii	"\320\021|\306\323f\363&\005\327*\227\343\316\325\254"
  59      D366F326 
  59      05D72A97 
  59      E3CED5AC 
  60 0090 F893F03B 		.ascii	"\370\223\360;\221[\334(\230\261\006\353\032\267\265"
  60      915BDC28 
  60      98B106EB 
  60      1AB7B5
  61 009f 0869903D 		.ascii	"\010i\220=\217\352\212\3540~\3143\022\3479\257\250W"
  61      8FEA8AEC 
  61      307ECC33 
  61      12E739AF 
  61      A857
  62 00b1 67510398 		.ascii	"gQ\003\230c\347\226\356\270b\257\354\032<1\335\021\025"
  62      63E796EE 
  62      B862AFEC 
  62      1A3C31DD 
  62      1115
  63 00c3 33C03BFA 		.ascii	"3\300;\372<\371gC\346\017C\027\007\032\212\253\263a"
  63      3CF96743 
  63      E60F4317 
  63      071A8AAB 
  63      B361
  64 00d5 5DC38E80 		.ascii	"]\303\216\200tZTW\375\022{Y\315Sl"
  64      745A5457 
  64      FD127B59 
  64      CD536C
  65              		.text
  66              		.section	.gnu.lto_Thread3.a95c7d47e7cb846a,"",%progbits
  67 0000 789C9591 		.ascii	"x\234\225\221\275N\002A\024\205\317\235Yv\327U\376\264"
  67      BD4E0241 
  67      1485CF9D 
  67      5976D755 
  67      FEB4
  68 0012 D1C66067 		.ascii	"\321\306`g$\372\014\332\371\000\020\177:\\\215\331\004"
  68      24FA0CDA 
  68      F900107F 
  68      3A5C8DD9 
  68      04
  69 0023 24B1B560 		.ascii	"$\261\265` h\320\302P\022\215\011\266\026\332Z\222X"
  69      2068D0C2 
  69      50128D09 
  69      B616DA5A 
  69      9258
  70 0035 2BD65618 		.ascii	"+\326V\030_@[\033\274\263\263KTl\234dfn\356\234\363"
  70      5F405B1B 
  70      BCB3B34B 
  70      546C9C64 
  70      666EEE9C 
  71 004a CDDC3B02 		.ascii	"\315\334;\002\002\277\3072O\227\323s\274S\002$\332O"
  71      02BFC732 
  71      4F97D373 
  71      BC530224 
ARM GAS  /tmp/cc7qF5TC.s 			page 5


  71      DA4F
  72 005c 40DD1524 		.ascii	"@\335\025$M \3112\201e2k\204\232\220\026\325\266(\364"
  72      4D20C932 
  72      8165326B 
  72      849A9016 
  72      D5B628F4 
  73 0070 DF89DE60 		.ascii	"\337\211\336`8\274}\377x\355P\326\263\021\020\034^\364"
  73      38BC7DFF 
  73      78ED50D6 
  73      B311101C 
  73      5EF4
  74 0082 61024DA5 		.ascii	"a\002M\245\3329\300\017\245\005^\011E\022 \331\307\361"
  74      DA39C00F 
  74      A5055E09 
  74      451220D9 
  74      C7F1
  75 0094 A0F56097 		.ascii	"\240\365`\227\350\232\357\004\216\360\251Z*\023\220"
  75      E89AEF04 
  75      8EF0A95A 
  75      2A1390
  76 00a3 F0C96075 		.ascii	"\360\311`u\306\015HV\010\221h\223\002\262\300h\216\373"
  76      C60D4856 
  76      08916893 
  76      02B2C068 
  76      8EFB
  77 00b5 38199CFA 		.ascii	"8\031\234\372cn\333'S\240\326:J\251\236\025\206\256"
  77      636EDB27 
  77      53A0D63A 
  77      4AA99E15 
  77      86AE
  78 00c7 32FB4483 		.ascii	"2\373D\203\330\357\205\376\356\231\374\207\337\375\351"
  78      D8EF85FE 
  78      EE99FC87 
  78      DFFDE9
  79 00d6 D7A34812 		.ascii	"\327\243H\022\334\020\371\210\306\313\375\333\242\201"
  79      DC10F988 
  79      C6CBFDDB 
  79      A281
  80 00e4 ED939DC7 		.ascii	"\355\223\235\307\022\367\340\022\027u\245\231\223#\272"
  80      12F7E012 
  80      1775A599 
  80      9323BA
  81 00f3 AE2562CB 		.ascii	"\256%b\313\220\260C\361'0c;\0068y\334h\371\024#X\232"
  81      90B043F1 
  81      2730633B 
  81      063879DC 
  81      68F91423 
  82 0109 64A4B620 		.ascii	"d\244\266 \262\304\236>F\335c\317_\015\323\231\331\200"
  82      B2C49E3E 
  82      46DD63CF 
  82      5F0DD399 
  82      D980
  83 011b 52F3F0AE 		.ascii	"R\363\360\256Tg5\240\364\367VfR\\JVs\232\335\363\361"
  83      546735A0 
  83      F4F75666 
  83      525C4A56 
  83      739ADDF3 
ARM GAS  /tmp/cc7qF5TC.s 			page 6


  84 0130 564CFBD1 		.ascii	"VL\373\321#\303\372\237\323,\2361\027\027\370\027\270"
  84      23C3FA9F 
  84      D32C9E31 
  84      1717F817 
  84      B8
  85 0141 6E2AC44F 		.ascii	"n*\304Oq*\245\340`\305Gz}\257\\\256\3466\252\207\345"
  85      712AA5E0 
  85      60C5477A 
  85      7DAF5CAE 
  85      E636AA87 
  86 0156 DD85A487 		.ascii	"\335\205\244\207/5=ww"
  86      2F353D77 
  86      77
  87              		.text
  88              		.section	.gnu.lto_main.a95c7d47e7cb846a,"",%progbits
  89 0000 789C6362 		.ascii	"x\234cb`b@\007\272@<\007\2109\201\230\221\225\201\221"
  89      60624007 
  89      BA403C07 
  89      88398198 
  89      91958191 
  90 0014 69C23906 		.ascii	"i\3029\006\206F\016&Ff\010\203\231\221\005\302`\201"
  90      86460E26 
  90      46660883 
  90      999105C2 
  90      6081
  91 0026 88383232 		.ascii	"\210822\32431\2630\326G2\202\365\257g:\360\340\377\377"
  91      D43331B3 
  91      30D64732 
  91      82F5AF67 
  91      3AF0E0FF 
  92 003b 75F7DAA6 		.ascii	"u\367\332\246\314a\234\313\304\002\024aehih\230\240"
  92      CC619CCB 
  92      C4021461 
  92      65686968 
  92      98A0
  93 004d C0C0900C 		.ascii	"\300\300\220\014V\021\002$\031\031B\031\231\030\030"
  93      56110224 
  93      19194219 
  93      991818
  94 005c 99CF3334 		.ascii	"\231\31734?8q\230-\221q!\320*\006\206j\206_\015\035"
  94      3F387198 
  94      2D917121 
  94      D02A0686 
  94      6A865F0D 
  95 0071 0D02998C 		.ascii	"\015\002\231\214@\245\020\3232A4H\325\311fvl\252\230"
  95      40A510D3 
  95      32413448 
  95      D5C96676 
  95      6CAA98
  96 0084 10AA2066 		.ascii	"\020\252 f33\000\035\305\034\302\310\002\242\031C`\022"
  96      3333001D 
  96      C51CC2C8 
  96      02A21943 
  96      6012
  97 0096 ECB98999 		.ascii	"\354\271\211\231yz\311\014\000\362\221-\036"
  97      797AC90C 
  97      00F2912D 
ARM GAS  /tmp/cc7qF5TC.s 			page 7


  97      1E
  98              		.text
  99              		.section	.gnu.lto_.symbol_nodes.a95c7d47e7cb846a,"",%progbits
 100 0000 789C458A 		.ascii	"x\234E\212\271\015\302P\020\005g\367\377\2171GaT\265"
 100      B90DC250 
 100      100567F7 
 100      FF8F3147 
 100      6154B5
 101 0013 960849A8 		.ascii	"\226\010I\250\000\201\\\002%8!\"$F\230\373\354\000\341"
 101      00815C02 
 101      25382122 
 101      244698FB 
 101      EC00E1
 102 0026 03DB9BCC 		.ascii	"\003\333\233\314\316\323(\212\010\365i\216\301|\013"
 102      CED3288A 
 102      08F5698E 
 102      C17C0B
 103 0035 668B899E 		.ascii	"f\213\211\2360\351\354\202ik\341Y\344\206\3360\327\214"
 103      30E9EC82 
 103      696BE159 
 103      E486DE30 
 103      D78C
 104 0047 1B0D5724 		.ascii	"\033\015W$\030\341\200\2268\342J\234\361\005\344\216"
 104      18E18096 
 104      38E24A9C 
 104      F105E48E 
 105 0057 F93A4D12 		.ascii	"\371:M\022\221\027\026:{`\275\316>X\324\331\033\353"
 105      9117163A 
 105      7B60BDCE 
 105      3E58D4D9 
 105      1BEB
 106 0069 B7E68849 		.ascii	"\267\346\210I\227\273YT>y\365H\263H\263\350\220\351"
 106      97BB5954 
 106      3E79F548 
 106      B348B3E8 
 106      90E9
 107 007b FE2B4E07 		.ascii	"\376+N\007\244\177f\025c\262U\021xe]\322\371q\035\372"
 107      A47F6615 
 107      63B25511 
 107      78655DD2 
 107      F9711DFA 
 108 008f 5115F203 		.ascii	"Q\025\362\003imM\264"
 108      696D4DB4 
 109              		.text
 110              		.section	.gnu.lto_.refs.a95c7d47e7cb846a,"",%progbits
 111 0000 789C6362 		.ascii	"x\234cb`b\220e\200\000f&&f \301\314\311\312\304\006"
 111      60629065 
 111      80006626 
 111      266620C1 
 111      CCC9CAC4 
 112 0015 840C4CEC 		.ascii	"\204\014L\354@\310\310\304\001\204L\014\000\012n\000"
 112      40C8C8C4 
 112      01844C0C 
 112      000A6E00 
 113 0025 81       		.ascii	"\201"
 114              		.text
 115              		.section	.gnu.lto_.decls.a95c7d47e7cb846a,"",%progbits
ARM GAS  /tmp/cc7qF5TC.s 			page 8


 116 0000 789CBD5B 		.ascii	"x\234\275[{t\024E\272\257\352\236G\306d\201]\327=p\316"
 116      7B741445 
 116      BAAFEA9E 
 116      47C66481 
 116      5DD73D70 
 117 0015 2AE3DEF5 		.ascii	"*\343\336\365\256\373\220\220\340\356\301s\366\256\272"
 117      AEFB9090 
 117      E0EEC173 
 117      F6AEBA
 118 0024 4944CE05 		.ascii	"ID\316\005\311N\202\227\375k\266\231L\222Y\222\2310"
 118      C94E8297 
 118      FD6BB699 
 118      4C925992 
 118      9930
 119 0036 D31174EF 		.ascii	"\323\021t\357\271tB\014\301\335\203! \341\235\360F\005"
 119      B974420C 
 119      C1DD8321 
 119      20E19DF0 
 119      4605
 120 0048 AEC22AA2 		.ascii	"\256\302*\242<: !\240\022\202\033\201\005I@@\320=\013"
 120      3C3A2021 
 120      A012821B 
 120      81054940 
 120      40D03D0B 
 121 005c 288BBC24 		.ascii	"(\213\274$\267\352\353\356\351G\272g\272#\336>\251\232"
 121      B7EAEBEE 
 121      E947BA67 
 121      BA23DE3E 
 121      A99A
 122 006e 9A9EAE5F 		.ascii	"\232\236\256_\375\276\257\276\257\352\253\352\012\203"
 122      FDBEAFBE 
 122      AFEAABEA 
 122      0A83
 123 007c 18740523 		.ascii	"\030t\005#\324G\256+y\010\375\330\203\220\033!\364\033"
 123      D447AE2B 
 123      7908FDD8 
 123      83901B21 
 123      F41B
 124 008e 923248F2 		.ascii	"\2222H\362\222\264\202\244\243$\035'i\033y\266\203\244"
 124      92B482A4 
 124      A3241D27 
 124      691B79B6 
 124      83A4
 125 00a0 FD247D86 		.ascii	"\375$}\206\244\313G\322A\362\275\233\244c$}LR/IgH\272"
 125      A4CB47D2 
 125      41F2BD9B 
 125      A463247D 
 125      4C522F49 
 126 00b7 44D2BF48 		.ascii	"D\322\277H\272\206%\334\033\344\363\026I?a\020\032E"
 126      BA8625DC 
 126      1BE4F316 
 126      493F6110 
 126      1A45
 127 00c9 D2AF19A4 		.ascii	"\322\257\031\244\273(\016\305\333@>\307\221\337\266"
 127      BB280EC5 
 127      DB403EC7 
 127      91DFB6
ARM GAS  /tmp/cc7qF5TC.s 			page 9


 128 00d8 93F24A99 		.ascii	"\223\362J\231\003K\322xF\342t\212\374\356\"\237\357"
 128      034BD278 
 128      46E2748A 
 128      FCEE229F 
 128      EF
 129 00e9 90D446D2 		.ascii	"\220\324F\322\273$\275O\022#c\320\366\215W\367\035\300"
 129      BB24BD4F 
 129      122363D0 
 129      F68D57F7 
 129      1DC0
 130 00fb EEB6C0A6 		.ascii	"\356\266\300\246r\177\237|\236&\351<IO1\252\276.\223"
 130      727F9F7C 
 130      9E26E93C 
 130      494F31AA 
 130      BE2E93
 131 010e 348191DA 		.ascii	"4\201\221\332\361\312\272<K\356\235 \237\205\344\376"
 131      F1CABA3C 
 131      4BEE9D20 
 131      9F85E4FE 
 132 011e 2748AFD3 		.ascii	"'H\257\323\0132\027\312\203\266y\212\244O\221\304\351"
 132      0B3217CA 
 132      83B6798A 
 132      A44F91C4 
 132      E9
 133 012f 98ACD333 		.ascii	"\230\254\32332\017,\353T{},\327\373\035\311\256\312"
 133      320F2CEB 
 133      547B7D2C 
 133      D7FB1DC9 
 133      AECA
 134 0141 BFB1F2FD 		.ascii	"\277\261\362\375kr\177\030\257L\364\202 \324\012\255"
 134      6B727F18 
 134      AF4CF482 
 134      20D40AAD 
 135 0151 F5C2931D 		.ascii	"\365\302\223\035\203\276\207\346\012\344\362w\014Bh"
 135      83BE87E6 
 135      0AE4F277 
 135      0C4268
 136 0160 12E6F020 		.ascii	"\022\346\360 \037\352e\240\224\345C\277 O?\200V\013"
 136      1FEA65A0 
 136      94E543BF 
 136      204F3F80 
 136      560B
 137 0172 4263EFF3 		.ascii	"Bc\357\3637\206\011.\016\257\304\337#\355\215\306\350"
 137      3786092E 
 137      0EAFC4DF 
 137      23ED8DC6 
 137      E8
 138 0183 67E86552 		.ascii	"g\350eR\255Q\020V\376\233I\023(-,B\034^K\3008\274\006"
 138      AD511056 
 138      FE9B4913 
 138      282D2C42 
 138      1C5E4BC0 
 139 019a FF4C6A44 		.ascii	"\377LjD\020o\036\314\242\215\320\373H\376\305\344\272"
 139      106F1ECC 
 139      A28DD0FB 
 139      48FEC5E4 
 139      BA
ARM GAS  /tmp/cc7qF5TC.s 			page 10


 140 01ab 1FB50A75 		.ascii	"\037\265\012u3\305\276\203K\207\011\255\273\261\017"
 140      33C5BE83 
 140      4B8709AD 
 140      BBB10F
 141 01ba 3508C24C 		.ascii	"5\010\302LY\234dk~\2451\227*\303\266\372\275m\270V\020"
 141      599C646B 
 141      7EA53197 
 141      2AC3B6FA 
 141      BD6DB856 
 142 01cf A42AB529 		.ascii	"\244*\265)\253p\370\025\374\000\311\275\276$\021\372"
 142      AB70F815 
 142      FC00C9BD 
 142      BE2411FA 
 143 01df ABD7A716 		.ascii	"\253\327\247\026\250\037\015\246\352\377#\326\221\265"
 143      A81F0DA6 
 143      EAFF23D6 
 143      91B5
 144 01ed 812E133A 		.ascii	"\201.\023:2k\373#\202\220\301\341\215\204\022\203V`"
 144      326BFB23 
 144      8290C1E1 
 144      8D841283 
 144      5660
 145 01ff 3D90DC5C 		.ascii	"=\220\334\\\362\262\303\306\341\343\014\361\020,w\205"
 145      F2B2C3C6 
 145      E1E30CF1 
 145      102C7785 
 146 020f 1951B928 		.ascii	"\031Q\271(]\362\003\272n\350\255\373b?\026\232\2628"
 146      5DF203BA 
 146      6EE8ADFB 
 146      623F169A 
 146      B238
 147 0221 FC32C8B0 		.ascii	"\3742\310\260\3311\234_\327\253M\235Y\215\234\002\266"
 147      D9319C5F 
 147      D7AB4D9D 
 147      598D9C02 
 147      B6
 148 0232 CD0E5886 		.ascii	"\315\016X\206%7q\276\026\254\3151\230\236\331\002-\330"
 148      253771BE 
 148      16ACCD31 
 148      989ED902 
 148      2DD8
 149 0244 3E3B6043 		.ascii	">;`C\254\231-\324\202\275\347\030L\313\254F\334\332"
 149      AC992DD4 
 149      82BDE718 
 149      4CCBAC46 
 149      DCDA
 150 0256 798076C1 		.ascii	"y\200v\301\335\250I\020j\204V\217\225\325!\004\217\010"
 150      DDA84910 
 150      6A84568F 
 150      95D52104 
 150      8F08
 151 0268 291FE1F0 		.ascii	")\037\341\360\016|\267\336-\227\2748\210\272%\275\237"
 151      0E7CB7DE 
 151      2D97BC38 
 151      88BA25BD 
 151      9F
 152 0279 C62D855A 		.ascii	"\306-\205ZqY\247\344\226\034~\025\204\353\004\341h\335"
ARM GAS  /tmp/cc7qF5TC.s 			page 11


 152      7159A7E4 
 152      961C7E15 
 152      84EB04E1 
 152      68DD
 153 028b 01D81769 		.ascii	"\001\330\027i\374\215\316L\341\205,y<i}l}\012\342\273"
 153      FC8DCE4C 
 153      E1852C79 
 153      3C697D6C 
 153      7D0AE2BB 
 154 029f 8DE3494B 		.ascii	"\215\343IK'\343\227n\247\347\375z\347\322\241Bk\233"
 154      27E3976E 
 154      A7E7FD7A 
 154      E7D2A142 
 154      6B9B
 155 02b1 323608F5 		.ascii	"26\010\365\302\203\232\266\206(m\321\30169\234l\375"
 155      C2839AB6 
 155      86286DD1 
 155      C136399C 
 155      6CFD
 156 02c3 0578EF5E 		.ascii	"\005x\357^\020\264\013\233\016\0036\200\216\314Z'\015"
 156      10B40B9B 
 156      0E033680 
 156      8ECC5A27 
 156      0D
 157 02d4 031D00F4 		.ascii	"\003\035\000\364\367~\303\000k\030\006X\275_\263>\265"
 157      F77EC300 
 157      6B180658 
 157      BD5FB33E 
 157      B5
 158 02e5 D0D7C722 		.ascii	"\320\327\307\"g\0173d\202\302\262\366\314H\246\353\242"
 158      670F3364 
 158      82C2B2F6 
 158      CC48A6EB 
 158      A2
 159 02f6 DADED557 		.ascii	"\332\336\325W\3330\351#E\021\027\034\303\0151t\011\203"
 159      DB30E923 
 159      4511171C 
 159      C30D3174 
 159      0983
 160 0308 2E0ED46A 		.ascii	".\016\324j4\202K2sx\027\276\237\344m$\3274p\331\216"
 160      34824B32 
 160      737817BE 
 160      9FE46D24 
 160      D73470D9 
 161 031d CF0DB590 		.ascii	"\317\015\265\220\2318\360[Z\007\276\352\030\314\257"
 161      9938F05B 
 161      5A07BEEA 
 161      18CCAF
 162 032c 037B5B0B 		.ascii	"\003{[\013v\323\016\230\337\232\331v-\230\3008\005\323"
 162      76D30E98 
 162      DF9AD976 
 162      2D98C038 
 162      05D3
 163 033e 33DBA905 		.ascii	"3\333\251\005{\336\016\330\203\251:E\327?\352\364\317"
 163      7BDE0ED8 
 163      83A93A45 
 163      D73FEAF4 
ARM GAS  /tmp/cc7qF5TC.s 			page 12


 163      CF
 164 034f E17530D9 		.ascii	"\341u0\331\256\207\236z\035\362-\220\277\001\371V\310"
 164      AE879E7A 
 164      1DF22D90 
 164      BF01F956 
 164      C8
 165 0360 B741FE0E 		.ascii	"\267A\376\016\344\207 ?\014\371\337 \377H\333\277V#"
 165      E487203F 
 165      0CF9DF20 
 165      FF48DBBF 
 165      5623
 166 0372 C40A9CA9 		.ascii	"\304\012\234\251u-\3333\265\270h\301=t\010<\012z\230"
 166      752DDB33 
 166      B5B868C1 
 166      3D74083C 
 166      0A7A98
 167 0385 CD181D94 		.ascii	"\315\030\035\224\016u:\331\322\317\274\351\2420\301"
 167      0E753AD9 
 167      D2CFBCE9 
 167      A230C1
 168 0394 A3D0F843 		.ascii	"\243\320\370C\222Fow\323\231.<\223D0\034>\001\221\330"
 168      92466F77 
 168      D3992E3C 
 168      9344301C 
 168      3E0191D8 
 169 03a8 5B062A69 		.ascii	"[\006*i\2018|\0223$\3571\216\225\377\232\005\261W\217"
 169      81387C12 
 169      3324EF31 
 169      8E95FF9A 
 169      05B1578F 
 170 03bc ADC1F2FA 		.ascii	"\255\301\362\372\276\3250\310\233\011A\036\300\332\346"
 170      BED530C8 
 170      9B09411E 
 170      C0DAE6
 171 03cb 19AD9931 		.ascii	"\031\255\2311h/al\306R\367\030\207\317\000\313\263F"
 171      682F616C 
 171      C652F718 
 171      87CF00CB 
 171      B346
 172 03dd 96BB2496 		.ascii	"\226\273$\226gm\261\354\332\007\241\211\216\344\017"
 172      676DB1EC 
 172      DA07A189 
 172      8EE40F
 173 03ec D04B40B2 		.ascii	"\320K@\262\236\260\344\355Gj\307\027|\364%\204\216\034"
 173      9EB0E4ED 
 173      476AC717 
 173      7CF42584 
 173      8E1C
 174 03fe FE0C6CA0 		.ascii	"\376\014l\240\2015\332\200\333`\002n\275\011\270}jA"
 174      8135DA80 
 174      DB60026E 
 174      BD09B87D 
 174      6A41
 175 0410 36012B2B 		.ascii	"6\001++\275\200\177\000%\026\006Lr\343\321L\245\254"
 175      BD807F00 
 175      2516064C 
 175      72E3D14C 
ARM GAS  /tmp/cc7qF5TC.s 			page 13


 175      A5AC
 176 0422 9345A6DF 		.ascii	"\223E\246\337\273F\034\272P\245\237\241\300a\244\231"
 176      BB461CBA 
 176      50A59FA1 
 176      C061A499 
 177 0432 AA36FE9C 		.ascii	"\2526\376\234\3140\311\012\202e\005\016_\006W\304z\366"
 177      CC30C90A 
 177      8265050E 
 177      5F0657C4 
 177      7AF6
 178 0444 D8A716FA 		.ascii	"\330\247\026\372`\315\361\"k:\335\245\302NNw\313G\303"
 178      60CDF122 
 178      6B3ADDA5 
 178      C24E4E77 
 178      CB47C3
 179 0457 74770534 		.ascii	"tw\0054\331\334O\223FgJ\303\305\311\263V*\277HLY\275"
 179      D9DC4F93 
 179      46674AC3 
 179      C5C9B356 
 179      2ABF484C 
 180 046d 928AFF4C 		.ascii	"\222\212\377L\242\302\341\211\352\254j\005q^\205 \241"
 180      A2C2E189 
 180      EAAC6A05 
 180      715E8520 
 180      A1
 181 047e 3C087576 		.ascii	"<\010uv`Q5\231R\273\233\256\344,\022\304:\326\332x%"
 181      60513599 
 181      52BB9BAE 
 181      E42C12C4 
 181      3AD6DA78 
 182 0493 76566C6E 		.ascii	"vVln\332\264!\016\177\221\002\345\3667W\313\015\255"
 182      DAB4210E 
 182      7F9102E5 
 182      F63757CB 
 182      0DAD
 183 04a5 5AD63956 		.ascii	"Z\3269V\213_\253\026a\263 \370<i\374Y\260\265\024<\376"
 183      8B5FAB16 
 183      61B320F8 
 183      3C69FC59 
 183      B0B5143C 
 184 04ba AE3290D6 		.ascii	"\2562\220\3261\324\012\317\232\231\263\035\250\326m"
 184      31D40ACF 
 184      9A99B31D 
 184      A8D66D
 185 04c9 ED3035CC 		.ascii	"\35505\314\002\230\317\007\012\323{d\337V\311+^\000"
 185      0298CF07 
 185      0AD37B64 
 185      DF56C92B 
 185      5E00
 186 04db A02FFB79 		.ascii	"\240/\373y\205\307\340\025\036\275\245\223\257\264\245"
 186      85C7E015 
 186      1EBDA593 
 186      AFB4A5
 187 04ea 6B746CC1 		.ascii	"ktl\3013\344;\364\213\027\375\277\327\263\262\205\231"
 187      33E43BF4 
 187      8B17FDBF 
 187      D7B3B285 
ARM GAS  /tmp/cc7qF5TC.s 			page 14


 187      99
 188 04fb 8CA5514A 		.ascii	"\214\245QJvh\327\250j\031\215Q}m\307\250\254V\211v}"
 188      7668D7A8 
 188      6A198D51 
 188      7D6DC7A8 
 188      AC568976 
 189 0510 8D5A8915 		.ascii	"\215Z\211\025\233&\023\261l\2111W+F\215\313\251\030"
 189      9B2613B1 
 189      6C893157 
 189      2B468DCB 
 189      A918
 190 0522 8E7C23B5 		.ascii	"\216|#\265\010\3156zF\376n\177\322\\rZ|\356\025A\030"
 190      08CD367A 
 190      46FE6E7F 
 190      D25C725A 
 190      7CEE1541 
 191 0537 C2E12560 		.ascii	"\302\341%`\323\253\\w n\262k\"\013\264\272\335hG\267"
 191      D3AB5C77 
 191      206EB26B 
 191      220BB4BA 
 191      DD6847B7 
 192 054b 56CBF53B 		.ascii	"V\313\365;a\"+R\351\227j\307\256X\255Z\2616;\026\313"
 192      61222B52 
 192      E9976AC7 
 192      AE58AD5A 
 192      B1363B16 
 193 0560 A1C9A49A 		.ascii	"\241\311\244\232a\326\245\022I\236O\2153\306\200D^\253"
 193      61D6A512 
 193      499E4F8D 
 193      33C68044 
 193      5EAB
 194 0572 1579AB1D 		.ascii	"\025y\253\035\221\255\326m\337T\344\377M%\362\355;("
 194      91ADD66D 
 194      DF54E4FF 
 194      4D25F2ED 
 194      3B28
 195 0584 F226ADC8 		.ascii	"\362&\255\310;\035\213\354G\372K]\013\177\012k\245\353"
 195      3B1D8BEC 
 195      47FA4B5D 
 195      0B7F0A6B 
 195      A5EB
 196 0596 90D73034 		.ascii	"\220\32704o\204\374%\310[ _\003\371F\306\306z\352\264"
 196      6F84FC25 
 196      C85B205F 
 196      03F946C6 
 196      C67AEAB4 
 197 05aa 76727F17 		.ascii	"vr\177\027x\366\0140\346\021\304\033c\0329\223\225\301"
 197      78F60C30 
 197      E611C41B 
 197      631A3993 
 197      95C1
 198 05bc 1F94AA59 		.ascii	"\037\224\252Y(9\262\274~\256#{\007\214,[\031\272\014"
 198      2839B2BC 
 198      7EAE237B 
 198      078C2C5B 
 198      19BA0C
 199 05cf BAE04ABB 		.ascii	"\272\340J\273\014\322\3010\350\032\324x\2331\256/\346"
ARM GAS  /tmp/cc7qF5TC.s 			page 15


 199      0CD2C130 
 199      E81AD478 
 199      9B31AE2F 
 199      E6
 200 05e0 C0FA82DE 		.ascii	"\300\372\202\336O\277\003\335uP\331\352\222\327\307"
 200      4FBF03DD 
 200      7550D9EA 
 200      92D7C7
 201 05ef 6E057340 		.ascii	"n\005s@A\237x\370 Yl\247\262\315\337\334c\331\023mz"
 201      419F78F8 
 201      20596CA7 
 201      B2CDDFDC 
 201      63D9136D 
 202 0604 D334C478 		.ascii	"\3234\304x[-8\321\232{T[Kk\233\362jx\356\234\357S-\211"
 202      5B2D38D1 
 202      9A7B545B 
 202      4B6B9BF2 
 202      6A78EE9C 
 203 061c A42683FE 		.ascii	"\244&\203\376\354\326\353\336\3204%f\325t;\223i\241"
 203      ECD6EBDE 
 203      D0342566 
 203      D5743B93 
 203      69A1
 204 062e E47EBF31 		.ascii	"\344~\2771h\211c\355\372u\332\355\236\263L\356\255G"
 204      688963ED 
 204      FA75DAED 
 204      9EB34CEE 
 204      AD47
 205 0640 29EDE576 		.ascii	")\355\345v\340\314\242\006\263KkI\034\336\316\320\025"
 205      E0CCA206 
 205      B34B6B49 
 205      1CDECED0 
 205      15
 206 0651 D40E70A3 		.ascii	"\324\016p\243]\220wh\235\211A\253\335\006O\321\031g"
 206      5D907768 
 206      9D8941AB 
 206      DD064FD1 
 206      1967
 207 0663 5A517ABB 		.ascii	"ZQz\273\017\337\316i\026\304\032\326\213\352a\321\365"
 207      0FDFCE69 
 207      16C41AD6 
 207      8BEA61D1 
 207      F5
 208 0674 7C6D9A45 		.ascii	"|m\232E\227x\325\303p\370}\306KZ\177\305\320a6@\250"
 208      9778D5C3 
 208      70F87DC6 
 208      4B5A7FC5 
 208      D0613640 
 209 0689 849DA4B2 		.ascii	"\204\235\244\262\316Wz\352\007S+\240\367S\370\012\030"
 209      CE577AEA 
 209      07532BA0 
 209      F753F80A 
 209      18
 210 069a 2483FE4A 		.ascii	"$\203\376J\032\245\200.\237zo\247z\017k\036mWo+o\014"
 210      1AA5802E 
 210      9F7A6FA7 
 210      7A0F6B1E 
ARM GAS  /tmp/cc7qF5TC.s 			page 16


 210      6D576F2B 
 211 06b0 D32EFB54 		.ascii	"\323.\373Tr\034>\004\352\357bX\323j\014\3524j_'j\272"
 211      721C3E04 
 211      EAEF6258 
 211      D36A0CEA 
 211      346A5F27 
 212 06c6 6040106F 		.ascii	"`@\020o\356\363\011MYi\3670\224\235\203\177\036\032"
 212      EEF3094D 
 212      5969F730 
 212      949D837F 
 212      1E1A
 213 06d8 BE0186AA 		.ascii	"\276\001\206\252c0T\335t\247\035\252\314p\3047\316b"
 213      633054DD 
 213      74A71DAA 
 213      CC70C437 
 213      CE62
 214 06ea 3F874F00 		.ascii	"?\207O\000\306l\217C\014\006\315\207*=\306\361\356+"
 214      C66C8F43 
 214      0C06CD87 
 214      2A3DC6F1 
 214      EE2B
 215 06fc CE2FDD4D 		.ascii	"\316/\335M\267\233\"\210\327\317\302n\212\262\313c\371"
 215      B79B2288 
 215      D7CFC26E 
 215      8AB2CB63 
 215      F9
 216 070d 0A213944 		.ascii	"\012!9D\237\377\265\264\300\372\0048/3\347\234\372U"
 216      9FFFB5B4 
 216      C0FA0438 
 216      2F33E79C 
 216      FA55
 217 071f C43923DF 		.ascii	"\3049#\337\346N\030\237\317\331b\274\250s>x\274]\312"
 217      E64E189F 
 217      CFD962BC 
 217      A8733E78 
 217      BC5DCA
 218 0732 4B4E77FC 		.ascii	"KNw\374\367N\350\252\013@y\243S\312\014\332\006U\376"
 218      F74EE8AA 
 218      0B4079A3 
 218      53CA0CDA 
 218      0655FE
 219 0745 61A4BDAC 		.ascii	"a\244\275\254\005h\377\303\306\264R#\266\364,P_l\326"
 219      0568FFC3 
 219      C6B45223 
 219      B6F42C50 
 219      5F6CD6
 220 0758 D85BCDB6 		.ascii	"\330[\315\266K\253Y\033\313M\016_\006\377p\260\234c"
 220      4BAB591B 
 220      CB4D0E5F 
 220      06FF70B0 
 220      9C63
 221 076a D03E8F31 		.ascii	"\320>\2171r\237\305\014|9\312\240\017\222jr8S\232]Z"
 221      729FC50C 
 221      7C39CAA0 
 221      0F926A72 
 221      38539A5D 
 222 077f 7D73F89F 		.ascii	"}s\370\237 \335E\375\200\333\005\355\235\273S\355\235"
ARM GAS  /tmp/cc7qF5TC.s 			page 17


 222      20DD45FD 
 222      80DB05ED 
 222      9DBB53ED 
 222      9D
 223 0790 D3B4F729 		.ascii	"\323\264\367)\264w^\337^w\322\333\006\020\011\324\315"
 223      B4775EDF 
 223      5E77D2DB 
 223      061009D4 
 223      CD
 224 07a1 2483C6F9 		.ascii	"$\203\306\371f<o\246\3201\322\306\333m\016\177\016["
 224      663C6FA6 
 224      D031D2C6 
 224      DB6D0E7F 
 224      0E5B
 225 07b3 76E9371C 		.ascii	"v\3517\034\031\324\343\230\230_%F&\321\257/\310o{i\264"
 225      19D4E398 
 225      985F2546 
 225      26D1AF2F 
 225      C86F7B69 
 226 07c8 4BE22E3B 		.ascii	"K\342.;p\326Ko"
 226      70D64B6F 
 227 07d0 F176B863 		.ascii	"\361v\270c\244\202\365\205c,=\265\246vxU!\201]\263\003"
 227      A482F585 
 227      632C3DB5 
 227      A6767855 
 227      21815DB3 
 228 07e5 66BDE013 		.ascii	"f\275\340\023\347k\301\004\257S0=\263\346\366\245\375"
 228      E76BC104 
 228      AF53303D 
 228      B3E6F6A5 
 228      FD
 229 07f6 77CBED87 		.ascii	"w\313\355\207vul\252\320\356D\212\320\256\236u\034\332"
 229      76756CAA 
 229      D0EE448A 
 229      D0AE9E75 
 229      1CDA
 230 0808 7DB8824E 		.ascii	"}\270\202N33Y*w\2037edGyY\265<\233\265\216\354\014\277"
 230      3333592A 
 230      77833765 
 230      64477959 
 230      B53C9BB5 
 231 0820 31A8C98E 		.ascii	"1\250\311\216~\255\327t\342\242z]d\267\3041\234\277"
 231      7EADD774 
 231      E2A27A5D 
 231      64B7C431 
 231      9CBF
 232 0832 1F4B0DDD 		.ascii	"\037K\015\335\036\215\263\237\002g?\0151\335W\220\337"
 232      1E8DB39F 
 232      02673F0D 
 232      31DD5790 
 232      DF
 233 0843 80FC16E4 		.ascii	"\200\374\026\344\267!\027X\232\327B\376g\366\376o\033"
 233      B7211758 
 233      9AD742FE 
 233      67F6FE6F 
 233      1B
 234 0854 95412BBD 		.ascii	"\225A+\275\206xF?\367\247\263O\001\302\311\032\272\273"
ARM GAS  /tmp/cc7qF5TC.s 			page 18


 234      8678463F 
 234      F7A7B34F 
 234      01C2C91A 
 234      BABB
 235 0866 E120A679 		.ascii	"\341 \246yD\212i^d\351D\371\262\3278=\234\200\231\356"
 235      448A695E 
 235      64E944F9 
 235      B2D7383D 
 235      9C8099EE 
 236 087a DB91F72D 		.ascii	"\333\221\367-[\362\216\264\222W\012\237\373\357\346"
 236      5BF28EB4 
 236      92570A9F 
 236      FBEFE6
 237 0889 D83D0975 		.ascii	"\330=\011u\373fo\003\256\201\310\346%\220\376\232Az"
 237      FB666F03 
 237      AE81C8E6 
 237      2590FE9A 
 237      417A
 238 089b 5B679F16 		.ascii	"[g\237\026\262\206\020\341x\017\204\010\364~\372\225"
 238      B28610E1 
 238      780F8408 
 238      F47EFA95 
 239 08ab 674FCF7C 		.ascii	"gO\317|\335\312\263>\003\313\230\003\232o\304K=\232"
 239      DDCAB33E 
 239      03CB9803 
 239      9A6FC44B 
 239      3D9A
 240 08bd D7BC2F38 		.ascii	"\327\274/8\006\363\353\300\276\320\202\315\261\003\226"
 240      06F3EBC0 
 240      BED082CD 
 240      B10396
 241 08cc E208CF15 		.ascii	"\342\010\317\025\025\214\303G\340\245\240\0230=\263"
 241      158CC347 
 241      E0A5A013 
 241      303DB3
 242 08db AB5A664D 		.ascii	"\253ZfMv\230\2458\302sM\013\326\354\030L\317\354\206"
 242      7698A538 
 242      C2734D0B 
 242      D6EC184C 
 242      CFEC86
 243 08ee 166CA91D 		.ascii	"\026l\251\035\260\024g\023ni\301Z\035\203\351\231\335"
 243      B0146713 
 243      6E69C15A 
 243      1D83E999 
 243      DD
 244 08ff D682ADB6 		.ascii	"\326\202\255\266\003\346\267f\326xZ\244'E\344\240&\325"
 244      03E6B766 
 244      D6785AA4 
 244      2745E4A0 
 244      26D5
 245 0911 D1180EB7 		.ascii	"\321\030\016\267CP\223\376\364\312z#'\263\343&~\013"
 245      435093FE 
 245      F4CA7A23 
 245      27B3E326 
 245      7E0B
 246 0923 01C9EC31 		.ascii	"\001\311\3541\357\364y\274P\020kY\345\374\312\006\307"
 246      EFF479BC 
ARM GAS  /tmp/cc7qF5TC.s 			page 19


 246      50106B59 
 246      E5FCCA06 
 246      C7
 247 0934 80237542 		.ascii	"\200#uB\276t\272\203\221\0017\260\264\322\233v\000\315"
 247      BE74BA83 
 247      910137B0 
 247      B4D29B76 
 247      00CD
 248 0946 CE4D28F1 		.ascii	"\316M(\361\203\221\341\333\216\001\215'l4\227v,\342"
 248      8391E1DB 
 248      8E018D27 
 248      6C349776 
 248      2CE2
 249 0958 F022966A 		.ascii	"\360\"\226j}1\214\273K!_\016y+\344+ _\005\371\032\310"
 249      7D318CBB 
 249      4B215F0E 
 249      792BE42B 
 249      205F05F9 
 250 096e D741FE32 		.ascii	"\327A\3762\344\257B\276\011\362\327 \337\254\035\271"
 250      E4AF42BE 
 250      09F2D720 
 250      DFAC1DB9 
 251 097e AD6285F9 		.ascii	"\255b\205\371\254v\0231\303\306&b\241eo\252c\273r\376"
 251      AC761331 
 251      C3C62662 
 251      A1656FAA 
 251      63BB72FE 
 252 0992 EC801DC0 		.ascii	"\354\200\035\300I\226\312\0276\011\002\353\221\336\201"
 252      4996CA17 
 252      360902EB 
 252      91DE81
 253 09a1 30E89011 		.ascii	"0\350\220\021\314l\353`\222\011;s\305\367hN\300\364"
 253      CC6CEB60 
 253      92093B73 
 253      C5F7684E 
 253      C0F4
 254 09b3 82B99F82 		.ascii	"\202\271\237\202\235\3317a\012|\017\362\243\220\317"
 254      9DD93761 
 254      0A7C0FF2 
 254      A390CF
 255 09c2 0175CE83 		.ascii	"\001u\316\203\374\015\310\267\332Q\355qu\177\326\316"
 255      FC0DC8B7 
 255      DA51ED71 
 255      757FD6CE 
 256 09d2 510DAC1D 		.ascii	"Q\015\254\035\251\344\351\356\344\332\256\347\004!\303"
 256      A9E4E9EE 
 256      E4DAAEE7 
 256      0421C3
 257 09e1 2C34D03D 		.ascii	",4\320=\316\341w\210\351\244}\014\016\030\032\347\276"
 257      CEE17788 
 257      E9A47D0C 
 257      0E181AE7 
 257      BE
 258 09f2 B92761EE 		.ascii	"\271'a\356\333\221~\356\243\321\336\311\345\272\003"
 258      DB917EEE 
 258      A3D1DEC9 
 258      E5BA03
ARM GAS  /tmp/cc7qF5TC.s 			page 20


 259 0a01 86737D58 		.ascii	"\206s}X\306\034\300\334G\3606\237\204\001N\002kv\014"
 259      C61CC0DC 
 259      47F0369F 
 259      84014E02 
 259      6B760C
 260 0a14 A6333FF1 		.ascii	"\2463?\361m-\330\022;`)VG\207\265`-\216\301\214\246"
 260      6D2DD812 
 260      3B602956 
 260      4787B560 
 260      2D8EC18C 
 261 0a29 A758DA4E 		.ascii	"\247X\332Np\361]`Em\220\357\201|\257>\314Z\3453\006"
 261      70F15D60 
 261      456D90EF 
 261      817CAF3E 
 261      CC5AE533 
 262 0a3e 7552FF68 		.ascii	"uR\377h\360\324\216D\351\021\255lt\033kn\243\337E\215"
 262      F0D48E44 
 262      E911AD6C 
 262      741B6B6E 
 262      A3DF458D 
 263 0a52 604A0B07 		.ascii	"`J\013\007i\216\226\014E\246\236'\331\021y\236\341\360"
 263      698E960C 
 263      45A69E27 
 263      D911799E 
 263      E1F0
 264 0a64 0118735F 		.ascii	"\001\030s_\363\351\267\0105\254\017\310\307)i\375\003"
 264      F3E9B708 
 264      35AC0FC8 
 264      C72969FD 
 264      03
 265 0a75 C9098596 		.ascii	"\311\011\205\2264'D\246+\360\312+\307\375\354w\241\244"
 265      342744A6 
 265      2BF0CA2B 
 265      C7FDEC77 
 265      A1A4
 266 0a87 DB6291FC 		.ascii	"\333b\221\374\335B\260\0174\355d\371\324\302\2404\012"
 266      DD42B00F 
 266      34ED64F9 
 266      D4C2A034 
 266      0A
 267 0a98 E9501532 		.ascii	"\351P\0252\034-\027z/\367\036\177\265\355n:\250\011"
 267      1C2D177A 
 267      2FF71E7F 
 267      B5ED6E3A 
 267      A809
 268 0aaa 7D7D3390 		.ascii	"}}3\220\375\205c'\233\346\2754\203v\030:\371\307h\225"
 268      FD856327 
 268      9BE6BD34 
 268      8376183A 
 268      F9C76895 
 269 0abe 2034C15B 		.ascii	" 4\301[2y5\265\027\2368\310\0167m\006\036\"\327\277"
 269      327935B5 
 269      179E38C8 
 269      0E376D06 
 269      1E22D7BF 
 270 0ad2 A3359494 		.ascii	"\2435\224\224\260^`\201\022\222\353\350\024\337\305"
 270      B05E6081 
ARM GAS  /tmp/cc7qF5TC.s 			page 21


 270      1292EBE8 
 270      14DFC5
 271 0ae1 EAFE0344 		.ascii	"\352\376\003D\022N|-\334!\\\352\353\033,\361e\320\376"
 271      124E7C2D 
 271      DC215CEA 
 271      EB1B2CF1 
 271      65D0FE
 272 0af4 349438FC 		.ascii	"4\2248\374!K\303\300\356\001P\3526R\372\310\224\322"
 272      214BC3C0 
 272      EE0150EA 
 272      3652FAC8 
 272      94D2
 273 0b06 2503A52E 		.ascii	"%\003\245.\233\224\216\015\200\3221#\245\277\367\247"
 273      9B948E0D 
 273      80D23123 
 273      A5BFF7A7 
 274 0b16 D47A4AEC 		.ascii	"\324zJ\354i\247g\274\205[4\3501X\200\313\332\004O\312"
 274      69A767BC 
 274      855B34E8 
 274      315880CB 
 274      DA044FCA 
 275 0b2a 16A0F63A 		.ascii	"\026\240\366:\207\237f\014C\254\314j\363z*\015\354\317"
 275      879F660C 
 275      43ACCC6A 
 275      F37A2A0D 
 275      ECCF
 276 0b3c 73F8630B 		.ascii	"s\370c\013IT\014\243\326\350\366\351\245N\\\273\252"
 276      49540CA3 
 276      D6E8F6E9 
 276      A54E5CBB 
 276      AA
 277 0b4d 5E6CACE9 		.ascii	"^l\254\351\355\2331\334\276\235\2362\332)}Uj0\324c\206"
 277      ED9B31DC 
 277      BE9D9E32 
 277      DA297D55 
 277      6A30D463 
 278 0b62 2E50987C 		.ascii	".P\230|b\322\201\215\275u[\3762LXQ+\366\365=\352\300"
 278      62D2818D 
 278      BD755BFE 
 278      324C5851 
 278      2BF6F53D 
 279 0b78 5FCEA6DC 		.ascii	"_\316\246\334hYi\021B(\033'\013~H\347\260Oa\347\344"
 279      68596911 
 279      42281B27 
 279      0B7E48E7 
 279      B04F61E7 
 280 0b8d 4CBFB173 		.ascii	"L\277\261s\205\356$\025\352w\024\325\351\341\012\261"
 280      85EE2415 
 280      EA7714D5 
 280      E9E10AB1 
 281 0b9d 6F1E1C3B 		.ascii	"o\036\034;\372\034F\273\213\375\332\033\330\311\212"
 281      FA1C46BB 
 281      8BFDDA1B 
 281      D8C98A
 282 0bac 640F1C35 		.ascii	"d\017\03459\214\303\240[\026\235p\321\264\023\272\017"
 282      398CC3A0 
 282      5B169D70 
ARM GAS  /tmp/cc7qF5TC.s 			page 22


 282      D1B413BA 
 282      0F
 283 0bbd 1FA9C373 		.ascii	"\037\251\303sg\266J\276\344\240\037.\033\355\201\206"
 283      67B64ABE 
 283      E4A01F2E 
 283      1BED8186 
 284 0bcd 31C92FF2 		.ascii	"1\311/\362|a\240\326t\2279\265+\246\324\026\237\276"
 284      7C61A0D6 
 284      749739B5 
 284      2BA6D416 
 284      9FBE
 285 0bdf F4016E1A 		.ascii	"\364\001n\032\000\265\253\375\034\212A\213-\232\376"
 285      00B5ABFD 
 285      1C8A418B 
 285      2D9AFE
 286 0bee CAB4E985 		.ascii	"\312\264\351\205[\366\377\307\"a\2674\226K\200\014\332"
 286      5BF6FFC7 
 286      2261B734 
 286      964B800C 
 286      DA
 287 0bff 6301715D 		.ascii	"c\001q]\017\361#\264\202B\364\254m\233\261\261V\250"
 287      0FF123B4 
 287      8242F4AC 
 287      6D9BB1B1 
 287      56A8
 288 0c11 9B4DF7D7 		.ascii	"\233M\367\327q\037\253\034\006~/\211\242\204^\272\243"
 288      711FAB1C 
 288      067E2F89 
 288      A2845EBA 
 288      A3
 289 0c22 BF14F0A6 		.ascii	"\277\024\360\246\012H\301^\023\311\334ry\030\211\331"
 289      0A48C15E 
 289      13C9DC72 
 289      791889D9 
 290 0c32 3A4818D6 		.ascii	":H\030\326\327\207\207+\263\256U\214\330\232\214\346"
 290      D787872B 
 290      B3AE558C 
 290      D89A8CE6 
 291 0c42 E8BFC025 		.ascii	"\350\277\300%_\234\034\375\237]\2020\304$\372\323?\317"
 291      5F9C1CFD 
 291      9F5D8230 
 291      C424FAD3 
 291      3FCF
 292 0c54 11B6A641 		.ascii	"\021\266\246A\242\3761\006u\202(5.C\240xYz\217B\357"
 292      A2FE3106 
 292      75822835 
 292      2E43A078 
 292      597A8F42 
 293 0c69 A70F14BF 		.ascii	"\247\017\024\277li\356\277\355*;\230X/4\340\232\327"
 293      6C69EEBF 
 293      ED2A3B98 
 293      582F34E0 
 293      9AD7
 294 0c7b 7F9824F0 		.ascii	"\177\230$\360\2306\204\222\305\372\372\315\013\367J"
 294      98368492 
 294      C5FAFACD 
 294      0BF74A
ARM GAS  /tmp/cc7qF5TC.s 			page 23


 295 0c8a E797EAE1 		.ascii	"\347\227\352\341]dC\246\276\227\234`m\253\357l\223\017"
 295      5D6443A6 
 295      BE979C60 
 295      6DABEF6C 
 295      930F
 296 0c9c 10CF06B0 		.ascii	"\020\317\006\260y\003\007k=\262\017\306\232\277\000"
 296      7903076B 
 296      3DB20FC6 
 296      9ABF00
 297 0cab D0D24CA3 		.ascii	"\320\322L\243\357\373\014\256\357\323\273\276\317\247"
 297      EFFB0CAE 
 297      EFD3BBBE 
 297      CFA7
 298 0cb9 16FA94CB 		.ascii	"\026\372\224\313\370B\365[\254c\345[\317\273\264'E3"
 298      F842F55B 
 298      AC63E55B 
 298      CFBBB427 
 298      4533
 299 0ccb 15031850 		.ascii	"\025\003\030PTOL\362\320\214Md\202\236\355\221\200\031"
 299      544F4CF2 
 299      D08C4D64 
 299      829EED91 
 299      8019
 300 0cdd B4D131A2 		.ascii	"\264\3211\242_gN\260y\344\364\3745Y\305A\264m+\346\354"
 300      5F674EB0 
 300      79E4F4FC 
 300      3559C541 
 300      B46D2BE6 
 301 0cf2 A791795A 		.ascii	"\247\221yZ\215l\266\303?\305j\342\272\374Z\3210\255"
 301      8D6CB6C3 
 301      3FC56AE2 
 301      BAFC5AD1 
 301      30AD
 302 0d04 755AECE2 		.ascii	"uZ\354\342\313\323\314\216\0268\352\321\014*|\313`j"
 302      CBD3CC8E 
 302      1638EAD1 
 302      0C2A7CCB 
 302      606A
 303 0d16 36A1A828 		.ascii	"6\241\250(\213]\326/\004\014\2771Ht,\252\276\253n\312"
 303      8B5DD62F 
 303      040CBF31 
 303      48742CAA 
 303      BEAB6ECA 
 304 0d2a 9EAF0BCE 		.ascii	"\236\257\013\316\322\300\231\355\364i8JK\247\231.\332"
 304      D2C099ED 
 304      F469384A 
 304      4BA7992E 
 304      DA
 305 0d3b 99752E38 		.ascii	"\231u.88\005y\023\344\013 _\352\322-\240\332\3739\246"
 305      38057913 
 305      E40B205F 
 305      EAD22DA0 
 305      DAFB39A6 
 306 0d4f 346E6950 		.ascii	"4niP\325\001\016\331\305U\206v\267~3D\035\2679,\250"
 306      D5010ED9 
 306      C5558676 
 306      B77E3344 
ARM GAS  /tmp/cc7qF5TC.s 			page 24


 306      1DB7392C 
 307 0d64 921A1FE3 		.ascii	"\222\032\037\343\360r\227\323uL\213\313|\035\243\375"
 307      F07297D3 
 307      754C8BCB 
 307      7C1DA3FD 
 308 0d74 4733F529 		.ascii	"G3\365)\"\370G\231\306y\250\037\213V\2274\017=\214\266"
 308      22F84799 
 308      C679A81F 
 308      8B569734 
 308      0F3D8CB6 
 309 0d88 080DE263 		.ascii	"\010\015\342c\034\376\232,\257\222\312\227\356\026r"
 309      1CFE9A2C 
 309      AF92CA97 
 309      EE1672
 310 0d97 F8362C30 		.ascii	"\3706,0\251^\376\204n\010\015\002\231\255\256\017cM"
 310      A95EFE84 
 310      6E080D02 
 310      99ADAE0F 
 310      634D
 311 0da9 97890D9F 		.ascii	"\227\211\015\237`i\234\226Q\304\344\236X\003\243\364"
 311      60699C96 
 311      51C4E49E 
 311      5803A3F4 
 312 0db9 A163D1D7 		.ascii	"\241c\321\327Z\210\356\327wF\277z\253U\307\2059\373"
 312      5A88EED7 
 312      7746BF7A 
 312      AB55C785 
 312      39FB
 313 0dcb 90D893DF 		.ascii	"\220\330\223\337H\242\013iQAy0\350\234QK&\214\327\273"
 313      48A20B69 
 313      51417930 
 313      E89C514B 
 313      268CD7BB 
 314 0ddf B4F3BF64 		.ascii	"\264\363\277d\033\371h\017\321\204\270\253\035K#\033"
 314      1BF9680F 
 314      D184B8AB 
 314      1D4B231B 
 315 0def D54C86D4 		.ascii	"\325L\206\324$\207\327\271~\244\341\333 \207LM\262\002"
 315      2487D7B9 
 315      7EA4E1DB 
 315      20874C4D 
 315      B202
 316 0e01 875A2CB0 		.ascii	"\207Z,\260\245\221H\246\361\244R\333'7\272\321\261\332"
 316      A59148A6 
 316      F1A452DB 
 316      2737BAD1 
 316      B1DA
 317 0e13 3659A82D 		.ascii	"6Y\250-#\215\3326\250j\273\017]\312\\&,|Lm^\362\006"
 317      238DDA36 
 317      A86ABB0F 
 317      5DCA5C26 
 317      2C7C4C6D 
 318 0e2a 595A69C8 		.ascii	"YZi\310\220W\230\222\207L\302\3122K\206\307\326v$\036"
 318      90579892 
 318      874CC2CA 
 318      324B86C7 
 318      D676241E 
ARM GAS  /tmp/cc7qF5TC.s 			page 25


 319 0e3e F2481A93 		.ascii	"\362H\032\223{\247\245\300\330;7l\364\316_\255{\247"
 319      7BA7A5C0 
 319      D83B376C 
 319      F4CE5FAD 
 319      7BA7
 320 0e50 CBB477B6 		.ascii	"\313\264w\266\244\356\035I\001\367\241\272\254\264\222"
 320      A4EE1D49 
 320      01F7A1BA 
 320      ACB492
 321 0e5f 77A7949C 		.ascii	"w\247\224\234I!\371a\275\344=\375$\237\223\225^\362"
 321      4921F961 
 321      BDE43DFD 
 321      249F9395 
 321      5EF2
 322 0e71 1DD6927F 		.ascii	"\035\326\222\177h*\371\366on\227#\225\332\036\271\321"
 322      682AF9F6 
 322      6F6E9723 
 322      95DA1EB9 
 322      D1
 323 0e82 DD8EED72 		.ascii	"\335\216\355r\217\205]\272\323\330e\233\326.\027\312"
 323      8F855DBA 
 323      D3D8659B 
 323      D62E17CA 
 324 0e92 BDB3DBBA 		.ascii	"\275\263\333\272w\216\245\354\035\326\254w&a%\000\222"
 324      778EA5EC 
 324      1DD6AC77 
 324      26612500 
 324      92
 325 0ea3 B4A9FDAE 		.ascii	"\264\251\375\256\250i\241 v?aGU\017\352\005\343\360"
 325      A869A120 
 325      763F6147 
 325      550FEA05 
 325      E3F0
 326 0eb5 7EC7AA3A 		.ascii	"~\307\252:`\241*e\023\300\252^\207VU-\262\252\366\353"
 326      60A12A65 
 326      13C0AA5E 
 326      8756552D 
 326      B2AAF6EB 
 327 0ec9 54456B2C 		.ascii	"TEk,\226E\323+H~wZc\373\377\274\351\267wa\313\374}\355"
 327      9645D32B 
 327      487E775A 
 327      63FBFFBC 
 327      E9B77761 
 328 0ee1 BF7F1AE2 		.ascii	"\277\177\032\342\222S)\342\222\017\\\346\273\217\322"
 328      925329E2 
 328      920F5CE6 
 328      BB8FD2
 329 0ef0 2AD4AAD6 		.ascii	"*\324\252\326A\313ZgS\324\3524\251%B-\372\037\177V\265"
 329      41CB5A67 
 329      53D4EA34 
 329      A925422D 
 329      FA1F7F56 
 330 0f05 CE5BECE1 		.ascii	"\316[\354\341KkG\253Z]\206x\353\227#FdK\177\261Dv9W"
 330      4B6B47AB 
 330      5A5D8678 
 330      EB972346 
 330      644B7FB1 
ARM GAS  /tmp/cc7qF5TC.s 			page 26


 331 0f1d 915D158B 		.ascii	"\221]\025\213\363\211\354\242\342\361\243r\263\307\215"
 331      F389ECA2 
 331      E2F1A372 
 331      B3C78D
 332 0f2c CBCF1E53 		.ascii	"\313\317\036S8v\3023\271\364\247`\025I\025\025%#\312"
 332      3876C233 
 332      B9F4A760 
 332      15491515 
 332      2523CA
 333 0f3f 515682AF 		.ascii	"QV\202\257\034\225\033,\253\212\304\202\274g\314S\023"
 333      1C951B2C 
 333      AB8AC482 
 333      BC67CC53 
 333      13
 334 0f50 FD79E8DE 		.ascii	"\375y\350\336\354\352D<;\022\015UT\227\204\263\243\341"
 334      ECEA443C 
 334      3B120D55 
 334      549784B3 
 334      A3E1
 335 0f62 691591C9 		.ascii	"i\025\221\311\331\011\276$\022\345I\215\214j\362I\252"
 335      D909BE24 
 335      12E5498D 
 335      8C6AF249 
 335      AA
 336 0f73 F00F993D 		.ascii	"\360\017\231=V\311\205\312#\321pv\260$\\\312UW\360A"
 336      56C985CA 
 336      23D17076 
 336      B0245CCA 
 336      5557F041 
 337 0f87 FED9AA70 		.ascii	"\376\331\252p\202T\273+\030T*\272\307O\310/\010x&\024"
 337      8254BB2B 
 337      18542ABA 
 337      C74FC82F 
 337      08782614 
 338 0f9b FFBEB020 		.ascii	"\377\276\260 \340"
 338      E0
 339 0fa0 9D505458 		.ascii	"\235PTXP\220\037p\027N,\314\017\260cI\232\220\037\300"
 339      50901F70 
 339      174E2CCC 
 339      0FB06349 
 339      9A901FC0 
 340 0fb4 FF05CDE4 		.ascii	"\377\005\315\344\374*\310\313\025i\221M\204yw\250\""
 340      FC2AC8CB 
 340      1569914D 
 340      847977A8 
 340      22
 341 0fc5 CCC5F193 		.ascii	"\314\305\361\223\256\337\026\005\002\256qy\377\031p"
 341      AEDF1605 
 341      02AE7179 
 341      FF1970
 342 0fd4 3DFE4460 		.ascii	"=\376D`\034\315\236d\177\033\010dDb\225\261\222p\220"
 342      1CCD9E64 
 342      7F1B0864 
 342      446295B1 
 342      927090
 343 0fe7 7FC0A80F 		.ascii	"\177\300\250\017\205)U@\"\034\217p\025T\376\"(\345\307"
 343      85295540 
ARM GAS  /tmp/cc7qF5TC.s 			page 27


 343      221C8F70 
 343      1554FE22 
 343      28E5C7
 344 0ffa 23CF84E3 		.ascii	"#\317\204\343\203\265"
 344      83B5
 345 1000 5F9E1E5F 		.ascii	"_\236\036_\234\013\022R\261\312B\241l.^\371P4\026\015"
 345      9C0B1252 
 345      B1CA42A1 
 345      6C2E5EF9 
 345      5034160D 
 346 1014 3F14E626 		.ascii	"?\024\346&G\262\037\0361zDn\022\223h\207\010L\360<\211"
 346      47B21F1E 
 346      317A446E 
 346      12936887 
 346      084CF03C 
 347 1029 C873A471 		.ascii	"\310s\244q/\245<:\310\373$\362\244\344\236\026\217\360"
 347      2FA53C3A 
 347      C8FB24F2 
 347      A4E49E16 
 347      8FF0
 348 103b 61573CCC 		.ascii	"aW<\314\225\214\3262\013\305*+cQ\271\263\036\017\214"
 348      958CD632 
 348      0BC52A2B 
 348      6351B9B3 
 348      1E0F8C
 349 104e CF1B3F9D 		.ascii	"\317\033?\235\336\253\212T\204\343\211\3541yy\331\241"
 349      DEAB8A54 
 349      84E389EC 
 349      317979D9 
 349      A1
 350 105f 724587EE 		.ascii	"rE\207\356\312D\031\301\226\325H\260\345\022[U\315\263"
 350      CA4419C1 
 350      96D548B0 
 350      E5125B55 
 350      CDB3
 351 1071 6561FE5E 		.ascii	"ea\376^-p4\242\212\034*'\265}\211g\023|\244\222\260"
 351      2D7034A2 
 351      8A1C2A27 
 351      B57D8967 
 351      137CA492 
 352 1086 7391E779 		.ascii	"s\221\347y\027\251\300{\200\025\357\246\264x\366\231"
 352      17A9C07B 
 352      8015EFA6 
 352      B478F699 
 353 1096 4ADE6FD4 		.ascii	"J\336o\324Z,A2\212E\013\004eP\370\231p\224\017&b\325"
 353      5A2C4132 
 353      8A450B04 
 353      6550F899 
 353      70940F26 
 354 10ac F11081CA 		.ascii	"\361\020\201\312\322~u\227Vpe\211\301p+\304UTL\346B"
 354      D27E7597 
 354      56706589 
 354      C1702BC4 
 354      55544CE6 
 355 10c1 53823C13 		.ascii	"S\202<\023\232\354\256\342\342\\\245\033~\360%J\022"
 355      9AECAEE2 
 355      E25CA51B 
ARM GAS  /tmp/cc7qF5TC.s 			page 28


 355      7EF0254A 
 355      12
 356 10d2 3CC793BA 		.ascii	"<\307\223\272\276\242\374\340\304\247\306>5\266\330"
 356      BEA2FCE0 
 356      C4A7C63E 
 356      35B6D8
 357 10e1 4B4A45C5 		.ascii	"KJE\305\023\0123\310g\240\340\361\374\337\273\341\221"
 357      130A33C8 
 357      67A0E0F1 
 357      FCDFBBE1 
 357      91
 358 10f2 945D38B5 		.ascii	"\224]8\265:\\\015Z\371N$J\344\221\276\023s!\206,\027"
 358      3A5C0D5A 
 358      F94E244A 
 358      E491BE13 
 358      7321862C 
 359 1107 3394E260 		.ascii	"3\224\342`\276\234\012\230P~\310L\204+\271\252\362X"
 359      BE9C0A98 
 359      507EC84C 
 359      842BB9AA 
 359      F258
 360 1119 9C94BF43 		.ascii	"\234\224\277Cd\013&\277\273CD\030\236%9\261\265J\337"
 360      640B26BF 
 360      BB434418 
 360      9E2539B1 
 360      B54ADF
 361 112c D4E0342E 		.ascii	"\324\3404.\302G\242e\244\024\212UG\371p<cjpruii8\356"
 361      C247A265 
 361      A4148A55 
 361      47F9703C 
 361      636A7072 
 362 1145 9E1AE463 		.ascii	"\236\032\344cU^\362H\274\212\217\223\317x\011\371\364"
 362      555EF248 
 362      BC8A8F93 
 362      CF7809F9 
 362      F4
 363 1156 4D8DC6F8 		.ascii	"M\215\306\370H\351\263\244\365\251A\251\350\231\032"
 363      48E9B3A4 
 363      F5A941A9 
 363      E8991A
 364 1165 AC8844A7 		.ascii	"\254\210D\247x\"\320\372\240X5\257\241\353\211A\301"
 364      7822D0FA 
 364      A05835AF 
 364      A1EB8941 
 364      C1
 365 1176 CC24C2D3 		.ascii	"\314$\302\323\371\354\274\361Ec\213\210\017Kn\374\304"
 365      F9ECBCF1 
 365      45638B88 
 365      0F4B6EFC 
 365      C4
 366 1187 C8E9D3B3 		.ascii	"\310\351\323\263\301aKG\3762g\372h*\374\304\242\307"
 366      C1614B47 
 366      FE3267FA 
 366      682AFCC4 
 366      A2C7
 367 1199 03C5C162 		.ascii	"\003\305\301bb!\371\341R6/\220CR.I\243\\c\212\013\003"
 367      6221F9E1 
ARM GAS  /tmp/cc7qF5TC.s 			page 29


 367      52362F90 
 367      43522E49 
 367      A35C638A 
 368 11af AE40F184 		.ascii	"\256@\361\204\000\033\370\035q\254\"\222\362H9?\340"
 368      001BF81D 
 368      71AC2292 
 368      F248393F 
 368      E0
 369 11c0 0B141415 		.ascii	"\013\024\024\025\004\236.\310\317a\2135\337r\335\325"
 369      049E2EC8 
 369      CF618B35 
 369      DF72DDD5 
 370 11d0 092E4E1D 		.ascii	"\011.N\035,\026\232\342\211O\257\344\022S\036I7\250"
 370      2C169AE2 
 370      894FAFE4 
 370      12531E49 
 370      37A8
 371 11e2 40F3F2A8 		.ascii	"@\363\362\250\"9\225<\260\270\023U\341p\011\033\212"
 371      2239953C 
 371      B0B81355 
 371      E170091B 
 371      8A
 372 11f3 E790944B 		.ascii	"\347\220\224K\322(\331\325\362b\321\322H\231+T\316\305"
 372      D228D9D5 
 372      F262D1D2 
 372      48992B54 
 372      CEC5
 373 1205 BD955C24 		.ascii	"\275\225\\$:\"\204\274\305\320?9,\027/\223\313\271\362"
 373      3A2284BC 
 373      C5D03F39 
 373      2C172F93 
 373      CBB9F2
 374 1218 E7A8BB42 		.ascii	"\347\250\273B\345\305\345%E\025\341p\025\351Z\332|\244"
 374      E5C5E525 
 374      4515E170 
 374      15E95ADA 
 374      7CA4
 375 122a 84989D54 		.ascii	"\204\230\235T\244\024\203\374=\312xF\030\360e\361Xu"
 375      A41483FC 
 375      3DCA7846 
 375      18F065F1 
 375      5875
 376 123c 151D01BC 		.ascii	"\025\035\001\274\211\222\"\236\310\343\013\225\027="
 376      8992229E 
 376      C8E30B95 
 376      173D
 377 124a 9B181B8D 		.ascii	"\233\030\033\215\360\367\2450'\302\330K>\350clQ~\316"
 377      F0F7A530 
 377      27C2D84B 
 377      3EE8636C 
 377      517ECE
 378 125d 206A1592 		.ascii	" j\025\222\325\004C\245e?M\353\261\345!b=t\230K\360"
 378      D50443A5 
 378      653F4DEB 
 378      B1E52162 
 378      3D74984B 
 379 1272 53B88A48 		.ascii	"S\270\212HY\224\030\000\365\374_=\234\034\301h\321="
ARM GAS  /tmp/cc7qF5TC.s 			page 30


 379      59941800 
 379      F5FC5F3D 
 379      9C1CC168 
 379      D13D
 380 1284 6D329708 		.ascii	"m2\227\010\273\246\205\243%\356(W\031\256\362\362\245"
 380      BBA685A3 
 380      25EE2857 
 380      19AEF2F2 
 380      A5
 381 1295 D5D110F9 		.ascii	"\325\321\020\371\201~T\015V\232\004\035\005\371\301"
 381      817E540D 
 381      569A041D 
 381      05F9C1
 382 12a4 120DE546 		.ascii	"\022\015\345F\3027\215\223U\345\233Lm*\034\317A\311"
 382      C2378D93 
 382      55E59B4C 
 382      6D2A1CCF 
 382      41C9
 383 12b6 7BB9CABD 		.ascii	"{\271\312\275\\\365\336(Oy\270\242\"\206\334\221\222"
 383      5CF5DE28 
 383      4F79B8A2 
 383      2286DC91 
 383      92
 384 12c7 8A30FA3F 		.ascii	"\2120\372?Q\366m\252"
 384      51F66DAA 
 385              		.text
 386              		.section	.gnu.lto_.symtab.a95c7d47e7cb846a,"",%progbits
 387 0000 54687265 		.ascii	"Thread1\000\000\000\000\000\000\000\000\000\000\000"
 387      61643100 
 387      00000000 
 387      00000000 
 387      0000
 388 0012 00CE0100 		.ascii	"\000\316\001\000\000Thread2\000\000\000\000\000\000"
 388      00546872 
 388      65616432 
 388      00000000 
 388      0000
 389 0024 00000000 		.ascii	"\000\000\000\000\000\000\325\001\000\000Thread3\000"
 389      0000D501 
 389      00005468 
 389      72656164 
 389      3300
 390 0036 00000000 		.ascii	"\000\000\000\000\000\000\000\000\000\000\000\331\001"
 390      00000000 
 390      000000D9 
 390      01
 391 0043 00006D61 		.ascii	"\000\000main\000\000\000\000\000\000\000\000\000\000"
 391      696E0000 
 391      00000000 
 391      00000000 
 392 0053 0000DD01 		.ascii	"\000\000\335\001\000\000nil_thd_configs\000\000\000"
 392      00006E69 
 392      6C5F7468 
 392      645F636F 
 392      6E666967 
 393 006b 00000000 		.ascii	"\000\000\000\000\000\000\000\000\000\374\001\000\000"
 393      00000000 
ARM GAS  /tmp/cc7qF5TC.s 			page 31


 393      00FC0100 
 393      00
 394 0078 77615468 		.ascii	"waThread1\000\000\000\000\000\000\000\000\000\000\000"
 394      72656164 
 394      31000000 
 394      00000000 
 394      00000000 
 395 008c 00270200 		.ascii	"\000'\002\000\000waThread2\000\000\000\000\000\000\000"
 395      00776154 
 395      68726561 
 395      64320000 
 395      00000000 
 396 00a1 00000000 		.ascii	"\000\000\000\000\0003\002\000\000waThread3\000\000\000"
 396      00330200 
 396      00776154 
 396      68726561 
 396      64330000 
 397 00b6 00000000 		.ascii	"\000\000\000\000\000\000\000\000\000<\002\000\000SD"
 397      00000000 
 397      003C0200 
 397      005344
 398 00c5 31000002 		.ascii	"1\000\000\002\000\000\000\000\000\000\000\000\000\372"
 398      00000000 
 398      00000000 
 398      00FA
 399 00d3 01000063 		.ascii	"\001\000\000chThdSleep\000\000\002\000\000\000\000\000"
 399      68546864 
 399      536C6565 
 399      70000002 
 399      00000000 
 400 00e8 00000000 		.ascii	"\000\000\000\000\340\001\000\000_pal_lld_setgroupmo"
 400      E0010000 
 400      5F70616C 
 400      5F6C6C64 
 400      5F736574 
 401 0103 64650000 		.ascii	"de\000\000\002\000\000\000\000\000\000\000\000\000\344"
 401      02000000 
 401      00000000 
 401      0000E4
 402 0112 01000073 		.ascii	"\001\000\000sdStart\000\000\002\000\000\000\000\000"
 402      64537461 
 402      72740000 
 402      02000000 
 402      0000
 403 0124 00000000 		.ascii	"\000\000\000\000\360\001\000\000chSysInit\000\000\002"
 403      F0010000 
 403      63685379 
 403      73496E69 
 403      74000002 
 404 0138 00000000 		.ascii	"\000\000\000\000\000\000\000\000\000\365\001\000\000"
 404      00000000 
 404      00F50100 
 404      00
 405 0145 68616C49 		.ascii	"halInit\000\000\002\000\000\000\000\000\000\000\000"
 405      6E697400 
 405      00020000 
 405      00000000 
ARM GAS  /tmp/cc7qF5TC.s 			page 32


 405      0000
 406 0157 00F80100 		.ascii	"\000\370\001\000\000"
 406      00
 407              		.text
 408              		.section	.gnu.lto_.opts,"",%progbits
 409 0000 272D6D63 		.ascii	"'-mcpu=cortex-m0' '-mno-thumb-interwork' '-mthumb' "
 409      70753D63 
 409      6F727465 
 409      782D6D30 
 409      2720272D 
 410 0033 272D6767 		.ascii	"'-ggdb' '-O2' '-fomit-frame-pointer' '-falign-funct"
 410      64622720 
 410      272D4F32 
 410      2720272D 
 410      666F6D69 
 411 0066 696F6E73 		.ascii	"ions=16' '-ffunction-sections' '-fdata-sections' '-"
 411      3D313627 
 411      20272D66 
 411      66756E63 
 411      74696F6E 
 412 0099 666E6F2D 		.ascii	"fno-common' '-flto'\000"
 412      636F6D6D 
 412      6F6E2720 
 412      272D666C 
 412      746F2700 
 413              		.text
 414              		.cfi_sections	.debug_frame
 415              		.section	.text.Thread1,"ax",%progbits
 416              		.align	2
 417              		.p2align 4,,15
 418              		.global	Thread1
 419              		.code	16
 420              		.thumb_func
 421              		.type	Thread1, %function
 422              	Thread1:
 423              	.LFB98:
 424              		.file 1 "main.c"
 425              		.loc 1 24 0
 426              		.cfi_startproc
 427              	.LVL0:
 428 0000 70B5     		push	{r4, r5, r6, lr}
 429              		.cfi_def_cfa_offset 16
 430              		.cfi_offset 4, -16
 431              		.cfi_offset 5, -12
 432              		.cfi_offset 6, -8
 433              		.cfi_offset 14, -4
 434              		.loc 1 29 0
 435 0002 8025     		mov	r5, #128
 436 0004 6D00     		lsl	r5, r5, #1
 437 0006 064C     		ldr	r4, .L4
 438 0008 2E1C     		add	r6, r5, #0
 439              	.LVL1:
 440              	.L2:
 441              		.loc 1 30 0 discriminator 1
 442 000a FA20     		mov	r0, #250
 443              		.loc 1 29 0 discriminator 1
 444 000c 2683     		strh	r6, [r4, #24]
ARM GAS  /tmp/cc7qF5TC.s 			page 33


 445              		.loc 1 30 0 discriminator 1
 446 000e 4000     		lsl	r0, r0, #1
 447 0010 FFF7FEFF 		bl	chThdSleep
 448              	.LVL2:
 449              		.loc 1 32 0 discriminator 1
 450 0014 FA20     		mov	r0, #250
 451              		.loc 1 31 0 discriminator 1
 452 0016 6583     		strh	r5, [r4, #26]
 453              		.loc 1 32 0 discriminator 1
 454 0018 4000     		lsl	r0, r0, #1
 455 001a FFF7FEFF 		bl	chThdSleep
 456              	.LVL3:
 457 001e F4E7     		b	.L2
 458              	.L5:
 459              		.align	2
 460              	.L4:
 461 0020 00080048 		.word	1207961600
 462              		.cfi_endproc
 463              	.LFE98:
 464              		.size	Thread1, .-Thread1
 465 0024 C046C046 		.section	.text.Thread2,"ax",%progbits
 465      C046C046 
 465      C046C046 
 466              		.align	2
 467              		.p2align 4,,15
 468              		.global	Thread2
 469              		.code	16
 470              		.thumb_func
 471              		.type	Thread2, %function
 472              	Thread2:
 473              	.LFB99:
 474              		.loc 1 40 0
 475              		.cfi_startproc
 476              	.LVL4:
 477 0000 70B5     		push	{r4, r5, r6, lr}
 478              		.cfi_def_cfa_offset 16
 479              		.cfi_offset 4, -16
 480              		.cfi_offset 5, -12
 481              		.cfi_offset 6, -8
 482              		.cfi_offset 14, -4
 483              		.loc 1 45 0
 484 0002 8025     		mov	r5, #128
 485 0004 AD00     		lsl	r5, r5, #2
 486 0006 054C     		ldr	r4, .L8
 487 0008 2E1C     		add	r6, r5, #0
 488              	.LVL5:
 489              	.L7:
 490              		.loc 1 45 0 is_stmt 0 discriminator 1
 491 000a 2683     		strh	r6, [r4, #24]
 492              		.loc 1 46 0 is_stmt 1 discriminator 1
 493 000c FA20     		mov	r0, #250
 494 000e FFF7FEFF 		bl	chThdSleep
 495              	.LVL6:
 496              		.loc 1 47 0 discriminator 1
 497 0012 6583     		strh	r5, [r4, #26]
 498              		.loc 1 48 0 discriminator 1
 499 0014 FA20     		mov	r0, #250
ARM GAS  /tmp/cc7qF5TC.s 			page 34


 500 0016 FFF7FEFF 		bl	chThdSleep
 501              	.LVL7:
 502 001a F6E7     		b	.L7
 503              	.L9:
 504              		.align	2
 505              	.L8:
 506 001c 00080048 		.word	1207961600
 507              		.cfi_endproc
 508              	.LFE99:
 509              		.size	Thread2, .-Thread2
 510              		.section	.text.Thread3,"ax",%progbits
 511              		.align	2
 512              		.p2align 4,,15
 513              		.global	Thread3
 514              		.code	16
 515              		.thumb_func
 516              		.type	Thread3, %function
 517              	Thread3:
 518              	.LFB100:
 519              		.loc 1 56 0
 520              		.cfi_startproc
 521              	.LVL8:
 522 0000 38B5     		push	{r3, r4, r5, lr}
 523              		.cfi_def_cfa_offset 16
 524              		.cfi_offset 3, -16
 525              		.cfi_offset 4, -12
 526              		.cfi_offset 5, -8
 527              		.cfi_offset 14, -4
 528              		.loc 1 64 0
 529 0002 0F4C     		ldr	r4, .L12
 530 0004 0021     		mov	r1, #0
 531 0006 201C     		mov	r0, r4
 532              	.LVL9:
 533 0008 FFF7FEFF 		bl	sdStart
 534              	.LVL10:
 535              		.loc 1 65 0
 536 000c 9020     		mov	r0, #144
 537 000e 8021     		mov	r1, #128
 538 0010 C005     		lsl	r0, r0, #23
 539 0012 8900     		lsl	r1, r1, #2
 540 0014 8222     		mov	r2, #130
 541 0016 FFF7FEFF 		bl	_pal_lld_setgroupmode
 542              	.LVL11:
 543              		.loc 1 66 0
 544 001a 9020     		mov	r0, #144
 545 001c 8021     		mov	r1, #128
 546 001e C005     		lsl	r0, r0, #23
 547 0020 C900     		lsl	r1, r1, #3
 548 0022 8222     		mov	r2, #130
 549 0024 FFF7FEFF 		bl	_pal_lld_setgroupmode
 550              	.LVL12:
 551 0028 064D     		ldr	r5, .L12+4
 552              	.L11:
 553              		.loc 1 69 0 discriminator 1
 554 002a 2368     		ldr	r3, [r4]
 555 002c 201C     		mov	r0, r4
 556 002e 1B68     		ldr	r3, [r3]
ARM GAS  /tmp/cc7qF5TC.s 			page 35


 557 0030 291C     		mov	r1, r5
 558 0032 0E22     		mov	r2, #14
 559 0034 9847     		blx	r3
 560              	.LVL13:
 561              		.loc 1 70 0 discriminator 1
 562 0036 FA20     		mov	r0, #250
 563 0038 C000     		lsl	r0, r0, #3
 564 003a FFF7FEFF 		bl	chThdSleep
 565              	.LVL14:
 566 003e F4E7     		b	.L11
 567              	.L13:
 568              		.align	2
 569              	.L12:
 570 0040 00000000 		.word	SD1
 571 0044 00000000 		.word	.LC1
 572              		.cfi_endproc
 573              	.LFE100:
 574              		.size	Thread3, .-Thread3
 575 0048 C046C046 		.section	.text.startup.main,"ax",%progbits
 575      C046C046 
 576              		.align	2
 577              		.p2align 4,,15
 578              		.global	main
 579              		.code	16
 580              		.thumb_func
 581              		.type	main, %function
 582              	main:
 583              	.LFB101:
 584              		.loc 1 87 0
 585              		.cfi_startproc
 586 0000 08B5     		push	{r3, lr}
 587              		.cfi_def_cfa_offset 8
 588              		.cfi_offset 3, -8
 589              		.cfi_offset 14, -4
 590              		.loc 1 96 0
 591 0002 FFF7FEFF 		bl	halInit
 592              	.LVL15:
 593              		.loc 1 97 0
 594 0006 FFF7FEFF 		bl	chSysInit
 595              	.LVL16:
 596              	.L15:
 597 000a FEE7     		b	.L15
 598              		.cfi_endproc
 599              	.LFE101:
 600              		.size	main, .-main
 601              		.global	nil_thd_configs
 602              		.global	waThread3
 603              		.global	waThread2
 604              		.global	waThread1
 605 000c C046C046 		.section	.bss.waThread1,"aw",%nobits
 606              		.align	3
 607              		.type	waThread1, %object
 608              		.size	waThread1, 264
 609              	waThread1:
 610 0000 00000000 		.space	264
 610      00000000 
 610      00000000 
ARM GAS  /tmp/cc7qF5TC.s 			page 36


 610      00000000 
 610      00000000 
 611              		.section	.bss.waThread2,"aw",%nobits
 612              		.align	3
 613              		.type	waThread2, %object
 614              		.size	waThread2, 264
 615              	waThread2:
 616 0000 00000000 		.space	264
 616      00000000 
 616      00000000 
 616      00000000 
 616      00000000 
 617              		.section	.bss.waThread3,"aw",%nobits
 618              		.align	3
 619              		.type	waThread3, %object
 620              		.size	waThread3, 264
 621              	waThread3:
 622 0000 00000000 		.space	264
 622      00000000 
 622      00000000 
 622      00000000 
 622      00000000 
 623              		.section	.rodata.nil_thd_configs,"a",%progbits
 624              		.align	2
 625              		.type	nil_thd_configs, %object
 626              		.size	nil_thd_configs, 80
 627              	nil_thd_configs:
 628 0000 00000000 		.word	waThread1
 629 0004 08010000 		.word	waThread1+264
 630 0008 10000000 		.word	.LC3
 631 000c 00000000 		.word	Thread1
 632 0010 00000000 		.word	0
 633 0014 00000000 		.word	waThread2
 634 0018 08010000 		.word	waThread2+264
 635 001c 1C000000 		.word	.LC4
 636 0020 00000000 		.word	Thread2
 637 0024 00000000 		.word	0
 638 0028 00000000 		.word	waThread3
 639 002c 08010000 		.word	waThread3+264
 640 0030 28000000 		.word	.LC5
 641 0034 00000000 		.word	Thread3
 642 0038 00000000 		.word	0
 643 003c 00000000 		.word	0
 644 0040 00000000 		.word	0
 645 0044 30000000 		.word	.LC6
 646 0048 00000000 		.word	0
 647 004c 00000000 		.word	0
 648              		.section	.rodata.str1.4,"aMS",%progbits,1
 649              		.align	2
 650              	.LC1:
 651 0000 48656C6C 		.ascii	"Hello World!\015\012\000"
 651      6F20576F 
 651      726C6421 
 651      0D0A00
 652 000f 00       		.space	1
 653              	.LC3:
 654 0010 626C696E 		.ascii	"blinker1\000"
ARM GAS  /tmp/cc7qF5TC.s 			page 37


 654      6B657231 
 654      00
 655 0019 000000   		.space	3
 656              	.LC4:
 657 001c 626C696E 		.ascii	"blinker2\000"
 657      6B657232 
 657      00
 658 0025 000000   		.space	3
 659              	.LC5:
 660 0028 68656C6C 		.ascii	"hello\000"
 660      6F00
 661 002e 0000     		.space	2
 662              	.LC6:
 663 0030 69646C65 		.ascii	"idle\000"
 663      00
 664 0035 000000   		.text
 665              	.Letext0:
 666              		.file 2 "/usr/lib/gcc/arm-none-eabi/4.8.2/include/stddef.h"
 667              		.file 3 "/usr/include/newlib/machine/_default_types.h"
 668              		.file 4 "/usr/include/newlib/stdint.h"
 669              		.file 5 "../../../os/common/ports/ARMCMx/compilers/GCC/chtypes.h"
 670              		.file 6 "../../../os/nil/include/ch.h"
 671              		.file 7 "../../../os/common/ext/CMSIS/ST/STM32F0xx/stm32f051x8.h"
 672              		.file 8 "../../../os/common/ports/ARMCMx/chcore.h"
 673              		.file 9 "../../../os/hal/osal/nil/osal.h"
 674              		.file 10 "../../../os/hal/include/hal_queues.h"
 675              		.file 11 "../../../os/hal/ports/STM32/LLD/GPIOv2/hal_pal_lld.h"
 676              		.file 12 "../../../os/hal/include/hal_serial.h"
 677              		.file 13 "../../../os/hal/ports/STM32/LLD/USARTv2/hal_serial_lld.h"
 678              		.file 14 "../../../os/hal/include/hal.h"
 679              		.section	.debug_info,"",%progbits
 680              	.Ldebug_info0:
 681 0000 85090000 		.4byte	0x985
 682 0004 0400     		.2byte	0x4
 683 0006 00000000 		.4byte	.Ldebug_abbrev0
 684 000a 04       		.byte	0x4
 685 000b 01       		.uleb128 0x1
 686 000c 3A040000 		.4byte	.LASF106
 687 0010 01       		.byte	0x1
 688 0011 3D000000 		.4byte	.LASF107
 689 0015 7A030000 		.4byte	.LASF108
 690 0019 00000000 		.4byte	.Ldebug_ranges0+0
 691 001d 00000000 		.4byte	0
 692 0021 00000000 		.4byte	.Ldebug_line0
 693 0025 02       		.uleb128 0x2
 694 0026 04       		.byte	0x4
 695 0027 05       		.byte	0x5
 696 0028 696E7400 		.ascii	"int\000"
 697 002c 03       		.uleb128 0x3
 698 002d 81010000 		.4byte	.LASF2
 699 0031 02       		.byte	0x2
 700 0032 D4       		.byte	0xd4
 701 0033 37000000 		.4byte	0x37
 702 0037 04       		.uleb128 0x4
 703 0038 04       		.byte	0x4
 704 0039 07       		.byte	0x7
 705 003a 72000000 		.4byte	.LASF0
ARM GAS  /tmp/cc7qF5TC.s 			page 38


 706 003e 04       		.uleb128 0x4
 707 003f 01       		.byte	0x1
 708 0040 06       		.byte	0x6
 709 0041 F8030000 		.4byte	.LASF1
 710 0045 03       		.uleb128 0x3
 711 0046 F2020000 		.4byte	.LASF3
 712 004a 03       		.byte	0x3
 713 004b 1C       		.byte	0x1c
 714 004c 50000000 		.4byte	0x50
 715 0050 04       		.uleb128 0x4
 716 0051 01       		.byte	0x1
 717 0052 08       		.byte	0x8
 718 0053 61030000 		.4byte	.LASF4
 719 0057 04       		.uleb128 0x4
 720 0058 02       		.byte	0x2
 721 0059 05       		.byte	0x5
 722 005a CF020000 		.4byte	.LASF5
 723 005e 03       		.uleb128 0x3
 724 005f 32010000 		.4byte	.LASF6
 725 0063 03       		.byte	0x3
 726 0064 26       		.byte	0x26
 727 0065 69000000 		.4byte	0x69
 728 0069 04       		.uleb128 0x4
 729 006a 02       		.byte	0x2
 730 006b 07       		.byte	0x7
 731 006c 0D040000 		.4byte	.LASF7
 732 0070 03       		.uleb128 0x3
 733 0071 9D000000 		.4byte	.LASF8
 734 0075 03       		.byte	0x3
 735 0076 37       		.byte	0x37
 736 0077 7B000000 		.4byte	0x7b
 737 007b 04       		.uleb128 0x4
 738 007c 04       		.byte	0x4
 739 007d 05       		.byte	0x5
 740 007e D9020000 		.4byte	.LASF9
 741 0082 03       		.uleb128 0x3
 742 0083 6F030000 		.4byte	.LASF10
 743 0087 03       		.byte	0x3
 744 0088 38       		.byte	0x38
 745 0089 8D000000 		.4byte	0x8d
 746 008d 04       		.uleb128 0x4
 747 008e 04       		.byte	0x4
 748 008f 07       		.byte	0x7
 749 0090 29030000 		.4byte	.LASF11
 750 0094 04       		.uleb128 0x4
 751 0095 08       		.byte	0x8
 752 0096 05       		.byte	0x5
 753 0097 2B020000 		.4byte	.LASF12
 754 009b 03       		.uleb128 0x3
 755 009c 9B010000 		.4byte	.LASF13
 756 00a0 03       		.byte	0x3
 757 00a1 4E       		.byte	0x4e
 758 00a2 A6000000 		.4byte	0xa6
 759 00a6 04       		.uleb128 0x4
 760 00a7 08       		.byte	0x8
 761 00a8 07       		.byte	0x7
 762 00a9 0C010000 		.4byte	.LASF14
ARM GAS  /tmp/cc7qF5TC.s 			page 39


 763 00ad 03       		.uleb128 0x3
 764 00ae EB010000 		.4byte	.LASF15
 765 00b2 04       		.byte	0x4
 766 00b3 2A       		.byte	0x2a
 767 00b4 45000000 		.4byte	0x45
 768 00b8 03       		.uleb128 0x3
 769 00b9 92020000 		.4byte	.LASF16
 770 00bd 04       		.byte	0x4
 771 00be 36       		.byte	0x36
 772 00bf 5E000000 		.4byte	0x5e
 773 00c3 03       		.uleb128 0x3
 774 00c4 3B030000 		.4byte	.LASF17
 775 00c8 04       		.byte	0x4
 776 00c9 41       		.byte	0x41
 777 00ca 70000000 		.4byte	0x70
 778 00ce 03       		.uleb128 0x3
 779 00cf DE000000 		.4byte	.LASF18
 780 00d3 04       		.byte	0x4
 781 00d4 42       		.byte	0x42
 782 00d5 82000000 		.4byte	0x82
 783 00d9 03       		.uleb128 0x3
 784 00da E9020000 		.4byte	.LASF19
 785 00de 04       		.byte	0x4
 786 00df 4E       		.byte	0x4e
 787 00e0 9B000000 		.4byte	0x9b
 788 00e4 03       		.uleb128 0x3
 789 00e5 3F020000 		.4byte	.LASF20
 790 00e9 05       		.byte	0x5
 791 00ea 41       		.byte	0x41
 792 00eb C3000000 		.4byte	0xc3
 793 00ef 03       		.uleb128 0x3
 794 00f0 3D010000 		.4byte	.LASF21
 795 00f4 05       		.byte	0x5
 796 00f5 45       		.byte	0x45
 797 00f6 C3000000 		.4byte	0xc3
 798 00fa 05       		.uleb128 0x5
 799 00fb 5D000000 		.4byte	.LASF22
 800 00ff 06       		.byte	0x6
 801 0100 D001     		.2byte	0x1d0
 802 0102 CE000000 		.4byte	0xce
 803 0106 04       		.uleb128 0x4
 804 0107 04       		.byte	0x4
 805 0108 07       		.byte	0x7
 806 0109 20030000 		.4byte	.LASF23
 807 010d 06       		.uleb128 0x6
 808 010e CE000000 		.4byte	0xce
 809 0112 06       		.uleb128 0x6
 810 0113 B8000000 		.4byte	0xb8
 811 0117 07       		.uleb128 0x7
 812 0118 2C       		.byte	0x2c
 813 0119 07       		.byte	0x7
 814 011a F501     		.2byte	0x1f5
 815 011c CA010000 		.4byte	0x1ca
 816 0120 08       		.uleb128 0x8
 817 0121 43523100 		.ascii	"CR1\000"
 818 0125 07       		.byte	0x7
 819 0126 F701     		.2byte	0x1f7
ARM GAS  /tmp/cc7qF5TC.s 			page 40


 820 0128 0D010000 		.4byte	0x10d
 821 012c 00       		.byte	0
 822 012d 08       		.uleb128 0x8
 823 012e 43523200 		.ascii	"CR2\000"
 824 0132 07       		.byte	0x7
 825 0133 F801     		.2byte	0x1f8
 826 0135 0D010000 		.4byte	0x10d
 827 0139 04       		.byte	0x4
 828 013a 08       		.uleb128 0x8
 829 013b 43523300 		.ascii	"CR3\000"
 830 013f 07       		.byte	0x7
 831 0140 F901     		.2byte	0x1f9
 832 0142 0D010000 		.4byte	0x10d
 833 0146 08       		.byte	0x8
 834 0147 08       		.uleb128 0x8
 835 0148 42525200 		.ascii	"BRR\000"
 836 014c 07       		.byte	0x7
 837 014d FA01     		.2byte	0x1fa
 838 014f 0D010000 		.4byte	0x10d
 839 0153 0C       		.byte	0xc
 840 0154 09       		.uleb128 0x9
 841 0155 D9000000 		.4byte	.LASF24
 842 0159 07       		.byte	0x7
 843 015a FB01     		.2byte	0x1fb
 844 015c 0D010000 		.4byte	0x10d
 845 0160 10       		.byte	0x10
 846 0161 09       		.uleb128 0x9
 847 0162 F3010000 		.4byte	.LASF25
 848 0166 07       		.byte	0x7
 849 0167 FC01     		.2byte	0x1fc
 850 0169 0D010000 		.4byte	0x10d
 851 016d 14       		.byte	0x14
 852 016e 08       		.uleb128 0x8
 853 016f 52515200 		.ascii	"RQR\000"
 854 0173 07       		.byte	0x7
 855 0174 FD01     		.2byte	0x1fd
 856 0176 0D010000 		.4byte	0x10d
 857 017a 18       		.byte	0x18
 858 017b 08       		.uleb128 0x8
 859 017c 49535200 		.ascii	"ISR\000"
 860 0180 07       		.byte	0x7
 861 0181 FE01     		.2byte	0x1fe
 862 0183 0D010000 		.4byte	0x10d
 863 0187 1C       		.byte	0x1c
 864 0188 08       		.uleb128 0x8
 865 0189 49435200 		.ascii	"ICR\000"
 866 018d 07       		.byte	0x7
 867 018e FF01     		.2byte	0x1ff
 868 0190 0D010000 		.4byte	0x10d
 869 0194 20       		.byte	0x20
 870 0195 08       		.uleb128 0x8
 871 0196 52445200 		.ascii	"RDR\000"
 872 019a 07       		.byte	0x7
 873 019b 0002     		.2byte	0x200
 874 019d 12010000 		.4byte	0x112
 875 01a1 24       		.byte	0x24
 876 01a2 09       		.uleb128 0x9
ARM GAS  /tmp/cc7qF5TC.s 			page 41


 877 01a3 B4020000 		.4byte	.LASF26
 878 01a7 07       		.byte	0x7
 879 01a8 0102     		.2byte	0x201
 880 01aa B8000000 		.4byte	0xb8
 881 01ae 26       		.byte	0x26
 882 01af 08       		.uleb128 0x8
 883 01b0 54445200 		.ascii	"TDR\000"
 884 01b4 07       		.byte	0x7
 885 01b5 0202     		.2byte	0x202
 886 01b7 12010000 		.4byte	0x112
 887 01bb 28       		.byte	0x28
 888 01bc 09       		.uleb128 0x9
 889 01bd BE020000 		.4byte	.LASF27
 890 01c1 07       		.byte	0x7
 891 01c2 0302     		.2byte	0x203
 892 01c4 B8000000 		.4byte	0xb8
 893 01c8 2A       		.byte	0x2a
 894 01c9 00       		.byte	0
 895 01ca 05       		.uleb128 0x5
 896 01cb A6010000 		.4byte	.LASF28
 897 01cf 07       		.byte	0x7
 898 01d0 0402     		.2byte	0x204
 899 01d2 17010000 		.4byte	0x117
 900 01d6 0A       		.uleb128 0xa
 901 01d7 04       		.byte	0x4
 902 01d8 03       		.uleb128 0x3
 903 01d9 20040000 		.4byte	.LASF29
 904 01dd 08       		.byte	0x8
 905 01de 6D       		.byte	0x6d
 906 01df D9000000 		.4byte	0xd9
 907 01e3 05       		.uleb128 0x5
 908 01e4 60010000 		.4byte	.LASF30
 909 01e8 06       		.byte	0x6
 910 01e9 E101     		.2byte	0x1e1
 911 01eb EF010000 		.4byte	0x1ef
 912 01ef 0B       		.uleb128 0xb
 913 01f0 BE000000 		.4byte	.LASF33
 914 01f4 04       		.byte	0x4
 915 01f5 06       		.byte	0x6
 916 01f6 E601     		.2byte	0x1e6
 917 01f8 0A020000 		.4byte	0x20a
 918 01fc 08       		.uleb128 0x8
 919 01fd 636E7400 		.ascii	"cnt\000"
 920 0201 06       		.byte	0x6
 921 0202 E701     		.2byte	0x1e7
 922 0204 0A020000 		.4byte	0x20a
 923 0208 00       		.byte	0
 924 0209 00       		.byte	0
 925 020a 06       		.uleb128 0x6
 926 020b EF000000 		.4byte	0xef
 927 020f 05       		.uleb128 0x5
 928 0210 04010000 		.4byte	.LASF31
 929 0214 06       		.byte	0x6
 930 0215 EE01     		.2byte	0x1ee
 931 0217 1B020000 		.4byte	0x21b
 932 021b 0C       		.uleb128 0xc
 933 021c 04       		.byte	0x4
ARM GAS  /tmp/cc7qF5TC.s 			page 42


 934 021d 21020000 		.4byte	0x221
 935 0221 0D       		.uleb128 0xd
 936 0222 2C020000 		.4byte	0x22c
 937 0226 0E       		.uleb128 0xe
 938 0227 D6010000 		.4byte	0x1d6
 939 022b 00       		.byte	0
 940 022c 05       		.uleb128 0x5
 941 022d E8030000 		.4byte	.LASF32
 942 0231 06       		.byte	0x6
 943 0232 F301     		.2byte	0x1f3
 944 0234 38020000 		.4byte	0x238
 945 0238 0B       		.uleb128 0xb
 946 0239 1C020000 		.4byte	.LASF34
 947 023d 14       		.byte	0x14
 948 023e 06       		.byte	0x6
 949 023f F801     		.2byte	0x1f8
 950 0241 87020000 		.4byte	0x287
 951 0245 09       		.uleb128 0x9
 952 0246 44000000 		.4byte	.LASF35
 953 024a 06       		.byte	0x6
 954 024b F901     		.2byte	0x1f9
 955 024d 87020000 		.4byte	0x287
 956 0251 00       		.byte	0
 957 0252 09       		.uleb128 0x9
 958 0253 96010000 		.4byte	.LASF36
 959 0257 06       		.byte	0x6
 960 0258 FA01     		.2byte	0x1fa
 961 025a 87020000 		.4byte	0x287
 962 025e 04       		.byte	0x4
 963 025f 09       		.uleb128 0x9
 964 0260 58020000 		.4byte	.LASF37
 965 0264 06       		.byte	0x6
 966 0265 FB01     		.2byte	0x1fb
 967 0267 8D020000 		.4byte	0x28d
 968 026b 08       		.byte	0x8
 969 026c 09       		.uleb128 0x9
 970 026d B8000000 		.4byte	.LASF38
 971 0271 06       		.byte	0x6
 972 0272 FC01     		.2byte	0x1fc
 973 0274 0F020000 		.4byte	0x20f
 974 0278 0C       		.byte	0xc
 975 0279 08       		.uleb128 0x8
 976 027a 61726700 		.ascii	"arg\000"
 977 027e 06       		.byte	0x6
 978 027f FD01     		.2byte	0x1fd
 979 0281 D6010000 		.4byte	0x1d6
 980 0285 10       		.byte	0x10
 981 0286 00       		.byte	0
 982 0287 0C       		.uleb128 0xc
 983 0288 04       		.byte	0x4
 984 0289 D8010000 		.4byte	0x1d8
 985 028d 0C       		.uleb128 0xc
 986 028e 04       		.byte	0x4
 987 028f 93020000 		.4byte	0x293
 988 0293 0F       		.uleb128 0xf
 989 0294 98020000 		.4byte	0x298
 990 0298 04       		.uleb128 0x4
ARM GAS  /tmp/cc7qF5TC.s 			page 43


 991 0299 01       		.byte	0x1
 992 029a 08       		.byte	0x8
 993 029b D4010000 		.4byte	.LASF39
 994 029f 03       		.uleb128 0x3
 995 02a0 23010000 		.4byte	.LASF40
 996 02a4 09       		.byte	0x9
 997 02a5 B9       		.byte	0xb9
 998 02a6 AA020000 		.4byte	0x2aa
 999 02aa 10       		.uleb128 0x10
 1000 02ab 4A000000 		.4byte	.LASF41
 1001 02af 0C       		.byte	0xc
 1002 02b0 09       		.byte	0x9
 1003 02b1 CF       		.byte	0xcf
 1004 02b2 DA020000 		.4byte	0x2da
 1005 02b6 11       		.uleb128 0x11
 1006 02b7 57000000 		.4byte	.LASF42
 1007 02bb 09       		.byte	0x9
 1008 02bc D0       		.byte	0xd0
 1009 02bd 0D010000 		.4byte	0x10d
 1010 02c1 00       		.byte	0
 1011 02c2 12       		.uleb128 0x12
 1012 02c3 636200   		.ascii	"cb\000"
 1013 02c6 09       		.byte	0x9
 1014 02c7 D1       		.byte	0xd1
 1015 02c8 DA020000 		.4byte	0x2da
 1016 02cc 04       		.byte	0x4
 1017 02cd 11       		.uleb128 0x11
 1018 02ce 6D020000 		.4byte	.LASF43
 1019 02d2 09       		.byte	0x9
 1020 02d3 D2       		.byte	0xd2
 1021 02d4 D6010000 		.4byte	0x1d6
 1022 02d8 08       		.byte	0x8
 1023 02d9 00       		.byte	0
 1024 02da 03       		.uleb128 0x3
 1025 02db 73020000 		.4byte	.LASF44
 1026 02df 09       		.byte	0x9
 1027 02e0 C0       		.byte	0xc0
 1028 02e1 E5020000 		.4byte	0x2e5
 1029 02e5 0C       		.uleb128 0xc
 1030 02e6 04       		.byte	0x4
 1031 02e7 EB020000 		.4byte	0x2eb
 1032 02eb 0D       		.uleb128 0xd
 1033 02ec F6020000 		.4byte	0x2f6
 1034 02f0 0E       		.uleb128 0xe
 1035 02f1 F6020000 		.4byte	0x2f6
 1036 02f5 00       		.byte	0
 1037 02f6 0C       		.uleb128 0xc
 1038 02f7 04       		.byte	0x4
 1039 02f8 9F020000 		.4byte	0x29f
 1040 02fc 13       		.uleb128 0x13
 1041 02fd 04       		.byte	0x4
 1042 02fe 09       		.byte	0x9
 1043 02ff E3       		.byte	0xe3
 1044 0300 11030000 		.4byte	0x311
 1045 0304 12       		.uleb128 0x12
 1046 0305 73656D00 		.ascii	"sem\000"
 1047 0309 09       		.byte	0x9
ARM GAS  /tmp/cc7qF5TC.s 			page 44


 1048 030a E4       		.byte	0xe4
 1049 030b E3010000 		.4byte	0x1e3
 1050 030f 00       		.byte	0
 1051 0310 00       		.byte	0
 1052 0311 03       		.uleb128 0x3
 1053 0312 00000000 		.4byte	.LASF45
 1054 0316 09       		.byte	0x9
 1055 0317 E5       		.byte	0xe5
 1056 0318 FC020000 		.4byte	0x2fc
 1057 031c 14       		.uleb128 0x14
 1058 031d 2C000000 		.4byte	0x2c
 1059 0321 35030000 		.4byte	0x335
 1060 0325 0E       		.uleb128 0xe
 1061 0326 D6010000 		.4byte	0x1d6
 1062 032a 0E       		.uleb128 0xe
 1063 032b 35030000 		.4byte	0x335
 1064 032f 0E       		.uleb128 0xe
 1065 0330 2C000000 		.4byte	0x2c
 1066 0334 00       		.byte	0
 1067 0335 0C       		.uleb128 0xc
 1068 0336 04       		.byte	0x4
 1069 0337 3B030000 		.4byte	0x33b
 1070 033b 0F       		.uleb128 0xf
 1071 033c AD000000 		.4byte	0xad
 1072 0340 0C       		.uleb128 0xc
 1073 0341 04       		.byte	0x4
 1074 0342 1C030000 		.4byte	0x31c
 1075 0346 14       		.uleb128 0x14
 1076 0347 2C000000 		.4byte	0x2c
 1077 034b 5F030000 		.4byte	0x35f
 1078 034f 0E       		.uleb128 0xe
 1079 0350 D6010000 		.4byte	0x1d6
 1080 0354 0E       		.uleb128 0xe
 1081 0355 5F030000 		.4byte	0x35f
 1082 0359 0E       		.uleb128 0xe
 1083 035a 2C000000 		.4byte	0x2c
 1084 035e 00       		.byte	0
 1085 035f 0C       		.uleb128 0xc
 1086 0360 04       		.byte	0x4
 1087 0361 AD000000 		.4byte	0xad
 1088 0365 0C       		.uleb128 0xc
 1089 0366 04       		.byte	0x4
 1090 0367 46030000 		.4byte	0x346
 1091 036b 14       		.uleb128 0x14
 1092 036c E4000000 		.4byte	0xe4
 1093 0370 7F030000 		.4byte	0x37f
 1094 0374 0E       		.uleb128 0xe
 1095 0375 D6010000 		.4byte	0x1d6
 1096 0379 0E       		.uleb128 0xe
 1097 037a AD000000 		.4byte	0xad
 1098 037e 00       		.byte	0
 1099 037f 0C       		.uleb128 0xc
 1100 0380 04       		.byte	0x4
 1101 0381 6B030000 		.4byte	0x36b
 1102 0385 14       		.uleb128 0x14
 1103 0386 E4000000 		.4byte	0xe4
 1104 038a 94030000 		.4byte	0x394
ARM GAS  /tmp/cc7qF5TC.s 			page 45


 1105 038e 0E       		.uleb128 0xe
 1106 038f D6010000 		.4byte	0x1d6
 1107 0393 00       		.byte	0
 1108 0394 0C       		.uleb128 0xc
 1109 0395 04       		.byte	0x4
 1110 0396 85030000 		.4byte	0x385
 1111 039a 14       		.uleb128 0x14
 1112 039b E4000000 		.4byte	0xe4
 1113 039f B3030000 		.4byte	0x3b3
 1114 03a3 0E       		.uleb128 0xe
 1115 03a4 D6010000 		.4byte	0x1d6
 1116 03a8 0E       		.uleb128 0xe
 1117 03a9 AD000000 		.4byte	0xad
 1118 03ad 0E       		.uleb128 0xe
 1119 03ae FA000000 		.4byte	0xfa
 1120 03b2 00       		.byte	0
 1121 03b3 0C       		.uleb128 0xc
 1122 03b4 04       		.byte	0x4
 1123 03b5 9A030000 		.4byte	0x39a
 1124 03b9 14       		.uleb128 0x14
 1125 03ba E4000000 		.4byte	0xe4
 1126 03be CD030000 		.4byte	0x3cd
 1127 03c2 0E       		.uleb128 0xe
 1128 03c3 D6010000 		.4byte	0x1d6
 1129 03c7 0E       		.uleb128 0xe
 1130 03c8 FA000000 		.4byte	0xfa
 1131 03cc 00       		.byte	0
 1132 03cd 0C       		.uleb128 0xc
 1133 03ce 04       		.byte	0x4
 1134 03cf B9030000 		.4byte	0x3b9
 1135 03d3 14       		.uleb128 0x14
 1136 03d4 2C000000 		.4byte	0x2c
 1137 03d8 F1030000 		.4byte	0x3f1
 1138 03dc 0E       		.uleb128 0xe
 1139 03dd D6010000 		.4byte	0x1d6
 1140 03e1 0E       		.uleb128 0xe
 1141 03e2 35030000 		.4byte	0x335
 1142 03e6 0E       		.uleb128 0xe
 1143 03e7 2C000000 		.4byte	0x2c
 1144 03eb 0E       		.uleb128 0xe
 1145 03ec FA000000 		.4byte	0xfa
 1146 03f0 00       		.byte	0
 1147 03f1 0C       		.uleb128 0xc
 1148 03f2 04       		.byte	0x4
 1149 03f3 D3030000 		.4byte	0x3d3
 1150 03f7 14       		.uleb128 0x14
 1151 03f8 2C000000 		.4byte	0x2c
 1152 03fc 15040000 		.4byte	0x415
 1153 0400 0E       		.uleb128 0xe
 1154 0401 D6010000 		.4byte	0x1d6
 1155 0405 0E       		.uleb128 0xe
 1156 0406 5F030000 		.4byte	0x35f
 1157 040a 0E       		.uleb128 0xe
 1158 040b 2C000000 		.4byte	0x2c
 1159 040f 0E       		.uleb128 0xe
 1160 0410 FA000000 		.4byte	0xfa
 1161 0414 00       		.byte	0
ARM GAS  /tmp/cc7qF5TC.s 			page 46


 1162 0415 0C       		.uleb128 0xc
 1163 0416 04       		.byte	0x4
 1164 0417 F7030000 		.4byte	0x3f7
 1165 041b 04       		.uleb128 0x4
 1166 041c 01       		.byte	0x1
 1167 041d 02       		.byte	0x2
 1168 041e 88010000 		.4byte	.LASF46
 1169 0422 06       		.uleb128 0x6
 1170 0423 2C000000 		.4byte	0x2c
 1171 0427 03       		.uleb128 0x3
 1172 0428 67000000 		.4byte	.LASF47
 1173 042c 0A       		.byte	0xa
 1174 042d 2A       		.byte	0x2a
 1175 042e 32040000 		.4byte	0x432
 1176 0432 10       		.uleb128 0x10
 1177 0433 04040000 		.4byte	.LASF48
 1178 0437 20       		.byte	0x20
 1179 0438 0A       		.byte	0xa
 1180 0439 3B       		.byte	0x3b
 1181 043a 9F040000 		.4byte	0x49f
 1182 043e 11       		.uleb128 0x11
 1183 043f 72010000 		.4byte	.LASF49
 1184 0443 0A       		.byte	0xa
 1185 0444 3C       		.byte	0x3c
 1186 0445 11030000 		.4byte	0x311
 1187 0449 00       		.byte	0
 1188 044a 11       		.uleb128 0x11
 1189 044b 0B030000 		.4byte	.LASF50
 1190 044f 0A       		.byte	0xa
 1191 0450 3D       		.byte	0x3d
 1192 0451 22040000 		.4byte	0x422
 1193 0455 04       		.byte	0x4
 1194 0456 11       		.uleb128 0x11
 1195 0457 1F000000 		.4byte	.LASF51
 1196 045b 0A       		.byte	0xa
 1197 045c 3E       		.byte	0x3e
 1198 045d 5F030000 		.4byte	0x35f
 1199 0461 08       		.byte	0x8
 1200 0462 11       		.uleb128 0x11
 1201 0463 1A030000 		.4byte	.LASF52
 1202 0467 0A       		.byte	0xa
 1203 0468 3F       		.byte	0x3f
 1204 0469 5F030000 		.4byte	0x35f
 1205 046d 0C       		.byte	0xc
 1206 046e 11       		.uleb128 0x11
 1207 046f E3010000 		.4byte	.LASF53
 1208 0473 0A       		.byte	0xa
 1209 0474 41       		.byte	0x41
 1210 0475 5F030000 		.4byte	0x35f
 1211 0479 10       		.byte	0x10
 1212 047a 11       		.uleb128 0x11
 1213 047b 95000000 		.4byte	.LASF54
 1214 047f 0A       		.byte	0xa
 1215 0480 42       		.byte	0x42
 1216 0481 5F030000 		.4byte	0x35f
 1217 0485 14       		.byte	0x14
 1218 0486 11       		.uleb128 0x11
ARM GAS  /tmp/cc7qF5TC.s 			page 47


 1219 0487 BF010000 		.4byte	.LASF55
 1220 048b 0A       		.byte	0xa
 1221 048c 43       		.byte	0x43
 1222 048d 9F040000 		.4byte	0x49f
 1223 0491 18       		.byte	0x18
 1224 0492 11       		.uleb128 0x11
 1225 0493 B1000000 		.4byte	.LASF56
 1226 0497 0A       		.byte	0xa
 1227 0498 44       		.byte	0x44
 1228 0499 D6010000 		.4byte	0x1d6
 1229 049d 1C       		.byte	0x1c
 1230 049e 00       		.byte	0
 1231 049f 03       		.uleb128 0x3
 1232 04a0 A7000000 		.4byte	.LASF57
 1233 04a4 0A       		.byte	0xa
 1234 04a5 31       		.byte	0x31
 1235 04a6 AA040000 		.4byte	0x4aa
 1236 04aa 0C       		.uleb128 0xc
 1237 04ab 04       		.byte	0x4
 1238 04ac B0040000 		.4byte	0x4b0
 1239 04b0 0D       		.uleb128 0xd
 1240 04b1 BB040000 		.4byte	0x4bb
 1241 04b5 0E       		.uleb128 0xe
 1242 04b6 BB040000 		.4byte	0x4bb
 1243 04ba 00       		.byte	0
 1244 04bb 0C       		.uleb128 0xc
 1245 04bc 04       		.byte	0x4
 1246 04bd 27040000 		.4byte	0x427
 1247 04c1 03       		.uleb128 0x3
 1248 04c2 F8010000 		.4byte	.LASF58
 1249 04c6 0A       		.byte	0xa
 1250 04c7 7A       		.byte	0x7a
 1251 04c8 27040000 		.4byte	0x427
 1252 04cc 03       		.uleb128 0x3
 1253 04cd 5E020000 		.4byte	.LASF59
 1254 04d1 0A       		.byte	0xa
 1255 04d2 CA       		.byte	0xca
 1256 04d3 27040000 		.4byte	0x427
 1257 04d7 13       		.uleb128 0x13
 1258 04d8 04       		.byte	0x4
 1259 04d9 0B       		.byte	0xb
 1260 04da E7       		.byte	0xe7
 1261 04db F8040000 		.4byte	0x4f8
 1262 04df 12       		.uleb128 0x12
 1263 04e0 73657400 		.ascii	"set\000"
 1264 04e4 0B       		.byte	0xb
 1265 04e5 E8       		.byte	0xe8
 1266 04e6 B8000000 		.4byte	0xb8
 1267 04ea 00       		.byte	0
 1268 04eb 11       		.uleb128 0x11
 1269 04ec 6C010000 		.4byte	.LASF60
 1270 04f0 0B       		.byte	0xb
 1271 04f1 E9       		.byte	0xe9
 1272 04f2 B8000000 		.4byte	0xb8
 1273 04f6 02       		.byte	0x2
 1274 04f7 00       		.byte	0
 1275 04f8 15       		.uleb128 0x15
ARM GAS  /tmp/cc7qF5TC.s 			page 48


 1276 04f9 04       		.byte	0x4
 1277 04fa 0B       		.byte	0xb
 1278 04fb E5       		.byte	0xe5
 1279 04fc 13050000 		.4byte	0x513
 1280 0500 16       		.uleb128 0x16
 1281 0501 5700     		.ascii	"W\000"
 1282 0503 0B       		.byte	0xb
 1283 0504 E6       		.byte	0xe6
 1284 0505 CE000000 		.4byte	0xce
 1285 0509 16       		.uleb128 0x16
 1286 050a 4800     		.ascii	"H\000"
 1287 050c 0B       		.byte	0xb
 1288 050d EA       		.byte	0xea
 1289 050e D7040000 		.4byte	0x4d7
 1290 0512 00       		.byte	0
 1291 0513 13       		.uleb128 0x13
 1292 0514 2C       		.byte	0x2c
 1293 0515 0B       		.byte	0xb
 1294 0516 DD       		.byte	0xdd
 1295 0517 A0050000 		.4byte	0x5a0
 1296 051b 11       		.uleb128 0x11
 1297 051c 43010000 		.4byte	.LASF61
 1298 0520 0B       		.byte	0xb
 1299 0521 DF       		.byte	0xdf
 1300 0522 0D010000 		.4byte	0x10d
 1301 0526 00       		.byte	0
 1302 0527 11       		.uleb128 0x11
 1303 0528 E2020000 		.4byte	.LASF62
 1304 052c 0B       		.byte	0xb
 1305 052d E0       		.byte	0xe0
 1306 052e 0D010000 		.4byte	0x10d
 1307 0532 04       		.byte	0x4
 1308 0533 11       		.uleb128 0x11
 1309 0534 83020000 		.4byte	.LASF63
 1310 0538 0B       		.byte	0xb
 1311 0539 E1       		.byte	0xe1
 1312 053a 0D010000 		.4byte	0x10d
 1313 053e 08       		.byte	0x8
 1314 053f 11       		.uleb128 0x11
 1315 0540 CE010000 		.4byte	.LASF64
 1316 0544 0B       		.byte	0xb
 1317 0545 E2       		.byte	0xe2
 1318 0546 0D010000 		.4byte	0x10d
 1319 054a 0C       		.byte	0xc
 1320 054b 12       		.uleb128 0x12
 1321 054c 49445200 		.ascii	"IDR\000"
 1322 0550 0B       		.byte	0xb
 1323 0551 E3       		.byte	0xe3
 1324 0552 0D010000 		.4byte	0x10d
 1325 0556 10       		.byte	0x10
 1326 0557 12       		.uleb128 0x12
 1327 0558 4F445200 		.ascii	"ODR\000"
 1328 055c 0B       		.byte	0xb
 1329 055d E4       		.byte	0xe4
 1330 055e 0D010000 		.4byte	0x10d
 1331 0562 14       		.byte	0x14
 1332 0563 11       		.uleb128 0x11
ARM GAS  /tmp/cc7qF5TC.s 			page 49


 1333 0564 30040000 		.4byte	.LASF65
 1334 0568 0B       		.byte	0xb
 1335 0569 EB       		.byte	0xeb
 1336 056a A0050000 		.4byte	0x5a0
 1337 056e 18       		.byte	0x18
 1338 056f 11       		.uleb128 0x11
 1339 0570 35040000 		.4byte	.LASF66
 1340 0574 0B       		.byte	0xb
 1341 0575 EC       		.byte	0xec
 1342 0576 0D010000 		.4byte	0x10d
 1343 057a 1C       		.byte	0x1c
 1344 057b 11       		.uleb128 0x11
 1345 057c 5B010000 		.4byte	.LASF67
 1346 0580 0B       		.byte	0xb
 1347 0581 ED       		.byte	0xed
 1348 0582 0D010000 		.4byte	0x10d
 1349 0586 20       		.byte	0x20
 1350 0587 11       		.uleb128 0x11
 1351 0588 49010000 		.4byte	.LASF68
 1352 058c 0B       		.byte	0xb
 1353 058d EE       		.byte	0xee
 1354 058e 0D010000 		.4byte	0x10d
 1355 0592 24       		.byte	0x24
 1356 0593 12       		.uleb128 0x12
 1357 0594 42525200 		.ascii	"BRR\000"
 1358 0598 0B       		.byte	0xb
 1359 0599 EF       		.byte	0xef
 1360 059a 0D010000 		.4byte	0x10d
 1361 059e 28       		.byte	0x28
 1362 059f 00       		.byte	0
 1363 05a0 06       		.uleb128 0x6
 1364 05a1 F8040000 		.4byte	0x4f8
 1365 05a5 03       		.uleb128 0x3
 1366 05a6 4E010000 		.4byte	.LASF69
 1367 05aa 0B       		.byte	0xb
 1368 05ab F0       		.byte	0xf0
 1369 05ac 13050000 		.4byte	0x513
 1370 05b0 05       		.uleb128 0x5
 1371 05b1 4B020000 		.4byte	.LASF70
 1372 05b5 0B       		.byte	0xb
 1373 05b6 3F01     		.2byte	0x13f
 1374 05b8 CE000000 		.4byte	0xce
 1375 05bc 05       		.uleb128 0x5
 1376 05bd DF030000 		.4byte	.LASF71
 1377 05c1 0B       		.byte	0xb
 1378 05c2 4401     		.2byte	0x144
 1379 05c4 CE000000 		.4byte	0xce
 1380 05c8 05       		.uleb128 0x5
 1381 05c9 B4010000 		.4byte	.LASF72
 1382 05cd 0B       		.byte	0xb
 1383 05ce 5101     		.2byte	0x151
 1384 05d0 D4050000 		.4byte	0x5d4
 1385 05d4 0C       		.uleb128 0xc
 1386 05d5 04       		.byte	0x4
 1387 05d6 A5050000 		.4byte	0x5a5
 1388 05da 17       		.uleb128 0x17
 1389 05db 01       		.byte	0x1
ARM GAS  /tmp/cc7qF5TC.s 			page 50


 1390 05dc 0C       		.byte	0xc
 1391 05dd 57       		.byte	0x57
 1392 05de F5050000 		.4byte	0x5f5
 1393 05e2 18       		.uleb128 0x18
 1394 05e3 01030000 		.4byte	.LASF73
 1395 05e7 00       		.sleb128 0
 1396 05e8 18       		.uleb128 0x18
 1397 05e9 8E010000 		.4byte	.LASF74
 1398 05ed 01       		.sleb128 1
 1399 05ee 18       		.uleb128 0x18
 1400 05ef 9B020000 		.4byte	.LASF75
 1401 05f3 02       		.sleb128 2
 1402 05f4 00       		.byte	0
 1403 05f5 03       		.uleb128 0x3
 1404 05f6 F4000000 		.4byte	.LASF76
 1405 05fa 0C       		.byte	0xc
 1406 05fb 5B       		.byte	0x5b
 1407 05fc DA050000 		.4byte	0x5da
 1408 0600 03       		.uleb128 0x3
 1409 0601 28000000 		.4byte	.LASF77
 1410 0605 0C       		.byte	0xc
 1411 0606 60       		.byte	0x60
 1412 0607 0B060000 		.4byte	0x60b
 1413 060b 10       		.uleb128 0x10
 1414 060c 28000000 		.4byte	.LASF77
 1415 0610 60       		.byte	0x60
 1416 0611 0C       		.byte	0xc
 1417 0612 7A       		.byte	0x7a
 1418 0613 78060000 		.4byte	0x678
 1419 0617 12       		.uleb128 0x12
 1420 0618 766D7400 		.ascii	"vmt\000"
 1421 061c 0C       		.byte	0xc
 1422 061d 7C       		.byte	0x7c
 1423 061e 2F070000 		.4byte	0x72f
 1424 0622 00       		.byte	0
 1425 0623 11       		.uleb128 0x11
 1426 0624 FE000000 		.4byte	.LASF78
 1427 0628 0C       		.byte	0xc
 1428 0629 7D       		.byte	0x7d
 1429 062a 9F020000 		.4byte	0x29f
 1430 062e 04       		.byte	0x4
 1431 062f 11       		.uleb128 0x11
 1432 0630 C1030000 		.4byte	.LASF79
 1433 0634 0C       		.byte	0xc
 1434 0635 7D       		.byte	0x7d
 1435 0636 F5050000 		.4byte	0x5f5
 1436 063a 10       		.byte	0x10
 1437 063b 11       		.uleb128 0x11
 1438 063c 10000000 		.4byte	.LASF80
 1439 0640 0C       		.byte	0xc
 1440 0641 7D       		.byte	0x7d
 1441 0642 C1040000 		.4byte	0x4c1
 1442 0646 14       		.byte	0x14
 1443 0647 11       		.uleb128 0x11
 1444 0648 8B020000 		.4byte	.LASF81
 1445 064c 0C       		.byte	0xc
 1446 064d 7D       		.byte	0x7d
ARM GAS  /tmp/cc7qF5TC.s 			page 51


 1447 064e CC040000 		.4byte	0x4cc
 1448 0652 34       		.byte	0x34
 1449 0653 11       		.uleb128 0x11
 1450 0654 06020000 		.4byte	.LASF82
 1451 0658 0C       		.byte	0xc
 1452 0659 7D       		.byte	0x7d
 1453 065a 3A070000 		.4byte	0x73a
 1454 065e 54       		.byte	0x54
 1455 065f 11       		.uleb128 0x11
 1456 0660 C8010000 		.4byte	.LASF83
 1457 0664 0C       		.byte	0xc
 1458 0665 7D       		.byte	0x7d
 1459 0666 CE000000 		.4byte	0xce
 1460 066a 58       		.byte	0x58
 1461 066b 11       		.uleb128 0x11
 1462 066c C8020000 		.4byte	.LASF84
 1463 0670 0C       		.byte	0xc
 1464 0671 7D       		.byte	0x7d
 1465 0672 AD000000 		.4byte	0xad
 1466 0676 5C       		.byte	0x5c
 1467 0677 00       		.byte	0
 1468 0678 07       		.uleb128 0x7
 1469 0679 10       		.byte	0x10
 1470 067a 0D       		.byte	0xd
 1471 067b C001     		.2byte	0x1c0
 1472 067d B6060000 		.4byte	0x6b6
 1473 0681 09       		.uleb128 0x9
 1474 0682 CC000000 		.4byte	.LASF85
 1475 0686 0D       		.byte	0xd
 1476 0687 C401     		.2byte	0x1c4
 1477 0689 CE000000 		.4byte	0xce
 1478 068d 00       		.byte	0
 1479 068e 08       		.uleb128 0x8
 1480 068f 63723100 		.ascii	"cr1\000"
 1481 0693 0D       		.byte	0xd
 1482 0694 C901     		.2byte	0x1c9
 1483 0696 CE000000 		.4byte	0xce
 1484 069a 04       		.byte	0x4
 1485 069b 08       		.uleb128 0x8
 1486 069c 63723200 		.ascii	"cr2\000"
 1487 06a0 0D       		.byte	0xd
 1488 06a1 CD01     		.2byte	0x1cd
 1489 06a3 CE000000 		.4byte	0xce
 1490 06a7 08       		.byte	0x8
 1491 06a8 08       		.uleb128 0x8
 1492 06a9 63723300 		.ascii	"cr3\000"
 1493 06ad 0D       		.byte	0xd
 1494 06ae D101     		.2byte	0x1d1
 1495 06b0 CE000000 		.4byte	0xce
 1496 06b4 0C       		.byte	0xc
 1497 06b5 00       		.byte	0
 1498 06b6 05       		.uleb128 0x5
 1499 06b7 E7000000 		.4byte	.LASF86
 1500 06bb 0D       		.byte	0xd
 1501 06bc D201     		.2byte	0x1d2
 1502 06be 78060000 		.4byte	0x678
 1503 06c2 10       		.uleb128 0x10
ARM GAS  /tmp/cc7qF5TC.s 			page 52


 1504 06c3 A4020000 		.4byte	.LASF87
 1505 06c7 20       		.byte	0x20
 1506 06c8 0C       		.byte	0xc
 1507 06c9 6F       		.byte	0x6f
 1508 06ca 2F070000 		.4byte	0x72f
 1509 06ce 11       		.uleb128 0x11
 1510 06cf 39020000 		.4byte	.LASF88
 1511 06d3 0C       		.byte	0xc
 1512 06d4 70       		.byte	0x70
 1513 06d5 40030000 		.4byte	0x340
 1514 06d9 00       		.byte	0
 1515 06da 11       		.uleb128 0x11
 1516 06db FC020000 		.4byte	.LASF89
 1517 06df 0C       		.byte	0xc
 1518 06e0 70       		.byte	0x70
 1519 06e1 65030000 		.4byte	0x365
 1520 06e5 04       		.byte	0x4
 1521 06e6 12       		.uleb128 0x12
 1522 06e7 70757400 		.ascii	"put\000"
 1523 06eb 0C       		.byte	0xc
 1524 06ec 70       		.byte	0x70
 1525 06ed 7F030000 		.4byte	0x37f
 1526 06f1 08       		.byte	0x8
 1527 06f2 12       		.uleb128 0x12
 1528 06f3 67657400 		.ascii	"get\000"
 1529 06f7 0C       		.byte	0xc
 1530 06f8 70       		.byte	0x70
 1531 06f9 94030000 		.4byte	0x394
 1532 06fd 0C       		.byte	0xc
 1533 06fe 11       		.uleb128 0x11
 1534 06ff 7C010000 		.4byte	.LASF90
 1535 0703 0C       		.byte	0xc
 1536 0704 70       		.byte	0x70
 1537 0705 B3030000 		.4byte	0x3b3
 1538 0709 10       		.byte	0x10
 1539 070a 11       		.uleb128 0x11
 1540 070b 15030000 		.4byte	.LASF91
 1541 070f 0C       		.byte	0xc
 1542 0710 70       		.byte	0x70
 1543 0711 CD030000 		.4byte	0x3cd
 1544 0715 14       		.byte	0x14
 1545 0716 11       		.uleb128 0x11
 1546 0717 D2000000 		.4byte	.LASF92
 1547 071b 0C       		.byte	0xc
 1548 071c 70       		.byte	0x70
 1549 071d F1030000 		.4byte	0x3f1
 1550 0721 18       		.byte	0x18
 1551 0722 11       		.uleb128 0x11
 1552 0723 45020000 		.4byte	.LASF93
 1553 0727 0C       		.byte	0xc
 1554 0728 70       		.byte	0x70
 1555 0729 15040000 		.4byte	0x415
 1556 072d 1C       		.byte	0x1c
 1557 072e 00       		.byte	0
 1558 072f 0C       		.uleb128 0xc
 1559 0730 04       		.byte	0x4
 1560 0731 35070000 		.4byte	0x735
ARM GAS  /tmp/cc7qF5TC.s 			page 53


 1561 0735 0F       		.uleb128 0xf
 1562 0736 C2060000 		.4byte	0x6c2
 1563 073a 0C       		.uleb128 0xc
 1564 073b 04       		.byte	0x4
 1565 073c CA010000 		.4byte	0x1ca
 1566 0740 19       		.uleb128 0x19
 1567 0741 C7030000 		.4byte	.LASF94
 1568 0745 01       		.byte	0x1
 1569 0746 18       		.byte	0x18
 1570 0747 00000000 		.4byte	.LFB98
 1571 074b 24000000 		.4byte	.LFE98-.LFB98
 1572 074f 01       		.uleb128 0x1
 1573 0750 9C       		.byte	0x9c
 1574 0751 8B070000 		.4byte	0x78b
 1575 0755 1A       		.uleb128 0x1a
 1576 0756 61726700 		.ascii	"arg\000"
 1577 075a 01       		.byte	0x1
 1578 075b 18       		.byte	0x18
 1579 075c D6010000 		.4byte	0x1d6
 1580 0760 00000000 		.4byte	.LLST0
 1581 0764 1B       		.uleb128 0x1b
 1582 0765 14000000 		.4byte	.LVL2
 1583 0769 23090000 		.4byte	0x923
 1584 076d 79070000 		.4byte	0x779
 1585 0771 1C       		.uleb128 0x1c
 1586 0772 01       		.uleb128 0x1
 1587 0773 50       		.byte	0x50
 1588 0774 03       		.uleb128 0x3
 1589 0775 0A       		.byte	0xa
 1590 0776 F401     		.2byte	0x1f4
 1591 0778 00       		.byte	0
 1592 0779 1D       		.uleb128 0x1d
 1593 077a 1E000000 		.4byte	.LVL3
 1594 077e 23090000 		.4byte	0x923
 1595 0782 1C       		.uleb128 0x1c
 1596 0783 01       		.uleb128 0x1
 1597 0784 50       		.byte	0x50
 1598 0785 03       		.uleb128 0x3
 1599 0786 0A       		.byte	0xa
 1600 0787 F401     		.2byte	0x1f4
 1601 0789 00       		.byte	0
 1602 078a 00       		.byte	0
 1603 078b 19       		.uleb128 0x19
 1604 078c CF030000 		.4byte	.LASF95
 1605 0790 01       		.byte	0x1
 1606 0791 28       		.byte	0x28
 1607 0792 00000000 		.4byte	.LFB99
 1608 0796 20000000 		.4byte	.LFE99-.LFB99
 1609 079a 01       		.uleb128 0x1
 1610 079b 9C       		.byte	0x9c
 1611 079c D4070000 		.4byte	0x7d4
 1612 07a0 1A       		.uleb128 0x1a
 1613 07a1 61726700 		.ascii	"arg\000"
 1614 07a5 01       		.byte	0x1
 1615 07a6 28       		.byte	0x28
 1616 07a7 D6010000 		.4byte	0x1d6
 1617 07ab 21000000 		.4byte	.LLST1
ARM GAS  /tmp/cc7qF5TC.s 			page 54


 1618 07af 1B       		.uleb128 0x1b
 1619 07b0 12000000 		.4byte	.LVL6
 1620 07b4 23090000 		.4byte	0x923
 1621 07b8 C3070000 		.4byte	0x7c3
 1622 07bc 1C       		.uleb128 0x1c
 1623 07bd 01       		.uleb128 0x1
 1624 07be 50       		.byte	0x50
 1625 07bf 02       		.uleb128 0x2
 1626 07c0 08       		.byte	0x8
 1627 07c1 FA       		.byte	0xfa
 1628 07c2 00       		.byte	0
 1629 07c3 1D       		.uleb128 0x1d
 1630 07c4 1A000000 		.4byte	.LVL7
 1631 07c8 23090000 		.4byte	0x923
 1632 07cc 1C       		.uleb128 0x1c
 1633 07cd 01       		.uleb128 0x1
 1634 07ce 50       		.byte	0x50
 1635 07cf 02       		.uleb128 0x2
 1636 07d0 08       		.byte	0x8
 1637 07d1 FA       		.byte	0xfa
 1638 07d2 00       		.byte	0
 1639 07d3 00       		.byte	0
 1640 07d4 19       		.uleb128 0x19
 1641 07d5 D7030000 		.4byte	.LASF96
 1642 07d9 01       		.byte	0x1
 1643 07da 38       		.byte	0x38
 1644 07db 00000000 		.4byte	.LFB100
 1645 07df 48000000 		.4byte	.LFE100-.LFB100
 1646 07e3 01       		.uleb128 0x1
 1647 07e4 9C       		.byte	0x9c
 1648 07e5 82080000 		.4byte	0x882
 1649 07e9 1A       		.uleb128 0x1a
 1650 07ea 61726700 		.ascii	"arg\000"
 1651 07ee 01       		.byte	0x1
 1652 07ef 38       		.byte	0x38
 1653 07f0 D6010000 		.4byte	0x1d6
 1654 07f4 42000000 		.4byte	.LLST2
 1655 07f8 1B       		.uleb128 0x1b
 1656 07f9 0C000000 		.4byte	.LVL10
 1657 07fd 35090000 		.4byte	0x935
 1658 0801 11080000 		.4byte	0x811
 1659 0805 1C       		.uleb128 0x1c
 1660 0806 01       		.uleb128 0x1
 1661 0807 51       		.byte	0x51
 1662 0808 01       		.uleb128 0x1
 1663 0809 30       		.byte	0x30
 1664 080a 1C       		.uleb128 0x1c
 1665 080b 01       		.uleb128 0x1
 1666 080c 50       		.byte	0x50
 1667 080d 02       		.uleb128 0x2
 1668 080e 74       		.byte	0x74
 1669 080f 00       		.sleb128 0
 1670 0810 00       		.byte	0
 1671 0811 1B       		.uleb128 0x1b
 1672 0812 1A000000 		.4byte	.LVL11
 1673 0816 5D090000 		.4byte	0x95d
 1674 081a 33080000 		.4byte	0x833
ARM GAS  /tmp/cc7qF5TC.s 			page 55


 1675 081e 1C       		.uleb128 0x1c
 1676 081f 01       		.uleb128 0x1
 1677 0820 52       		.byte	0x52
 1678 0821 02       		.uleb128 0x2
 1679 0822 08       		.byte	0x8
 1680 0823 82       		.byte	0x82
 1681 0824 1C       		.uleb128 0x1c
 1682 0825 01       		.uleb128 0x1
 1683 0826 51       		.byte	0x51
 1684 0827 03       		.uleb128 0x3
 1685 0828 0A       		.byte	0xa
 1686 0829 0002     		.2byte	0x200
 1687 082b 1C       		.uleb128 0x1c
 1688 082c 01       		.uleb128 0x1
 1689 082d 50       		.byte	0x50
 1690 082e 03       		.uleb128 0x3
 1691 082f 42       		.byte	0x42
 1692 0830 4A       		.byte	0x4a
 1693 0831 24       		.byte	0x24
 1694 0832 00       		.byte	0
 1695 0833 1B       		.uleb128 0x1b
 1696 0834 28000000 		.4byte	.LVL12
 1697 0838 5D090000 		.4byte	0x95d
 1698 083c 55080000 		.4byte	0x855
 1699 0840 1C       		.uleb128 0x1c
 1700 0841 01       		.uleb128 0x1
 1701 0842 52       		.byte	0x52
 1702 0843 02       		.uleb128 0x2
 1703 0844 08       		.byte	0x8
 1704 0845 82       		.byte	0x82
 1705 0846 1C       		.uleb128 0x1c
 1706 0847 01       		.uleb128 0x1
 1707 0848 51       		.byte	0x51
 1708 0849 03       		.uleb128 0x3
 1709 084a 0A       		.byte	0xa
 1710 084b 0004     		.2byte	0x400
 1711 084d 1C       		.uleb128 0x1c
 1712 084e 01       		.uleb128 0x1
 1713 084f 50       		.byte	0x50
 1714 0850 03       		.uleb128 0x3
 1715 0851 42       		.byte	0x42
 1716 0852 4A       		.byte	0x4a
 1717 0853 24       		.byte	0x24
 1718 0854 00       		.byte	0
 1719 0855 1E       		.uleb128 0x1e
 1720 0856 36000000 		.4byte	.LVL13
 1721 085a 70080000 		.4byte	0x870
 1722 085e 1C       		.uleb128 0x1c
 1723 085f 01       		.uleb128 0x1
 1724 0860 52       		.byte	0x52
 1725 0861 01       		.uleb128 0x1
 1726 0862 3E       		.byte	0x3e
 1727 0863 1C       		.uleb128 0x1c
 1728 0864 01       		.uleb128 0x1
 1729 0865 51       		.byte	0x51
 1730 0866 02       		.uleb128 0x2
 1731 0867 75       		.byte	0x75
ARM GAS  /tmp/cc7qF5TC.s 			page 56


 1732 0868 00       		.sleb128 0
 1733 0869 1C       		.uleb128 0x1c
 1734 086a 01       		.uleb128 0x1
 1735 086b 50       		.byte	0x50
 1736 086c 02       		.uleb128 0x2
 1737 086d 74       		.byte	0x74
 1738 086e 00       		.sleb128 0
 1739 086f 00       		.byte	0
 1740 0870 1D       		.uleb128 0x1d
 1741 0871 3E000000 		.4byte	.LVL14
 1742 0875 23090000 		.4byte	0x923
 1743 0879 1C       		.uleb128 0x1c
 1744 087a 01       		.uleb128 0x1
 1745 087b 50       		.byte	0x50
 1746 087c 03       		.uleb128 0x3
 1747 087d 0A       		.byte	0xa
 1748 087e D007     		.2byte	0x7d0
 1749 0880 00       		.byte	0
 1750 0881 00       		.byte	0
 1751 0882 1F       		.uleb128 0x1f
 1752 0883 2B040000 		.4byte	.LASF109
 1753 0887 01       		.byte	0x1
 1754 0888 57       		.byte	0x57
 1755 0889 25000000 		.4byte	0x25
 1756 088d 00000000 		.4byte	.LFB101
 1757 0891 0C000000 		.4byte	.LFE101-.LFB101
 1758 0895 01       		.uleb128 0x1
 1759 0896 9C       		.byte	0x9c
 1760 0897 AE080000 		.4byte	0x8ae
 1761 089b 20       		.uleb128 0x20
 1762 089c 06000000 		.4byte	.LVL15
 1763 08a0 79090000 		.4byte	0x979
 1764 08a4 20       		.uleb128 0x20
 1765 08a5 0A000000 		.4byte	.LVL16
 1766 08a9 80090000 		.4byte	0x980
 1767 08ad 00       		.byte	0
 1768 08ae 21       		.uleb128 0x21
 1769 08af 2C020000 		.4byte	0x22c
 1770 08b3 BE080000 		.4byte	0x8be
 1771 08b7 22       		.uleb128 0x22
 1772 08b8 06010000 		.4byte	0x106
 1773 08bc 03       		.byte	0x3
 1774 08bd 00       		.byte	0
 1775 08be 23       		.uleb128 0x23
 1776 08bf 0C020000 		.4byte	.LASF97
 1777 08c3 01       		.byte	0x1
 1778 08c4 4E       		.byte	0x4e
 1779 08c5 CF080000 		.4byte	0x8cf
 1780 08c9 05       		.uleb128 0x5
 1781 08ca 03       		.byte	0x3
 1782 08cb 00000000 		.4byte	nil_thd_configs
 1783 08cf 0F       		.uleb128 0xf
 1784 08d0 AE080000 		.4byte	0x8ae
 1785 08d4 24       		.uleb128 0x24
 1786 08d5 53443100 		.ascii	"SD1\000"
 1787 08d9 0D       		.byte	0xd
 1788 08da F801     		.2byte	0x1f8
ARM GAS  /tmp/cc7qF5TC.s 			page 57


 1789 08dc 00060000 		.4byte	0x600
 1790 08e0 21       		.uleb128 0x21
 1791 08e1 D8010000 		.4byte	0x1d8
 1792 08e5 F0080000 		.4byte	0x8f0
 1793 08e9 22       		.uleb128 0x22
 1794 08ea 06010000 		.4byte	0x106
 1795 08ee 20       		.byte	0x20
 1796 08ef 00       		.byte	0
 1797 08f0 23       		.uleb128 0x23
 1798 08f1 43030000 		.4byte	.LASF98
 1799 08f5 01       		.byte	0x1
 1800 08f6 17       		.byte	0x17
 1801 08f7 E0080000 		.4byte	0x8e0
 1802 08fb 05       		.uleb128 0x5
 1803 08fc 03       		.byte	0x3
 1804 08fd 00000000 		.4byte	waThread1
 1805 0901 23       		.uleb128 0x23
 1806 0902 4D030000 		.4byte	.LASF99
 1807 0906 01       		.byte	0x1
 1808 0907 27       		.byte	0x27
 1809 0908 E0080000 		.4byte	0x8e0
 1810 090c 05       		.uleb128 0x5
 1811 090d 03       		.byte	0x3
 1812 090e 00000000 		.4byte	waThread2
 1813 0912 23       		.uleb128 0x23
 1814 0913 57030000 		.4byte	.LASF100
 1815 0917 01       		.byte	0x1
 1816 0918 37       		.byte	0x37
 1817 0919 E0080000 		.4byte	0x8e0
 1818 091d 05       		.uleb128 0x5
 1819 091e 03       		.byte	0x3
 1820 091f 00000000 		.4byte	waThread3
 1821 0923 25       		.uleb128 0x25
 1822 0924 B6030000 		.4byte	.LASF101
 1823 0928 06       		.byte	0x6
 1824 0929 3E05     		.2byte	0x53e
 1825 092b 35090000 		.4byte	0x935
 1826 092f 0E       		.uleb128 0xe
 1827 0930 FA000000 		.4byte	0xfa
 1828 0934 00       		.byte	0
 1829 0935 25       		.uleb128 0x25
 1830 0936 35000000 		.4byte	.LASF102
 1831 093a 0C       		.byte	0xc
 1832 093b 1701     		.2byte	0x117
 1833 093d 4C090000 		.4byte	0x94c
 1834 0941 0E       		.uleb128 0xe
 1835 0942 4C090000 		.4byte	0x94c
 1836 0946 0E       		.uleb128 0xe
 1837 0947 52090000 		.4byte	0x952
 1838 094b 00       		.byte	0
 1839 094c 0C       		.uleb128 0xc
 1840 094d 04       		.byte	0x4
 1841 094e 00060000 		.4byte	0x600
 1842 0952 0C       		.uleb128 0xc
 1843 0953 04       		.byte	0x4
 1844 0954 58090000 		.4byte	0x958
 1845 0958 0F       		.uleb128 0xf
ARM GAS  /tmp/cc7qF5TC.s 			page 58


 1846 0959 B6060000 		.4byte	0x6b6
 1847 095d 25       		.uleb128 0x25
 1848 095e 7F000000 		.4byte	.LASF103
 1849 0962 0B       		.byte	0xb
 1850 0963 2402     		.2byte	0x224
 1851 0965 79090000 		.4byte	0x979
 1852 0969 0E       		.uleb128 0xe
 1853 096a C8050000 		.4byte	0x5c8
 1854 096e 0E       		.uleb128 0xe
 1855 096f B0050000 		.4byte	0x5b0
 1856 0973 0E       		.uleb128 0xe
 1857 0974 BC050000 		.4byte	0x5bc
 1858 0978 00       		.byte	0
 1859 0979 26       		.uleb128 0x26
 1860 097a 17000000 		.4byte	.LASF104
 1861 097e 0E       		.byte	0xe
 1862 097f E9       		.byte	0xe9
 1863 0980 27       		.uleb128 0x27
 1864 0981 D9010000 		.4byte	.LASF105
 1865 0985 06       		.byte	0x6
 1866 0986 2E05     		.2byte	0x52e
 1867 0988 00       		.byte	0
 1868              		.section	.debug_abbrev,"",%progbits
 1869              	.Ldebug_abbrev0:
 1870 0000 01       		.uleb128 0x1
 1871 0001 11       		.uleb128 0x11
 1872 0002 01       		.byte	0x1
 1873 0003 25       		.uleb128 0x25
 1874 0004 0E       		.uleb128 0xe
 1875 0005 13       		.uleb128 0x13
 1876 0006 0B       		.uleb128 0xb
 1877 0007 03       		.uleb128 0x3
 1878 0008 0E       		.uleb128 0xe
 1879 0009 1B       		.uleb128 0x1b
 1880 000a 0E       		.uleb128 0xe
 1881 000b 55       		.uleb128 0x55
 1882 000c 17       		.uleb128 0x17
 1883 000d 11       		.uleb128 0x11
 1884 000e 01       		.uleb128 0x1
 1885 000f 10       		.uleb128 0x10
 1886 0010 17       		.uleb128 0x17
 1887 0011 00       		.byte	0
 1888 0012 00       		.byte	0
 1889 0013 02       		.uleb128 0x2
 1890 0014 24       		.uleb128 0x24
 1891 0015 00       		.byte	0
 1892 0016 0B       		.uleb128 0xb
 1893 0017 0B       		.uleb128 0xb
 1894 0018 3E       		.uleb128 0x3e
 1895 0019 0B       		.uleb128 0xb
 1896 001a 03       		.uleb128 0x3
 1897 001b 08       		.uleb128 0x8
 1898 001c 00       		.byte	0
 1899 001d 00       		.byte	0
 1900 001e 03       		.uleb128 0x3
 1901 001f 16       		.uleb128 0x16
 1902 0020 00       		.byte	0
ARM GAS  /tmp/cc7qF5TC.s 			page 59


 1903 0021 03       		.uleb128 0x3
 1904 0022 0E       		.uleb128 0xe
 1905 0023 3A       		.uleb128 0x3a
 1906 0024 0B       		.uleb128 0xb
 1907 0025 3B       		.uleb128 0x3b
 1908 0026 0B       		.uleb128 0xb
 1909 0027 49       		.uleb128 0x49
 1910 0028 13       		.uleb128 0x13
 1911 0029 00       		.byte	0
 1912 002a 00       		.byte	0
 1913 002b 04       		.uleb128 0x4
 1914 002c 24       		.uleb128 0x24
 1915 002d 00       		.byte	0
 1916 002e 0B       		.uleb128 0xb
 1917 002f 0B       		.uleb128 0xb
 1918 0030 3E       		.uleb128 0x3e
 1919 0031 0B       		.uleb128 0xb
 1920 0032 03       		.uleb128 0x3
 1921 0033 0E       		.uleb128 0xe
 1922 0034 00       		.byte	0
 1923 0035 00       		.byte	0
 1924 0036 05       		.uleb128 0x5
 1925 0037 16       		.uleb128 0x16
 1926 0038 00       		.byte	0
 1927 0039 03       		.uleb128 0x3
 1928 003a 0E       		.uleb128 0xe
 1929 003b 3A       		.uleb128 0x3a
 1930 003c 0B       		.uleb128 0xb
 1931 003d 3B       		.uleb128 0x3b
 1932 003e 05       		.uleb128 0x5
 1933 003f 49       		.uleb128 0x49
 1934 0040 13       		.uleb128 0x13
 1935 0041 00       		.byte	0
 1936 0042 00       		.byte	0
 1937 0043 06       		.uleb128 0x6
 1938 0044 35       		.uleb128 0x35
 1939 0045 00       		.byte	0
 1940 0046 49       		.uleb128 0x49
 1941 0047 13       		.uleb128 0x13
 1942 0048 00       		.byte	0
 1943 0049 00       		.byte	0
 1944 004a 07       		.uleb128 0x7
 1945 004b 13       		.uleb128 0x13
 1946 004c 01       		.byte	0x1
 1947 004d 0B       		.uleb128 0xb
 1948 004e 0B       		.uleb128 0xb
 1949 004f 3A       		.uleb128 0x3a
 1950 0050 0B       		.uleb128 0xb
 1951 0051 3B       		.uleb128 0x3b
 1952 0052 05       		.uleb128 0x5
 1953 0053 01       		.uleb128 0x1
 1954 0054 13       		.uleb128 0x13
 1955 0055 00       		.byte	0
 1956 0056 00       		.byte	0
 1957 0057 08       		.uleb128 0x8
 1958 0058 0D       		.uleb128 0xd
 1959 0059 00       		.byte	0
ARM GAS  /tmp/cc7qF5TC.s 			page 60


 1960 005a 03       		.uleb128 0x3
 1961 005b 08       		.uleb128 0x8
 1962 005c 3A       		.uleb128 0x3a
 1963 005d 0B       		.uleb128 0xb
 1964 005e 3B       		.uleb128 0x3b
 1965 005f 05       		.uleb128 0x5
 1966 0060 49       		.uleb128 0x49
 1967 0061 13       		.uleb128 0x13
 1968 0062 38       		.uleb128 0x38
 1969 0063 0B       		.uleb128 0xb
 1970 0064 00       		.byte	0
 1971 0065 00       		.byte	0
 1972 0066 09       		.uleb128 0x9
 1973 0067 0D       		.uleb128 0xd
 1974 0068 00       		.byte	0
 1975 0069 03       		.uleb128 0x3
 1976 006a 0E       		.uleb128 0xe
 1977 006b 3A       		.uleb128 0x3a
 1978 006c 0B       		.uleb128 0xb
 1979 006d 3B       		.uleb128 0x3b
 1980 006e 05       		.uleb128 0x5
 1981 006f 49       		.uleb128 0x49
 1982 0070 13       		.uleb128 0x13
 1983 0071 38       		.uleb128 0x38
 1984 0072 0B       		.uleb128 0xb
 1985 0073 00       		.byte	0
 1986 0074 00       		.byte	0
 1987 0075 0A       		.uleb128 0xa
 1988 0076 0F       		.uleb128 0xf
 1989 0077 00       		.byte	0
 1990 0078 0B       		.uleb128 0xb
 1991 0079 0B       		.uleb128 0xb
 1992 007a 00       		.byte	0
 1993 007b 00       		.byte	0
 1994 007c 0B       		.uleb128 0xb
 1995 007d 13       		.uleb128 0x13
 1996 007e 01       		.byte	0x1
 1997 007f 03       		.uleb128 0x3
 1998 0080 0E       		.uleb128 0xe
 1999 0081 0B       		.uleb128 0xb
 2000 0082 0B       		.uleb128 0xb
 2001 0083 3A       		.uleb128 0x3a
 2002 0084 0B       		.uleb128 0xb
 2003 0085 3B       		.uleb128 0x3b
 2004 0086 05       		.uleb128 0x5
 2005 0087 01       		.uleb128 0x1
 2006 0088 13       		.uleb128 0x13
 2007 0089 00       		.byte	0
 2008 008a 00       		.byte	0
 2009 008b 0C       		.uleb128 0xc
 2010 008c 0F       		.uleb128 0xf
 2011 008d 00       		.byte	0
 2012 008e 0B       		.uleb128 0xb
 2013 008f 0B       		.uleb128 0xb
 2014 0090 49       		.uleb128 0x49
 2015 0091 13       		.uleb128 0x13
 2016 0092 00       		.byte	0
ARM GAS  /tmp/cc7qF5TC.s 			page 61


 2017 0093 00       		.byte	0
 2018 0094 0D       		.uleb128 0xd
 2019 0095 15       		.uleb128 0x15
 2020 0096 01       		.byte	0x1
 2021 0097 27       		.uleb128 0x27
 2022 0098 19       		.uleb128 0x19
 2023 0099 01       		.uleb128 0x1
 2024 009a 13       		.uleb128 0x13
 2025 009b 00       		.byte	0
 2026 009c 00       		.byte	0
 2027 009d 0E       		.uleb128 0xe
 2028 009e 05       		.uleb128 0x5
 2029 009f 00       		.byte	0
 2030 00a0 49       		.uleb128 0x49
 2031 00a1 13       		.uleb128 0x13
 2032 00a2 00       		.byte	0
 2033 00a3 00       		.byte	0
 2034 00a4 0F       		.uleb128 0xf
 2035 00a5 26       		.uleb128 0x26
 2036 00a6 00       		.byte	0
 2037 00a7 49       		.uleb128 0x49
 2038 00a8 13       		.uleb128 0x13
 2039 00a9 00       		.byte	0
 2040 00aa 00       		.byte	0
 2041 00ab 10       		.uleb128 0x10
 2042 00ac 13       		.uleb128 0x13
 2043 00ad 01       		.byte	0x1
 2044 00ae 03       		.uleb128 0x3
 2045 00af 0E       		.uleb128 0xe
 2046 00b0 0B       		.uleb128 0xb
 2047 00b1 0B       		.uleb128 0xb
 2048 00b2 3A       		.uleb128 0x3a
 2049 00b3 0B       		.uleb128 0xb
 2050 00b4 3B       		.uleb128 0x3b
 2051 00b5 0B       		.uleb128 0xb
 2052 00b6 01       		.uleb128 0x1
 2053 00b7 13       		.uleb128 0x13
 2054 00b8 00       		.byte	0
 2055 00b9 00       		.byte	0
 2056 00ba 11       		.uleb128 0x11
 2057 00bb 0D       		.uleb128 0xd
 2058 00bc 00       		.byte	0
 2059 00bd 03       		.uleb128 0x3
 2060 00be 0E       		.uleb128 0xe
 2061 00bf 3A       		.uleb128 0x3a
 2062 00c0 0B       		.uleb128 0xb
 2063 00c1 3B       		.uleb128 0x3b
 2064 00c2 0B       		.uleb128 0xb
 2065 00c3 49       		.uleb128 0x49
 2066 00c4 13       		.uleb128 0x13
 2067 00c5 38       		.uleb128 0x38
 2068 00c6 0B       		.uleb128 0xb
 2069 00c7 00       		.byte	0
 2070 00c8 00       		.byte	0
 2071 00c9 12       		.uleb128 0x12
 2072 00ca 0D       		.uleb128 0xd
 2073 00cb 00       		.byte	0
ARM GAS  /tmp/cc7qF5TC.s 			page 62


 2074 00cc 03       		.uleb128 0x3
 2075 00cd 08       		.uleb128 0x8
 2076 00ce 3A       		.uleb128 0x3a
 2077 00cf 0B       		.uleb128 0xb
 2078 00d0 3B       		.uleb128 0x3b
 2079 00d1 0B       		.uleb128 0xb
 2080 00d2 49       		.uleb128 0x49
 2081 00d3 13       		.uleb128 0x13
 2082 00d4 38       		.uleb128 0x38
 2083 00d5 0B       		.uleb128 0xb
 2084 00d6 00       		.byte	0
 2085 00d7 00       		.byte	0
 2086 00d8 13       		.uleb128 0x13
 2087 00d9 13       		.uleb128 0x13
 2088 00da 01       		.byte	0x1
 2089 00db 0B       		.uleb128 0xb
 2090 00dc 0B       		.uleb128 0xb
 2091 00dd 3A       		.uleb128 0x3a
 2092 00de 0B       		.uleb128 0xb
 2093 00df 3B       		.uleb128 0x3b
 2094 00e0 0B       		.uleb128 0xb
 2095 00e1 01       		.uleb128 0x1
 2096 00e2 13       		.uleb128 0x13
 2097 00e3 00       		.byte	0
 2098 00e4 00       		.byte	0
 2099 00e5 14       		.uleb128 0x14
 2100 00e6 15       		.uleb128 0x15
 2101 00e7 01       		.byte	0x1
 2102 00e8 27       		.uleb128 0x27
 2103 00e9 19       		.uleb128 0x19
 2104 00ea 49       		.uleb128 0x49
 2105 00eb 13       		.uleb128 0x13
 2106 00ec 01       		.uleb128 0x1
 2107 00ed 13       		.uleb128 0x13
 2108 00ee 00       		.byte	0
 2109 00ef 00       		.byte	0
 2110 00f0 15       		.uleb128 0x15
 2111 00f1 17       		.uleb128 0x17
 2112 00f2 01       		.byte	0x1
 2113 00f3 0B       		.uleb128 0xb
 2114 00f4 0B       		.uleb128 0xb
 2115 00f5 3A       		.uleb128 0x3a
 2116 00f6 0B       		.uleb128 0xb
 2117 00f7 3B       		.uleb128 0x3b
 2118 00f8 0B       		.uleb128 0xb
 2119 00f9 01       		.uleb128 0x1
 2120 00fa 13       		.uleb128 0x13
 2121 00fb 00       		.byte	0
 2122 00fc 00       		.byte	0
 2123 00fd 16       		.uleb128 0x16
 2124 00fe 0D       		.uleb128 0xd
 2125 00ff 00       		.byte	0
 2126 0100 03       		.uleb128 0x3
 2127 0101 08       		.uleb128 0x8
 2128 0102 3A       		.uleb128 0x3a
 2129 0103 0B       		.uleb128 0xb
 2130 0104 3B       		.uleb128 0x3b
ARM GAS  /tmp/cc7qF5TC.s 			page 63


 2131 0105 0B       		.uleb128 0xb
 2132 0106 49       		.uleb128 0x49
 2133 0107 13       		.uleb128 0x13
 2134 0108 00       		.byte	0
 2135 0109 00       		.byte	0
 2136 010a 17       		.uleb128 0x17
 2137 010b 04       		.uleb128 0x4
 2138 010c 01       		.byte	0x1
 2139 010d 0B       		.uleb128 0xb
 2140 010e 0B       		.uleb128 0xb
 2141 010f 3A       		.uleb128 0x3a
 2142 0110 0B       		.uleb128 0xb
 2143 0111 3B       		.uleb128 0x3b
 2144 0112 0B       		.uleb128 0xb
 2145 0113 01       		.uleb128 0x1
 2146 0114 13       		.uleb128 0x13
 2147 0115 00       		.byte	0
 2148 0116 00       		.byte	0
 2149 0117 18       		.uleb128 0x18
 2150 0118 28       		.uleb128 0x28
 2151 0119 00       		.byte	0
 2152 011a 03       		.uleb128 0x3
 2153 011b 0E       		.uleb128 0xe
 2154 011c 1C       		.uleb128 0x1c
 2155 011d 0D       		.uleb128 0xd
 2156 011e 00       		.byte	0
 2157 011f 00       		.byte	0
 2158 0120 19       		.uleb128 0x19
 2159 0121 2E       		.uleb128 0x2e
 2160 0122 01       		.byte	0x1
 2161 0123 3F       		.uleb128 0x3f
 2162 0124 19       		.uleb128 0x19
 2163 0125 03       		.uleb128 0x3
 2164 0126 0E       		.uleb128 0xe
 2165 0127 3A       		.uleb128 0x3a
 2166 0128 0B       		.uleb128 0xb
 2167 0129 3B       		.uleb128 0x3b
 2168 012a 0B       		.uleb128 0xb
 2169 012b 27       		.uleb128 0x27
 2170 012c 19       		.uleb128 0x19
 2171 012d 11       		.uleb128 0x11
 2172 012e 01       		.uleb128 0x1
 2173 012f 12       		.uleb128 0x12
 2174 0130 06       		.uleb128 0x6
 2175 0131 40       		.uleb128 0x40
 2176 0132 18       		.uleb128 0x18
 2177 0133 9742     		.uleb128 0x2117
 2178 0135 19       		.uleb128 0x19
 2179 0136 01       		.uleb128 0x1
 2180 0137 13       		.uleb128 0x13
 2181 0138 00       		.byte	0
 2182 0139 00       		.byte	0
 2183 013a 1A       		.uleb128 0x1a
 2184 013b 05       		.uleb128 0x5
 2185 013c 00       		.byte	0
 2186 013d 03       		.uleb128 0x3
 2187 013e 08       		.uleb128 0x8
ARM GAS  /tmp/cc7qF5TC.s 			page 64


 2188 013f 3A       		.uleb128 0x3a
 2189 0140 0B       		.uleb128 0xb
 2190 0141 3B       		.uleb128 0x3b
 2191 0142 0B       		.uleb128 0xb
 2192 0143 49       		.uleb128 0x49
 2193 0144 13       		.uleb128 0x13
 2194 0145 02       		.uleb128 0x2
 2195 0146 17       		.uleb128 0x17
 2196 0147 00       		.byte	0
 2197 0148 00       		.byte	0
 2198 0149 1B       		.uleb128 0x1b
 2199 014a 898201   		.uleb128 0x4109
 2200 014d 01       		.byte	0x1
 2201 014e 11       		.uleb128 0x11
 2202 014f 01       		.uleb128 0x1
 2203 0150 31       		.uleb128 0x31
 2204 0151 13       		.uleb128 0x13
 2205 0152 01       		.uleb128 0x1
 2206 0153 13       		.uleb128 0x13
 2207 0154 00       		.byte	0
 2208 0155 00       		.byte	0
 2209 0156 1C       		.uleb128 0x1c
 2210 0157 8A8201   		.uleb128 0x410a
 2211 015a 00       		.byte	0
 2212 015b 02       		.uleb128 0x2
 2213 015c 18       		.uleb128 0x18
 2214 015d 9142     		.uleb128 0x2111
 2215 015f 18       		.uleb128 0x18
 2216 0160 00       		.byte	0
 2217 0161 00       		.byte	0
 2218 0162 1D       		.uleb128 0x1d
 2219 0163 898201   		.uleb128 0x4109
 2220 0166 01       		.byte	0x1
 2221 0167 11       		.uleb128 0x11
 2222 0168 01       		.uleb128 0x1
 2223 0169 31       		.uleb128 0x31
 2224 016a 13       		.uleb128 0x13
 2225 016b 00       		.byte	0
 2226 016c 00       		.byte	0
 2227 016d 1E       		.uleb128 0x1e
 2228 016e 898201   		.uleb128 0x4109
 2229 0171 01       		.byte	0x1
 2230 0172 11       		.uleb128 0x11
 2231 0173 01       		.uleb128 0x1
 2232 0174 01       		.uleb128 0x1
 2233 0175 13       		.uleb128 0x13
 2234 0176 00       		.byte	0
 2235 0177 00       		.byte	0
 2236 0178 1F       		.uleb128 0x1f
 2237 0179 2E       		.uleb128 0x2e
 2238 017a 01       		.byte	0x1
 2239 017b 3F       		.uleb128 0x3f
 2240 017c 19       		.uleb128 0x19
 2241 017d 03       		.uleb128 0x3
 2242 017e 0E       		.uleb128 0xe
 2243 017f 3A       		.uleb128 0x3a
 2244 0180 0B       		.uleb128 0xb
ARM GAS  /tmp/cc7qF5TC.s 			page 65


 2245 0181 3B       		.uleb128 0x3b
 2246 0182 0B       		.uleb128 0xb
 2247 0183 27       		.uleb128 0x27
 2248 0184 19       		.uleb128 0x19
 2249 0185 49       		.uleb128 0x49
 2250 0186 13       		.uleb128 0x13
 2251 0187 11       		.uleb128 0x11
 2252 0188 01       		.uleb128 0x1
 2253 0189 12       		.uleb128 0x12
 2254 018a 06       		.uleb128 0x6
 2255 018b 40       		.uleb128 0x40
 2256 018c 18       		.uleb128 0x18
 2257 018d 9742     		.uleb128 0x2117
 2258 018f 19       		.uleb128 0x19
 2259 0190 01       		.uleb128 0x1
 2260 0191 13       		.uleb128 0x13
 2261 0192 00       		.byte	0
 2262 0193 00       		.byte	0
 2263 0194 20       		.uleb128 0x20
 2264 0195 898201   		.uleb128 0x4109
 2265 0198 00       		.byte	0
 2266 0199 11       		.uleb128 0x11
 2267 019a 01       		.uleb128 0x1
 2268 019b 31       		.uleb128 0x31
 2269 019c 13       		.uleb128 0x13
 2270 019d 00       		.byte	0
 2271 019e 00       		.byte	0
 2272 019f 21       		.uleb128 0x21
 2273 01a0 01       		.uleb128 0x1
 2274 01a1 01       		.byte	0x1
 2275 01a2 49       		.uleb128 0x49
 2276 01a3 13       		.uleb128 0x13
 2277 01a4 01       		.uleb128 0x1
 2278 01a5 13       		.uleb128 0x13
 2279 01a6 00       		.byte	0
 2280 01a7 00       		.byte	0
 2281 01a8 22       		.uleb128 0x22
 2282 01a9 21       		.uleb128 0x21
 2283 01aa 00       		.byte	0
 2284 01ab 49       		.uleb128 0x49
 2285 01ac 13       		.uleb128 0x13
 2286 01ad 2F       		.uleb128 0x2f
 2287 01ae 0B       		.uleb128 0xb
 2288 01af 00       		.byte	0
 2289 01b0 00       		.byte	0
 2290 01b1 23       		.uleb128 0x23
 2291 01b2 34       		.uleb128 0x34
 2292 01b3 00       		.byte	0
 2293 01b4 03       		.uleb128 0x3
 2294 01b5 0E       		.uleb128 0xe
 2295 01b6 3A       		.uleb128 0x3a
 2296 01b7 0B       		.uleb128 0xb
 2297 01b8 3B       		.uleb128 0x3b
 2298 01b9 0B       		.uleb128 0xb
 2299 01ba 49       		.uleb128 0x49
 2300 01bb 13       		.uleb128 0x13
 2301 01bc 3F       		.uleb128 0x3f
ARM GAS  /tmp/cc7qF5TC.s 			page 66


 2302 01bd 19       		.uleb128 0x19
 2303 01be 02       		.uleb128 0x2
 2304 01bf 18       		.uleb128 0x18
 2305 01c0 00       		.byte	0
 2306 01c1 00       		.byte	0
 2307 01c2 24       		.uleb128 0x24
 2308 01c3 34       		.uleb128 0x34
 2309 01c4 00       		.byte	0
 2310 01c5 03       		.uleb128 0x3
 2311 01c6 08       		.uleb128 0x8
 2312 01c7 3A       		.uleb128 0x3a
 2313 01c8 0B       		.uleb128 0xb
 2314 01c9 3B       		.uleb128 0x3b
 2315 01ca 05       		.uleb128 0x5
 2316 01cb 49       		.uleb128 0x49
 2317 01cc 13       		.uleb128 0x13
 2318 01cd 3F       		.uleb128 0x3f
 2319 01ce 19       		.uleb128 0x19
 2320 01cf 3C       		.uleb128 0x3c
 2321 01d0 19       		.uleb128 0x19
 2322 01d1 00       		.byte	0
 2323 01d2 00       		.byte	0
 2324 01d3 25       		.uleb128 0x25
 2325 01d4 2E       		.uleb128 0x2e
 2326 01d5 01       		.byte	0x1
 2327 01d6 3F       		.uleb128 0x3f
 2328 01d7 19       		.uleb128 0x19
 2329 01d8 03       		.uleb128 0x3
 2330 01d9 0E       		.uleb128 0xe
 2331 01da 3A       		.uleb128 0x3a
 2332 01db 0B       		.uleb128 0xb
 2333 01dc 3B       		.uleb128 0x3b
 2334 01dd 05       		.uleb128 0x5
 2335 01de 27       		.uleb128 0x27
 2336 01df 19       		.uleb128 0x19
 2337 01e0 3C       		.uleb128 0x3c
 2338 01e1 19       		.uleb128 0x19
 2339 01e2 01       		.uleb128 0x1
 2340 01e3 13       		.uleb128 0x13
 2341 01e4 00       		.byte	0
 2342 01e5 00       		.byte	0
 2343 01e6 26       		.uleb128 0x26
 2344 01e7 2E       		.uleb128 0x2e
 2345 01e8 00       		.byte	0
 2346 01e9 3F       		.uleb128 0x3f
 2347 01ea 19       		.uleb128 0x19
 2348 01eb 03       		.uleb128 0x3
 2349 01ec 0E       		.uleb128 0xe
 2350 01ed 3A       		.uleb128 0x3a
 2351 01ee 0B       		.uleb128 0xb
 2352 01ef 3B       		.uleb128 0x3b
 2353 01f0 0B       		.uleb128 0xb
 2354 01f1 27       		.uleb128 0x27
 2355 01f2 19       		.uleb128 0x19
 2356 01f3 3C       		.uleb128 0x3c
 2357 01f4 19       		.uleb128 0x19
 2358 01f5 00       		.byte	0
ARM GAS  /tmp/cc7qF5TC.s 			page 67


 2359 01f6 00       		.byte	0
 2360 01f7 27       		.uleb128 0x27
 2361 01f8 2E       		.uleb128 0x2e
 2362 01f9 00       		.byte	0
 2363 01fa 3F       		.uleb128 0x3f
 2364 01fb 19       		.uleb128 0x19
 2365 01fc 03       		.uleb128 0x3
 2366 01fd 0E       		.uleb128 0xe
 2367 01fe 3A       		.uleb128 0x3a
 2368 01ff 0B       		.uleb128 0xb
 2369 0200 3B       		.uleb128 0x3b
 2370 0201 05       		.uleb128 0x5
 2371 0202 27       		.uleb128 0x27
 2372 0203 19       		.uleb128 0x19
 2373 0204 3C       		.uleb128 0x3c
 2374 0205 19       		.uleb128 0x19
 2375 0206 00       		.byte	0
 2376 0207 00       		.byte	0
 2377 0208 00       		.byte	0
 2378              		.section	.debug_loc,"",%progbits
 2379              	.Ldebug_loc0:
 2380              	.LLST0:
 2381 0000 00000000 		.4byte	.LVL0
 2382 0004 0A000000 		.4byte	.LVL1
 2383 0008 0100     		.2byte	0x1
 2384 000a 50       		.byte	0x50
 2385 000b 0A000000 		.4byte	.LVL1
 2386 000f 24000000 		.4byte	.LFE98
 2387 0013 0400     		.2byte	0x4
 2388 0015 F3       		.byte	0xf3
 2389 0016 01       		.uleb128 0x1
 2390 0017 50       		.byte	0x50
 2391 0018 9F       		.byte	0x9f
 2392 0019 00000000 		.4byte	0
 2393 001d 00000000 		.4byte	0
 2394              	.LLST1:
 2395 0021 00000000 		.4byte	.LVL4
 2396 0025 0A000000 		.4byte	.LVL5
 2397 0029 0100     		.2byte	0x1
 2398 002b 50       		.byte	0x50
 2399 002c 0A000000 		.4byte	.LVL5
 2400 0030 20000000 		.4byte	.LFE99
 2401 0034 0400     		.2byte	0x4
 2402 0036 F3       		.byte	0xf3
 2403 0037 01       		.uleb128 0x1
 2404 0038 50       		.byte	0x50
 2405 0039 9F       		.byte	0x9f
 2406 003a 00000000 		.4byte	0
 2407 003e 00000000 		.4byte	0
 2408              	.LLST2:
 2409 0042 00000000 		.4byte	.LVL8
 2410 0046 08000000 		.4byte	.LVL9
 2411 004a 0100     		.2byte	0x1
 2412 004c 50       		.byte	0x50
 2413 004d 08000000 		.4byte	.LVL9
 2414 0051 48000000 		.4byte	.LFE100
 2415 0055 0400     		.2byte	0x4
ARM GAS  /tmp/cc7qF5TC.s 			page 68


 2416 0057 F3       		.byte	0xf3
 2417 0058 01       		.uleb128 0x1
 2418 0059 50       		.byte	0x50
 2419 005a 9F       		.byte	0x9f
 2420 005b 00000000 		.4byte	0
 2421 005f 00000000 		.4byte	0
 2422              		.section	.debug_aranges,"",%progbits
 2423 0000 34000000 		.4byte	0x34
 2424 0004 0200     		.2byte	0x2
 2425 0006 00000000 		.4byte	.Ldebug_info0
 2426 000a 04       		.byte	0x4
 2427 000b 00       		.byte	0
 2428 000c 0000     		.2byte	0
 2429 000e 0000     		.2byte	0
 2430 0010 00000000 		.4byte	.LFB98
 2431 0014 24000000 		.4byte	.LFE98-.LFB98
 2432 0018 00000000 		.4byte	.LFB99
 2433 001c 20000000 		.4byte	.LFE99-.LFB99
 2434 0020 00000000 		.4byte	.LFB100
 2435 0024 48000000 		.4byte	.LFE100-.LFB100
 2436 0028 00000000 		.4byte	.LFB101
 2437 002c 0C000000 		.4byte	.LFE101-.LFB101
 2438 0030 00000000 		.4byte	0
 2439 0034 00000000 		.4byte	0
 2440              		.section	.debug_ranges,"",%progbits
 2441              	.Ldebug_ranges0:
 2442 0000 00000000 		.4byte	.LFB98
 2443 0004 24000000 		.4byte	.LFE98
 2444 0008 00000000 		.4byte	.LFB99
 2445 000c 20000000 		.4byte	.LFE99
 2446 0010 00000000 		.4byte	.LFB100
 2447 0014 48000000 		.4byte	.LFE100
 2448 0018 00000000 		.4byte	.LFB101
 2449 001c 0C000000 		.4byte	.LFE101
 2450 0020 00000000 		.4byte	0
 2451 0024 00000000 		.4byte	0
 2452              		.section	.debug_line,"",%progbits
 2453              	.Ldebug_line0:
 2454 0000 C6020000 		.section	.debug_str,"MS",%progbits,1
 2454      02003C02 
 2454      00000201 
 2454      FB0E0D00 
 2454      01010101 
 2455              	.LASF45:
 2456 0000 74687265 		.ascii	"threads_queue_t\000"
 2456      6164735F 
 2456      71756575 
 2456      655F7400 
 2457              	.LASF80:
 2458 0010 69717565 		.ascii	"iqueue\000"
 2458      756500
 2459              	.LASF104:
 2460 0017 68616C49 		.ascii	"halInit\000"
 2460      6E697400 
 2461              	.LASF51:
 2462 001f 715F6275 		.ascii	"q_buffer\000"
 2462      66666572 
ARM GAS  /tmp/cc7qF5TC.s 			page 69


 2462      00
 2463              	.LASF77:
 2464 0028 53657269 		.ascii	"SerialDriver\000"
 2464      616C4472 
 2464      69766572 
 2464      00
 2465              	.LASF102:
 2466 0035 73645374 		.ascii	"sdStart\000"
 2466      61727400 
 2467              	.LASF107:
 2468 003d 6D61696E 		.ascii	"main.c\000"
 2468      2E6300
 2469              	.LASF35:
 2470 0044 77626173 		.ascii	"wbase\000"
 2470      6500
 2471              	.LASF41:
 2472 004a 6576656E 		.ascii	"event_source\000"
 2472      745F736F 
 2472      75726365 
 2472      00
 2473              	.LASF42:
 2474 0057 666C6167 		.ascii	"flags\000"
 2474      7300
 2475              	.LASF22:
 2476 005d 73797374 		.ascii	"systime_t\000"
 2476      696D655F 
 2476      7400
 2477              	.LASF47:
 2478 0067 696F5F71 		.ascii	"io_queue_t\000"
 2478      75657565 
 2478      5F7400
 2479              	.LASF0:
 2480 0072 756E7369 		.ascii	"unsigned int\000"
 2480      676E6564 
 2480      20696E74 
 2480      00
 2481              	.LASF103:
 2482 007f 5F70616C 		.ascii	"_pal_lld_setgroupmode\000"
 2482      5F6C6C64 
 2482      5F736574 
 2482      67726F75 
 2482      706D6F64 
 2483              	.LASF54:
 2484 0095 715F7264 		.ascii	"q_rdptr\000"
 2484      70747200 
 2485              	.LASF8:
 2486 009d 5F5F696E 		.ascii	"__int32_t\000"
 2486      7433325F 
 2486      7400
 2487              	.LASF57:
 2488 00a7 716E6F74 		.ascii	"qnotify_t\000"
 2488      6966795F 
 2488      7400
 2489              	.LASF56:
 2490 00b1 715F6C69 		.ascii	"q_link\000"
 2490      6E6B00
 2491              	.LASF38:
ARM GAS  /tmp/cc7qF5TC.s 			page 70


 2492 00b8 66756E63 		.ascii	"funcp\000"
 2492      7000
 2493              	.LASF33:
 2494 00be 6E696C5F 		.ascii	"nil_semaphore\000"
 2494      73656D61 
 2494      70686F72 
 2494      6500
 2495              	.LASF85:
 2496 00cc 73706565 		.ascii	"speed\000"
 2496      6400
 2497              	.LASF92:
 2498 00d2 77726974 		.ascii	"writet\000"
 2498      657400
 2499              	.LASF24:
 2500 00d9 47545052 		.ascii	"GTPR\000"
 2500      00
 2501              	.LASF18:
 2502 00de 75696E74 		.ascii	"uint32_t\000"
 2502      33325F74 
 2502      00
 2503              	.LASF86:
 2504 00e7 53657269 		.ascii	"SerialConfig\000"
 2504      616C436F 
 2504      6E666967 
 2504      00
 2505              	.LASF76:
 2506 00f4 73647374 		.ascii	"sdstate_t\000"
 2506      6174655F 
 2506      7400
 2507              	.LASF78:
 2508 00fe 6576656E 		.ascii	"event\000"
 2508      7400
 2509              	.LASF31:
 2510 0104 7466756E 		.ascii	"tfunc_t\000"
 2510      635F7400 
 2511              	.LASF14:
 2512 010c 6C6F6E67 		.ascii	"long long unsigned int\000"
 2512      206C6F6E 
 2512      6720756E 
 2512      7369676E 
 2512      65642069 
 2513              	.LASF40:
 2514 0123 6576656E 		.ascii	"event_source_t\000"
 2514      745F736F 
 2514      75726365 
 2514      5F7400
 2515              	.LASF6:
 2516 0132 5F5F7569 		.ascii	"__uint16_t\000"
 2516      6E743136 
 2516      5F7400
 2517              	.LASF21:
 2518 013d 636E745F 		.ascii	"cnt_t\000"
 2518      7400
 2519              	.LASF61:
 2520 0143 4D4F4445 		.ascii	"MODER\000"
 2520      5200
 2521              	.LASF68:
ARM GAS  /tmp/cc7qF5TC.s 			page 71


 2522 0149 41465248 		.ascii	"AFRH\000"
 2522      00
 2523              	.LASF69:
 2524 014e 73746D33 		.ascii	"stm32_gpio_t\000"
 2524      325F6770 
 2524      696F5F74 
 2524      00
 2525              	.LASF67:
 2526 015b 4146524C 		.ascii	"AFRL\000"
 2526      00
 2527              	.LASF30:
 2528 0160 73656D61 		.ascii	"semaphore_t\000"
 2528      70686F72 
 2528      655F7400 
 2529              	.LASF60:
 2530 016c 636C6561 		.ascii	"clear\000"
 2530      7200
 2531              	.LASF49:
 2532 0172 715F7761 		.ascii	"q_waiting\000"
 2532      6974696E 
 2532      6700
 2533              	.LASF90:
 2534 017c 70757474 		.ascii	"putt\000"
 2534      00
 2535              	.LASF2:
 2536 0181 73697A65 		.ascii	"size_t\000"
 2536      5F7400
 2537              	.LASF46:
 2538 0188 5F426F6F 		.ascii	"_Bool\000"
 2538      6C00
 2539              	.LASF74:
 2540 018e 53445F53 		.ascii	"SD_STOP\000"
 2540      544F5000 
 2541              	.LASF36:
 2542 0196 77656E64 		.ascii	"wend\000"
 2542      00
 2543              	.LASF13:
 2544 019b 5F5F7569 		.ascii	"__uint64_t\000"
 2544      6E743634 
 2544      5F7400
 2545              	.LASF28:
 2546 01a6 55534152 		.ascii	"USART_TypeDef\000"
 2546      545F5479 
 2546      70654465 
 2546      6600
 2547              	.LASF72:
 2548 01b4 696F706F 		.ascii	"ioportid_t\000"
 2548      72746964 
 2548      5F7400
 2549              	.LASF55:
 2550 01bf 715F6E6F 		.ascii	"q_notify\000"
 2550      74696679 
 2550      00
 2551              	.LASF83:
 2552 01c8 636C6F63 		.ascii	"clock\000"
 2552      6B00
 2553              	.LASF64:
ARM GAS  /tmp/cc7qF5TC.s 			page 72


 2554 01ce 50555044 		.ascii	"PUPDR\000"
 2554      5200
 2555              	.LASF39:
 2556 01d4 63686172 		.ascii	"char\000"
 2556      00
 2557              	.LASF105:
 2558 01d9 63685379 		.ascii	"chSysInit\000"
 2558      73496E69 
 2558      7400
 2559              	.LASF53:
 2560 01e3 715F7772 		.ascii	"q_wrptr\000"
 2560      70747200 
 2561              	.LASF15:
 2562 01eb 75696E74 		.ascii	"uint8_t\000"
 2562      385F7400 
 2563              	.LASF25:
 2564 01f3 52544F52 		.ascii	"RTOR\000"
 2564      00
 2565              	.LASF58:
 2566 01f8 696E7075 		.ascii	"input_queue_t\000"
 2566      745F7175 
 2566      6575655F 
 2566      7400
 2567              	.LASF82:
 2568 0206 75736172 		.ascii	"usart\000"
 2568      7400
 2569              	.LASF97:
 2570 020c 6E696C5F 		.ascii	"nil_thd_configs\000"
 2570      7468645F 
 2570      636F6E66 
 2570      69677300 
 2571              	.LASF34:
 2572 021c 6E696C5F 		.ascii	"nil_thread_cfg\000"
 2572      74687265 
 2572      61645F63 
 2572      666700
 2573              	.LASF12:
 2574 022b 6C6F6E67 		.ascii	"long long int\000"
 2574      206C6F6E 
 2574      6720696E 
 2574      7400
 2575              	.LASF88:
 2576 0239 77726974 		.ascii	"write\000"
 2576      6500
 2577              	.LASF20:
 2578 023f 6D73675F 		.ascii	"msg_t\000"
 2578      7400
 2579              	.LASF93:
 2580 0245 72656164 		.ascii	"readt\000"
 2580      7400
 2581              	.LASF70:
 2582 024b 696F706F 		.ascii	"ioportmask_t\000"
 2582      72746D61 
 2582      736B5F74 
 2582      00
 2583              	.LASF37:
 2584 0258 6E616D65 		.ascii	"namep\000"
ARM GAS  /tmp/cc7qF5TC.s 			page 73


 2584      7000
 2585              	.LASF59:
 2586 025e 6F757470 		.ascii	"output_queue_t\000"
 2586      75745F71 
 2586      75657565 
 2586      5F7400
 2587              	.LASF43:
 2588 026d 70617261 		.ascii	"param\000"
 2588      6D00
 2589              	.LASF44:
 2590 0273 6576656E 		.ascii	"eventcallback_t\000"
 2590      7463616C 
 2590      6C626163 
 2590      6B5F7400 
 2591              	.LASF63:
 2592 0283 4F535045 		.ascii	"OSPEEDR\000"
 2592      45445200 
 2593              	.LASF81:
 2594 028b 6F717565 		.ascii	"oqueue\000"
 2594      756500
 2595              	.LASF16:
 2596 0292 75696E74 		.ascii	"uint16_t\000"
 2596      31365F74 
 2596      00
 2597              	.LASF75:
 2598 029b 53445F52 		.ascii	"SD_READY\000"
 2598      45414459 
 2598      00
 2599              	.LASF87:
 2600 02a4 53657269 		.ascii	"SerialDriverVMT\000"
 2600      616C4472 
 2600      69766572 
 2600      564D5400 
 2601              	.LASF26:
 2602 02b4 52455345 		.ascii	"RESERVED1\000"
 2602      52564544 
 2602      3100
 2603              	.LASF27:
 2604 02be 52455345 		.ascii	"RESERVED2\000"
 2604      52564544 
 2604      3200
 2605              	.LASF84:
 2606 02c8 72786D61 		.ascii	"rxmask\000"
 2606      736B00
 2607              	.LASF5:
 2608 02cf 73686F72 		.ascii	"short int\000"
 2608      7420696E 
 2608      7400
 2609              	.LASF9:
 2610 02d9 6C6F6E67 		.ascii	"long int\000"
 2610      20696E74 
 2610      00
 2611              	.LASF62:
 2612 02e2 4F545950 		.ascii	"OTYPER\000"
 2612      455200
 2613              	.LASF19:
 2614 02e9 75696E74 		.ascii	"uint64_t\000"
ARM GAS  /tmp/cc7qF5TC.s 			page 74


 2614      36345F74 
 2614      00
 2615              	.LASF3:
 2616 02f2 5F5F7569 		.ascii	"__uint8_t\000"
 2616      6E74385F 
 2616      7400
 2617              	.LASF89:
 2618 02fc 72656164 		.ascii	"read\000"
 2618      00
 2619              	.LASF73:
 2620 0301 53445F55 		.ascii	"SD_UNINIT\000"
 2620      4E494E49 
 2620      5400
 2621              	.LASF50:
 2622 030b 715F636F 		.ascii	"q_counter\000"
 2622      756E7465 
 2622      7200
 2623              	.LASF91:
 2624 0315 67657474 		.ascii	"gett\000"
 2624      00
 2625              	.LASF52:
 2626 031a 715F746F 		.ascii	"q_top\000"
 2626      7000
 2627              	.LASF23:
 2628 0320 73697A65 		.ascii	"sizetype\000"
 2628      74797065 
 2628      00
 2629              	.LASF11:
 2630 0329 6C6F6E67 		.ascii	"long unsigned int\000"
 2630      20756E73 
 2630      69676E65 
 2630      6420696E 
 2630      7400
 2631              	.LASF17:
 2632 033b 696E7433 		.ascii	"int32_t\000"
 2632      325F7400 
 2633              	.LASF98:
 2634 0343 77615468 		.ascii	"waThread1\000"
 2634      72656164 
 2634      3100
 2635              	.LASF99:
 2636 034d 77615468 		.ascii	"waThread2\000"
 2636      72656164 
 2636      3200
 2637              	.LASF100:
 2638 0357 77615468 		.ascii	"waThread3\000"
 2638      72656164 
 2638      3300
 2639              	.LASF4:
 2640 0361 756E7369 		.ascii	"unsigned char\000"
 2640      676E6564 
 2640      20636861 
 2640      7200
 2641              	.LASF10:
 2642 036f 5F5F7569 		.ascii	"__uint32_t\000"
 2642      6E743332 
 2642      5F7400
ARM GAS  /tmp/cc7qF5TC.s 			page 75


 2643              	.LASF108:
 2644 037a 2F686F6D 		.ascii	"/home/awygle/ChibiOS-RT/demos/STM32/NIL-STM32F051-D"
 2644      652F6177 
 2644      79676C65 
 2644      2F436869 
 2644      62694F53 
 2645 03ad 4953434F 		.ascii	"ISCOVERY\000"
 2645      56455259 
 2645      00
 2646              	.LASF101:
 2647 03b6 63685468 		.ascii	"chThdSleep\000"
 2647      64536C65 
 2647      657000
 2648              	.LASF79:
 2649 03c1 73746174 		.ascii	"state\000"
 2649      6500
 2650              	.LASF94:
 2651 03c7 54687265 		.ascii	"Thread1\000"
 2651      61643100 
 2652              	.LASF95:
 2653 03cf 54687265 		.ascii	"Thread2\000"
 2653      61643200 
 2654              	.LASF96:
 2655 03d7 54687265 		.ascii	"Thread3\000"
 2655      61643300 
 2656              	.LASF71:
 2657 03df 696F6D6F 		.ascii	"iomode_t\000"
 2657      64655F74 
 2657      00
 2658              	.LASF32:
 2659 03e8 74687265 		.ascii	"thread_config_t\000"
 2659      61645F63 
 2659      6F6E6669 
 2659      675F7400 
 2660              	.LASF1:
 2661 03f8 7369676E 		.ascii	"signed char\000"
 2661      65642063 
 2661      68617200 
 2662              	.LASF48:
 2663 0404 696F5F71 		.ascii	"io_queue\000"
 2663      75657565 
 2663      00
 2664              	.LASF7:
 2665 040d 73686F72 		.ascii	"short unsigned int\000"
 2665      7420756E 
 2665      7369676E 
 2665      65642069 
 2665      6E7400
 2666              	.LASF29:
 2667 0420 73746B61 		.ascii	"stkalign_t\000"
 2667      6C69676E 
 2667      5F7400
 2668              	.LASF109:
 2669 042b 6D61696E 		.ascii	"main\000"
 2669      00
 2670              	.LASF65:
 2671 0430 42535252 		.ascii	"BSRR\000"
ARM GAS  /tmp/cc7qF5TC.s 			page 76


 2671      00
 2672              	.LASF66:
 2673 0435 4C434B52 		.ascii	"LCKR\000"
 2673      00
 2674              	.LASF106:
 2675 043a 474E5520 		.ascii	"GNU C 4.8.2 -mcpu=cortex-m0 -mno-thumb-interwork -m"
 2675      4320342E 
 2675      382E3220 
 2675      2D6D6370 
 2675      753D636F 
 2676 046d 7468756D 		.ascii	"thumb -ggdb -O2 -fomit-frame-pointer -falign-functi"
 2676      62202D67 
 2676      67646220 
 2676      2D4F3220 
 2676      2D666F6D 
 2677 04a0 6F6E733D 		.ascii	"ons=16 -ffunction-sections -fdata-sections -fno-com"
 2677      3136202D 
 2677      6666756E 
 2677      6374696F 
 2677      6E2D7365 
 2678 04d3 6D6F6E20 		.ascii	"mon -flto\000"
 2678      2D666C74 
 2678      6F00
 2679              		.comm	__gnu_lto_v1,1,1
 2680              		.ident	"GCC: (4.8.2-14ubuntu1+6) 4.8.2"
ARM GAS  /tmp/cc7qF5TC.s 			page 77


DEFINED SYMBOLS
                            *ABS*:0000000000000000 main.c
     /tmp/cc7qF5TC.s:416    .text.Thread1:0000000000000000 $t
     /tmp/cc7qF5TC.s:422    .text.Thread1:0000000000000000 Thread1
     /tmp/cc7qF5TC.s:461    .text.Thread1:0000000000000020 $d
     /tmp/cc7qF5TC.s:466    .text.Thread2:0000000000000000 $t
     /tmp/cc7qF5TC.s:472    .text.Thread2:0000000000000000 Thread2
     /tmp/cc7qF5TC.s:506    .text.Thread2:000000000000001c $d
     /tmp/cc7qF5TC.s:511    .text.Thread3:0000000000000000 $t
     /tmp/cc7qF5TC.s:517    .text.Thread3:0000000000000000 Thread3
     /tmp/cc7qF5TC.s:570    .text.Thread3:0000000000000040 $d
     /tmp/cc7qF5TC.s:576    .text.startup.main:0000000000000000 $t
     /tmp/cc7qF5TC.s:582    .text.startup.main:0000000000000000 main
     /tmp/cc7qF5TC.s:627    .rodata.nil_thd_configs:0000000000000000 nil_thd_configs
     /tmp/cc7qF5TC.s:621    .bss.waThread3:0000000000000000 waThread3
     /tmp/cc7qF5TC.s:615    .bss.waThread2:0000000000000000 waThread2
     /tmp/cc7qF5TC.s:609    .bss.waThread1:0000000000000000 waThread1
     /tmp/cc7qF5TC.s:606    .bss.waThread1:0000000000000000 $d
     /tmp/cc7qF5TC.s:612    .bss.waThread2:0000000000000000 $d
     /tmp/cc7qF5TC.s:618    .bss.waThread3:0000000000000000 $d
     /tmp/cc7qF5TC.s:624    .rodata.nil_thd_configs:0000000000000000 $d
     /tmp/cc7qF5TC.s:649    .rodata.str1.4:0000000000000000 $d
                            *COM*:0000000000000001 __gnu_lto_v1
                     .debug_frame:0000000000000010 $d
     /tmp/cc7qF5TC.s:465    .text.Thread1:0000000000000024 $t
     /tmp/cc7qF5TC.s:575    .text.Thread3:0000000000000048 $t

UNDEFINED SYMBOLS
chThdSleep
sdStart
_pal_lld_setgroupmode
SD1
halInit
chSysInit
