ARM GAS  /tmp/ccd5y8vC.s 			page 1


   1              		.cpu cortex-m0
   2              		.fpu softvfp
   3              		.eabi_attribute 20, 1
   4              		.eabi_attribute 21, 1
   5              		.eabi_attribute 23, 3
   6              		.eabi_attribute 24, 1
   7              		.eabi_attribute 25, 1
   8              		.eabi_attribute 26, 1
   9              		.eabi_attribute 30, 2
  10              		.eabi_attribute 34, 0
  11              		.eabi_attribute 18, 4
  12              		.code	16
  13              		.file	"nvic.c"
  14              		.text
  15              	.Ltext0:
  16              		.section	.gnu.lto_.jmpfuncs.3d0ce1e2958c0853,"",%progbits
  17 0000 789C6362 		.ascii	"x\234cb`b\300\006\270\2404\013\0033##\02333#\003\000"
  17      6062C006 
  17      B8A0340B 
  17      03332323 
  17      13333323 
  18 0016 01F00021 		.ascii	"\001\360\000!"
  19              		.text
  20              		.section	.gnu.lto_.inline.3d0ce1e2958c0853,"",%progbits
  21 0000 789C6362 		.ascii	"x\234cb`b\300\006f@i\026\006\006a!F&\006F \233\021D"
  21      6062C006 
  21      66406916 
  21      06066121 
  21      46260646 
  22 0018 B0F23C88 		.ascii	"\260\362<\210e`[ \317\304 \320P\313\302\300t\201\237"
  22      65605B20 
  22      CFC420D0 
  22      50CBC2C0 
  22      74819F
  23 002b 0344F080 		.ascii	"\003D\360\200\32522\360\363\001U\201\3241s\034\260C"
  23      D53232F0 
  23      F3015581 
  23      D431731C 
  23      B043
  24 003d 52079205 		.ascii	"R\007\222\0052\371Q\214\202+\341\333\220\213n\0243\003"
  24      32F9518C 
  24      822BE1DB 
  24      908B6E14 
  24      3303
  25 004f 3B1BCC28 		.ascii	";\033\314(\240 D\035\333\007=\210Q\014\000\025\315\020"
  25      A020441D 
  25      DB073D88 
  25      510C0015 
  25      CD10
  26 0061 BE       		.ascii	"\276"
  27              		.text
  28              		.section	.gnu.lto_.pureconst.3d0ce1e2958c0853,"",%progbits
  29 0000 789C6362 		.ascii	"x\234cb`b\340d\200\000\026\006)F)&)f)\000\002\326\000"
  29      6062E064 
  29      80001606 
  29      29462926 
  29      29662900 
ARM GAS  /tmp/ccd5y8vC.s 			page 2


  30 0017 80       		.ascii	"\200"
  31              		.text
  32              		.section	.gnu.lto_nvicEnableVector.3d0ce1e2958c0853,"",%progbits
  33 0000 789C9D53 		.ascii	"x\234\235S=hSQ\024>\347\276\367\222\227\246\211i\002"
  33      3D685351 
  33      143EE7BE 
  33      F79297A6 
  33      896902
  34 0013 62278B2E 		.ascii	"b'\213.B\361=\235\034\234\244s\027i\241\216i\206\030"
  34      42F13D9D 
  34      1C9CA473 
  34      1769A18E 
  34      698618
  35 0026 3089D822 		.ascii	"0\211\330\"n\271\361f\262\0352\270X\035\372C\021\212"
  35      6EB9F166 
  35      B21D32B8 
  35      581DFA43 
  35      118A
  36 0038 B6E0562A 		.ascii	"\266\340V*R\272u\250\342&(\022tS\220bA\035\204\3479"
  36      52BA75A8 
  36      E2262812 
  36      74539062 
  36      411D84E7 
  37 004d F7E65E89 		.ascii	"\367\346^\211\024A/\311wo\316w\356w\276s\336\213\000"
  37      14412FC9 
  37      776FCE77 
  37      EE77BE73 
  37      DE8B00
  38 0060 017FAE51 		.ascii	"\001\177\256Q\372\256z\000\027iG\017Pt_\002\264C\201"
  38      FAAE7A00 
  38      1769470F 
  38      50745F02 
  38      B44381
  39 0073 C8074068 		.ascii	"\310\007@h\011l]CN\3053\260\"e\267\267\376\341\207x"
  39      096C5D43 
  39      4EC533B0 
  39      2265B7B7 
  39      FEE18778 
  40 0087 707FB7B3 		.ascii	"p\177\267\263,\177&\011b\015I6B\250 \314\320\017\034"
  40      2C7F2609 
  40      620D4936 
  40      42A820CC 
  40      D00F1C
  41 009a D39BF007 		.ascii	"\323\233\360\007\353l\211\335^\222<z\265\364\376\024"
  41      EB6C89DD 
  41      5E923C7A 
  41      B5F4FE14 
  42 00aa 9E44ACF3 		.ascii	"\236D\254\363\245\032z>C\300\220bH\023@H\340g\030\206"
  42      A51A7A3E 
  42      43C09062 
  42      48134048 
  42      E0671886 
  43 00be 3896A564 		.ascii	"8\226\245d\034\346S\216!\317P`\030\2012\256\220\251"
  43      1CE6538E 
  43      21CF5060 
  43      188132AE 
  43      90A9
ARM GAS  /tmp/ccd5y8vC.s 			page 3


  44 00d0 225F2A71 		.ascii	"\"_*q>\325\011\240C\036\307\200\355\320\232\"\344F\246"
  44      3ED509A0 
  44      431EC780 
  44      EDD09A22 
  44      E446A6
  45 00e3 51F0EE1D 		.ascii	"Q\360\356\035\200\332TG\037\3752\256a\000U\024U\304"
  45      80DA5447 
  45      1FFD32AE 
  45      61005514 
  45      55C4
  46 00f5 19D302C0 		.ascii	"\031\323\002\300\001\354\275;,Z\312?\017Od\207\270`"
  46      01ECBD3B 
  46      2C5ACA3F 
  46      0F4F6487 
  46      B860
  47 0107 1C3664A7 		.ascii	"\0346d\247-[5L=\204%\212\244\371J(\367\224\314\353f"
  47      2D5B354C 
  47      3D84258A 
  47      A4F94A28 
  47      F794CCEB 
  48 011c 43DDE22C 		.ascii	"C\335\342,\232VI\325\265M\365v\3247\317j\006\375r\236"
  48      9A5649D5 
  48      B54DF576 
  48      D437CF6A 
  48      06FD729E 
  49 0130 67B87B8E 		.ascii	"g\270{\216I\021\251\231P3w\277\250O\216K\023\255\323"
  49      4911A999 
  49      503377BF 
  49      A84F8E4B 
  49      13ADD3
  50 0143 9FBA50C8 		.ascii	"\237\272P\310\271~\202\314\352\374\347j\303\221\231"
  50      B97E82CC 
  50      EAFCE76A 
  50      C39199
  51 0152 2A3BD2A5 		.ascii	"*;\322\245W]p\210:\"\312\350\250\357o\0351\\\305\254"
  51      575D7088 
  51      3A22CAE8 
  51      A8EF6F1D 
  51      315CC5AC 
  52 0166 1E410AFA 		.ascii	"\036A\012\372\3443\307\3454\255+\250mu\364y\324\022"
  52      E433C7E5 
  52      34AD2BA8 
  52      6D75F479 
  52      D412
  53 0178 792D98D3 		.ascii	"y-\230\3233\333\357\346MX\017\254-/\375\036\331\211"
  53      33DBEFE6 
  53      4D580FAC 
  53      2D2FFD1E 
  53      D989
  54 018a 7F1E1949 		.ascii	"\177\036\031I\353j\233\352\361\3429[\255`\237R`\207"
  54      EB6A9BEA 
  54      F1E2395B 
  54      AD609F52 
  54      6087
  55 019c F3022D37 		.ascii	"\363\002-7B\234i\326\271.RT\247\237\266\035}u\351%="
  55      429C69D6 
  55      B92E5254 
ARM GAS  /tmp/ccd5y8vC.s 			page 4


  55      A79FB61D 
  55      7D75E925 
  56 01b1 389E5BD1 		.ascii	"8\236[\321\230?\314\016\230\277<`>\363w\363\330\267"
  56      983FCC0E 
  56      98BF3C60 
  56      3EF377F3 
  56      D8B7
  57 01c3 5C70E64B 		.ascii	"\\p\346KF\364\015\375E\376_V\034'\373\032\332\275\205"
  57      46F40DFD 
  57      45FE5F56 
  57      1C27FB1A 
  57      DABD85
  58 01d6 B346D4AE 		.ascii	"\263F\324\256)r@o5\347\217GQl>\315\271\370z\371F|\263"
  58      2972406F 
  58      35E78F47 
  58      516C3ECD 
  58      B9F87AF9 
  59 01ed 796B7E2E 		.ascii	"yk~.\2564\353\365f#\276rurb\362N\334\270]\253D\025\360"
  59      AE34EBF5 
  59      6623BE72 
  59      757262F2 
  59      4EDCB85D 
  60 0205 1AD1855F 		.ascii	"\032\321\205_&\237\332J"
  60      269FDA4A 
  61              		.text
  62              		.section	.gnu.lto_nvicDisableVector.3d0ce1e2958c0853,"",%progbits
  63 0000 789C9552 		.ascii	"x\234\225R1h\024A\024\375of7\356\345.w\304\316\312\240"
  63      31681441 
  63      14FD6F66 
  63      37EEE52E 
  63      77C4CECA 
  64 0015 4D20B84B 		.ascii	"M \270K\252\024\251\304R\322H\004-\317+\342\202w\027"
  64      AA14A9C4 
  64      52D24804 
  64      2DCF2BE2 
  64      827717
  65 0028 8C888D64 		.ascii	"\214\210\215d/si\344\212+lL\032\203`q\304(X*\022\256"
  65      2F7369E4 
  65      8A2B6C4C 
  65      1A836071 
  65      C428582A 
  66 003e B388686F 		.ascii	"\263\210hoqX\030H\021$6\001\305\365\377\331\233\015"
  66      71581848 
  66      11243601 
  66      C5F5FFD9 
  66      9B0D
  67 0050 97229061 		.ascii	"\227\"\220a\367\317\314{\177\376\373\363v\025):=.\361"
  67      F7CFCC7B 
  67      7FFEFBF3 
  67      7615293A 
  67      3D2EF1
  68 0063 7BC0F02C 		.ascii	"{\300\360,\317\320\004\325\375B\324\012\024 \013\002"
  68      CFD004D5 
  68      FD42D40A 
  68      14200B02 
  69 0073 AD2AACDE 		.ascii	"\255*\254\336\205\244\342\012m%Iw\260\276\177\254^<"
  69      85A4E20A 
ARM GAS  /tmp/ccd5y8vC.s 			page 5


  69      6D254977 
  69      B0BE7FAC 
  69      5E3C
  70 0085 DF6DBF4C 		.ascii	"\337m\277L\376\246)\020\203\313\206\240\032\350\016"
  70      FEA62910 
  70      83CB86A0 
  70      1AE80E
  71 0094 6F306527 		.ascii	"o0e'\345\215\352\274U\273\2034\335~\377\356G\017\223"
  71      E58DEABC 
  71      55BB8334 
  71      DD7EFFEE 
  71      470F93
  72 00a7 93405D4E 		.ascii	"\223@]N\305\320\232\252\330\342\312\036o\310\347\340"
  72      C5D09AAA 
  72      D8E2CA1E 
  72      6FC8E7E0 
  73 00b7 05021724 		.ascii	"\005\002\027$\214K(J(\011;!lYBE0.\352S\233\033\232\""
  73      8C4B284A 
  73      28093B21 
  73      6C594245 
  73      302EEA53 
  74 00cf D1E6B1C8 		.ascii	"\321\346\261\310Q\272\276\015%\263\336#\263c~w\246\253"
  74      51BABE0D 
  74      25B3DE23 
  74      B3637E77 
  74      A6AB
  75 00e1 78059F96 		.ascii	"x\005\237\226\240\226\000\351\215\317\021\355\321\332"
  75      A09600E9 
  75      8DCF11ED 
  75      D1DA
  76 00ef A1F904C7 		.ascii	"\241\371\004\307i\346\0044\037\264\203<Fm\372e\233n"
  76      69E60434 
  76      1FB4833C 
  76      466DFA65 
  76      9B6E
  77 0101 DE98A33C 		.ascii	"\336\230\243<\335\027\302\203d\011\327\377\374\253\230"
  77      DD17C283 
  77      6409D7FF 
  77      FCAB98
  78 0110 51D7683B 		.ascii	"Q\327h;i\267\222\371\030\376\014\365dY\2111\266I\033"
  78      69B792F9 
  78      18FE0CF5 
  78      64598931 
  78      B6491B
  79 0123 9C7F410E 		.ascii	"\234\177A\016\005I\337$e\353Q`\235\271\207\314!\356"
  79      0549DF24 
  79      65EB5160 
  79      9DB987CC 
  79      21EE
  80 0135 8FDCCAB7 		.ascii	"\217\334\312\267\202;\346O\347\246S\014\\\363\312v\323"
  80      823BE64F 
  80      E7A6530C 
  80      5CF3CA76 
  80      D3
  81 0146 FFFEF5A2 		.ascii	"\377\376\365\242\243\012V\024'\222Oc\024\316\226\304"
  81      A30A5614 
  81      27924F63 
ARM GAS  /tmp/ccd5y8vC.s 			page 6


  81      14CE96C4 
  82 0156 5028C83F 		.ascii	"P(\310?\220\\\335\034\345\227\037\037\312i\235q\317"
  82      905CDD1C 
  82      E5971F1F 
  82      CA699D71 
  82      CF
  83 0167 72A6C8A4 		.ascii	"r\246\310\244e\002\347\342\317\234+1\235y\225C\023\326"
  83      6502E7E2 
  83      CF9C2B31 
  83      9D799543 
  83      13D6
  84 0179 A954AC2A 		.ascii	"\251T\254*\331\374\217\346uN\226\231\037J\377S\016\254"
  84      D9FC8FE6 
  84      754E9699 
  84      1F4AFF53 
  84      0EAC
  85 018b F08D98CA 		.ascii	"\360\215\230\312|\355\226G|\235\033\361\365\234\227"
  85      7CED9647 
  85      7C9D1BF1 
  85      F59C97
  86 019a E4D244DF 		.ascii	"\344\322D\337\2505\350]\315\212\272\261\310\251\374"
  86      A835E85D 
  86      CD8ABAB1 
  86      C8A9FC
  87 01a9 C388B333 		.ascii	"\303\210\2633a\030eOs%\272_}\020-7\037>Z\211j\315z\275"
  87      6118654F 
  87      7325BA5F 
  87      7D102D37 
  87      1F3E5A89 
  88 01c1 D988AEDF 		.ascii	"\331\210\256\337Z\270\261\360$j<\216ka\215t#\234\375"
  88      5AB8B1F0 
  88      246A3C8E 
  88      6B618D74 
  88      239CFD
  89 01d4 0F6CF6B2 		.ascii	"\017l\366\262-"
  89      2D
  90              		.text
  91              		.section	.gnu.lto_nvicSetSystemHandlerPriority.3d0ce1e2958c0853,"",%progbits
  92 0000 789C9591 		.ascii	"x\234\225\221=K\003A\020\206g\366\362\375\215\205`'"
  92      3D4B0341 
  92      108667F6 
  92      F2FD8D85 
  92      6027
  93 0012 A40CC995 		.ascii	"\244\014\311\225\326b'\244\221\010\212UL\021\003&\021"
  93      D66227A4 
  93      91088A55 
  93      4C110326 
  93      11
  94 0023 2362978B 		.ascii	"#b\227\213\027D\004%\265\251\324N4\326\242\205Z\010"
  94      17440425 
  94      B5A9D44E 
  94      34D6A285 
  94      5A08
  95 0035 290CDA8A 		.ascii	")\014\332\212E\360\007\004\013\013\2619g\346r+\330\271"
  95      45F00704 
  95      0B0BB139 
  95      67E6722B 
ARM GAS  /tmp/ccd5y8vC.s 			page 7


  95      D8B9
  96 0047 DCBDBBCC 		.ascii	"\334\275\273\31433;\367\236\002\005\177\327\024\275"
  96      33333BF7 
  96      9E02057F 
  96      D714BD
  97 0056 6D0A6769 		.ascii	"m\012giG\003Pu\006\000\255\220B\344\003 4\0256\227Q"
  97      47035075 
  97      0600AD90 
  97      42E40320 
  97      34153697 
  98 006b 72AFD4DD 		.ascii	"r\257\324\335\320qz\237{\217\3678HO V\221:V\020\014"
  98      D0717A9F 
  98      7B8FF738 
  98      484F2056 
  98      913A5610 
  99 0080 161F4B80 		.ascii	"\026\037K\200%\310\022b\011\223`\204DEYb\034\213S\031"
  99      25C81262 
  99      09936084 
  99      44455962 
  99      1C8B5319 
 100 0094 26F89464 		.ascii	"&\370\224dI\261\320\362C\333\262:\323U\244aJ\022)\220"
 100      49B1D0F2 
 100      43DBB23A 
 100      D355A461 
 100      4A122990 
 101 00a8 F2108B14 		.ascii	"\362\020\213\024\242\335x\002\373\306v\016W\212x\202"
 101      A2DD7802 
 101      FBC6760E 
 101      578A7882 
 102 00b8 7E28A32A 		.ascii	"~(\243*#.\241\364\001 \270ox\304 (\344\313q\2341\355"
 102      232EA1F4 
 102      0120B86F 
 102      78C42028 
 102      E4CB719C 
 103 00ce 69EAA304 		.ascii	"i\352\243\004\246|\023\221\207\267\347I\017\005\262"
 103      A67C1391 
 103      87B7E749 
 103      0F05B2
 104 00dd 7061B589 		.ascii	"pa\265\211\031\0318\267\332-\253Kg_\027\216i\363sM\300"
 104      191938B7 
 104      DA2DAB4B 
 104      675F178E 
 104      69F3734D 
 105 00f2 7AB5AD04 		.ascii	"z\265\255\004\310Q<Yu\255\341\266\332S\031t\024\363"
 105      C8513C59 
 105      75ADE1B6 
 105      DA531974 
 105      14F3
 106 0104 9A06BD39 		.ascii	"\232\006\2759\015\227\035\350IB\004\205\204\204\354"
 106      0D971DE8 
 106      49420485 
 106      8484EC
 107 0113 8EEC775D 		.ascii	"\216\354w]\025&,\351\227:=\302\271\312A\246\222\177"
 107      15262CE9 
 107      973A3DC2 
 107      B9CA41A6 
 107      927F
ARM GAS  /tmp/ccd5y8vC.s 			page 8


 108 0125 6B9FEAFC 		.ascii	"k\237\352\374(\361\361\325\337\272\"F\237D\310\355c"
 108      28F1F1D5 
 108      DFBA2246 
 108      9F44C8ED 
 108      63
 109 0136 9F1DCD7B 		.ascii	"\237\035\315{ Q\306\270x\020\2001\034\351\242\244`\271"
 109      2051C6B8 
 109      78108031 
 109      1CE9A2A4 
 109      60B9
 110 0148 C1BE26C3 		.ascii	"\301\276&\303\373\232\244\244cR\\\353\177$\335\260X"
 110      FB9AA4A4 
 110      63525CEB 
 110      7F24DDB0 
 110      58
 111 0159 D6B2667E 		.ascii	"\326\262f~M\213\377\3333j\015\360\002\255\341 \3556"
 111      4D8BFFDB 
 111      336A0DF0 
 111      02ADE120 
 111      ED36
 112 016b F5560191 		.ascii	"\365V\001\221\377=\377\251L.g\272O\275a\256\025\327"
 112      FF3DFFA9 
 112      4C2E67BA 
 112      4FBD61AE 
 112      15D7
 113 017d CD8DFAE6 		.ascii	"\315\215\372\346V\303,\325\253\325z\315\234]\310\317"
 113      56C32CD5 
 113      ABD57ACD 
 113      9C5DC8CF 
 114 018d E577CCDA 		.ascii	"\345w\314\332v\245\224+\301\017\302!\234)"
 114      76A5942B 
 114      C10FC221 
 114      9C29
 115              		.text
 116              		.section	.gnu.lto_nvicClearPending.3d0ce1e2958c0853,"",%progbits
 117 0000 789C5D50 		.ascii	"x\234]P1H\303P\020\275\367\177\322\352\2428:Yt\021\212"
 117      3148C350 
 117      10BDF77F 
 117      D2EAA238 
 117      3A597411 
 118 0015 09BA3A89 		.ascii	"\011\272:\211\223C\027\251\240c\315P\003\266\021+\342"
 118      934317A9 
 118      A063CD50 
 118      03B6112B 
 118      E2
 119 0026 D65FD359 		.ascii	"\326_\323Y:\270\250\213\305M\252\356v)\335+\272;\024"
 119      3AB8A88B 
 119      C54DAAEE 
 119      7629DD2B 
 119      BA3B14
 120 0039 41280EAE 		.ascii	"A(\016\256.B\274KLA\217\237\177\367\337\275{w9E\212"
 120      2E42BC4B 
 120      4C418F9F 
 120      7FF7DFBD 
 120      7B773945 
 121 004e FEDB2C7F 		.ascii	"\376\333,\177\006D\313\354\241\011\252\365D\324\230"
 121      0644CBEC 
ARM GAS  /tmp/ccd5y8vC.s 			page 9


 121      A109AAF5 
 121      44D498
 122 005d 50800404 		.ascii	"P\200\004\004\252+\324w T\314S\333\230\326\360\375\353"
 122      AA2BD477 
 122      2054CC53 
 122      DB98D6F0 
 122      FDEB
 123 006f 595F9CF7 		.ascii	"Y_\234\367\232\327\346;\212\000\037,\353\200<\3206?"
 123      9AD7E63B 
 123      8A001F2C 
 123      EB803CD0 
 123      363F
 124 0081 908B9DB2 		.ascii	"\220\213\235\262\376\366yP\275a\024\275v;o#\314L\002"
 124      FEF67950 
 124      BD6114BD 
 124      763B6F23 
 124      CC4C02
 125 0094 15A9F2A1 		.ascii	"\025\251\362\2415\225\320fe\213\037d\313\225\021\230"
 125      3595D066 
 125      658B1F64 
 125      CB951198 
 126 00a4 2B6C6A72 		.ascii	"+ljr\267\034\2110[\221o\031i\013J\274\036Px\037Fg\213"
 126      B71C8930 
 126      5B916F19 
 126      690B4ABC 
 126      1E50781F 
 127 00bb 25DCC0A6 		.ascii	"%\334\300\2462T\031\220\306\\G4\240\323\317\360\003"
 127      32541990 
 127      C65C4734 
 127      A0D3CFF0 
 127      03
 128 00cc 694E734E 		.ascii	"iNsN\300\260\253S\310b4\246\317\305\364\360n\234\261"
 128      C0B0AB53 
 128      C86234A6 
 128      CFC5F4F0 
 128      6E9CB1
 129 00df 6318C2F9 		.ascii	"c\030\302\371\025z\034\013e8-`\177#A\226\250c\232\015"
 129      157A1C0B 
 129      65382D60 
 129      7F234196 
 129      A8639A0D 
 130 00f3 B3EAC3CA 		.ascii	"\263\352\303\312\323\255\204\323>\354+\272d\211\214"
 130      D3AD84D3 
 130      3EEC2BBA 
 130      64898C
 131 0102 E8644D3F 		.ascii	"\350dM?4S\361F\262\361\036v\221\354\203\007\2464\312"
 131      3453F146 
 131      B2F11E76 
 131      91EC8307 
 131      A634CA
 132 0115 10BD5063 		.ascii	"\020\275Pc8ZHDS+\362\320\374\247\302\313;\216\233\234"
 132      385A4844 
 132      532BF2D0 
 132      FCA7C2CB 
 132      3B8E9B9C 
 133 0129 A0E6EE95 		.ascii	"\240\346\356\225\366\335\203\340\360\250\346zA\245\022"
 133      F6DD83E0 
ARM GAS  /tmp/ccd5y8vC.s 			page 10


 133      F0A8E67A 
 133      41A512
 134 0138 54DDB5CD 		.ascii	"T\335\265\315\302z\341\304\255\036\373\236\343\221\256"
 134      C27AE1C4 
 134      AD1EFB9E 
 134      E391AE
 135 0147 3A2B3F72 		.ascii	":+?r\207f\302"
 135      8766C2
 136              		.text
 137              		.section	.gnu.lto_.symbol_nodes.3d0ce1e2958c0853,"",%progbits
 138 0000 789C6362 		.ascii	"x\234cb`b\260c\200\002\246G\014\365\014\014\023\316"
 138      6062B063 
 138      8002A647 
 138      0CF50C0C 
 138      13CE
 139 0012 3130D4D7 		.ascii	"10\324\327\317\353`dz\314P\317\210\304}\302P\317\204"
 139      CFEB6064 
 139      7ACC50CF 
 139      88C47DC2 
 139      50CF84
 140 0025 C47DCA50 		.ascii	"\304}\312P\317\214\3402\000\000uN\023\347"
 140      CF8CE032 
 140      0000754E 
 140      13E7
 141              		.text
 142              		.section	.gnu.lto_.refs.3d0ce1e2958c0853,"",%progbits
 143 0000 789C6362 		.ascii	"x\234cb`b`d\200\002\000\000F\000\006"
 143      60626064 
 143      80020000 
 143      460006
 144              		.text
 145              		.section	.gnu.lto_.decls.3d0ce1e2958c0853,"",%progbits
 146 0000 789CAD58 		.ascii	"x\234\255X}lSU\024\277\367\265\333Z\230s#\221\314\004"
 146      7D6C5355 
 146      14BFF7B5 
 146      DB5A9873 
 146      2391CC04 
 147 0014 A4183106 		.ascii	"\244\0301\006t\345\323\304\177\020,\213k\"di\005\214"
 147      74E5D3C4 
 147      7F102C8B 
 147      6B226469 
 147      058C
 148 0026 FF3497EE 		.ascii	"\3774\227\356\341\232t-i;\205\304?\356\370r\022\214"
 148      E19A742D 
 148      693B85C4 
 148      3FEEF872 
 148      128C
 149 0038 03450926 		.ascii	"\003E\011&8\260\303\221\010\222\215\221\261\314\321"
 149      38B0C391 
 149      08928D91 
 149      B1CCD1
 150 0047 0C441030 		.ascii	"\014D\0200\003\011\220\271\220b\010 \006I\014\004\211"
 150      030990B9 
 150      90620820 
 150      06490C04 
 150      89
 151 0058 623DEFBE 		.ascii	"b=\357\276\373>\367\336\366J|\3319\275}\357\234\337"
ARM GAS  /tmp/ccd5y8vC.s 			page 11


 151      FB3EF7DE 
 151      F64A7CD9 
 151      39BD7DEF 
 151      9CDF
 152 006a FDFDCEBB 		.ascii	"\375\375\316\273\357\334\327\011H@\255\030\241\002\034"
 152      EFDCD709 
 152      4840AD18 
 152      A1021C
 153 0079 57AB103A 		.ascii	"W\253\020:\015\343\022\204\320B\244\035n\260=`]`\275"
 153      0DE31284 
 153      D042A41D 
 153      6EB03D60 
 153      5D60BD
 154 008c 600368F4 		.ascii	"`\003h\364!]\237\300c+\300\312\301\312\220\2145\010"
 154      215D9FC0 
 154      632BC0CA 
 154      C1CA908C 
 154      3508
 155 009e 761CEC24 		.ascii	"v\034\354$\330\015\260\263`.\260\353`#`g\3000\307\020"
 155      D80DB0B3 
 155      602EB0EB 
 155      60236067 
 155      C030C710 
 156 00b2 C00E807D 		.ascii	"\300\016\200}k\302\357\032\007\377\254\016\3778\307"
 156      6BC2EF1A 
 156      07FFAC0E 
 156      FF38C7
 157 00c1 B9C8E7C0 		.ascii	"\271\310\347\300<_\372<b\302\355\3458e\034[\301\273"
 157      3C5FFA3C 
 157      62C2EDE5 
 157      38651C5B 
 157      C1BB
 158 00d3 09765BCA 		.ascii	"\011v[\312\301r\336#\236\337\313\271\367\201\365K\363"
 158      C172DE23 
 158      9EDFCBB9 
 158      F781F54B 
 158      F3
 159 00e4 60239E54 		.ascii	"`#\236T\033\217\005O3G\314\265c\236#}\346L\334\246\241"
 159      1B8F054F 
 159      3347CCB5 
 159      639E237D 
 159      E64CDCA6 
 160 00f9 DDB43D9F 		.ascii	"\335\264=\237\357\330}\006\323\355\364\237B\301\205"
 160      EFD87D06 
 160      D3EDF49F 
 160      42C185
 161 0108 26A31D14 		.ascii	"&\243\035\024\216\366\315\224\342\014\301\013\237Bo"
 161      8EF6CD94 
 161      E20CC10B 
 161      9F426F
 162 0117 61822BBC 		.ascii	"a\202+\274\310\307\006\345^61B\004\357\305\223\331\310"
 162      C8C706E5 
 162      5E363142 
 162      04EFC593 
 162      D9C8
 163 0129 C54A81BC 		.ascii	"\305J\201\274\250\225\322\365Rb\335)\340e\2255\003e"
 163      A895D2F5 
ARM GAS  /tmp/ccd5y8vC.s 			page 12


 163      5262DD29 
 163      E0659535 
 163      0365
 164 013b 296DCB7F 		.ascii	")m\313\177\267\177\353\213\224z\010\316b/\344\276\201"
 164      B77FEB8B 
 164      947A08CE 
 164      622FE4BE 
 164      81
 165 014c D14CB41F 		.ascii	"\321L\264\037\346l\243t\357,\223ZT\034\364\303\315\375"
 165      E66CA374 
 165      EF2C935A 
 165      541CF4C3 
 165      CDFD
 166 015e AF30E84E 		.ascii	"\2570\350N\006\275\005\212K\360\327x&\007\"\270\314"
 166      06BD058A 
 166      4BF0D778 
 166      260722B8 
 166      CC
 167 016f AB0766DF 		.ascii	"\253\007f\337\225\000\011\215]\346\003i\301>\211\212"
 167      9500098D 
 167      5DE60369 
 167      C13E898A 
 168 017f 0DE7D590 		.ascii	"\015\347\325\220\305\261\301r\227\012 \240\035&F\317"
 168      C5B1C172 
 168      970A20A0 
 168      1D2646CF 
 169 018f A1AF28DD 		.ascii	"\241\257(\335\016w \3734m\027\224\222\354cQ{\3604K\255"
 169      0E7720FB 
 169      346D1794 
 169      92EC6351 
 169      7BF0344B 
 170 01a4 1C5B4EA5 		.ascii	"\034[N\245G\305:%\255\323I\032B\317\243\016\351\026"
 170      47C53A25 
 170      ADD3491A 
 170      42CFA30E 
 170      E916
 171 01b6 7F443755 		.ascii	"\177D7Ubv\207\021\3172H\375\006\013\243\227J\356\360"
 171      62768711 
 171      CF3248FD 
 171      060BA397 
 171      4AEEF0
 172 01c9 C9F2B696 		.ascii	"\311\362\266\226|\2410\315\371:\3516\256\023\231\206"
 172      7CA130CD 
 172      F93AE936 
 172      AE139986 
 173 01d9 A92C072C 		.ascii	"\251,\007,\313B?Q\264\021|\020\350\020\334\365X\332"
 173      CB423F51 
 173      B4117C10 
 173      E810DCF5 
 173      58DA
 174 01eb BACCDA7A 		.ascii	"\272\314\332z,\265\335S\264\311k[@\307\254Y\351*>\302"
 174      2CB5DD53 
 174      B4C96B5B 
 174      40C7AC59 
 174      E92A3EC2 
 175 01ff 227A1DDD 		.ascii	"\"z\035\335\250G\232\230CL\3148i6bz\315b\216Z\212\351"
 175      A8479A98 
ARM GAS  /tmp/ccd5y8vC.s 			page 13


 175      434CCC38 
 175      6936627A 
 175      CD628E5A 
 176 0215 FB4115D3 		.ascii	"\373A\025\323\315\304\\\267\026\263\315\\\342\201\307"
 176      CDC45CB7 
 176      16B3CD5C 
 176      E281C7
 177 0224 62356066 		.ascii	"b5`fu\314\310\212=\302\033\306|\204\011\356\3003\034"
 177      75CCC88A 
 177      3DC21BC6 
 177      7C8409EE 
 177      C0331C
 178 0237 3D6355A8 		.ascii	"=cU\250Mb\340;UA\360 \220\342hTP\340|lN}X\326>\214\340"
 178      4D62E03B 
 178      5541F020 
 178      90E26854 
 178      50E07C6C 
 179 0252 13B84A23 		.ascii	"\023\270J#I9I\026a\267\246\277\227K\241\234V\007e\206"
 179      49394916 
 179      61B7A6BF 
 179      974BA19C 
 179      56076586 
 180 0266 1A285168 		.ascii	"\032(Qh\022\332\306\231\250\322\351\\%\247\275\024\251"
 180      12DAC699 
 180      A8D2E95C 
 180      25A7BD14 
 180      A9
 181 0277 FDEB978F 		.ascii	"\375\353\227\217\037\324\262\376u\022O\222\372\200`"
 181      1FD4B2FE 
 181      75124F92 
 181      FA8060
 182 0286 BC67E3E3 		.ascii	"\274g\343\343H\323\236\206\\9\213\241\322\\\317\345"
 182      48D39E86 
 182      5C398BA1 
 182      D25CCFE5 
 183 0296 72EA96CF 		.ascii	"r\352\226\317#\003\236\341\230\216\332\351\306\226\334"
 183      23039EE1 
 183      988EDAE9 
 183      C696DC
 184 02a5 D1CF7740 		.ascii	"\321\317w@+\032\304\274z\355\245\246*\233ja\010\313"
 184      2B1AC4BC 
 184      7AEDA5A6 
 184      2A9B6A61 
 184      08CB
 185 02b7 DA86117C 		.ascii	"\332\206\021|\256\350\"\377dSd\343BS\242\240\\\207X"
 185      AEE822FF 
 185      645364E3 
 185      4253A2A0 
 185      5C8758
 186 02ca B9249956 		.ascii	"\271$\231V\220\206l\036\240\223\016u\352[\331Fl\026"
 186      90866C1E 
 186      A0930E75 
 186      EA5BD946 
 186      6C16
 187 02dc 4DBE4CC9 		.ascii	"M\276L\311\177\237\317{\276h=\027l\364<\203\024\001"
 187      7F9FCF7B 
 187      BE683D17 
ARM GAS  /tmp/ccd5y8vC.s 			page 14


 187      6CF43C83 
 187      1401
 188 02ee 3D6601C6 		.ascii	"=f\001\306i\255\024\370\0147\257\377ry\033!\370,p\203"
 188      69AD14F8 
 188      0C37AFFF 
 188      72791B21 
 188      F82C7083 
 189 0302 F6E5A41C 		.ascii	"\366\345\244\034\024\333\327c`\245\004v\236\201\235"
 189      14DBD763 
 189      60A50476 
 189      9E819D
 190 0311 7044CD88 		.ascii	"pD\315\210f\3446\244\347v\316\0217\301\236\333\005\035"
 190      66E436A4 
 190      E776CE11 
 190      37C19EDB 
 190      051D
 191 0323 B70BCEB8 		.ascii	"\267\013\316\270\011\366\334.\352\271\2158\342\346\262"
 191      09F6DC2E 
 191      EAB98D38 
 191      E2E6B2
 192 0332 E77649C7 		.ascii	"\347vI\307\355\2323n.\033n\200v\305~U\322J\2238\202"
 192      ED9A336E 
 192      2E1B6E80 
 192      76C57E55 
 192      D24A9338 
 193 0347 AF15BD2C 		.ascii	"\257\025\275,\177\265Y\226\257\252\313\362w\263\006"
 193      7FB55996 
 193      AFAACBF2 
 193      77B306
 194 0356 D3BCCAD8 		.ascii	"\323\274\312\330mS\022(\3600+\311qV\222\373\243\340"
 194      6D531228 
 194      F0302BC9 
 194      715692FB 
 194      A3E0
 195 0368 0C1D5941 		.ascii	"\014\035YA+\265@\263:\364\015\217\340\037\331\036r\006"
 195      2BB540B3 
 195      3AF40D8F 
 195      E01FD91E 
 195      7206
 196 037a 4F073FC4 		.ascii	"O\007?\304\374E\346/1\177\205\371a\346G\230\277\312"
 196      FC45E62F 
 196      317F85F9 
 196      61E64798 
 196      BFCA
 197 038c 7C9EF9EB 		.ascii	"|\236\371\353\340\325c\"\332\242\275t\312\015\331\256"
 197      E0D56322 
 197      DAA2BD74 
 197      CA0DD9AE 
 198 039c 8237F044 		.ascii	"\2027\360D%Ki\207\213L]s\221\222\343\031\035\226\265"
 198      254B6987 
 198      8B4C5D73 
 198      9192E319 
 198      1D96B5
 199 03af 0D23F856 		.ascii	"\015#\370V\321\267\3637\233\333\251\177\261\326\242"
 199      D1B7F337 
 199      9BDBA97F 
 199      B1D6A2
ARM GAS  /tmp/ccd5y8vC.s 			page 15


 200 03be ACB6949C 		.ascii	"\254\266\224\234z;^@\312\316\224;?\214}\004\337f\333"
 200      7A3B5E40 
 200      CACE943B 
 200      3F8C7D04 
 200      DF66DB
 201 03d1 D25FE36F 		.ascii	"\322_\343oKF\014i\306;\346]\351\213a\266+\335\031\177"
 201      4B460C69 
 201      C63BE65D 
 201      E98B61B6 
 201      2BDD197F 
 202 03e5 57FA7443 		.ascii	"W\372tC\356\313]\362\256\244\276G\344\376\207\367\010"
 202      EECB5DF2 
 202      AEA4BE47 
 202      E4FE87F7 
 202      08
 203 03f6 01B5B830 		.ascii	"\001\265\2700\247\366\030;\306\306\015\271C\303\254"
 203      A7F6183B 
 203      C6C60DB9 
 203      43C3AC
 204 0405 6F0CB297 		.ascii	"o\014\262\227\301\017\212\006\363i`t}\256K\006\223_"
 204      C10F8A06 
 204      F3696074 
 204      7DAE4B06 
 204      935F
 205 0417 C67E662F 		.ascii	"\306~f/c\343\200y\354\231\035\3263\333\352\204\231\307"
 205      63E38079 
 205      EC991DD6 
 205      33DBEA84 
 205      99C7
 206 0429 8619801D 		.ascii	"\206\031\200\035\321\203mw\002Vi\317\254W\017\366Y\321"
 206      D1836D77 
 206      025669CF 
 206      AC570FF6 
 206      59D1
 207 043b 60C69AF5 		.ascii	"`\306\232\365i5\023\320.'`\325v\314`\367|[\302\272\311"
 207      693513D0 
 207      2E2760D5 
 207      76CC60F7 
 207      7C5BC2BA 
 208 0450 9A54D68C 		.ascii	"\232T\326\214ex4\255\260\214%\033\320\253\354tB\314"
 208      657834AD 
 208      B08C251B 
 208      D0ABEC74 
 208      42CC
 209 0462 67016675 		.ascii	"g\001fu\350\037%\202\377`k\375.\353_\1772\177\217\371"
 209      E81F2582 
 209      FF606BFD 
 209      2EEB5F7F 
 209      327F8FF9 
 210 0476 FBCC3F60 		.ascii	"\373\314?`\376!\363\1773\377\210\371\302\030\235\356"
 210      FE21F37F 
 210      33FF88F9 
 210      C2189DEE 
 211 0486 F6189DAE 		.ascii	"\366\030\235\256EP;\335\263h\017\035\032\312o\272\273"
 211      45503BDD 
 211      B3680F1D 
 211      1ACA6FBA 
ARM GAS  /tmp/ccd5y8vC.s 			page 16


 211      BB
 212 0497 13B7E6E1 		.ascii	"\023\267\346\341\267\373\277\205\202\362\316\350\333"
 212      B7FBBF85 
 212      82F2CEE8 
 212      DB
 213 04a4 59C17FB2 		.ascii	"Y\301\177\262\347;r\325;\265\347\324\243oFr\033\200"
 213      E73B72D5 
 213      3BB5E7D4 
 213      A36F4672 
 213      1B80
 214 04b6 04410DA6 		.ascii	"\004A\015\246\325\325\326\261\004o\022$\235\233\005"
 214      D5D5D6B1 
 214      046F1224 
 214      9D9B05
 215 04c5 ADB9C963 		.ascii	"\255\271\311ceT\300\322\363|\320e\365\377\003\0060v"
 215      6554C0D2 
 215      F37CD065 
 215      F5FF0306 
 215      3076
 216 04d7 2A9FF416 		.ascii	"*\237\364\026Vf\235\312\2025Ar\250M\030\301\255B\261"
 216      56669DCA 
 216      82354172 
 216      A84D18C1 
 216      AD42B1
 217 04ea 7DFA43C1 		.ascii	"}\372C\301\272OO1\260V\242@[\267\313\364[\323\314B@"
 217      BA4F4F31 
 217      B056A240 
 217      5BB7CBF4 
 217      5BD3CC42 
 218 04ff FD5C3EC1 		.ascii	"\375\\>\301\023\244\301\254\232\032\277\374\227L\373"
 218      13A4C1AC 
 218      9A1ABFFC 
 218      974CFB
 219 050e 1B49DCBF 		.ascii	"\033I\334\277&\231\312\244\375\321dSS2\341_\034Z\032"
 219      2699CAA4 
 219      FDD16453 
 219      5332E15F 
 219      1C5A1A
 220 0521 58BAD69F 		.ascii	"X\272\326\237x7\026\255\211\242\251\376\346t\312\037"
 220      783716AD 
 220      89A2A9FE 
 220      E674CA1F 
 221 0531 4B44E3CD 		.ascii	"KD\343\315\015\242?!\276\027\217\255\362\2473\015\261"
 221      0DA23F21 
 221      BE178FAD 
 221      F2A7330D 
 221      B1
 222 0542 44A6A611 		.ascii	"D\246\246\021y\232\341s\336\334H\246\364\365e\313}\001"
 222      799AE173 
 222      DEDC48A6 
 222      F4F565CB 
 222      7D01
 223 0554 F4925574 		.ascii	"\364\222Ut\023\2116\306\022\242?\322 \256&\315\361L"
 223      138936C6 
 223      12A23FD2 
 223      20AE26CD 
 223      F14C
ARM GAS  /tmp/ccd5y8vC.s 			page 17


 224 0566 24B36E8D 		.ascii	"$\263n\215\230\206\354\011\221\210\222_)MW\233 \253"
 224      9886EC09 
 224      9188925F 
 224      294D579B 
 224      20AB
 225 0578 E2E20A31 		.ascii	"\342\342\0121\232I\246p\302\275&\025KVI\347\227\304"
 225      9A49A670 
 225      C2BD2615 
 225      4B5649E7 
 225      97C4
 226 058a D2DA8529 		.ascii	"\322\332\205)\322\231\260\230\011\257Kg\304\246:\222"
 226      D299B098 
 226      09AF4B67 
 226      C4A63A92 
 227 059a 68888BA9 		.ascii	"h\210\213\251z\010M\3052\353\312\032\345\357\014.\020"
 227      7A084DC5 
 227      32EBCA1A 
 227      E5EF0C2E 
 227      10
 228 05ab 1749AA5E 		.ascii	"\027I\252^L\000\327wf\353%s\241\342\332\214?\2604\034"
 228      4C00D777 
 228      66EB2573 
 228      A1E2DA8C 
 228      3FB0341C 
 229 05bf 0CAB84A3 		.ascii	"\014\253\204\243\311\224\030\2116\315\006n\336e+\202"
 229      C9941889 
 229      36CD066E 
 229      DE652B82 
 230 05cf 81C89BC0 		.ascii	"\201\310\233\300\324\035\014\327\206\274\241Z\360+j"
 230      D41D0CD7 
 230      86BCA15A 
 230      F02B6A
 231 05de 97CC7607 		.ascii	"\227\314v\007\003\265!OH\3766\007.\326k\027\347\302"
 231      03B5214F 
 231      48FE3607 
 231      2ED66B17 
 231      E7C2
 232 05f0 45DDD779 		.ascii	"E\335\327y\352h\276\020\254\367\204\003\2571\300\222"
 232      EA68BE10 
 232      ACF78403 
 232      AF31C092 
 233 0600 40FDF2E0 		.ascii	"@\375\362\340\022\010\015\207J\026\007C\201\220+\014"
 233      12080D87 
 233      4A160743 
 233      81902B0C 
 234 0610 16086889 		.ascii	"\026\010h\211s\\\341\272\372\222p\035D\270\243\215$"
 234      735CE1BA 
 234      FA92701D 
 234      44B8A38D 
 234      24
 235 0621 E5894456 		.ascii	"\345\211DV7'\242\221\310\023\312\240f\301\313\013\346"
 235      3727A291 
 235      C813CAA0 
 235      66C1CB0B 
 235      E6
 236 0632 FF07325D 		.ascii	"\377\0072]\324\247"
 236      D4A7
ARM GAS  /tmp/ccd5y8vC.s 			page 18


 237              		.text
 238              		.section	.gnu.lto_.symtab.3d0ce1e2958c0853,"",%progbits
 239 0000 6E766963 		.ascii	"nvicEnableVector\000\000\000\000\000\000\000\000\000"
 239      456E6162 
 239      6C655665 
 239      63746F72 
 239      00000000 
 240 0019 000000A1 		.ascii	"\000\000\000\241\000\000\000nvicDisableVector\000\000"
 240      0000006E 
 240      76696344 
 240      69736162 
 240      6C655665 
 241 0033 00000000 		.ascii	"\000\000\000\000\000\000\000\000\000\000\262\000\000"
 241      00000000 
 241      0000B200 
 241      00
 242 0040 006E7669 		.ascii	"\000nvicSetSystemHandlerPriority\000\000\000\000\000"
 242      63536574 
 242      53797374 
 242      656D4861 
 242      6E646C65 
 243 0062 00000000 		.ascii	"\000\000\000\000\000\000\000\270\000\000\000nvicCle"
 243      000000B8 
 243      0000006E 
 243      76696343 
 243      6C65
 244 0074 61725065 		.ascii	"arPending\000\000\000\000\000\000\000\000\000\000\000"
 244      6E64696E 
 244      67000000 
 244      00000000 
 244      00000000 
 245 0088 00BE0000 		.ascii	"\000\276\000\000\000"
 245      00
 246              		.text
 247              		.section	.gnu.lto_.opts,"",%progbits
 248 0000 272D6D63 		.ascii	"'-mcpu=cortex-m0' '-mno-thumb-interwork' '-mthumb' "
 248      70753D63 
 248      6F727465 
 248      782D6D30 
 248      2720272D 
 249 0033 272D6767 		.ascii	"'-ggdb' '-O2' '-fomit-frame-pointer' '-falign-funct"
 249      64622720 
 249      272D4F32 
 249      2720272D 
 249      666F6D69 
 250 0066 696F6E73 		.ascii	"ions=16' '-ffunction-sections' '-fdata-sections' '-"
 250      3D313627 
 250      20272D66 
 250      66756E63 
 250      74696F6E 
 251 0099 666E6F2D 		.ascii	"fno-common' '-flto'\000"
 251      636F6D6D 
 251      6F6E2720 
 251      272D666C 
 251      746F2700 
 252              		.text
 253              		.cfi_sections	.debug_frame
ARM GAS  /tmp/ccd5y8vC.s 			page 19


 254              		.section	.text.nvicEnableVector,"ax",%progbits
 255              		.align	2
 256              		.p2align 4,,15
 257              		.global	nvicEnableVector
 258              		.code	16
 259              		.thumb_func
 260              		.type	nvicEnableVector, %function
 261              	nvicEnableVector:
 262              	.LFB98:
 263              		.file 1 "../../../os/hal/ports/common/ARMCMx/nvic.c"
 264              		.loc 1 57 0
 265              		.cfi_startproc
 266              	.LVL0:
 267              		.loc 1 60 0
 268 0000 8208     		lsr	r2, r0, #2
 269 0002 104B     		ldr	r3, .L2
 270 0004 9200     		lsl	r2, r2, #2
 271              		.loc 1 57 0
 272 0006 70B5     		push	{r4, r5, r6, lr}
 273              		.cfi_def_cfa_offset 16
 274              		.cfi_offset 4, -16
 275              		.cfi_offset 5, -12
 276              		.cfi_offset 6, -8
 277              		.cfi_offset 14, -4
 278 0008 D218     		add	r2, r2, r3
 279              		.loc 1 60 0
 280 000a 0324     		mov	r4, #3
 281 000c C023     		mov	r3, #192
 282 000e 9B00     		lsl	r3, r3, #2
 283 0010 0440     		and	r4, r0
 284 0012 D558     		ldr	r5, [r2, r3]
 285 0014 E400     		lsl	r4, r4, #3
 286 0016 FF26     		mov	r6, #255
 287              		.loc 1 61 0
 288 0018 8901     		lsl	r1, r1, #6
 289              	.LVL1:
 290              		.loc 1 60 0
 291 001a A640     		lsl	r6, r6, r4
 292              		.loc 1 61 0
 293 001c A140     		lsl	r1, r1, r4
 294              		.loc 1 60 0
 295 001e B543     		bic	r5, r6
 296              		.loc 1 61 0
 297 0020 0C1C     		mov	r4, r1
 298              		.loc 1 60 0
 299 0022 2C43     		orr	r4, r5
 300 0024 D450     		str	r4, [r2, r3]
 301              		.loc 1 65 0
 302 0026 1F23     		mov	r3, #31
 303 0028 0340     		and	r3, r0
 304 002a 0122     		mov	r2, #1
 305 002c 9A40     		lsl	r2, r2, r3
 306 002e 131C     		mov	r3, r2
 307 0030 4009     		lsr	r0, r0, #5
 308              	.LVL2:
 309 0032 044A     		ldr	r2, .L2
 310 0034 8000     		lsl	r0, r0, #2
ARM GAS  /tmp/ccd5y8vC.s 			page 20


 311 0036 8018     		add	r0, r0, r2
 312 0038 C022     		mov	r2, #192
 313 003a 5200     		lsl	r2, r2, #1
 314 003c 8350     		str	r3, [r0, r2]
 315              		.loc 1 67 0
 316              		@ sp needed
 317              		.loc 1 66 0
 318 003e 0360     		str	r3, [r0]
 319              		.loc 1 67 0
 320 0040 70BD     		pop	{r4, r5, r6, pc}
 321              	.L3:
 322 0042 C046     		.align	2
 323              	.L2:
 324 0044 00E100E0 		.word	-536813312
 325              		.cfi_endproc
 326              	.LFE98:
 327              		.size	nvicEnableVector, .-nvicEnableVector
 328 0048 C046C046 		.section	.text.nvicDisableVector,"ax",%progbits
 328      C046C046 
 329              		.align	2
 330              		.p2align 4,,15
 331              		.global	nvicDisableVector
 332              		.code	16
 333              		.thumb_func
 334              		.type	nvicDisableVector, %function
 335              	nvicDisableVector:
 336              	.LFB99:
 337              		.loc 1 74 0
 338              		.cfi_startproc
 339              	.LVL3:
 340              		.loc 1 76 0
 341 0000 1F21     		mov	r1, #31
 342 0002 0140     		and	r1, r0
 343 0004 0123     		mov	r3, #1
 344 0006 4209     		lsr	r2, r0, #5
 345 0008 8B40     		lsl	r3, r3, r1
 346 000a 191C     		mov	r1, r3
 347 000c 2032     		add	r2, r2, #32
 348 000e 094B     		ldr	r3, .L5
 349 0010 9200     		lsl	r2, r2, #2
 350              		.loc 1 74 0
 351 0012 10B5     		push	{r4, lr}
 352              		.cfi_def_cfa_offset 8
 353              		.cfi_offset 4, -8
 354              		.cfi_offset 14, -4
 355              		.loc 1 76 0
 356 0014 D150     		str	r1, [r2, r3]
 357              		.loc 1 78 0
 358 0016 8208     		lsr	r2, r0, #2
 359 0018 9200     		lsl	r2, r2, #2
 360 001a D218     		add	r2, r2, r3
 361 001c 0324     		mov	r4, #3
 362 001e C023     		mov	r3, #192
 363 0020 9B00     		lsl	r3, r3, #2
 364 0022 2040     		and	r0, r4
 365              	.LVL4:
 366 0024 D158     		ldr	r1, [r2, r3]
ARM GAS  /tmp/ccd5y8vC.s 			page 21


 367 0026 C000     		lsl	r0, r0, #3
 368 0028 FF24     		mov	r4, #255
 369 002a 8440     		lsl	r4, r4, r0
 370 002c A143     		bic	r1, r4
 371 002e D150     		str	r1, [r2, r3]
 372              		.loc 1 82 0
 373              		@ sp needed
 374 0030 10BD     		pop	{r4, pc}
 375              	.L6:
 376 0032 C046     		.align	2
 377              	.L5:
 378 0034 00E100E0 		.word	-536813312
 379              		.cfi_endproc
 380              	.LFE99:
 381              		.size	nvicDisableVector, .-nvicDisableVector
 382 0038 C046C046 		.section	.text.nvicSetSystemHandlerPriority,"ax",%progbits
 382      C046C046 
 383              		.align	2
 384              		.p2align 4,,15
 385              		.global	nvicSetSystemHandlerPriority
 386              		.code	16
 387              		.thumb_func
 388              		.type	nvicSetSystemHandlerPriority, %function
 389              	nvicSetSystemHandlerPriority:
 390              	.LFB100:
 391              		.loc 1 90 0
 392              		.cfi_startproc
 393              	.LVL5:
 394              		.loc 1 95 0
 395 0000 0F23     		mov	r3, #15
 396 0002 0340     		and	r3, r0
 397 0004 083B     		sub	r3, r3, #8
 398 0006 094A     		ldr	r2, .L8
 399 0008 9B08     		lsr	r3, r3, #2
 400              		.loc 1 90 0
 401 000a 10B5     		push	{r4, lr}
 402              		.cfi_def_cfa_offset 8
 403              		.cfi_offset 4, -8
 404              		.cfi_offset 14, -4
 405 000c 9B00     		lsl	r3, r3, #2
 406              		.loc 1 95 0
 407 000e 0324     		mov	r4, #3
 408 0010 9B18     		add	r3, r3, r2
 409 0012 2040     		and	r0, r4
 410              	.LVL6:
 411 0014 DA69     		ldr	r2, [r3, #28]
 412 0016 C000     		lsl	r0, r0, #3
 413 0018 FF24     		mov	r4, #255
 414              		.loc 1 96 0
 415 001a 8901     		lsl	r1, r1, #6
 416              	.LVL7:
 417              		.loc 1 95 0
 418 001c 8440     		lsl	r4, r4, r0
 419              		.loc 1 96 0
 420 001e 8140     		lsl	r1, r1, r0
 421              		.loc 1 95 0
 422 0020 A243     		bic	r2, r4
ARM GAS  /tmp/ccd5y8vC.s 			page 22


 423              		.loc 1 96 0
 424 0022 081C     		mov	r0, r1
 425              		.loc 1 95 0
 426 0024 1043     		orr	r0, r2
 427 0026 D861     		str	r0, [r3, #28]
 428              		.loc 1 102 0
 429              		@ sp needed
 430 0028 10BD     		pop	{r4, pc}
 431              	.L9:
 432 002a C046     		.align	2
 433              	.L8:
 434 002c 00ED00E0 		.word	-536810240
 435              		.cfi_endproc
 436              	.LFE100:
 437              		.size	nvicSetSystemHandlerPriority, .-nvicSetSystemHandlerPriority
 438              		.section	.text.nvicClearPending,"ax",%progbits
 439              		.align	2
 440              		.p2align 4,,15
 441              		.global	nvicClearPending
 442              		.code	16
 443              		.thumb_func
 444              		.type	nvicClearPending, %function
 445              	nvicClearPending:
 446              	.LFB101:
 447              		.loc 1 109 0
 448              		.cfi_startproc
 449              	.LVL8:
 450              		.loc 1 111 0
 451 0000 1F23     		mov	r3, #31
 452 0002 4209     		lsr	r2, r0, #5
 453 0004 1840     		and	r0, r3
 454              	.LVL9:
 455 0006 0123     		mov	r3, #1
 456 0008 8340     		lsl	r3, r3, r0
 457 000a 181C     		mov	r0, r3
 458 000c 6032     		add	r2, r2, #96
 459 000e 024B     		ldr	r3, .L11
 460 0010 9200     		lsl	r2, r2, #2
 461 0012 D050     		str	r0, [r2, r3]
 462              		.loc 1 112 0
 463              		@ sp needed
 464 0014 7047     		bx	lr
 465              	.L12:
 466 0016 C046     		.align	2
 467              	.L11:
 468 0018 00E100E0 		.word	-536813312
 469              		.cfi_endproc
 470              	.LFE101:
 471              		.size	nvicClearPending, .-nvicClearPending
 472 001c C046C046 		.text
 473              	.Letext0:
 474              		.file 2 "/usr/include/newlib/machine/_default_types.h"
 475              		.file 3 "/usr/include/newlib/stdint.h"
 476              		.file 4 "../../../os/common/ext/CMSIS/include/core_cm0.h"
 477              		.section	.debug_info,"",%progbits
 478              	.Ldebug_info0:
 479 0000 10030000 		.4byte	0x310
ARM GAS  /tmp/ccd5y8vC.s 			page 23


 480 0004 0400     		.2byte	0x4
 481 0006 00000000 		.4byte	.Ldebug_abbrev0
 482 000a 04       		.byte	0x4
 483 000b 01       		.uleb128 0x1
 484 000c C4010000 		.4byte	.LASF37
 485 0010 01       		.byte	0x1
 486 0011 7E000000 		.4byte	.LASF38
 487 0015 1A000000 		.4byte	.LASF39
 488 0019 00000000 		.4byte	.Ldebug_ranges0+0
 489 001d 00000000 		.4byte	0
 490 0021 00000000 		.4byte	.Ldebug_line0
 491 0025 02       		.uleb128 0x2
 492 0026 04       		.byte	0x4
 493 0027 05       		.byte	0x5
 494 0028 696E7400 		.ascii	"int\000"
 495 002c 03       		.uleb128 0x3
 496 002d 04       		.byte	0x4
 497 002e 07       		.byte	0x7
 498 002f 34010000 		.4byte	.LASF0
 499 0033 03       		.uleb128 0x3
 500 0034 01       		.byte	0x1
 501 0035 06       		.byte	0x6
 502 0036 A9000000 		.4byte	.LASF1
 503 003a 03       		.uleb128 0x3
 504 003b 01       		.byte	0x1
 505 003c 08       		.byte	0x8
 506 003d B5000000 		.4byte	.LASF2
 507 0041 03       		.uleb128 0x3
 508 0042 02       		.byte	0x2
 509 0043 05       		.byte	0x5
 510 0044 A8010000 		.4byte	.LASF3
 511 0048 03       		.uleb128 0x3
 512 0049 02       		.byte	0x2
 513 004a 07       		.byte	0x7
 514 004b ED000000 		.4byte	.LASF4
 515 004f 04       		.uleb128 0x4
 516 0050 10000000 		.4byte	.LASF6
 517 0054 02       		.byte	0x2
 518 0055 37       		.byte	0x37
 519 0056 5A000000 		.4byte	0x5a
 520 005a 03       		.uleb128 0x3
 521 005b 04       		.byte	0x4
 522 005c 05       		.byte	0x5
 523 005d BB010000 		.4byte	.LASF5
 524 0061 04       		.uleb128 0x4
 525 0062 1B010000 		.4byte	.LASF7
 526 0066 02       		.byte	0x2
 527 0067 38       		.byte	0x38
 528 0068 6C000000 		.4byte	0x6c
 529 006c 03       		.uleb128 0x3
 530 006d 04       		.byte	0x4
 531 006e 07       		.byte	0x7
 532 006f DB000000 		.4byte	.LASF8
 533 0073 03       		.uleb128 0x3
 534 0074 08       		.byte	0x8
 535 0075 05       		.byte	0x5
 536 0076 82010000 		.4byte	.LASF9
ARM GAS  /tmp/ccd5y8vC.s 			page 24


 537 007a 03       		.uleb128 0x3
 538 007b 08       		.byte	0x8
 539 007c 07       		.byte	0x7
 540 007d 46010000 		.4byte	.LASF10
 541 0081 04       		.uleb128 0x4
 542 0082 A0010000 		.4byte	.LASF11
 543 0086 03       		.byte	0x3
 544 0087 41       		.byte	0x41
 545 0088 4F000000 		.4byte	0x4f
 546 008c 04       		.uleb128 0x4
 547 008d B2010000 		.4byte	.LASF12
 548 0091 03       		.byte	0x3
 549 0092 42       		.byte	0x42
 550 0093 61000000 		.4byte	0x61
 551 0097 05       		.uleb128 0x5
 552 0098 2003     		.2byte	0x320
 553 009a 04       		.byte	0x4
 554 009b 6A01     		.2byte	0x16a
 555 009d 29010000 		.4byte	0x129
 556 00a1 06       		.uleb128 0x6
 557 00a2 9B010000 		.4byte	.LASF13
 558 00a6 04       		.byte	0x4
 559 00a7 6C01     		.2byte	0x16c
 560 00a9 40010000 		.4byte	0x140
 561 00ad 00       		.byte	0
 562 00ae 06       		.uleb128 0x6
 563 00af 56000000 		.4byte	.LASF14
 564 00b3 04       		.byte	0x4
 565 00b4 6D01     		.2byte	0x16d
 566 00b6 45010000 		.4byte	0x145
 567 00ba 04       		.byte	0x4
 568 00bb 06       		.uleb128 0x6
 569 00bc 26010000 		.4byte	.LASF15
 570 00c0 04       		.byte	0x4
 571 00c1 6E01     		.2byte	0x16e
 572 00c3 55010000 		.4byte	0x155
 573 00c7 80       		.byte	0x80
 574 00c8 06       		.uleb128 0x6
 575 00c9 68010000 		.4byte	.LASF16
 576 00cd 04       		.byte	0x4
 577 00ce 6F01     		.2byte	0x16f
 578 00d0 45010000 		.4byte	0x145
 579 00d4 84       		.byte	0x84
 580 00d5 07       		.uleb128 0x7
 581 00d6 41010000 		.4byte	.LASF17
 582 00da 04       		.byte	0x4
 583 00db 7001     		.2byte	0x170
 584 00dd 5A010000 		.4byte	0x15a
 585 00e1 0001     		.2byte	0x100
 586 00e3 07       		.uleb128 0x7
 587 00e4 11010000 		.4byte	.LASF18
 588 00e8 04       		.byte	0x4
 589 00e9 7101     		.2byte	0x171
 590 00eb 45010000 		.4byte	0x145
 591 00ef 0401     		.2byte	0x104
 592 00f1 07       		.uleb128 0x7
 593 00f2 05000000 		.4byte	.LASF19
ARM GAS  /tmp/ccd5y8vC.s 			page 25


 594 00f6 04       		.byte	0x4
 595 00f7 7201     		.2byte	0x172
 596 00f9 5F010000 		.4byte	0x15f
 597 00fd 8001     		.2byte	0x180
 598 00ff 07       		.uleb128 0x7
 599 0100 6A000000 		.4byte	.LASF20
 600 0104 04       		.byte	0x4
 601 0105 7301     		.2byte	0x173
 602 0107 45010000 		.4byte	0x145
 603 010b 8401     		.2byte	0x184
 604 010d 07       		.uleb128 0x7
 605 010e 74000000 		.4byte	.LASF21
 606 0112 04       		.byte	0x4
 607 0113 7401     		.2byte	0x174
 608 0115 64010000 		.4byte	0x164
 609 0119 0002     		.2byte	0x200
 610 011b 08       		.uleb128 0x8
 611 011c 495000   		.ascii	"IP\000"
 612 011f 04       		.byte	0x4
 613 0120 7501     		.2byte	0x175
 614 0122 84010000 		.4byte	0x184
 615 0126 0003     		.2byte	0x300
 616 0128 00       		.byte	0
 617 0129 09       		.uleb128 0x9
 618 012a 8C000000 		.4byte	0x8c
 619 012e 39010000 		.4byte	0x139
 620 0132 0A       		.uleb128 0xa
 621 0133 39010000 		.4byte	0x139
 622 0137 00       		.byte	0
 623 0138 00       		.byte	0
 624 0139 03       		.uleb128 0x3
 625 013a 04       		.byte	0x4
 626 013b 07       		.byte	0x7
 627 013c 79010000 		.4byte	.LASF22
 628 0140 0B       		.uleb128 0xb
 629 0141 29010000 		.4byte	0x129
 630 0145 09       		.uleb128 0x9
 631 0146 8C000000 		.4byte	0x8c
 632 014a 55010000 		.4byte	0x155
 633 014e 0A       		.uleb128 0xa
 634 014f 39010000 		.4byte	0x139
 635 0153 1E       		.byte	0x1e
 636 0154 00       		.byte	0
 637 0155 0B       		.uleb128 0xb
 638 0156 29010000 		.4byte	0x129
 639 015a 0B       		.uleb128 0xb
 640 015b 29010000 		.4byte	0x129
 641 015f 0B       		.uleb128 0xb
 642 0160 29010000 		.4byte	0x129
 643 0164 09       		.uleb128 0x9
 644 0165 8C000000 		.4byte	0x8c
 645 0169 74010000 		.4byte	0x174
 646 016d 0A       		.uleb128 0xa
 647 016e 39010000 		.4byte	0x139
 648 0172 3F       		.byte	0x3f
 649 0173 00       		.byte	0
 650 0174 09       		.uleb128 0x9
ARM GAS  /tmp/ccd5y8vC.s 			page 26


 651 0175 8C000000 		.4byte	0x8c
 652 0179 84010000 		.4byte	0x184
 653 017d 0A       		.uleb128 0xa
 654 017e 39010000 		.4byte	0x139
 655 0182 07       		.byte	0x7
 656 0183 00       		.byte	0
 657 0184 0B       		.uleb128 0xb
 658 0185 74010000 		.4byte	0x174
 659 0189 0C       		.uleb128 0xc
 660 018a D1000000 		.4byte	.LASF23
 661 018e 04       		.byte	0x4
 662 018f 7601     		.2byte	0x176
 663 0191 97000000 		.4byte	0x97
 664 0195 0D       		.uleb128 0xd
 665 0196 28       		.byte	0x28
 666 0197 04       		.byte	0x4
 667 0198 8501     		.2byte	0x185
 668 019a 14020000 		.4byte	0x214
 669 019e 06       		.uleb128 0x6
 670 019f 90010000 		.4byte	.LASF24
 671 01a3 04       		.byte	0x4
 672 01a4 8701     		.2byte	0x187
 673 01a6 14020000 		.4byte	0x214
 674 01aa 00       		.byte	0
 675 01ab 06       		.uleb128 0x6
 676 01ac 5D010000 		.4byte	.LASF25
 677 01b0 04       		.byte	0x4
 678 01b1 8801     		.2byte	0x188
 679 01b3 19020000 		.4byte	0x219
 680 01b7 04       		.byte	0x4
 681 01b8 06       		.uleb128 0x6
 682 01b9 56000000 		.4byte	.LASF14
 683 01bd 04       		.byte	0x4
 684 01be 8901     		.2byte	0x189
 685 01c0 8C000000 		.4byte	0x8c
 686 01c4 08       		.byte	0x8
 687 01c5 06       		.uleb128 0x6
 688 01c6 62010000 		.4byte	.LASF26
 689 01ca 04       		.byte	0x4
 690 01cb 8A01     		.2byte	0x18a
 691 01cd 19020000 		.4byte	0x219
 692 01d1 0C       		.byte	0xc
 693 01d2 0E       		.uleb128 0xe
 694 01d3 53435200 		.ascii	"SCR\000"
 695 01d7 04       		.byte	0x4
 696 01d8 8B01     		.2byte	0x18b
 697 01da 19020000 		.4byte	0x219
 698 01de 10       		.byte	0x10
 699 01df 0E       		.uleb128 0xe
 700 01e0 43435200 		.ascii	"CCR\000"
 701 01e4 04       		.byte	0x4
 702 01e5 8C01     		.2byte	0x18c
 703 01e7 19020000 		.4byte	0x219
 704 01eb 14       		.byte	0x14
 705 01ec 06       		.uleb128 0x6
 706 01ed 60000000 		.4byte	.LASF27
 707 01f1 04       		.byte	0x4
ARM GAS  /tmp/ccd5y8vC.s 			page 27


 708 01f2 8D01     		.2byte	0x18d
 709 01f4 8C000000 		.4byte	0x8c
 710 01f8 18       		.byte	0x18
 711 01f9 0E       		.uleb128 0xe
 712 01fa 53485000 		.ascii	"SHP\000"
 713 01fe 04       		.byte	0x4
 714 01ff 8E01     		.2byte	0x18e
 715 0201 2E020000 		.4byte	0x22e
 716 0205 1C       		.byte	0x1c
 717 0206 06       		.uleb128 0x6
 718 0207 0A000000 		.4byte	.LASF28
 719 020b 04       		.byte	0x4
 720 020c 8F01     		.2byte	0x18f
 721 020e 19020000 		.4byte	0x219
 722 0212 24       		.byte	0x24
 723 0213 00       		.byte	0
 724 0214 0F       		.uleb128 0xf
 725 0215 19020000 		.4byte	0x219
 726 0219 0B       		.uleb128 0xb
 727 021a 8C000000 		.4byte	0x8c
 728 021e 09       		.uleb128 0x9
 729 021f 8C000000 		.4byte	0x8c
 730 0223 2E020000 		.4byte	0x22e
 731 0227 0A       		.uleb128 0xa
 732 0228 39010000 		.4byte	0x139
 733 022c 01       		.byte	0x1
 734 022d 00       		.byte	0
 735 022e 0B       		.uleb128 0xb
 736 022f 1E020000 		.4byte	0x21e
 737 0233 0C       		.uleb128 0xc
 738 0234 2B010000 		.4byte	.LASF29
 739 0238 04       		.byte	0x4
 740 0239 9001     		.2byte	0x190
 741 023b 95010000 		.4byte	0x195
 742 023f 03       		.uleb128 0x3
 743 0240 01       		.byte	0x1
 744 0241 08       		.byte	0x8
 745 0242 96010000 		.4byte	.LASF30
 746 0246 03       		.uleb128 0x3
 747 0247 01       		.byte	0x1
 748 0248 02       		.byte	0x2
 749 0249 96020000 		.4byte	.LASF31
 750 024d 10       		.uleb128 0x10
 751 024e 9C020000 		.4byte	.LASF33
 752 0252 01       		.byte	0x1
 753 0253 39       		.byte	0x39
 754 0254 00000000 		.4byte	.LFB98
 755 0258 48000000 		.4byte	.LFE98-.LFB98
 756 025c 01       		.uleb128 0x1
 757 025d 9C       		.byte	0x9c
 758 025e 7F020000 		.4byte	0x27f
 759 0262 11       		.uleb128 0x11
 760 0263 6E00     		.ascii	"n\000"
 761 0265 01       		.byte	0x1
 762 0266 39       		.byte	0x39
 763 0267 8C000000 		.4byte	0x8c
 764 026b 00000000 		.4byte	.LLST0
ARM GAS  /tmp/ccd5y8vC.s 			page 28


 765 026f 12       		.uleb128 0x12
 766 0270 00000000 		.4byte	.LASF32
 767 0274 01       		.byte	0x1
 768 0275 39       		.byte	0x39
 769 0276 8C000000 		.4byte	0x8c
 770 027a 21000000 		.4byte	.LLST1
 771 027e 00       		.byte	0
 772 027f 10       		.uleb128 0x10
 773 0280 67020000 		.4byte	.LASF34
 774 0284 01       		.byte	0x1
 775 0285 4A       		.byte	0x4a
 776 0286 00000000 		.4byte	.LFB99
 777 028a 38000000 		.4byte	.LFE99-.LFB99
 778 028e 01       		.uleb128 0x1
 779 028f 9C       		.byte	0x9c
 780 0290 A2020000 		.4byte	0x2a2
 781 0294 11       		.uleb128 0x11
 782 0295 6E00     		.ascii	"n\000"
 783 0297 01       		.byte	0x1
 784 0298 4A       		.byte	0x4a
 785 0299 8C000000 		.4byte	0x8c
 786 029d 42000000 		.4byte	.LLST2
 787 02a1 00       		.byte	0
 788 02a2 10       		.uleb128 0x10
 789 02a3 79020000 		.4byte	.LASF35
 790 02a7 01       		.byte	0x1
 791 02a8 5A       		.byte	0x5a
 792 02a9 00000000 		.4byte	.LFB100
 793 02ad 30000000 		.4byte	.LFE100-.LFB100
 794 02b1 01       		.uleb128 0x1
 795 02b2 9C       		.byte	0x9c
 796 02b3 DF020000 		.4byte	0x2df
 797 02b7 12       		.uleb128 0x12
 798 02b8 71010000 		.4byte	.LASF36
 799 02bc 01       		.byte	0x1
 800 02bd 5A       		.byte	0x5a
 801 02be 8C000000 		.4byte	0x8c
 802 02c2 63000000 		.4byte	.LLST3
 803 02c6 12       		.uleb128 0x12
 804 02c7 00000000 		.4byte	.LASF32
 805 02cb 01       		.byte	0x1
 806 02cc 5A       		.byte	0x5a
 807 02cd 8C000000 		.4byte	0x8c
 808 02d1 84000000 		.4byte	.LLST4
 809 02d5 13       		.uleb128 0x13
 810 02d6 C3000000 		.4byte	.LASF40
 811 02da EF020000 		.4byte	0x2ef
 812 02de 00       		.byte	0
 813 02df 09       		.uleb128 0x9
 814 02e0 3F020000 		.4byte	0x23f
 815 02e4 EF020000 		.4byte	0x2ef
 816 02e8 0A       		.uleb128 0xa
 817 02e9 39010000 		.4byte	0x139
 818 02ed 1C       		.byte	0x1c
 819 02ee 00       		.byte	0
 820 02ef 0F       		.uleb128 0xf
 821 02f0 DF020000 		.4byte	0x2df
ARM GAS  /tmp/ccd5y8vC.s 			page 29


 822 02f4 14       		.uleb128 0x14
 823 02f5 00010000 		.4byte	.LASF41
 824 02f9 01       		.byte	0x1
 825 02fa 6D       		.byte	0x6d
 826 02fb 00000000 		.4byte	.LFB101
 827 02ff 1C000000 		.4byte	.LFE101-.LFB101
 828 0303 01       		.uleb128 0x1
 829 0304 9C       		.byte	0x9c
 830 0305 11       		.uleb128 0x11
 831 0306 6E00     		.ascii	"n\000"
 832 0308 01       		.byte	0x1
 833 0309 6D       		.byte	0x6d
 834 030a 8C000000 		.4byte	0x8c
 835 030e A5000000 		.4byte	.LLST5
 836 0312 00       		.byte	0
 837 0313 00       		.byte	0
 838              		.section	.debug_abbrev,"",%progbits
 839              	.Ldebug_abbrev0:
 840 0000 01       		.uleb128 0x1
 841 0001 11       		.uleb128 0x11
 842 0002 01       		.byte	0x1
 843 0003 25       		.uleb128 0x25
 844 0004 0E       		.uleb128 0xe
 845 0005 13       		.uleb128 0x13
 846 0006 0B       		.uleb128 0xb
 847 0007 03       		.uleb128 0x3
 848 0008 0E       		.uleb128 0xe
 849 0009 1B       		.uleb128 0x1b
 850 000a 0E       		.uleb128 0xe
 851 000b 55       		.uleb128 0x55
 852 000c 17       		.uleb128 0x17
 853 000d 11       		.uleb128 0x11
 854 000e 01       		.uleb128 0x1
 855 000f 10       		.uleb128 0x10
 856 0010 17       		.uleb128 0x17
 857 0011 00       		.byte	0
 858 0012 00       		.byte	0
 859 0013 02       		.uleb128 0x2
 860 0014 24       		.uleb128 0x24
 861 0015 00       		.byte	0
 862 0016 0B       		.uleb128 0xb
 863 0017 0B       		.uleb128 0xb
 864 0018 3E       		.uleb128 0x3e
 865 0019 0B       		.uleb128 0xb
 866 001a 03       		.uleb128 0x3
 867 001b 08       		.uleb128 0x8
 868 001c 00       		.byte	0
 869 001d 00       		.byte	0
 870 001e 03       		.uleb128 0x3
 871 001f 24       		.uleb128 0x24
 872 0020 00       		.byte	0
 873 0021 0B       		.uleb128 0xb
 874 0022 0B       		.uleb128 0xb
 875 0023 3E       		.uleb128 0x3e
 876 0024 0B       		.uleb128 0xb
 877 0025 03       		.uleb128 0x3
 878 0026 0E       		.uleb128 0xe
ARM GAS  /tmp/ccd5y8vC.s 			page 30


 879 0027 00       		.byte	0
 880 0028 00       		.byte	0
 881 0029 04       		.uleb128 0x4
 882 002a 16       		.uleb128 0x16
 883 002b 00       		.byte	0
 884 002c 03       		.uleb128 0x3
 885 002d 0E       		.uleb128 0xe
 886 002e 3A       		.uleb128 0x3a
 887 002f 0B       		.uleb128 0xb
 888 0030 3B       		.uleb128 0x3b
 889 0031 0B       		.uleb128 0xb
 890 0032 49       		.uleb128 0x49
 891 0033 13       		.uleb128 0x13
 892 0034 00       		.byte	0
 893 0035 00       		.byte	0
 894 0036 05       		.uleb128 0x5
 895 0037 13       		.uleb128 0x13
 896 0038 01       		.byte	0x1
 897 0039 0B       		.uleb128 0xb
 898 003a 05       		.uleb128 0x5
 899 003b 3A       		.uleb128 0x3a
 900 003c 0B       		.uleb128 0xb
 901 003d 3B       		.uleb128 0x3b
 902 003e 05       		.uleb128 0x5
 903 003f 01       		.uleb128 0x1
 904 0040 13       		.uleb128 0x13
 905 0041 00       		.byte	0
 906 0042 00       		.byte	0
 907 0043 06       		.uleb128 0x6
 908 0044 0D       		.uleb128 0xd
 909 0045 00       		.byte	0
 910 0046 03       		.uleb128 0x3
 911 0047 0E       		.uleb128 0xe
 912 0048 3A       		.uleb128 0x3a
 913 0049 0B       		.uleb128 0xb
 914 004a 3B       		.uleb128 0x3b
 915 004b 05       		.uleb128 0x5
 916 004c 49       		.uleb128 0x49
 917 004d 13       		.uleb128 0x13
 918 004e 38       		.uleb128 0x38
 919 004f 0B       		.uleb128 0xb
 920 0050 00       		.byte	0
 921 0051 00       		.byte	0
 922 0052 07       		.uleb128 0x7
 923 0053 0D       		.uleb128 0xd
 924 0054 00       		.byte	0
 925 0055 03       		.uleb128 0x3
 926 0056 0E       		.uleb128 0xe
 927 0057 3A       		.uleb128 0x3a
 928 0058 0B       		.uleb128 0xb
 929 0059 3B       		.uleb128 0x3b
 930 005a 05       		.uleb128 0x5
 931 005b 49       		.uleb128 0x49
 932 005c 13       		.uleb128 0x13
 933 005d 38       		.uleb128 0x38
 934 005e 05       		.uleb128 0x5
 935 005f 00       		.byte	0
ARM GAS  /tmp/ccd5y8vC.s 			page 31


 936 0060 00       		.byte	0
 937 0061 08       		.uleb128 0x8
 938 0062 0D       		.uleb128 0xd
 939 0063 00       		.byte	0
 940 0064 03       		.uleb128 0x3
 941 0065 08       		.uleb128 0x8
 942 0066 3A       		.uleb128 0x3a
 943 0067 0B       		.uleb128 0xb
 944 0068 3B       		.uleb128 0x3b
 945 0069 05       		.uleb128 0x5
 946 006a 49       		.uleb128 0x49
 947 006b 13       		.uleb128 0x13
 948 006c 38       		.uleb128 0x38
 949 006d 05       		.uleb128 0x5
 950 006e 00       		.byte	0
 951 006f 00       		.byte	0
 952 0070 09       		.uleb128 0x9
 953 0071 01       		.uleb128 0x1
 954 0072 01       		.byte	0x1
 955 0073 49       		.uleb128 0x49
 956 0074 13       		.uleb128 0x13
 957 0075 01       		.uleb128 0x1
 958 0076 13       		.uleb128 0x13
 959 0077 00       		.byte	0
 960 0078 00       		.byte	0
 961 0079 0A       		.uleb128 0xa
 962 007a 21       		.uleb128 0x21
 963 007b 00       		.byte	0
 964 007c 49       		.uleb128 0x49
 965 007d 13       		.uleb128 0x13
 966 007e 2F       		.uleb128 0x2f
 967 007f 0B       		.uleb128 0xb
 968 0080 00       		.byte	0
 969 0081 00       		.byte	0
 970 0082 0B       		.uleb128 0xb
 971 0083 35       		.uleb128 0x35
 972 0084 00       		.byte	0
 973 0085 49       		.uleb128 0x49
 974 0086 13       		.uleb128 0x13
 975 0087 00       		.byte	0
 976 0088 00       		.byte	0
 977 0089 0C       		.uleb128 0xc
 978 008a 16       		.uleb128 0x16
 979 008b 00       		.byte	0
 980 008c 03       		.uleb128 0x3
 981 008d 0E       		.uleb128 0xe
 982 008e 3A       		.uleb128 0x3a
 983 008f 0B       		.uleb128 0xb
 984 0090 3B       		.uleb128 0x3b
 985 0091 05       		.uleb128 0x5
 986 0092 49       		.uleb128 0x49
 987 0093 13       		.uleb128 0x13
 988 0094 00       		.byte	0
 989 0095 00       		.byte	0
 990 0096 0D       		.uleb128 0xd
 991 0097 13       		.uleb128 0x13
 992 0098 01       		.byte	0x1
ARM GAS  /tmp/ccd5y8vC.s 			page 32


 993 0099 0B       		.uleb128 0xb
 994 009a 0B       		.uleb128 0xb
 995 009b 3A       		.uleb128 0x3a
 996 009c 0B       		.uleb128 0xb
 997 009d 3B       		.uleb128 0x3b
 998 009e 05       		.uleb128 0x5
 999 009f 01       		.uleb128 0x1
 1000 00a0 13       		.uleb128 0x13
 1001 00a1 00       		.byte	0
 1002 00a2 00       		.byte	0
 1003 00a3 0E       		.uleb128 0xe
 1004 00a4 0D       		.uleb128 0xd
 1005 00a5 00       		.byte	0
 1006 00a6 03       		.uleb128 0x3
 1007 00a7 08       		.uleb128 0x8
 1008 00a8 3A       		.uleb128 0x3a
 1009 00a9 0B       		.uleb128 0xb
 1010 00aa 3B       		.uleb128 0x3b
 1011 00ab 05       		.uleb128 0x5
 1012 00ac 49       		.uleb128 0x49
 1013 00ad 13       		.uleb128 0x13
 1014 00ae 38       		.uleb128 0x38
 1015 00af 0B       		.uleb128 0xb
 1016 00b0 00       		.byte	0
 1017 00b1 00       		.byte	0
 1018 00b2 0F       		.uleb128 0xf
 1019 00b3 26       		.uleb128 0x26
 1020 00b4 00       		.byte	0
 1021 00b5 49       		.uleb128 0x49
 1022 00b6 13       		.uleb128 0x13
 1023 00b7 00       		.byte	0
 1024 00b8 00       		.byte	0
 1025 00b9 10       		.uleb128 0x10
 1026 00ba 2E       		.uleb128 0x2e
 1027 00bb 01       		.byte	0x1
 1028 00bc 3F       		.uleb128 0x3f
 1029 00bd 19       		.uleb128 0x19
 1030 00be 03       		.uleb128 0x3
 1031 00bf 0E       		.uleb128 0xe
 1032 00c0 3A       		.uleb128 0x3a
 1033 00c1 0B       		.uleb128 0xb
 1034 00c2 3B       		.uleb128 0x3b
 1035 00c3 0B       		.uleb128 0xb
 1036 00c4 27       		.uleb128 0x27
 1037 00c5 19       		.uleb128 0x19
 1038 00c6 11       		.uleb128 0x11
 1039 00c7 01       		.uleb128 0x1
 1040 00c8 12       		.uleb128 0x12
 1041 00c9 06       		.uleb128 0x6
 1042 00ca 40       		.uleb128 0x40
 1043 00cb 18       		.uleb128 0x18
 1044 00cc 9742     		.uleb128 0x2117
 1045 00ce 19       		.uleb128 0x19
 1046 00cf 01       		.uleb128 0x1
 1047 00d0 13       		.uleb128 0x13
 1048 00d1 00       		.byte	0
 1049 00d2 00       		.byte	0
ARM GAS  /tmp/ccd5y8vC.s 			page 33


 1050 00d3 11       		.uleb128 0x11
 1051 00d4 05       		.uleb128 0x5
 1052 00d5 00       		.byte	0
 1053 00d6 03       		.uleb128 0x3
 1054 00d7 08       		.uleb128 0x8
 1055 00d8 3A       		.uleb128 0x3a
 1056 00d9 0B       		.uleb128 0xb
 1057 00da 3B       		.uleb128 0x3b
 1058 00db 0B       		.uleb128 0xb
 1059 00dc 49       		.uleb128 0x49
 1060 00dd 13       		.uleb128 0x13
 1061 00de 02       		.uleb128 0x2
 1062 00df 17       		.uleb128 0x17
 1063 00e0 00       		.byte	0
 1064 00e1 00       		.byte	0
 1065 00e2 12       		.uleb128 0x12
 1066 00e3 05       		.uleb128 0x5
 1067 00e4 00       		.byte	0
 1068 00e5 03       		.uleb128 0x3
 1069 00e6 0E       		.uleb128 0xe
 1070 00e7 3A       		.uleb128 0x3a
 1071 00e8 0B       		.uleb128 0xb
 1072 00e9 3B       		.uleb128 0x3b
 1073 00ea 0B       		.uleb128 0xb
 1074 00eb 49       		.uleb128 0x49
 1075 00ec 13       		.uleb128 0x13
 1076 00ed 02       		.uleb128 0x2
 1077 00ee 17       		.uleb128 0x17
 1078 00ef 00       		.byte	0
 1079 00f0 00       		.byte	0
 1080 00f1 13       		.uleb128 0x13
 1081 00f2 34       		.uleb128 0x34
 1082 00f3 00       		.byte	0
 1083 00f4 03       		.uleb128 0x3
 1084 00f5 0E       		.uleb128 0xe
 1085 00f6 49       		.uleb128 0x49
 1086 00f7 13       		.uleb128 0x13
 1087 00f8 34       		.uleb128 0x34
 1088 00f9 19       		.uleb128 0x19
 1089 00fa 00       		.byte	0
 1090 00fb 00       		.byte	0
 1091 00fc 14       		.uleb128 0x14
 1092 00fd 2E       		.uleb128 0x2e
 1093 00fe 01       		.byte	0x1
 1094 00ff 3F       		.uleb128 0x3f
 1095 0100 19       		.uleb128 0x19
 1096 0101 03       		.uleb128 0x3
 1097 0102 0E       		.uleb128 0xe
 1098 0103 3A       		.uleb128 0x3a
 1099 0104 0B       		.uleb128 0xb
 1100 0105 3B       		.uleb128 0x3b
 1101 0106 0B       		.uleb128 0xb
 1102 0107 27       		.uleb128 0x27
 1103 0108 19       		.uleb128 0x19
 1104 0109 11       		.uleb128 0x11
 1105 010a 01       		.uleb128 0x1
 1106 010b 12       		.uleb128 0x12
ARM GAS  /tmp/ccd5y8vC.s 			page 34


 1107 010c 06       		.uleb128 0x6
 1108 010d 40       		.uleb128 0x40
 1109 010e 18       		.uleb128 0x18
 1110 010f 9742     		.uleb128 0x2117
 1111 0111 19       		.uleb128 0x19
 1112 0112 00       		.byte	0
 1113 0113 00       		.byte	0
 1114 0114 00       		.byte	0
 1115              		.section	.debug_loc,"",%progbits
 1116              	.Ldebug_loc0:
 1117              	.LLST0:
 1118 0000 00000000 		.4byte	.LVL0
 1119 0004 32000000 		.4byte	.LVL2
 1120 0008 0100     		.2byte	0x1
 1121 000a 50       		.byte	0x50
 1122 000b 32000000 		.4byte	.LVL2
 1123 000f 48000000 		.4byte	.LFE98
 1124 0013 0400     		.2byte	0x4
 1125 0015 F3       		.byte	0xf3
 1126 0016 01       		.uleb128 0x1
 1127 0017 50       		.byte	0x50
 1128 0018 9F       		.byte	0x9f
 1129 0019 00000000 		.4byte	0
 1130 001d 00000000 		.4byte	0
 1131              	.LLST1:
 1132 0021 00000000 		.4byte	.LVL0
 1133 0025 1A000000 		.4byte	.LVL1
 1134 0029 0100     		.2byte	0x1
 1135 002b 51       		.byte	0x51
 1136 002c 1A000000 		.4byte	.LVL1
 1137 0030 48000000 		.4byte	.LFE98
 1138 0034 0400     		.2byte	0x4
 1139 0036 F3       		.byte	0xf3
 1140 0037 01       		.uleb128 0x1
 1141 0038 51       		.byte	0x51
 1142 0039 9F       		.byte	0x9f
 1143 003a 00000000 		.4byte	0
 1144 003e 00000000 		.4byte	0
 1145              	.LLST2:
 1146 0042 00000000 		.4byte	.LVL3
 1147 0046 24000000 		.4byte	.LVL4
 1148 004a 0100     		.2byte	0x1
 1149 004c 50       		.byte	0x50
 1150 004d 24000000 		.4byte	.LVL4
 1151 0051 38000000 		.4byte	.LFE99
 1152 0055 0400     		.2byte	0x4
 1153 0057 F3       		.byte	0xf3
 1154 0058 01       		.uleb128 0x1
 1155 0059 50       		.byte	0x50
 1156 005a 9F       		.byte	0x9f
 1157 005b 00000000 		.4byte	0
 1158 005f 00000000 		.4byte	0
 1159              	.LLST3:
 1160 0063 00000000 		.4byte	.LVL5
 1161 0067 14000000 		.4byte	.LVL6
 1162 006b 0100     		.2byte	0x1
 1163 006d 50       		.byte	0x50
ARM GAS  /tmp/ccd5y8vC.s 			page 35


 1164 006e 14000000 		.4byte	.LVL6
 1165 0072 30000000 		.4byte	.LFE100
 1166 0076 0400     		.2byte	0x4
 1167 0078 F3       		.byte	0xf3
 1168 0079 01       		.uleb128 0x1
 1169 007a 50       		.byte	0x50
 1170 007b 9F       		.byte	0x9f
 1171 007c 00000000 		.4byte	0
 1172 0080 00000000 		.4byte	0
 1173              	.LLST4:
 1174 0084 00000000 		.4byte	.LVL5
 1175 0088 1C000000 		.4byte	.LVL7
 1176 008c 0100     		.2byte	0x1
 1177 008e 51       		.byte	0x51
 1178 008f 1C000000 		.4byte	.LVL7
 1179 0093 30000000 		.4byte	.LFE100
 1180 0097 0400     		.2byte	0x4
 1181 0099 F3       		.byte	0xf3
 1182 009a 01       		.uleb128 0x1
 1183 009b 51       		.byte	0x51
 1184 009c 9F       		.byte	0x9f
 1185 009d 00000000 		.4byte	0
 1186 00a1 00000000 		.4byte	0
 1187              	.LLST5:
 1188 00a5 00000000 		.4byte	.LVL8
 1189 00a9 06000000 		.4byte	.LVL9
 1190 00ad 0100     		.2byte	0x1
 1191 00af 50       		.byte	0x50
 1192 00b0 06000000 		.4byte	.LVL9
 1193 00b4 1C000000 		.4byte	.LFE101
 1194 00b8 0400     		.2byte	0x4
 1195 00ba F3       		.byte	0xf3
 1196 00bb 01       		.uleb128 0x1
 1197 00bc 50       		.byte	0x50
 1198 00bd 9F       		.byte	0x9f
 1199 00be 00000000 		.4byte	0
 1200 00c2 00000000 		.4byte	0
 1201              		.section	.debug_aranges,"",%progbits
 1202 0000 34000000 		.4byte	0x34
 1203 0004 0200     		.2byte	0x2
 1204 0006 00000000 		.4byte	.Ldebug_info0
 1205 000a 04       		.byte	0x4
 1206 000b 00       		.byte	0
 1207 000c 0000     		.2byte	0
 1208 000e 0000     		.2byte	0
 1209 0010 00000000 		.4byte	.LFB98
 1210 0014 48000000 		.4byte	.LFE98-.LFB98
 1211 0018 00000000 		.4byte	.LFB99
 1212 001c 38000000 		.4byte	.LFE99-.LFB99
 1213 0020 00000000 		.4byte	.LFB100
 1214 0024 30000000 		.4byte	.LFE100-.LFB100
 1215 0028 00000000 		.4byte	.LFB101
 1216 002c 1C000000 		.4byte	.LFE101-.LFB101
 1217 0030 00000000 		.4byte	0
 1218 0034 00000000 		.4byte	0
 1219              		.section	.debug_ranges,"",%progbits
 1220              	.Ldebug_ranges0:
ARM GAS  /tmp/ccd5y8vC.s 			page 36


 1221 0000 00000000 		.4byte	.LFB98
 1222 0004 48000000 		.4byte	.LFE98
 1223 0008 00000000 		.4byte	.LFB99
 1224 000c 38000000 		.4byte	.LFE99
 1225 0010 00000000 		.4byte	.LFB100
 1226 0014 30000000 		.4byte	.LFE100
 1227 0018 00000000 		.4byte	.LFB101
 1228 001c 1C000000 		.4byte	.LFE101
 1229 0020 00000000 		.4byte	0
 1230 0024 00000000 		.4byte	0
 1231              		.section	.debug_line,"",%progbits
 1232              	.Ldebug_line0:
 1233 0000 27010000 		.section	.debug_str,"MS",%progbits,1
 1233      0200C400 
 1233      00000201 
 1233      FB0E0D00 
 1233      01010101 
 1234              	.LASF32:
 1235 0000 7072696F 		.ascii	"prio\000"
 1235      00
 1236              	.LASF19:
 1237 0005 49435052 		.ascii	"ICPR\000"
 1237      00
 1238              	.LASF28:
 1239 000a 53484353 		.ascii	"SHCSR\000"
 1239      5200
 1240              	.LASF6:
 1241 0010 5F5F696E 		.ascii	"__int32_t\000"
 1241      7433325F 
 1241      7400
 1242              	.LASF39:
 1243 001a 2F686F6D 		.ascii	"/home/awygle/ChibiOS-RT/demos/STM32/NIL-STM32F051-D"
 1243      652F6177 
 1243      79676C65 
 1243      2F436869 
 1243      62694F53 
 1244 004d 4953434F 		.ascii	"ISCOVERY\000"
 1244      56455259 
 1244      00
 1245              	.LASF14:
 1246 0056 52455345 		.ascii	"RESERVED0\000"
 1246      52564544 
 1246      3000
 1247              	.LASF27:
 1248 0060 52455345 		.ascii	"RESERVED1\000"
 1248      52564544 
 1248      3100
 1249              	.LASF20:
 1250 006a 52455345 		.ascii	"RESERVED3\000"
 1250      52564544 
 1250      3300
 1251              	.LASF21:
 1252 0074 52455345 		.ascii	"RESERVED4\000"
 1252      52564544 
 1252      3400
 1253              	.LASF38:
 1254 007e 2E2E2F2E 		.ascii	"../../../os/hal/ports/common/ARMCMx/nvic.c\000"
ARM GAS  /tmp/ccd5y8vC.s 			page 37


 1254      2E2F2E2E 
 1254      2F6F732F 
 1254      68616C2F 
 1254      706F7274 
 1255              	.LASF1:
 1256 00a9 7369676E 		.ascii	"signed char\000"
 1256      65642063 
 1256      68617200 
 1257              	.LASF2:
 1258 00b5 756E7369 		.ascii	"unsigned char\000"
 1258      676E6564 
 1258      20636861 
 1258      7200
 1259              	.LASF40:
 1260 00c3 5F5F6675 		.ascii	"__func__.5654\000"
 1260      6E635F5F 
 1260      2E353635 
 1260      3400
 1261              	.LASF23:
 1262 00d1 4E564943 		.ascii	"NVIC_Type\000"
 1262      5F547970 
 1262      6500
 1263              	.LASF8:
 1264 00db 6C6F6E67 		.ascii	"long unsigned int\000"
 1264      20756E73 
 1264      69676E65 
 1264      6420696E 
 1264      7400
 1265              	.LASF4:
 1266 00ed 73686F72 		.ascii	"short unsigned int\000"
 1266      7420756E 
 1266      7369676E 
 1266      65642069 
 1266      6E7400
 1267              	.LASF41:
 1268 0100 6E766963 		.ascii	"nvicClearPending\000"
 1268      436C6561 
 1268      7250656E 
 1268      64696E67 
 1268      00
 1269              	.LASF18:
 1270 0111 52455345 		.ascii	"RESERVED2\000"
 1270      52564544 
 1270      3200
 1271              	.LASF7:
 1272 011b 5F5F7569 		.ascii	"__uint32_t\000"
 1272      6E743332 
 1272      5F7400
 1273              	.LASF15:
 1274 0126 49434552 		.ascii	"ICER\000"
 1274      00
 1275              	.LASF29:
 1276 012b 5343425F 		.ascii	"SCB_Type\000"
 1276      54797065 
 1276      00
 1277              	.LASF0:
 1278 0134 756E7369 		.ascii	"unsigned int\000"
ARM GAS  /tmp/ccd5y8vC.s 			page 38


 1278      676E6564 
 1278      20696E74 
 1278      00
 1279              	.LASF17:
 1280 0141 49535052 		.ascii	"ISPR\000"
 1280      00
 1281              	.LASF10:
 1282 0146 6C6F6E67 		.ascii	"long long unsigned int\000"
 1282      206C6F6E 
 1282      6720756E 
 1282      7369676E 
 1282      65642069 
 1283              	.LASF25:
 1284 015d 49435352 		.ascii	"ICSR\000"
 1284      00
 1285              	.LASF26:
 1286 0162 41495243 		.ascii	"AIRCR\000"
 1286      5200
 1287              	.LASF16:
 1288 0168 52534552 		.ascii	"RSERVED1\000"
 1288      56454431 
 1288      00
 1289              	.LASF36:
 1290 0171 68616E64 		.ascii	"handler\000"
 1290      6C657200 
 1291              	.LASF22:
 1292 0179 73697A65 		.ascii	"sizetype\000"
 1292      74797065 
 1292      00
 1293              	.LASF9:
 1294 0182 6C6F6E67 		.ascii	"long long int\000"
 1294      206C6F6E 
 1294      6720696E 
 1294      7400
 1295              	.LASF24:
 1296 0190 43505549 		.ascii	"CPUID\000"
 1296      4400
 1297              	.LASF30:
 1298 0196 63686172 		.ascii	"char\000"
 1298      00
 1299              	.LASF13:
 1300 019b 49534552 		.ascii	"ISER\000"
 1300      00
 1301              	.LASF11:
 1302 01a0 696E7433 		.ascii	"int32_t\000"
 1302      325F7400 
 1303              	.LASF3:
 1304 01a8 73686F72 		.ascii	"short int\000"
 1304      7420696E 
 1304      7400
 1305              	.LASF12:
 1306 01b2 75696E74 		.ascii	"uint32_t\000"
 1306      33325F74 
 1306      00
 1307              	.LASF5:
 1308 01bb 6C6F6E67 		.ascii	"long int\000"
 1308      20696E74 
ARM GAS  /tmp/ccd5y8vC.s 			page 39


 1308      00
 1309              	.LASF37:
 1310 01c4 474E5520 		.ascii	"GNU C 4.8.2 -mcpu=cortex-m0 -mno-thumb-interwork -m"
 1310      4320342E 
 1310      382E3220 
 1310      2D6D6370 
 1310      753D636F 
 1311 01f7 7468756D 		.ascii	"thumb -ggdb -O2 -fomit-frame-pointer -falign-functi"
 1311      62202D67 
 1311      67646220 
 1311      2D4F3220 
 1311      2D666F6D 
 1312 022a 6F6E733D 		.ascii	"ons=16 -ffunction-sections -fdata-sections -fno-com"
 1312      3136202D 
 1312      6666756E 
 1312      6374696F 
 1312      6E2D7365 
 1313 025d 6D6F6E20 		.ascii	"mon -flto\000"
 1313      2D666C74 
 1313      6F00
 1314              	.LASF34:
 1315 0267 6E766963 		.ascii	"nvicDisableVector\000"
 1315      44697361 
 1315      626C6556 
 1315      6563746F 
 1315      7200
 1316              	.LASF35:
 1317 0279 6E766963 		.ascii	"nvicSetSystemHandlerPriority\000"
 1317      53657453 
 1317      79737465 
 1317      6D48616E 
 1317      646C6572 
 1318              	.LASF31:
 1319 0296 5F426F6F 		.ascii	"_Bool\000"
 1319      6C00
 1320              	.LASF33:
 1321 029c 6E766963 		.ascii	"nvicEnableVector\000"
 1321      456E6162 
 1321      6C655665 
 1321      63746F72 
 1321      00
 1322              		.comm	__gnu_lto_v1,1,1
 1323              		.ident	"GCC: (4.8.2-14ubuntu1+6) 4.8.2"
ARM GAS  /tmp/ccd5y8vC.s 			page 40


DEFINED SYMBOLS
                            *ABS*:0000000000000000 nvic.c
     /tmp/ccd5y8vC.s:255    .text.nvicEnableVector:0000000000000000 $t
     /tmp/ccd5y8vC.s:261    .text.nvicEnableVector:0000000000000000 nvicEnableVector
     /tmp/ccd5y8vC.s:324    .text.nvicEnableVector:0000000000000044 $d
     /tmp/ccd5y8vC.s:329    .text.nvicDisableVector:0000000000000000 $t
     /tmp/ccd5y8vC.s:335    .text.nvicDisableVector:0000000000000000 nvicDisableVector
     /tmp/ccd5y8vC.s:378    .text.nvicDisableVector:0000000000000034 $d
     /tmp/ccd5y8vC.s:383    .text.nvicSetSystemHandlerPriority:0000000000000000 $t
     /tmp/ccd5y8vC.s:389    .text.nvicSetSystemHandlerPriority:0000000000000000 nvicSetSystemHandlerPriority
     /tmp/ccd5y8vC.s:434    .text.nvicSetSystemHandlerPriority:000000000000002c $d
     /tmp/ccd5y8vC.s:439    .text.nvicClearPending:0000000000000000 $t
     /tmp/ccd5y8vC.s:445    .text.nvicClearPending:0000000000000000 nvicClearPending
     /tmp/ccd5y8vC.s:468    .text.nvicClearPending:0000000000000018 $d
                            *COM*:0000000000000001 __gnu_lto_v1
                     .debug_frame:0000000000000010 $d
     /tmp/ccd5y8vC.s:328    .text.nvicEnableVector:0000000000000048 $t
     /tmp/ccd5y8vC.s:382    .text.nvicDisableVector:0000000000000038 $t
     /tmp/ccd5y8vC.s:472    .text.nvicClearPending:000000000000001c $t

NO UNDEFINED SYMBOLS
