ARM GAS  /tmp/cc3ukR0Z.s 			page 1


   1              		.cpu cortex-m0
   2              		.fpu softvfp
   3              		.eabi_attribute 20, 1
   4              		.eabi_attribute 21, 1
   5              		.eabi_attribute 23, 3
   6              		.eabi_attribute 24, 1
   7              		.eabi_attribute 25, 1
   8              		.eabi_attribute 26, 1
   9              		.eabi_attribute 30, 2
  10              		.eabi_attribute 34, 0
  11              		.eabi_attribute 18, 4
  12              		.code	16
  13              		.file	"osal.c"
  14              		.text
  15              	.Ltext0:
  16              		.section	.gnu.lto_.jmpfuncs.e5231b4c852126c4,"",%progbits
  17 0000 789C6362 		.ascii	"x\234cb`b\300\006\244\2404\023\0033P\0013\003\003c\031"
  17      6062C006 
  17      A4A03413 
  17      03335001 
  17      33030363 
  18 0015 9083C466 		.ascii	"\220\203\304f\000\000\0172\001!"
  18      00000F32 
  18      0121
  19              		.text
  20              		.section	.gnu.lto_.inline.e5231b4c852126c4,"",%progbits
  21 0000 789C6362 		.ascii	"x\234cb`b\300\006\246Ci\240\254\200\024#\013Cr\004c"
  21      6062C006 
  21      A64369A0 
  21      AC801423 
  21      0B437204 
  22 0015 262390CF 		.ascii	"&#\220\317\314\300\220\206`\202(\020\301\314\300\001"
  22      CCC09086 
  22      60822810 
  22      C1CCC001 
  23 0025 64B02D90 		.ascii	"d\260-\220gb`|\301\256\300\304\300\332\241\256\300\300"
  23      6762607C 
  23      C1AEC0C4 
  23      C0DAA1AE 
  23      C0C0
  24 0037 79EA3750 		.ascii	"y\3527P'\343;&\005\026&\006\346S\034\012`\016\013\330"
  24      27E33B26 
  24      05162606 
  24      E6531C0A 
  24      600E0BD8 
  25 004b 42661E06 		.ascii	"Bf\036\006\026\006\246\011~\023\374\230\030\370\317"
  25      1606A609 
  25      7E13FC98 
  25      18F8CF
  26 005a 30303221 		.ascii	"002!\231\305\302\177\346);\003{\207:\3304\016\010\011"
  26      99C5C27F 
  26      E6293B03 
  26      7B873AD8 
  26      340E0809 
  27 006e D1C408D1 		.ascii	"\321\304\010\321\303\000\000h\245\023\257"
  27      C3000068 
  27      A513AF
ARM GAS  /tmp/cc3ukR0Z.s 			page 2


  28              		.text
  29              		.section	.gnu.lto_.pureconst.e5231b4c852126c4,"",%progbits
  30 0000 789C6362 		.ascii	"x\234cb`b`e\200\000&\006)&)\000\001\010\000B"
  30      60626065 
  30      80002606 
  30      29262900 
  30      01080042 
  31              		.text
  32              		.section	.gnu.lto_osalThreadDequeueNextI.e5231b4c852126c4,"",%progbits
  33 0000 789C8553 		.ascii	"x\234\205SKkSA\024\376\316\314}5\246\251\0207\212\213"
  33      4B6B5341 
  33      14FECECC 
  33      7D35A6A9 
  33      10378A8B 
  34 0014 50418A85 		.ascii	"PA\212\205\024\027\342\302_\340\276\001\305\205$\021"
  34      1417E2C2 
  34      5FE0BE01 
  34      C5852411 
  35 0024 E205A385 		.ascii	"\342\005\243\205\270s\321\311\243PP0\024\027A\027m-"
  35      B873D1C9 
  35      A3505030 
  35      14174117 
  35      6D2D
  36 0036 228828E2 		.ascii	"\"\210(\342V0V\321\270\210\245\273\264\033CA\304\235"
  36      563056D1 
  36      B888A5BB 
  36      B41B4341 
  36      C49D
  37 0048 E0A614F4 		.ascii	"\340\246\024\364z\346\316\275\267\217M\206d\036\347"
  37      7AE6CEBD 
  37      B78F4D86 
  37      641EE7
  38 0057 F19DEF7C 		.ascii	"\361\235\357|3W@\340\350(\360\377\271\004\246x%\017"
  38      335740E0 
  38      E828F0FF 
  38      B904A678 
  38      250F
  39 0069 24DADF80 		.ascii	"$\332\337\200\272'\204\334<\015\225r\336\237\207JKr"
  39      BA2784DC 
  39      3C0D9572 
  39      DE9F874A 
  39      4B72
  40 007b B5995C61 		.ascii	"\265\231\\a\265\\\266\332\017\276\200\315\0269&\332"
  40      B55CB6DA 
  40      0FBE80CD 
  40      163926DA 
  41 008b 36FE0F9E 		.ascii	"6\376\017\236C\2447 \314\013\351Z\266C\363WI\227\021"
  41      43A43720 
  41      CC0BE95A 
  41      B643F357 
  41      499711
  42 009e 9358556A 		.ascii	"\223XUji\270\260\374\350\244Zi\264\325\277  \237\230"
  42      69B8B0FC 
  42      E8A45A69 
  42      B4D5BF20 
  42      209F98
  43 00b1 D0194299 		.ascii	"\320\031B\231p\205\017\224\013\027a\035fh2\273\301\337"
ARM GAS  /tmp/cc3ukR0Z.s 			page 3


  43      70850F94 
  43      0B17611D 
  43      666832BB 
  43      C1DF
  44 00c3 1EA92555 		.ascii	"\036\251%U\377\035\004\023>I\201\263\243\022_\213\356"
  44      FF1D0413 
  44      3E4981B3 
  44      A3125F8B 
  44      EE
  45 00d4 3008DE6D 		.ascii	"0\010\336m,\177>E\023\204\"\255\321$$U\011\026\037V"
  45      2C7F3E45 
  45      138422AD 
  45      D1242455 
  45      09161F56 
  46 00e8 F9E0C027 		.ascii	"\371\340\300'\313\215<\036\0370\246-)=\2459\2202\221"
  46      CB8D3C1E 
  46      1F30A62D 
  46      293DA539 
  46      903291
  47 00fb 8F878D96 		.ascii	"\217\207\215\226R\355\234I\254\022+Y\016;\233\345\271"
  47      52ED9C49 
  47      AC122B59 
  47      0E3B9BE5 
  47      B9
  48 010c 9345812D 		.ascii	"\223E\201-\235\254\354\243\261\327\374\363Q\024\351"
  48      9DACECA3 
  48      B1D7FCF3 
  48      5114E9
  49 011b 19D9A890 		.ascii	"\031\331\250\220u\017{\212\3075\306\236\306\013\275"
  49      750F7B8A 
  49      C735C69E 
  49      C60BBD
  50 012a ADF9643F 		.ascii	"\255\371d?\301c&\354THj\342nH\267D\007\270\177E\243"
  50      C16326EC 
  50      54486AE2 
  50      6E48B744 
  50      07B87F45 
  51 013f 3B65404C 		.ascii	";e@LE\206\002\372X\337\036|\2271\270\243\021[\014\340"
  51      458602FA 
  51      58DF1E7C 
  51      9731B8A3 
  51      115B0CE0 
  52 0153 4DE3DC08 		.ascii	"M\343\334\010\324\022\305\360=|\372Q\037O0t\350!\341"
  52      D412C5F0 
  52      3D7CFA51 
  52      1F4F3074 
  52      E821E1
  53 0166 0A24D172 		.ascii	"\012$\321r\371Il\301\325\354\027U7x\303Ac\021\377\353"
  53      F9496CC1 
  53      D5EC1755 
  53      3778C341 
  53      6311FFEB 
  54 017a 3EA5AA24 		.ascii	">\245\252$K\224<&\261+u\232\013\276{b\346\036\"\331"
  54      4B943C26 
  54      B12B759A 
  54      0BBE7B62 
  54      E61E22D9 
ARM GAS  /tmp/cc3ukR0Z.s 			page 4


  55 018e 2ABA284B 		.ascii	"*\272(K\262=\330\351\211D@#\250!\300\243\022\321\217"
  55      B23DD8E9 
  55      89444023 
  55      A821C0A3 
  55      12D18F
  56 01a1 F5B9E4D3 		.ascii	"\365\271\344\3231\323I\232\3635=\031u\020\257\326~'"
  56      31D3499A 
  56      F3353D19 
  56      7510AFD6 
  56      7E27
  57 01b3 3FEB178A 		.ascii	"?\353\027\212\364*\354\304\253\354\367\261\005\252\220"
  57      F42AECC4 
  57      ABECF7B1 
  57      05AA90
  58 01c2 2B79CAD8 		.ascii	"+y\312\330/\337\336\320\354,\335\224\026pwg@q\316X\242"
  58      2FDFDED0 
  58      EC2CDD94 
  58      16707767 
  58      4071CE58 
  59 01d7 A0A96847 		.ascii	"\240\251hG\332\035\325\254\217\346b\363i\222\226\342"
  59      DA1DD5AC 
  59      8FE662F3 
  59      699296E2 
  60 01e7 4C1DE651 		.ascii	"L\035\346Q\350[\277l\034!X]]\034\001\307\371\300\006"
  60      E85BBF6C 
  60      1C21585D 
  60      5D1C01C7 
  60      F9C006
  61 01fa 16860FD7 		.ascii	"\026\206\017\327\034\223\010\030\241\217\3734^N\242"
  61      1C930818 
  61      A18FFB34 
  61      5E4EA2
  62 0209 987DDAE7 		.ascii	"\230}\332\347'\030\335\212\015\376\352\270\203\346\375"
  62      2718DD8A 
  62      0DFEEAB8 
  62      83E6FD
  63 0218 E6AF74CC 		.ascii	"\346\257t\314$\023I$N\204\217F\030{\254~\222\353\350"
  63      24134924 
  63      4E848F46 
  63      187BAC7E 
  63      92EBE8
  64 022b B7B989FA 		.ascii	"\267\271\211\372JG\306\025\315\230\345j\235\254\276"
  64      4A47C615 
  64      CD98E56A 
  64      9DACBE
  65 023a C95C3E3F 		.ascii	"\311\\>?c~wj37\213\267x\341\351\266o6\3712DmN\334\235"
  65      637E776A 
  65      33378BB7 
  65      78E1E9B6 
  65      6F36F932 
  66 0253 FB0FC34E 		.ascii	"\373\017\303N\330B"
  66      D842
  67              		.text
  68              		.section	.gnu.lto_osalThreadDequeueAllI.e5231b4c852126c4,"",%progbits
  69 0000 789C8D53 		.ascii	"x\234\215S\315KTQ\024?\277{\337\307|<?\2026E\213A!*"
  69      CD4B5451 
  69      143FBF7B 
ARM GAS  /tmp/cc3ukR0Z.s 			page 5


  69      DFC77C3C 
  69      3F823645 
  70 0018 437165FF 		.ascii	"Cqe\377B{\245\242\3258\213\347\2034Aw-|\343\214$d\""
  70      427BA5A2 
  70      D5388BE7 
  70      83344177 
  70      2D7CE38C 
  71 002f 4560B551 		.ascii	"E`\265QD\202\010Z\026\270yV\370\001Y\264K!\0300\011"
  71      4482085A 
  71      16B87956 
  71      F80159B4 
  71      4B211830 
  72 0044 37192561 		.ascii	"7\031%afM\347\276{\237\215.\262\313\314;\367\236w\316"
  72      664DE7BE 
  72      7B9F8D2E 
  72      B2CBCC3B 
  72      F79E77CE 
  73 0058 EFFC7EE7 		.ascii	"\357\374~\347\236'H\320\341u\211\377\027-\242\363l\221"
  73      9E2748D0 
  73      E17589FF 
  73      172DA2F3 
  73      6C91
  74 006a 22888937 		.ascii	"\"\210\2117D\305\224\200\2437RXS6\205\031\373\313\022"
  74      44C59480 
  74      A3375258 
  74      53368519 
  74      FBCB12
  75 007d 51E859B0 		.ascii	"Q\350Y\260\265\337\326\001\363)G\310\261E~\225q\313"
  75      B5DFD601 
  75      F32947C8 
  75      B1457E95 
  75      71CB
  76 008f 2E07B880 		.ascii	".\007\270\200\362\023hHH\313v\\\014]\201*$\233h:\014"
  76      F2136848 
  76      48CB765C 
  76      0C5D812A 
  76      249B683A 
  77 00a4 EF54363E 		.ascii	"\357T6>G\342~\030\225\247\302\275j\025\010\300\244\232"
  77      47E27E18 
  77      95A7C2BD 
  77      6A1508C0 
  77      A49A
  78 00b6 4105D065 		.ascii	"A\005\320e> \027\033a\035d\251s\243\037\013\343'\302"
  78      3E20171B 
  78      611D64A9 
  78      73A31F0B 
  78      E327C2
  79 00c9 A9E189F0 		.ascii	"\251\341\211\3607\247\006\220\202N\377W\346D\364sa\254"
  79      37A70690 
  79      824EFF57 
  79      E644F473 
  79      61AC
  80 00db 36D31274 		.ascii	"6\323\022t\366\250\314\247\"\252T\253O\236m\257o\342"
  80      F6A8CCA7 
  80      22AA54AB 
  80      4F9E6DAF 
  80      6FE2
ARM GAS  /tmp/cc3ukR0Z.s 			page 6


  81 00ed 5823288F 		.ascii	"X#(\217\03141\331<f\331Jc\035\364\202\\>L\363!m\234"
  81      193431D9 
  81      3C66D94A 
  81      631DF482 
  81      5C3E4CF3 
  82 0104 5962599E 		.ascii	"YbY\2369\324q\004\032L:/\233\312\314(\2473\264W\007"
  82      39D47104 
  82      1A4C3A2F 
  82      9BCACC28 
  82      A733B457 
  83 0119 F682AFA7 		.ascii	"\366\202\257\247\0207\253\223\237\334\316.\366\224]"
  83      1037AB93 
  83      9FDCCE2E 
  83      F6945D
  84 0128 B942C3BB 		.ascii	"\271B\303\273\245\255\333g\362x\004\233|\2707h7\344"
  84      A5ADDB67 
  84      F278049B 
  84      7CB83768 
  84      37E4
  85 013a 7595ABB4 		.ascii	"u\225\253\264\320c\265\035\010`?\244\007,\303\361\341"
  85      D063B51D 
  85      08603FA4 
  85      072CC3F1 
  85      E1
  86 014b 28396E2C 		.ascii	"(9n,\242\0335\212\226i82 \272\272\257\242V\350\305\332"
  86      A21B358A 
  86      96693832 
  86      20BABAAF 
  86      A256E8C5 
  87 0160 CED68504 		.ascii	"\316\326\205\004<\255\020\313\305\260#@J#\332\006\221"
  87      3CAD10CB 
  87      C5B02340 
  87      4A23DA06 
  87      91
  88 0171 0C226AE0 		.ascii	"\014\"j\340\334\004n6\206K\307p\317'\277\276\207~a\300"
  88      DC046E36 
  88      864BC770 
  88      CF27BFBE 
  88      877E61C0 
  89 0185 B2478029 		.ascii	"\262G\200)O\332`V\226_\"AU\315QbG\303\260=@\306\210"
  89      4FDA6056 
  89      965F2241 
  89      55CD5162 
  89      47C3B03D 
  90 019c 656AD95E 		.ascii	"ej\331^\310n\034\032\347.H\342YT\375Z\233\374\276\203"
  90      C86E1C1A 
  90      E72E48E2 
  90      5954FD5A 
  90      9BFCBE83 
  91 01b0 4452B685 		.ascii	"DR\266\205\316\375m\025g{\232K\235\017\250\312\322p"
  91      CEFD6D15 
  91      677B9A4B 
  91      9D0FA8CA 
  91      D270
  92 01c2 496C3208 		.ascii	"Il2\010K\364\352S\261}\037\3057=5\265,\372hq\251\322"
  92      4BF4EA53 
  92      B17D1FC5 
ARM GAS  /tmp/cc3ukR0Z.s 			page 7


  92      373D35B5 
  92      2CFA6871 
  93 01d8 68E9DBF8 		.ascii	"h\351\333\370\311$\310\363!\025\244\205X\2148\330\036"
  93      C924C8F3 
  93      2115A485 
  93      588C38D8 
  93      1E
  94 01e9 8FE82D8D 		.ascii	"\217\350-\215T>\254\033jd\3045\006\250/\230V0'\037u"
  94      543EAC1B 
  94      6A64C435 
  94      06A82F98 
  94      5630271F 
  95 01fe 014F8CA9 		.ascii	"\001O\214\251c\307\232\2701)\332\007\022\252\317\245"
  95      63C79AB8 
  95      3129DA07 
  95      12AACFA5 
  96 020e 5BA55FF5 		.ascii	"[\245_\365I\341\006\243E\034?Xx&\216\217\301VI0;\311"
  96      49E106A3 
  96      451C3F58 
  96      78268E8F 
  96      C1564930 
  97 0224 F09EF57A 		.ascii	"\360\236\365z\256Ga;\304\037\353!l\031\337B\354\320"
  97      AE47613B 
  97      C41FEB21 
  97      6C19DF42 
  97      ECD0
  98 0236 C9883BB1 		.ascii	"\311\210;\2611\177o\321K\252\311\375\013\323k\225\240"
  98      317F6FD1 
  98      4BAAC9FD 
  98      0BD36B95 
  98      A0
  99 0247 9544776F 		.ascii	"\225Dwoz\377\272(\321\303d\354\275\271S\253$y\\\304"
  99      7AFFBA28 
  99      D1C364EC 
  99      BDB953AB 
  99      24795CC4 
 100 025b 76078BB1 		.ascii	"v\007\213\261\241\270\270j\324\337Q\261\262\331\234"
 100      A1B8B86A 
 100      D4DF51B1 
 100      B2D99C
 101 026a 7447AF4E 		.ascii	"tG\257NfPv\025D\256\265\265M\377\256\017\264\365\344"
 101      66507615 
 101      44AEB5B5 
 101      4DFFAE0F 
 101      B4F5E4
 102 027d AFB1E147 		.ascii	"\257\261\341G_\2407\255\005\022\003\375b\260_\026\372"
 102      5FA037AD 
 102      051203FD 
 102      62B05F16 
 102      FA
 103 028e 06FF00B5 		.ascii	"\006\377\000\265H\010n"
 103      48086E
 104              		.text
 105              		.section	.gnu.lto_.symbol_nodes.e5231b4c852126c4,"",%progbits
 106 0000 789C6362 		.ascii	"x\234cb`bpe\200\002\246G\014\365\014\014\023\31610\324"
 106      60627065 
 106      8002A647 
ARM GAS  /tmp/cc3ukR0Z.s 			page 8


 106      0CF50C0C 
 106      13CE3130 
 107 0015 D7CFEB60 		.ascii	"\327\317\353`d}\002\024\253g`z\314P\317\210\020e|\312"
 107      647D0214 
 107      AB67607A 
 107      CC50CF88 
 107      10657CCA 
 108 0029 50CF04E1 		.ascii	"P\317\004\3416402303\034n{\317\312\314\004\242\337H"
 108      36343032 
 108      3330331C 
 108      6E7BCFCA 
 108      CC04A2DF 
 109 003e 310000D0 		.ascii	"1\000\000\320\231\024_"
 109      99145F
 110              		.text
 111              		.section	.gnu.lto_.refs.e5231b4c852126c4,"",%progbits
 112 0000 789C6362 		.ascii	"x\234cb`b\340d\200\000F\006&FF&&F\006\000\0010\000\030"
 112      6062E064 
 112      80004606 
 112      26464626 
 112      26460600 
 113              		.text
 114              		.section	.gnu.lto_.decls.e5231b4c852126c4,"",%progbits
 115 0000 789CBD59 		.ascii	"x\234\275Y}l\034\305\025\237\231\373\36096I\010M\352"
 115      7D6C1CC5 
 115      159F99FB 
 115      F0393649 
 115      084DEA
 116 0013 AA8A622A 		.ascii	"\252\212b*\202\012\224\034iKb\244\002BA\"\221\012\252"
 116      820A941C 
 116      694B62A4 
 116      02424122 
 116      910AAA
 117 0026 2848FCB7 		.ascii	"(H\374\267\335^6\234\305\335\371\330\333\203\344/\346"
 117      DD5E369C 
 117      C5DDF9D8 
 117      DB83E42F 
 117      E6
 118 0037 6C134AAA 		.ascii	"l\023J\252&\256KjGml\247\304\245.!_\216Ih\010]Bl\034"
 118      26AE4B6A 
 118      476D6CA7 
 118      C4A52E21 
 118      5F8E4968 
 119 0050 278D6D15 		.ascii	"'\215m\0257\011\0208\034\032\324\376\0257\010\007\201"
 119      37091038 
 119      1C1AD4FE 
 119      15370807 
 119      81
 120 0061 70DFCCCE 		.ascii	"p\337\314\316\336\355\256w}{\027\332\225gwv\347\275"
 120      DEEDAE77 
 120      7D7B17DA 
 120      95677776 
 120      E7BD
 121 0073 DFFB98F7 		.ascii	"\337\373\230\367\346\315\234\011\"\350\307\030\241\031"
 121      E6CD9C09 
 121      22E8C718 
 121      A119
ARM GAS  /tmp/cc3ukR0Z.s 			page 9


 122 0081 B86EF936 		.ascii	"\270n\3716B\313\002\010\301\037\272\007\032|Fad\\\354"
 122      42CB0208 
 122      C11FBA07 
 122      1A7C4661 
 122      645CEC
 123 0094 DB2E6827 		.ascii	"\333.h'\241\235\021c\337\305\310v\261\361\005\254\301"
 123      A19D1163 
 123      DFC5C876 
 123      B1F105AC 
 123      C1
 124 00a5 F7F9F0AC 		.ascii	"\367\371\360\254\2056&0\366@\353\205\266\033Z?\264\037"
 124      85362630 
 124      F640EB85 
 124      B61B5A3F 
 124      B41F
 125 00b7 014D03B4 		.ascii	"\001M\003\264\000\264qx\277\033\236\243\360\014A{\031"
 125      00B47178 
 125      BF1B9EA3 
 125      F00C417B 
 125      19
 126 00c8 DA4168AB 		.ascii	"\332Ah\253\341\033aX\354)\360\231\354 \264\023\320\206"
 126      E11B6158 
 126      EC29F099 
 126      EC20B413 
 126      D086
 127 00da 989E78B6 		.ascii	"\230\236x\266\036L\307\205.z\014\270\350\021\256P\027"
 127      1E4CC785 
 127      2E7A0CB8 
 127      E811AE50 
 127      17
 128 00eb D30F4C97 		.ascii	"\323\017L\227S\320NC[\353\242\3132\324E{\362\371\177"
 128      53D04E43 
 128      5BEBA2CB 
 128      32D4457B 
 128      F2F97F
 129 00fe 769DC2B4 		.ascii	"v\235\302\264\235~93\023@K\320v\012W\317fJ\261&\343"
 129      9D7E3933 
 129      13404BD0 
 129      760A57CF 
 129      664AB126 
 130 0113 7B16A3C7 		.ascii	"{\026\243\307\260\214\347W\243z\336\251\255\346\240"
 130      B08CE757 
 130      A37ADEA9 
 130      ADE6A0
 131 0122 08C9F80F 		.ascii	"\010\311\370\017x\211p>\023\211j\320\026J\233\031\343"
 131      7889703E 
 131      13896AD0 
 131      164A9B19 
 131      E3
 132 0133 DAE1F98B 		.ascii	"\332\341\371\213\320\2579Jx\030Lt\003X\216vS\332\226"
 132      D0AF394A 
 132      78184C74 
 132      03588E76 
 132      53DA96
 133 0146 EF18E80A 		.ascii	"\357\030\350\012P\032\221q/^\0040\367ct+\352\003\306"
 133      501A9171 
 133      2F5E0430 
ARM GAS  /tmp/cc3ukR0Z.s 			page 10


 133      F763742B 
 133      EA03C6
 134 0159 3680BACD 		.ascii	"6\200\272\315\241,\277J\0023\315\372\000L\306\177\302"
 134      A12CBF4A 
 134      0233CDFA 
 134      004CC67F 
 134      C2
 135 016a B71A62A8 		.ascii	"\267\032b\250\3361ZK\203\306w$F\\\256\033Q\017#\336"
 135      DE315A4B 
 135      83C67724 
 135      465CAE1B 
 135      510F23DE 
 136 017e 31FAC2B7 		.ascii	"1\372\302\267h\317q\354\327\206\351\241\217?\301-\340"
 136      68CF71EC 
 136      D786E9A1 
 136      8F3FC12D 
 136      E0
 137 018f 2E19EFE1 		.ascii	".\031\357\341Vl\3026\031%q\010z\0263\226}N\265wvs\265"
 137      566CC236 
 137      19257108 
 137      7A163396 
 137      7D4EB577 
 138 01a6 F79556BB 		.ascii	"\367\225V\2735\247w\177\370[\256v5\372\005\24591\017"
 138      35A7777F 
 138      F85BAE76 
 138      35FA05A5 
 138      39310F
 139 01b9 732A7E76 		.ascii	"s*~vdh\234+\316Y\350\234,2>\204\227\303=\\]P\204\215"
 139      64689C2B 
 139      CE59E89C 
 139      2C323E84 
 139      97C33D5C 
 140 01d1 C22BE3BC 		.ascii	"\302+\343\274\312\022\024?#\276\260\227*f\326il\367"
 140      CA12143F 
 140      23BEB097 
 140      2A66D669 
 140      6CF7
 141 01e3 840F3942 		.ascii	"\204\0179B\265\2113'\016\340f\356\323\303\240\036A\227"
 141      B5893327 
 141      0EE066EE 
 141      D3C3A01E 
 141      4197
 142 01f5 2B869A1A 		.ascii	"+\206\232\032=\334\300C\354/\034\350\217\304\016\304"
 142      3DDCC043 
 142      EC2F1CE8 
 142      8FC40EC4 
 143 0205 35B65C65 		.ascii	"5\266\\e\231\370\377\346#h?1#\305\315d\3215.A0\307e"
 143      99F8FFE6 
 143      23683F31 
 143      23C5CD64 
 143      D1352E41 
 144 021c 0D39191F 		.ascii	"\0159\031\037\340\023|\020\337X$ \350\020\227\327\367"
 144      E0137C10 
 144      DF582420 
 144      E81097D7 
 144      F7
 145 022d 75C9EBB3 		.ascii	"u\311\353\263\310\3733\227\367\262U\236WB\357\3065&"
ARM GAS  /tmp/cc3ukR0Z.s 			page 11


 145      C8FB3397 
 145      F7B2559E 
 145      5742EFC6 
 145      3526
 146 023f 89586DFC 		.ascii	"\211Xm\374\317\377\331\221\023\343\"=u\036\001GfE\000"
 146      CFFFD991 
 146      13E3223D 
 146      751E0147 
 146      664500
 147 0252 0BB16B98 		.ascii	"\013\261k\230J\031?\032\260\270\354\015\007\376M\350"
 147      4A193F1A 
 147      B0B8EC0D 
 147      07FE4DE8 
 148 0262 454ADB61 		.ascii	"EJ\333a\221\335\007\371I\014c\010\232\340T\273\3602"
 148      91DD07F9 
 148      490C6308 
 148      9AE054BB 
 148      F032
 149 0274 8F74E326 		.ascii	"\217t\343&s\3266zEYk*\177\276\004\233n\230r3\352e\032"
 149      73D6367A 
 149      45596B2A 
 149      7FBE049B 
 149      6E987233 
 150 028b FF8A3EBB 		.ascii	"\377\212>\273\020\363E\034\011.\233\231oab\375`T\003"
 150      10F3451C 
 150      092E9B99 
 150      6F6162FD 
 150      605403
 151 029e FDD3A1DA 		.ascii	"\375\323\241\332\266\\~ff\231\261\304\023t\301\325 "
 151      B65C7E66 
 151      6699B1C4 
 151      1374C1D5 
 151      20
 152 02af 7A9469C5 		.ascii	"z\224i\305\324\224\361 \000\311\370\244/c\246Lcd\374"
 152      D494F120 
 152      00C9F8A4 
 152      2F63A64C 
 152      6364FC
 153 02c2 7609B6B9 		.ascii	"v\011\266\271\2149\3514fd\2661y\2668O\177o\347A\332"
 153      8C39E934 
 153      6664B631 
 153      79B6384F 
 153      7F6FE741 
 154 02d7 FA3CFD6A 		.ascii	"\372<\375j\346\031l+nn\005\253\336\022L=\330\324\346"
 154      E6196C2B 
 154      6E6E05AB 
 154      DE124C3D 
 154      D8D4E6
 155 02ea 1B8568D2 		.ascii	"\033\205h\322\257|\260\224-\311\343|\241\277B\\Wzo\020"
 155      AF7CB094 
 155      2DC9E37C 
 155      A1BF425C 
 155      577A6F10 
 156 02fe 82BEE42C 		.ascii	"\202\276\344,\3578W\372\003\223:\346\213\324;\276JT"
 156      EF3857FA 
 156      03933AE6 
 156      8BD43BBE 
ARM GAS  /tmp/cc3ukR0Z.s 			page 12


 156      4A54
 157 0310 FFE47060 		.ascii	"\377\344p`\007\325[\003>j\313s\001&\361\234Cb\376\374"
 157      07D55B03 
 157      3E6ACB73 
 157      0126F19C 
 157      4362FEFC 
 158 0324 BBA79B71 		.ascii	"\273\247\233q\216\247\3059\0372\233\365\201\221\016"
 158      8EA7C539 
 158      1F329BF5 
 158      81910E
 159 0333 5E5F4ABA 		.ascii	"^_J\272\215\230\362o2\322\201\313\277\340\224?\360\301"
 159      8D98F26F 
 159      32D281CB 
 159      BFE0943F 
 159      F0C1
 160 0345 608B907F 		.ascii	"`\213\220\177\301\227\374\035g^\230-\337s\203\"\222"
 160      C197FC1D 
 160      675E982D 
 160      DF738322 
 160      92
 161 0356 FFFCBB97 		.ascii	"\377\374\273\227\246\204\224\217x\332]\0158\223\377"
 161      A684948F 
 161      78DA5D0D 
 161      3893FF
 162 0365 DE1AAB30 		.ascii	"\336\032\2530\376n! (\0274\365/s\0054\364\006C\207~"
 162      FE6E2120 
 162      281734F5 
 162      2F730534 
 162      F4064387 
 163 037a 83DB5BE8 		.ascii	"\203\333[\350\360\035\246\016\255e#\326\333<\361\373"
 163      F01DA60E 
 163      AD6523D6 
 163      DB3CF1FB 
 164 038a 33B56DB2 		.ascii	"3\265m\262\011\366\234\037\260\210\247zz\227\025\354"
 164      09F69C1F 
 164      B088A77A 
 164      7A9715EC 
 165 039a 976583D9 		.ascii	"\227e\203\3315\333o\005\333\346\007l\241\267f\007\255"
 165      35DB6F05 
 165      DBE6076C 
 165      A1B76607 
 165      AD
 166 03ab 60ED6583 		.ascii	"`\355e\203\3315;d\005\333\356\007\254\316[\263W\255"
 166      D9353B64 
 166      05DBEE07 
 166      ACCE5BB3 
 166      57AD
 167 03bd 609D6583 		.ascii	"`\235e\203\3315;b\005\373\235\037\260z\027\315\012\227"
 167      D9353B62 
 167      05FB9D1F 
 167      B07A17CD 
 167      0A97
 168 03cf 57097DBF 		.ascii	"W\011}\277XB\011\352\012\232kB\245U\235\240]As%\253"
 168      584209EA 
 168      0A9A6B42 
 168      A5559DA0 
 168      5D417325 
ARM GAS  /tmp/cc3ukR0Z.s 			page 13


 169 03e4 2C2FA637 		.ascii	",/\2467\377\255\356\265\275\224\266\204y-o\246\371^"
 169      FFADEEB5 
 169      BD94B684 
 169      792D6FA6 
 169      F95E
 170 03f6 5AD7595C 		.ascii	"Z\327Y\\G\"&\006;\006\024j\371\033w\363e\362*/\206\275"
 170      47222606 
 170      3B06146A 
 170      F91B77F3 
 170      65F22A2F 
 171 040c 41974DA1 		.ascii	"A\227M\241/\240\211\255\257\334\306\201\276\340@{+\006"
 171      2FA089AD 
 171      AFDCC681 
 171      BEE0407B 
 171      2B06
 172 041e 9ADAD665 		.ascii	"\232\332\326e\354.\277\342@\257\006\235\313\213sk\201"
 172      EC2EBFE2 
 172      40AF069D 
 172      CB8B736B 
 172      81
 173 042f ED5B0B3E 		.ascii	"\355[\013>,:3\366\003\317\327JK\220\356\234/\2339\245"
 173      2C3A33F6 
 173      03CFD74A 
 173      4B90EE9C 
 173      2F9B39A5 
 174 0443 561D0A95 		.ascii	"V\035\012\225\364l\335v\266\214\335\200\332K\037\301"
 174      F46CDD76 
 174      B68CDD80 
 174      DA4B1FC1 
 175 0453 5AC80DF6 		.ascii	"Z\310\015\366\012wt\262\216\025N\366\275t};f\3267\373"
 175      0A7774B2 
 175      8E154EF6 
 175      BD747D3B 
 175      66D637FB 
 176 0467 4E813157 		.ascii	"N\2011W\024l\372_'\307L\300{Y\236\015qgT\216769\014"
 176      146CFA5F 
 176      27C74CC0 
 176      7B599E0D 
 176      7167548E 
 177 047f 27E65A5B 		.ascii	"'\346Z[-r\024\246q\217\314\020\033\211\216\311<\341"
 177      2D7214A6 
 177      718FCC10 
 177      1B898EC9 
 177      3CE1
 178 0491 81B38530 		.ascii	"\201\263\2050\205\206g\005\316\030v\024\2461l\253L^"
 178      85866705 
 178      CE187614 
 178      A6316CAB 
 178      4C5E
 179 04a3 9E7F9E58 		.ascii	"\236\177\236X\022\375\275k\264s\302\364\233\303\270"
 179      12FDBD6B 
 179      B473C2F4 
 179      9BC3B8
 180 04b2 3D1EC631 		.ascii	"=\036\3061\005\266Y\025\370\360\032\025x\317\214\004"
 180      05B65915 
 180      F8F01A15 
 180      78CF8C04 
ARM GAS  /tmp/cc3ukR0Z.s 			page 14


 181 04c2 9192BE36 		.ascii	"\221\222\2766\374\203\346\206\277\235\260\244\374\330"
 181      FC83E686 
 181      BF9DB0A4 
 181      FCD8
 182 04d0 3DBBFD1C 		.ascii	"=\273\375\034C\267\016\276)\216\241\3339\324\345\212"
 182      43B70EBE 
 182      298EA1DB 
 182      39D4E58A 
 183 04e0 A1A6B6BD 		.ascii	"\241\246\266\275~\027\237\357N\016\364\371\254\371\256"
 183      7E179FEF 
 183      4E0EF4F9 
 183      ACF9AE
 184 04ef 722C1455 		.ascii	"r,\024U\366\204\256\252.v\330\321c\001\372\037\223\303"
 184      F684AEAA 
 184      2E76D8D1 
 184      6301FA1F 
 184      93C3
 185 0501 3E2554E1 		.ascii	">%T\341\334\025.\330Q\204|T\011\257\355IkK\376\263\315"
 185      DC152ED8 
 185      51847C54 
 185      09AFED49 
 185      6B4BFEB3 
 186 0516 EFD715E7 		.ascii	"\357\327\025\347\277\305\207\247\365\361\256\3054\350"
 186      BFC587A7 
 186      F5F1AEC5 
 186      34E8
 187 0524 636264DC 		.ascii	"cbd\334M\226\373t\305\326\220s\272X<\224\355\321\316"
 187      4D96FB74 
 187      C5D69073 
 187      BA583C94 
 187      EDD1CE
 188 0537 B2BD516F 		.ascii	"\262\275Qo\313\206\351\342\272h\204v\217\037@\267=\226"
 188      CB86E9E2 
 188      BA688476 
 188      8F1F40B7 
 188      3D96
 189 0549 DB653D97 		.ascii	"\333e=\227\310\370\037\374x~\026\216\3472\236\346\367"
 189      C8F81FFC 
 189      787E168E 
 189      E7329EE6 
 189      F7
 190 055a 66C2EE3B 		.ascii	"f\302\356;\371\375E\342\343\330\356s\305\032\265\377"
 190      F9FD45E2 
 190      E3D8EE73 
 190      C51AB5FF 
 191 056a 9068F015 		.ascii	"\220h\360\025^\304!\320q\310~\3111!\246\005/\021\333"
 191      5EC421D0 
 191      71C87EC9 
 191      3121A605 
 191      2F11DB
 192 057d 29F03B68 		.ascii	")\360;h\027\234\002\365\356\376\177\221\034=\336J\331"
 192      179C02F5 
 192      EEFE7F91 
 192      1C3DDE4A 
 192      D9
 193 058e 6F9C18BB 		.ascii	"o\234\030\273\234Zh\330\324\352g\305H\352\276x\316\370"
 193      9C5A68D8 
ARM GAS  /tmp/cc3ukR0Z.s 			page 15


 193      D4EA67C5 
 193      48EABE78 
 193      CEF8
 194 05a0 75B28FB0 		.ascii	"u\262\217\260\343^\277CfI\030(\272\234e\017q\034\367"
 194      E35EBF43 
 194      66491828 
 194      BA9C650F 
 194      711CF7
 195 05b3 8E5D14C7 		.ascii	"\216]\024\307=6R\372\3503q\261P\275\306\3706\361T\001"
 195      3D3652FA 
 195      E83371B1 
 195      50BDC6F8 
 195      36F15401 
 196 05c7 B6B255F5 		.ascii	"\266\262U\365\362E^\276L\270\277\227\015Wo\203\353\270"
 196      F2455EBE 
 196      4CB8BF97 
 196      0D576F83 
 196      EBB8
 197 05d9 5408CB1E 		.ascii	"T\010\313\036\036\226\347\374\000\316u(\271$\3643\340"
 197      1E96E7FC 
 197      00CE7528 
 197      B924F433 
 197      E0
 198 05ea 3E2A1BCE 		.ascii	">*\033\316\252\037\325\333>\211\000\332\365\250ML\227"
 198      AA1FD5DB 
 198      3E8900DA 
 198      F5A84D4C 
 198      97
 199 05fb AD38D390 		.ascii	"\2558\323\220\211\360\023\021CG\310\365\274g\373\215"
 199      89F01311 
 199      4347C8F5 
 199      BC67FB8D 
 200 060b 89537845 		.ascii	"\211SxE\360kb1(\270Jt\314\210%\350\337N\023\354b\313"
 200      F06B6231 
 200      28B84A74 
 200      CC8825E8 
 200      DF4E13EC 
 201 0621 CED46248 		.ascii	"\316\324bH\311x/_\306\366\361\274<\300\357\375\374>"
 201      C9782F5F 
 201      C6F6F1BC 
 201      3CC0EFFD 
 201      FC3E
 202 0633 C0EF87AD 		.ascii	"\300\357\207\255\231J\320\177\012A\354\032\262\014\373"
 202      994AD07F 
 202      0A41EC1A 
 202      B20CFB
 203 0642 6831871C 		.ascii	"h1\207\034e\237y\306\313\007\257\027\313\276\203\213"
 203      659F79C6 
 203      CB07AF17 
 203      CBBE838B 
 204 0652 E5B717D7 		.ascii	"\345\267\027\327\261\"\027\313\325\261\261|/\304f\256"
 204      B12217CB 
 204      D5B1B17C 
 204      2FC466AE 
 205 0662 4DCFF518 		.ascii	"M\317\365\030\271j\316Z\347\374\302\246\\\237{S\316"
 205      B96ACE5A 
 205      E7FCC2A6 
ARM GAS  /tmp/cc3ukR0Z.s 			page 16


 205      5C9F7B53 
 205      CE
 206 0673 FE79402C 		.ascii	"\376y@,;\370:wZ\031\277\311\375v\3342wF\337\354\031"
 206      3BF83A77 
 206      5A19BFC9 
 206      FD76DC32 
 206      7746DFEC 
 207 0688 FBE6CF42 		.ascii	"\373\346\317Bn\377\207\340\000s\263\012\241G\012\277"
 207      6EFF87E0 
 207      0073B30A 
 207      A1470ABF 
 208 0698 007D9313 		.ascii	"\000}\223\023\027\0152H=\310d|\242\3540\034\364\010"
 208      170D3248 
 208      3DC8647C 
 208      A2EC301C 
 208      F408
 209 06aa C32536AD 		.ascii	"\303%6\255M*\260\355\213\220\343\327D\247\026\260\011"
 209      4D2AB0ED 
 209      8B90E3D7 
 209      44A716B0 
 209      09
 210 06bb 0863C137 		.ascii	"\010c\3017\017\233s\244\357x{\013\305t3\315]\206\302"
 210      0F9B73A4 
 210      EF787B0B 
 210      C57433CD 
 210      5D86C2
 211 06ce 6635482F 		.ascii	"f5H/\032\264\037\333\305{\330\355$\223\361H\331v\237"
 211      1AB41FDB 
 211      C57BD8ED 
 211      2493F148 
 211      D9769F
 212 06e1 F2B07BB1 		.ascii	"\362\260{\261\315n\223\012\272C\304\361\303\243S\013"
 212      CD6E930A 
 212      BA43C4F1 
 212      C3A3530B 
 213 06f1 82DA6D76 		.ascii	"\202\332mv\243\372\025+\242\306_S&\032\227\023\360\200"
 213      A3FA152B 
 213      A2C65F53 
 213      261A9713 
 213      F080
 214 0703 5BAAD1E8 		.ascii	"[\252\321\350\254\210\225\"\210\243\005Z\\U\344\365"
 214      AC889522 
 214      88A3055A 
 214      5C55E4F5 
 215 0713 19E9C9AC 		.ascii	"\031\351\311\254\222U$-\374\300C\217\326\257AK\255|"
 215      9255242D 
 215      FCC0438F 
 215      D6AF414B 
 215      AD7C
 216 0725 8CBC3115 		.ascii	"\214\2741\025Kd\327+\321X\034\230j2JRN\307\233T`\270"
 216      4B64D72B 
 216      D1581C98 
 216      6A324A52 
 216      4EC79B54 
 217 073b 0E46A5C2 		.ascii	"\016F\245\302{\203\225/\326\224L6\245\242\351&U\313"
 217      7B83952F 
 217      D6944C36 
ARM GAS  /tmp/cc3ukR0Z.s 			page 17


 217      A5A2E926 
 217      55CB
 218 074d 44EF7BF8 		.ascii	"D\357{\370\3015\017nd\337\322\215\011E\315D\037X\263"
 218      C1350F6E 
 218      64DFD28D 
 218      0945CD44 
 218      1F58B3
 219 0760 06D0B44D 		.ascii	"\006\320\264Mi%\003\220\241XJ\223\264\245\321lF-\310"
 219      69250390 
 219      A1584A93 
 219      B4A5D16C 
 219      462DC8
 220 0773 4A294F27 		.ascii	"J)O'\032\177\036\315h\353\033S\032\320T\301\343\007"
 220      1A7F1ECD 
 220      68EB1B53 
 220      1AD054C1 
 220      E307
 221 0785 DF97B4DB 		.ascii	"\337\227\264\333\335\250\222r,\336\230R\242\322ze\203"
 221      DDA89272 
 221      2CDE9852 
 221      A2D27A65 
 221      83
 222 0796 9C4D0098 		.ascii	"\234M\000\230@\256\226$\301\027\000\031\001P5\224\314"
 222      40AE9624 
 222      C1170019 
 222      01503594 
 222      CC
 223 07a7 3C2E694B 		.ascii	"<.iK\230\007\036\341\326\337\257p\353\037R6j\353\002"
 223      98071EE1 
 223      D6DFAF70 
 223      EB1F5236 
 223      6AEB02
 224 07ba DA93E900 		.ascii	"\332\223\351\000\020,\2365|_\"\261.b\270K\322\3461\263"
 224      102C9E35 
 224      7C5F22B1 
 224      2E62B84B 
 224      D2E631B3 
 225 07ce 8D97     		.ascii	"\215\227"
 226 07d0 5A66A014 		.ascii	"Zf\240\024kJi\300\177KI\007\304c\340'\346D\316\006\252"
 226      6B4A69C0 
 226      7F4B4907 
 226      C463E027 
 226      E644CE06 
 227 07e5 C5B48DB7 		.ascii	"\305\264\215\267\373\343\222\236Z\225\004\316\210\252"
 227      FBE3929E 
 227      5A9504CE 
 227      88AA
 228 07f3 3C2EAB49 		.ascii	"<.\253II#j\003Q\357\012\250+\357\200\266\222\250?$\352"
 228      49236A03 
 228      51EF0AA8 
 228      2BEF80B6 
 228      92A83F24 
 229 0808 9D445D45 		.ascii	"\235D]E\324\325$\241\222L:\000\320\021-\243\311\032"
 229      D4D524A1 
 229      924C3A00 
 229      D0112DA3 
 229      C91A
ARM GAS  /tmp/cc3ukR0Z.s 			page 18


 230 081a 4C545516 		.ascii	"LTU\026d5H\032\370C\364B|\004\247\027\011\243Te\203"
 230      6435481A 
 230      F843F442 
 230      7C04A717 
 230      09A35465 
 231 082f A22AA918 		.ascii	"\242*\251\030\020\00745\035\004W\245k\224\247\224\224"
 231      10073435 
 231      1D0457A5 
 231      6B94A794 
 231      94
 232 0840 9694334F 		.ascii	"\226\2243OHZ$+\0349\317\200`\335\260\3624\033$\331\225"
 232      485A242B 
 232      1C39CF80 
 232      60DDB0F2 
 232      341B24D9 
 233 0855 D5994D19 		.ascii	"\325\231M\031\2551\311$\261GS\026\306\322l\254&\026"
 233      AD31C924 
 233      B1475316 
 233      C6D26CAC 
 233      2616
 234 0867 FF692CFE 		.ascii	"\377i,\3760H\330\264\256\226G\013\020*I\341C\343\245"
 234      3048D8B4 
 234      AE96470B 
 234      102A49E1 
 234      43E3A5
 235 087a 2A965541 		.ascii	"*\226UA\264\026L\201\017#\0119\2431\214\010{c\235*\021"
 235      B4164C81 
 235      0F230939 
 235      A3318C08 
 235      7B639D2A 
 236 088f A501E008 		.ascii	"\245\001\340\010\306\342\262\032\221\244\015\331TL\222"
 236      C6E2B21A 
 236      91A40DD9 
 236      544C92
 237 089e AE333B2B 		.ascii	"\2563;+\356\\\271\252\301\372\266z\365\177\001\311f"
 237      EE5CB9AA 
 237      C1FAB67A 
 237      F57F01C9 
 237      66
 238 08af 3276     		.ascii	"2v"
 239              		.text
 240              		.section	.gnu.lto_.symtab.e5231b4c852126c4,"",%progbits
 241 0000 6F73616C 		.ascii	"osalThreadDequeueNextI\000\000\000\000\000\000\000\000"
 241      54687265 
 241      61644465 
 241      71756575 
 241      654E6578 
 242 001e 00000000 		.ascii	"\000\000\000\000\241\000\000\000osalThreadDequeueAl"
 242      A1000000 
 242      6F73616C 
 242      54687265 
 242      61644465 
 243 0039 6C490000 		.ascii	"lI\000\000\000\000\000\000\000\000\000\000\000\000\311"
 243      00000000 
 243      00000000 
 243      0000C9
 244 0048 0000006E 		.ascii	"\000\000\000nil\000\000\002\000\000\000\000\000\000"
ARM GAS  /tmp/cc3ukR0Z.s 			page 19


 244      696C0000 
 244      02000000 
 244      000000
 245 0057 00000028 		.ascii	"\000\000\000(\001\000\000chSchReadyI\000\000\002\000"
 245      01000063 
 245      68536368 
 245      52656164 
 245      79490000 
 246 006d 00000000 		.ascii	"\000\000\000\000\000\000\000\000\316\000\000\000"
 246      00000000 
 246      CE000000 
 247              		.text
 248              		.section	.gnu.lto_.opts,"",%progbits
 249 0000 272D6D63 		.ascii	"'-mcpu=cortex-m0' '-mno-thumb-interwork' '-mthumb' "
 249      70753D63 
 249      6F727465 
 249      782D6D30 
 249      2720272D 
 250 0033 272D6767 		.ascii	"'-ggdb' '-O2' '-fomit-frame-pointer' '-falign-funct"
 250      64622720 
 250      272D4F32 
 250      2720272D 
 250      666F6D69 
 251 0066 696F6E73 		.ascii	"ions=16' '-ffunction-sections' '-fdata-sections' '-"
 251      3D313627 
 251      20272D66 
 251      66756E63 
 251      74696F6E 
 252 0099 666E6F2D 		.ascii	"fno-common' '-flto'\000"
 252      636F6D6D 
 252      6F6E2720 
 252      272D666C 
 252      746F2700 
 253              		.text
 254              		.cfi_sections	.debug_frame
 255              		.section	.text.osalThreadDequeueNextI,"ax",%progbits
 256              		.align	2
 257              		.p2align 4,,15
 258              		.global	osalThreadDequeueNextI
 259              		.code	16
 260              		.thumb_func
 261              		.type	osalThreadDequeueNextI, %function
 262              	osalThreadDequeueNextI:
 263              	.LFB98:
 264              		.file 1 "../../../os/hal/osal/nil/osal.c"
 265              		.loc 1 59 0
 266              		.cfi_startproc
 267              	.LVL0:
 268 0000 08B5     		push	{r3, lr}
 269              		.cfi_def_cfa_offset 8
 270              		.cfi_offset 3, -8
 271              		.cfi_offset 14, -4
 272              		.loc 1 62 0
 273 0002 0368     		ldr	r3, [r0]
 274 0004 002B     		cmp	r3, #0
 275 0006 00DB     		blt	.L8
 276              	.LVL1:
ARM GAS  /tmp/cc3ukR0Z.s 			page 20


 277              	.L1:
 278              		.loc 1 80 0
 279              		@ sp needed
 280 0008 08BD     		pop	{r3, pc}
 281              	.LVL2:
 282              	.L8:
 283              	.LBB2:
 284              		.loc 1 66 0
 285 000a 084B     		ldr	r3, .L9
 286 000c 9A69     		ldr	r2, [r3, #24]
 287 000e 1033     		add	r3, r3, #16
 288 0010 8242     		cmp	r2, r0
 289 0012 03D0     		beq	.L4
 290              	.LVL3:
 291              	.L6:
 292              		.loc 1 74 0
 293 0014 1433     		add	r3, r3, #20
 294              	.LVL4:
 295              		.loc 1 66 0
 296 0016 9A68     		ldr	r2, [r3, #8]
 297 0018 8242     		cmp	r2, r0
 298 001a FBD1     		bne	.L6
 299              	.LVL5:
 300              	.L4:
 301              		.loc 1 67 0
 302 001c 0268     		ldr	r2, [r0]
 303 001e 0132     		add	r2, r2, #1
 304 0020 0260     		str	r2, [r0]
 305              		.loc 1 71 0
 306 0022 181C     		mov	r0, r3
 307              	.LVL6:
 308 0024 FFF7FEFF 		bl	chSchReadyI
 309              	.LVL7:
 310              		.loc 1 72 0
 311 0028 EEE7     		b	.L1
 312              	.L10:
 313 002a C046     		.align	2
 314              	.L9:
 315 002c 00000000 		.word	nil
 316              	.LBE2:
 317              		.cfi_endproc
 318              	.LFE98:
 319              		.size	osalThreadDequeueNextI, .-osalThreadDequeueNextI
 320              		.section	.text.osalThreadDequeueAllI,"ax",%progbits
 321              		.align	2
 322              		.p2align 4,,15
 323              		.global	osalThreadDequeueAllI
 324              		.code	16
 325              		.thumb_func
 326              		.type	osalThreadDequeueAllI, %function
 327              	osalThreadDequeueAllI:
 328              	.LFB99:
 329              		.loc 1 90 0
 330              		.cfi_startproc
 331              	.LVL8:
 332 0000 F8B5     		push	{r3, r4, r5, r6, r7, lr}
 333              		.cfi_def_cfa_offset 24
ARM GAS  /tmp/cc3ukR0Z.s 			page 21


 334              		.cfi_offset 3, -24
 335              		.cfi_offset 4, -20
 336              		.cfi_offset 5, -16
 337              		.cfi_offset 6, -12
 338              		.cfi_offset 7, -8
 339              		.cfi_offset 14, -4
 340              		.loc 1 95 0
 341 0002 0568     		ldr	r5, [r0]
 342              	.LVL9:
 343              		.loc 1 96 0
 344 0004 0023     		mov	r3, #0
 345              		.loc 1 90 0
 346 0006 061C     		mov	r6, r0
 347 0008 0F1C     		mov	r7, r1
 348              		.loc 1 96 0
 349 000a 0360     		str	r3, [r0]
 350              	.LVL10:
 351              		.loc 1 98 0
 352 000c 002D     		cmp	r5, #0
 353 000e 06DA     		bge	.L11
 354              		.loc 1 97 0
 355 0010 064C     		ldr	r4, .L17
 356              	.LVL11:
 357              	.L15:
 358              		.loc 1 104 0
 359 0012 A368     		ldr	r3, [r4, #8]
 360 0014 B342     		cmp	r3, r6
 361 0016 03D0     		beq	.L16
 362              	.L13:
 363              		.loc 1 111 0
 364 0018 1434     		add	r4, r4, #20
 365              	.LVL12:
 366              		.loc 1 98 0
 367 001a 002D     		cmp	r5, #0
 368 001c F9DB     		blt	.L15
 369              	.LVL13:
 370              	.L11:
 371              		.loc 1 113 0
 372              		@ sp needed
 373              	.LVL14:
 374              	.LVL15:
 375              	.LVL16:
 376 001e F8BD     		pop	{r3, r4, r5, r6, r7, pc}
 377              	.LVL17:
 378              	.L16:
 379              		.loc 1 109 0
 380 0020 201C     		mov	r0, r4
 381 0022 391C     		mov	r1, r7
 382              		.loc 1 108 0
 383 0024 0135     		add	r5, r5, #1
 384              	.LVL18:
 385              		.loc 1 109 0
 386 0026 FFF7FEFF 		bl	chSchReadyI
 387              	.LVL19:
 388 002a F5E7     		b	.L13
 389              	.L18:
 390              		.align	2
ARM GAS  /tmp/cc3ukR0Z.s 			page 22


 391              	.L17:
 392 002c 10000000 		.word	nil+16
 393              		.cfi_endproc
 394              	.LFE99:
 395              		.size	osalThreadDequeueAllI, .-osalThreadDequeueAllI
 396              		.text
 397              	.Letext0:
 398              		.file 2 "/usr/include/newlib/machine/_default_types.h"
 399              		.file 3 "/usr/include/newlib/stdint.h"
 400              		.file 4 "../../../os/common/ports/ARMCMx/compilers/GCC/chtypes.h"
 401              		.file 5 "../../../os/nil/include/ch.h"
 402              		.file 6 "../../../os/common/ports/ARMCMx/chcore.h"
 403              		.file 7 "../../../os/common/ports/ARMCMx/chcore_v6m.h"
 404              		.file 8 "../../../os/hal/osal/nil/osal.h"
 405              		.section	.debug_info,"",%progbits
 406              	.Ldebug_info0:
 407 0000 42040000 		.4byte	0x442
 408 0004 0400     		.2byte	0x4
 409 0006 00000000 		.4byte	.Ldebug_abbrev0
 410 000a 04       		.byte	0x4
 411 000b 01       		.uleb128 0x1
 412 000c 29000000 		.4byte	.LASF47
 413 0010 01       		.byte	0x1
 414 0011 FF000000 		.4byte	.LASF48
 415 0015 16020000 		.4byte	.LASF49
 416 0019 00000000 		.4byte	.Ldebug_ranges0+0
 417 001d 00000000 		.4byte	0
 418 0021 00000000 		.4byte	.Ldebug_line0
 419 0025 02       		.uleb128 0x2
 420 0026 04       		.byte	0x4
 421 0027 05       		.byte	0x5
 422 0028 696E7400 		.ascii	"int\000"
 423 002c 03       		.uleb128 0x3
 424 002d 04       		.byte	0x4
 425 002e 07       		.byte	0x7
 426 002f FC020000 		.4byte	.LASF0
 427 0033 03       		.uleb128 0x3
 428 0034 01       		.byte	0x1
 429 0035 06       		.byte	0x6
 430 0036 01020000 		.4byte	.LASF1
 431 003a 04       		.uleb128 0x4
 432 003b C6010000 		.4byte	.LASF5
 433 003f 02       		.byte	0x2
 434 0040 1C       		.byte	0x1c
 435 0041 45000000 		.4byte	0x45
 436 0045 03       		.uleb128 0x3
 437 0046 01       		.byte	0x1
 438 0047 08       		.byte	0x8
 439 0048 EC010000 		.4byte	.LASF2
 440 004c 03       		.uleb128 0x3
 441 004d 02       		.byte	0x2
 442 004e 05       		.byte	0x5
 443 004f DA000000 		.4byte	.LASF3
 444 0053 03       		.uleb128 0x3
 445 0054 02       		.byte	0x2
 446 0055 07       		.byte	0x7
 447 0056 5A020000 		.4byte	.LASF4
ARM GAS  /tmp/cc3ukR0Z.s 			page 23


 448 005a 04       		.uleb128 0x4
 449 005b C8020000 		.4byte	.LASF6
 450 005f 02       		.byte	0x2
 451 0060 37       		.byte	0x37
 452 0061 65000000 		.4byte	0x65
 453 0065 03       		.uleb128 0x3
 454 0066 04       		.byte	0x4
 455 0067 05       		.byte	0x5
 456 0068 B0010000 		.4byte	.LASF7
 457 006c 04       		.uleb128 0x4
 458 006d A5020000 		.4byte	.LASF8
 459 0071 02       		.byte	0x2
 460 0072 38       		.byte	0x38
 461 0073 77000000 		.4byte	0x77
 462 0077 03       		.uleb128 0x3
 463 0078 04       		.byte	0x4
 464 0079 07       		.byte	0x7
 465 007a 93020000 		.4byte	.LASF9
 466 007e 03       		.uleb128 0x3
 467 007f 08       		.byte	0x8
 468 0080 05       		.byte	0x5
 469 0081 F1000000 		.4byte	.LASF10
 470 0085 03       		.uleb128 0x3
 471 0086 08       		.byte	0x8
 472 0087 07       		.byte	0x7
 473 0088 8B010000 		.4byte	.LASF11
 474 008c 04       		.uleb128 0x4
 475 008d 56010000 		.4byte	.LASF12
 476 0091 03       		.byte	0x3
 477 0092 2A       		.byte	0x2a
 478 0093 3A000000 		.4byte	0x3a
 479 0097 04       		.uleb128 0x4
 480 0098 7C020000 		.4byte	.LASF13
 481 009c 03       		.byte	0x3
 482 009d 41       		.byte	0x41
 483 009e 5A000000 		.4byte	0x5a
 484 00a2 04       		.uleb128 0x4
 485 00a3 0D020000 		.4byte	.LASF14
 486 00a7 03       		.byte	0x3
 487 00a8 42       		.byte	0x42
 488 00a9 6C000000 		.4byte	0x6c
 489 00ad 04       		.uleb128 0x4
 490 00ae EA020000 		.4byte	.LASF15
 491 00b2 04       		.byte	0x4
 492 00b3 3D       		.byte	0x3d
 493 00b4 8C000000 		.4byte	0x8c
 494 00b8 04       		.uleb128 0x4
 495 00b9 09030000 		.4byte	.LASF16
 496 00bd 04       		.byte	0x4
 497 00be 41       		.byte	0x41
 498 00bf 97000000 		.4byte	0x97
 499 00c3 04       		.uleb128 0x4
 500 00c4 1F010000 		.4byte	.LASF17
 501 00c8 04       		.byte	0x4
 502 00c9 43       		.byte	0x43
 503 00ca A2000000 		.4byte	0xa2
 504 00ce 04       		.uleb128 0x4
ARM GAS  /tmp/cc3ukR0Z.s 			page 24


 505 00cf 84020000 		.4byte	.LASF18
 506 00d3 04       		.byte	0x4
 507 00d4 45       		.byte	0x45
 508 00d5 97000000 		.4byte	0x97
 509 00d9 05       		.uleb128 0x5
 510 00da 6D020000 		.4byte	.LASF19
 511 00de 05       		.byte	0x5
 512 00df D001     		.2byte	0x1d0
 513 00e1 A2000000 		.4byte	0xa2
 514 00e5 05       		.uleb128 0x5
 515 00e6 00000000 		.4byte	.LASF20
 516 00ea 05       		.byte	0x5
 517 00eb D901     		.2byte	0x1d9
 518 00ed F1000000 		.4byte	0xf1
 519 00f1 06       		.uleb128 0x6
 520 00f2 2B010000 		.4byte	.LASF26
 521 00f6 14       		.byte	0x14
 522 00f7 05       		.byte	0x5
 523 00f8 0802     		.2byte	0x208
 524 00fa 3F010000 		.4byte	0x13f
 525 00fe 07       		.uleb128 0x7
 526 00ff 63747800 		.ascii	"ctx\000"
 527 0103 05       		.byte	0x5
 528 0104 0902     		.2byte	0x209
 529 0106 53010000 		.4byte	0x153
 530 010a 00       		.byte	0
 531 010b 08       		.uleb128 0x8
 532 010c E6010000 		.4byte	.LASF21
 533 0110 05       		.byte	0x5
 534 0111 0A02     		.2byte	0x20a
 535 0113 AD000000 		.4byte	0xad
 536 0117 04       		.byte	0x4
 537 0118 07       		.uleb128 0x7
 538 0119 753100   		.ascii	"u1\000"
 539 011c 05       		.byte	0x5
 540 011d 1702     		.2byte	0x217
 541 011f 28020000 		.4byte	0x228
 542 0123 08       		.byte	0x8
 543 0124 08       		.uleb128 0x8
 544 0125 0F030000 		.4byte	.LASF22
 545 0129 05       		.byte	0x5
 546 012a 1802     		.2byte	0x218
 547 012c 78020000 		.4byte	0x278
 548 0130 0C       		.byte	0xc
 549 0131 08       		.uleb128 0x8
 550 0132 22000000 		.4byte	.LASF23
 551 0136 05       		.byte	0x5
 552 0137 1B02     		.2byte	0x21b
 553 0139 C3000000 		.4byte	0xc3
 554 013d 10       		.byte	0x10
 555 013e 00       		.byte	0
 556 013f 03       		.uleb128 0x3
 557 0140 04       		.byte	0x4
 558 0141 07       		.byte	0x7
 559 0142 F3020000 		.4byte	.LASF24
 560 0146 04       		.uleb128 0x4
 561 0147 4D010000 		.4byte	.LASF25
ARM GAS  /tmp/cc3ukR0Z.s 			page 25


 562 014b 06       		.byte	0x6
 563 014c 65       		.byte	0x65
 564 014d 51010000 		.4byte	0x151
 565 0151 09       		.uleb128 0x9
 566 0152 04       		.byte	0x4
 567 0153 0A       		.uleb128 0xa
 568 0154 B9010000 		.4byte	.LASF27
 569 0158 04       		.byte	0x4
 570 0159 06       		.byte	0x6
 571 015a 89       		.byte	0x89
 572 015b 6B010000 		.4byte	0x16b
 573 015f 0B       		.uleb128 0xb
 574 0160 737000   		.ascii	"sp\000"
 575 0163 06       		.byte	0x6
 576 0164 8A       		.byte	0x8a
 577 0165 DD010000 		.4byte	0x1dd
 578 0169 00       		.byte	0
 579 016a 00       		.byte	0
 580 016b 0A       		.uleb128 0xa
 581 016c BC020000 		.4byte	.LASF28
 582 0170 24       		.byte	0x24
 583 0171 07       		.byte	0x7
 584 0172 C3       		.byte	0xc3
 585 0173 DD010000 		.4byte	0x1dd
 586 0177 0B       		.uleb128 0xb
 587 0178 723800   		.ascii	"r8\000"
 588 017b 07       		.byte	0x7
 589 017c C4       		.byte	0xc4
 590 017d 46010000 		.4byte	0x146
 591 0181 00       		.byte	0
 592 0182 0B       		.uleb128 0xb
 593 0183 723900   		.ascii	"r9\000"
 594 0186 07       		.byte	0x7
 595 0187 C5       		.byte	0xc5
 596 0188 46010000 		.4byte	0x146
 597 018c 04       		.byte	0x4
 598 018d 0B       		.uleb128 0xb
 599 018e 72313000 		.ascii	"r10\000"
 600 0192 07       		.byte	0x7
 601 0193 C6       		.byte	0xc6
 602 0194 46010000 		.4byte	0x146
 603 0198 08       		.byte	0x8
 604 0199 0B       		.uleb128 0xb
 605 019a 72313100 		.ascii	"r11\000"
 606 019e 07       		.byte	0x7
 607 019f C7       		.byte	0xc7
 608 01a0 46010000 		.4byte	0x146
 609 01a4 0C       		.byte	0xc
 610 01a5 0B       		.uleb128 0xb
 611 01a6 723400   		.ascii	"r4\000"
 612 01a9 07       		.byte	0x7
 613 01aa C8       		.byte	0xc8
 614 01ab 46010000 		.4byte	0x146
 615 01af 10       		.byte	0x10
 616 01b0 0B       		.uleb128 0xb
 617 01b1 723500   		.ascii	"r5\000"
 618 01b4 07       		.byte	0x7
ARM GAS  /tmp/cc3ukR0Z.s 			page 26


 619 01b5 C9       		.byte	0xc9
 620 01b6 46010000 		.4byte	0x146
 621 01ba 14       		.byte	0x14
 622 01bb 0B       		.uleb128 0xb
 623 01bc 723600   		.ascii	"r6\000"
 624 01bf 07       		.byte	0x7
 625 01c0 CA       		.byte	0xca
 626 01c1 46010000 		.4byte	0x146
 627 01c5 18       		.byte	0x18
 628 01c6 0B       		.uleb128 0xb
 629 01c7 723700   		.ascii	"r7\000"
 630 01ca 07       		.byte	0x7
 631 01cb CB       		.byte	0xcb
 632 01cc 46010000 		.4byte	0x146
 633 01d0 1C       		.byte	0x1c
 634 01d1 0B       		.uleb128 0xb
 635 01d2 6C7200   		.ascii	"lr\000"
 636 01d5 07       		.byte	0x7
 637 01d6 CC       		.byte	0xcc
 638 01d7 46010000 		.4byte	0x146
 639 01db 20       		.byte	0x20
 640 01dc 00       		.byte	0
 641 01dd 0C       		.uleb128 0xc
 642 01de 04       		.byte	0x4
 643 01df 6B010000 		.4byte	0x16b
 644 01e3 05       		.uleb128 0x5
 645 01e4 69010000 		.4byte	.LASF29
 646 01e8 05       		.byte	0x5
 647 01e9 E101     		.2byte	0x1e1
 648 01eb EF010000 		.4byte	0x1ef
 649 01ef 06       		.uleb128 0x6
 650 01f0 7D010000 		.4byte	.LASF30
 651 01f4 04       		.byte	0x4
 652 01f5 05       		.byte	0x5
 653 01f6 E601     		.2byte	0x1e6
 654 01f8 0A020000 		.4byte	0x20a
 655 01fc 07       		.uleb128 0x7
 656 01fd 636E7400 		.ascii	"cnt\000"
 657 0201 05       		.byte	0x5
 658 0202 E701     		.2byte	0x1e7
 659 0204 0A020000 		.4byte	0x20a
 660 0208 00       		.byte	0
 661 0209 00       		.byte	0
 662 020a 0D       		.uleb128 0xd
 663 020b CE000000 		.4byte	0xce
 664 020f 03       		.uleb128 0x3
 665 0210 01       		.byte	0x1
 666 0211 08       		.byte	0x8
 667 0212 77020000 		.4byte	.LASF31
 668 0216 05       		.uleb128 0x5
 669 0217 D7020000 		.4byte	.LASF32
 670 021b 05       		.byte	0x5
 671 021c 0302     		.2byte	0x203
 672 021e 22020000 		.4byte	0x222
 673 0222 0C       		.uleb128 0xc
 674 0223 04       		.byte	0x4
 675 0224 E5000000 		.4byte	0xe5
ARM GAS  /tmp/cc3ukR0Z.s 			page 27


 676 0228 0E       		.uleb128 0xe
 677 0229 04       		.byte	0x4
 678 022a 05       		.byte	0x5
 679 022b 0D02     		.2byte	0x20d
 680 022d 6C020000 		.4byte	0x26c
 681 0231 0F       		.uleb128 0xf
 682 0232 6D736700 		.ascii	"msg\000"
 683 0236 05       		.byte	0x5
 684 0237 0E02     		.2byte	0x20e
 685 0239 B8000000 		.4byte	0xb8
 686 023d 0F       		.uleb128 0xf
 687 023e 7000     		.ascii	"p\000"
 688 0240 05       		.byte	0x5
 689 0241 0F02     		.2byte	0x20f
 690 0243 51010000 		.4byte	0x151
 691 0247 0F       		.uleb128 0xf
 692 0248 74727000 		.ascii	"trp\000"
 693 024c 05       		.byte	0x5
 694 024d 1002     		.2byte	0x210
 695 024f 6C020000 		.4byte	0x26c
 696 0253 10       		.uleb128 0x10
 697 0254 D2020000 		.4byte	.LASF33
 698 0258 05       		.byte	0x5
 699 0259 1202     		.2byte	0x212
 700 025b 72020000 		.4byte	0x272
 701 025f 10       		.uleb128 0x10
 702 0260 FA010000 		.4byte	.LASF34
 703 0264 05       		.byte	0x5
 704 0265 1502     		.2byte	0x215
 705 0267 C3000000 		.4byte	0xc3
 706 026b 00       		.byte	0
 707 026c 0C       		.uleb128 0xc
 708 026d 04       		.byte	0x4
 709 026e 16020000 		.4byte	0x216
 710 0272 0C       		.uleb128 0xc
 711 0273 04       		.byte	0x4
 712 0274 E3010000 		.4byte	0x1e3
 713 0278 0D       		.uleb128 0xd
 714 0279 D9000000 		.4byte	0xd9
 715 027d 05       		.uleb128 0x5
 716 027e E4000000 		.4byte	.LASF35
 717 0282 05       		.byte	0x5
 718 0283 2702     		.2byte	0x227
 719 0285 89020000 		.4byte	0x289
 720 0289 06       		.uleb128 0x6
 721 028a 5E010000 		.4byte	.LASF36
 722 028e 60       		.byte	0x60
 723 028f 05       		.byte	0x5
 724 0290 2E02     		.2byte	0x22e
 725 0292 D8020000 		.4byte	0x2d8
 726 0296 08       		.uleb128 0x8
 727 0297 52020000 		.4byte	.LASF37
 728 029b 05       		.byte	0x5
 729 029c 3202     		.2byte	0x232
 730 029e 22020000 		.4byte	0x222
 731 02a2 00       		.byte	0
 732 02a3 08       		.uleb128 0x8
ARM GAS  /tmp/cc3ukR0Z.s 			page 28


 733 02a4 17030000 		.4byte	.LASF38
 734 02a8 05       		.byte	0x5
 735 02a9 3802     		.2byte	0x238
 736 02ab 22020000 		.4byte	0x222
 737 02af 04       		.byte	0x4
 738 02b0 08       		.uleb128 0x8
 739 02b1 8A020000 		.4byte	.LASF39
 740 02b5 05       		.byte	0x5
 741 02b6 4302     		.2byte	0x243
 742 02b8 D9000000 		.4byte	0xd9
 743 02bc 08       		.byte	0x8
 744 02bd 08       		.uleb128 0x8
 745 02be 19000000 		.4byte	.LASF40
 746 02c2 05       		.byte	0x5
 747 02c3 4702     		.2byte	0x247
 748 02c5 D9000000 		.4byte	0xd9
 749 02c9 0C       		.byte	0xc
 750 02ca 08       		.uleb128 0x8
 751 02cb 75010000 		.4byte	.LASF41
 752 02cf 05       		.byte	0x5
 753 02d0 6002     		.2byte	0x260
 754 02d2 D8020000 		.4byte	0x2d8
 755 02d6 10       		.byte	0x10
 756 02d7 00       		.byte	0
 757 02d8 11       		.uleb128 0x11
 758 02d9 E5000000 		.4byte	0xe5
 759 02dd E8020000 		.4byte	0x2e8
 760 02e1 12       		.uleb128 0x12
 761 02e2 3F010000 		.4byte	0x13f
 762 02e6 03       		.byte	0x3
 763 02e7 00       		.byte	0
 764 02e8 13       		.uleb128 0x13
 765 02e9 04       		.byte	0x4
 766 02ea 08       		.byte	0x8
 767 02eb E3       		.byte	0xe3
 768 02ec FD020000 		.4byte	0x2fd
 769 02f0 0B       		.uleb128 0xb
 770 02f1 73656D00 		.ascii	"sem\000"
 771 02f5 08       		.byte	0x8
 772 02f6 E4       		.byte	0xe4
 773 02f7 E3010000 		.4byte	0x1e3
 774 02fb 00       		.byte	0
 775 02fc 00       		.byte	0
 776 02fd 04       		.uleb128 0x4
 777 02fe 09000000 		.4byte	.LASF42
 778 0302 08       		.byte	0x8
 779 0303 E5       		.byte	0xe5
 780 0304 E8020000 		.4byte	0x2e8
 781 0308 14       		.uleb128 0x14
 782 0309 36010000 		.4byte	.LASF43
 783 030d 01       		.byte	0x1
 784 030e 3B       		.byte	0x3b
 785 030f 00000000 		.4byte	.LFB98
 786 0313 30000000 		.4byte	.LFE98-.LFB98
 787 0317 01       		.uleb128 0x1
 788 0318 9C       		.byte	0x9c
 789 0319 74030000 		.4byte	0x374
ARM GAS  /tmp/cc3ukR0Z.s 			page 29


 790 031d 15       		.uleb128 0x15
 791 031e 74717000 		.ascii	"tqp\000"
 792 0322 01       		.byte	0x1
 793 0323 3B       		.byte	0x3b
 794 0324 74030000 		.4byte	0x374
 795 0328 00000000 		.4byte	.LLST0
 796 032c 15       		.uleb128 0x15
 797 032d 6D736700 		.ascii	"msg\000"
 798 0331 01       		.byte	0x1
 799 0332 3B       		.byte	0x3b
 800 0333 B8000000 		.4byte	0xb8
 801 0337 3A000000 		.4byte	.LLST1
 802 033b 16       		.uleb128 0x16
 803 033c 737000   		.ascii	"sp\000"
 804 033f 01       		.byte	0x1
 805 0340 3C       		.byte	0x3c
 806 0341 72020000 		.4byte	0x272
 807 0345 00000000 		.4byte	.LLST0
 808 0349 17       		.uleb128 0x17
 809 034a CC000000 		.4byte	.LASF45
 810 034e 8A030000 		.4byte	0x38a
 811 0352 18       		.uleb128 0x18
 812 0353 0A000000 		.4byte	.LBB2
 813 0357 26000000 		.4byte	.LBE2-.LBB2
 814 035b 16       		.uleb128 0x16
 815 035c 747000   		.ascii	"tp\000"
 816 035f 01       		.byte	0x1
 817 0360 3F       		.byte	0x3f
 818 0361 22020000 		.4byte	0x222
 819 0365 74000000 		.4byte	.LLST3
 820 0369 19       		.uleb128 0x19
 821 036a 28000000 		.4byte	.LVL7
 822 036e 2E040000 		.4byte	0x42e
 823 0372 00       		.byte	0
 824 0373 00       		.byte	0
 825 0374 0C       		.uleb128 0xc
 826 0375 04       		.byte	0x4
 827 0376 FD020000 		.4byte	0x2fd
 828 037a 11       		.uleb128 0x11
 829 037b 0F020000 		.4byte	0x20f
 830 037f 8A030000 		.4byte	0x38a
 831 0383 12       		.uleb128 0x12
 832 0384 3F010000 		.4byte	0x13f
 833 0388 16       		.byte	0x16
 834 0389 00       		.byte	0
 835 038a 1A       		.uleb128 0x1a
 836 038b 7A030000 		.4byte	0x37a
 837 038f 14       		.uleb128 0x14
 838 0390 D0010000 		.4byte	.LASF44
 839 0394 01       		.byte	0x1
 840 0395 5A       		.byte	0x5a
 841 0396 00000000 		.4byte	.LFB99
 842 039a 30000000 		.4byte	.LFE99-.LFB99
 843 039e 01       		.uleb128 0x1
 844 039f 9C       		.byte	0x9c
 845 03a0 0D040000 		.4byte	0x40d
 846 03a4 15       		.uleb128 0x15
ARM GAS  /tmp/cc3ukR0Z.s 			page 30


 847 03a5 74717000 		.ascii	"tqp\000"
 848 03a9 01       		.byte	0x1
 849 03aa 5A       		.byte	0x5a
 850 03ab 74030000 		.4byte	0x374
 851 03af 87000000 		.4byte	.LLST4
 852 03b3 15       		.uleb128 0x15
 853 03b4 6D736700 		.ascii	"msg\000"
 854 03b8 01       		.byte	0x1
 855 03b9 5A       		.byte	0x5a
 856 03ba B8000000 		.4byte	0xb8
 857 03be BE000000 		.4byte	.LLST5
 858 03c2 16       		.uleb128 0x16
 859 03c3 737000   		.ascii	"sp\000"
 860 03c6 01       		.byte	0x1
 861 03c7 5B       		.byte	0x5b
 862 03c8 72020000 		.4byte	0x272
 863 03cc 87000000 		.4byte	.LLST4
 864 03d0 16       		.uleb128 0x16
 865 03d1 747000   		.ascii	"tp\000"
 866 03d4 01       		.byte	0x1
 867 03d5 5C       		.byte	0x5c
 868 03d6 22020000 		.4byte	0x222
 869 03da F5000000 		.4byte	.LLST7
 870 03de 16       		.uleb128 0x16
 871 03df 636E7400 		.ascii	"cnt\000"
 872 03e3 01       		.byte	0x1
 873 03e4 5D       		.byte	0x5d
 874 03e5 CE000000 		.4byte	0xce
 875 03e9 13010000 		.4byte	.LLST8
 876 03ed 17       		.uleb128 0x17
 877 03ee A2010000 		.4byte	.LASF46
 878 03f2 1D040000 		.4byte	0x41d
 879 03f6 1B       		.uleb128 0x1b
 880 03f7 2A000000 		.4byte	.LVL19
 881 03fb 2E040000 		.4byte	0x42e
 882 03ff 1C       		.uleb128 0x1c
 883 0400 01       		.uleb128 0x1
 884 0401 51       		.byte	0x51
 885 0402 02       		.uleb128 0x2
 886 0403 77       		.byte	0x77
 887 0404 00       		.sleb128 0
 888 0405 1C       		.uleb128 0x1c
 889 0406 01       		.uleb128 0x1
 890 0407 50       		.byte	0x50
 891 0408 02       		.uleb128 0x2
 892 0409 74       		.byte	0x74
 893 040a 00       		.sleb128 0
 894 040b 00       		.byte	0
 895 040c 00       		.byte	0
 896 040d 11       		.uleb128 0x11
 897 040e 0F020000 		.4byte	0x20f
 898 0412 1D040000 		.4byte	0x41d
 899 0416 12       		.uleb128 0x12
 900 0417 3F010000 		.4byte	0x13f
 901 041b 15       		.byte	0x15
 902 041c 00       		.byte	0
 903 041d 1A       		.uleb128 0x1a
ARM GAS  /tmp/cc3ukR0Z.s 			page 31


 904 041e 0D040000 		.4byte	0x40d
 905 0422 1D       		.uleb128 0x1d
 906 0423 6E696C00 		.ascii	"nil\000"
 907 0427 05       		.byte	0x5
 908 0428 2705     		.2byte	0x527
 909 042a 7D020000 		.4byte	0x27d
 910 042e 1E       		.uleb128 0x1e
 911 042f B0020000 		.4byte	.LASF50
 912 0433 05       		.byte	0x5
 913 0434 3705     		.2byte	0x537
 914 0436 22020000 		.4byte	0x222
 915 043a 1F       		.uleb128 0x1f
 916 043b 22020000 		.4byte	0x222
 917 043f 1F       		.uleb128 0x1f
 918 0440 B8000000 		.4byte	0xb8
 919 0444 00       		.byte	0
 920 0445 00       		.byte	0
 921              		.section	.debug_abbrev,"",%progbits
 922              	.Ldebug_abbrev0:
 923 0000 01       		.uleb128 0x1
 924 0001 11       		.uleb128 0x11
 925 0002 01       		.byte	0x1
 926 0003 25       		.uleb128 0x25
 927 0004 0E       		.uleb128 0xe
 928 0005 13       		.uleb128 0x13
 929 0006 0B       		.uleb128 0xb
 930 0007 03       		.uleb128 0x3
 931 0008 0E       		.uleb128 0xe
 932 0009 1B       		.uleb128 0x1b
 933 000a 0E       		.uleb128 0xe
 934 000b 55       		.uleb128 0x55
 935 000c 17       		.uleb128 0x17
 936 000d 11       		.uleb128 0x11
 937 000e 01       		.uleb128 0x1
 938 000f 10       		.uleb128 0x10
 939 0010 17       		.uleb128 0x17
 940 0011 00       		.byte	0
 941 0012 00       		.byte	0
 942 0013 02       		.uleb128 0x2
 943 0014 24       		.uleb128 0x24
 944 0015 00       		.byte	0
 945 0016 0B       		.uleb128 0xb
 946 0017 0B       		.uleb128 0xb
 947 0018 3E       		.uleb128 0x3e
 948 0019 0B       		.uleb128 0xb
 949 001a 03       		.uleb128 0x3
 950 001b 08       		.uleb128 0x8
 951 001c 00       		.byte	0
 952 001d 00       		.byte	0
 953 001e 03       		.uleb128 0x3
 954 001f 24       		.uleb128 0x24
 955 0020 00       		.byte	0
 956 0021 0B       		.uleb128 0xb
 957 0022 0B       		.uleb128 0xb
 958 0023 3E       		.uleb128 0x3e
 959 0024 0B       		.uleb128 0xb
 960 0025 03       		.uleb128 0x3
ARM GAS  /tmp/cc3ukR0Z.s 			page 32


 961 0026 0E       		.uleb128 0xe
 962 0027 00       		.byte	0
 963 0028 00       		.byte	0
 964 0029 04       		.uleb128 0x4
 965 002a 16       		.uleb128 0x16
 966 002b 00       		.byte	0
 967 002c 03       		.uleb128 0x3
 968 002d 0E       		.uleb128 0xe
 969 002e 3A       		.uleb128 0x3a
 970 002f 0B       		.uleb128 0xb
 971 0030 3B       		.uleb128 0x3b
 972 0031 0B       		.uleb128 0xb
 973 0032 49       		.uleb128 0x49
 974 0033 13       		.uleb128 0x13
 975 0034 00       		.byte	0
 976 0035 00       		.byte	0
 977 0036 05       		.uleb128 0x5
 978 0037 16       		.uleb128 0x16
 979 0038 00       		.byte	0
 980 0039 03       		.uleb128 0x3
 981 003a 0E       		.uleb128 0xe
 982 003b 3A       		.uleb128 0x3a
 983 003c 0B       		.uleb128 0xb
 984 003d 3B       		.uleb128 0x3b
 985 003e 05       		.uleb128 0x5
 986 003f 49       		.uleb128 0x49
 987 0040 13       		.uleb128 0x13
 988 0041 00       		.byte	0
 989 0042 00       		.byte	0
 990 0043 06       		.uleb128 0x6
 991 0044 13       		.uleb128 0x13
 992 0045 01       		.byte	0x1
 993 0046 03       		.uleb128 0x3
 994 0047 0E       		.uleb128 0xe
 995 0048 0B       		.uleb128 0xb
 996 0049 0B       		.uleb128 0xb
 997 004a 3A       		.uleb128 0x3a
 998 004b 0B       		.uleb128 0xb
 999 004c 3B       		.uleb128 0x3b
 1000 004d 05       		.uleb128 0x5
 1001 004e 01       		.uleb128 0x1
 1002 004f 13       		.uleb128 0x13
 1003 0050 00       		.byte	0
 1004 0051 00       		.byte	0
 1005 0052 07       		.uleb128 0x7
 1006 0053 0D       		.uleb128 0xd
 1007 0054 00       		.byte	0
 1008 0055 03       		.uleb128 0x3
 1009 0056 08       		.uleb128 0x8
 1010 0057 3A       		.uleb128 0x3a
 1011 0058 0B       		.uleb128 0xb
 1012 0059 3B       		.uleb128 0x3b
 1013 005a 05       		.uleb128 0x5
 1014 005b 49       		.uleb128 0x49
 1015 005c 13       		.uleb128 0x13
 1016 005d 38       		.uleb128 0x38
 1017 005e 0B       		.uleb128 0xb
ARM GAS  /tmp/cc3ukR0Z.s 			page 33


 1018 005f 00       		.byte	0
 1019 0060 00       		.byte	0
 1020 0061 08       		.uleb128 0x8
 1021 0062 0D       		.uleb128 0xd
 1022 0063 00       		.byte	0
 1023 0064 03       		.uleb128 0x3
 1024 0065 0E       		.uleb128 0xe
 1025 0066 3A       		.uleb128 0x3a
 1026 0067 0B       		.uleb128 0xb
 1027 0068 3B       		.uleb128 0x3b
 1028 0069 05       		.uleb128 0x5
 1029 006a 49       		.uleb128 0x49
 1030 006b 13       		.uleb128 0x13
 1031 006c 38       		.uleb128 0x38
 1032 006d 0B       		.uleb128 0xb
 1033 006e 00       		.byte	0
 1034 006f 00       		.byte	0
 1035 0070 09       		.uleb128 0x9
 1036 0071 0F       		.uleb128 0xf
 1037 0072 00       		.byte	0
 1038 0073 0B       		.uleb128 0xb
 1039 0074 0B       		.uleb128 0xb
 1040 0075 00       		.byte	0
 1041 0076 00       		.byte	0
 1042 0077 0A       		.uleb128 0xa
 1043 0078 13       		.uleb128 0x13
 1044 0079 01       		.byte	0x1
 1045 007a 03       		.uleb128 0x3
 1046 007b 0E       		.uleb128 0xe
 1047 007c 0B       		.uleb128 0xb
 1048 007d 0B       		.uleb128 0xb
 1049 007e 3A       		.uleb128 0x3a
 1050 007f 0B       		.uleb128 0xb
 1051 0080 3B       		.uleb128 0x3b
 1052 0081 0B       		.uleb128 0xb
 1053 0082 01       		.uleb128 0x1
 1054 0083 13       		.uleb128 0x13
 1055 0084 00       		.byte	0
 1056 0085 00       		.byte	0
 1057 0086 0B       		.uleb128 0xb
 1058 0087 0D       		.uleb128 0xd
 1059 0088 00       		.byte	0
 1060 0089 03       		.uleb128 0x3
 1061 008a 08       		.uleb128 0x8
 1062 008b 3A       		.uleb128 0x3a
 1063 008c 0B       		.uleb128 0xb
 1064 008d 3B       		.uleb128 0x3b
 1065 008e 0B       		.uleb128 0xb
 1066 008f 49       		.uleb128 0x49
 1067 0090 13       		.uleb128 0x13
 1068 0091 38       		.uleb128 0x38
 1069 0092 0B       		.uleb128 0xb
 1070 0093 00       		.byte	0
 1071 0094 00       		.byte	0
 1072 0095 0C       		.uleb128 0xc
 1073 0096 0F       		.uleb128 0xf
 1074 0097 00       		.byte	0
ARM GAS  /tmp/cc3ukR0Z.s 			page 34


 1075 0098 0B       		.uleb128 0xb
 1076 0099 0B       		.uleb128 0xb
 1077 009a 49       		.uleb128 0x49
 1078 009b 13       		.uleb128 0x13
 1079 009c 00       		.byte	0
 1080 009d 00       		.byte	0
 1081 009e 0D       		.uleb128 0xd
 1082 009f 35       		.uleb128 0x35
 1083 00a0 00       		.byte	0
 1084 00a1 49       		.uleb128 0x49
 1085 00a2 13       		.uleb128 0x13
 1086 00a3 00       		.byte	0
 1087 00a4 00       		.byte	0
 1088 00a5 0E       		.uleb128 0xe
 1089 00a6 17       		.uleb128 0x17
 1090 00a7 01       		.byte	0x1
 1091 00a8 0B       		.uleb128 0xb
 1092 00a9 0B       		.uleb128 0xb
 1093 00aa 3A       		.uleb128 0x3a
 1094 00ab 0B       		.uleb128 0xb
 1095 00ac 3B       		.uleb128 0x3b
 1096 00ad 05       		.uleb128 0x5
 1097 00ae 01       		.uleb128 0x1
 1098 00af 13       		.uleb128 0x13
 1099 00b0 00       		.byte	0
 1100 00b1 00       		.byte	0
 1101 00b2 0F       		.uleb128 0xf
 1102 00b3 0D       		.uleb128 0xd
 1103 00b4 00       		.byte	0
 1104 00b5 03       		.uleb128 0x3
 1105 00b6 08       		.uleb128 0x8
 1106 00b7 3A       		.uleb128 0x3a
 1107 00b8 0B       		.uleb128 0xb
 1108 00b9 3B       		.uleb128 0x3b
 1109 00ba 05       		.uleb128 0x5
 1110 00bb 49       		.uleb128 0x49
 1111 00bc 13       		.uleb128 0x13
 1112 00bd 00       		.byte	0
 1113 00be 00       		.byte	0
 1114 00bf 10       		.uleb128 0x10
 1115 00c0 0D       		.uleb128 0xd
 1116 00c1 00       		.byte	0
 1117 00c2 03       		.uleb128 0x3
 1118 00c3 0E       		.uleb128 0xe
 1119 00c4 3A       		.uleb128 0x3a
 1120 00c5 0B       		.uleb128 0xb
 1121 00c6 3B       		.uleb128 0x3b
 1122 00c7 05       		.uleb128 0x5
 1123 00c8 49       		.uleb128 0x49
 1124 00c9 13       		.uleb128 0x13
 1125 00ca 00       		.byte	0
 1126 00cb 00       		.byte	0
 1127 00cc 11       		.uleb128 0x11
 1128 00cd 01       		.uleb128 0x1
 1129 00ce 01       		.byte	0x1
 1130 00cf 49       		.uleb128 0x49
 1131 00d0 13       		.uleb128 0x13
ARM GAS  /tmp/cc3ukR0Z.s 			page 35


 1132 00d1 01       		.uleb128 0x1
 1133 00d2 13       		.uleb128 0x13
 1134 00d3 00       		.byte	0
 1135 00d4 00       		.byte	0
 1136 00d5 12       		.uleb128 0x12
 1137 00d6 21       		.uleb128 0x21
 1138 00d7 00       		.byte	0
 1139 00d8 49       		.uleb128 0x49
 1140 00d9 13       		.uleb128 0x13
 1141 00da 2F       		.uleb128 0x2f
 1142 00db 0B       		.uleb128 0xb
 1143 00dc 00       		.byte	0
 1144 00dd 00       		.byte	0
 1145 00de 13       		.uleb128 0x13
 1146 00df 13       		.uleb128 0x13
 1147 00e0 01       		.byte	0x1
 1148 00e1 0B       		.uleb128 0xb
 1149 00e2 0B       		.uleb128 0xb
 1150 00e3 3A       		.uleb128 0x3a
 1151 00e4 0B       		.uleb128 0xb
 1152 00e5 3B       		.uleb128 0x3b
 1153 00e6 0B       		.uleb128 0xb
 1154 00e7 01       		.uleb128 0x1
 1155 00e8 13       		.uleb128 0x13
 1156 00e9 00       		.byte	0
 1157 00ea 00       		.byte	0
 1158 00eb 14       		.uleb128 0x14
 1159 00ec 2E       		.uleb128 0x2e
 1160 00ed 01       		.byte	0x1
 1161 00ee 3F       		.uleb128 0x3f
 1162 00ef 19       		.uleb128 0x19
 1163 00f0 03       		.uleb128 0x3
 1164 00f1 0E       		.uleb128 0xe
 1165 00f2 3A       		.uleb128 0x3a
 1166 00f3 0B       		.uleb128 0xb
 1167 00f4 3B       		.uleb128 0x3b
 1168 00f5 0B       		.uleb128 0xb
 1169 00f6 27       		.uleb128 0x27
 1170 00f7 19       		.uleb128 0x19
 1171 00f8 11       		.uleb128 0x11
 1172 00f9 01       		.uleb128 0x1
 1173 00fa 12       		.uleb128 0x12
 1174 00fb 06       		.uleb128 0x6
 1175 00fc 40       		.uleb128 0x40
 1176 00fd 18       		.uleb128 0x18
 1177 00fe 9742     		.uleb128 0x2117
 1178 0100 19       		.uleb128 0x19
 1179 0101 01       		.uleb128 0x1
 1180 0102 13       		.uleb128 0x13
 1181 0103 00       		.byte	0
 1182 0104 00       		.byte	0
 1183 0105 15       		.uleb128 0x15
 1184 0106 05       		.uleb128 0x5
 1185 0107 00       		.byte	0
 1186 0108 03       		.uleb128 0x3
 1187 0109 08       		.uleb128 0x8
 1188 010a 3A       		.uleb128 0x3a
ARM GAS  /tmp/cc3ukR0Z.s 			page 36


 1189 010b 0B       		.uleb128 0xb
 1190 010c 3B       		.uleb128 0x3b
 1191 010d 0B       		.uleb128 0xb
 1192 010e 49       		.uleb128 0x49
 1193 010f 13       		.uleb128 0x13
 1194 0110 02       		.uleb128 0x2
 1195 0111 17       		.uleb128 0x17
 1196 0112 00       		.byte	0
 1197 0113 00       		.byte	0
 1198 0114 16       		.uleb128 0x16
 1199 0115 34       		.uleb128 0x34
 1200 0116 00       		.byte	0
 1201 0117 03       		.uleb128 0x3
 1202 0118 08       		.uleb128 0x8
 1203 0119 3A       		.uleb128 0x3a
 1204 011a 0B       		.uleb128 0xb
 1205 011b 3B       		.uleb128 0x3b
 1206 011c 0B       		.uleb128 0xb
 1207 011d 49       		.uleb128 0x49
 1208 011e 13       		.uleb128 0x13
 1209 011f 02       		.uleb128 0x2
 1210 0120 17       		.uleb128 0x17
 1211 0121 00       		.byte	0
 1212 0122 00       		.byte	0
 1213 0123 17       		.uleb128 0x17
 1214 0124 34       		.uleb128 0x34
 1215 0125 00       		.byte	0
 1216 0126 03       		.uleb128 0x3
 1217 0127 0E       		.uleb128 0xe
 1218 0128 49       		.uleb128 0x49
 1219 0129 13       		.uleb128 0x13
 1220 012a 34       		.uleb128 0x34
 1221 012b 19       		.uleb128 0x19
 1222 012c 00       		.byte	0
 1223 012d 00       		.byte	0
 1224 012e 18       		.uleb128 0x18
 1225 012f 0B       		.uleb128 0xb
 1226 0130 01       		.byte	0x1
 1227 0131 11       		.uleb128 0x11
 1228 0132 01       		.uleb128 0x1
 1229 0133 12       		.uleb128 0x12
 1230 0134 06       		.uleb128 0x6
 1231 0135 00       		.byte	0
 1232 0136 00       		.byte	0
 1233 0137 19       		.uleb128 0x19
 1234 0138 898201   		.uleb128 0x4109
 1235 013b 00       		.byte	0
 1236 013c 11       		.uleb128 0x11
 1237 013d 01       		.uleb128 0x1
 1238 013e 31       		.uleb128 0x31
 1239 013f 13       		.uleb128 0x13
 1240 0140 00       		.byte	0
 1241 0141 00       		.byte	0
 1242 0142 1A       		.uleb128 0x1a
 1243 0143 26       		.uleb128 0x26
 1244 0144 00       		.byte	0
 1245 0145 49       		.uleb128 0x49
ARM GAS  /tmp/cc3ukR0Z.s 			page 37


 1246 0146 13       		.uleb128 0x13
 1247 0147 00       		.byte	0
 1248 0148 00       		.byte	0
 1249 0149 1B       		.uleb128 0x1b
 1250 014a 898201   		.uleb128 0x4109
 1251 014d 01       		.byte	0x1
 1252 014e 11       		.uleb128 0x11
 1253 014f 01       		.uleb128 0x1
 1254 0150 31       		.uleb128 0x31
 1255 0151 13       		.uleb128 0x13
 1256 0152 00       		.byte	0
 1257 0153 00       		.byte	0
 1258 0154 1C       		.uleb128 0x1c
 1259 0155 8A8201   		.uleb128 0x410a
 1260 0158 00       		.byte	0
 1261 0159 02       		.uleb128 0x2
 1262 015a 18       		.uleb128 0x18
 1263 015b 9142     		.uleb128 0x2111
 1264 015d 18       		.uleb128 0x18
 1265 015e 00       		.byte	0
 1266 015f 00       		.byte	0
 1267 0160 1D       		.uleb128 0x1d
 1268 0161 34       		.uleb128 0x34
 1269 0162 00       		.byte	0
 1270 0163 03       		.uleb128 0x3
 1271 0164 08       		.uleb128 0x8
 1272 0165 3A       		.uleb128 0x3a
 1273 0166 0B       		.uleb128 0xb
 1274 0167 3B       		.uleb128 0x3b
 1275 0168 05       		.uleb128 0x5
 1276 0169 49       		.uleb128 0x49
 1277 016a 13       		.uleb128 0x13
 1278 016b 3F       		.uleb128 0x3f
 1279 016c 19       		.uleb128 0x19
 1280 016d 3C       		.uleb128 0x3c
 1281 016e 19       		.uleb128 0x19
 1282 016f 00       		.byte	0
 1283 0170 00       		.byte	0
 1284 0171 1E       		.uleb128 0x1e
 1285 0172 2E       		.uleb128 0x2e
 1286 0173 01       		.byte	0x1
 1287 0174 3F       		.uleb128 0x3f
 1288 0175 19       		.uleb128 0x19
 1289 0176 03       		.uleb128 0x3
 1290 0177 0E       		.uleb128 0xe
 1291 0178 3A       		.uleb128 0x3a
 1292 0179 0B       		.uleb128 0xb
 1293 017a 3B       		.uleb128 0x3b
 1294 017b 05       		.uleb128 0x5
 1295 017c 27       		.uleb128 0x27
 1296 017d 19       		.uleb128 0x19
 1297 017e 49       		.uleb128 0x49
 1298 017f 13       		.uleb128 0x13
 1299 0180 3C       		.uleb128 0x3c
 1300 0181 19       		.uleb128 0x19
 1301 0182 00       		.byte	0
 1302 0183 00       		.byte	0
ARM GAS  /tmp/cc3ukR0Z.s 			page 38


 1303 0184 1F       		.uleb128 0x1f
 1304 0185 05       		.uleb128 0x5
 1305 0186 00       		.byte	0
 1306 0187 49       		.uleb128 0x49
 1307 0188 13       		.uleb128 0x13
 1308 0189 00       		.byte	0
 1309 018a 00       		.byte	0
 1310 018b 00       		.byte	0
 1311              		.section	.debug_loc,"",%progbits
 1312              	.Ldebug_loc0:
 1313              	.LLST0:
 1314 0000 00000000 		.4byte	.LVL0
 1315 0004 08000000 		.4byte	.LVL1
 1316 0008 0100     		.2byte	0x1
 1317 000a 50       		.byte	0x50
 1318 000b 08000000 		.4byte	.LVL1
 1319 000f 0A000000 		.4byte	.LVL2
 1320 0013 0400     		.2byte	0x4
 1321 0015 F3       		.byte	0xf3
 1322 0016 01       		.uleb128 0x1
 1323 0017 50       		.byte	0x50
 1324 0018 9F       		.byte	0x9f
 1325 0019 0A000000 		.4byte	.LVL2
 1326 001d 24000000 		.4byte	.LVL6
 1327 0021 0100     		.2byte	0x1
 1328 0023 50       		.byte	0x50
 1329 0024 24000000 		.4byte	.LVL6
 1330 0028 30000000 		.4byte	.LFE98
 1331 002c 0400     		.2byte	0x4
 1332 002e F3       		.byte	0xf3
 1333 002f 01       		.uleb128 0x1
 1334 0030 50       		.byte	0x50
 1335 0031 9F       		.byte	0x9f
 1336 0032 00000000 		.4byte	0
 1337 0036 00000000 		.4byte	0
 1338              	.LLST1:
 1339 003a 00000000 		.4byte	.LVL0
 1340 003e 08000000 		.4byte	.LVL1
 1341 0042 0100     		.2byte	0x1
 1342 0044 51       		.byte	0x51
 1343 0045 08000000 		.4byte	.LVL1
 1344 0049 0A000000 		.4byte	.LVL2
 1345 004d 0400     		.2byte	0x4
 1346 004f F3       		.byte	0xf3
 1347 0050 01       		.uleb128 0x1
 1348 0051 51       		.byte	0x51
 1349 0052 9F       		.byte	0x9f
 1350 0053 0A000000 		.4byte	.LVL2
 1351 0057 27000000 		.4byte	.LVL7-1
 1352 005b 0100     		.2byte	0x1
 1353 005d 51       		.byte	0x51
 1354 005e 27000000 		.4byte	.LVL7-1
 1355 0062 30000000 		.4byte	.LFE98
 1356 0066 0400     		.2byte	0x4
 1357 0068 F3       		.byte	0xf3
 1358 0069 01       		.uleb128 0x1
 1359 006a 51       		.byte	0x51
ARM GAS  /tmp/cc3ukR0Z.s 			page 39


 1360 006b 9F       		.byte	0x9f
 1361 006c 00000000 		.4byte	0
 1362 0070 00000000 		.4byte	0
 1363              	.LLST3:
 1364 0074 14000000 		.4byte	.LVL3
 1365 0078 1C000000 		.4byte	.LVL5
 1366 007c 0100     		.2byte	0x1
 1367 007e 53       		.byte	0x53
 1368 007f 00000000 		.4byte	0
 1369 0083 00000000 		.4byte	0
 1370              	.LLST4:
 1371 0087 00000000 		.4byte	.LVL8
 1372 008b 12000000 		.4byte	.LVL11
 1373 008f 0100     		.2byte	0x1
 1374 0091 50       		.byte	0x50
 1375 0092 12000000 		.4byte	.LVL11
 1376 0096 1E000000 		.4byte	.LVL15
 1377 009a 0100     		.2byte	0x1
 1378 009c 56       		.byte	0x56
 1379 009d 1E000000 		.4byte	.LVL15
 1380 00a1 20000000 		.4byte	.LVL17
 1381 00a5 0400     		.2byte	0x4
 1382 00a7 F3       		.byte	0xf3
 1383 00a8 01       		.uleb128 0x1
 1384 00a9 50       		.byte	0x50
 1385 00aa 9F       		.byte	0x9f
 1386 00ab 20000000 		.4byte	.LVL17
 1387 00af 30000000 		.4byte	.LFE99
 1388 00b3 0100     		.2byte	0x1
 1389 00b5 56       		.byte	0x56
 1390 00b6 00000000 		.4byte	0
 1391 00ba 00000000 		.4byte	0
 1392              	.LLST5:
 1393 00be 00000000 		.4byte	.LVL8
 1394 00c2 12000000 		.4byte	.LVL11
 1395 00c6 0100     		.2byte	0x1
 1396 00c8 51       		.byte	0x51
 1397 00c9 12000000 		.4byte	.LVL11
 1398 00cd 1E000000 		.4byte	.LVL16
 1399 00d1 0100     		.2byte	0x1
 1400 00d3 57       		.byte	0x57
 1401 00d4 1E000000 		.4byte	.LVL16
 1402 00d8 20000000 		.4byte	.LVL17
 1403 00dc 0400     		.2byte	0x4
 1404 00de F3       		.byte	0xf3
 1405 00df 01       		.uleb128 0x1
 1406 00e0 51       		.byte	0x51
 1407 00e1 9F       		.byte	0x9f
 1408 00e2 20000000 		.4byte	.LVL17
 1409 00e6 30000000 		.4byte	.LFE99
 1410 00ea 0100     		.2byte	0x1
 1411 00ec 57       		.byte	0x57
 1412 00ed 00000000 		.4byte	0
 1413 00f1 00000000 		.4byte	0
 1414              	.LLST7:
 1415 00f5 12000000 		.4byte	.LVL11
 1416 00f9 1E000000 		.4byte	.LVL13
ARM GAS  /tmp/cc3ukR0Z.s 			page 40


 1417 00fd 0100     		.2byte	0x1
 1418 00ff 54       		.byte	0x54
 1419 0100 20000000 		.4byte	.LVL17
 1420 0104 30000000 		.4byte	.LFE99
 1421 0108 0100     		.2byte	0x1
 1422 010a 54       		.byte	0x54
 1423 010b 00000000 		.4byte	0
 1424 010f 00000000 		.4byte	0
 1425              	.LLST8:
 1426 0113 04000000 		.4byte	.LVL9
 1427 0117 1E000000 		.4byte	.LVL14
 1428 011b 0100     		.2byte	0x1
 1429 011d 55       		.byte	0x55
 1430 011e 20000000 		.4byte	.LVL17
 1431 0122 30000000 		.4byte	.LFE99
 1432 0126 0100     		.2byte	0x1
 1433 0128 55       		.byte	0x55
 1434 0129 00000000 		.4byte	0
 1435 012d 00000000 		.4byte	0
 1436              		.section	.debug_aranges,"",%progbits
 1437 0000 24000000 		.4byte	0x24
 1438 0004 0200     		.2byte	0x2
 1439 0006 00000000 		.4byte	.Ldebug_info0
 1440 000a 04       		.byte	0x4
 1441 000b 00       		.byte	0
 1442 000c 0000     		.2byte	0
 1443 000e 0000     		.2byte	0
 1444 0010 00000000 		.4byte	.LFB98
 1445 0014 30000000 		.4byte	.LFE98-.LFB98
 1446 0018 00000000 		.4byte	.LFB99
 1447 001c 30000000 		.4byte	.LFE99-.LFB99
 1448 0020 00000000 		.4byte	0
 1449 0024 00000000 		.4byte	0
 1450              		.section	.debug_ranges,"",%progbits
 1451              	.Ldebug_ranges0:
 1452 0000 00000000 		.4byte	.LFB98
 1453 0004 30000000 		.4byte	.LFE98
 1454 0008 00000000 		.4byte	.LFB99
 1455 000c 30000000 		.4byte	.LFE99
 1456 0010 00000000 		.4byte	0
 1457 0014 00000000 		.4byte	0
 1458              		.section	.debug_line,"",%progbits
 1459              	.Ldebug_line0:
 1460 0000 6D010000 		.section	.debug_str,"MS",%progbits,1
 1460      02002701 
 1460      00000201 
 1460      FB0E0D00 
 1460      01010101 
 1461              	.LASF20:
 1462 0000 74687265 		.ascii	"thread_t\000"
 1462      61645F74 
 1462      00
 1463              	.LASF42:
 1464 0009 74687265 		.ascii	"threads_queue_t\000"
 1464      6164735F 
 1464      71756575 
 1464      655F7400 
ARM GAS  /tmp/cc3ukR0Z.s 			page 41


 1465              	.LASF40:
 1466 0019 6E657874 		.ascii	"nexttime\000"
 1466      74696D65 
 1466      00
 1467              	.LASF23:
 1468 0022 65706D61 		.ascii	"epmask\000"
 1468      736B00
 1469              	.LASF47:
 1470 0029 474E5520 		.ascii	"GNU C 4.8.2 -mcpu=cortex-m0 -mno-thumb-interwork -m"
 1470      4320342E 
 1470      382E3220 
 1470      2D6D6370 
 1470      753D636F 
 1471 005c 7468756D 		.ascii	"thumb -ggdb -O2 -fomit-frame-pointer -falign-functi"
 1471      62202D67 
 1471      67646220 
 1471      2D4F3220 
 1471      2D666F6D 
 1472 008f 6F6E733D 		.ascii	"ons=16 -ffunction-sections -fdata-sections -fno-com"
 1472      3136202D 
 1472      6666756E 
 1472      6374696F 
 1472      6E2D7365 
 1473 00c2 6D6F6E20 		.ascii	"mon -flto\000"
 1473      2D666C74 
 1473      6F00
 1474              	.LASF45:
 1475 00cc 5F5F6675 		.ascii	"__func__.5168\000"
 1475      6E635F5F 
 1475      2E353136 
 1475      3800
 1476              	.LASF3:
 1477 00da 73686F72 		.ascii	"short int\000"
 1477      7420696E 
 1477      7400
 1478              	.LASF35:
 1479 00e4 6E696C5F 		.ascii	"nil_system_t\000"
 1479      73797374 
 1479      656D5F74 
 1479      00
 1480              	.LASF10:
 1481 00f1 6C6F6E67 		.ascii	"long long int\000"
 1481      206C6F6E 
 1481      6720696E 
 1481      7400
 1482              	.LASF48:
 1483 00ff 2E2E2F2E 		.ascii	"../../../os/hal/osal/nil/osal.c\000"
 1483      2E2F2E2E 
 1483      2F6F732F 
 1483      68616C2F 
 1483      6F73616C 
 1484              	.LASF17:
 1485 011f 6576656E 		.ascii	"eventmask_t\000"
 1485      746D6173 
 1485      6B5F7400 
 1486              	.LASF26:
 1487 012b 6E696C5F 		.ascii	"nil_thread\000"
ARM GAS  /tmp/cc3ukR0Z.s 			page 42


 1487      74687265 
 1487      616400
 1488              	.LASF43:
 1489 0136 6F73616C 		.ascii	"osalThreadDequeueNextI\000"
 1489      54687265 
 1489      61644465 
 1489      71756575 
 1489      654E6578 
 1490              	.LASF25:
 1491 014d 72656761 		.ascii	"regarm_t\000"
 1491      726D5F74 
 1491      00
 1492              	.LASF12:
 1493 0156 75696E74 		.ascii	"uint8_t\000"
 1493      385F7400 
 1494              	.LASF36:
 1495 015e 6E696C5F 		.ascii	"nil_system\000"
 1495      73797374 
 1495      656D00
 1496              	.LASF29:
 1497 0169 73656D61 		.ascii	"semaphore_t\000"
 1497      70686F72 
 1497      655F7400 
 1498              	.LASF41:
 1499 0175 74687265 		.ascii	"threads\000"
 1499      61647300 
 1500              	.LASF30:
 1501 017d 6E696C5F 		.ascii	"nil_semaphore\000"
 1501      73656D61 
 1501      70686F72 
 1501      6500
 1502              	.LASF11:
 1503 018b 6C6F6E67 		.ascii	"long long unsigned int\000"
 1503      206C6F6E 
 1503      6720756E 
 1503      7369676E 
 1503      65642069 
 1504              	.LASF46:
 1505 01a2 5F5F6675 		.ascii	"__func__.5177\000"
 1505      6E635F5F 
 1505      2E353137 
 1505      3700
 1506              	.LASF7:
 1507 01b0 6C6F6E67 		.ascii	"long int\000"
 1507      20696E74 
 1507      00
 1508              	.LASF27:
 1509 01b9 706F7274 		.ascii	"port_context\000"
 1509      5F636F6E 
 1509      74657874 
 1509      00
 1510              	.LASF5:
 1511 01c6 5F5F7569 		.ascii	"__uint8_t\000"
 1511      6E74385F 
 1511      7400
 1512              	.LASF44:
 1513 01d0 6F73616C 		.ascii	"osalThreadDequeueAllI\000"
ARM GAS  /tmp/cc3ukR0Z.s 			page 43


 1513      54687265 
 1513      61644465 
 1513      71756575 
 1513      65416C6C 
 1514              	.LASF21:
 1515 01e6 73746174 		.ascii	"state\000"
 1515      6500
 1516              	.LASF2:
 1517 01ec 756E7369 		.ascii	"unsigned char\000"
 1517      676E6564 
 1517      20636861 
 1517      7200
 1518              	.LASF34:
 1519 01fa 65776D61 		.ascii	"ewmask\000"
 1519      736B00
 1520              	.LASF1:
 1521 0201 7369676E 		.ascii	"signed char\000"
 1521      65642063 
 1521      68617200 
 1522              	.LASF14:
 1523 020d 75696E74 		.ascii	"uint32_t\000"
 1523      33325F74 
 1523      00
 1524              	.LASF49:
 1525 0216 2F686F6D 		.ascii	"/home/awygle/ChibiOS-RT/demos/STM32/NIL-STM32F051-D"
 1525      652F6177 
 1525      79676C65 
 1525      2F436869 
 1525      62694F53 
 1526 0249 4953434F 		.ascii	"ISCOVERY\000"
 1526      56455259 
 1526      00
 1527              	.LASF37:
 1528 0252 63757272 		.ascii	"current\000"
 1528      656E7400 
 1529              	.LASF4:
 1530 025a 73686F72 		.ascii	"short unsigned int\000"
 1530      7420756E 
 1530      7369676E 
 1530      65642069 
 1530      6E7400
 1531              	.LASF19:
 1532 026d 73797374 		.ascii	"systime_t\000"
 1532      696D655F 
 1532      7400
 1533              	.LASF31:
 1534 0277 63686172 		.ascii	"char\000"
 1534      00
 1535              	.LASF13:
 1536 027c 696E7433 		.ascii	"int32_t\000"
 1536      325F7400 
 1537              	.LASF18:
 1538 0284 636E745F 		.ascii	"cnt_t\000"
 1538      7400
 1539              	.LASF39:
 1540 028a 6C617374 		.ascii	"lasttime\000"
 1540      74696D65 
ARM GAS  /tmp/cc3ukR0Z.s 			page 44


 1540      00
 1541              	.LASF9:
 1542 0293 6C6F6E67 		.ascii	"long unsigned int\000"
 1542      20756E73 
 1542      69676E65 
 1542      6420696E 
 1542      7400
 1543              	.LASF8:
 1544 02a5 5F5F7569 		.ascii	"__uint32_t\000"
 1544      6E743332 
 1544      5F7400
 1545              	.LASF50:
 1546 02b0 63685363 		.ascii	"chSchReadyI\000"
 1546      68526561 
 1546      64794900 
 1547              	.LASF28:
 1548 02bc 706F7274 		.ascii	"port_intctx\000"
 1548      5F696E74 
 1548      63747800 
 1549              	.LASF6:
 1550 02c8 5F5F696E 		.ascii	"__int32_t\000"
 1550      7433325F 
 1550      7400
 1551              	.LASF33:
 1552 02d2 73656D70 		.ascii	"semp\000"
 1552      00
 1553              	.LASF32:
 1554 02d7 74687265 		.ascii	"thread_reference_t\000"
 1554      61645F72 
 1554      65666572 
 1554      656E6365 
 1554      5F7400
 1555              	.LASF15:
 1556 02ea 74737461 		.ascii	"tstate_t\000"
 1556      74655F74 
 1556      00
 1557              	.LASF24:
 1558 02f3 73697A65 		.ascii	"sizetype\000"
 1558      74797065 
 1558      00
 1559              	.LASF0:
 1560 02fc 756E7369 		.ascii	"unsigned int\000"
 1560      676E6564 
 1560      20696E74 
 1560      00
 1561              	.LASF16:
 1562 0309 6D73675F 		.ascii	"msg_t\000"
 1562      7400
 1563              	.LASF22:
 1564 030f 74696D65 		.ascii	"timeout\000"
 1564      6F757400 
 1565              	.LASF38:
 1566 0317 6E657874 		.ascii	"next\000"
 1566      00
 1567              		.comm	__gnu_lto_v1,1,1
 1568              		.ident	"GCC: (4.8.2-14ubuntu1+6) 4.8.2"
ARM GAS  /tmp/cc3ukR0Z.s 			page 45


DEFINED SYMBOLS
                            *ABS*:0000000000000000 osal.c
     /tmp/cc3ukR0Z.s:256    .text.osalThreadDequeueNextI:0000000000000000 $t
     /tmp/cc3ukR0Z.s:262    .text.osalThreadDequeueNextI:0000000000000000 osalThreadDequeueNextI
     /tmp/cc3ukR0Z.s:315    .text.osalThreadDequeueNextI:000000000000002c $d
     /tmp/cc3ukR0Z.s:321    .text.osalThreadDequeueAllI:0000000000000000 $t
     /tmp/cc3ukR0Z.s:327    .text.osalThreadDequeueAllI:0000000000000000 osalThreadDequeueAllI
     /tmp/cc3ukR0Z.s:392    .text.osalThreadDequeueAllI:000000000000002c $d
                            *COM*:0000000000000001 __gnu_lto_v1
                     .debug_frame:0000000000000010 $d

UNDEFINED SYMBOLS
chSchReadyI
nil
