ARM GAS  /tmp/cc3ukR0Z.s 			page 1


   1              		.cpu cortex-m0
   2              		.fpu softvfp
   3              		.eabi_attribute 20, 1
   4              		.eabi_attribute 21, 1
   5              		.eabi_attribute 23, 3
   6              		.eabi_attribute 24, 1
   7              		.eabi_attribute 25, 1
   8              		.eabi_attribute 26, 1
   9              		.eabi_attribute 30, 2
  10              		.eabi_attribute 34, 0
  11              		.eabi_attribute 18, 4
  12              		.code	16
  13              		.file	"osal.c"
  14              		.text
  15              	.Ltext0:
  16              		.section	.gnu.lto_.jmpfuncs.e5231b4c852126c4,"",%progbits
  17 0000 789C6362 		.ascii	"x\234cb`b\300\006\244\2404\023\0033P\0013\003\003c\031"
  17      6062C006 
  17      A4A03413 
  17      03335001 
  17      33030363 
  18 0015 9083C466 		.ascii	"\220\203\304f\000\000\0172\001!"
  18      00000F32 
  18      0121
  19              		.text
  20              		.section	.gnu.lto_.inline.e5231b4c852126c4,"",%progbits
  21 0000 789C6362 		.ascii	"x\234cb`b\300\006\246Ci\240\254\200\024#\013Cr\004c"
  21      6062C006 
  21      A64369A0 
  21      AC801423 
  21      0B437204 
  22 0015 262390CF 		.ascii	"&#\220\317\314\300\220\206`\202(\020\301\314\300\001"
  22      CCC09086 
  22      60822810 
  22      C1CCC001 
  23 0025 64B02D90 		.ascii	"d\260-\220gb`|\301\256\300\304\300\332\241\256\300\300"
  23      6762607C 
  23      C1AEC0C4 
  23      C0DAA1AE 
  23      C0C0
  24 0037 79EA3750 		.ascii	"y\3527P'\343;&\005\026&\006\346S\034\012`\016\013\330"
  24      27E33B26 
  24      05162606 
  24      E6531C0A 
  24      600E0BD8 
  25 004b 42661E06 		.ascii	"Bf\036\006\026\006\246\011~\023\374\230\030\370\317"
  25      1606A609 
  25      7E13FC98 
  25      18F8CF
  26 005a 30303221 		.ascii	"002!\231\305\302\177\346);\003{\207:\3304\016\010\011"
  26      99C5C27F 
  26      E6293B03 
  26      7B873AD8 
  26      340E0809 
  27 006e D1C408D1 		.ascii	"\321\304\010\321\303\000\000h\245\023\257"
  27      C3000068 
  27      A513AF
ARM GAS  /tmp/cc3ukR0Z.s 			page 2


  28              		.text
  29              		.section	.gnu.lto_.pureconst.e5231b4c852126c4,"",%progbits
  30 0000 789C6362 		.ascii	"x\234cb`b`e\200\000&\006)&)\000\001\010\000B"
  30      60626065 
  30      80002606 
  30      29262900 
  30      01080042 
  31              		.text
  32              		.section	.gnu.lto_osalThreadDequeueNextI.e5231b4c852126c4,"",%progbits
  33 0000 789C8553 		.ascii	"x\234\205SKkSA\024\376\316\314}5\246\251\0207\212\213"
  33      4B6B5341 
  33      14FECECC 
  33      7D35A6A9 
  33      10378A8B 
  34 0014 50418A85 		.ascii	"PA\212\205\024\027\342\302_\340\276\001\305\205$\021"
  34      1417E2C2 
  34      5FE0BE01 
  34      C5852411 
  35 0024 E205A385 		.ascii	"\342\005\243\205\270s\321\311\243PP0\024\027A\027m-"
  35      B873D1C9 
  35      A3505030 
  35      14174117 
  35      6D2D
  36 0036 228828E2 		.ascii	"\"\210(\342V0V\321\270\210\245\273\264\033CA\304\235"
  36      563056D1 
  36      B888A5BB 
  36      B41B4341 
  36      C49D
  37 0048 E0A614F4 		.ascii	"\340\246\024\364z\346\316\275\267\217M\206d\036\347"
  37      7AE6CEBD 
  37      B78F4D86 
  37      641EE7
  38 0057 F19DEF7C 		.ascii	"\361\235\357|3W@\340\350(\360\377\271\004\246x%\017"
  38      335740E0 
  38      E828F0FF 
  38      B904A678 
  38      250F
  39 0069 24DADF80 		.ascii	"$\332\337\200\272'\204\334<\015\225r\336\237\207JKr"
  39      BA2784DC 
  39      3C0D9572 
  39      DE9F874A 
  39      4B72
  40 007b B5995C61 		.ascii	"\265\231\\a\265\\\266\332\017\276\200\315\0269&\332"
  40      B55CB6DA 
  40      0FBE80CD 
  40      163926DA 
  41 008b 36FE0F9E 		.ascii	"6\376\017\236C\2447 \314\013\351Z\266C\363WI\227\021"
  41      43A43720 
  41      CC0BE95A 
  41      B643F357 
  41      499711
  42 009e 9358556A 		.ascii	"\223XUji\270\260\374\350\244Zi\264\325\277  \237\230"
  42      69B8B0FC 
  42      E8A45A69 
  42      B4D5BF20 
  42      209F98
  43 00b1 D0194299 		.ascii	"\320\031B\231p\205\017\224\013\027a\035fh2\273\301\337"
ARM GAS  /tmp/cc3ukR0Z.s 			page 3


  43      70850F94 
  43      0B17611D 
  43      666832BB 
  43      C1DF
  44 00c3 1EA92555 		.ascii	"\036\251%U\377\035\004\023>I\201\263\243\022_\213\356"
  44      FF1D0413 
  44      3E4981B3 
  44      A3125F8B 
  44      EE
  45 00d4 3008DE6D 		.ascii	"0\010\336m,\177>E\023\204\"\255\321$$U\011\026\037V"
  45      2C7F3E45 
  45      138422AD 
  45      D1242455 
  45      09161F56 
  46 00e8 F9E0C027 		.ascii	"\371\340\300'\313\215<\036\0370\246-)=\2459\2202\221"
  46      CB8D3C1E 
  46      1F30A62D 
  46      293DA539 
  46      903291
  47 00fb 8F878D96 		.ascii	"\217\207\215\226R\355\234I\254\022+Y\016;\233\345\271"
  47      52ED9C49 
  47      AC122B59 
  47      0E3B9BE5 
  47      B9
  48 010c 9345812D 		.ascii	"\223E\201-\235\254\354\243\261\327\374\363Q\024\351"
  48      9DACECA3 
  48      B1D7FCF3 
  48      5114E9
  49 011b 19D9A890 		.ascii	"\031\331\250\220u\017{\212\3075\306\236\306\013\275"
  49      750F7B8A 
  49      C735C69E 
  49      C60BBD
  50 012a ADF9643F 		.ascii	"\255\371d?\301c&\354THj\342nH\267D\007\270\177E\243"
  50      C16326EC 
  50      54486AE2 
  50      6E48B744 
  50      07B87F45 
  51 013f 3B65404C 		.ascii	";e@LE\206\002\372X\337\036|\2271\270\243\021[\014\340"
  51      458602FA 
  51      58DF1E7C 
  51      9731B8A3 
  51      115B0CE0 
  52 0153 4DE3DC08 		.ascii	"M\343\334\010\324\022\305\360=|\372Q\037O0t\350!\341"
  52      D412C5F0 
  52      3D7CFA51 
  52      1F4F3074 
  52      E821E1
  53 0166 0A24D172 		.ascii	"\012$\321r\371Il\301\325\354\027U7x\303Ac\021\377\353"
  53      F9496CC1 
  53      D5EC1755 
  53      3778C341 
  53      6311FFEB 
  54 017a 3EA5AA24 		.ascii	">\245\252$K\224<&\261+u\232\013\276{b\346\036\"\331"
  54      4B943C26 
  54      B12B759A 
  54      0BBE7B62 
  54      E61E22D9 
ARM GAS  /tmp/cc3ukR0Z.s 			page 4


  55 018e 2ABA284B 		.ascii	"*\272(K\262=\330\351\211D@#\250!\300\243\022\321\217"
  55      B23DD8E9 
  55      89444023 
  55      A821C0A3 
  55      12D18F
  56 01a1 F5B9E4D3 		.ascii	"\365\271\344\3231\323I\232\3635=\031u\020\257\326~'"
  56      31D3499A 
  56      F3353D19 
  56      7510AFD6 
  56      7E27
  57 01b3 3FEB178A 		.ascii	"?\353\027\212\364*\354\304\253\354\367\261\005\252\220"
  57      F42AECC4 
  57      ABECF7B1 
  57      05AA90
  58 01c2 2B79CAD8 		.ascii	"+y\312\330/\337\336\320\354,\335\224\026pwg@q\316X\242"
  58      2FDFDED0 
  58      EC2CDD94 
  58      16707767 
  58      4071CE58 
  59 01d7 A0A96847 		.ascii	"\240\251hG\332\035\325\254\217\346b\363i\222\226\342"
  59      DA1DD5AC 
  59      8FE662F3 
  59      699296E2 
  60 01e7 4C1DE651 		.ascii	"L\035\346Q\350[\277l\034!X]]\034\001\307\371\300\006"
  60      E85BBF6C 
  60      1C21585D 
  60      5D1C01C7 
  60      F9C006
  61 01fa 16860FD7 		.ascii	"\026\206\017\327\034\223\010\030\241\217\3734^N\242"
  61      1C930818 
  61      A18FFB34 
  61      5E4EA2
  62 0209 987DDAE7 		.ascii	"\230}\332\347'\030\335\212\015\376\352\270\203\346\375"
  62      2718DD8A 
  62      0DFEEAB8 
  62      83E6FD
  63 0218 E6AF74CC 		.ascii	"\346\257t\314$\023I$N\204\217F\030{\254~\222\353\350"
  63      24134924 
  63      4E848F46 
  63      187BAC7E 
  63      92EBE8
  64 022b B7B989FA 		.ascii	"\267\271\211\372JG\306\025\315\230\345j\235\254\276"
  64      4A47C615 
  64      CD98E56A 
  64      9DACBE
  65 023a C95C3E3F 		.ascii	"\311\\>?c~wj37\213\267x\341\351\266o6\3712DmN\334\235"
  65      637E776A 
  65      33378BB7 
  65      78E1E9B6 
  65      6F36F932 
  66 0253 FB0FC34E 		.ascii	"\373\017\303N\330B"
  66      D842
  67              		.text
  68              		.section	.gnu.lto_osalThreadDequeueAllI.e5231b4c852126c4,"",%progbits
  69 0000 789C8D53 		.ascii	"x\234\215S\315KTQ\024?\277{\337\307|<?\2026E\213A!*"
  69      CD4B5451 
  69      143FBF7B 
ARM GAS  /tmp/cc3ukR0Z.s 			page 5


  69      DFC77C3C 
  69      3F823645 
  70 0018 437165FF 		.ascii	"Cqe\377B{\245\242\3258\213\347\2034Aw-|\343\214$d\""
  70      427BA5A2 
  70      D5388BE7 
  70      83344177 
  70      2D7CE38C 
  71 002f 4560B551 		.ascii	"E`\265QD\202\010Z\026\270yV\370\001Y\264K!\0300\011"
  71      4482085A 
  71      16B87956 
  71      F80159B4 
  71      4B211830 
  72 0044 37192561 		.ascii	"7\031%afM\347\276{\237\215.\262\313\314;\367\236w\316"
  72      664DE7BE 
  72      7B9F8D2E 
  72      B2CBCC3B 
  72      F79E77CE 
  73 0058 EFFC7EE7 		.ascii	"\357\374~\347\236'H\320\341u\211\377\027-\242\363l\221"
  73      9E2748D0 
  73      E17589FF 
  73      172DA2F3 
  73      6C91
  74 006a 22888937 		.ascii	"\"\210\2117D\305\224\200\2437RXS6\205\031\373\313\022"
  74      44C59480 
  74      A3375258 
  74      53368519 
  74      FBCB12
  75 007d 51E859B0 		.ascii	"Q\350Y\260\265\337\326\001\363)G\310\261E~\225q\313"
  75      B5DFD601 
  75      F32947C8 
  75      B1457E95 
  75      71CB
  76 008f 2E07B880 		.ascii	".\007\270\200\362\023hHH\313v\\\014]\201*$\233h:\014"
  76      F2136848 
  76      48CB765C 
  76      0C5D812A 
  76      249B683A 
  77 00a4 EF54363E 		.ascii	"\357T6>G\342~\030\225\247\302\275j\025\010\300\244\232"
  77      47E27E18 
  77      95A7C2BD 
  77      6A1508C0 
  77      A49A
  78 00b6 4105D065 		.ascii	"A\005\320e> \027\033a\035d\251s\243\037\013\343'\302"
  78      3E20171B 
  78      611D64A9 
  78      73A31F0B 
  78      E327C2
  79 00c9 A9E189F0 		.ascii	"\251\341\211\3607\247\006\220\202N\377W\346D\364sa\254"
  79      37A70690 
  79      824EFF57 
  79      E644F473 
  79      61AC
  80 00db 36D31274 		.ascii	"6\323\022t\366\250\314\247\"\252T\253O\236m\257o\342"
  80      F6A8CCA7 
  80      22AA54AB 
  80      4F9E6DAF 
  80      6FE2
ARM GAS  /tmp/cc3ukR0Z.s 			page 6


  81 00ed 5823288F 		.ascii	"X#(\217\03141\331<f\331Jc\035\364\202\\>L\363!m\234"
  81      193431D9 
  81      3C66D94A 
  81      631DF482 
  81      5C3E4CF3 
  82 0104 5962599E 		.ascii	"YbY\2369\324q\004\032L:/\233\312\314(\2473\264W\007"
  82      39D47104 
  82      1A4C3A2F 
  82      9BCACC28 
  82      A733B457 
  83 0119 F682AFA7 		.ascii	"\366\202\257\247\0207\253\223\237\334\316.\366\224]"
  83      1037AB93 
  83      9FDCCE2E 
  83      F6945D
  84 0128 B942C3BB 		.ascii	"\271B\303\273\245\255\333g\362x\004\233|\2707h7\344"
  84      A5ADDB67 
  84      F278049B 
  84      7CB83768 
  84      37E4
  85 013a 7595ABB4 		.ascii	"u\225\253\264\320c\265\035\010`?\244\007,\303\361\341"
  85      D063B51D 
  85      08603FA4 
  85      072CC3F1 
  85      E1
  86 014b 28396E2C 		.ascii	"(9n,\242\0335\212\226i82 \272\272\257\242V\350\305\332"
  86      A21B358A 
  86      96693832 
  86      20BABAAF 
  86      A256E8C5 
  87 0160 CED68504 		.ascii	"\316\326\205\004<\255\020\313\305\260#@J#\332\006\221"
  87      3CAD10CB 
  87      C5B02340 
  87      4A23DA06 
  87      91
  88 0171 0C226AE0 		.ascii	"\014\"j\340\334\004n6\206K\307p\317'\277\276\207~a\300"
  88      DC046E36 
  88      864BC770 
  88      CF27BFBE 
  88      877E61C0 
  89 0185 B2478029 		.ascii	"\262G\200)O\332`V\226_\"AU\315QbG\303\260=@\306\210"
  89      4FDA6056 
  89      965F2241 
  89      55CD5162 
  89      47C3B03D 
  90 019c 656AD95E 		.ascii	"ej\331^\310n\034\032\347.H\342YT\375Z\233\374\276\203"
  90      C86E1C1A 
  90      E72E48E2 
  90      5954FD5A 
  90      9BFCBE83 
  91 01b0 4452B685 		.ascii	"DR\266\205\316\375m\025g{\232K\235\017\250\312\322p"
  91      CEFD6D15 
  91      677B9A4B 
  91      9D0FA8CA 
  91      D270
  92 01c2 496C3208 		.ascii	"Il2\010K\364\352S\261}\037\3057=5\265,\372hq\251\322"
  92      4BF4EA53 
  92      B17D1FC5 
ARM GAS  /tmp/cc3ukR0Z.s 			page 7


  92      373D35B5 
  92      2CFA6871 
  93 01d8 68E9DBF8 		.ascii	"h\351\333\370\311$\310\363!\025\244\205X\2148\330\036"
  93      C924C8F3 
  93      2115A485 
  93      588C38D8 
  93      1E
  94 01e9 8FE82D8D 		.ascii	"\217\350-\215T>\254\033jd\3045\006\250/\230V0'\037u"
  94      543EAC1B 
  94      6A64C435 
  94      06A82F98 
  94      5630271F 
  95 01fe 014F8CA9 		.ascii	"\001O\214\251c\307\232\2701)\332\007\022\252\317\245"
  95      63C79AB8 
  95      3129DA07 
  95      12AACFA5 
  96 020e 5BA55FF5 		.ascii	"[\245_\365I\341\006\243E\034?Xx&\216\217\301VI0;\311"
  96      49E106A3 
  96      451C3F58 
  96      78268E8F 
  96      C1564930 
  97 0224 F09EF57A 		.ascii	"\360\236\365z\256Ga;\304\037\353!l\031\337B\354\320"
  97      AE47613B 
  97      C41FEB21 
  97      6C19DF42 
  97      ECD0
  98 0236 C9883BB1 		.ascii	"\311\210;\2611\177o\321K\252\311\375\013\323k\225\240"
  98      317F6FD1 
  98      4BAAC9FD 
  98      0BD36B95 
  98      A0
  99 0247 9544776F 		.ascii	"\225Dwoz\377\272(\321\303d\354\275\271S\253$y\\\304"
  99      7AFFBA28 
  99      D1C364EC 
  99      BDB953AB 
  99      24795CC4 
 100 025b 76078BB1 		.ascii	"v\007\213\261\241\270\270j\324\337Q\261\262\331\234"
 100      A1B8B86A 
 100      D4DF51B1 
 100      B2D99C
 101 026a 7447AF4E 		.ascii	"tG\257NfPv\025D\256\265\265M\377\256\017\264\365\344"
 101      66507615 
 101      44AEB5B5 
 101      4DFFAE0F 
 101      B4F5E4
 102 027d AFB1E147 		.ascii	"\257\261\341G_\2407\255\005\022\003\375b\260_\026\372"
 102      5FA037AD 
 102      051203FD 
 102      62B05F16 
 102      FA
 103 028e 06FF00B5 		.ascii	"\006\377\000\265H\010n"
 103      48086E
 104              		.text
 105              		.section	.gnu.lto_.symbol_nodes.e5231b4c852126c4,"",%progbits
 106 0000 789C6362 		.ascii	"x\234cb`bpe\200\002\246G\014\365\014\014\023\31610\324"
 106      60627065 
 106      8002A647 
ARM GAS  /tmp/cc3ukR0Z.s 			page 8


 106      0CF50C0C 
 106      13CE3130 
 107 0015 D7CFEB60 		.ascii	"\327\317\353`d}\002\024\253g`z\314P\317\210\020e|\312"
 107      647D0214 
 107      AB67607A 
 107      CC50CF88 
 107      10657CCA 
 108 0029 50CF04E1 		.ascii	"P\317\004\3416402303\034n{\317\312\314\004\242\337H"
 108      36343032 
 108      3330331C 
 108      6E7BCFCA 
 108      CC04A2DF 
 109 003e 310000D0 		.ascii	"1\000\000\320\231\024_"
 109      99145F
 110              		.text
 111              		.section	.gnu.lto_.refs.e5231b4c852126c4,"",%progbits
 112 0000 789C6362 		.ascii	"x\234cb`b\340d\200\000F\006&FF&&F\006\000\0010\000\030"
 112      6062E064 
 112      80004606 
 112      26464626 
 112      26460600 
 113              		.text
 114              		.section	.gnu.lto_.decls.e5231b4c852126c4,"",%progbits
 115 0000 789CBD59 		.ascii	"x\234\275Y}l\034\305\025\237\231\373\36096I\010M\352"
 115      7D6C1CC5 
 115      159F99FB 
 115      F0393649 
 115      084DEA
 116 0013 AA8A622A 		.ascii	"\252\212b*\202\012\224\034iKb\244\002BA\"\221\012\252"
 116      820A941C 
 116      694B62A4 
 116      02424122 
 116      910AAA
 117 0026 2848FCB7 		.ascii	"(H\374\267\335^6\234\305\335\371\330\333\203\344/\346"
 117      DD5E369C 
 117      C5DDF9D8 
 117      DB83E42F 
 117      E6
 118 0037 6C134AAA 		.ascii	"l\023J\252&\256KjGml\247\304\245.!_\216Ih\010]Bl\034"
 118      26AE4B6A 
 118      476D6CA7 
 118      C4A52E21 
 118      5F8E4968 
 119 0050 278D6D15 		.ascii	"'\215m\0257\011\0208\034\032\324\376\0257\010\007\201"
 119      37091038 
 119      1C1AD4FE 
 119      15370807 
 119      81
 120 0061 70DFCCCE 		.ascii	"p\337\314\316\336\355\256w}{\027\332\225gwv\347\275"
 120      DEEDAE77 
 120      7D7B17DA 
 120      95677776 
 120      E7BD
 121 0073 DFFB98F7 		.ascii	"\337\373\230\367\346\315\234\011\"\350\307\030\241\031"
 121      E6CD9C09 
 121      22E8C718 
 121      A119
ARM GAS  /tmp/cc3ukR0Z.s 			page 9


 122 0081 B86EF936 		.ascii	"\270n\3716B\313\002\010\301\037\272\007\032|Fad\\\354"
 122      42CB0208 
 122      C11FBA07 
 122      1A7C4661 
 122      645CEC
 123 0094 DB2E6827 		.ascii	"\333.h'\241\235\021c\337\305\310v\261\361\005\254\301"
 123      A19D1163 
 123      DFC5C876 
 123      B1F105AC 
 123      C1
 124 00a5 F7F9F0AC 		.ascii	"\367\371\360\254\2056&0\366@\353\205\266\033Z?\264\037"
 124      85362630 
 124      F640EB85 
 124      B61B5A3F 
 124      B41F
 125 00b7 014D03B4 		.ascii	"\001M\003\264\000\264qx\277\033\236\243\360\014A{\031"
 125      00B47178 
 125      BF1B9EA3 
 125      F00C417B 
 125      19
 126 00c8 DA4168AB 		.ascii	"\332Ah\253\341\033aX\354)\360\231\354 \264\023\320\206"
 126      E11B6158 
 126      EC29F099 
 126      EC20B413 
 126      D086
 127 00da 989E78B6 		.ascii	"\230\236x\266\036L\307\205.z\014\270\350\021\256P\027"
 127      1E4CC785 
 127      2E7A0CB8 
 127      E811AE50 
 127      17
 128 00eb D30F4C97 		.ascii	"\323\017L\227S\320NC[\353\242\3132\324E{\362\371\177"
 128      53D04E43 
 128      5BEBA2CB 
 128      32D4457B 
 128      F2F97F
 129 00fe 769DC2B4 		.ascii	"v\235\302\264\235~93\023@K\320v\012W\317fJ\261&\343"
 129      9D7E3933 
 129      13404BD0 
 129      760A57CF 
 129      664AB126 
 130 0113 7B16A3C7 		.ascii	"{\026\243\307\260\214\347W\243z\336\251\255\346\240"
 130      B08CE757 
 130      A37ADEA9 
 130      ADE6A0
 131 0122 08C9F80F 		.ascii	"\010\311\370\017x\211p>\023\211j\320\026J\233\031\343"
 131      7889703E 
 131      13896AD0 
 131      164A9B19 
 131      E3
 132 0133 DAE1F98B 		.ascii	"\332\341\371\213\320\2579Jx\030Lt\003X\216vS\332\226"
 132      D0AF394A 
 132      78184C74 
 132      03588E76 
 132      53DA96
 133 0146 EF18E80A 		.ascii	"\357\030\350\012P\032\221q/^\0040\367ct+\352\003\306"
 133      501A9171 
 133      2F5E0430 
ARM GAS  /tmp/cc3ukR0Z.s 			page 10


 133      F763742B 
 133      EA03C6
 134 0159 3680BACD 		.ascii	"6\200\272\315\241,\277J\0023\315\372\000L\306\177\302"
 134      A12CBF4A 
 134      0233CDFA 
 134      004CC67F 
 134      C2
 135 016a B71A62A8 		.ascii	"\267\032b\250\3361ZK\203\306w$F\\\256\033Q\017#\336"
 135      DE315A4B 
 135      83C67724 
 135      465CAE1B 
 135      510F23DE 
 136 017e 31FAC2B7 		.ascii	"1\372\302\267h\317q\354\327\206\351\241\217?\301-\340"
 136      68CF71EC 
 136      D786E9A1 
 136      8F3FC12D 
 136      E0
 137 018f 2E19EFE1 		.ascii	".\031\357\341Vl\3026\031%q\010z\0263\226}N\265wvs\265"
 137      566CC236 
 137      19257108 
 137      7A163396 
 137      7D4EB577 
 138 01a6 F79556BB 		.ascii	"\367\225V\2735\247w\177\370[\256v5\372\005\24591\017"
 138      35A7777F 
 138      F85BAE76 
 138      35FA05A5 
 138      39310F
 139 01b9 732A7E76 		.ascii	"s*~vdh\234+\316Y\350\234,2>\204\227\303=\\]P\204\215"
 139      64689C2B 
 139      CE59E89C 
 139      2C323E84 
 139      97C33D5C 
 140 01d1 C22BE3BC 		.ascii	"\302+\343\274\312\022\024?#\276\260\227*f\326il\367"
 140      CA12143F 
 140      23BEB097 
 140      2A66D669 
 140      6CF7
 141 01e3 840F3942 		.ascii	"\204\0179B\265\2113'\016\340f\356\323\303\240\036A\227"
 141      B5893327 
 141      0EE066EE 
 141      D3C3A01E 
 141      4197
 142 01f5 2B869A1A 		.ascii	"+\206\232\032=\334\300C\354/\034\350\217\304\016\304"
 142      3DDCC043 
 142      EC2F1CE8 
 142      8FC40EC4 
 143 0205 35B65C65 		.ascii	"5\266\\e\231\370\377\346#h?1#\305\315d\3215.A0\307e"
 143      99F8FFE6 
 143      23683F31 
 143      23C5CD64 
 143      D1352E41 
 144 021c 0D39191F 		.ascii	"\0159\031\037\340\023|\020\337X$ \350\020\227\327\367"
 144      E0137C10 
 144      DF582420 
 144      E81097D7 
 144      F7
 145 022d 75C9EBB3 		.ascii	"u\311\353\263\310\3733\227\367\262U\236WB\357\3065&"
ARM GAS  /tmp/cc3ukR0Z.s 			page 11


 145      C8FB3397 
 145      F7B2559E 
 145      5742EFC6 
 145      3526
 146 023f 89586DFC 		.ascii	"\211Xm\374\317\377\331\221\023\343\"=u\036\001GfE\000"
 146      CFFFD991 
 146      13E3223D 
 146      751E0147 
 146      664500
 147 0252 0BB16B98 		.ascii	"\013\261k\230J\031?\032\260\270\354\015\007\376M\350"
 147      4A193F1A 
 147      B0B8EC0D 
 147      07FE4DE8 
 148 0262 454ADB61 		.ascii	"EJ\333a\221\335\007\371I\014c\010\232\340T\273\3602"
 148      91DD07F9 
 148      490C6308 
 148      9AE054BB 
 148      F032
 149 0274 8F74E326 		.ascii	"\217t\343&s\3266zEYk*\177\276\004\233n\230r3\352e\032"
 149      73D6367A 
 149      45596B2A 
 149      7FBE049B 
 149      6E987233 
 150 028b FF8A3EBB 		.ascii	"\377\212>\273\020\363E\034\011.\233\231oab\375`T\003"
 150      10F3451C 
 150      092E9B99 
 150      6F6162FD 
 150      605403
 151 029e FDD3A1DA 		.ascii	"\375\323\241\332\266\\~ff\231\261\304\023t\301\325 "
 151      B65C7E66 
 151      6699B1C4 
 151      1374C1D5 
 151      20
 152 02af 7A9469C5 		.ascii	"z\224i\305\324\224\361 \000\311\370\244/c\246Lcd\374"
 152      D494F120 
 152      00C9F8A4 
 152      2F63A64C 
 152      6364FC
 153 02c2 7609B6B9 		.ascii	"v\011\266\271\2149\3514fd\2661y\2668O\177o\347A\332"
 153      8C39E934 
 153      6664B631 
 153      79B6384F 
 153      7F6FE741 
 154 02d7 FA3CFD6A 		.ascii	"\372<\375j\346\031l+nn\005\253\336\022L=\330\324\346"
 154      E6196C2B 
 154      6E6E05AB 
 154      DE124C3D 
 154      D8D4E6
 155 02ea 1B8568D2 		.ascii	"\033\205h\322\257|\260\224-\311\343|\241\277B\\Wzo\020"
 155      AF7CB094 
 155      2DC9E37C 
 155      A1BF425C 
 155      577A6F10 
 156 02fe 82BEE42C 		.ascii	"\202\276\344,\3578W\372\003\223:\346\213\324;\276JT"
 156      EF3857FA 
 156      03933AE6 
 156      8BD43BBE 
ARM GAS  /tmp/cc3ukR0Z.s 			page 12


 156      4A54
 157 0310 FFE47060 		.ascii	"\377\344p`\007\325[\003>j\313s\001&\361\234Cb\376\374"
 157      07D55B03 
 157      3E6ACB73 
 157      0126F19C 
 157      4362FEFC 
 158 0324 BBA79B71 		.ascii	"\273\247\233q\216\247\3059\0372\233\365\201\221\016"
 158      8EA7C539 
 158      1F329BF5 
 158      81910E
 159 0333 5E5F4ABA 		.ascii	"^_J\272\215\230\362o2\322\201\313\277\340\224?\360\301"
 159      8D98F26F 
 159      32D281CB 
 159      BFE0943F 
 159      F0C1
 160 0345 608B907F 		.ascii	"`\213\220\177\301\227\374\035g^\230-\337s\203\"\222"
 160      C197FC1D 
 160      675E982D 
 160      DF738322 
 160      92
 161 0356 FFFCBB97 		.ascii	"\377\374\273\227\246\204\224\217x\332]\0158\223\377"
 161      A684948F 
 161      78DA5D0D 
 161      3893FF
 162 0365 DE1AAB30 		.ascii	"\336\032\2530\376n! (\0274\365/s\0054\364\006C\207~"
 162      FE6E2120 
 162      281734F5 
 162      2F730534 
 162      F4064387 
 163 037a 83DB5BE8 		.ascii	"\203\333[\350\360\035\246\016\255e#\326\333<\361\373"
 163      F01DA60E 
 163      AD6523D6 
 163      DB3CF1FB 
 164 038a 33B56DB2 		.ascii	"3\265m\262\011\366\234\037\260\210\247zz\227\025\354"
 164      09F69C1F 
 164      B088A77A 
 164      7A9715EC 
 165 039a 976583D9 		.ascii	"\227e\203\3315\333o\005\333\346\007l\241\267f\007\255"
 165      35DB6F05 
 165      DBE6076C 
 165      A1B76607 
 165      AD
 166 03ab 60ED6583 		.ascii	"`\355e\203\3315;d\005\333\356\007\254\316[\263W\255"
 166      D9353B64 
 166      05DBEE07 
 166      ACCE5BB3 
 166      57AD
 167 03bd 609D6583 		.ascii	"`\235e\203\3315;b\005\373\235\037\260z\027\315\012\227"
 167      D9353B62 
 167      05FB9D1F 
 167      B07A17CD 
 167      0A97
 168 03cf 57097DBF 		.ascii	"W\011}\277XB\011\352\012\232kB\245U\235\240]As%\253"
 168      584209EA 
 168      0A9A6B42 
 168      A5559DA0 
 168      5D417325 
ARM GAS  /tmp/cc3ukR0Z.s 			page 13


 169 03e4 2C2FA637 		.ascii	",/\2467\377\255\356\265\275\224\266\204y-o\246\371^"
 169      FFADEEB5 
 169      BD94B684 
 169      792D6FA6 
 169      F95E
 170 03f6 5AD7595C 		.ascii	"Z\327Y\\G\"&\006;\006\024j\371\033w\363e\362*/\206\275"
 170      47222606 
 170      3B06146A 
 170      F91B77F3 
 170      65F22A2F 
 171 040c 41974DA1 		.ascii	"A\227M\241/\240\211\255\257\334\306\201\276\340@{+\006"
 171      2FA089AD 
 171      AFDCC681 
 171      BEE0407B 
 171      2B06
 172 041e 9ADAD665 		.ascii	"\232\332\326e\354.\277\342@\257\006\235\313\213sk\201"
 172      EC2EBFE2 
 172      40AF069D 
 172      CB8B736B 
 172      81
 173 042f ED5B0B3E 		.ascii	"\355[\013>,:3\366\003\317\327JK\220\356\234/\2339\245"
 173      2C3A33F6 
 173      03CFD74A 
 173      4B90EE9C 
 173      2F9B39A5 
 174 0443 561D0A95 		.ascii	"V\035\012\225\364l\335v\266\214\335\200\332K\037\301"
 174      F46CDD76 
 174      B68CDD80 
 174      DA4B1FC1 
 175 0453 5AC80DF6 		.ascii	"Z\310\015\366\012wt\262\216\025N\366\275t};f\3267\373"
 175      0A7774B2 
 175      8E154EF6 
 175      BD747D3B 
 175      66D637FB 
 176 0467 4E813157 		.ascii	"N\2011W\024l\372_'\307L\300{Y\236\015qgT\216769\014"
 176      146CFA5F 
 176      27C74CC0 
 176      7B599E0D 
 176      7167548E 
 177 047f 27E65A5B 		.ascii	"'\346Z[-r\024\246q\217\314\020\033\211\216\311<\341"
 177      2D7214A6 
 177      718FCC10 
 177      1B898EC9 
 177      3CE1
 178 0491 81B38530 		.ascii	"\201\263\2050\205\206g\005\316\030v\024\2461l\253L^"
 178      85866705 
 178      CE187614 
 178      A6316CAB 
 178      4C5E
 179 04a3 9E7F9E58 		.ascii	"\236\177\236X\022\375\275k\264s\302\364\233\303\270"
 179      12FDBD6B 
 179      B473C2F4 
 179      9BC3B8
 180 04b2 3D1EC631 		.ascii	"=\036\3061\005\266Y\025\370\360\032\025x\317\214\004"
 180      05B65915 
 180      F8F01A15 
 180      78CF8C04 
ARM GAS  /tmp/cc3ukR0Z.s 			page 14


 181 04c2 9192BE36 		.ascii	"\221\222\2766\374\203\346\206\277\235\260\244\374\330"
 181      FC83E686 
 181      BF9DB0A4 
 181      FCD8
 182 04d0 3DBBFD1C 		.ascii	"=\273\375\034C\267\016\276)\216\241\3339\324\345\212"
 182      43B70EBE 
 182      298EA1DB 
 182      39D4E58A 
 183 04e0 A1A6B6BD 		.ascii	"\241\246\266\275~\027\237\357N\016\364\371\254\371\256"
 183      7E179FEF 
 183      4E0EF4F9 
 183      ACF9AE
 184 04ef 722C1455 		.ascii	"r,\024U\366\204\256\252.v\330\321c\001\372\037\223\303"
 184      F684AEAA 
 184      2E76D8D1 
 184      6301FA1F 
 184      93C3
 185 0501 3E2554E1 		.ascii	">%T\341\334\025.\330Q\204|T\011\257\355IkK\376\263\315"
 185      DC152ED8 
 185      51847C54 
 185      09AFED49 
 185      6B4BFEB3 
 186 0516 EFD715E7 		.ascii	"\357\327\025\347\277\305\207\247\365\361\256\3054\350"
 186      BFC587A7 
 186      F5F1AEC5 
 186      34E8
 187 0524 636264DC 		.ascii	"cbd\334M\226\373t\305\326\220s\272X<\224\355\321\316"
 187      4D96FB74 
 187      C5D69073 
 187      BA583C94 
 187      EDD1CE
 188 0537 B2BD516F 		.ascii	"\262\275Qo\313\206\351\342\272h\204v\217\037@\267=\226"
 188      CB86E9E2 
 188      BA688476 
 188      8F1F40B7 
 188      3D96
 189 0549 DB653D97 		.ascii	"\333e=\227\310\370\037\374x~\026\216\3472\236\346\367"
 189      C8F81FFC 
 189      787E168E 
 189      E7329EE6 
 189      F7
 190 055a 66C2EE3B 		.ascii	"f\302\356;\371\375E\342\343\330\356s\305\032\265\377"
 190      F9FD45E2 
 190      E3D8EE73 
 190      C51AB5FF 
 191 056a 9068F015 		.ascii	"\220h\360\025^\304!\320q\310~\3111!\246\005/\021\333"
 191      5EC421D0 
 191      71C87EC9 
 191      3121A605 
 191      2F11DB
 192 057d 29F03B68 		.ascii	")\360;h\027\234\002\365\356\376\177\221\034=\336J\331"
 192      179C02F5 
 192      EEFE7F91 
 192      1C3DDE4A 
 192      D9
 193 058e 6F9C18BB 		.ascii	"o\234\030\273\234Zh\330\324\352g\305H\352\276x\316\370"
 193      9C5A68D8 
ARM GAS  /tmp/cc3ukR0Z.s 			page 15


 193      D4EA67C5 
 193      48EABE78 
 193      CEF8
 194 05a0 75B28FB0 		.ascii	"u\262\217\260\343^\277CfI\030(\272\234e\017q\034\367"
 194      E35EBF43 
 194      66491828 
 194      BA9C650F 
 194      711CF7
 195 05b3 8E5D14C7 		.ascii	"\216]\024\307=6R\372\3503q\261P\275\306\3706\361T\001"
 195      3D3652FA 
 195      E83371B1 
 195      50BDC6F8 
 195      36F15401 
 196 05c7 B6B255F5 		.ascii	"\266\262U\365\362E^\276L\270\277\227\015Wo\203\353\270"
 196      F2455EBE 
 196      4CB8BF97 
 196      0D576F83 
 196      EBB8
 197 05d9 5408CB1E 		.ascii	"T\010\313\036\036\226\347\374\000\316u(\271$\3643\340"
 197      1E96E7FC 
 197      00CE7528 
 197      B924F433 
 197      E0
 198 05ea 3E2A1BCE 		.ascii	">*\033\316\252\037\325\333>\211\000\332\365\250ML\227"
 198      AA1FD5DB 
 198      3E8900DA 
 198      F5A84D4C 
 198      97
 199 05fb AD38D390 		.ascii	"\2558\323\220\211\360\023\021CG\310\365\274g\373\215"
 199      89F01311 
 199      4347C8F5 
 199      BC67FB8D 
 200 060b 89537845 		.ascii	"\211SxE\360kb1(\270Jt\314\210%\350\337N\023\354b\313"
 200      F06B6231 
 200      28B84A74 
 200      CC8825E8 
 200      DF4E13EC 
 201 0621 CED46248 		.ascii	"\316\324bH\311x/_\306\366\361\274<\300\357\375\374>"
 201      C9782F5F 
 201      C6F6F1BC 
 201      3CC0EFFD 
 201      FC3E
 202 0633 C0EF87AD 		.ascii	"\300\357\207\255\231J\320\177\012A\354\032\262\014\373"
 202      994AD07F 
 202      0A41EC1A 
 202      B20CFB
 203 0642 6831871C 		.ascii	"h1\207\034e\237y\306\313\007\257\027\313\276\203\213"
 203      659F79C6 
 203      CB07AF17 
 203      CBBE838B 
 204 0652 E5B717D7 		.ascii	"\345\267\027\327\261\"\027\313\325\261\261|/\304f\256"
 204      B12217CB 
 204      D5B1B17C 
 204      2FC466AE 
 205 0662 4DCFF518 		.ascii	"M\317\365\030\271j\316Z\347\374\302\246\\\237{S\316"
 205      B96ACE5A 
 205      E7FCC2A6 
ARM GAS  /tmp/cc3ukR0Z.s 			page 16


 205      5C9F7B53 
 205      CE
 206 0673 FE79402C 		.ascii	"\376y@,;\370:wZ\031\277\311\375v\3342wF\337\354\031"
 206      3BF83A77 
 206      5A19BFC9 
 206      FD76DC32 
 206      7746DFEC 
 207 0688 FBE6CF42 		.ascii	"\373\346\317Bn\377\207\340\000s\263\012\241G\012\277"
 207      6EFF87E0 
 207      0073B30A 
 207      A1470ABF 
 208 0698 007D9313 		.ascii	"\000}\223\023\027\0152H=\310d|\242\3540\034\364\010"
 208      170D3248 
 208      3DC8647C 
 208      A2EC301C 
 208      F408
 209 06aa C32536AD 		.ascii	"\303%6\255M*\260\355\213\220\343\327D\247\026\260\011"
 209      4D2AB0ED 
 209      8B90E3D7 
 209      44A716B0 
 209      09
 210 06bb 0863C137 		.ascii	"\010c\3017\017\233s\244\357x{\013\305t3\315]\206\302"
 210      0F9B73A4 
 210      EF787B0B 
 210      C57433CD 
 210      5D86C2
 211 06ce 6635482F 		.ascii	"f5H/\032\264\037\333\305{\330\355$\223\361H\331v\237"
 211      1AB41FDB 
 211      C57BD8ED 
 211      2493F148 
 211      D9769F
 212 06e1 F2B07BB1 		.ascii	"\362\260{\261\315n\223\012\272C\304\361\303\243S\013"
 212      CD6E930A 
 212      BA43C4F1 
 212      C3A3530B 
 213 06f1 82DA6D76 		.ascii	"\202\332mv\243\372\025+\242\306_S&\032\227\023\360\200"
 213      A3FA152B 
 213      A2C65F53 
 213      261A9713 
 213      F080
 214 0703 5BAAD1E8 		.ascii	"[\252\321\350\254\210\225\"\210\243\005Z\\U\344\365"
 214      AC889522 
 214      88A3055A 
 214      5C55E4F5 
 215 0713 19E9C9AC 		.ascii	"\031\351\311\254\222U$-\374\300C\217\326\257AK\255|"
 215      9255242D 
 215      FCC0438F 
 215      D6AF414B 
 215      AD7C
 216 0725 8CBC3115 		.ascii	"\214\2741\025Kd\327+\321X\034\230j2JRN\307\233T`\270"
 216      4B64D72B 
 216      D1581C98 
 216      6A324A52 
 216      4EC79B54 
 217 073b 0E46A5C2 		.ascii	"\016F\245\302{\203\225/\326\224L6\245\242\351&U\313"
 217      7B83952F 
 217      D6944C36 
ARM GAS  /tmp/cc3ukR0Z.s 			page 17


 217      A5A2E926 
 217      55CB
 218 074d 44EF7BF8 		.ascii	"D\357{\370\3015\017nd\337\322\215\011E\315D\037X\263"
 218      C1350F6E 
 218      64DFD28D 
 218      0945CD44 
 218      1F58B3
 219 0760 06D0B44D 		.ascii	"\006\320\264Mi%\003\220\241XJ\223\264\245\321lF-\310"
 219      69250390 
 219      A1584A93 
 219      B4A5D16C 
 219      462DC8
 220 0773 4A294F27 		.ascii	"J)O'\032\177\036\315h\353\033S\032\320T\301\343\007"
 220      1A7F1ECD 
 220      68EB1B53 
 220      1AD054C1 
 220      E307
 221 0785 DF97B4DB 		.ascii	"\337\227\264\333\335\250\222r,\336\230R\242\322ze\203"
 221      DDA89272 
 221      2CDE9852 
 221      A2D27A65 
 221      83
 222 0796 9C4D0098 		.ascii	"\234M\000\230@\256\226$\301\027\000\031\001P5\224\314"
 222      40AE9624 
 222      C1170019 
 222      01503594 
 222      CC
 223 07a7 3C2E694B 		.ascii	"<.iK\230\007\036\341\326\337\257p\353\037R6j\353\002"
 223      98071EE1 
 223      D6DFAF70 
 223      EB1F5236 
 223      6AEB02
 224 07ba DA93E900 		.ascii	"\332\223\351\000\020,\2365|_\"\261.b\270K\322\3461\263"
 224      102C9E35 
 224      7C5F22B1 
 224      2E62B84B 
 224      D2E631B3 
 225 07ce 8D97     		.ascii	"\215\227"
 226 07d0 5A66A014 		.ascii	"Zf\240\024kJi\300\177KI\007\304c\340'\346D\316\006\252"
 226      6B4A69C0 
 226      7F4B4907 
 226      C463E027 
 226      E644CE06 
 227 07e5 C5B48DB7 		.ascii	"\305\264\215\267\373\343\222\236Z\225\004\316\210\252"
 227      FBE3929E 
 227      5A9504CE 
 227      88AA
 228 07f3 3C2EAB49 		.ascii	"<.\253II#j\003Q\357\012\250+\357\200\266\222\250?$\352"
 228      49236A03 
 228      51EF0AA8 
 228      2BEF80B6 
 228      92A83F24 
 229 0808 9D445D45 		.ascii	"\235D]E\324\325$\241\222L:\000\320\021-\243\311\032"
 229      D4D524A1 
 229      924C3A00 
 229      D0112DA3 
 229      C91A
ARM GAS  /tmp/cc3ukR0Z.s 			page 18


 230 081a 4C545516 		.ascii	"LTU\026d5H\032\370C\364B|\004\247\027\011\243Te\203"
 230      6435481A 
 230      F843F442 
 230      7C04A717 
 230      09A35465 
 231 082f A22AA918 		.ascii	"\242*\251\030\020\00745\035\004W\245k\224\247\224\224"
 231      10073435 
 231      1D0457A5 
 231      6B94A794 
 231      94
 232 0840 9694334F 		.ascii	"\226\2243OHZ$+\0349\317\200`\335\260\3624\033$\331\225"
 232      485A242B 
 232      1C39CF80 
 232      60DDB0F2 
 232      341B24D9 
 233 0855 D5994D19 		.ascii	"\325\231M\031\2551\311$\261GS\026\306\322l\254&\026"
 233      AD31C924 
 233      B1475316 
 233      C6D26CAC 
 233      2616
 234 0867 FF692CFE 		.ascii	"\377i,\3760H\330\264\256\226G\013\020*I\341C\343\245"
 234      3048D8B4 
 234      AE96470B 
 234      102A49E1 
 234      43E3A5
 235 087a 2A965541 		.ascii	"*\226UA\264\026L\201\017#\0119\2431\214\010{c\235*\021"
 235      B4164C81 
 235      0F230939 
 235      A3318C08 
 235      7B639D2A 
 236 088f A501E008 		.ascii	"\245\001\340\010\306\342\262\032\221\244\015\331TL\222"
 236      C6E2B21A 
 236      91A40DD9 
 236      544C92
 237 089e AE333B2B 		.ascii	"\2563;+\356\\\271\252\301\372\266z\365\177\001\311f"
 237      EE5CB9AA 
 237      C1FAB67A 
 237      F57F01C9 
 237      66
 238 08af 3276     		.ascii	"2v"
 239              		.text
 240              		.section	.gnu.lto_.symtab.e5231b4c852126c4,"",%progbits
 241 0000 6F73616C 		.ascii	"osalThreadDequeueNextI\000\000\000\000\000\000\000\000"
 241      54687265 
 241      61644465 
 241      71756575 
 241      654E6578 
 242 001e 00000000 		.ascii	"\000\000\000\000\241\000\000\000osalThreadDequeueAl"
 242      A1000000 
 242      6F73616C 
 242      54687265 
 242      61644465 
 243 0039 6C490000 		.ascii	"lI\000\000\000\000\000\000\000\000\000\000\000\000\311"
 243      00000000 
 243      00000000 
 243      0000C9
 244 0048 0000006E 		.ascii	"\000\000\000nil\000\000\002\000\000\000\000\000\000"
ARM GAS  /tmp/cc3ukR0Z.s 			page 19


 244      696C0000 
 244      02000000 
 244      000000
 245 0057 00000028 		.ascii	"\000\000\000(\001\000\000chSchReadyI\000\000\002\000"
 245      01000063 
 245      68536368 
 245      52656164 
 245      79490000 
 246 006d 00000000 		.ascii	"\000\000\000\000\000\000\000\000\316\000\000\000"
 246      00000000 
 246      CE000000 
 247              		.text
 248              		.section	.gnu.lto_.opts,"",%progbits
 249 0000 272D6D63 		.ascii	"'-mcpu=cortex-m0' '-mno-thumb-interwork' '-mthumb' "
 249      70753D63 
 249      6F727465 
 249      782D6D30 
 249      2720272D 
 250 0033 272D6767 		.ascii	"'-ggdb' '-O2' '-fomit-frame-pointer' '-falign-funct"
 250      64622720 
 250      272D4F32 
 250      2720272D 
 250      666F6D69 
 251 0066 696F6E73 		.ascii	"ions=16' '-ffunction-sections' '-fdata-sections' '-"
 251      3D313627 
 251      20272D66 
 251      66756E63 
 251      74696F6E 
 252 0099 666E6F2D 		.ascii	"fno-common' '-flto'\000"
 252      636F6D6D 
 252      6F6E2720 
 252      272D666C 
 252      746F2700 
 253              		.text
 254              		.cfi_sections	.debug_frame
 255              		.section	.text.osalThreadDequeueNextI,"ax",%progbits
 256              		.align	2
 257              		.p2align 4,,15
 258              		.global	osalThreadDequeueNextI
 259              		.code	16
 260              		.thumb_func
 261              		.type	osalThreadDequeueNextI, %function
 262              	osalThreadDequeueNextI:
 263              	.LFB98:
 264              		.file 1 "../../../os/hal/osal/nil/osal.c"
 265              		.loc 1 59 0
 266              		.cfi_startproc
 267              	.LVL0:
 268 0000 08B5     		push	{r3, lr}
 269              		.cfi_def_cfa_offset 8
 270              		.cfi_offset 3, -8
 271              		.cfi_offset 14, -4
 272              		.loc 1 62 0
 273 0002 0368     		ldr	r3, [r0]
 274 0004 002B     		cmp	r3, #0
 275 0006 00DB     		blt	.L8
 276              	.LVL1:
ARM GAS  /tmp/cc3ukR0Z.s 			page 20


 277              	.L1:
 278              		.loc 1 80 0
 279              		@ sp needed
 280 0008 08BD     		pop	{r3, pc}
 281              	.LVL2:
 282              	.L8:
 283              	.LBB2:
 284              		.loc 1 66 0
 285 000a 084B     		ldr	r3, .L9
 286 000c 9A69     		ldr	r2, [r3, #24]
 287 000e 1033     		add	r3, r3, #16
 288 0010 8242     		cmp	r2, r0
 289 0012 03D0     		beq	.L4
 290              	.LVL3:
 291              	.L6:
 292              		.loc 1 74 0
 293 0014 1433     		add	r3, r3, #20
 294              	.LVL4:
 295              		.loc 1 66 0
 296 0016 9A68     		ldr	r2, [r3, #8]
 297 0018 8242     		cmp	r2, r0
 298 001a FBD1     		bne	.L6
 299              	.LVL5:
 300              	.L4:
 301              		.loc 1 67 0
 302 001c 0268     		ldr	r2, [r0]
 303 001e 0132     		add	r2, r2, #1
 304 0020 0260     		str	r2, [r0]
 305              		.loc 1 71 0
 306 0022 181C     		mov	r0, r3
 307              	.LVL6:
 308 0024 FFF7FEFF 		bl	chSchReadyI
 309              	.LVL7:
 310              		.loc 1 72 0
 311 0028 EEE7     		b	.L1
 312              	.L10:
 313 002a C046     		.align	2
 314              	.L9:
 315 002c 00000000 		.word	nil
 316              	.LBE2:
 317              		.cfi_endproc
 318              	.LFE98:
 319              		.size	osalThreadDequeueNextI, .-osalThreadDequeueNextI
 320              		.section	.text.osalThreadDequeueAllI,"ax",%progbits
 321              		.align	2
 322              		.p2align 4,,15
 323              		.global	osalThreadDequeueAllI
 324              		.code	16
 325              		.thumb_func
 326              		.type	osalThreadDequeueAllI, %function
 327              	osalThreadDequeueAllI:
 328              	.LFB99:
 329              		.loc 1 90 0
 330              		.cfi_startproc
 331              	.LVL8:
 332 0000 F8B5     		push	{r3, r4, r5, r6, r7, lr}
 333              		.cfi_def_cfa_offset 24
ARM GAS  /tmp/cc3ukR0Z.s 			page 21


 334              		.cfi_offset 3, -24
 335              		.cfi_offset 4, -20
 336              		.cfi_offset 5, -16
 337              		.cfi_offset 6, -12
 338              		.cfi_offset 7, -8
 339              		.cfi_offset 14, -4
 340              		.loc 1 95 0
 341 0002 0568     		ldr	r5, [r0]
 342              	.LVL9:
 343              		.loc 1 96 0
 344 0004 0023     		mov	r3, #0
 345              		.loc 1 90 0
 346 0006 061C     		mov	r6, r0
 347 0008 0F1C     		mov	r7, r1
 348              		.loc 1 96 0
 349 000a 0360     		str	r3, [r0]
 350              	.LVL10:
 351              		.loc 1 98 0
 352 000c 002D     		cmp	r5, #0
 353 000e 06DA     		bge	.L11
 354              		.loc 1 97 0
 355 0010 064C     		ldr	r4, .L17
 356              	.LVL11:
 357              	.L15:
 358              		.loc 1 104 0
 359 0012 A368     		ldr	r3, [r4, #8]
 360 0014 B342     		cmp	r3, r6
 361 0016 03D0     		beq	.L16
 362              	.L13:
 363              		.loc 1 111 0
 364 0018 1434     		add	r4, r4, #20
 365              	.LVL12:
 366              		.loc 1 98 0
 367 001a 002D     		cmp	r5, #0
 368 001c F9DB     		blt	.L15
 369              	.LVL13:
 370              	.L11:
 371              		.loc 1 113 0
 372              		@ sp needed
 373              	.LVL14:
 374              	.LVL15:
 375              	.LVL16:
 376 001e F8BD     		pop	{r3, r4, r5, r6, r7, pc}
 377              	.LVL17:
 378              	.L16:
 379              		.loc 1 109 0
 380 0020 201C     		mov	r0, r4
 381 0022 391C     		mov	r1, r7
 382              		.loc 1 108 0
 383 0024 0135     		add	r5, r5, #1
 384              	.LVL18:
 385              		.loc 1 109 0
 386 0026 FFF7FEFF 		bl	chSchReadyI
 387              	.LVL19:
 388 002a F5E7     		b	.L13
 389              	.L18:
 390              		.align	2
ARM GAS  /tmp/cc3ukR0Z.s 			page 22


 391              	.L17:
 392 002c 10000000 		.word	nil+16
 393              		.cfi_endproc
 394              	.LFE99:
 395              		.size	osalThreadDequeueAllI, .-osalThreadDequeueAllI
 396              		.text
 397              	.Letext0:
 398              		.file 2 "/usr/include/newlib/machine/_default_types.h"
 399              		.file 3 "/usr/include/newlib/stdint.h"
 400              		.file 4 "../../../os/common/ports/ARMCMx/compilers/GCC/chtypes.h"
 401              		.file 5 "../../../os/nil/include/ch.h"
 402              		.file 6 "../../../os/common/ports/ARMCMx/chcore.h"
 403              		.file 7 "../../../os/common/ports/ARMCMx/chcore_v6m.h"
 404              		.file 8 "../../../os/hal/osal/nil/osal.h"