ARM GAS  /tmp/ccbGIoKp.s 			page 1


   1              		.cpu cortex-m0
   2              		.fpu softvfp
   3              		.eabi_attribute 20, 1
   4              		.eabi_attribute 21, 1
   5              		.eabi_attribute 23, 3
   6              		.eabi_attribute 24, 1
   7              		.eabi_attribute 25, 1
   8              		.eabi_attribute 26, 1
   9              		.eabi_attribute 30, 2
  10              		.eabi_attribute 34, 0
  11              		.eabi_attribute 18, 4
  12              		.code	16
  13              		.file	"test_sequence_005.c"
  14              		.text
  15              	.Ltext0:
  16              		.section	.gnu.lto_.jmpfuncs.a398aee2339460e5,"",%progbits
  17 0000 789CB591 		.ascii	"x\234\265\221;\016\3020\014\206\177\247-\257\202\200"
  17      3B0EC230 
  17      0C867FA7 
  17      2DAF8280 
  18 0010 9181AAA7 		.ascii	"\221\201\252\247`f\340\020\3544C$BQ(H\210\245#G`\341"
  18      6066E010 
  18      EC344324 
  18      42512848 
  18      88A52347 
  19 0026 A22C90A6 		.ascii	"\242,\220\246P\036\012-H\220%\216?\333\261\17730\330"
  19      501E0A2D 
  19      4890258E 
  19      3FDBB17F 
  19      3330D8
  20 0039 CEC40146 		.ascii	"\316\304\001F\372n\002\224\205\260\035N\351!\355\011"
  20      FA6E0294 
  20      85B01D4E 
  20      E921ED09 
  21 0049 42003AA6 		.ascii	"B\000:\246\207\261 2\221\314\240}\206\230\274\272\246"
  21      87B12032 
  21      91CCA07D 
  21      8698BCBA 
  21      A6
  22 005a 24C88900 		.ascii	"$\310\211\000\367-u]\300+\24558w\352\311\374\267\202"
  22      F72D755D 
  22      C02BA535 
  22      3877EAC9 
  22      FCB782
  23 006d 1AA3A63D 		.ascii	"\032\243\246=\015[\221\222\256\316\372t\361<R=@?\037"
  23      0D5B9192 
  23      AECEFA74 
  23      F13C523D 
  23      403F1F
  24 0080 A9F17DF2 		.ascii	"\251\361}\362\253\036\255\012\376\327\316\034\013/<"
  24      AB1EAD0A 
  24      FED7CE1C 
  24      0B2F3C
  25 008f 4D49ACC8 		.ascii	"MI\254\310hi\021\375\307z7\211\365\302-\272\2275U\025"
  25      686911FD 
  25      C77A3789 
  25      F5C22DBA 
ARM GAS  /tmp/ccbGIoKp.s 			page 2


  25      97355515 
  26 00a3 FFAA40E9 		.ascii	"\377\252@\351^\013\344\317\350\243\352\355\000\303\274"
  26      5E0BE4CF 
  26      E8A3EAED 
  26      00C3BC
  27 00b2 7AC7C4B7 		.ascii	"z\307\304\267+~\377\301t\266\001\336\253\214\356\\\254"
  27      2B7EFFC1 
  27      74B601DE 
  27      AB8CEE5C 
  27      AC
  28 00c3 92701127 		.ascii	"\222p\021'!\227\313d\013\337\274s{\260T\361FD\\\205"
  28      2197CB64 
  28      0BDFBC73 
  28      7BB054F1 
  28      46445C85 
  29 00d7 8A276BB5 		.ascii	"\212'k\265\340Q(\271\214\325\026\027FQ\275\315"
  29      E05128B9 
  29      8CD51617 
  29      4651BDCD 
  30              		.text
  31              		.section	.gnu.lto_.inline.a398aee2339460e5,"",%progbits
  32 0000 789C7D8F 		.ascii	"x\234}\217;\016\3020\020Dgm\307@p\240EH(\222E\317Mr"
  32      3B0EC230 
  32      1044676D 
  32      C74070A0 
  32      45482892 
  33 0018 2A2A1A22 		.ascii	"**\032\":\032\224:\005\327\240\347\030\234\002\257c"
  33      3A1A943A 
  33      05D7A0E7 
  33      189C02AF 
  33      63
  34 0029 3BB1F8B8 		.ascii	";\261\370\270Yiw\346\315X@\340\333;\3210\027\200\024"
  34      596977E6 
  34      CD5840E0 
  34      DB3BD130 
  34      178014
  35 003c E445BAAB 		.ascii	"\344E\272\253\275\226`vn\243\272:\255\244\001D\333@"
  35      BD966076 
  35      6EA3BA3A 
  35      ADA40144 
  35      DB40
  36 004e 5560A982 		.ascii	"U`\251\202^\345\036/\000\212_\007\215\331:?0J\2729\207"
  36      5EE51E2F 
  36      008A5F07 
  36      8DD93A3F 
  36      304ABA39 
  37 0063 7D903B6D 		.ascii	"}\220;m\357/5q\261\270mT\345M~\214\361\261M\211\375"
  37      EF2F3571 
  37      B1B86D54 
  37      E54D7E8C 
  37      F1B14D89 
  38 0078 8DAD9B63 		.ascii	"\215\255\233c/\307\366e\200O\373&\177\300\015\321K\034"
  38      2FC7F665 
  38      804FFB26 
  38      7FC00DD1 
  38      4B1C
  39 008a 9EECB797 		.ascii	"\236\354\267\227s\361\021\315\223\222\223#)\303\312"
ARM GAS  /tmp/ccbGIoKp.s 			page 3


  39      73F111CD 
  39      93929323 
  39      29C3CA
  40 0099 F0394A75 		.ascii	"\3609Ju\014\354\365\177\235H\211L\012Lf\341\015\371"
  40      0CECF57F 
  40      9D48894C 
  40      0A4C66E1 
  40      0DF9
  41 00ab B71E99   		.ascii	"\267\036\231"
  42              		.text
  43              		.section	.gnu.lto_.pureconst.a398aee2339460e5,"",%progbits
  44 0000 789C6362 		.ascii	"x\234cb`b\020f\200\000N\006\006F\011\026\011V\0116\011"
  44      60621066 
  44      80004E06 
  44      06460916 
  44      09560936 
  45 0015 0E092E09 		.ascii	"\016\011.\011n\011\036\011\000\012\303\001\032"
  45      6E091E09 
  45      000AC301 
  45      1A
  46              		.text
  47              		.section	.gnu.lto_null_provider.a398aee2339460e5,"",%progbits
  48 0000 789C6362 		.ascii	"x\234cb`b@\007\222@\034\005\304&@\314\310\314\300\310"
  48      60624007 
  48      92401C05 
  48      C42640CC 
  48      C8CCC0C8 
  49 0014 34E11C03 		.ascii	"4\341\034\003C#\007\023##\210\301\300\310P\317\304X"
  49      43230713 
  49      232388C1 
  49      C0C850CF 
  49      C458
  50 0026 1FC90856 		.ascii	"\037\311\010V\273\236\351\300\203\377\377\327\375z\372"
  50      BB9EE9C0 
  50      83FFFFD7 
  50      FD7AFA
  51 0035 B89B5110 		.ascii	"\270\233Q\020d\024+CKC\303\004\005\006\206d\260\202"
  51      64142B43 
  51      4B43C304 
  51      05068664 
  51      B082
  52 0047 102009D2 		.ascii	"\020 \011\322\025\312\310\004\242\231/24>\350JNd\\\310"
  52      15CAC804 
  52      A2992F32 
  52      343EE84A 
  52      4E645CC8 
  53 005b C8CA10C1 		.ascii	"\310\312\020\301\230\311\010\2674\204\221\021\244\000"
  53      98C908B7 
  53      34849111 
  53      A400
  54 0069 6484919E 		.ascii	"d\204\221\236\236>\004\225\244\026\227\350\347e\346"
  54      9E3E0495 
  54      A41697E8 
  54      E765E6
  55 0078 E817E797 		.ascii	"\350\027\347\227\026%\247B\370 \"\2768\265\26045/95"
  55      1625A742 
  55      F82022BE 
ARM GAS  /tmp/ccbGIoKp.s 			page 4


  55      38B5B034 
  55      352F3935 
  56 008c DEC0C054 		.ascii	"\336\300\300T/\231\001\000\210\032+@"
  56      2F990100 
  56      881A2B40 
  57              		.text
  58              		.section	.gnu.lto_test_005_003_execute.a398aee2339460e5,"",%progbits
  59 0000 789C5D50 		.ascii	"x\234]P=O\3030\020}\347\3044\300\000#0\240\374\202&"
  59      3D4FC330 
  59      107DE7C4 
  59      34C00023 
  59      30A0FC82 
  60 0015 42EACEC0 		.ascii	"B\352\316\300O(\022L\0252\026\262\324\244@\322\0011"
  60      4F28124C 
  60      153216B2 
  60      D4A440D2 
  60      0131
  61 0027 D4E54362 		.ascii	"\324\345Cb\254\230\242\"\206.HH\010VFV$J\304?\350\357"
  61      AC98A222 
  61      862E4848 
  61      08564656 
  61      244AC43F 
  62 003d 6029763E 		.ascii	"`)v>:p\262\357\236\357\336;\237\315\300\360\3376\315"
  62      3A70B2EF 
  62      9EEFDE3B 
  62      9FCDC0F0 
  62      DF36CD
  63 0050 0E09D833 		.ascii	"\016\011\3303\221\034\020\033}\003C\217\021Y\000\302"
  63      911C101B 
  63      7D03438F 
  63      115900C2 
  64 0060 80D1E090 		.ascii	"\200\321\340\220\012\356\033\373\230\315\347\257\331"
  64      0AEE1BFB 
  64      98CDE7AF 
  64      D9
  65 006d FDCB177D 		.ascii	"\375\313\027}\262\206\013E\340\306\331*\307\215\326"
  65      B2860B45 
  65      E0C6D92A 
  65      C78DD6
  66 007c 231F1005 		.ascii	"#\037\020\005\267m\274m\260O\314Fg\212\253\367\354i"
  66      B76DBC6D 
  66      B04FCC46 
  66      678AABF7 
  66      EC69
  67 008e EB8826C4 		.ascii	"\353\210&\304\361\200\361P\353uE\354\022\277\372\316"
  67      F180F150 
  67      EB7545EC 
  67      12BFFACE 
  68 009e 22272A64 		.ascii	"\"'*d\007d j\304l.\307\355l\374L\245\362\204\334\205"
  68      0764206A 
  68      C46C2EC7 
  68      ED6CFC4C 
  68      A5F284DC 
  69 00b3 C415548E 		.ascii	"\304\025T\216e3\236\"\036Q\305*\304K\307f\262\0060\305"
  69      65339E22 
  69      1E51C52A 
  69      C44BC766 
ARM GAS  /tmp/ccbGIoKp.s 			page 5


  69      B20630C5 
  70 00c7 75EED46A 		.ascii	"u\356\324jn\032\330b\241\313\301+>\026M=A\345\037\031"
  70      6E1AD862 
  70      A1CBC12B 
  70      3E164D3D 
  70      41E51F19 
  71 00db AE4D6E28 		.ascii	"\256Mn(Z\336F\353Qg\273\212VP\361\025\255\002?\250\257"
  71      5ADE46EB 
  71      5167BB8A 
  71      5650F115 
  71      AD023FA8 
  72 00f0 ABAC6DE6 		.ascii	"\253\254m\3461o\265\372\235f3(W*\2234\210U7Hz\375s!"
  72      316FB5FA 
  72      9D663328 
  72      572A9334 
  72      88553748 
  73 0108 CBB3759D 		.ascii	"\313\263u\235D\236\365e,d'\014[M\201\265\256JR?\356"
  73      449EF565 
  73      2C64270C 
  73      5B4D81B5 
  73      AE4A523F 
  74 011d A5BE8C4E 		.ascii	"\245\276\214N\323\013\374\001\2255[\241"
  74      D30BFC01 
  74      95355BA1 
  75              		.text
  76              		.section	.gnu.lto_test_005_003_setup.a398aee2339460e5,"",%progbits
  77 0000 789C6362 		.ascii	"x\234cb`b@\007\222@<\025\210M\200\230\221\231\201\221"
  77      60624007 
  77      92403C15 
  77      884D8098 
  77      91998191 
  78 0014 69C23906 		.ascii	"i\3029\006\206F\016&FF\020\203\201\221\241\236\211\261"
  78      86460E26 
  78      46461083 
  78      8191A19E 
  78      89B1
  79 0026 3E9211AC 		.ascii	">\222\021\254v=\323\201\007\377\377\257\2330i\371\032"
  79      763DD381 
  79      07FFFFAF 
  79      9B3069F9 
  79      1A
  80 0037 C6134CCC 		.ascii	"\306\023L\314@\021V\206\226\206\206\011\012\014\014"
  80      40115686 
  80      96868609 
  80      0A0C0C
  81 0046 C9601521 		.ascii	"\311`\025!@\022\244-\224\221\011D3\237gh}\320y\222/"
  81      4012A42D 
  81      94910944 
  81      339F6768 
  81      7DD07992 
  82 005b 91712123 		.ascii	"\221q!#+P\272\232\341WCG\203@&#P9\304D\220\010G&#c."
  82      2B50BA9A 
  82      E1574347 
  82      83402623 
  82      5039C444 
  83 0076 23035451 		.ascii	"#\003TQ\004c&#\023\013C&\320-\014\027\031\032\037ti"
  83      04632623 
ARM GAS  /tmp/ccbGIoKp.s 			page 6


  83      130B4326 
  83      D02D0C17 
  83      191A1F74 
  84 008b C2744340 		.ascii	"\302tC@\010P'\320h\220G\214\364\364\364!\250$\265\270"
  84      085027D0 
  84      6890478C 
  84      F4F4F421 
  84      A824B5B8 
  85 009f 443F2F33 		.ascii	"D?/3G\2778\277\264(9\025\302\007\021\361\305\251\205"
  85      47BF38BF 
  85      B4283915 
  85      C20711F1 
  85      C5A985
  86 00b2 A5A979C9 		.ascii	"\245\251y\311\251\361\006\006\246z\311\014\000H;7\356"
  86      A9F10606 
  86      A67AC90C 
  86      00483B37 
  86      EE
  87              		.text
  88              		.section	.gnu.lto_test_005_002_setup.a398aee2339460e5,"",%progbits
  89 0000 789C6362 		.ascii	"x\234cb`b@\007\222@<\025\210M\200\230\221\231\201\221"
  89      60624007 
  89      92403C15 
  89      884D8098 
  89      91998191 
  90 0014 69C23906 		.ascii	"i\3029\006\206F\016&FF\020\203\201\221\241\236\211\261"
  90      86460E26 
  90      46461083 
  90      8191A19E 
  90      89B1
  91 0026 3E9211AC 		.ascii	">\222\021\254v=\323\201\007\377\377\257\273\326\275"
  91      763DD381 
  91      07FFFFAF 
  91      BBD6BD
  92 0035 FC0EE33A 		.ascii	"\374\016\343:&f\240\010+CKC\303\004\005\006\206d\260"
  92      2666A008 
  92      2B434B43 
  92      C3040506 
  92      8664B0
  93 0048 8A102009 		.ascii	"\212\020 \011\322\026\312\310\004\242\231\3173\264>"
  93      D216CAC8 
  93      04A299CF 
  93      33B43E
  94 0057 7873942F 		.ascii	"xs\224/\221q!#+P\272\232\341WCG\203@&#P9\304D\220\010"
  94      91712123 
  94      2B50BA9A 
  94      E1574347 
  94      83402623 
  95 0071 47262363 		.ascii	"G&#c.#\003TQ\004c&#\023\013C&\320-\014\027\031\032\037"
  95      2E230354 
  95      51046326 
  95      23130B43 
  95      26D02D0C 
  96 0089 BC5585E9 		.ascii	"\274U\205\351\206\200\020\240N\240\321 \217\030\351"
  96      868010A0 
  96      4EA0D120 
  96      8F18E9
ARM GAS  /tmp/ccbGIoKp.s 			page 7


  97 0098 E9E94350 		.ascii	"\351\351CPIjq\211~^f\216~q~iQr*\204\017\"\342\213S\013"
  97      496A7189 
  97      7E5E668E 
  97      7E717E69 
  97      51722A84 
  98 00b2 4B53F392 		.ascii	"KS\363\222S\343\015\014L\365\222\031\000\327\2309\001"
  98      53E30D0C 
  98      4CF59219 
  98      00D79839 
  98      01
  99              		.text
 100              		.section	.gnu.lto_test_005_001_setup.a398aee2339460e5,"",%progbits
 101 0000 789C6362 		.ascii	"x\234cb`b@\007\222@<\007\210M\200\230\221\231\201\221"
 101      60624007 
 101      92403C07 
 101      884D8098 
 101      91998191 
 102 0014 69C23906 		.ascii	"i\3029\006\206F\016&FF\020\203\201\221\241\236\211\261"
 102      86460E26 
 102      46461083 
 102      8191A19E 
 102      89B1
 103 0026 3E9211AC 		.ascii	">\222\021\254v=\323\201\007\377\377\257\373\321\266"
 103      763DD381 
 103      07FFFFAF 
 103      FBD1B6
 104 0035 FC0DE36C 		.ascii	"\374\015\343l&f\240\010+CKC\303\004\005\006\206d\260"
 104      2666A008 
 104      2B434B43 
 104      C3040506 
 104      8664B0
 105 0048 8A102009 		.ascii	"\212\020 \011\322\026\312\310\004\242\231\3173\264="
 105      D216CAC8 
 105      04A299CF 
 105      33B43D
 106 0057 D8FB982B 		.ascii	"\330\373\230+\221q!#+P\272\232\341WCG\203@&#P9\304D"
 106      91712123 
 106      2B50BA9A 
 106      E1574347 
 106      83402623 
 107 006f 90084726 		.ascii	"\220\010G&#c.#\003TQ\004c&#\023\013\230\002Z\220\311"
 107      23632E23 
 107      03545104 
 107      63262313 
 107      0B98025A 
 108 0085 C8C2C070 		.ascii	"\310\302\300p\221\241\361\301>e\230!\020\020\0024\000"
 108      91A1F1C1 
 108      3E659821 
 108      10100234 
 108      00
 109 0096 6803C83F 		.ascii	"h\003\310?Fzz\372\020T\222Z\\\242\237\227\231\243_\234"
 109      467A7AFA 
 109      1054925A 
 109      5CA29F97 
 109      99A35F9C 
 110 00aa 5F5A949C 		.ascii	"_Z\224\234\012\341\203\210\370\342\324\302\322\324\274"
 110      0AE18388 
ARM GAS  /tmp/ccbGIoKp.s 			page 8


 110      F8E2D4C2 
 110      D2D4BC
 111 00b9 E4D47803 		.ascii	"\344\324x\003\003S\275d\006\000\013\2439\244"
 111      0353BD64 
 111      06000BA3 
 111      39A4
 112              		.text
 113              		.section	.gnu.lto_test_005_002_execute.part.0.a398aee2339460e5,"",%progbits
 114 0000 789C9D54 		.ascii	"x\234\235TOHTA\030\377\276\231\367g\336{\332Z\035\252"
 114      4F485441 
 114      18FFBE99 
 114      F767DE7B 
 114      DA5A1DAA 
 115 0014 8B48F75C 		.ascii	"\213H\367\\\221\244N\022t\351\034\012v\022y,\362\300"
 115      91A44E12 
 115      74E91C0A 
 115      7612792C 
 115      F2C0
 116 0026 5DAB5D0F 		.ascii	"]\253]\017\345\301Y]\311\243t\262d)\351\020T \035\202"
 116      E5C1595D 
 116      C9A374B2 
 116      6429E910 
 116      54201D82 
 117 003a 2888D593 		.ascii	"(\210\325\223\026\376\351V\267\355RPQ\320\251D\330\276"
 117      16FEE956 
 117      B7ED5250 
 117      51D0A944 
 117      D8BE
 118 004c 9979EFED 		.ascii	"\231y\357\355\252\030\330\260;\337\314\367\3477\337"
 118      AA18D8B0 
 118      3BDFCCF7 
 118      E737DF
 119 005b FC7EB3CB 		.ascii	"\374~\263\313\200\301\376Q\246\357\013\013\340*Yl\003"
 119      80C1FE51 
 119      A6EF0B0B 
 119      E02A596C 
 119      03
 120 006c 0CE63769 		.ascii	"\014\3467i\021 \323\226\241\245lYp\263X\021\026\343"
 120      1120D396 
 120      A1A56C59 
 120      70B35811 
 120      16E3
 121 007e B57E90BE 		.ascii	"\265~\220\276\275\235\001\331f\2430q\207\371\253\234"
 121      BD9D01D9 
 121      66A33071 
 121      87F9AB9C 
 122 008e DCEEE65B 		.ascii	"\334\356\346[ \277k\374+B0G\247{:\335C\337\244\373\210"
 122      20BF6BFC 
 122      2B423047 
 122      A77B3ADD 
 122      43DFA4FB 
 123 00a3 6A010853 		.ascii	"j\001\010S\001\343\226\355\270\302\363q\352\032\252"
 123      01E396ED 
 123      B8C2F371 
 123      EA1AAA
 124 00b2 96F02C2C 		.ascii	"\226\360,,Iy\267>\373\346\023\336\223\265\312C\271\333"
 124      4979B73E 
ARM GAS  /tmp/ccbGIoKp.s 			page 9


 124      FBE613DE 
 124      93B5CA43 
 124      B9DB
 125 00c4 68204648 		.ascii	"h FH\355\367!\204\010C\264\301.m\230\265\367>\313L\326"
 125      EDF72184 
 125      0843B4C1 
 125      2E6D98B5 
 125      F73ECB4C 
 126 00d9 1B8D3FBF 		.ascii	"\033\215?\277\274S\010#\270DX\014\"\344<\336X\264\261"
 126      BC530823 
 126      B844580C 
 126      22E43CDE 
 126      58B4B1
 127 00ec 6C9A6C47 		.ascii	"l\232lGMn\354\026\261\365T\330W\021\202\262\241\"\345"
 127      4D6EEC16 
 127      B1F554D8 
 127      571182B2 
 127      A122E5
 128 00ff 7C978980 		.ascii	"|\227\211\200:\227\306\000\315t\227\001\014\310\360"
 128      3A97C600 
 128      CD749701 
 128      0CC8F0
 129 010e 4164CA6C 		.ascii	"Ad\312l\300\364\313\205\257gF\360\021\025.\302\375\262"
 129      C0F4CB85 
 129      AF6746F0 
 129      11152EC2 
 129      FDB2
 130 0120 941DD4EE 		.ascii	"\224\035\324\356$\354\3109\265r\362\272V\365\353@\262"
 130      24ECC839 
 130      B572F2BA 
 130      56F5EB40 
 130      B2
 131 0131 02D5F93A 		.ascii	"\002\325\371:L\327\237\334qM\2459I\307\2221\210\034"
 131      4CD79FDC 
 131      714DA539 
 131      49C79231 
 131      881C
 132 0143 6AFDEA80 		.ascii	"j\375\352\200\235\231\345\352\025\2237\212l\022n\323"
 132      9D99E5EA 
 132      1593378A 
 132      6C126ED3 
 133 0153 ADCEC133 		.ascii	"\255\316\3013I\3439U\270y\304Q\304V*\266`\266v\321T"
 133      49E33955 
 133      B879C451 
 133      C4562AB6 
 133      60B676D1 
 134 0168 40B31711 		.ascii	"@\263\027\021\306Y\312#\"\364\362\310\342$\302\215\320"
 134      C659CA23 
 134      22F4F2C8 
 134      E224C28D 
 134      D0
 135 0179 07D88099 		.ascii	"\007\330\200\231\271\231\247\325\241\3444N\300\272+"
 135      B999A7D5 
 135      A1E4344E 
 135      C0BA2B
 136 0188 D41DB3D6 		.ascii	"\324\035\263\326n)\232tj\001i\312\351F\002\322 U\254"
 136      6E299A74 
ARM GAS  /tmp/ccbGIoKp.s 			page 10


 136      6A0169CA 
 136      E94602D2 
 136      2055AC
 137 019b 41E57339 		.ascii	"A\345s9H\260\014\020O\233\374\010\030_\230\255\3219"
 137      48B00C10 
 137      4F9BFC08 
 137      185F98AD 
 137      D139
 138 01ad 9CCF050A 		.ascii	"\234\317\005\012\313Ni\375qTZ\355\230\326W\377\244\325"
 138      CB4E69FD 
 138      71545AED 
 138      98D657FF 
 138      A4D5
 139 01bf 81DDF39C 		.ascii	"\201\335\363\234\030\252\277\376\202IoV\212\034\204"
 139      18AABFFE 
 139      82496F56 
 139      8A1C84
 140 01ce C80E2149 		.ascii	"\310\016!I\341\2645hd\350\231\264k\262>\360\004\301"
 140      E1B43568 
 140      64E899B4 
 140      6BB23EF0 
 140      04C1
 141 01e0 26109560 		.ascii	"&\020\225`\031\376\355\304\357\244\310\307\302\2300"
 141      19FEEDC4 
 141      EFA4C8C7 
 141      C29830
 142 01ef 4A56CED3 		.ascii	"JV\316\323\021f:\341BU.\\\212\260\003\342C\"<\256\211"
 142      11663AE1 
 142      42552E5C 
 142      8AB003E2 
 142      43223CAE 
 143 0204 FB9EF6E6 		.ascii	"\373\236\366\346(X\273U\336At\341]/\327b}k\212%F\321"
 143      2858BB55 
 143      DE4174E1 
 143      5D2FD762 
 143      7D6B8A25 
 144 021a 3D5C2C91 		.ascii	"=\\,\221\324\012X\\\335/\226\273_,\367\200XnL\243\255"
 144      D40A585C 
 144      DD2F96BB 
 144      5F2CF780 
 144      586E4CA3 
 145 022f C412AE11 		.ascii	"\304\022\256\021\313\203\007\355Z\254\337?\217*\226"
 145      CB8307ED 
 145      5AACDF3F 
 145      8F2A96
 146 023e 63DE697D 		.ascii	"c\336i}\375qzS\357?U\330JU\360\011\344\240\012-\277"
 146      FD717A53 
 146      EF3F55D8 
 146      4A55F009 
 146      E4A00A2D 
 147 0253 811611FC 		.ascii	"\201\026\021\374X\204\023\235p\331\210pr\217\010\206"
 147      5884139D 
 147      70D98870 
 147      728F0886 
 148 0263 2D5F3DC7 		.ascii	"-_=\307\367\364\307\325\244\177\200\336\366vF\365\327"
 148      F7F4C7D5 
 148      A47F80DE 
ARM GAS  /tmp/ccbGIoKp.s 			page 11


 148      F67646F5 
 148      D7
 149 0274 DBDD9D35 		.ascii	"\333\335\2355\237R\256X\312\026\242\261lq|\342f\230"
 149      9F52AE58 
 149      CA16A2B1 
 149      6C717CE2 
 149      6698
 150 0286 337B350D 		.ascii	"3{5\015\027s7&r\20507\334\323\323\327\035\002F\301X"
 150      17733726 
 150      72853037 
 150      DCD3D3D7 
 150      1D0246C1 
 151 029b 542C75E5 		.ascii	"T,u\345\362\327K\267 \243\327\205\361d\377\027\243D"
 151      F2D74BB7 
 151      20A3D785 
 151      F164FF17 
 151      A344
 152 02ad 2D5E     		.ascii	"-^"
 153              		.text
 154              		.section	.gnu.lto_test_005_002_execute.a398aee2339460e5,"",%progbits
 155 0000 789C9D54 		.ascii	"x\234\235T\317k\023A\024~of7;\351\306&n-\350\245\004"
 155      CF6B1341 
 155      147E6F66 
 155      373BE9C6 
 155      266E2DE8 
 156 0016 F1DC14A1 		.ascii	"\361\334\024\241x\020\212\340\177 -\324S)\353R\026\232"
 156      78108AE0 
 156      7F202DD4 
 156      5329EB52 
 156      169A
 157 0028 564D7A10 		.ascii	"VMz\020\017\2354\215\366\240P\274X\255\202\305\203G"
 157      0F9D348D 
 157      F6A050BC 
 157      58AD82C5 
 157      8347
 158 003a 0F5E7210 		.ascii	"\017^r\020\215\342\241Ul*x\250\007a-X/\376\005R\214"
 158      8DE2A155 
 158      6C2A78A8 
 158      07612D58 
 158      2FFE0552 
 159 004f EFEDAFB6 		.ascii	"\357\355\257\266\332\036\352\220\274\231\367\346\275"
 159      DA1EEA90 
 159      BC99F7E6 
 159      BD
 160 005c 6FBE79DF 		.ascii	"o\276y\337$\002\004\374=\256\320\367\214\001p\211f\314"
 160      240204FC 
 160      3DAED0F7 
 160      8C017089 
 160      66CC
 161 006e 028AC575 		.ascii	"\002\212\305u\200\232\022hF\013)\324[\011\272\313X\177"
 161      809A1268 
 161      460B29D4 
 161      5B09BACB 
 161      587F
 162 0080 0FA07346 		.ascii	"\017\240sF\024\177\243L![C\024\317l\344)\234\021\352"
 162      147FA34C 
 162      215B4314 
ARM GAS  /tmp/ccbGIoKp.s 			page 12


 162      CF6CE429 
 162      9C11EA
 163 0093 651F79D6 		.ascii	"e\037y\326\347\022y\026*NB\205\3103 \314\012i\230\031"
 163      E7127916 
 163      2A4E4285 
 163      C83320CC 
 163      0A699819 
 164 00a7 4BE1EC65 		.ascii	"K\341\354e\344S\3614\254h}/h\274\372\206\017tk\376\211"
 164      E453F134 
 164      AC687D2F 
 164      68BCFA86 
 164      0F746BFE 
 165 00bc DEE97410 		.ascii	"\336\351t\020}$\206\203\010.\302(9X\014'a\354\247\374"
 165      7D248683 
 165      082EC228 
 165      39580C27 
 165      61ECA7FC 
 166 00d0 5CB4824E 		.ascii	"\\\264\202Ng\347k\260\365\001{z\021\306q\205\360\024"
 166      67E76BB0 
 166      F5017B7A 
 166      11C67185 
 166      F014
 167 00e2 F828B364 		.ascii	"\370(\263d\014\233M.\016\3479\\\340\210\303\206\312"
 167      0C9B4D2E 
 167      0EE7395C 
 167      E088C386 
 167      CA
 168 00f3 4D98D77A 		.ascii	"M\230\327z\261\030m\003\237Ec\230l\323\201\021\0244"
 168      B1186D03 
 168      9F456398 
 168      6CD38111 
 168      1434
 169 0105 C98F30D7 		.ascii	"\311\2170\327\\z}j\034\237\242\011\313\360\260\246u"
 169      5C7A7D6A 
 169      1C9FA209 
 169      CBF0B0A6 
 169      75
 170 0116 81B8DD84 		.ascii	"\201\270\335\204_z\201Wf9,br&$+\340X\033n\005\277\277"
 170      5F7A8157 
 170      66392C62 
 170      7226242B 
 170      E0581B6E 
 171 012d 774795B0 		.ascii	"wG\225\260[\221q1,\011#\312G\253\214\030'E9\372>A\250"
 171      5B917131 
 171      2C0923CA 
 171      47AB8C18 
 171      274539FA 
 172 0144 328A38CA 		.ascii	"2\2128\312\210Y\203(w\0010\235\315\255\243\322a\255"
 172      88598328 
 172      7701309D 
 172      CDADA3D2 
 172      61AD
 173 0156 D7602EB8 		.ascii	"\327`.\270s\333\212*\243\033\207{\311\030A\011\255!"
 173      73DB8A2A 
 173      A31B877B 
 173      C9184109 
 173      AD21
ARM GAS  /tmp/ccbGIoKp.s 			page 13


 174 0168 D9864670 		.ascii	"\331\206Fp\367GLh\002U\212l\273(\016\241\3158\271\016"
 174      F7474C68 
 174      02558A6C 
 174      BB280EA1 
 174      CD38B90E 
 175 017c 0DEEF031 		.ascii	"\015\356\3601&Y\337\224\011B\226@8AB\330\0233\211\333"
 175      2659DF94 
 175      09429640 
 175      384142D8 
 175      133389DB 
 176 0190 2972B71B 		.ascii	")r\267\033mr2\007O\372\230\357\203s\217\365\322\005"
 176      6D723207 
 176      4FFA98EF 
 176      83738FF5 
 176      D205
 177 01a2 1F0B101F 		.ascii	"\037\013\020\037\342\343q\200U\230\377\231r\263\031"
 177      E2E37180 
 177      5598FF99 
 177      72B319
 178 01b1 76DF8318 		.ascii	"v\337\203\030!w\363<iV_\250\277x4\232$\346&\020SY\326"
 178      2177F33C 
 178      69565FA8 
 178      BF78349A 
 178      24E62610 
 179 01c8 40ECED01 		.ascii	"@\354\355\001\355&\265&\320\023\225\324'\005\351&\206"
 179      ED26B526 
 179      D01395D4 
 179      2705E926 
 179      86
 180 01d9 676ED7EC 		.ascii	"gn\327\354\004+\002\222\351\221_\000\3436\212UI`\306"
 180      042B0292 
 180      E9915F00 
 180      E3368A55 
 180      4960C6
 181 01ec 82CD5819 		.ascii	"\202\315X\031\330\310\207o\247\271}T\261d\330\247F\260"
 181      D8C8876F 
 181      A7B97D54 
 181      B164D8A7 
 181      46B0
 182 01fe FC2CBD69 		.ascii	"\374,\275i\376?Uh\247*\024\010\344 \025\234\203T(\304"
 182      FE3F5568 
 182      A72A1408 
 182      E420159C 
 182      835428C4 
 183 0212 2A387D70 		.ascii	"*8}p1R\241\347p\025\234\003T\260\340]\226^R]\375\363"
 183      3152A1E7 
 183      70159C03 
 183      54B0E05D 
 183      965E525D 
 184 0228 F84FB871 		.ascii	"\370O\270q\256\217\275I\266\342\337\331'\372\203\331"
 184      AE8FBD49 
 184      B6E2DFD9 
 184      27FA83D9 
 185 0238 8518A6C6 		.ascii	"\205\030\246\3067\035\276\351\331\376\376R\364\251z"
 185      371DBEE9 
 185      D9FEFE52 
 185      F4A97A
ARM GAS  /tmp/ccbGIoKp.s 			page 14


 186 0247 956A69CA 		.ascii	"\225ji\312\237,U\246g\256\273^\344\263\031\253x\327"
 186      9F2C55A6 
 186      67AEBB5E 
 186      E4B319AB 
 186      78D7
 187 0259 66BC29D7 		.ascii	"f\274)\327\033\033\030\030\354w\001}{\322\257T\213^"
 187      1B1B1818 
 187      EC77017D 
 187      7BD2AF54 
 187      8B5E
 188 026b F96AF506 		.ascii	"\371j\365\006\344\303\365\324t\342\377\001Y\222\016"
 188      E4C3F5D4 
 188      74E2FF01 
 188      59920E
 189 027a 34       		.ascii	"4"
 190              		.text
 191              		.section	.gnu.lto_test_005_001_execute.part.1.a398aee2339460e5,"",%progbits
 192 0000 789C9D94 		.ascii	"x\234\235\224\317O\023A\024\307\337\233\375\331\335"
 192      CF4F1341 
 192      14C7DF9B 
 192      FDD9DD
 193 000f D6E26FB8 		.ascii	"\326\342o\2704\2157\017RB$z\"&\376\011B\202'B\226\015"
 193      348D370F 
 193      5242247A 
 193      2226FE09 
 193      42822742 
 194 0025 D984B6D8 		.ascii	"\331\204\266\330\026\023\344\300B\213\251'\320h\202"
 194      1613E4C0 
 194      428BA927 
 194      D06882
 195 0034 12454288 		.ascii	"\022EB\210\2111\361\212\236\012'\324\360\303\213\301"
 195      8931F18A 
 195      9E0A27D4 
 195      F0C38BC1 
 196 0044 5B2FEA41 		.ascii	"[/\352AO\234\374AR\337\354\354.\005\212I\235\2643\363"
 196      4F9CFC41 
 196      52DFECEC 
 196      2E058A49 
 196      9DB433F3 
 197 0058 66E6BDF9 		.ascii	"f\346\275\371\276\317\313\016\003\006\207\333,\375w"
 197      BECFCB0E 
 197      030687DB 
 197      2CFD77
 198 0067 1580611A 		.ascii	"\025\200a\0321\006\030\235\335\244I\024\23172\224\371"
 198      3106189D 
 198      DDA44914 
 198      99373294 
 198      F9
 199 0078 38A94B62 		.ascii	"8\251Kb\262\252\313L\252t\203k(\333qp\243\012\352b_"
 199      B2AACB4C 
 199      AA74836B 
 199      28DB7170 
 199      A30AEA62 
 200 008d 65E69A44 		.ascii	"e\346\232D\313\332\346{\240uM\254\257\352:S\275\343"
 200      CBDAE67B 
 200      A0754DAC 
 200      AFEA3A53 
ARM GAS  /tmp/ccbGIoKp.s 			page 15


 200      BDE3
 201 009f 11EF7884 		.ascii	"\021\357x\204\231\237Rd\031o\023d\031h\012g\023\221"
 201      999F5264 
 201      196F1364 
 201      19680A67 
 201      1391
 202 00b1 4F006122 		.ascii	"O\000a\"\312$YQ5=b\2308q\023\271B\274\000\213\256\373"
 202      CA245951 
 202      353D6298 
 202      387113B9 
 202      42BC008B 
 203 00c7 A0BABC5B 		.ascii	"\240\272\274[\305\307n\245\364\334\335\253\325\020\035"
 203      C5C76EA5 
 203      F4DCDDAB 
 203      D5101D
 204 00d6 A46CBA10 		.ascii	"\244l\272\020,\204>20\351\015L>\230\336k\346Vk\2657"
 204      2C843E32 
 204      30E90D4C 
 204      3E98DE6B 
 204      E6566BB5 
 205 00eb 2F230984 		.ascii	"/#\011\204\001\\\244X\014\034\224$\337\220\311\220\025"
 205      015CA458 
 205      0C1C9424 
 205      DF90C990 
 205      15
 206 00fc EA149577 		.ascii	"\352\024\225w\232\277\254\373c\204o\033|\307\344]\224"
 206      9ABFACFB 
 206      63846F1B 
 206      7CC7E45D 
 206      94
 207 010d 9B313EA3 		.ascii	"\2331>\243\310\012\224\\w6)\016\002\227A\255\207z\312"
 207      C80A945C 
 207      7736290E 
 207      029741AD 
 207      877ACA
 208 0120 B407A334 		.ascii	"\264\007\2434H\275\310\370\260\001S+?\377\264\016\340"
 208      48BDC8F8 
 208      B001532B 
 208      3FFFB40E 
 208      E0
 209 0131 1239CEC3 		.ascii	"\0229\316\303\223I\327m!\365\343\360\333-\363\231\232"
 209      9349D76D 
 209      21F5E3F0 
 209      DB2DF399 
 209      9A
 210 0142 F67CB97C 		.ascii	"\366|\271|\025\202\031\360D\336\301T\365WQ\023\236\342"
 210      158219F0 
 210      44DEC154 
 210      F5575113 
 210      9EE2
 211 0154 266F2F68 		.ascii	"&o/h\275(A\245\233_\360\273\370}\346\25287\204l\034"
 211      BD2841A5 
 211      9B5FF0BB 
 211      F87DE6AA 
 211      3837846C 
 212 0169 EE509297 		.ascii	"\356P\222\227\340\225K\355>yhi\304!\304z2[0]\271(<`"
 212      E0954BED 
ARM GAS  /tmp/ccbGIoKp.s 			page 16


 212      3E796869 
 212      C421C47A 
 212      325B305D 
 213 0181 5F8B6EF9 		.ascii	"_\213n\371\247\370\212\356`$\215\314?Dq\0354\0006\240"
 213      A7F88AEE 
 213      60248DCC 
 213      3F44711D 
 213      340036A0 
 214 0195 582E7E9B 		.ascii	"X.~\233\351\013n\223(\260\247\012=\305\254^-\355\006"
 214      E90B6E93 
 214      28B0A70A 
 214      3DC5AC5E 
 214      2DED06
 215 01a8 4A65A01A 		.ascii	"Je\240\032K\224\221\016\341&y\254C\351\353\244\031\304"
 215      4B94910E 
 215      E12679AC 
 215      43E9EBA4 
 215      19C4
 216 01ba 1281A450 		.ascii	"\022\201\244P\344g@?a\266N\367HR\331\344\261\224\000"
 216      E467403F 
 216      61B64EF7 
 216      4852D9E4 
 216      B19400
 217 01cd EB4EAD59 		.ascii	"\353N\255Y\254\212\217\265<\375/\254*\354]\226\266\240"
 217      AC8A8FB5 
 217      3CFD2FAC 
 217      2AEC5D96 
 217      B6A0
 218 01df 54BDF705 		.ascii	"T\275\367\005\003mr\030\331\264\220\035\003\311\241"
 218      036D7218 
 218      D9B4901D 
 218      03C9A1
 219 01ee CA73423B 		.ascii	"\312sB;R\340\246\220'\217.\013\350J\260\256\206\341"
 219      52E0A690 
 219      278F2E0B 
 219      E84AB0AE 
 219      86E1
 220 0200 62964F89 		.ascii	"b\226O\211\016\363\305V\007O$\340\312Sw\356\232\203"
 220      0EF3C556 
 220      074F24E0 
 220      CA5377EE 
 220      9A83
 221 0212 710823B7 		.ascii	"q\010#\267x\264~\204\202T\036V\251\257i/j\360\241S\362"
 221      78B47E84 
 221      82541E56 
 221      A9AF692F 
 221      6AF0A153 
 222 0227 2AB4F430 		.ascii	"*\264\3640\254\220>\204\332\361\025\322\003_\035\346"
 222      AC903E84 
 222      DAF115D2 
 222      035F1DE6 
 223 0237 D70E5748 		.ascii	"\327\016WH;\\!\355H\2054\237\235\302+\244k\242B\021"
 223      3B5C21ED 
 223      4885349F 
 223      9DC22BA4 
 223      6BA24211 
 224 024b 58887915 		.ascii	"X\210y\025ZYjk\262B\252\307\251T\235Y\0163\2154\203"
ARM GAS  /tmp/ccbGIoKp.s 			page 17


 224      5A596A6B 
 224      B242AAC7 
 224      A9549D59 
 224      0E338D34 
 225 0260 7E2B446F 		.ascii	"~+Do\220g#\364f#\364\206\217\376d\002\256\013\364\247"
 225      906723F4 
 225      6623F486 
 225      8FFE6402 
 225      AE0BF4A7 
 226 0274 8E476F36 		.ascii	"\216Go6@o\300#\305Ky\356E\263)k\236\276\273\325g\313"
 226      406FC023 
 226      C54B79EE 
 226      45B3296B 
 226      9EBEBBD5 
 227 028a E6912FF2 		.ascii	"\346\221/\362\264%\3647\310\330\177'\374\2153\026*\241"
 227      B425F437 
 227      C8D87F27 
 227      FC8D3316 
 227      2AA1
 228 029c E0B382E1 		.ascii	"\340\263\202\341\302>\303\350\3771\214\221\347Q\206"
 228      C23EC3E8 
 228      FF318C91 
 228      E75186
 229 02ab 75FAEA10 		.ascii	"u\372\352\020\306|\204\347\022pC <\177\000\241\340d"
 229      C67C84E7 
 229      12704320 
 229      3C7F00A1 
 229      E064
 230 02bd F28FF723 		.ascii	"\362\217\367#=\373\373\360z\350%\330\216sQ\235\355\355"
 230      3DFBFBF0 
 230      7AE825D8 
 230      8E73519D 
 230      EDED
 231 02cf 29F12BD8 		.ascii	")\361+\330\371B*\343\014\247\362\331\321\234e\013\233"
 231      F9422AE3 
 231      0CA7F2D9 
 231      D19C650B 
 231      9B
 232 02e0 77FD79FB 		.ascii	"w\375y\373\326\250\235\261\354\376\216\216\256v\013"
 232      D6A89DB1 
 232      ECFE8E8E 
 232      AE760B
 233 02ef D031879D 		.ascii	"\3201\207\235|!i\247G\012c\020\367\346\231l`\267\215"
 233      7C2169A7 
 233      470A6310 
 233      F7E6996C 
 233      60B78D
 234 0302 E4B2B79D 		.ascii	"\344\262\267\235A;\227\314\331\205\321\\\306\036L\246"
 234      413B97CC 
 234      D985D15C 
 234      C61E4CA6 
 235 0312 ED743637 		.ascii	"\355t67\006\177\001\036\322u\330"
 235      067F011E 
 235      D275D8
 236              		.text
 237              		.section	.gnu.lto_test_005_001_execute.a398aee2339460e5,"",%progbits
 238 0000 789C9554 		.ascii	"x\234\225TAk\023A\024~of7\231tS7\256\012=\205\342\017"
ARM GAS  /tmp/ccbGIoKp.s 			page 18


 238      416B1341 
 238      147E6F66 
 238      37997453 
 238      37AE0A3D 
 239 0017 488A503C 		.ascii	"H\212P<\010E\360\037H\003\365T\312\032\302B\223\252"
 239      0845F01F 
 239      4803F554 
 239      CA1AC242 
 239      93AA
 240 0029 4911F1D0 		.ascii	"I\021\361\320I7H\016\"\305SU\004K\361\340\311k\004\017"
 240      4937480E 
 240      22C55355 
 240      044BF1E0 
 240      C96B040F 
 241 003d 513CB482 		.ascii	"Q<\264\202I\005\017\021\024\026\005/z\262\340\241\010"
 241      49050F11 
 241      1416052F 
 241      7AB2E0A1 
 241      08
 242 004e F1CDCEEE 		.ascii	"\361\315\316\356\326jz\310\220\314\314\373\346\275o"
 242      D66A7AC8 
 242      90CCCCFB 
 242      E6BD6F
 243 005d BEF96612 		.ascii	"\276\371f\022\006\014\376mW\351;i\000\\\246\0213\200"
 243      060CFE6D 
 243      57E93B69 
 243      005CA611 
 243      3380
 244 006f 6CA307D0 		.ascii	"l\243\007\320\024\014M=\341L\274\346 '\214\336[\000"
 244      140C4D3D 
 244      E14CBCE6 
 244      20278CDE 
 244      5B00
 245 0081 993534FE 		.ascii	"\23154\376J\230\214w\347\010O\355\331\004\247\230x\231"
 245      4A988C77 
 245      E7084FED 
 245      D904A798 
 245      7899
 246 0093 A728FDA1 		.ascii	"\247(\375\241HQ\032\205JB\201\250F@Xc\3340Si\201kWP"
 246      48511A85 
 246      4A4281A8 
 246      46405863 
 246      DC305369 
 247 00ab ED8A6761 		.ascii	"\355\212gaK\312\373\301\323\237\001>\220\335\326\023"
 247      4BCAFBC1 
 247      D39F013E 
 247      90DDD613 
 248 00bb F97B3844 		.ascii	"\371{8D\364\220\024\316\"\270\010\013\024\340t80\343"
 248      F49014CE 
 248      22B8080B 
 248      14E07438 
 248      30E3
 249 00cd A8E4E7AC 		.ascii	"\250\344\347\254\033\014\207w_\004_\236\241s\006a\011"
 249      1B0C8777 
 249      5F045F9E 
 249      A1730661 
 249      09
ARM GAS  /tmp/ccbGIoKp.s 			page 19


 250 00de B7884F80 		.ascii	"\267\210O\200\207<C\235a\251.\033\301\266\202s\012q"
 250      873C439D 
 250      61A92E1B 
 250      C1B68273 
 250      0A71
 251 00f0 5447E526 		.ascii	"TG\345&\264\244\334\230\326\313\240\366\2426O}\307\201"
 251      B4A4DC98 
 251      D6CBA0F6 
 251      A2364F7D 
 251      C781
 252 0102 12321AF8 		.ascii	"\0222\032\370;X\357l\356O-\3416\232\360\010\0366\245"
 252      3B58EF6C 
 252      EE4F2DE1 
 252      369AF008 
 252      1E36A5
 253 0115 CC91B6DB 		.ascii	"\314\221\266\333p \333jfV\303\"%\316\204x\006\012\353"
 253      7020DB6A 
 253      6656C322 
 253      25CE8478 
 253      060AEB
 254 0128 C39DA0E7 		.ascii	"\303\235\240\347[\272\022\016+R.\206%!\"<LW\021\243"
 254      5BBA120E 
 254      2B522E86 
 254      2521223C 
 254      4C5711A3 
 255 013c 249D236F 		.ascii	"$\235#oz(\252\310\"P\021f\014R<\001\240\324\014~\215"
 255      7A28AAC8 
 255      22501166 
 255      0C523C01 
 255      A0D40C7E 
 256 0151 AB465DF5 		.ascii	"\253F]\365.\254\007\237\374\264\256\324\007\016\327"
 256      2EAC079F 
 256      FCB4AED4 
 256      070ED7
 257 0160 E256420E 		.ascii	"\342VB\016\3359\336\207V\360\371k\244\247\202\"a\266"
 257      DD39DE87 
 257      56F0F96B 
 257      A4A78222 
 257      61B6
 258 0172 5C64C7A8 		.ascii	"\\d\307\250\3660\253\224\371\003\036\227e\250R\261s"
 258      F630AB94 
 258      F9031E97 
 258      65A852B1 
 258      73
 259 0183 087D3063 		.ascii	"\010}0c\334J\350&]\275\250\222\0258\345\341\211<\234"
 259      DC4AE826 
 259      5DBDA892 
 259      1538E5E1 
 259      893C9C
 260 0196 7F2C372F 		.ascii	"\177,7/zhC\302\234\003\330\201\326\217D\220\245h\217"
 260      7A6843C2 
 260      9C03D881 
 260      D68F4490 
 260      A5688F
 261 01a9 3C821285 		.ascii	"<\202\022\205\203\013tO~\333\337\277\267\020'f+\210"
 261      830B744F 
 261      7EDBDFBF 
ARM GAS  /tmp/ccbGIoKp.s 			page 20


 261      B7102766 
 261      2B88
 262 01bb C955EC02 		.ascii	"\311U\354\002\373\373\340\025%X\327\232@\317\222\223"
 262      FBFBE015 
 262      2558D79A 
 262      40CF9293 
 263 01cb 39029245 		.ascii	"9\002\222E\014\367\374\326\264b.M\304\223-?\002F\336"
 263      0CF7FCD6 
 263      B4622E4D 
 263      C4932D3F 
 263      0246DE
 264 01de B11D4E64 		.ascii	"\261\035NdF\333R\\)\330\263\303\367\3229\030\367\206"
 264      46DB525C 
 264      29D8B3C3 
 264      F7D23918 
 264      F786
 265 01f0 78E8532B 		.ascii	"x\350S+\370\276\235\234\324\036\307\372~b}\216*GY\357"
 265      F8BE9D9C 
 265      D41EC7FA 
 265      7E627D8E 
 265      2A4759EF 
 266 0204 8CB23E17 		.ascii	"\214\262>\027Y\1772\017\227\264\365\316\361\326;#\254"
 266      597F320F 
 266      97B4F5CE 
 266      F1D63B23 
 266      AC
 267 0215 4FC39B0C 		.ascii	"O\303\233\014\275\031_\374\367\312O\271Q\256\207\247"
 267      BD195FFC 
 267      F7CA4FB9 
 267      51AE87A7 
 268 0225 E36CA17E 		.ascii	"\343l\241~P\357\351\237\344\220b\236\334\3568\352x\347"
 268      50EFE99F 
 268      E490629E 
 268      DCEE38EA 
 268      78E7
 269 0237 0A85A2FE 		.ascii	"\012\205\242\3764\312\365F\261\346-\027\353+\2537\334"
 269      34CAF546 
 269      B1E62D17 
 269      EB2BAB37 
 269      DC
 270 0248 B28E55B7 		.ascii	"\262\216U\267X/__-\327\334\362\342\314\314l\301\005"
 270      582F5F5F 
 270      2DD7DCF2 
 270      E2CCCC6C 
 270      C105
 271 025a F4AC65AF 		.ascii	"\364\254e\257\336\230.W\2575n\201\035\316k+q\374\007"
 271      DE982E57 
 271      AF356E81 
 271      1DCE6B2B 
 271      71FC07
 272 026d ECEA04B0 		.ascii	"\354\352\004\260"
 273              		.text
 274              		.section	.gnu.lto_.symbol_nodes.a398aee2339460e5,"",%progbits
 275 0000 789C4D8E 		.ascii	"x\234M\216IN\3040\020E\277\3558\011I\030\022\246f\301"
 275      494EC430 
 275      1045BFED 
 275      38094918 
ARM GAS  /tmp/ccbGIoKp.s 			page 21


 275      12A666C1 
 276 0014 1938137B 		.ascii	"\0318\023{\356P-EbZ \016\000\022\"Gi\011$\020p\005D"
 276      EE502D45 
 276      625A200E 
 276      00122247 
 276      69092410 
 277 002b 80669EBB 		.ascii	"\200f\236\273\231$\240lG8\331<\275\212\313\317\022\022"
 277      9924A06C 
 277      4738D93C 
 277      BD8ACBCF 
 277      1212
 278 003d 0B12EE93 		.ascii	"\013\022\356\223\027 `\363\030 \332Z[\224\367 \341U"
 278      172060F3 
 278      1820DA5A 
 278      5B94F720 
 278      E155
 279 004f 3F41F17F 		.ascii	"?A\361\177}\016\004\244\344\035H\266\316^\203TK/AAk"
 279      7D0E04A4 
 279      E41D48B6 
 279      CE5E8354 
 279      4B2F4141 
 280 0064 B586303B 		.ascii	"\265\2060;_ \335L\267W\205>\2034\323\033P\330Z\375\006"
 280      5F20DD4C 
 280      B757853E 
 280      8334D31B 
 280      50D85AFD 
 281 0079 45FE90EC 		.ascii	"E\376\220\354\203\342\326M\217\0104?\342\012\232W\365"
 281      83E2D64D 
 281      8F08343F 
 281      E20A9A57 
 281      F5
 282 008a 2D428307 		.ascii	"-B\203\007D\014\361\002\032qG\273]!\236A\211\267WP\352"
 282      440CF102 
 282      1A7147BB 
 282      5D219E41 
 282      89B75750 
 283 009f ED139479 		.ascii	"\355\023\224y\033\200F\275\275\201\306\274}\200\306"
 283      1B8046BD 
 283      BD81C6BC 
 283      7D80C6
 284 00ae BDBD8326 		.ascii	"\275\275\203&\274\015A\371\277)Q\240:\375a\346\250\015"
 284      BC0D41F9 
 284      BF2951A0 
 284      3AFD61E6 
 284      A80D
 285 00c0 83499486 		.ascii	"\203I\224\206\272a8\345\030\347\250\016O\346U\\\240"
 285      BA6138E5 
 285      18E7A80E 
 285      4FE6555C 
 285      A0
 286 00d1 3E30CC51 		.ascii	">0\314Q\256\374.\031\357-\033N\243\336\031F*\231q\367"
 286      AEFC2E19 
 286      EF2D1B4E 
 286      A3DE1946 
 286      2A9971F7 
 287 00e5 2505CA41 		.ascii	"%\005\312A?TI\216\236%w\366y\217\275\266\214\261\273"
 287      3F54498E 
ARM GAS  /tmp/ccbGIoKp.s 			page 22


 287      9E2577F6 
 287      798FBDB6 
 287      8CB1BB
 288 00f8 BED75129 		.ascii	"\276\327Q)\373\306\221Vi\007\225%\367,\233\036\317m"
 288      FBC69156 
 288      69079525 
 288      F72C9B1E 
 288      CF6D
 289 010a 2F6D7AEC 		.ascii	"/mz\354\266\227\316\272^6\347zY\307\365\262\246\307"
 289      B697CEBA 
 289      5E36E77A 
 289      59C7F5B2 
 289      A6C7
 290 011c 6E7B59D3 		.ascii	"n{Y\323\313R\333\303\037\264\211\256\362"
 290      CB52DBC3 
 290      1FB489AE 
 290      F2
 291              		.text
 292              		.section	.gnu.lto_.refs.a398aee2339460e5,"",%progbits
 293 0000 789C3D8B 		.ascii	"x\234=\213\011\016\200 \020\003\227\001\\9<>\353\377"
 293      090E8020 
 293      10039701 
 293      5C393C3E 
 293      EBFF
 294 0012 AD10DC64 		.ascii	"\255\020\334d\232\266\233b\330c\363\010\001bH\"\213"
 294      9AB69B62 
 294      D863F308 
 294      01624822 
 294      8B
 295 0023 0DF75D4D 		.ascii	"\015\367]M\221g\342\365S\312\312\255\215\277K\1770\355"
 295      9167E2F5 
 295      53CACAAD 
 295      8DBF4B7F 
 295      30ED
 296 0035 FA706575 		.ascii	"\372peu\361\340\344\342\226nt\271LUJ\004{\001\231\372"
 296      F1E0E4E2 
 296      966E74B9 
 296      4C554A04 
 296      7B0199FA 
 297 0049 0256     		.ascii	"\002V"
 298              		.text
 299              		.section	.gnu.lto_.decls.a398aee2339460e5,"",%progbits
 300 0000 789CBD59 		.ascii	"x\234\275Y}t\024\325\025\177o6_\233\204@(P\020\221\025"
 300      7D7414D5 
 300      157F6F36 
 300      5F9B8440 
 300      28501091 
 301 0015 4BE9B125 		.ascii	"K\351\261%\301`{\260\236\012\3109\205\236\003\325\266"
 301      C1607BB0 
 301      9E0AC839 
 301      859E03D5 
 301      B6
 302 0026 7A8EFF6D 		.ascii	"z\216\377m\207\315H\266Mv\343\356D\240==N\"F\205@>\370"
 302      87CD48B6 
 302      4D76E3EE 
 302      44A03D3D 
 302      4E224685 
ARM GAS  /tmp/ccbGIoKp.s 			page 23


 303 003d 3ECA9788 		.ascii	">\312\227\210\306#E\204RJ%\270F\032\002V\011\224@!5"
 303      C6234584 
 303      524A25B8 
 303      461A0256 
 303      09944021 
 304 0052 AC4845D1 		.ascii	"\254HE\321\032\324\343\007\030\334\336\3671\2633\263"
 304      1AD4E307 
 304      18DCDEF7 
 304      31B333B3 
 305 0062 F3B5F9C3 		.ascii	"\363\265\371\3039\271\311\2337\357\336\373\273\277\373"
 305      39B9C99B 
 305      37EFDEFB 
 305      BBBFFB
 306 0071 DE9D372F 		.ascii	"\336\2357/\002\022Pe\016B)\270\356\233\214\320\233\320"
 306      02125065 
 306      0E4229B8 
 306      EE9B8CD0 
 306      9BD0
 307 0083 2E4408DD 		.ascii	".D\010\335\005R\002\262\015\344\031\220\347A\362ArA"
 307      055202B2 
 307      0DE41990 
 307      E741F241 
 307      7241
 308 0095 FA417A41 		.ascii	"\372AzA\316\203$A.\200\364\200\364\201|\010\362\021"
 308      CE832441 
 308      2E80F480 
 308      F4817C08 
 308      F211
 309 00a7 62D74890 		.ascii	"b\327H\220\217A>\007\271\0122\010\222\002\0210By ~\220"
 309      8F413E07 
 309      B90A3208 
 309      92021130 
 309      4279207E 
 310 00bc 61202340 		.ascii	"a #@n\000\231\0042\005d*H\005\310\014\220\237\201\314"
 310      6E009904 
 310      3205642A 
 310      4805C80C 
 310      909F81CC 
 311 00d0 062900BD 		.ascii	"\006)\000\275\271\360w>\310= \277\002\371\015\310\357"
 311      B9F0773E 
 311      C83D20BF 
 311      02F90DC8 
 311      EF
 312 00e1 411E06A9 		.ascii	"A\036\006\251\307\310p\021\277\244k&\277\307\274\317"
 312      C7C87011 
 312      BFA46B26 
 312      BFC7BCCF 
 313 00f1 7C116CC5 		.ascii	"|\021l\305|\334H\314\342[\001\177\233p:\346\361\320"
 313      7CDC48CC 
 313      E25B017F 
 313      9B703AE6 
 313      F1D0
 314 0103 5E89D35C 		.ascii	"^\211\323\\\224r_>\256\177\003\217A@\014\327\\\023\026"
 314      94725F3E 
 314      AE7F038F 
 314      41400CD7 
 314      5C1316
ARM GAS  /tmp/ccbGIoKp.s 			page 24


 315 0116 123BD08A 		.ascii	"\022;\320\212Vq\233\304\307-|\214\300\237\223\3301\312"
 315      56719BC4 
 315      C72D7C8C 
 315      C09F93D8 
 315      31CA
 316 0128 D41D74D1 		.ascii	"\324\035t\321\035t\320M\361\361\315\230\345\214\264"
 316      1D74D04D 
 316      F1F1CD98 
 316      E58CB4
 317 0137 49DE7EA0 		.ascii	"I\336~\240\323'c\246p\375\371&}\222\247Q\\\257\204\363"
 317      D32763A6 
 317      70FDF926 
 317      7D92A751 
 317      5CAF84F3 
 318 014b D482D35C 		.ascii	"\324\202\323\\\021\236.B\273\225c+\343\274\3519S\347"
 318      119E2E42 
 318      BB95632B 
 318      E3BCE939 
 318      53E7
 319 015d 48A98E3F 		.ascii	"H\251\216?\304c\022x\256U\376|\234\277{,8$\363e\214"
 319      C4631278 
 319      AE55FE7C 
 319      9CBF7B2C 
 319      3824F365 
 320 0172 098B1E47 		.ascii	"\011\213\036G\033\307\240\316\305\351\036\261\254&~"
 320      1BC7A0CE 
 320      C5E91EB1 
 320      AC267E
 321 0181 B9AF5CEE 		.ascii	"\271\257\\\356\247B\207I\320\341\232\313\261\351/2\207"
 321      A7428749 
 321      D0E19ACB 
 321      B1E92F32 
 321      87
 322 0192 C77AE068 		.ascii	"\307z\340h\015\317\301\035\360w-\310]\016\230H\276\372"
 322      0DCFC11D 
 322      F0772DC8 
 322      5D0E9848 
 322      BEFA
 323 01a4 789EF4EB 		.ascii	"x\236\364\353)\217\373S\327\305\010\276^\310\274\326"
 323      298FFB53 
 323      D7C508BE 
 323      5EC8BCD6 
 324 01b4 7367CE23 		.ascii	"sg\316#Yc\243\035\270[\307\261\251\334\335\355\001\343"
 324      5963A31D 
 324      B85BC7B1 
 324      A9DCDDED 
 324      01E3
 325 01c6 7A6817EA 		.ascii	"zh\027\352x\033\306\327\251\212\313\257\343M]\263\372"
 325      781BC6D7 
 325      A98ACBAF 
 325      E34D5DB3 
 325      FA
 326 01d7 AB082D57 		.ascii	"\253\010-W\224\006ek\2432\257\273\244\024\265(p\005"
 326      9406656B 
 326      A332AFBB 
 326      A414B528 
 326      7005
ARM GAS  /tmp/ccbGIoKp.s 			page 25


 327 01e9 3694F8D1 		.ascii	"6\224\370\321\023\244;\271C\031\013\254>\200E\014]\005"
 327      13A43BB9 
 327      43190BAC 
 327      3E80450C 
 327      5D05
 328 01fb B451ECA7 		.ascii	"\264Q\354\247\223t2z\026\206\302xA\304\333\261\037&"
 328      9374327A 
 328      1686C278 
 328      41C4DBB1 
 328      1F26
 329 020d B16032AD 		.ascii	"\261`2\255^\3549\271\210:k\253\255\024\326\254/Q\255"
 329      5EEC39B9 
 329      883A6BAB 
 329      AD14D6AC 
 329      2F51AD
 330 0220 0FE75ACF 		.ascii	"\017\347Z\317\340R\226Z\202E\341\020\351\010\256\021"
 330      E052965A 
 330      8245E110 
 330      E908AE11 
 331 0230 503572B8 		.ascii	"P5r\270\306s:?\305\376t\243\204#\261\323\333\206\213"
 331      C6733A3F 
 331      C5FE74A3 
 331      8423B1D3 
 331      DB868B
 332 0243 2CF91889 		.ascii	",\371\030\211Z)\037\335%\232\256\202U\345\021*\011-"
 332      5A291FDD 
 332      259AAE82 
 332      55E5112A 
 332      092D
 333 0255 C9E6CB63 		.ascii	"\311\346\313c\225\034\021\267\343\221@\303O0\272\025"
 333      951C11B7 
 333      E39140C3 
 333      4F30BA15 
 334 0265 BDC0B869 		.ascii	"\275\300\270i\230b\305\211\253Y\202i'\030\023\361\213"
 334      9862C589 
 334      AB598269 
 334      271813F1 
 334      8B
 335 0276 F856CE74 		.ascii	"\370V\316t\342@W1qB\372\021\177bq\335\214\266\222\301"
 335      E2405731 
 335      7142FA11 
 335      7F6271DD 
 335      8CB692C1 
 336 028a AF743D3D 		.ascii	"\257t==N\331\332\211\271\253\255y:_\206\360y\004g\272"
 336      4ED9DA89 
 336      B9ABAD79 
 336      3A5F86F0 
 336      790467BA 
 337 029e 2E5EC28F 		.ascii	".^\302\217*\012<x\211F\361\0206\370p\265#\240?\021\215"
 337      2A0A3C78 
 337      8946F110 
 337      36F870B5 
 337      23A03F11 
 338 02b3 3D66D49B 		.ascii	"=f\324\233\266P\324{\334Q/\253Ol9\277\216\242\246\031"
 338      B650D47B 
 338      DC512FAB 
 338      4F6C39BF 
ARM GAS  /tmp/ccbGIoKp.s 			page 26


 338      8EA2A619 
 339 02c7 AFE74970 		.ascii	"\257\347Ip\304\275\377X\327\011\212\3330I\254UD\274"
 339      C4BDFF58 
 339      D7098ADB 
 339      3049AC55 
 339      44BC
 340 02d9 1F4F86DF 		.ascii	"\037O\206\337y~\015\010y\012\267D\363+\362\346\305\217"
 340      797E0D08 
 340      790AB744 
 340      F32BF2E6 
 340      C58F
 341 02eb F01E7293 		.ascii	"\360\036r\223O\242:\214\215Dx\360\303\241\355{\353\360"
 341      4FA23A8C 
 341      8D4478F0 
 341      C3A1ED7B 
 341      EBF0
 342 02fd CBB88152 		.ascii	"\313\270\201R\372w\272>\336\037\262\251\023\307\367"
 342      FA77BA3E 
 342      DE1FB2A9 
 342      13C7F7
 343 030c CF509402 		.ascii	"\317P\224\002\021wPC\233\005\243!\212\330\260\340\262"
 343      11775043 
 343      9B05A321 
 343      8AD8B0E0 
 343      B2
 344 031d 08F1DBD6 		.ascii	"\010\361\333\326\023P\273\240\316\024\253\220\265\265"
 344      1350BBA0 
 344      CE14AB90 
 344      B5B5
 345 032b 8B90C689 		.ascii	"\213\220\306\211\303\245\237r\"\376\013M\360>|sz\200"
 345      C3A59F72 
 345      22FE0B4D 
 345      F03E7C73 
 345      7A80
 346 033d 8076527F 		.ascii	"\200vR\177;\263\367\307\326Rr\340R\267\257^I,\363Y\254"
 346      3BB3F7C7 
 346      D65272E0 
 346      52B7AF5E 
 346      492CF359 
 347 0352 DBDFAAFA 		.ascii	"\333\337\252\372\305Z\266\022\233\272p@\304\257\323"
 347      C55AB612 
 347      9BBA7040 
 347      C4AFD3
 348 0361 65B45BB0 		.ascii	"e\264[\260\\G\266&H@]\3465\324\312V~\227\207\225\337"
 348      5C47B626 
 348      48405DE6 
 348      35D4CA56 
 348      7E978795 
 349 0376 9058DDB8 		.ascii	"\220X\335\270\211\256!\253B\346\264|\017Q\244\307\314"
 349      89AE21AB 
 349      42E6B47C 
 349      0F51A4C7 
 349      CC
 350 0387 BE3F1103 		.ascii	"\276?\021\003\254\327\335\363g\037\034\305J[\261\210"
 350      ACD7DDF3 
 350      671F1CC5 
 350      4A5BB188 
ARM GAS  /tmp/ccbGIoKp.s 			page 27


 351 0397 8F827301 		.ascii	"\217\202s\001\035\323\014\0165\315v\345\372h\272\\\213"
 351      1DD30C0E 
 351      35CD76E5 
 351      FA68BA5C 
 351      8B
 352 03a8 F82D2C70 		.ascii	"\370-,p\316\206\222\335\206\304Z^)\371\033\317\303j"
 352      CE8692DD 
 352      86C45A5E 
 352      29F91BCF 
 352      C36A
 353 03ba 7C75DDE9 		.ascii	"|u\335\351\317\370\302\356\241\353\261\301g^\217\271"
 353      CFF8C2EE 
 353      A1EBB1C1 
 353      675E8FB9 
 354 03ca A6F5986B 		.ascii	"\246\365\230k\\\037\271\376t\203,\213\341$\001OR+\331"
 354      5C1FB9FE 
 354      74832C8B 
 354      E124014F 
 354      522BD9
 355 03dd 0412D007 		.ascii	"\004\022\320\007\222l~\267\333\267\221LSC\346\307\240"
 355      926C7EB7 
 355      DBB7914C 
 355      5343E6C7 
 355      A0
 356 03ee B5BCC828 		.ascii	"\265\274\310(X\026\361\314\"[VO\3431\264\345\243\373"
 356      5816F1CC 
 356      225B564F 
 356      E331B4E5 
 356      A3FB
 357 0400 51C482D3 		.ascii	"Q\304\202\323nXD\"\276\337\347\230\036NQ\337\271#\255"
 357      6E584422 
 357      BEDFE798 
 357      1E4E51DF 
 357      B923AD
 358 0413 9CA25E3A 		.ascii	"\234\242^:\031^7Qd\300\310|\333\341\352\003\003\326"
 358      195E3751 
 358      64C0C87C 
 358      DBE1EA03 
 358      03D6
 359 0425 532FE399 		.ascii	"S/\343\231\200z\274\220X\3404\351\014\366\273t\265\345"
 359      807ABC90 
 359      58E034E9 
 359      0CF6BB74 
 359      B5E5
 360 0437 08AD2DDD 		.ascii	"\010\255-\335P[D|\234\376>e\2543g}\246:cX\331\016\011"
 360      505B447C 
 360      9CFE3E65 
 360      AC33677D 
 360      A63A6358 
 361 044e B4F6BD53 		.ascii	"\264\366\275S\347\373\317\324\367.\352\265S\357\325"
 361      E7FBCFD4 
 361      F72EEAB5 
 361      53EFD5
 362 045d 8EB4E76D 		.ascii	"\216\264\347mv4\254.\331i\365\333h\245\367\205l\327"
 362      7634AC2E 
 362      D969F5DB 
 362      68A5F785 
ARM GAS  /tmp/ccbGIoKp.s 			page 28


 362      6CD7
 363 046f C6F51F50 		.ascii	"\306\365\037P\365\213\270~2\353\035\333;6;\266B\227"
 363      F58BB87E 
 363      32EB1DDB 
 363      3B363BB6 
 363      4297
 364 0481 F8CEBB20 		.ascii	"\370\316\273 \355.\361\276\236\367\255\372\307k|\262"
 364      ED2EF1BE 
 364      9EF7ADFA 
 364      C76B7CB2 
 365 0491 5EA4EBB9 		.ascii	"^\244\353\271\337g\361\242\366d\352D\363\301;\350\213"
 365      DF67F1A2 
 365      F664EA44 
 365      F3C13BE8 
 365      8B
 366 04a2 FA123574 		.ascii	"\372\0225t)\2430\344\233\012C\276\2610\344\373\323\015"
 366      29A330E4 
 366      9B0A43BE 
 366      B130E4FB 
 366      D30D
 367 04b4 5E18B21C 		.ascii	"^\030\262\034n\273\237|7\353\334\\\266\311\215Z\001"
 367      6EBB9F7C 
 367      37EBDC5C 
 367      B6C98D5A 
 367      01
 368 04c5 ECF42E64 		.ascii	"\354\364.d7\213\2725\250\343\270\201\217\262\206\372"
 368      378BBA35 
 368      A8E3B881 
 368      8FB286FA 
 369 04d5 3F1BA863 		.ascii	"?\033\250c]\240~\230\206:\021mVz\256${\317\037\272\211"
 369      5DA07E98 
 369      863A116D 
 369      567AAE24 
 369      7BCF1FBA 
 370 04ea 54512595 		.ascii	"TQ%\225z\204\027E\001\355\3101\346\361{h\273\242\264"
 370      7A841745 
 370      01EDC831 
 370      E6F17B68 
 370      BBA2B4
 371 04fd 29EBA579 		.ascii	")\353\245y\352+`/\035\3611\236h\263\363$\243T\265^\242"
 371      EA2B602F 
 371      1DF1319E 
 371      68B3F324 
 371      A354B55E 
 372 0512 964BB4FE 		.ascii	"\226K\264\376\346\242\305\212\356\367\321\016Bb\307"
 372      E6A2C58A 
 372      EEF7D10E 
 372      4262C7
 373 0521 C57BE7D1 		.ascii	"\305{\347\321\002\216\034tx\\\003X\320O\034\022[\342"
 373      028E1C74 
 373      785C0358 
 373      D04F1C12 
 373      5BE2
 374 0533 4A62E3C9 		.ascii	"Jb\343\311U\360\252kH\244R3\221\351\275p\327h[\216\276"
 374      55F0AA6B 
 374      48A45233 
 374      91E9BD70 
ARM GAS  /tmp/ccbGIoKp.s 			page 29


 374      D7685B8E 
 375 0548 E0EF8574 		.ascii	"\340\357\205t\355\207\315\202\211\020\016\022\256v\305"
 375      ED87CD82 
 375      89100E12 
 375      AE76C5
 376 0557 47AD91F1 		.ascii	"G\255\221\361\237\003H\303\364\375\322\022V\313\311"
 376      9F0348C3 
 376      F4FDD212 
 376      56CBC9
 377 0566 E296FA64 		.ascii	"\342\226\372d*5\221\371\022\320\277<Y\277j\266~\315"
 377      2A3591F9 
 377      12D0BF3C 
 377      59BF6AB6 
 377      7ECD
 378 0578 D2FAE937 		.ascii	"\322\372\3517L\326\337\363d}\320l\375\272\245\365\257"
 378      4CD6DFF3 
 378      647DD06C 
 378      FDBAA5F5 
 378      AF
 379 0589 BA4CD6AF 		.ascii	"\272L\326\257z\262\2362[W\004+\353\375o4\0250\363\336"
 379      7AB29E32 
 379      5B57042B 
 379      EBFD6F34 
 379      1530F3DE 
 380 059d D3F5A890 		.ascii	"\323\365\250\220\231\256\246\\KP-FP\015\202\011\324"
 380      99AEA65C 
 380      4B502D46 
 380      500D8209 
 380      D4
 381 05ae 322B50CA 		.ascii	"2+P\312\036E\361\303\352H\221\017\177\026s\273\265y"
 381      1E45F1C3 
 381      EA48910F 
 381      7F1673BB 
 381      B579
 382 05c0 53CC8D66 		.ascii	"S\314\215f\363\217[\306\334r$\373\230\227[\304\334\341"
 382      F38F5BC6 
 382      DC7224FB 
 382      98975BC4 
 382      DCE1
 383 05d2 29E627CD 		.ascii	")\346'\315\240Vx\214\371\254\247\230W\232\315\257\312"
 383      A056788C 
 383      F9ACA798 
 383      579ACDAF 
 383      CA
 384 05e3 349F6C49 		.ascii	"4\237lIv\014\\\371\321\206=\312\262'\225oR\217`C\334"
 384      760C5CF9 
 384      D1863DCA 
 384      B227956F 
 384      528F6043 
 385 05f8 05E8717A 		.ascii	"\005\350qz\020\363\230R\217\037r?\211i\023\012\000\334"
 385      10F39852 
 385      8F1F723F 
 385      8969130A 
 385      00DC
 386 060a 8A3CDBA3 		.ascii	"\212<\333\243\0302\200\\D\237\265\325\026\266/\223\255"
 386      1832805C 
 386      449FB5D5 
ARM GAS  /tmp/ccbGIoKp.s 			page 30


 386      16B62F93 
 386      AD
 387 061b 82696B48 		.ascii	"\202ikH\306\363\033C\211\327\216\215\022c7\224X\243"
 387      C6F31B43 
 387      89D78E8D 
 387      12633794 
 387      58A3
 388 062d 15F1B374 		.ascii	"\025\361\263t3\343\351L(\003\311z\241\310\020\216n;"
 388      33E3E94C 
 388      2803C97A 
 388      A1C8108E 
 388      6E3B
 389 063f 2AA0D63C 		.ascii	"*\240\326<sN\330\240\215\226\2447\277t\024oT:Y\245\367"
 389      734ED8A0 
 389      8D96A437 
 389      BF74146F 
 389      543A59A5 
 390 0654 BE4D7ECA 		.ascii	"\276M~\312\314\005\331j\361\033\357\033\2053\215\247"
 390      CC05D96A 
 390      F11BEF1B 
 390      85338DA7 
 391 0664 9EE77B8E 		.ascii	"\236\347{\216\315\002\375\246\3173o\025.\342\241\354"
 391      CD02FDA6 
 391      CF336F15 
 391      2EE2A1EC 
 392 0674 154C94B4 		.ascii	"\025L\224\264\333P\262\315\232\222]\257\331R\342\260"
 392      DB50B2CD 
 392      9A925DAF 
 392      D952E2B0 
 393 0684 FCB63B50 		.ascii	"\374\266;P\302_}\031\300:m\200=g\005,q\362X\223\202"
 393      C25F7D19 
 393      C03A6D80 
 393      3D67052C 
 393      71F25893 
 394 0699 B3AD0AED 		.ascii	"\263\255\012\355fX\375\026\260\264\373^\266\0250\301"
 394      6658FD16 
 394      B0B4FB5E 
 394      B61530C1 
 395 06a9 3C670373 		.ascii	"<g\003s\247%\314o\206\002s\227#{3\255P}h\203\352eKT"
 395      A725CC6F 
 395      86027397 
 395      237B33AD 
 395      507D6883 
 396 06c1 9F0E05D5 		.ascii	"\237\016\005\325^\017\250\\R|\335\006\345~K\224\377"
 396      5E0FA85C 
 396      527CDD06 
 396      E57E4B94 
 396      FF
 397 06d2 190ACA03 		.ascii	"\031\012\312\003\216)\266\344nM\2765\252\203\226\250"
 397      8E29B6E4 
 397      6E4DBE35 
 397      AA8396A8 
 398 06e2 CE1E6B1A 		.ascii	"\316\036k\032\247l\263\33429\324\210CV\260L8\266\330"
 398      A76CB3DC 
 398      3239D488 
 398      4356B04C 
 398      38B6D8
ARM GAS  /tmp/ccbGIoKp.s 			page 31


 399 06f5 E04858E2 		.ascii	"\340HX\342\350]n\213\303\201\236N\017\364\270$\361E"
 399      E85D6E8B 
 399      C3819E4E 
 399      0FF4B824 
 399      F145
 400 0707 1B985D46 		.ascii	"\033\230]F\230\223\3206%\321\223<\265\245\003\303\016"
 400      9893D036 
 400      25D1933C 
 400      B5A503C3 
 400      0E
 401 0718 5381F758 		.ascii	"S\201\367X\012\253\007\342\257h&l?N\272\271\265\333"
 401      0AAB07E2 
 401      AF68266C 
 401      3F4EBAB9 
 401      B5DB
 402 072a D15EE589 		.ascii	"\321^\345\211D\200i\262\017^\3265\202\235K\263\263="
 402      448069B2 
 402      0F5ED635 
 402      829D4BB3 
 402      B33D
 403 073c A29CC7C1 		.ascii	"\242\234\307\301vjC\246\261o[\366\211N\206\260c\"\366"
 403      766A43A6 
 403      B16F5BF6 
 403      894E86B0 
 403      6322F6
 404 074f B1CE0F5B 		.ascii	"\261\316\017[r\020\373j'\267}\352\336\237aO\364\347"
 404      7210FB6A 
 404      27B77DEA 
 404      DE9F614F 
 404      F4E7
 405 0761 762B0A21 		.ascii	"v+\012!X=\273K\230qg\234\324\275i\200=T\000\334\377"
 405      583DBB4B 
 405      9871679C 
 405      D4BD6980 
 405      3D5400DC 
 406 0776 DB3BFCF0 		.ascii	"\333;\374\360q\240\\\201J\316\276\326\004t\330\235\271"
 406      71A05C81 
 406      4ACEBED6 
 406      0474D89D 
 406      B9
 407 0787 9E741E88 		.ascii	"\236t\036\210\235\255m\311\203\003W~H\213\2702\010I"
 407      9DAD6DC9 
 407      8303577E 
 407      488BB832 
 407      0849
 408 0799 C0FC53E3 		.ascii	"\300\374S\343\237fS\031\223\345\244\321\322\356\004"
 408      9F665319 
 408      93E5A4D1 
 408      D2EE04
 409 07a8 7C0BF53F 		.ascii	"|\013\365?\213W+\012\343\005OL\177\\k/\375\204\356p"
 409      8B572B0A 
 409      E3054F4C 
 409      7F5C6B2F 
 409      FD84EE70 
 410 07bc 11A6A3DB 		.ascii	"\021\246\243\333?J:\006z\306\222\323z\327\377\200\210"
 410      3F4A3A06 
 410      7AC692D3 
ARM GAS  /tmp/ccbGIoKp.s 			page 32


 410      7AD7FF80 
 410      88
 411 07cd F88C30   		.ascii	"\370\2140"
 412 07d0 D9DB3F4A 		.ascii	"\331\333?J\316\012\246#\313\257\245\000\353u?\262\274"
 412      CE0AA623 
 412      CBAFA500 
 412      EB753FB2 
 412      BC
 413 07e1 7EBD9B1D 		.ascii	"~\275\233\035Y\222}\205\200NS\222\210\352\320\316\022"
 413      59927D85 
 413      804E5392 
 413      88EAD0CE 
 413      12
 414 07f2 531F5073 		.ascii	"S\037Ps\246\023\227/\034\016\267\372\005\323\001V_\326"
 414      A613972F 
 414      1C0EB7FA 
 414      05D30156 
 414      5FD6
 415 0804 10020608 		.ascii	"\020\002\006\010-\360A\"2\273\002z\307\2131\253\323"
 415      2DF04122 
 415      32BB027A 
 415      C78B31AB 
 415      D3
 416 0815 306EAC4D 		.ascii	"0n\254Mo\354r\326\306\002&\322\325\323\254s\002\331"
 416      6FEC72D6 
 416      C60226D2 
 416      D5D3AC73 
 416      02D9
 417 0827 00F609E4 		.ascii	"\000\366\011\3444\353m\372;I\177_\020\014\347i\237\346"
 417      34EB6DFA 
 417      3B497F5F 
 417      100CE769 
 417      9FE6
 418 0839 9BB7442C 		.ascii	"\233\267D,\251:{\351\334#w\213\32690\237D\332\304G\354"
 418      A93A7BE9 
 418      DC23778B 
 418      D639309F 
 418      44DAC447 
 419 084e FFD7B0F9 		.ascii	"\377\327\260\371\324\2314O\312\364BaJ\266s\367=\241"
 419      D499344F 
 419      CAF44261 
 419      4AB673F7 
 419      3DA1
 420 0860 94B72EEB 		.ascii	"\224\267.\353w{\272[x\215\272\027\201K\260toB\315\005"
 420      777BBA5B 
 420      788DBA17 
 420      814BB074 
 420      6F42CD05 
 421 0874 9B14C63F 		.ascii	"\233\024\306?\253G\263\240\324\200}-\263\177D\327\224"
 421      AB47B3A0 
 421      D4807D2D 
 421      B37F44D7 
 421      94
 422 0885 0D4AB277 		.ascii	"\015J\262w\313\371\333\031,\262\314{z\022g\216=\255"
 422      CBF9DB19 
 422      2CB2CC7B 
 422      7A12678E 
ARM GAS  /tmp/ccbGIoKp.s 			page 33


 422      3DAD
 423 0897 2FDA8401 		.ascii	"/\332\204\001\001\275P\340\352\365#C\365\233\3054Y\026"
 423      01BD50E0 
 423      EAF52343 
 423      F59BC534 
 423      5916
 424 08a9 982B787B 		.ascii	"\230+x{b/'@\033\004\325\364-\334\364\025!\333\023\240"
 424      622F2740 
 424      1B04D5F4 
 424      2DDCF415 
 424      21DB13A0 
 425 08bd 4F04EB13 		.ascii	"O\004\353\023\240I\216\311\027\361@:\2477\241\277\002"
 425      A0498EC9 
 425      17F1403A 
 425      A737A1BF 
 425      02
 426 08ce 831B66A5 		.ascii	"\203\033f\245\335\263\311D\202yBI\234+T\227+\377zg\223"
 426      DDB3C944 
 426      82794249 
 426      9C2B5497 
 426      2BFF7A67 
 427 08e3 8CD8EB17 		.ascii	"\214\330\353\027X\241\277\220\036\335\257\215\326\177"
 427      58A1BF90 
 427      1EDDAF8D 
 427      D67F
 428 08f1 03721458 		.ascii	"\003r\024X%\250\345;\206L<u\334\"\023\347\3343\361\245"
 428      25A8E53B 
 428      864C3C75 
 428      DC2213E7 
 428      DC33F1A5 
 429 0905 6B26361D 		.ascii	"k&6\035\367\224\211\177\373T\323wr\323_g\235\211A\233"
 429      F794897F 
 429      FB54D377 
 429      72D35F67 
 429      9D89419B 
 430 0919 4CFCD425 		.ascii	"L\374\324%\023\327\364\231\270\3043\361\265U&6\017W"
 430      13D7F499 
 430      B8C433F1 
 430      B5552636 
 430      0F57
 431 092b B91DF490 		.ascii	"\271\035\364\220\211=\332\350\306\314L\010*A\353\214"
 431      893DDAE8 
 431      C6CC4C08 
 431      2A41EB8C 
 432 093b 99E83869 		.ascii	"\231\3508i\221\211\355~\327L4\370\3342\361\352IO\231"
 432      9189ED7E 
 432      D74C34F8 
 432      DC32F1EA 
 432      494F99
 433 094e 785F333D 		.ascii	"x_3=\201\233n\364e\233\211\307}\326\231\270\321%\023"
 433      819B6EF4 
 433      659B89C7 
 433      7DD699B8 
 433      D12513
 434 0961 8FF97499 		.ascii	"\217\371t\231\330\355g\231P\335\0332\3213R\345\366\252"
 434      D8ED6799 
 434      50DD1B32 
ARM GAS  /tmp/ccbGIoKp.s 			page 34


 434      D13352E5 
 434      F6AA
 435 0973 874C9CD2 		.ascii	"\207L\234\322F\353O\0069\0126\363\324\022k\252\312\271"
 435      46EB4F06 
 435      390A36F3 
 435      D4126BAA 
 435      CAB9
 436 0985 F641AEF0 		.ascii	"\366A\256\360\331\375\247\203|\251\333i5\331j\265:h"
 436      D9FDA783 
 436      7CA9DB69 
 436      35D96AB5 
 436      3A68
 437 0997 ADB4D5DA 		.ascii	"\255\264\325\332\356\240\265\312V\253\335A\253\331V"
 437      EEA0B5CA 
 437      56ABDD41 
 437      ABD956
 438 09a6 EB22B667 		.ascii	"\353\"\266g\243\305Vk\227\203\257V[\255\275\016Zm\266"
 438      A3C5566B 
 438      9783AF56 
 438      5BADBD0E 
 438      5A6DB6
 439 09b9 5A8F3A68 		.ascii	"Z\217:h\255\266\325:\340\240\265\306V\353\220\203\326"
 439      ADB6D53A 
 439      E0A0B5C6 
 439      56EB9083 
 439      D6
 440 09ca 5A5BAD4E 		.ascii	"Z[\255N\007\255u\266Z\313\035\264\326\247\265PN\250"
 440      07AD75B6 
 440      5ACB1DB4 
 440      D6A7B550 
 440      4EA8
 441 09dc 4A8C9595 		.ascii	"J\214\225\225\225\225\263\237h\274<\024\255\251\211"
 441      9595B39F 
 441      68BC3C14 
 441      ADA989
 442 09eb 46A0551D 		.ascii	"F\240U\035^X\036\216\204\252\353*\245\362PU\215TS\033"
 442      5E581E8E 
 442      84AAEB2A 
 442      A5F25055 
 442      8D54531B 
 443 09ff 8D56C7CB 		.ascii	"\215V\307\313\252\320\350Eub\254R\252\014B_4\2664H\372"
 443      AAD0E845 
 443      7562AC52 
 443      AA0C425F 
 443      34B63448 
 444 0a14 8372DEDC 		.ascii	"\203r\336\334_\336\037\230\203&\350mE\302\325:\023\240"
 444      5FDE1F98 
 444      8326E86D 
 444      45C2D53A 
 444      13A0
 445 0a26 5A14976A 		.ascii	"Z\024\227j\304\332\252hL\012\312\303\340iP\273\237a"
 445      C4DAAA68 
 445      4C0ACAC3 
 445      E06950BB 
 445      9F61
 446 0a38 81A1361A 		.ascii	"\201\2416\032\223\343\345\263\177\275`\316\202%\244"
 446      93E3E5B3 
ARM GAS  /tmp/ccbGIoKp.s 			page 35


 446      7FBD60CE 
 446      8225A4
 447 0a47 AF365C2D 		.ascii	"\2576\\-\305\342\345s\347\314\001k\362\322Z\211\240"
 447      C5E2E573 
 447      E7CC016B 
 447      F2D25A89 
 447      A0
 448 0a58 C90D45E4 		.ascii	"\311\015E\344\240<\241\274.\036\323|E\244\305\004}\\"
 448      A03CA1BC 
 448      2E1ED37C 
 448      45A4C504 
 448      7D5C
 449 0a6a AE0C4764 		.ascii	"\256\014Gd\030\223\017\177\246W\004\345\251V\243j\304"
 449      18930F7F 
 449      A65704E5 
 449      A956A36A 
 449      C4
 450 0a7b 50553822 		.ascii	"PU8\"\225\007+\245\007\305\272j0\306-\373\203A\256\347"
 450      95072BA5 
 450      07C5BA6A 
 450      30C62DFB 
 450      8341AEE7 
 451 0a8f 031F3E80 		.ascii	"\003\037>\200:\314\020q\021\375S%\211\225R,'\"-\221"
 451      3ACC1071 
 451      11FD5325 
 451      8995522C 
 451      27222D91 
 452 0aa3 2BA87962 		.ascii	"+\250ybsQ(T.\306j\246F\242\021i\252$.\014\227\337^6"
 452      73512854 
 452      2EC66AA6 
 452      46A21169 
 452      AA242E0C 
 453 0abb A3AC4273 		.ascii	"\243\254Bs\015\310\300\033\370\310\213\207\377\000\\"
 453      0DC8C01B 
 453      F8C88B87 
 453      FF005C
 454 0aca 144517FE 		.ascii	"\024E\027\376N\012\311Ar7\325[6B@\032\030(\206\346\""
 454      4E0AC941 
 454      7237D55B 
 454      3642401A 
 454      182886E6 
 455 0adf 497EB02E 		.ascii	"I~\260.\022\012\312\005\265\261\350\303a\002\207@+\250"
 455      120ACA05 
 455      B5B1E8C3 
 455      61028740 
 455      2BA8
 456 0af1 E3F00B83 		.ascii	"\343\360\013\203A\265Y\241\031\227\245\270L\023\024"
 456      41B559A1 
 456      1997A5B8 
 456      4C1314
 457 0b00 8FD6C542 		.ascii	"\217\326\305B\022\273'\277 '\017\325I\221\220\024\234"
 457      12BB27BF 
 457      20270FD5 
 457      49919014 
 457      9C
 458 0b11 36EDC765 		.ascii	"6\355\307e!4,RW]\035\324,\023\210\271buxQd\024\035\015"
 458      21342C52 
ARM GAS  /tmp/ccbGIoKp.s 			page 36


 458      575D1DD4 
 458      2C1388B9 
 458      62757851 
 459 0b29 8340A607 		.ascii	"\203@\246\007\245%R\250N\226F\032:\343\222\\W\253\357"
 459      A52552A8 
 459      4E96461A 
 459      3AE3925C 
 459      57ABEF
 460 0b3c AAC8ECBA 		.ascii	"\252\310\354\272\215u\2157\214\342\326\312j\305\230"
 460      8D758D37 
 460      8CE2D6CA 
 460      6AC598
 461 0b4b 5C366D94 		.ascii	"\\6m\224\325\263\361\006\033\006\205\333FY=\273\321"
 461      D5B3F106 
 461      1B0685DB 
 461      46593DBB 
 461      D1
 462 0b5c 183B6134 		.ascii	"\030;a4T\025$m2\215\202w\003e\305\3646(\306\343RL\366"
 462      5415246D 
 462      328D8277 
 462      0365C5F4 
 462      3628C6E3 
 463 0b73 C797C6E5 		.ascii	"\307\227\306\345p\015\244g\\\250j.\233\363\367\302\240"
 463      700DA467 
 463      5CA86A2E 
 463      9BF3F7C2 
 463      A0
 464 0b84 D9D5D5D1 		.ascii	"\331\325\325\321\320}\360 Z'\177\327\360\344\036\232"
 464      D07DF020 
 464      5A277FD7 
 464      F0E41E9A 
 465 0b94 C55F44C2 		.ascii	"\305_D\302\362\210P\225\261\243\3240\360\3471I\032c"
 465      F2885095 
 465      B1A3D430 
 465      F0E73149 
 465      1A63
 466 0ba6 E8991F15 		.ascii	"\350\231\037\025+g\307b\342\322B\246IF\024\261&\365"
 466      2B67C762 
 466      E2D242A6 
 466      494614B1 
 466      26F5
 467 0bb8 379CB5B5 		.ascii	"7\234\265\265a9\213jjo\363\201\344\263\251\023\367\263"
 467      61398B6A 
 467      6A6FF381 
 467      E4B3A913 
 467      F7B3
 468 0bca DCC9526D 		.ascii	"\334\311RmND\254\221r)\251\005\262\004\036\242\213#"
 468      4E44AC91 
 468      7229A905 
 468      B2041EA2 
 468      8B23
 469 0bdc F99C8342 		.ascii	"\371\234\203B2*$\306!\250\322\214d\217+\213E+EY,\313"
 469      322A24C6 
 469      21A8D28C 
 469      648F2B8B 
 469      452B4559 
 470 0bf2 7852ACE7 		.ascii	"xR\254\347\363\026\002\"\034Y\024\020#\225\001(\013"
ARM GAS  /tmp/ccbGIoKp.s 			page 37


 470      F3160222 
 470      1C591410 
 470      23950128 
 470      0B
 471 0c03 F2527A13 		.ascii	"\362Rz\023`\213#@\246\036\322+T\334i\243\300\353\210"
 471      608B2340 
 471      A61ED22B 
 471      54DC69A3 
 471      C0EB88
 472 0c16 5E31B038 		.ascii	"^1\2608,W\001\257\201\305bX\206Q\006C\323'p\302\002"
 472      2C5701AF 
 472      81C56258 
 472      86510643 
 472      D32770C2 
 473 0c2b 0B980661 		.ascii	"\013\230\006a$\036\220Y*\320\377\001C\001\022L"
 473      241E9059 
 473      2AD0FF01 
 473      4301124C 
 474              		.text
 475              		.section	.gnu.lto_.symtab.a398aee2339460e5,"",%progbits
 476 0000 74657374 		.ascii	"test_sequence_005\000\000\000\000\000\000\000\000\000"
 476      5F736571 
 476      75656E63 
 476      655F3030 
 476      35000000 
 477 001a 00000053 		.ascii	"\000\000\000S\001\000\000test_step\000\000\002\000\000"
 477      01000074 
 477      6573745F 
 477      73746570 
 477      00000200 
 478 002f 00000000 		.ascii	"\000\000\000\000\000\000\000Q\001\000\000_test_asse"
 478      00000051 
 478      0100005F 
 478      74657374 
 478      5F617373 
 479 0044 72740000 		.ascii	"rt\000\000\002\000\000\000\000\000\000\000\000\000\020"
 479      02000000 
 479      00000000 
 479      000010
 480 0053 01000063 		.ascii	"\001\000\000chGuardedPoolAllocTimeout\000\000\002\000"
 480      68477561 
 480      72646564 
 480      506F6F6C 
 480      416C6C6F 
 481 0073 00000000 		.ascii	"\000\000\000\000\000\000\000\000\032\001\000\000chG"
 481      00000000 
 481      1A010000 
 481      636847
 482 0082 75617264 		.ascii	"uardedPoolObjectInit\000\000\002\000\000\000\000\000"
 482      6564506F 
 482      6F6C4F62 
 482      6A656374 
 482      496E6974 
 483 009e 00000000 		.ascii	"\000\000\000\000\"\001\000\000chPoolObjectInit\000\000"
 483      22010000 
 483      6368506F 
 483      6F6C4F62 
ARM GAS  /tmp/ccbGIoKp.s 			page 38


 483      6A656374 
 484 00b8 02000000 		.ascii	"\002\000\000\000\000\000\000\000\000\000'\001\000\000"
 484      00000000 
 484      00002701 
 484      0000
 485 00c6 63684775 		.ascii	"chGuardedPoolFree\000\000\002\000\000\000\000\000\000"
 485      61726465 
 485      64506F6F 
 485      6C467265 
 485      65000002 
 486 00e0 0000002D 		.ascii	"\000\000\000-\001\000\000chGuardedPoolLoadArray\000"
 486      01000063 
 486      68477561 
 486      72646564 
 486      506F6F6C 
 487 00fe 00020000 		.ascii	"\000\002\000\000\000\000\000\000\000\000\0002\001\000"
 487      00000000 
 487      00000032 
 487      0100
 488 010c 00636850 		.ascii	"\000chPoolFree\000\000\002\000\000\000\000\000\000\000"
 488      6F6F6C46 
 488      72656500 
 488      00020000 
 488      00000000 
 489 0121 00003801 		.ascii	"\000\0008\001\000\000chPoolAlloc\000\000\002\000\000"
 489      00006368 
 489      506F6F6C 
 489      416C6C6F 
 489      63000002 
 490 0137 00000000 		.ascii	"\000\000\000\000\000\000\000=\001\000\000chPoolLoad"
 490      0000003D 
 490      01000063 
 490      68506F6F 
 490      6C4C6F61 
 491 014c 41727261 		.ascii	"Array\000\000\002\000\000\000\000\000\000\000\000\000"
 491      79000002 
 491      00000000 
 491      00000000 
 491      00
 492 015d 41010000 		.ascii	"A\001\000\000"
 493              		.text
 494              		.section	.gnu.lto_.opts,"",%progbits
 495 0000 272D6D63 		.ascii	"'-mcpu=cortex-m0' '-mno-thumb-interwork' '-mthumb' "
 495      70753D63 
 495      6F727465 
 495      782D6D30 
 495      2720272D 
 496 0033 272D6767 		.ascii	"'-ggdb' '-O2' '-fomit-frame-pointer' '-falign-funct"
 496      64622720 
 496      272D4F32 
 496      2720272D 
 496      666F6D69 
 497 0066 696F6E73 		.ascii	"ions=16' '-ffunction-sections' '-fdata-sections' '-"
 497      3D313627 
 497      20272D66 
 497      66756E63 
 497      74696F6E 
ARM GAS  /tmp/ccbGIoKp.s 			page 39


 498 0099 666E6F2D 		.ascii	"fno-common' '-flto'\000"
 498      636F6D6D 
 498      6F6E2720 
 498      272D666C 
 498      746F2700 
 499              		.text
 500              		.cfi_sections	.debug_frame
 501              		.section	.text.null_provider,"ax",%progbits
 502              		.align	2
 503              		.p2align 4,,15
 504              		.code	16
 505              		.thumb_func
 506              		.type	null_provider, %function
 507              	null_provider:
 508              	.LFB98:
 509              		.file 1 "../../../test/nil/source/test/test_sequence_005.c"
 510              		.loc 1 61 0
 511              		.cfi_startproc
 512              	.LVL0:
 513              		.loc 1 67 0
 514 0000 0020     		mov	r0, #0
 515              	.LVL1:
 516              		@ sp needed
 517 0002 7047     		bx	lr
 518              		.cfi_endproc
 519              	.LFE98:
 520              		.size	null_provider, .-null_provider
 521 0004 C046C046 		.section	.text.test_005_003_execute,"ax",%progbits
 521      C046C046 
 521      C046C046 
 522              		.align	2
 523              		.p2align 4,,15
 524              		.code	16
 525              		.thumb_func
 526              		.type	test_005_003_execute, %function
 527              	test_005_003_execute:
 528              	.LFB104:
 529              		.loc 1 260 0
 530              		.cfi_startproc
 531 0000 08B5     		push	{r3, lr}
 532              		.cfi_def_cfa_offset 8
 533              		.cfi_offset 3, -8
 534              		.cfi_offset 14, -4
 535              		.loc 1 264 0
 536 0002 074B     		ldr	r3, .L3
 537 0004 0122     		mov	r2, #1
 538              		.loc 1 266 0
 539 0006 6421     		mov	r1, #100
 540 0008 0648     		ldr	r0, .L3+4
 541              		.loc 1 264 0
 542 000a 1A60     		str	r2, [r3]
 543              		.loc 1 266 0
 544 000c FFF7FEFF 		bl	chGuardedPoolAllocTimeout
 545              	.LVL2:
 546 0010 4342     		neg	r3, r0
 547 0012 5841     		adc	r0, r0, r3
 548 0014 C0B2     		uxtb	r0, r0
ARM GAS  /tmp/ccbGIoKp.s 			page 40


 549 0016 0449     		ldr	r1, .L3+8
 550 0018 FFF7FEFF 		bl	_test_assert
 551              	.LVL3:
 552              		.loc 1 268 0
 553              		@ sp needed
 554 001c 08BD     		pop	{r3, pc}
 555              	.L4:
 556 001e C046     		.align	2
 557              	.L3:
 558 0020 00000000 		.word	test_step
 559 0024 00000000 		.word	.LANCHOR0
 560 0028 00000000 		.word	.LC2
 561              		.cfi_endproc
 562              	.LFE104:
 563              		.size	test_005_003_execute, .-test_005_003_execute
 564 002c C046C046 		.section	.text.test_005_003_setup,"ax",%progbits
 565              		.align	2
 566              		.p2align 4,,15
 567              		.code	16
 568              		.thumb_func
 569              		.type	test_005_003_setup, %function
 570              	test_005_003_setup:
 571              	.LFB103:
 572              		.loc 1 256 0
 573              		.cfi_startproc
 574 0000 08B5     		push	{r3, lr}
 575              		.cfi_def_cfa_offset 8
 576              		.cfi_offset 3, -8
 577              		.cfi_offset 14, -4
 578              		.loc 1 257 0
 579 0002 0248     		ldr	r0, .L6
 580 0004 0421     		mov	r1, #4
 581 0006 FFF7FEFF 		bl	chGuardedPoolObjectInit
 582              	.LVL4:
 583              		.loc 1 258 0
 584              		@ sp needed
 585 000a 08BD     		pop	{r3, pc}
 586              	.L7:
 587              		.align	2
 588              	.L6:
 589 000c 00000000 		.word	.LANCHOR0
 590              		.cfi_endproc
 591              	.LFE103:
 592              		.size	test_005_003_setup, .-test_005_003_setup
 593              		.section	.text.test_005_002_setup,"ax",%progbits
 594              		.align	2
 595              		.p2align 4,,15
 596              		.code	16
 597              		.thumb_func
 598              		.type	test_005_002_setup, %function
 599              	test_005_002_setup:
 600              	.LFB101:
 601              		.loc 1 179 0
 602              		.cfi_startproc
 603 0000 08B5     		push	{r3, lr}
 604              		.cfi_def_cfa_offset 8
 605              		.cfi_offset 3, -8
ARM GAS  /tmp/ccbGIoKp.s 			page 41


 606              		.cfi_offset 14, -4
 607              		.loc 1 180 0
 608 0002 0248     		ldr	r0, .L9
 609 0004 0421     		mov	r1, #4
 610 0006 FFF7FEFF 		bl	chGuardedPoolObjectInit
 611              	.LVL5:
 612              		.loc 1 181 0
 613              		@ sp needed
 614 000a 08BD     		pop	{r3, pc}
 615              	.L10:
 616              		.align	2
 617              	.L9:
 618 000c 00000000 		.word	.LANCHOR0
 619              		.cfi_endproc
 620              	.LFE101:
 621              		.size	test_005_002_setup, .-test_005_002_setup
 622              		.section	.text.test_005_001_setup,"ax",%progbits
 623              		.align	2
 624              		.p2align 4,,15
 625              		.code	16
 626              		.thumb_func
 627              		.type	test_005_001_setup, %function
 628              	test_005_001_setup:
 629              	.LFB99:
 630              		.loc 1 92 0
 631              		.cfi_startproc
 632 0000 08B5     		push	{r3, lr}
 633              		.cfi_def_cfa_offset 8
 634              		.cfi_offset 3, -8
 635              		.cfi_offset 14, -4
 636              		.loc 1 93 0
 637 0002 0348     		ldr	r0, .L12
 638 0004 0421     		mov	r1, #4
 639 0006 0022     		mov	r2, #0
 640 0008 FFF7FEFF 		bl	chPoolObjectInit
 641              	.LVL6:
 642              		.loc 1 94 0
 643              		@ sp needed
 644 000c 08BD     		pop	{r3, pc}
 645              	.L13:
 646 000e C046     		.align	2
 647              	.L12:
 648 0010 00000000 		.word	.LANCHOR1
 649              		.cfi_endproc
 650              	.LFE99:
 651              		.size	test_005_001_setup, .-test_005_001_setup
 652 0014 C046C046 		.section	.text.test_005_002_execute,"ax",%progbits
 652      C046C046 
 652      C046C046 
 653              		.align	2
 654              		.p2align 4,,15
 655              		.code	16
 656              		.thumb_func
 657              		.type	test_005_002_execute, %function
 658              	test_005_002_execute:
 659              	.LFB102:
 660              		.loc 1 183 0
ARM GAS  /tmp/ccbGIoKp.s 			page 42


 661              		.cfi_startproc
 662 0000 F8B5     		push	{r3, r4, r5, r6, r7, lr}
 663              		.cfi_def_cfa_offset 24
 664              		.cfi_offset 3, -24
 665              		.cfi_offset 4, -20
 666              		.cfi_offset 5, -16
 667              		.cfi_offset 6, -12
 668              		.cfi_offset 7, -8
 669              		.cfi_offset 14, -4
 670 0002 4646     		mov	r6, r8
 671 0004 4F46     		mov	r7, r9
 672 0006 C0B4     		push	{r6, r7}
 673              		.cfi_def_cfa_offset 32
 674              		.cfi_offset 8, -32
 675              		.cfi_offset 9, -28
 676              		.loc 1 188 0
 677 0008 304F     		ldr	r7, .L25
 678 000a 0123     		mov	r3, #1
 679 000c 3B60     		str	r3, [r7]
 680              		.loc 1 190 0
 681 000e 304D     		ldr	r5, .L25+4
 682 0010 304B     		ldr	r3, .L25+8
 683 0012 281C     		mov	r0, r5
 684 0014 191C     		mov	r1, r3
 685 0016 0422     		mov	r2, #4
 686 0018 9846     		mov	r8, r3
 687 001a FFF7FEFF 		bl	chGuardedPoolLoadArray
 688              	.LVL7:
 689              		.loc 1 194 0
 690 001e 0223     		mov	r3, #2
 691 0020 2D4E     		ldr	r6, .L25+12
 692 0022 3B60     		str	r3, [r7]
 693              	.LVL8:
 694 0024 0424     		mov	r4, #4
 695              	.LVL9:
 696              	.L18:
 697              		.loc 1 197 0
 698 0026 0121     		mov	r1, #1
 699 0028 4942     		neg	r1, r1
 700 002a 281C     		mov	r0, r5
 701 002c FFF7FEFF 		bl	chGuardedPoolAllocTimeout
 702              	.LVL10:
 703 0030 431E     		sub	r3, r0, #1
 704 0032 9841     		sbc	r0, r0, r3
 705 0034 C0B2     		uxtb	r0, r0
 706 0036 311C     		mov	r1, r6
 707 0038 FFF7FEFF 		bl	_test_assert
 708              	.LVL11:
 709 003c 0028     		cmp	r0, #0
 710 003e 40D1     		bne	.L14
 711              	.LVL12:
 712 0040 013C     		sub	r4, r4, #1
 713              	.LVL13:
 714              		.loc 1 196 0
 715 0042 002C     		cmp	r4, #0
 716 0044 EFD1     		bne	.L18
 717              		.loc 1 203 0
ARM GAS  /tmp/ccbGIoKp.s 			page 43


 718 0046 0121     		mov	r1, #1
 719              		.loc 1 201 0
 720 0048 0323     		mov	r3, #3
 721              		.loc 1 203 0
 722 004a 4942     		neg	r1, r1
 723 004c 281C     		mov	r0, r5
 724              		.loc 1 201 0
 725 004e 3B60     		str	r3, [r7]
 726              		.loc 1 203 0
 727 0050 FFF7FEFF 		bl	chGuardedPoolAllocTimeout
 728              	.LVL14:
 729 0054 4342     		neg	r3, r0
 730 0056 5841     		adc	r0, r0, r3
 731 0058 204B     		ldr	r3, .L25+16
 732 005a C0B2     		uxtb	r0, r0
 733 005c 191C     		mov	r1, r3
 734 005e 9946     		mov	r9, r3
 735 0060 FFF7FEFF 		bl	_test_assert
 736              	.LVL15:
 737 0064 0028     		cmp	r0, #0
 738 0066 2CD1     		bne	.L14
 739              	.LBB4:
 740              	.LBB5:
 741              		.loc 1 208 0
 742 0068 0423     		mov	r3, #4
 743 006a 4446     		mov	r4, r8
 744              	.LVL16:
 745 006c 3B60     		str	r3, [r7]
 746              	.LVL17:
 747 006e 1023     		mov	r3, #16
 748 0070 1B19     		add	r3, r3, r4
 749 0072 9846     		mov	r8, r3
 750              	.LVL18:
 751              	.L21:
 752              		.loc 1 211 0
 753 0074 211C     		mov	r1, r4
 754 0076 281C     		mov	r0, r5
 755 0078 0434     		add	r4, r4, #4
 756 007a FFF7FEFF 		bl	chGuardedPoolFree
 757              	.LVL19:
 758              		.loc 1 210 0
 759 007e 4445     		cmp	r4, r8
 760 0080 F8D1     		bne	.L21
 761              		.loc 1 216 0
 762 0082 0523     		mov	r3, #5
 763 0084 3B60     		str	r3, [r7]
 764              	.LVL20:
 765 0086 0424     		mov	r4, #4
 766              	.LVL21:
 767              	.L23:
 768              		.loc 1 219 0
 769 0088 0121     		mov	r1, #1
 770 008a 4942     		neg	r1, r1
 771 008c 281C     		mov	r0, r5
 772 008e FFF7FEFF 		bl	chGuardedPoolAllocTimeout
 773              	.LVL22:
 774 0092 431E     		sub	r3, r0, #1
ARM GAS  /tmp/ccbGIoKp.s 			page 44


 775 0094 9841     		sbc	r0, r0, r3
 776 0096 C0B2     		uxtb	r0, r0
 777 0098 311C     		mov	r1, r6
 778 009a FFF7FEFF 		bl	_test_assert
 779              	.LVL23:
 780 009e 0028     		cmp	r0, #0
 781 00a0 0FD1     		bne	.L14
 782              	.LVL24:
 783 00a2 013C     		sub	r4, r4, #1
 784              	.LVL25:
 785              		.loc 1 218 0
 786 00a4 002C     		cmp	r4, #0
 787 00a6 EFD1     		bne	.L23
 788              		.loc 1 225 0
 789 00a8 0121     		mov	r1, #1
 790              		.loc 1 223 0
 791 00aa 0623     		mov	r3, #6
 792              		.loc 1 225 0
 793 00ac 4942     		neg	r1, r1
 794 00ae 281C     		mov	r0, r5
 795              		.loc 1 223 0
 796 00b0 3B60     		str	r3, [r7]
 797              		.loc 1 225 0
 798 00b2 FFF7FEFF 		bl	chGuardedPoolAllocTimeout
 799              	.LVL26:
 800 00b6 4342     		neg	r3, r0
 801 00b8 5841     		adc	r0, r0, r3
 802 00ba C0B2     		uxtb	r0, r0
 803 00bc 4946     		mov	r1, r9
 804 00be FFF7FEFF 		bl	_test_assert
 805              	.LVL27:
 806              	.L14:
 807              	.LBE5:
 808              	.LBE4:
 809              		.loc 1 227 0
 810              		@ sp needed
 811 00c2 0CBC     		pop	{r2, r3}
 812 00c4 9046     		mov	r8, r2
 813 00c6 9946     		mov	r9, r3
 814 00c8 F8BD     		pop	{r3, r4, r5, r6, r7, pc}
 815              	.L26:
 816 00ca C046     		.align	2
 817              	.L25:
 818 00cc 00000000 		.word	test_step
 819 00d0 00000000 		.word	.LANCHOR0
 820 00d4 00000000 		.word	.LANCHOR2
 821 00d8 10000000 		.word	.LC10
 822 00dc 00000000 		.word	.LC2
 823              		.cfi_endproc
 824              	.LFE102:
 825              		.size	test_005_002_execute, .-test_005_002_execute
 826              		.section	.text.test_005_001_execute,"ax",%progbits
 827              		.align	2
 828              		.p2align 4,,15
 829              		.code	16
 830              		.thumb_func
 831              		.type	test_005_001_execute, %function
ARM GAS  /tmp/ccbGIoKp.s 			page 45


 832              	test_005_001_execute:
 833              	.LFB100:
 834              		.loc 1 96 0
 835              		.cfi_startproc
 836 0000 F8B5     		push	{r3, r4, r5, r6, r7, lr}
 837              		.cfi_def_cfa_offset 24
 838              		.cfi_offset 3, -24
 839              		.cfi_offset 4, -20
 840              		.cfi_offset 5, -16
 841              		.cfi_offset 6, -12
 842              		.cfi_offset 7, -8
 843              		.cfi_offset 14, -4
 844 0002 4646     		mov	r6, r8
 845 0004 4F46     		mov	r7, r9
 846 0006 C0B4     		push	{r6, r7}
 847              		.cfi_def_cfa_offset 32
 848              		.cfi_offset 8, -32
 849              		.cfi_offset 9, -28
 850              		.loc 1 100 0
 851 0008 354F     		ldr	r7, .L38
 852 000a 0123     		mov	r3, #1
 853 000c 3B60     		str	r3, [r7]
 854              		.loc 1 102 0
 855 000e 354C     		ldr	r4, .L38+4
 856 0010 354B     		ldr	r3, .L38+8
 857 0012 201C     		mov	r0, r4
 858 0014 191C     		mov	r1, r3
 859 0016 0422     		mov	r2, #4
 860 0018 9846     		mov	r8, r3
 861 001a FFF7FEFF 		bl	chPoolLoadArray
 862              	.LVL28:
 863              		.loc 1 106 0
 864 001e 0223     		mov	r3, #2
 865 0020 324E     		ldr	r6, .L38+12
 866 0022 3B60     		str	r3, [r7]
 867              	.LVL29:
 868 0024 0425     		mov	r5, #4
 869              	.LVL30:
 870              	.L31:
 871              		.loc 1 109 0
 872 0026 201C     		mov	r0, r4
 873 0028 FFF7FEFF 		bl	chPoolAlloc
 874              	.LVL31:
 875 002c 431E     		sub	r3, r0, #1
 876 002e 9841     		sbc	r0, r0, r3
 877 0030 C0B2     		uxtb	r0, r0
 878 0032 311C     		mov	r1, r6
 879 0034 FFF7FEFF 		bl	_test_assert
 880              	.LVL32:
 881 0038 0028     		cmp	r0, #0
 882 003a 3CD1     		bne	.L27
 883              	.LVL33:
 884 003c 013D     		sub	r5, r5, #1
 885              	.LVL34:
 886              		.loc 1 108 0
 887 003e 002D     		cmp	r5, #0
 888 0040 F1D1     		bne	.L31
ARM GAS  /tmp/ccbGIoKp.s 			page 46


 889              		.loc 1 113 0
 890 0042 0323     		mov	r3, #3
 891              		.loc 1 115 0
 892 0044 201C     		mov	r0, r4
 893              		.loc 1 113 0
 894 0046 3B60     		str	r3, [r7]
 895              		.loc 1 115 0
 896 0048 FFF7FEFF 		bl	chPoolAlloc
 897              	.LVL35:
 898 004c 4342     		neg	r3, r0
 899 004e 5841     		adc	r0, r0, r3
 900 0050 274B     		ldr	r3, .L38+16
 901 0052 C0B2     		uxtb	r0, r0
 902 0054 191C     		mov	r1, r3
 903 0056 9946     		mov	r9, r3
 904 0058 FFF7FEFF 		bl	_test_assert
 905              	.LVL36:
 906 005c 0028     		cmp	r0, #0
 907 005e 2AD1     		bne	.L27
 908              	.LBB8:
 909              	.LBB9:
 910              		.loc 1 119 0
 911 0060 0423     		mov	r3, #4
 912 0062 4546     		mov	r5, r8
 913              	.LVL37:
 914 0064 3B60     		str	r3, [r7]
 915              	.LVL38:
 916 0066 1023     		mov	r3, #16
 917 0068 5B19     		add	r3, r3, r5
 918 006a 9846     		mov	r8, r3
 919              	.LVL39:
 920              	.L34:
 921              		.loc 1 122 0
 922 006c 291C     		mov	r1, r5
 923 006e 201C     		mov	r0, r4
 924 0070 0435     		add	r5, r5, #4
 925 0072 FFF7FEFF 		bl	chPoolFree
 926              	.LVL40:
 927              		.loc 1 121 0
 928 0076 4545     		cmp	r5, r8
 929 0078 F8D1     		bne	.L34
 930              		.loc 1 126 0
 931 007a 0523     		mov	r3, #5
 932 007c 3B60     		str	r3, [r7]
 933              	.LVL41:
 934 007e 0425     		mov	r5, #4
 935              	.LVL42:
 936              	.L36:
 937              		.loc 1 129 0
 938 0080 201C     		mov	r0, r4
 939 0082 FFF7FEFF 		bl	chPoolAlloc
 940              	.LVL43:
 941 0086 431E     		sub	r3, r0, #1
 942 0088 9841     		sbc	r0, r0, r3
 943 008a C0B2     		uxtb	r0, r0
 944 008c 311C     		mov	r1, r6
 945 008e FFF7FEFF 		bl	_test_assert
ARM GAS  /tmp/ccbGIoKp.s 			page 47


 946              	.LVL44:
 947 0092 0028     		cmp	r0, #0
 948 0094 0FD1     		bne	.L27
 949              	.LVL45:
 950 0096 013D     		sub	r5, r5, #1
 951              	.LVL46:
 952              		.loc 1 128 0
 953 0098 002D     		cmp	r5, #0
 954 009a F1D1     		bne	.L36
 955              		.loc 1 133 0
 956 009c 0623     		mov	r3, #6
 957              		.loc 1 135 0
 958 009e 201C     		mov	r0, r4
 959              		.loc 1 133 0
 960 00a0 3B60     		str	r3, [r7]
 961              		.loc 1 135 0
 962 00a2 FFF7FEFF 		bl	chPoolAlloc
 963              	.LVL47:
 964 00a6 4342     		neg	r3, r0
 965 00a8 5841     		adc	r0, r0, r3
 966 00aa C0B2     		uxtb	r0, r0
 967 00ac 4946     		mov	r1, r9
 968 00ae FFF7FEFF 		bl	_test_assert
 969              	.LVL48:
 970 00b2 0028     		cmp	r0, #0
 971 00b4 03D0     		beq	.L37
 972              	.LVL49:
 973              	.L27:
 974              	.LBE9:
 975              	.LBE8:
 976              		.loc 1 145 0
 977              		@ sp needed
 978 00b6 0CBC     		pop	{r2, r3}
 979 00b8 9046     		mov	r8, r2
 980 00ba 9946     		mov	r9, r3
 981 00bc F8BD     		pop	{r3, r4, r5, r6, r7, pc}
 982              	.LVL50:
 983              	.L37:
 984              	.LBB11:
 985              	.LBB10:
 986              		.loc 1 140 0
 987 00be 0723     		mov	r3, #7
 988              		.loc 1 142 0
 989 00c0 201C     		mov	r0, r4
 990 00c2 0421     		mov	r1, #4
 991 00c4 0B4A     		ldr	r2, .L38+20
 992              		.loc 1 140 0
 993 00c6 3B60     		str	r3, [r7]
 994              		.loc 1 142 0
 995 00c8 FFF7FEFF 		bl	chPoolObjectInit
 996              	.LVL51:
 997              		.loc 1 143 0
 998 00cc 201C     		mov	r0, r4
 999 00ce FFF7FEFF 		bl	chPoolAlloc
 1000              	.LVL52:
 1001 00d2 4342     		neg	r3, r0
 1002 00d4 5841     		adc	r0, r0, r3
ARM GAS  /tmp/ccbGIoKp.s 			page 48


 1003 00d6 0849     		ldr	r1, .L38+24
 1004 00d8 C0B2     		uxtb	r0, r0
 1005 00da FFF7FEFF 		bl	_test_assert
 1006              	.LVL53:
 1007 00de EAE7     		b	.L27
 1008              	.L39:
 1009              		.align	2
 1010              	.L38:
 1011 00e0 00000000 		.word	test_step
 1012 00e4 00000000 		.word	.LANCHOR1
 1013 00e8 00000000 		.word	.LANCHOR2
 1014 00ec 10000000 		.word	.LC10
 1015 00f0 00000000 		.word	.LC2
 1016 00f4 00000000 		.word	null_provider
 1017 00f8 1C000000 		.word	.LC20
 1018              	.LBE10:
 1019              	.LBE11:
 1020              		.cfi_endproc
 1021              	.LFE100:
 1022              		.size	test_005_001_execute, .-test_005_001_execute
 1023              		.global	test_sequence_005
 1024 00fc C046C046 		.section	.data.gmp1,"aw",%progbits
 1025              		.align	2
 1026              		.set	.LANCHOR0,. + 0
 1027              		.type	gmp1, %object
 1028              		.size	gmp1, 16
 1029              	gmp1:
 1030 0000 00000000 		.word	0
 1031 0004 00000000 		.word	0
 1032 0008 04000000 		.word	4
 1033 000c 00000000 		.word	0
 1034              		.section	.rodata.test_sequence_005,"a",%progbits
 1035              		.align	2
 1036              		.type	test_sequence_005, %object
 1037              		.size	test_sequence_005, 16
 1038              	test_sequence_005:
 1039 0000 00000000 		.word	test_005_001
 1040 0004 00000000 		.word	test_005_002
 1041 0008 00000000 		.word	test_005_003
 1042 000c 00000000 		.word	0
 1043              		.section	.bss.objects,"aw",%nobits
 1044              		.align	2
 1045              		.set	.LANCHOR2,. + 0
 1046              		.type	objects, %object
 1047              		.size	objects, 16
 1048              	objects:
 1049 0000 00000000 		.space	16
 1049      00000000 
 1049      00000000 
 1049      00000000 
 1050              		.section	.rodata.test_005_003,"a",%progbits
 1051              		.align	2
 1052              		.type	test_005_003, %object
 1053              		.size	test_005_003, 16
 1054              	test_005_003:
 1055 0000 38000000 		.word	.LC23
 1056 0004 00000000 		.word	test_005_003_setup
ARM GAS  /tmp/ccbGIoKp.s 			page 49


 1057 0008 00000000 		.word	0
 1058 000c 00000000 		.word	test_005_003_execute
 1059              		.section	.rodata.str1.4,"aMS",%progbits,1
 1060              		.align	2
 1061              	.LC2:
 1062 0000 6C697374 		.ascii	"list not empty\000"
 1062      206E6F74 
 1062      20656D70 
 1062      747900
 1063 000f 00       		.space	1
 1064              	.LC10:
 1065 0010 6C697374 		.ascii	"list empty\000"
 1065      20656D70 
 1065      747900
 1066 001b 00       		.space	1
 1067              	.LC20:
 1068 001c 70726F76 		.ascii	"provider returned memory\000"
 1068      69646572 
 1068      20726574 
 1068      75726E65 
 1068      64206D65 
 1069 0035 000000   		.space	3
 1070              	.LC23:
 1071 0038 47756172 		.ascii	"Guarded Memory Pools timeout\000"
 1071      64656420 
 1071      4D656D6F 
 1071      72792050 
 1071      6F6F6C73 
 1072 0055 000000   		.space	3
 1073              	.LC24:
 1074 0058 4C6F6164 		.ascii	"Loading and emptying a guarded memory pool without "
 1074      696E6720 
 1074      616E6420 
 1074      656D7074 
 1074      79696E67 
 1075 008b 77616974 		.ascii	"waiting\000"
 1075      696E6700 
 1076 0093 00       		.space	1
 1077              	.LC25:
 1078 0094 4C6F6164 		.ascii	"Loading and emptying a memory pool\000"
 1078      696E6720 
 1078      616E6420 
 1078      656D7074 
 1078      79696E67 
 1079 00b7 00       		.section	.rodata.test_005_001,"a",%progbits
 1080              		.align	2
 1081              		.type	test_005_001, %object
 1082              		.size	test_005_001, 16
 1083              	test_005_001:
 1084 0000 94000000 		.word	.LC25
 1085 0004 00000000 		.word	test_005_001_setup
 1086 0008 00000000 		.word	0
 1087 000c 00000000 		.word	test_005_001_execute
 1088              		.section	.rodata.test_005_002,"a",%progbits
 1089              		.align	2
 1090              		.type	test_005_002, %object
 1091              		.size	test_005_002, 16
ARM GAS  /tmp/ccbGIoKp.s 			page 50


 1092              	test_005_002:
 1093 0000 58000000 		.word	.LC24
 1094 0004 00000000 		.word	test_005_002_setup
 1095 0008 00000000 		.word	0
 1096 000c 00000000 		.word	test_005_002_execute
 1097              		.section	.data.mp1,"aw",%progbits
 1098              		.align	2
 1099              		.set	.LANCHOR1,. + 0
 1100              		.type	mp1, %object
 1101              		.size	mp1, 12
 1102              	mp1:
 1103 0000 00000000 		.word	0
 1104 0004 04000000 		.word	4
 1105 0008 00000000 		.word	0
 1106              		.text
 1107              	.Letext0:
 1108              		.file 2 "/usr/lib/gcc/arm-none-eabi/4.8.2/include/stddef.h"
 1109              		.file 3 "/usr/include/newlib/machine/_default_types.h"
 1110              		.file 4 "/usr/include/newlib/stdint.h"
 1111              		.file 5 "../../../os/common/ports/ARMCMx/compilers/GCC/chtypes.h"
 1112              		.file 6 "../../../os/nil/include/ch.h"
 1113              		.file 7 "../../../os/common/oslib/include/chmemcore.h"
 1114              		.file 8 "../../../os/common/oslib/include/chmempools.h"
 1115              		.file 9 "../../../test/lib/ch_test.h"
 1116              		.section	.debug_info,"",%progbits
 1117              	.Ldebug_info0:
 1118 0000 33070000 		.4byte	0x733
 1119 0004 0400     		.2byte	0x4
 1120 0006 00000000 		.4byte	.Ldebug_abbrev0
 1121 000a 04       		.byte	0x4
 1122 000b 01       		.uleb128 0x1
 1123 000c 13000000 		.4byte	.LASF57
 1124 0010 01       		.byte	0x1
 1125 0011 59010000 		.4byte	.LASF58
 1126 0015 9B020000 		.4byte	.LASF59
 1127 0019 18000000 		.4byte	.Ldebug_ranges0+0x18
 1128 001d 00000000 		.4byte	0
 1129 0021 00000000 		.4byte	.Ldebug_line0
 1130 0025 02       		.uleb128 0x2
 1131 0026 04       		.byte	0x4
 1132 0027 05       		.byte	0x5
 1133 0028 696E7400 		.ascii	"int\000"
 1134 002c 03       		.uleb128 0x3
 1135 002d D2000000 		.4byte	.LASF5
 1136 0031 02       		.byte	0x2
 1137 0032 D4       		.byte	0xd4
 1138 0033 37000000 		.4byte	0x37
 1139 0037 04       		.uleb128 0x4
 1140 0038 04       		.byte	0x4
 1141 0039 07       		.byte	0x7
 1142 003a F2030000 		.4byte	.LASF0
 1143 003e 04       		.uleb128 0x4
 1144 003f 01       		.byte	0x1
 1145 0040 06       		.byte	0x6
 1146 0041 A0010000 		.4byte	.LASF1
 1147 0045 04       		.uleb128 0x4
 1148 0046 01       		.byte	0x1
ARM GAS  /tmp/ccbGIoKp.s 			page 51


 1149 0047 08       		.byte	0x8
 1150 0048 1A020000 		.4byte	.LASF2
 1151 004c 04       		.uleb128 0x4
 1152 004d 02       		.byte	0x2
 1153 004e 05       		.byte	0x5
 1154 004f C8000000 		.4byte	.LASF3
 1155 0053 04       		.uleb128 0x4
 1156 0054 02       		.byte	0x2
 1157 0055 07       		.byte	0x7
 1158 0056 E4020000 		.4byte	.LASF4
 1159 005a 03       		.uleb128 0x3
 1160 005b A1030000 		.4byte	.LASF6
 1161 005f 03       		.byte	0x3
 1162 0060 37       		.byte	0x37
 1163 0061 65000000 		.4byte	0x65
 1164 0065 04       		.uleb128 0x4
 1165 0066 04       		.byte	0x4
 1166 0067 05       		.byte	0x5
 1167 0068 01020000 		.4byte	.LASF7
 1168 006c 03       		.uleb128 0x3
 1169 006d 0D010000 		.4byte	.LASF8
 1170 0071 03       		.byte	0x3
 1171 0072 38       		.byte	0x38
 1172 0073 77000000 		.4byte	0x77
 1173 0077 04       		.uleb128 0x4
 1174 0078 04       		.byte	0x4
 1175 0079 07       		.byte	0x7
 1176 007a 73030000 		.4byte	.LASF9
 1177 007e 04       		.uleb128 0x4
 1178 007f 08       		.byte	0x8
 1179 0080 05       		.byte	0x5
 1180 0081 FF000000 		.4byte	.LASF10
 1181 0085 04       		.uleb128 0x4
 1182 0086 08       		.byte	0x8
 1183 0087 07       		.byte	0x7
 1184 0088 5F020000 		.4byte	.LASF11
 1185 008c 03       		.uleb128 0x3
 1186 008d 06030000 		.4byte	.LASF12
 1187 0091 04       		.byte	0x4
 1188 0092 41       		.byte	0x41
 1189 0093 5A000000 		.4byte	0x5a
 1190 0097 03       		.uleb128 0x3
 1191 0098 76020000 		.4byte	.LASF13
 1192 009c 04       		.byte	0x4
 1193 009d 42       		.byte	0x42
 1194 009e 6C000000 		.4byte	0x6c
 1195 00a2 03       		.uleb128 0x3
 1196 00a3 1A030000 		.4byte	.LASF14
 1197 00a7 05       		.byte	0x5
 1198 00a8 45       		.byte	0x45
 1199 00a9 8C000000 		.4byte	0x8c
 1200 00ad 05       		.uleb128 0x5
 1201 00ae F7020000 		.4byte	.LASF15
 1202 00b2 06       		.byte	0x6
 1203 00b3 D001     		.2byte	0x1d0
 1204 00b5 97000000 		.4byte	0x97
 1205 00b9 04       		.uleb128 0x4
ARM GAS  /tmp/ccbGIoKp.s 			page 52


 1206 00ba 04       		.byte	0x4
 1207 00bb 07       		.byte	0x7
 1208 00bc E6000000 		.4byte	.LASF16
 1209 00c0 06       		.uleb128 0x6
 1210 00c1 97000000 		.4byte	0x97
 1211 00c5 D0000000 		.4byte	0xd0
 1212 00c9 07       		.uleb128 0x7
 1213 00ca B9000000 		.4byte	0xb9
 1214 00ce 03       		.byte	0x3
 1215 00cf 00       		.byte	0
 1216 00d0 08       		.uleb128 0x8
 1217 00d1 04       		.byte	0x4
 1218 00d2 05       		.uleb128 0x5
 1219 00d3 42020000 		.4byte	.LASF17
 1220 00d7 06       		.byte	0x6
 1221 00d8 E101     		.2byte	0x1e1
 1222 00da DE000000 		.4byte	0xde
 1223 00de 09       		.uleb128 0x9
 1224 00df BB010000 		.4byte	.LASF20
 1225 00e3 04       		.byte	0x4
 1226 00e4 06       		.byte	0x6
 1227 00e5 E601     		.2byte	0x1e6
 1228 00e7 F9000000 		.4byte	0xf9
 1229 00eb 0A       		.uleb128 0xa
 1230 00ec 636E7400 		.ascii	"cnt\000"
 1231 00f0 06       		.byte	0x6
 1232 00f1 E701     		.2byte	0x1e7
 1233 00f3 F9000000 		.4byte	0xf9
 1234 00f7 00       		.byte	0
 1235 00f8 00       		.byte	0
 1236 00f9 0B       		.uleb128 0xb
 1237 00fa A2000000 		.4byte	0xa2
 1238 00fe 0C       		.uleb128 0xc
 1239 00ff 04       		.byte	0x4
 1240 0100 04010000 		.4byte	0x104
 1241 0104 0D       		.uleb128 0xd
 1242 0105 09010000 		.4byte	0x109
 1243 0109 04       		.uleb128 0x4
 1244 010a 01       		.byte	0x1
 1245 010b 08       		.byte	0x8
 1246 010c 01030000 		.4byte	.LASF18
 1247 0110 03       		.uleb128 0x3
 1248 0111 D7020000 		.4byte	.LASF19
 1249 0115 07       		.byte	0x7
 1250 0116 47       		.byte	0x47
 1251 0117 1B010000 		.4byte	0x11b
 1252 011b 0C       		.uleb128 0xc
 1253 011c 04       		.byte	0x4
 1254 011d 21010000 		.4byte	0x121
 1255 0121 0E       		.uleb128 0xe
 1256 0122 D0000000 		.4byte	0xd0
 1257 0126 35010000 		.4byte	0x135
 1258 012a 0F       		.uleb128 0xf
 1259 012b 2C000000 		.4byte	0x2c
 1260 012f 0F       		.uleb128 0xf
 1261 0130 37000000 		.4byte	0x37
 1262 0134 00       		.byte	0
ARM GAS  /tmp/ccbGIoKp.s 			page 53


 1263 0135 10       		.uleb128 0x10
 1264 0136 67030000 		.4byte	.LASF21
 1265 013a 04       		.byte	0x4
 1266 013b 08       		.byte	0x8
 1267 013c 38       		.byte	0x38
 1268 013d 4E010000 		.4byte	0x14e
 1269 0141 11       		.uleb128 0x11
 1270 0142 FF030000 		.4byte	.LASF22
 1271 0146 08       		.byte	0x8
 1272 0147 39       		.byte	0x39
 1273 0148 4E010000 		.4byte	0x14e
 1274 014c 00       		.byte	0
 1275 014d 00       		.byte	0
 1276 014e 0C       		.uleb128 0xc
 1277 014f 04       		.byte	0x4
 1278 0150 35010000 		.4byte	0x135
 1279 0154 12       		.uleb128 0x12
 1280 0155 0C       		.byte	0xc
 1281 0156 08       		.byte	0x8
 1282 0157 40       		.byte	0x40
 1283 0158 81010000 		.4byte	0x181
 1284 015c 11       		.uleb128 0x11
 1285 015d FF030000 		.4byte	.LASF22
 1286 0161 08       		.byte	0x8
 1287 0162 41       		.byte	0x41
 1288 0163 4E010000 		.4byte	0x14e
 1289 0167 00       		.byte	0
 1290 0168 11       		.uleb128 0x11
 1291 0169 0E030000 		.4byte	.LASF23
 1292 016d 08       		.byte	0x8
 1293 016e 42       		.byte	0x42
 1294 016f 2C000000 		.4byte	0x2c
 1295 0173 04       		.byte	0x4
 1296 0174 11       		.uleb128 0x11
 1297 0175 92020000 		.4byte	.LASF24
 1298 0179 08       		.byte	0x8
 1299 017a 44       		.byte	0x44
 1300 017b 10010000 		.4byte	0x110
 1301 017f 08       		.byte	0x8
 1302 0180 00       		.byte	0
 1303 0181 03       		.uleb128 0x3
 1304 0182 30030000 		.4byte	.LASF25
 1305 0186 08       		.byte	0x8
 1306 0187 46       		.byte	0x46
 1307 0188 54010000 		.4byte	0x154
 1308 018c 12       		.uleb128 0x12
 1309 018d 10       		.byte	0x10
 1310 018e 08       		.byte	0x8
 1311 018f 4C       		.byte	0x4c
 1312 0190 AD010000 		.4byte	0x1ad
 1313 0194 13       		.uleb128 0x13
 1314 0195 73656D00 		.ascii	"sem\000"
 1315 0199 08       		.byte	0x8
 1316 019a 4D       		.byte	0x4d
 1317 019b D2000000 		.4byte	0xd2
 1318 019f 00       		.byte	0
 1319 01a0 11       		.uleb128 0x11
ARM GAS  /tmp/ccbGIoKp.s 			page 54


 1320 01a1 ED030000 		.4byte	.LASF26
 1321 01a5 08       		.byte	0x8
 1322 01a6 4F       		.byte	0x4f
 1323 01a7 81010000 		.4byte	0x181
 1324 01ab 04       		.byte	0x4
 1325 01ac 00       		.byte	0
 1326 01ad 03       		.uleb128 0x3
 1327 01ae 51030000 		.4byte	.LASF27
 1328 01b2 08       		.byte	0x8
 1329 01b3 50       		.byte	0x50
 1330 01b4 8C010000 		.4byte	0x18c
 1331 01b8 04       		.uleb128 0x4
 1332 01b9 01       		.byte	0x1
 1333 01ba 02       		.byte	0x2
 1334 01bb 20030000 		.4byte	.LASF28
 1335 01bf 0C       		.uleb128 0xc
 1336 01c0 04       		.byte	0x4
 1337 01c1 C5010000 		.4byte	0x1c5
 1338 01c5 14       		.uleb128 0x14
 1339 01c6 12       		.uleb128 0x12
 1340 01c7 10       		.byte	0x10
 1341 01c8 09       		.byte	0x9
 1342 01c9 3D       		.byte	0x3d
 1343 01ca FF010000 		.4byte	0x1ff
 1344 01ce 11       		.uleb128 0x11
 1345 01cf 15020000 		.4byte	.LASF29
 1346 01d3 09       		.byte	0x9
 1347 01d4 3E       		.byte	0x3e
 1348 01d5 FE000000 		.4byte	0xfe
 1349 01d9 00       		.byte	0
 1350 01da 11       		.uleb128 0x11
 1351 01db B5010000 		.4byte	.LASF30
 1352 01df 09       		.byte	0x9
 1353 01e0 3F       		.byte	0x3f
 1354 01e1 BF010000 		.4byte	0x1bf
 1355 01e5 04       		.byte	0x4
 1356 01e6 11       		.uleb128 0x11
 1357 01e7 AC010000 		.4byte	.LASF31
 1358 01eb 09       		.byte	0x9
 1359 01ec 40       		.byte	0x40
 1360 01ed BF010000 		.4byte	0x1bf
 1361 01f1 08       		.byte	0x8
 1362 01f2 11       		.uleb128 0x11
 1363 01f3 E5030000 		.4byte	.LASF32
 1364 01f7 09       		.byte	0x9
 1365 01f8 41       		.byte	0x41
 1366 01f9 BF010000 		.4byte	0x1bf
 1367 01fd 0C       		.byte	0xc
 1368 01fe 00       		.byte	0
 1369 01ff 03       		.uleb128 0x3
 1370 0200 24010000 		.4byte	.LASF33
 1371 0204 09       		.byte	0x9
 1372 0205 42       		.byte	0x42
 1373 0206 C6010000 		.4byte	0x1c6
 1374 020a 15       		.uleb128 0x15
 1375 020b 2F010000 		.4byte	.LASF34
 1376 020f 01       		.byte	0x1
ARM GAS  /tmp/ccbGIoKp.s 			page 55


 1377 0210 B7       		.byte	0xb7
 1378 0211 01       		.byte	0x1
 1379 0212 20020000 		.4byte	0x220
 1380 0216 16       		.uleb128 0x16
 1381 0217 6900     		.ascii	"i\000"
 1382 0219 01       		.byte	0x1
 1383 021a B8       		.byte	0xb8
 1384 021b 37000000 		.4byte	0x37
 1385 021f 00       		.byte	0
 1386 0220 15       		.uleb128 0x15
 1387 0221 44010000 		.4byte	.LASF35
 1388 0225 01       		.byte	0x1
 1389 0226 60       		.byte	0x60
 1390 0227 01       		.byte	0x1
 1391 0228 36020000 		.4byte	0x236
 1392 022c 16       		.uleb128 0x16
 1393 022d 6900     		.ascii	"i\000"
 1394 022f 01       		.byte	0x1
 1395 0230 61       		.byte	0x61
 1396 0231 37000000 		.4byte	0x37
 1397 0235 00       		.byte	0
 1398 0236 17       		.uleb128 0x17
 1399 0237 F3010000 		.4byte	.LASF60
 1400 023b 01       		.byte	0x1
 1401 023c 3D       		.byte	0x3d
 1402 023d D0000000 		.4byte	0xd0
 1403 0241 00000000 		.4byte	.LFB98
 1404 0245 04000000 		.4byte	.LFE98-.LFB98
 1405 0249 01       		.uleb128 0x1
 1406 024a 9C       		.byte	0x9c
 1407 024b 6C020000 		.4byte	0x26c
 1408 024f 18       		.uleb128 0x18
 1409 0250 85030000 		.4byte	.LASF36
 1410 0254 01       		.byte	0x1
 1411 0255 3D       		.byte	0x3d
 1412 0256 2C000000 		.4byte	0x2c
 1413 025a 00000000 		.4byte	.LLST0
 1414 025e 19       		.uleb128 0x19
 1415 025f AB030000 		.4byte	.LASF37
 1416 0263 01       		.byte	0x1
 1417 0264 3D       		.byte	0x3d
 1418 0265 37000000 		.4byte	0x37
 1419 0269 01       		.uleb128 0x1
 1420 026a 51       		.byte	0x51
 1421 026b 00       		.byte	0
 1422 026c 1A       		.uleb128 0x1a
 1423 026d 8B010000 		.4byte	.LASF38
 1424 0271 01       		.byte	0x1
 1425 0272 0401     		.2byte	0x104
 1426 0274 00000000 		.4byte	.LFB104
 1427 0278 2C000000 		.4byte	.LFE104-.LFB104
 1428 027c 01       		.uleb128 0x1
 1429 027d 9C       		.byte	0x9c
 1430 027e B3020000 		.4byte	0x2b3
 1431 0282 1B       		.uleb128 0x1b
 1432 0283 10000000 		.4byte	.LVL2
 1433 0287 52060000 		.4byte	0x652
ARM GAS  /tmp/ccbGIoKp.s 			page 56


 1434 028b 9F020000 		.4byte	0x29f
 1435 028f 1C       		.uleb128 0x1c
 1436 0290 01       		.uleb128 0x1
 1437 0291 51       		.byte	0x51
 1438 0292 02       		.uleb128 0x2
 1439 0293 08       		.byte	0x8
 1440 0294 64       		.byte	0x64
 1441 0295 1C       		.uleb128 0x1c
 1442 0296 01       		.uleb128 0x1
 1443 0297 50       		.byte	0x50
 1444 0298 05       		.uleb128 0x5
 1445 0299 03       		.byte	0x3
 1446 029a 00000000 		.4byte	.LANCHOR0
 1447 029e 00       		.byte	0
 1448 029f 1D       		.uleb128 0x1d
 1449 02a0 1C000000 		.4byte	.LVL3
 1450 02a4 72060000 		.4byte	0x672
 1451 02a8 1C       		.uleb128 0x1c
 1452 02a9 01       		.uleb128 0x1
 1453 02aa 51       		.byte	0x51
 1454 02ab 05       		.uleb128 0x5
 1455 02ac 03       		.byte	0x3
 1456 02ad 00000000 		.4byte	.LC2
 1457 02b1 00       		.byte	0
 1458 02b2 00       		.byte	0
 1459 02b3 1A       		.uleb128 0x1a
 1460 02b4 7F020000 		.4byte	.LASF39
 1461 02b8 01       		.byte	0x1
 1462 02b9 0001     		.2byte	0x100
 1463 02bb 00000000 		.4byte	.LFB103
 1464 02bf 10000000 		.4byte	.LFE103-.LFB103
 1465 02c3 01       		.uleb128 0x1
 1466 02c4 9C       		.byte	0x9c
 1467 02c5 E2020000 		.4byte	0x2e2
 1468 02c9 1D       		.uleb128 0x1d
 1469 02ca 0A000000 		.4byte	.LVL4
 1470 02ce 8C060000 		.4byte	0x68c
 1471 02d2 1C       		.uleb128 0x1c
 1472 02d3 01       		.uleb128 0x1
 1473 02d4 51       		.byte	0x51
 1474 02d5 01       		.uleb128 0x1
 1475 02d6 34       		.byte	0x34
 1476 02d7 1C       		.uleb128 0x1c
 1477 02d8 01       		.uleb128 0x1
 1478 02d9 50       		.byte	0x50
 1479 02da 05       		.uleb128 0x5
 1480 02db 03       		.byte	0x3
 1481 02dc 00000000 		.4byte	.LANCHOR0
 1482 02e0 00       		.byte	0
 1483 02e1 00       		.byte	0
 1484 02e2 1E       		.uleb128 0x1e
 1485 02e3 00000000 		.4byte	.LASF40
 1486 02e7 01       		.byte	0x1
 1487 02e8 B3       		.byte	0xb3
 1488 02e9 00000000 		.4byte	.LFB101
 1489 02ed 10000000 		.4byte	.LFE101-.LFB101
 1490 02f1 01       		.uleb128 0x1
ARM GAS  /tmp/ccbGIoKp.s 			page 57


 1491 02f2 9C       		.byte	0x9c
 1492 02f3 10030000 		.4byte	0x310
 1493 02f7 1D       		.uleb128 0x1d
 1494 02f8 0A000000 		.4byte	.LVL5
 1495 02fc 8C060000 		.4byte	0x68c
 1496 0300 1C       		.uleb128 0x1c
 1497 0301 01       		.uleb128 0x1
 1498 0302 51       		.byte	0x51
 1499 0303 01       		.uleb128 0x1
 1500 0304 34       		.byte	0x34
 1501 0305 1C       		.uleb128 0x1c
 1502 0306 01       		.uleb128 0x1
 1503 0307 50       		.byte	0x50
 1504 0308 05       		.uleb128 0x5
 1505 0309 03       		.byte	0x3
 1506 030a 00000000 		.4byte	.LANCHOR0
 1507 030e 00       		.byte	0
 1508 030f 00       		.byte	0
 1509 0310 1E       		.uleb128 0x1e
 1510 0311 3E030000 		.4byte	.LASF41
 1511 0315 01       		.byte	0x1
 1512 0316 5C       		.byte	0x5c
 1513 0317 00000000 		.4byte	.LFB99
 1514 031b 14000000 		.4byte	.LFE99-.LFB99
 1515 031f 01       		.uleb128 0x1
 1516 0320 9C       		.byte	0x9c
 1517 0321 43030000 		.4byte	0x343
 1518 0325 1D       		.uleb128 0x1d
 1519 0326 0C000000 		.4byte	.LVL6
 1520 032a A2060000 		.4byte	0x6a2
 1521 032e 1C       		.uleb128 0x1c
 1522 032f 01       		.uleb128 0x1
 1523 0330 52       		.byte	0x52
 1524 0331 01       		.uleb128 0x1
 1525 0332 30       		.byte	0x30
 1526 0333 1C       		.uleb128 0x1c
 1527 0334 01       		.uleb128 0x1
 1528 0335 51       		.byte	0x51
 1529 0336 01       		.uleb128 0x1
 1530 0337 34       		.byte	0x34
 1531 0338 1C       		.uleb128 0x1c
 1532 0339 01       		.uleb128 0x1
 1533 033a 50       		.byte	0x50
 1534 033b 05       		.uleb128 0x5
 1535 033c 03       		.byte	0x3
 1536 033d 00000000 		.4byte	.LANCHOR1
 1537 0341 00       		.byte	0
 1538 0342 00       		.byte	0
 1539 0343 1F       		.uleb128 0x1f
 1540 0344 0A020000 		.4byte	0x20a
 1541 0348 00000000 		.4byte	.LFB102
 1542 034c E0000000 		.4byte	.LFE102-.LFB102
 1543 0350 01       		.uleb128 0x1
 1544 0351 9C       		.byte	0x9c
 1545 0352 60040000 		.4byte	0x460
 1546 0356 20       		.uleb128 0x20
 1547 0357 16020000 		.4byte	0x216
ARM GAS  /tmp/ccbGIoKp.s 			page 58


 1548 035b 21000000 		.4byte	.LLST1
 1549 035f 21       		.uleb128 0x21
 1550 0360 68000000 		.4byte	.LBB5
 1551 0364 5A000000 		.4byte	.LBE5-.LBB5
 1552 0368 E8030000 		.4byte	0x3e8
 1553 036c 20       		.uleb128 0x20
 1554 036d 16020000 		.4byte	0x216
 1555 0371 62000000 		.4byte	.LLST2
 1556 0375 1B       		.uleb128 0x1b
 1557 0376 7E000000 		.4byte	.LVL19
 1558 037a C3060000 		.4byte	0x6c3
 1559 037e 8F030000 		.4byte	0x38f
 1560 0382 1C       		.uleb128 0x1c
 1561 0383 01       		.uleb128 0x1
 1562 0384 51       		.byte	0x51
 1563 0385 02       		.uleb128 0x2
 1564 0386 74       		.byte	0x74
 1565 0387 7C       		.sleb128 -4
 1566 0388 1C       		.uleb128 0x1c
 1567 0389 01       		.uleb128 0x1
 1568 038a 50       		.byte	0x50
 1569 038b 02       		.uleb128 0x2
 1570 038c 75       		.byte	0x75
 1571 038d 00       		.sleb128 0
 1572 038e 00       		.byte	0
 1573 038f 1B       		.uleb128 0x1b
 1574 0390 92000000 		.4byte	.LVL22
 1575 0394 52060000 		.4byte	0x652
 1576 0398 A9030000 		.4byte	0x3a9
 1577 039c 1C       		.uleb128 0x1c
 1578 039d 01       		.uleb128 0x1
 1579 039e 51       		.byte	0x51
 1580 039f 02       		.uleb128 0x2
 1581 03a0 09       		.byte	0x9
 1582 03a1 FF       		.byte	0xff
 1583 03a2 1C       		.uleb128 0x1c
 1584 03a3 01       		.uleb128 0x1
 1585 03a4 50       		.byte	0x50
 1586 03a5 02       		.uleb128 0x2
 1587 03a6 75       		.byte	0x75
 1588 03a7 00       		.sleb128 0
 1589 03a8 00       		.byte	0
 1590 03a9 1B       		.uleb128 0x1b
 1591 03aa 9E000000 		.4byte	.LVL23
 1592 03ae 72060000 		.4byte	0x672
 1593 03b2 BD030000 		.4byte	0x3bd
 1594 03b6 1C       		.uleb128 0x1c
 1595 03b7 01       		.uleb128 0x1
 1596 03b8 51       		.byte	0x51
 1597 03b9 02       		.uleb128 0x2
 1598 03ba 76       		.byte	0x76
 1599 03bb 00       		.sleb128 0
 1600 03bc 00       		.byte	0
 1601 03bd 1B       		.uleb128 0x1b
 1602 03be B6000000 		.4byte	.LVL26
 1603 03c2 52060000 		.4byte	0x652
 1604 03c6 D7030000 		.4byte	0x3d7
ARM GAS  /tmp/ccbGIoKp.s 			page 59


 1605 03ca 1C       		.uleb128 0x1c
 1606 03cb 01       		.uleb128 0x1
 1607 03cc 51       		.byte	0x51
 1608 03cd 02       		.uleb128 0x2
 1609 03ce 09       		.byte	0x9
 1610 03cf FF       		.byte	0xff
 1611 03d0 1C       		.uleb128 0x1c
 1612 03d1 01       		.uleb128 0x1
 1613 03d2 50       		.byte	0x50
 1614 03d3 02       		.uleb128 0x2
 1615 03d4 75       		.byte	0x75
 1616 03d5 00       		.sleb128 0
 1617 03d6 00       		.byte	0
 1618 03d7 1D       		.uleb128 0x1d
 1619 03d8 C2000000 		.4byte	.LVL27
 1620 03dc 72060000 		.4byte	0x672
 1621 03e0 1C       		.uleb128 0x1c
 1622 03e1 01       		.uleb128 0x1
 1623 03e2 51       		.byte	0x51
 1624 03e3 02       		.uleb128 0x2
 1625 03e4 79       		.byte	0x79
 1626 03e5 00       		.sleb128 0
 1627 03e6 00       		.byte	0
 1628 03e7 00       		.byte	0
 1629 03e8 1B       		.uleb128 0x1b
 1630 03e9 1E000000 		.4byte	.LVL7
 1631 03ed D9060000 		.4byte	0x6d9
 1632 03f1 07040000 		.4byte	0x407
 1633 03f5 1C       		.uleb128 0x1c
 1634 03f6 01       		.uleb128 0x1
 1635 03f7 52       		.byte	0x52
 1636 03f8 01       		.uleb128 0x1
 1637 03f9 34       		.byte	0x34
 1638 03fa 1C       		.uleb128 0x1c
 1639 03fb 01       		.uleb128 0x1
 1640 03fc 51       		.byte	0x51
 1641 03fd 02       		.uleb128 0x2
 1642 03fe 78       		.byte	0x78
 1643 03ff 00       		.sleb128 0
 1644 0400 1C       		.uleb128 0x1c
 1645 0401 01       		.uleb128 0x1
 1646 0402 50       		.byte	0x50
 1647 0403 02       		.uleb128 0x2
 1648 0404 75       		.byte	0x75
 1649 0405 00       		.sleb128 0
 1650 0406 00       		.byte	0
 1651 0407 1B       		.uleb128 0x1b
 1652 0408 30000000 		.4byte	.LVL10
 1653 040c 52060000 		.4byte	0x652
 1654 0410 21040000 		.4byte	0x421
 1655 0414 1C       		.uleb128 0x1c
 1656 0415 01       		.uleb128 0x1
 1657 0416 51       		.byte	0x51
 1658 0417 02       		.uleb128 0x2
 1659 0418 09       		.byte	0x9
 1660 0419 FF       		.byte	0xff
 1661 041a 1C       		.uleb128 0x1c
ARM GAS  /tmp/ccbGIoKp.s 			page 60


 1662 041b 01       		.uleb128 0x1
 1663 041c 50       		.byte	0x50
 1664 041d 02       		.uleb128 0x2
 1665 041e 75       		.byte	0x75
 1666 041f 00       		.sleb128 0
 1667 0420 00       		.byte	0
 1668 0421 1B       		.uleb128 0x1b
 1669 0422 3C000000 		.4byte	.LVL11
 1670 0426 72060000 		.4byte	0x672
 1671 042a 35040000 		.4byte	0x435
 1672 042e 1C       		.uleb128 0x1c
 1673 042f 01       		.uleb128 0x1
 1674 0430 51       		.byte	0x51
 1675 0431 02       		.uleb128 0x2
 1676 0432 76       		.byte	0x76
 1677 0433 00       		.sleb128 0
 1678 0434 00       		.byte	0
 1679 0435 1B       		.uleb128 0x1b
 1680 0436 54000000 		.4byte	.LVL14
 1681 043a 52060000 		.4byte	0x652
 1682 043e 4F040000 		.4byte	0x44f
 1683 0442 1C       		.uleb128 0x1c
 1684 0443 01       		.uleb128 0x1
 1685 0444 51       		.byte	0x51
 1686 0445 02       		.uleb128 0x2
 1687 0446 09       		.byte	0x9
 1688 0447 FF       		.byte	0xff
 1689 0448 1C       		.uleb128 0x1c
 1690 0449 01       		.uleb128 0x1
 1691 044a 50       		.byte	0x50
 1692 044b 02       		.uleb128 0x2
 1693 044c 75       		.byte	0x75
 1694 044d 00       		.sleb128 0
 1695 044e 00       		.byte	0
 1696 044f 1D       		.uleb128 0x1d
 1697 0450 64000000 		.4byte	.LVL15
 1698 0454 72060000 		.4byte	0x672
 1699 0458 1C       		.uleb128 0x1c
 1700 0459 01       		.uleb128 0x1
 1701 045a 51       		.byte	0x51
 1702 045b 02       		.uleb128 0x2
 1703 045c 79       		.byte	0x79
 1704 045d 00       		.sleb128 0
 1705 045e 00       		.byte	0
 1706 045f 00       		.byte	0
 1707 0460 1F       		.uleb128 0x1f
 1708 0461 20020000 		.4byte	0x220
 1709 0465 00000000 		.4byte	.LFB100
 1710 0469 FC000000 		.4byte	.LFE100-.LFB100
 1711 046d 01       		.uleb128 0x1
 1712 046e 9C       		.byte	0x9c
 1713 046f AE050000 		.4byte	0x5ae
 1714 0473 20       		.uleb128 0x20
 1715 0474 2C020000 		.4byte	0x22c
 1716 0478 AF000000 		.4byte	.LLST3
 1717 047c 22       		.uleb128 0x22
 1718 047d 00000000 		.4byte	.Ldebug_ranges0+0
ARM GAS  /tmp/ccbGIoKp.s 			page 61


 1719 0481 42050000 		.4byte	0x542
 1720 0485 20       		.uleb128 0x20
 1721 0486 2C020000 		.4byte	0x22c
 1722 048a F0000000 		.4byte	.LLST4
 1723 048e 1B       		.uleb128 0x1b
 1724 048f 76000000 		.4byte	.LVL40
 1725 0493 F4060000 		.4byte	0x6f4
 1726 0497 A8040000 		.4byte	0x4a8
 1727 049b 1C       		.uleb128 0x1c
 1728 049c 01       		.uleb128 0x1
 1729 049d 51       		.byte	0x51
 1730 049e 02       		.uleb128 0x2
 1731 049f 75       		.byte	0x75
 1732 04a0 7C       		.sleb128 -4
 1733 04a1 1C       		.uleb128 0x1c
 1734 04a2 01       		.uleb128 0x1
 1735 04a3 50       		.byte	0x50
 1736 04a4 02       		.uleb128 0x2
 1737 04a5 74       		.byte	0x74
 1738 04a6 00       		.sleb128 0
 1739 04a7 00       		.byte	0
 1740 04a8 1B       		.uleb128 0x1b
 1741 04a9 86000000 		.4byte	.LVL43
 1742 04ad 0A070000 		.4byte	0x70a
 1743 04b1 BC040000 		.4byte	0x4bc
 1744 04b5 1C       		.uleb128 0x1c
 1745 04b6 01       		.uleb128 0x1
 1746 04b7 50       		.byte	0x50
 1747 04b8 02       		.uleb128 0x2
 1748 04b9 74       		.byte	0x74
 1749 04ba 00       		.sleb128 0
 1750 04bb 00       		.byte	0
 1751 04bc 1B       		.uleb128 0x1b
 1752 04bd 92000000 		.4byte	.LVL44
 1753 04c1 72060000 		.4byte	0x672
 1754 04c5 D0040000 		.4byte	0x4d0
 1755 04c9 1C       		.uleb128 0x1c
 1756 04ca 01       		.uleb128 0x1
 1757 04cb 51       		.byte	0x51
 1758 04cc 02       		.uleb128 0x2
 1759 04cd 76       		.byte	0x76
 1760 04ce 00       		.sleb128 0
 1761 04cf 00       		.byte	0
 1762 04d0 1B       		.uleb128 0x1b
 1763 04d1 A6000000 		.4byte	.LVL47
 1764 04d5 0A070000 		.4byte	0x70a
 1765 04d9 E4040000 		.4byte	0x4e4
 1766 04dd 1C       		.uleb128 0x1c
 1767 04de 01       		.uleb128 0x1
 1768 04df 50       		.byte	0x50
 1769 04e0 02       		.uleb128 0x2
 1770 04e1 74       		.byte	0x74
 1771 04e2 00       		.sleb128 0
 1772 04e3 00       		.byte	0
 1773 04e4 1B       		.uleb128 0x1b
 1774 04e5 B2000000 		.4byte	.LVL48
 1775 04e9 72060000 		.4byte	0x672
ARM GAS  /tmp/ccbGIoKp.s 			page 62


 1776 04ed F8040000 		.4byte	0x4f8
 1777 04f1 1C       		.uleb128 0x1c
 1778 04f2 01       		.uleb128 0x1
 1779 04f3 51       		.byte	0x51
 1780 04f4 02       		.uleb128 0x2
 1781 04f5 79       		.byte	0x79
 1782 04f6 00       		.sleb128 0
 1783 04f7 00       		.byte	0
 1784 04f8 1B       		.uleb128 0x1b
 1785 04f9 CC000000 		.4byte	.LVL51
 1786 04fd A2060000 		.4byte	0x6a2
 1787 0501 1A050000 		.4byte	0x51a
 1788 0505 1C       		.uleb128 0x1c
 1789 0506 01       		.uleb128 0x1
 1790 0507 52       		.byte	0x52
 1791 0508 05       		.uleb128 0x5
 1792 0509 03       		.byte	0x3
 1793 050a 00000000 		.4byte	null_provider
 1794 050e 1C       		.uleb128 0x1c
 1795 050f 01       		.uleb128 0x1
 1796 0510 51       		.byte	0x51
 1797 0511 01       		.uleb128 0x1
 1798 0512 34       		.byte	0x34
 1799 0513 1C       		.uleb128 0x1c
 1800 0514 01       		.uleb128 0x1
 1801 0515 50       		.byte	0x50
 1802 0516 02       		.uleb128 0x2
 1803 0517 74       		.byte	0x74
 1804 0518 00       		.sleb128 0
 1805 0519 00       		.byte	0
 1806 051a 1B       		.uleb128 0x1b
 1807 051b D2000000 		.4byte	.LVL52
 1808 051f 0A070000 		.4byte	0x70a
 1809 0523 2E050000 		.4byte	0x52e
 1810 0527 1C       		.uleb128 0x1c
 1811 0528 01       		.uleb128 0x1
 1812 0529 50       		.byte	0x50
 1813 052a 02       		.uleb128 0x2
 1814 052b 74       		.byte	0x74
 1815 052c 00       		.sleb128 0
 1816 052d 00       		.byte	0
 1817 052e 1D       		.uleb128 0x1d
 1818 052f DE000000 		.4byte	.LVL53
 1819 0533 72060000 		.4byte	0x672
 1820 0537 1C       		.uleb128 0x1c
 1821 0538 01       		.uleb128 0x1
 1822 0539 51       		.byte	0x51
 1823 053a 05       		.uleb128 0x5
 1824 053b 03       		.byte	0x3
 1825 053c 1C000000 		.4byte	.LC20
 1826 0540 00       		.byte	0
 1827 0541 00       		.byte	0
 1828 0542 1B       		.uleb128 0x1b
 1829 0543 1E000000 		.4byte	.LVL28
 1830 0547 1F070000 		.4byte	0x71f
 1831 054b 61050000 		.4byte	0x561
 1832 054f 1C       		.uleb128 0x1c
ARM GAS  /tmp/ccbGIoKp.s 			page 63


 1833 0550 01       		.uleb128 0x1
 1834 0551 52       		.byte	0x52
 1835 0552 01       		.uleb128 0x1
 1836 0553 34       		.byte	0x34
 1837 0554 1C       		.uleb128 0x1c
 1838 0555 01       		.uleb128 0x1
 1839 0556 51       		.byte	0x51
 1840 0557 02       		.uleb128 0x2
 1841 0558 78       		.byte	0x78
 1842 0559 00       		.sleb128 0
 1843 055a 1C       		.uleb128 0x1c
 1844 055b 01       		.uleb128 0x1
 1845 055c 50       		.byte	0x50
 1846 055d 02       		.uleb128 0x2
 1847 055e 74       		.byte	0x74
 1848 055f 00       		.sleb128 0
 1849 0560 00       		.byte	0
 1850 0561 1B       		.uleb128 0x1b
 1851 0562 2C000000 		.4byte	.LVL31
 1852 0566 0A070000 		.4byte	0x70a
 1853 056a 75050000 		.4byte	0x575
 1854 056e 1C       		.uleb128 0x1c
 1855 056f 01       		.uleb128 0x1
 1856 0570 50       		.byte	0x50
 1857 0571 02       		.uleb128 0x2
 1858 0572 74       		.byte	0x74
 1859 0573 00       		.sleb128 0
 1860 0574 00       		.byte	0
 1861 0575 1B       		.uleb128 0x1b
 1862 0576 38000000 		.4byte	.LVL32
 1863 057a 72060000 		.4byte	0x672
 1864 057e 89050000 		.4byte	0x589
 1865 0582 1C       		.uleb128 0x1c
 1866 0583 01       		.uleb128 0x1
 1867 0584 51       		.byte	0x51
 1868 0585 02       		.uleb128 0x2
 1869 0586 76       		.byte	0x76
 1870 0587 00       		.sleb128 0
 1871 0588 00       		.byte	0
 1872 0589 1B       		.uleb128 0x1b
 1873 058a 4C000000 		.4byte	.LVL35
 1874 058e 0A070000 		.4byte	0x70a
 1875 0592 9D050000 		.4byte	0x59d
 1876 0596 1C       		.uleb128 0x1c
 1877 0597 01       		.uleb128 0x1
 1878 0598 50       		.byte	0x50
 1879 0599 02       		.uleb128 0x2
 1880 059a 74       		.byte	0x74
 1881 059b 00       		.sleb128 0
 1882 059c 00       		.byte	0
 1883 059d 1D       		.uleb128 0x1d
 1884 059e 5C000000 		.4byte	.LVL36
 1885 05a2 72060000 		.4byte	0x672
 1886 05a6 1C       		.uleb128 0x1c
 1887 05a7 01       		.uleb128 0x1
 1888 05a8 51       		.byte	0x51
 1889 05a9 02       		.uleb128 0x2
ARM GAS  /tmp/ccbGIoKp.s 			page 64


 1890 05aa 79       		.byte	0x79
 1891 05ab 00       		.sleb128 0
 1892 05ac 00       		.byte	0
 1893 05ad 00       		.byte	0
 1894 05ae 23       		.uleb128 0x23
 1895 05af DD030000 		.4byte	.LASF42
 1896 05b3 01       		.byte	0x1
 1897 05b4 36       		.byte	0x36
 1898 05b5 C0000000 		.4byte	0xc0
 1899 05b9 05       		.uleb128 0x5
 1900 05ba 03       		.byte	0x3
 1901 05bb 00000000 		.4byte	objects
 1902 05bf 24       		.uleb128 0x24
 1903 05c0 6D703100 		.ascii	"mp1\000"
 1904 05c4 01       		.byte	0x1
 1905 05c5 37       		.byte	0x37
 1906 05c6 81010000 		.4byte	0x181
 1907 05ca 05       		.uleb128 0x5
 1908 05cb 03       		.byte	0x3
 1909 05cc 00000000 		.4byte	mp1
 1910 05d0 23       		.uleb128 0x23
 1911 05d1 B1030000 		.4byte	.LASF43
 1912 05d5 01       		.byte	0x1
 1913 05d6 3A       		.byte	0x3a
 1914 05d7 AD010000 		.4byte	0x1ad
 1915 05db 05       		.uleb128 0x5
 1916 05dc 03       		.byte	0x3
 1917 05dd 00000000 		.4byte	gmp1
 1918 05e1 23       		.uleb128 0x23
 1919 05e2 B6030000 		.4byte	.LASF44
 1920 05e6 01       		.byte	0x1
 1921 05e7 93       		.byte	0x93
 1922 05e8 F2050000 		.4byte	0x5f2
 1923 05ec 05       		.uleb128 0x5
 1924 05ed 03       		.byte	0x3
 1925 05ee 00000000 		.4byte	test_005_001
 1926 05f2 0D       		.uleb128 0xd
 1927 05f3 FF010000 		.4byte	0x1ff
 1928 05f7 23       		.uleb128 0x23
 1929 05f8 C3030000 		.4byte	.LASF45
 1930 05fc 01       		.byte	0x1
 1931 05fd E5       		.byte	0xe5
 1932 05fe F2050000 		.4byte	0x5f2
 1933 0602 05       		.uleb128 0x5
 1934 0603 03       		.byte	0x3
 1935 0604 00000000 		.4byte	test_005_002
 1936 0608 25       		.uleb128 0x25
 1937 0609 D0030000 		.4byte	.LASF46
 1938 060d 01       		.byte	0x1
 1939 060e 0E01     		.2byte	0x10e
 1940 0610 F2050000 		.4byte	0x5f2
 1941 0614 05       		.uleb128 0x5
 1942 0615 03       		.byte	0x3
 1943 0616 00000000 		.4byte	test_005_003
 1944 061a 26       		.uleb128 0x26
 1945 061b 26030000 		.4byte	.LASF47
 1946 061f 09       		.byte	0x9
ARM GAS  /tmp/ccbGIoKp.s 			page 65


 1947 0620 9E       		.byte	0x9e
 1948 0621 37000000 		.4byte	0x37
 1949 0625 06       		.uleb128 0x6
 1950 0626 35060000 		.4byte	0x635
 1951 062a 35060000 		.4byte	0x635
 1952 062e 07       		.uleb128 0x7
 1953 062f B9000000 		.4byte	0xb9
 1954 0633 03       		.byte	0x3
 1955 0634 00       		.byte	0
 1956 0635 0C       		.uleb128 0xc
 1957 0636 04       		.byte	0x4
 1958 0637 F2050000 		.4byte	0x5f2
 1959 063b 27       		.uleb128 0x27
 1960 063c B6000000 		.4byte	.LASF48
 1961 0640 01       		.byte	0x1
 1962 0641 1D01     		.2byte	0x11d
 1963 0643 4D060000 		.4byte	0x64d
 1964 0647 05       		.uleb128 0x5
 1965 0648 03       		.byte	0x3
 1966 0649 00000000 		.4byte	test_sequence_005
 1967 064d 0D       		.uleb128 0xd
 1968 064e 25060000 		.4byte	0x625
 1969 0652 28       		.uleb128 0x28
 1970 0653 28020000 		.4byte	.LASF49
 1971 0657 08       		.byte	0x8
 1972 0658 9C       		.byte	0x9c
 1973 0659 D0000000 		.4byte	0xd0
 1974 065d 6C060000 		.4byte	0x66c
 1975 0661 0F       		.uleb128 0xf
 1976 0662 6C060000 		.4byte	0x66c
 1977 0666 0F       		.uleb128 0xf
 1978 0667 AD000000 		.4byte	0xad
 1979 066b 00       		.byte	0
 1980 066c 0C       		.uleb128 0xc
 1981 066d 04       		.byte	0x4
 1982 066e AD010000 		.4byte	0x1ad
 1983 0672 28       		.uleb128 0x28
 1984 0673 D9000000 		.4byte	.LASF50
 1985 0677 09       		.byte	0x9
 1986 0678 A6       		.byte	0xa6
 1987 0679 B8010000 		.4byte	0x1b8
 1988 067d 8C060000 		.4byte	0x68c
 1989 0681 0F       		.uleb128 0xf
 1990 0682 B8010000 		.4byte	0x1b8
 1991 0686 0F       		.uleb128 0xf
 1992 0687 FE000000 		.4byte	0xfe
 1993 068b 00       		.byte	0
 1994 068c 29       		.uleb128 0x29
 1995 068d DB010000 		.4byte	.LASF51
 1996 0691 08       		.byte	0x8
 1997 0692 98       		.byte	0x98
 1998 0693 A2060000 		.4byte	0x6a2
 1999 0697 0F       		.uleb128 0xf
 2000 0698 6C060000 		.4byte	0x66c
 2001 069c 0F       		.uleb128 0xf
 2002 069d 2C000000 		.4byte	0x2c
 2003 06a1 00       		.byte	0
ARM GAS  /tmp/ccbGIoKp.s 			page 66


 2004 06a2 29       		.uleb128 0x29
 2005 06a3 4E020000 		.4byte	.LASF52
 2006 06a7 08       		.byte	0x8
 2007 06a8 91       		.byte	0x91
 2008 06a9 BD060000 		.4byte	0x6bd
 2009 06ad 0F       		.uleb128 0xf
 2010 06ae BD060000 		.4byte	0x6bd
 2011 06b2 0F       		.uleb128 0xf
 2012 06b3 2C000000 		.4byte	0x2c
 2013 06b7 0F       		.uleb128 0xf
 2014 06b8 10010000 		.4byte	0x110
 2015 06bc 00       		.byte	0
 2016 06bd 0C       		.uleb128 0xc
 2017 06be 04       		.byte	0x4
 2018 06bf 81010000 		.4byte	0x181
 2019 06c3 29       		.uleb128 0x29
 2020 06c4 C9010000 		.4byte	.LASF53
 2021 06c8 08       		.byte	0x8
 2022 06c9 9F       		.byte	0x9f
 2023 06ca D9060000 		.4byte	0x6d9
 2024 06ce 0F       		.uleb128 0xf
 2025 06cf 6C060000 		.4byte	0x66c
 2026 06d3 0F       		.uleb128 0xf
 2027 06d4 D0000000 		.4byte	0xd0
 2028 06d8 00       		.byte	0
 2029 06d9 29       		.uleb128 0x29
 2030 06da 8A030000 		.4byte	.LASF54
 2031 06de 08       		.byte	0x8
 2032 06df 99       		.byte	0x99
 2033 06e0 F4060000 		.4byte	0x6f4
 2034 06e4 0F       		.uleb128 0xf
 2035 06e5 6C060000 		.4byte	0x66c
 2036 06e9 0F       		.uleb128 0xf
 2037 06ea D0000000 		.4byte	0xd0
 2038 06ee 0F       		.uleb128 0xf
 2039 06ef 2C000000 		.4byte	0x2c
 2040 06f3 00       		.byte	0
 2041 06f4 29       		.uleb128 0x29
 2042 06f5 0A020000 		.4byte	.LASF55
 2043 06f9 08       		.byte	0x8
 2044 06fa 96       		.byte	0x96
 2045 06fb 0A070000 		.4byte	0x70a
 2046 06ff 0F       		.uleb128 0xf
 2047 0700 BD060000 		.4byte	0x6bd
 2048 0704 0F       		.uleb128 0xf
 2049 0705 D0000000 		.4byte	0xd0
 2050 0709 00       		.byte	0
 2051 070a 28       		.uleb128 0x28
 2052 070b 18010000 		.4byte	.LASF56
 2053 070f 08       		.byte	0x8
 2054 0710 94       		.byte	0x94
 2055 0711 D0000000 		.4byte	0xd0
 2056 0715 1F070000 		.4byte	0x71f
 2057 0719 0F       		.uleb128 0xf
 2058 071a BD060000 		.4byte	0x6bd
 2059 071e 00       		.byte	0
 2060 071f 2A       		.uleb128 0x2a
ARM GAS  /tmp/ccbGIoKp.s 			page 67


 2061 0720 EF000000 		.4byte	.LASF61
 2062 0724 08       		.byte	0x8
 2063 0725 92       		.byte	0x92
 2064 0726 0F       		.uleb128 0xf
 2065 0727 BD060000 		.4byte	0x6bd
 2066 072b 0F       		.uleb128 0xf
 2067 072c D0000000 		.4byte	0xd0
 2068 0730 0F       		.uleb128 0xf
 2069 0731 2C000000 		.4byte	0x2c
 2070 0735 00       		.byte	0
 2071 0736 00       		.byte	0
 2072              		.section	.debug_abbrev,"",%progbits
 2073              	.Ldebug_abbrev0:
 2074 0000 01       		.uleb128 0x1
 2075 0001 11       		.uleb128 0x11
 2076 0002 01       		.byte	0x1
 2077 0003 25       		.uleb128 0x25
 2078 0004 0E       		.uleb128 0xe
 2079 0005 13       		.uleb128 0x13
 2080 0006 0B       		.uleb128 0xb
 2081 0007 03       		.uleb128 0x3
 2082 0008 0E       		.uleb128 0xe
 2083 0009 1B       		.uleb128 0x1b
 2084 000a 0E       		.uleb128 0xe
 2085 000b 55       		.uleb128 0x55
 2086 000c 17       		.uleb128 0x17
 2087 000d 11       		.uleb128 0x11
 2088 000e 01       		.uleb128 0x1
 2089 000f 10       		.uleb128 0x10
 2090 0010 17       		.uleb128 0x17
 2091 0011 00       		.byte	0
 2092 0012 00       		.byte	0
 2093 0013 02       		.uleb128 0x2
 2094 0014 24       		.uleb128 0x24
 2095 0015 00       		.byte	0
 2096 0016 0B       		.uleb128 0xb
 2097 0017 0B       		.uleb128 0xb
 2098 0018 3E       		.uleb128 0x3e
 2099 0019 0B       		.uleb128 0xb
 2100 001a 03       		.uleb128 0x3
 2101 001b 08       		.uleb128 0x8
 2102 001c 00       		.byte	0
 2103 001d 00       		.byte	0
 2104 001e 03       		.uleb128 0x3
 2105 001f 16       		.uleb128 0x16
 2106 0020 00       		.byte	0
 2107 0021 03       		.uleb128 0x3
 2108 0022 0E       		.uleb128 0xe
 2109 0023 3A       		.uleb128 0x3a
 2110 0024 0B       		.uleb128 0xb
 2111 0025 3B       		.uleb128 0x3b
 2112 0026 0B       		.uleb128 0xb
 2113 0027 49       		.uleb128 0x49
 2114 0028 13       		.uleb128 0x13
 2115 0029 00       		.byte	0
 2116 002a 00       		.byte	0
 2117 002b 04       		.uleb128 0x4
ARM GAS  /tmp/ccbGIoKp.s 			page 68


 2118 002c 24       		.uleb128 0x24
 2119 002d 00       		.byte	0
 2120 002e 0B       		.uleb128 0xb
 2121 002f 0B       		.uleb128 0xb
 2122 0030 3E       		.uleb128 0x3e
 2123 0031 0B       		.uleb128 0xb
 2124 0032 03       		.uleb128 0x3
 2125 0033 0E       		.uleb128 0xe
 2126 0034 00       		.byte	0
 2127 0035 00       		.byte	0
 2128 0036 05       		.uleb128 0x5
 2129 0037 16       		.uleb128 0x16
 2130 0038 00       		.byte	0
 2131 0039 03       		.uleb128 0x3
 2132 003a 0E       		.uleb128 0xe
 2133 003b 3A       		.uleb128 0x3a
 2134 003c 0B       		.uleb128 0xb
 2135 003d 3B       		.uleb128 0x3b
 2136 003e 05       		.uleb128 0x5
 2137 003f 49       		.uleb128 0x49
 2138 0040 13       		.uleb128 0x13
 2139 0041 00       		.byte	0
 2140 0042 00       		.byte	0
 2141 0043 06       		.uleb128 0x6
 2142 0044 01       		.uleb128 0x1
 2143 0045 01       		.byte	0x1
 2144 0046 49       		.uleb128 0x49
 2145 0047 13       		.uleb128 0x13
 2146 0048 01       		.uleb128 0x1
 2147 0049 13       		.uleb128 0x13
 2148 004a 00       		.byte	0
 2149 004b 00       		.byte	0
 2150 004c 07       		.uleb128 0x7
 2151 004d 21       		.uleb128 0x21
 2152 004e 00       		.byte	0
 2153 004f 49       		.uleb128 0x49
 2154 0050 13       		.uleb128 0x13
 2155 0051 2F       		.uleb128 0x2f
 2156 0052 0B       		.uleb128 0xb
 2157 0053 00       		.byte	0
 2158 0054 00       		.byte	0
 2159 0055 08       		.uleb128 0x8
 2160 0056 0F       		.uleb128 0xf
 2161 0057 00       		.byte	0
 2162 0058 0B       		.uleb128 0xb
 2163 0059 0B       		.uleb128 0xb
 2164 005a 00       		.byte	0
 2165 005b 00       		.byte	0
 2166 005c 09       		.uleb128 0x9
 2167 005d 13       		.uleb128 0x13
 2168 005e 01       		.byte	0x1
 2169 005f 03       		.uleb128 0x3
 2170 0060 0E       		.uleb128 0xe
 2171 0061 0B       		.uleb128 0xb
 2172 0062 0B       		.uleb128 0xb
 2173 0063 3A       		.uleb128 0x3a
 2174 0064 0B       		.uleb128 0xb
ARM GAS  /tmp/ccbGIoKp.s 			page 69


 2175 0065 3B       		.uleb128 0x3b
 2176 0066 05       		.uleb128 0x5
 2177 0067 01       		.uleb128 0x1
 2178 0068 13       		.uleb128 0x13
 2179 0069 00       		.byte	0
 2180 006a 00       		.byte	0
 2181 006b 0A       		.uleb128 0xa
 2182 006c 0D       		.uleb128 0xd
 2183 006d 00       		.byte	0
 2184 006e 03       		.uleb128 0x3
 2185 006f 08       		.uleb128 0x8
 2186 0070 3A       		.uleb128 0x3a
 2187 0071 0B       		.uleb128 0xb
 2188 0072 3B       		.uleb128 0x3b
 2189 0073 05       		.uleb128 0x5
 2190 0074 49       		.uleb128 0x49
 2191 0075 13       		.uleb128 0x13
 2192 0076 38       		.uleb128 0x38
 2193 0077 0B       		.uleb128 0xb
 2194 0078 00       		.byte	0
 2195 0079 00       		.byte	0
 2196 007a 0B       		.uleb128 0xb
 2197 007b 35       		.uleb128 0x35
 2198 007c 00       		.byte	0
 2199 007d 49       		.uleb128 0x49
 2200 007e 13       		.uleb128 0x13
 2201 007f 00       		.byte	0
 2202 0080 00       		.byte	0
 2203 0081 0C       		.uleb128 0xc
 2204 0082 0F       		.uleb128 0xf
 2205 0083 00       		.byte	0
 2206 0084 0B       		.uleb128 0xb
 2207 0085 0B       		.uleb128 0xb
 2208 0086 49       		.uleb128 0x49
 2209 0087 13       		.uleb128 0x13
 2210 0088 00       		.byte	0
 2211 0089 00       		.byte	0
 2212 008a 0D       		.uleb128 0xd
 2213 008b 26       		.uleb128 0x26
 2214 008c 00       		.byte	0
 2215 008d 49       		.uleb128 0x49
 2216 008e 13       		.uleb128 0x13
 2217 008f 00       		.byte	0
 2218 0090 00       		.byte	0
 2219 0091 0E       		.uleb128 0xe
 2220 0092 15       		.uleb128 0x15
 2221 0093 01       		.byte	0x1
 2222 0094 27       		.uleb128 0x27
 2223 0095 19       		.uleb128 0x19
 2224 0096 49       		.uleb128 0x49
 2225 0097 13       		.uleb128 0x13
 2226 0098 01       		.uleb128 0x1
 2227 0099 13       		.uleb128 0x13
 2228 009a 00       		.byte	0
 2229 009b 00       		.byte	0
 2230 009c 0F       		.uleb128 0xf
 2231 009d 05       		.uleb128 0x5
ARM GAS  /tmp/ccbGIoKp.s 			page 70


 2232 009e 00       		.byte	0
 2233 009f 49       		.uleb128 0x49
 2234 00a0 13       		.uleb128 0x13
 2235 00a1 00       		.byte	0
 2236 00a2 00       		.byte	0
 2237 00a3 10       		.uleb128 0x10
 2238 00a4 13       		.uleb128 0x13
 2239 00a5 01       		.byte	0x1
 2240 00a6 03       		.uleb128 0x3
 2241 00a7 0E       		.uleb128 0xe
 2242 00a8 0B       		.uleb128 0xb
 2243 00a9 0B       		.uleb128 0xb
 2244 00aa 3A       		.uleb128 0x3a
 2245 00ab 0B       		.uleb128 0xb
 2246 00ac 3B       		.uleb128 0x3b
 2247 00ad 0B       		.uleb128 0xb
 2248 00ae 01       		.uleb128 0x1
 2249 00af 13       		.uleb128 0x13
 2250 00b0 00       		.byte	0
 2251 00b1 00       		.byte	0
 2252 00b2 11       		.uleb128 0x11
 2253 00b3 0D       		.uleb128 0xd
 2254 00b4 00       		.byte	0
 2255 00b5 03       		.uleb128 0x3
 2256 00b6 0E       		.uleb128 0xe
 2257 00b7 3A       		.uleb128 0x3a
 2258 00b8 0B       		.uleb128 0xb
 2259 00b9 3B       		.uleb128 0x3b
 2260 00ba 0B       		.uleb128 0xb
 2261 00bb 49       		.uleb128 0x49
 2262 00bc 13       		.uleb128 0x13
 2263 00bd 38       		.uleb128 0x38
 2264 00be 0B       		.uleb128 0xb
 2265 00bf 00       		.byte	0
 2266 00c0 00       		.byte	0
 2267 00c1 12       		.uleb128 0x12
 2268 00c2 13       		.uleb128 0x13
 2269 00c3 01       		.byte	0x1
 2270 00c4 0B       		.uleb128 0xb
 2271 00c5 0B       		.uleb128 0xb
 2272 00c6 3A       		.uleb128 0x3a
 2273 00c7 0B       		.uleb128 0xb
 2274 00c8 3B       		.uleb128 0x3b
 2275 00c9 0B       		.uleb128 0xb
 2276 00ca 01       		.uleb128 0x1
 2277 00cb 13       		.uleb128 0x13
 2278 00cc 00       		.byte	0
 2279 00cd 00       		.byte	0
 2280 00ce 13       		.uleb128 0x13
 2281 00cf 0D       		.uleb128 0xd
 2282 00d0 00       		.byte	0
 2283 00d1 03       		.uleb128 0x3
 2284 00d2 08       		.uleb128 0x8
 2285 00d3 3A       		.uleb128 0x3a
 2286 00d4 0B       		.uleb128 0xb
 2287 00d5 3B       		.uleb128 0x3b
 2288 00d6 0B       		.uleb128 0xb
ARM GAS  /tmp/ccbGIoKp.s 			page 71


 2289 00d7 49       		.uleb128 0x49
 2290 00d8 13       		.uleb128 0x13
 2291 00d9 38       		.uleb128 0x38
 2292 00da 0B       		.uleb128 0xb
 2293 00db 00       		.byte	0
 2294 00dc 00       		.byte	0
 2295 00dd 14       		.uleb128 0x14
 2296 00de 15       		.uleb128 0x15
 2297 00df 00       		.byte	0
 2298 00e0 27       		.uleb128 0x27
 2299 00e1 19       		.uleb128 0x19
 2300 00e2 00       		.byte	0
 2301 00e3 00       		.byte	0
 2302 00e4 15       		.uleb128 0x15
 2303 00e5 2E       		.uleb128 0x2e
 2304 00e6 01       		.byte	0x1
 2305 00e7 03       		.uleb128 0x3
 2306 00e8 0E       		.uleb128 0xe
 2307 00e9 3A       		.uleb128 0x3a
 2308 00ea 0B       		.uleb128 0xb
 2309 00eb 3B       		.uleb128 0x3b
 2310 00ec 0B       		.uleb128 0xb
 2311 00ed 27       		.uleb128 0x27
 2312 00ee 19       		.uleb128 0x19
 2313 00ef 20       		.uleb128 0x20
 2314 00f0 0B       		.uleb128 0xb
 2315 00f1 01       		.uleb128 0x1
 2316 00f2 13       		.uleb128 0x13
 2317 00f3 00       		.byte	0
 2318 00f4 00       		.byte	0
 2319 00f5 16       		.uleb128 0x16
 2320 00f6 34       		.uleb128 0x34
 2321 00f7 00       		.byte	0
 2322 00f8 03       		.uleb128 0x3
 2323 00f9 08       		.uleb128 0x8
 2324 00fa 3A       		.uleb128 0x3a
 2325 00fb 0B       		.uleb128 0xb
 2326 00fc 3B       		.uleb128 0x3b
 2327 00fd 0B       		.uleb128 0xb
 2328 00fe 49       		.uleb128 0x49
 2329 00ff 13       		.uleb128 0x13
 2330 0100 00       		.byte	0
 2331 0101 00       		.byte	0
 2332 0102 17       		.uleb128 0x17
 2333 0103 2E       		.uleb128 0x2e
 2334 0104 01       		.byte	0x1
 2335 0105 03       		.uleb128 0x3
 2336 0106 0E       		.uleb128 0xe
 2337 0107 3A       		.uleb128 0x3a
 2338 0108 0B       		.uleb128 0xb
 2339 0109 3B       		.uleb128 0x3b
 2340 010a 0B       		.uleb128 0xb
 2341 010b 27       		.uleb128 0x27
 2342 010c 19       		.uleb128 0x19
 2343 010d 49       		.uleb128 0x49
 2344 010e 13       		.uleb128 0x13
 2345 010f 11       		.uleb128 0x11
ARM GAS  /tmp/ccbGIoKp.s 			page 72


 2346 0110 01       		.uleb128 0x1
 2347 0111 12       		.uleb128 0x12
 2348 0112 06       		.uleb128 0x6
 2349 0113 40       		.uleb128 0x40
 2350 0114 18       		.uleb128 0x18
 2351 0115 9742     		.uleb128 0x2117
 2352 0117 19       		.uleb128 0x19
 2353 0118 01       		.uleb128 0x1
 2354 0119 13       		.uleb128 0x13
 2355 011a 00       		.byte	0
 2356 011b 00       		.byte	0
 2357 011c 18       		.uleb128 0x18
 2358 011d 05       		.uleb128 0x5
 2359 011e 00       		.byte	0
 2360 011f 03       		.uleb128 0x3
 2361 0120 0E       		.uleb128 0xe
 2362 0121 3A       		.uleb128 0x3a
 2363 0122 0B       		.uleb128 0xb
 2364 0123 3B       		.uleb128 0x3b
 2365 0124 0B       		.uleb128 0xb
 2366 0125 49       		.uleb128 0x49
 2367 0126 13       		.uleb128 0x13
 2368 0127 02       		.uleb128 0x2
 2369 0128 17       		.uleb128 0x17
 2370 0129 00       		.byte	0
 2371 012a 00       		.byte	0
 2372 012b 19       		.uleb128 0x19
 2373 012c 05       		.uleb128 0x5
 2374 012d 00       		.byte	0
 2375 012e 03       		.uleb128 0x3
 2376 012f 0E       		.uleb128 0xe
 2377 0130 3A       		.uleb128 0x3a
 2378 0131 0B       		.uleb128 0xb
 2379 0132 3B       		.uleb128 0x3b
 2380 0133 0B       		.uleb128 0xb
 2381 0134 49       		.uleb128 0x49
 2382 0135 13       		.uleb128 0x13
 2383 0136 02       		.uleb128 0x2
 2384 0137 18       		.uleb128 0x18
 2385 0138 00       		.byte	0
 2386 0139 00       		.byte	0
 2387 013a 1A       		.uleb128 0x1a
 2388 013b 2E       		.uleb128 0x2e
 2389 013c 01       		.byte	0x1
 2390 013d 03       		.uleb128 0x3
 2391 013e 0E       		.uleb128 0xe
 2392 013f 3A       		.uleb128 0x3a
 2393 0140 0B       		.uleb128 0xb
 2394 0141 3B       		.uleb128 0x3b
 2395 0142 05       		.uleb128 0x5
 2396 0143 27       		.uleb128 0x27
 2397 0144 19       		.uleb128 0x19
 2398 0145 11       		.uleb128 0x11
 2399 0146 01       		.uleb128 0x1
 2400 0147 12       		.uleb128 0x12
 2401 0148 06       		.uleb128 0x6
 2402 0149 40       		.uleb128 0x40
ARM GAS  /tmp/ccbGIoKp.s 			page 73


 2403 014a 18       		.uleb128 0x18
 2404 014b 9742     		.uleb128 0x2117
 2405 014d 19       		.uleb128 0x19
 2406 014e 01       		.uleb128 0x1
 2407 014f 13       		.uleb128 0x13
 2408 0150 00       		.byte	0
 2409 0151 00       		.byte	0
 2410 0152 1B       		.uleb128 0x1b
 2411 0153 898201   		.uleb128 0x4109
 2412 0156 01       		.byte	0x1
 2413 0157 11       		.uleb128 0x11
 2414 0158 01       		.uleb128 0x1
 2415 0159 31       		.uleb128 0x31
 2416 015a 13       		.uleb128 0x13
 2417 015b 01       		.uleb128 0x1
 2418 015c 13       		.uleb128 0x13
 2419 015d 00       		.byte	0
 2420 015e 00       		.byte	0
 2421 015f 1C       		.uleb128 0x1c
 2422 0160 8A8201   		.uleb128 0x410a
 2423 0163 00       		.byte	0
 2424 0164 02       		.uleb128 0x2
 2425 0165 18       		.uleb128 0x18
 2426 0166 9142     		.uleb128 0x2111
 2427 0168 18       		.uleb128 0x18
 2428 0169 00       		.byte	0
 2429 016a 00       		.byte	0
 2430 016b 1D       		.uleb128 0x1d
 2431 016c 898201   		.uleb128 0x4109
 2432 016f 01       		.byte	0x1
 2433 0170 11       		.uleb128 0x11
 2434 0171 01       		.uleb128 0x1
 2435 0172 31       		.uleb128 0x31
 2436 0173 13       		.uleb128 0x13
 2437 0174 00       		.byte	0
 2438 0175 00       		.byte	0
 2439 0176 1E       		.uleb128 0x1e
 2440 0177 2E       		.uleb128 0x2e
 2441 0178 01       		.byte	0x1
 2442 0179 03       		.uleb128 0x3
 2443 017a 0E       		.uleb128 0xe
 2444 017b 3A       		.uleb128 0x3a
 2445 017c 0B       		.uleb128 0xb
 2446 017d 3B       		.uleb128 0x3b
 2447 017e 0B       		.uleb128 0xb
 2448 017f 27       		.uleb128 0x27
 2449 0180 19       		.uleb128 0x19
 2450 0181 11       		.uleb128 0x11
 2451 0182 01       		.uleb128 0x1
 2452 0183 12       		.uleb128 0x12
 2453 0184 06       		.uleb128 0x6
 2454 0185 40       		.uleb128 0x40
 2455 0186 18       		.uleb128 0x18
 2456 0187 9742     		.uleb128 0x2117
 2457 0189 19       		.uleb128 0x19
 2458 018a 01       		.uleb128 0x1
 2459 018b 13       		.uleb128 0x13
ARM GAS  /tmp/ccbGIoKp.s 			page 74


 2460 018c 00       		.byte	0
 2461 018d 00       		.byte	0
 2462 018e 1F       		.uleb128 0x1f
 2463 018f 2E       		.uleb128 0x2e
 2464 0190 01       		.byte	0x1
 2465 0191 31       		.uleb128 0x31
 2466 0192 13       		.uleb128 0x13
 2467 0193 11       		.uleb128 0x11
 2468 0194 01       		.uleb128 0x1
 2469 0195 12       		.uleb128 0x12
 2470 0196 06       		.uleb128 0x6
 2471 0197 40       		.uleb128 0x40
 2472 0198 18       		.uleb128 0x18
 2473 0199 9742     		.uleb128 0x2117
 2474 019b 19       		.uleb128 0x19
 2475 019c 01       		.uleb128 0x1
 2476 019d 13       		.uleb128 0x13
 2477 019e 00       		.byte	0
 2478 019f 00       		.byte	0
 2479 01a0 20       		.uleb128 0x20
 2480 01a1 34       		.uleb128 0x34
 2481 01a2 00       		.byte	0
 2482 01a3 31       		.uleb128 0x31
 2483 01a4 13       		.uleb128 0x13
 2484 01a5 02       		.uleb128 0x2
 2485 01a6 17       		.uleb128 0x17
 2486 01a7 00       		.byte	0
 2487 01a8 00       		.byte	0
 2488 01a9 21       		.uleb128 0x21
 2489 01aa 0B       		.uleb128 0xb
 2490 01ab 01       		.byte	0x1
 2491 01ac 11       		.uleb128 0x11
 2492 01ad 01       		.uleb128 0x1
 2493 01ae 12       		.uleb128 0x12
 2494 01af 06       		.uleb128 0x6
 2495 01b0 01       		.uleb128 0x1
 2496 01b1 13       		.uleb128 0x13
 2497 01b2 00       		.byte	0
 2498 01b3 00       		.byte	0
 2499 01b4 22       		.uleb128 0x22
 2500 01b5 0B       		.uleb128 0xb
 2501 01b6 01       		.byte	0x1
 2502 01b7 55       		.uleb128 0x55
 2503 01b8 17       		.uleb128 0x17
 2504 01b9 01       		.uleb128 0x1
 2505 01ba 13       		.uleb128 0x13
 2506 01bb 00       		.byte	0
 2507 01bc 00       		.byte	0
 2508 01bd 23       		.uleb128 0x23
 2509 01be 34       		.uleb128 0x34
 2510 01bf 00       		.byte	0
 2511 01c0 03       		.uleb128 0x3
 2512 01c1 0E       		.uleb128 0xe
 2513 01c2 3A       		.uleb128 0x3a
 2514 01c3 0B       		.uleb128 0xb
 2515 01c4 3B       		.uleb128 0x3b
 2516 01c5 0B       		.uleb128 0xb
ARM GAS  /tmp/ccbGIoKp.s 			page 75


 2517 01c6 49       		.uleb128 0x49
 2518 01c7 13       		.uleb128 0x13
 2519 01c8 02       		.uleb128 0x2
 2520 01c9 18       		.uleb128 0x18
 2521 01ca 00       		.byte	0
 2522 01cb 00       		.byte	0
 2523 01cc 24       		.uleb128 0x24
 2524 01cd 34       		.uleb128 0x34
 2525 01ce 00       		.byte	0
 2526 01cf 03       		.uleb128 0x3
 2527 01d0 08       		.uleb128 0x8
 2528 01d1 3A       		.uleb128 0x3a
 2529 01d2 0B       		.uleb128 0xb
 2530 01d3 3B       		.uleb128 0x3b
 2531 01d4 0B       		.uleb128 0xb
 2532 01d5 49       		.uleb128 0x49
 2533 01d6 13       		.uleb128 0x13
 2534 01d7 02       		.uleb128 0x2
 2535 01d8 18       		.uleb128 0x18
 2536 01d9 00       		.byte	0
 2537 01da 00       		.byte	0
 2538 01db 25       		.uleb128 0x25
 2539 01dc 34       		.uleb128 0x34
 2540 01dd 00       		.byte	0
 2541 01de 03       		.uleb128 0x3
 2542 01df 0E       		.uleb128 0xe
 2543 01e0 3A       		.uleb128 0x3a
 2544 01e1 0B       		.uleb128 0xb
 2545 01e2 3B       		.uleb128 0x3b
 2546 01e3 05       		.uleb128 0x5
 2547 01e4 49       		.uleb128 0x49
 2548 01e5 13       		.uleb128 0x13
 2549 01e6 02       		.uleb128 0x2
 2550 01e7 18       		.uleb128 0x18
 2551 01e8 00       		.byte	0
 2552 01e9 00       		.byte	0
 2553 01ea 26       		.uleb128 0x26
 2554 01eb 34       		.uleb128 0x34
 2555 01ec 00       		.byte	0
 2556 01ed 03       		.uleb128 0x3
 2557 01ee 0E       		.uleb128 0xe
 2558 01ef 3A       		.uleb128 0x3a
 2559 01f0 0B       		.uleb128 0xb
 2560 01f1 3B       		.uleb128 0x3b
 2561 01f2 0B       		.uleb128 0xb
 2562 01f3 49       		.uleb128 0x49
 2563 01f4 13       		.uleb128 0x13
 2564 01f5 3F       		.uleb128 0x3f
 2565 01f6 19       		.uleb128 0x19
 2566 01f7 3C       		.uleb128 0x3c
 2567 01f8 19       		.uleb128 0x19
 2568 01f9 00       		.byte	0
 2569 01fa 00       		.byte	0
 2570 01fb 27       		.uleb128 0x27
 2571 01fc 34       		.uleb128 0x34
 2572 01fd 00       		.byte	0
 2573 01fe 03       		.uleb128 0x3
ARM GAS  /tmp/ccbGIoKp.s 			page 76


 2574 01ff 0E       		.uleb128 0xe
 2575 0200 3A       		.uleb128 0x3a
 2576 0201 0B       		.uleb128 0xb
 2577 0202 3B       		.uleb128 0x3b
 2578 0203 05       		.uleb128 0x5
 2579 0204 49       		.uleb128 0x49
 2580 0205 13       		.uleb128 0x13
 2581 0206 3F       		.uleb128 0x3f
 2582 0207 19       		.uleb128 0x19
 2583 0208 02       		.uleb128 0x2
 2584 0209 18       		.uleb128 0x18
 2585 020a 00       		.byte	0
 2586 020b 00       		.byte	0
 2587 020c 28       		.uleb128 0x28
 2588 020d 2E       		.uleb128 0x2e
 2589 020e 01       		.byte	0x1
 2590 020f 3F       		.uleb128 0x3f
 2591 0210 19       		.uleb128 0x19
 2592 0211 03       		.uleb128 0x3
 2593 0212 0E       		.uleb128 0xe
 2594 0213 3A       		.uleb128 0x3a
 2595 0214 0B       		.uleb128 0xb
 2596 0215 3B       		.uleb128 0x3b
 2597 0216 0B       		.uleb128 0xb
 2598 0217 27       		.uleb128 0x27
 2599 0218 19       		.uleb128 0x19
 2600 0219 49       		.uleb128 0x49
 2601 021a 13       		.uleb128 0x13
 2602 021b 3C       		.uleb128 0x3c
 2603 021c 19       		.uleb128 0x19
 2604 021d 01       		.uleb128 0x1
 2605 021e 13       		.uleb128 0x13
 2606 021f 00       		.byte	0
 2607 0220 00       		.byte	0
 2608 0221 29       		.uleb128 0x29
 2609 0222 2E       		.uleb128 0x2e
 2610 0223 01       		.byte	0x1
 2611 0224 3F       		.uleb128 0x3f
 2612 0225 19       		.uleb128 0x19
 2613 0226 03       		.uleb128 0x3
 2614 0227 0E       		.uleb128 0xe
 2615 0228 3A       		.uleb128 0x3a
 2616 0229 0B       		.uleb128 0xb
 2617 022a 3B       		.uleb128 0x3b
 2618 022b 0B       		.uleb128 0xb
 2619 022c 27       		.uleb128 0x27
 2620 022d 19       		.uleb128 0x19
 2621 022e 3C       		.uleb128 0x3c
 2622 022f 19       		.uleb128 0x19
 2623 0230 01       		.uleb128 0x1
 2624 0231 13       		.uleb128 0x13
 2625 0232 00       		.byte	0
 2626 0233 00       		.byte	0
 2627 0234 2A       		.uleb128 0x2a
 2628 0235 2E       		.uleb128 0x2e
 2629 0236 01       		.byte	0x1
 2630 0237 3F       		.uleb128 0x3f
ARM GAS  /tmp/ccbGIoKp.s 			page 77


 2631 0238 19       		.uleb128 0x19
 2632 0239 03       		.uleb128 0x3
 2633 023a 0E       		.uleb128 0xe
 2634 023b 3A       		.uleb128 0x3a
 2635 023c 0B       		.uleb128 0xb
 2636 023d 3B       		.uleb128 0x3b
 2637 023e 0B       		.uleb128 0xb
 2638 023f 27       		.uleb128 0x27
 2639 0240 19       		.uleb128 0x19
 2640 0241 3C       		.uleb128 0x3c
 2641 0242 19       		.uleb128 0x19
 2642 0243 00       		.byte	0
 2643 0244 00       		.byte	0
 2644 0245 00       		.byte	0
 2645              		.section	.debug_loc,"",%progbits
 2646              	.Ldebug_loc0:
 2647              	.LLST0:
 2648 0000 00000000 		.4byte	.LVL0
 2649 0004 02000000 		.4byte	.LVL1
 2650 0008 0100     		.2byte	0x1
 2651 000a 50       		.byte	0x50
 2652 000b 02000000 		.4byte	.LVL1
 2653 000f 04000000 		.4byte	.LFE98
 2654 0013 0400     		.2byte	0x4
 2655 0015 F3       		.byte	0xf3
 2656 0016 01       		.uleb128 0x1
 2657 0017 50       		.byte	0x50
 2658 0018 9F       		.byte	0x9f
 2659 0019 00000000 		.4byte	0
 2660 001d 00000000 		.4byte	0
 2661              	.LLST1:
 2662 0021 24000000 		.4byte	.LVL8
 2663 0025 26000000 		.4byte	.LVL9
 2664 0029 0200     		.2byte	0x2
 2665 002b 30       		.byte	0x30
 2666 002c 9F       		.byte	0x9f
 2667 002d 26000000 		.4byte	.LVL9
 2668 0031 40000000 		.4byte	.LVL12
 2669 0035 0500     		.2byte	0x5
 2670 0037 34       		.byte	0x34
 2671 0038 74       		.byte	0x74
 2672 0039 00       		.sleb128 0
 2673 003a 1C       		.byte	0x1c
 2674 003b 9F       		.byte	0x9f
 2675 003c 40000000 		.4byte	.LVL12
 2676 0040 42000000 		.4byte	.LVL13
 2677 0044 0500     		.2byte	0x5
 2678 0046 35       		.byte	0x35
 2679 0047 74       		.byte	0x74
 2680 0048 00       		.sleb128 0
 2681 0049 1C       		.byte	0x1c
 2682 004a 9F       		.byte	0x9f
 2683 004b 42000000 		.4byte	.LVL13
 2684 004f 6C000000 		.4byte	.LVL16
 2685 0053 0500     		.2byte	0x5
 2686 0055 34       		.byte	0x34
 2687 0056 74       		.byte	0x74
ARM GAS  /tmp/ccbGIoKp.s 			page 78


 2688 0057 00       		.sleb128 0
 2689 0058 1C       		.byte	0x1c
 2690 0059 9F       		.byte	0x9f
 2691 005a 00000000 		.4byte	0
 2692 005e 00000000 		.4byte	0
 2693              	.LLST2:
 2694 0062 6E000000 		.4byte	.LVL17
 2695 0066 74000000 		.4byte	.LVL18
 2696 006a 0200     		.2byte	0x2
 2697 006c 30       		.byte	0x30
 2698 006d 9F       		.byte	0x9f
 2699 006e 86000000 		.4byte	.LVL20
 2700 0072 88000000 		.4byte	.LVL21
 2701 0076 0200     		.2byte	0x2
 2702 0078 30       		.byte	0x30
 2703 0079 9F       		.byte	0x9f
 2704 007a 88000000 		.4byte	.LVL21
 2705 007e A2000000 		.4byte	.LVL24
 2706 0082 0500     		.2byte	0x5
 2707 0084 34       		.byte	0x34
 2708 0085 74       		.byte	0x74
 2709 0086 00       		.sleb128 0
 2710 0087 1C       		.byte	0x1c
 2711 0088 9F       		.byte	0x9f
 2712 0089 A2000000 		.4byte	.LVL24
 2713 008d A4000000 		.4byte	.LVL25
 2714 0091 0500     		.2byte	0x5
 2715 0093 35       		.byte	0x35
 2716 0094 74       		.byte	0x74
 2717 0095 00       		.sleb128 0
 2718 0096 1C       		.byte	0x1c
 2719 0097 9F       		.byte	0x9f
 2720 0098 A4000000 		.4byte	.LVL25
 2721 009c C2000000 		.4byte	.LVL27
 2722 00a0 0500     		.2byte	0x5
 2723 00a2 34       		.byte	0x34
 2724 00a3 74       		.byte	0x74
 2725 00a4 00       		.sleb128 0
 2726 00a5 1C       		.byte	0x1c
 2727 00a6 9F       		.byte	0x9f
 2728 00a7 00000000 		.4byte	0
 2729 00ab 00000000 		.4byte	0
 2730              	.LLST3:
 2731 00af 24000000 		.4byte	.LVL29
 2732 00b3 26000000 		.4byte	.LVL30
 2733 00b7 0200     		.2byte	0x2
 2734 00b9 30       		.byte	0x30
 2735 00ba 9F       		.byte	0x9f
 2736 00bb 26000000 		.4byte	.LVL30
 2737 00bf 3C000000 		.4byte	.LVL33
 2738 00c3 0500     		.2byte	0x5
 2739 00c5 34       		.byte	0x34
 2740 00c6 75       		.byte	0x75
 2741 00c7 00       		.sleb128 0
 2742 00c8 1C       		.byte	0x1c
 2743 00c9 9F       		.byte	0x9f
 2744 00ca 3C000000 		.4byte	.LVL33
ARM GAS  /tmp/ccbGIoKp.s 			page 79


 2745 00ce 3E000000 		.4byte	.LVL34
 2746 00d2 0500     		.2byte	0x5
 2747 00d4 35       		.byte	0x35
 2748 00d5 75       		.byte	0x75
 2749 00d6 00       		.sleb128 0
 2750 00d7 1C       		.byte	0x1c
 2751 00d8 9F       		.byte	0x9f
 2752 00d9 3E000000 		.4byte	.LVL34
 2753 00dd 64000000 		.4byte	.LVL37
 2754 00e1 0500     		.2byte	0x5
 2755 00e3 34       		.byte	0x34
 2756 00e4 75       		.byte	0x75
 2757 00e5 00       		.sleb128 0
 2758 00e6 1C       		.byte	0x1c
 2759 00e7 9F       		.byte	0x9f
 2760 00e8 00000000 		.4byte	0
 2761 00ec 00000000 		.4byte	0
 2762              	.LLST4:
 2763 00f0 66000000 		.4byte	.LVL38
 2764 00f4 6C000000 		.4byte	.LVL39
 2765 00f8 0200     		.2byte	0x2
 2766 00fa 30       		.byte	0x30
 2767 00fb 9F       		.byte	0x9f
 2768 00fc 7E000000 		.4byte	.LVL41
 2769 0100 80000000 		.4byte	.LVL42
 2770 0104 0200     		.2byte	0x2
 2771 0106 30       		.byte	0x30
 2772 0107 9F       		.byte	0x9f
 2773 0108 80000000 		.4byte	.LVL42
 2774 010c 96000000 		.4byte	.LVL45
 2775 0110 0500     		.2byte	0x5
 2776 0112 34       		.byte	0x34
 2777 0113 75       		.byte	0x75
 2778 0114 00       		.sleb128 0
 2779 0115 1C       		.byte	0x1c
 2780 0116 9F       		.byte	0x9f
 2781 0117 96000000 		.4byte	.LVL45
 2782 011b 98000000 		.4byte	.LVL46
 2783 011f 0500     		.2byte	0x5
 2784 0121 35       		.byte	0x35
 2785 0122 75       		.byte	0x75
 2786 0123 00       		.sleb128 0
 2787 0124 1C       		.byte	0x1c
 2788 0125 9F       		.byte	0x9f
 2789 0126 98000000 		.4byte	.LVL46
 2790 012a B6000000 		.4byte	.LVL49
 2791 012e 0500     		.2byte	0x5
 2792 0130 34       		.byte	0x34
 2793 0131 75       		.byte	0x75
 2794 0132 00       		.sleb128 0
 2795 0133 1C       		.byte	0x1c
 2796 0134 9F       		.byte	0x9f
 2797 0135 BE000000 		.4byte	.LVL50
 2798 0139 FC000000 		.4byte	.LFE100
 2799 013d 0500     		.2byte	0x5
 2800 013f 34       		.byte	0x34
 2801 0140 75       		.byte	0x75
ARM GAS  /tmp/ccbGIoKp.s 			page 80


 2802 0141 00       		.sleb128 0
 2803 0142 1C       		.byte	0x1c
 2804 0143 9F       		.byte	0x9f
 2805 0144 00000000 		.4byte	0
 2806 0148 00000000 		.4byte	0
 2807              		.section	.debug_aranges,"",%progbits
 2808 0000 4C000000 		.4byte	0x4c
 2809 0004 0200     		.2byte	0x2
 2810 0006 00000000 		.4byte	.Ldebug_info0
 2811 000a 04       		.byte	0x4
 2812 000b 00       		.byte	0
 2813 000c 0000     		.2byte	0
 2814 000e 0000     		.2byte	0
 2815 0010 00000000 		.4byte	.LFB98
 2816 0014 04000000 		.4byte	.LFE98-.LFB98
 2817 0018 00000000 		.4byte	.LFB104
 2818 001c 2C000000 		.4byte	.LFE104-.LFB104
 2819 0020 00000000 		.4byte	.LFB103
 2820 0024 10000000 		.4byte	.LFE103-.LFB103
 2821 0028 00000000 		.4byte	.LFB101
 2822 002c 10000000 		.4byte	.LFE101-.LFB101
 2823 0030 00000000 		.4byte	.LFB99
 2824 0034 14000000 		.4byte	.LFE99-.LFB99
 2825 0038 00000000 		.4byte	.LFB102
 2826 003c E0000000 		.4byte	.LFE102-.LFB102
 2827 0040 00000000 		.4byte	.LFB100
 2828 0044 FC000000 		.4byte	.LFE100-.LFB100
 2829 0048 00000000 		.4byte	0
 2830 004c 00000000 		.4byte	0
 2831              		.section	.debug_ranges,"",%progbits
 2832              	.Ldebug_ranges0:
 2833 0000 60000000 		.4byte	.LBB9
 2834 0004 B6000000 		.4byte	.LBE9
 2835 0008 BE000000 		.4byte	.LBB10
 2836 000c FC000000 		.4byte	.LBE10
 2837 0010 00000000 		.4byte	0
 2838 0014 00000000 		.4byte	0
 2839 0018 00000000 		.4byte	.LFB98
 2840 001c 04000000 		.4byte	.LFE98
 2841 0020 00000000 		.4byte	.LFB104
 2842 0024 2C000000 		.4byte	.LFE104
 2843 0028 00000000 		.4byte	.LFB103
 2844 002c 10000000 		.4byte	.LFE103
 2845 0030 00000000 		.4byte	.LFB101
 2846 0034 10000000 		.4byte	.LFE101
 2847 0038 00000000 		.4byte	.LFB99
 2848 003c 14000000 		.4byte	.LFE99
 2849 0040 00000000 		.4byte	.LFB102
 2850 0044 E0000000 		.4byte	.LFE102
 2851 0048 00000000 		.4byte	.LFB100
 2852 004c FC000000 		.4byte	.LFE100
 2853 0050 00000000 		.4byte	0
 2854 0054 00000000 		.4byte	0
 2855              		.section	.debug_line,"",%progbits
 2856              	.Ldebug_line0:
 2857 0000 39020000 		.section	.debug_str,"MS",%progbits,1
 2857      02008701 
ARM GAS  /tmp/ccbGIoKp.s 			page 81


 2857      00000201 
 2857      FB0E0D00 
 2857      01010101 
 2858              	.LASF40:
 2859 0000 74657374 		.ascii	"test_005_002_setup\000"
 2859      5F303035 
 2859      5F303032 
 2859      5F736574 
 2859      757000
 2860              	.LASF57:
 2861 0013 474E5520 		.ascii	"GNU C 4.8.2 -mcpu=cortex-m0 -mno-thumb-interwork -m"
 2861      4320342E 
 2861      382E3220 
 2861      2D6D6370 
 2861      753D636F 
 2862 0046 7468756D 		.ascii	"thumb -ggdb -O2 -fomit-frame-pointer -falign-functi"
 2862      62202D67 
 2862      67646220 
 2862      2D4F3220 
 2862      2D666F6D 
 2863 0079 6F6E733D 		.ascii	"ons=16 -ffunction-sections -fdata-sections -fno-com"
 2863      3136202D 
 2863      6666756E 
 2863      6374696F 
 2863      6E2D7365 
 2864 00ac 6D6F6E20 		.ascii	"mon -flto\000"
 2864      2D666C74 
 2864      6F00
 2865              	.LASF48:
 2866 00b6 74657374 		.ascii	"test_sequence_005\000"
 2866      5F736571 
 2866      75656E63 
 2866      655F3030 
 2866      3500
 2867              	.LASF3:
 2868 00c8 73686F72 		.ascii	"short int\000"
 2868      7420696E 
 2868      7400
 2869              	.LASF5:
 2870 00d2 73697A65 		.ascii	"size_t\000"
 2870      5F7400
 2871              	.LASF50:
 2872 00d9 5F746573 		.ascii	"_test_assert\000"
 2872      745F6173 
 2872      73657274 
 2872      00
 2873              	.LASF16:
 2874 00e6 73697A65 		.ascii	"sizetype\000"
 2874      74797065 
 2874      00
 2875              	.LASF61:
 2876 00ef 6368506F 		.ascii	"chPoolLoadArray\000"
 2876      6F6C4C6F 
 2876      61644172 
 2876      72617900 
 2877              	.LASF10:
 2878 00ff 6C6F6E67 		.ascii	"long long int\000"
ARM GAS  /tmp/ccbGIoKp.s 			page 82


 2878      206C6F6E 
 2878      6720696E 
 2878      7400
 2879              	.LASF8:
 2880 010d 5F5F7569 		.ascii	"__uint32_t\000"
 2880      6E743332 
 2880      5F7400
 2881              	.LASF56:
 2882 0118 6368506F 		.ascii	"chPoolAlloc\000"
 2882      6F6C416C 
 2882      6C6F6300 
 2883              	.LASF33:
 2884 0124 74657374 		.ascii	"testcase_t\000"
 2884      63617365 
 2884      5F7400
 2885              	.LASF34:
 2886 012f 74657374 		.ascii	"test_005_002_execute\000"
 2886      5F303035 
 2886      5F303032 
 2886      5F657865 
 2886      63757465 
 2887              	.LASF35:
 2888 0144 74657374 		.ascii	"test_005_001_execute\000"
 2888      5F303035 
 2888      5F303031 
 2888      5F657865 
 2888      63757465 
 2889              	.LASF58:
 2890 0159 2E2E2F2E 		.ascii	"../../../test/nil/source/test/test_sequence_005.c\000"
 2890      2E2F2E2E 
 2890      2F746573 
 2890      742F6E69 
 2890      6C2F736F 
 2891              	.LASF38:
 2892 018b 74657374 		.ascii	"test_005_003_execute\000"
 2892      5F303035 
 2892      5F303033 
 2892      5F657865 
 2892      63757465 
 2893              	.LASF1:
 2894 01a0 7369676E 		.ascii	"signed char\000"
 2894      65642063 
 2894      68617200 
 2895              	.LASF31:
 2896 01ac 74656172 		.ascii	"teardown\000"
 2896      646F776E 
 2896      00
 2897              	.LASF30:
 2898 01b5 73657475 		.ascii	"setup\000"
 2898      7000
 2899              	.LASF20:
 2900 01bb 6E696C5F 		.ascii	"nil_semaphore\000"
 2900      73656D61 
 2900      70686F72 
 2900      6500
 2901              	.LASF53:
 2902 01c9 63684775 		.ascii	"chGuardedPoolFree\000"
ARM GAS  /tmp/ccbGIoKp.s 			page 83


 2902      61726465 
 2902      64506F6F 
 2902      6C467265 
 2902      6500
 2903              	.LASF51:
 2904 01db 63684775 		.ascii	"chGuardedPoolObjectInit\000"
 2904      61726465 
 2904      64506F6F 
 2904      6C4F626A 
 2904      65637449 
 2905              	.LASF60:
 2906 01f3 6E756C6C 		.ascii	"null_provider\000"
 2906      5F70726F 
 2906      76696465 
 2906      7200
 2907              	.LASF7:
 2908 0201 6C6F6E67 		.ascii	"long int\000"
 2908      20696E74 
 2908      00
 2909              	.LASF55:
 2910 020a 6368506F 		.ascii	"chPoolFree\000"
 2910      6F6C4672 
 2910      656500
 2911              	.LASF29:
 2912 0215 6E616D65 		.ascii	"name\000"
 2912      00
 2913              	.LASF2:
 2914 021a 756E7369 		.ascii	"unsigned char\000"
 2914      676E6564 
 2914      20636861 
 2914      7200
 2915              	.LASF49:
 2916 0228 63684775 		.ascii	"chGuardedPoolAllocTimeout\000"
 2916      61726465 
 2916      64506F6F 
 2916      6C416C6C 
 2916      6F635469 
 2917              	.LASF17:
 2918 0242 73656D61 		.ascii	"semaphore_t\000"
 2918      70686F72 
 2918      655F7400 
 2919              	.LASF52:
 2920 024e 6368506F 		.ascii	"chPoolObjectInit\000"
 2920      6F6C4F62 
 2920      6A656374 
 2920      496E6974 
 2920      00
 2921              	.LASF11:
 2922 025f 6C6F6E67 		.ascii	"long long unsigned int\000"
 2922      206C6F6E 
 2922      6720756E 
 2922      7369676E 
 2922      65642069 
 2923              	.LASF13:
 2924 0276 75696E74 		.ascii	"uint32_t\000"
 2924      33325F74 
 2924      00
ARM GAS  /tmp/ccbGIoKp.s 			page 84


 2925              	.LASF39:
 2926 027f 74657374 		.ascii	"test_005_003_setup\000"
 2926      5F303035 
 2926      5F303033 
 2926      5F736574 
 2926      757000
 2927              	.LASF24:
 2928 0292 70726F76 		.ascii	"provider\000"
 2928      69646572 
 2928      00
 2929              	.LASF59:
 2930 029b 2F686F6D 		.ascii	"/home/awygle/ChibiOS-RT/demos/STM32/NIL-STM32F051-D"
 2930      652F6177 
 2930      79676C65 
 2930      2F436869 
 2930      62694F53 
 2931 02ce 4953434F 		.ascii	"ISCOVERY\000"
 2931      56455259 
 2931      00
 2932              	.LASF19:
 2933 02d7 6D656D67 		.ascii	"memgetfunc_t\000"
 2933      65746675 
 2933      6E635F74 
 2933      00
 2934              	.LASF4:
 2935 02e4 73686F72 		.ascii	"short unsigned int\000"
 2935      7420756E 
 2935      7369676E 
 2935      65642069 
 2935      6E7400
 2936              	.LASF15:
 2937 02f7 73797374 		.ascii	"systime_t\000"
 2937      696D655F 
 2937      7400
 2938              	.LASF18:
 2939 0301 63686172 		.ascii	"char\000"
 2939      00
 2940              	.LASF12:
 2941 0306 696E7433 		.ascii	"int32_t\000"
 2941      325F7400 
 2942              	.LASF23:
 2943 030e 6F626A65 		.ascii	"object_size\000"
 2943      63745F73 
 2943      697A6500 
 2944              	.LASF14:
 2945 031a 636E745F 		.ascii	"cnt_t\000"
 2945      7400
 2946              	.LASF28:
 2947 0320 5F426F6F 		.ascii	"_Bool\000"
 2947      6C00
 2948              	.LASF47:
 2949 0326 74657374 		.ascii	"test_step\000"
 2949      5F737465 
 2949      7000
 2950              	.LASF25:
 2951 0330 6D656D6F 		.ascii	"memory_pool_t\000"
 2951      72795F70 
ARM GAS  /tmp/ccbGIoKp.s 			page 85


 2951      6F6F6C5F 
 2951      7400
 2952              	.LASF41:
 2953 033e 74657374 		.ascii	"test_005_001_setup\000"
 2953      5F303035 
 2953      5F303031 
 2953      5F736574 
 2953      757000
 2954              	.LASF27:
 2955 0351 67756172 		.ascii	"guarded_memory_pool_t\000"
 2955      6465645F 
 2955      6D656D6F 
 2955      72795F70 
 2955      6F6F6C5F 
 2956              	.LASF21:
 2957 0367 706F6F6C 		.ascii	"pool_header\000"
 2957      5F686561 
 2957      64657200 
 2958              	.LASF9:
 2959 0373 6C6F6E67 		.ascii	"long unsigned int\000"
 2959      20756E73 
 2959      69676E65 
 2959      6420696E 
 2959      7400
 2960              	.LASF36:
 2961 0385 73697A65 		.ascii	"size\000"
 2961      00
 2962              	.LASF54:
 2963 038a 63684775 		.ascii	"chGuardedPoolLoadArray\000"
 2963      61726465 
 2963      64506F6F 
 2963      6C4C6F61 
 2963      64417272 
 2964              	.LASF6:
 2965 03a1 5F5F696E 		.ascii	"__int32_t\000"
 2965      7433325F 
 2965      7400
 2966              	.LASF37:
 2967 03ab 616C6967 		.ascii	"align\000"
 2967      6E00
 2968              	.LASF43:
 2969 03b1 676D7031 		.ascii	"gmp1\000"
 2969      00
 2970              	.LASF44:
 2971 03b6 74657374 		.ascii	"test_005_001\000"
 2971      5F303035 
 2971      5F303031 
 2971      00
 2972              	.LASF45:
 2973 03c3 74657374 		.ascii	"test_005_002\000"
 2973      5F303035 
 2973      5F303032 
 2973      00
 2974              	.LASF46:
 2975 03d0 74657374 		.ascii	"test_005_003\000"
 2975      5F303035 
 2975      5F303033 
ARM GAS  /tmp/ccbGIoKp.s 			page 86


 2975      00
 2976              	.LASF42:
 2977 03dd 6F626A65 		.ascii	"objects\000"
 2977      63747300 
 2978              	.LASF32:
 2979 03e5 65786563 		.ascii	"execute\000"
 2979      75746500 
 2980              	.LASF26:
 2981 03ed 706F6F6C 		.ascii	"pool\000"
 2981      00
 2982              	.LASF0:
 2983 03f2 756E7369 		.ascii	"unsigned int\000"
 2983      676E6564 
 2983      20696E74 
 2983      00
 2984              	.LASF22:
 2985 03ff 6E657874 		.ascii	"next\000"
 2985      00
 2986              		.comm	__gnu_lto_v1,1,1
 2987              		.ident	"GCC: (4.8.2-14ubuntu1+6) 4.8.2"
ARM GAS  /tmp/ccbGIoKp.s 			page 87


DEFINED SYMBOLS
                            *ABS*:0000000000000000 test_sequence_005.c
     /tmp/ccbGIoKp.s:502    .text.null_provider:0000000000000000 $t
     /tmp/ccbGIoKp.s:507    .text.null_provider:0000000000000000 null_provider
     /tmp/ccbGIoKp.s:522    .text.test_005_003_execute:0000000000000000 $t
     /tmp/ccbGIoKp.s:527    .text.test_005_003_execute:0000000000000000 test_005_003_execute
     /tmp/ccbGIoKp.s:558    .text.test_005_003_execute:0000000000000020 $d
     /tmp/ccbGIoKp.s:565    .text.test_005_003_setup:0000000000000000 $t
     /tmp/ccbGIoKp.s:570    .text.test_005_003_setup:0000000000000000 test_005_003_setup
     /tmp/ccbGIoKp.s:589    .text.test_005_003_setup:000000000000000c $d
     /tmp/ccbGIoKp.s:594    .text.test_005_002_setup:0000000000000000 $t
     /tmp/ccbGIoKp.s:599    .text.test_005_002_setup:0000000000000000 test_005_002_setup
     /tmp/ccbGIoKp.s:618    .text.test_005_002_setup:000000000000000c $d
     /tmp/ccbGIoKp.s:623    .text.test_005_001_setup:0000000000000000 $t
     /tmp/ccbGIoKp.s:628    .text.test_005_001_setup:0000000000000000 test_005_001_setup
     /tmp/ccbGIoKp.s:648    .text.test_005_001_setup:0000000000000010 $d
     /tmp/ccbGIoKp.s:653    .text.test_005_002_execute:0000000000000000 $t
     /tmp/ccbGIoKp.s:658    .text.test_005_002_execute:0000000000000000 test_005_002_execute
     /tmp/ccbGIoKp.s:818    .text.test_005_002_execute:00000000000000cc $d
     /tmp/ccbGIoKp.s:827    .text.test_005_001_execute:0000000000000000 $t
     /tmp/ccbGIoKp.s:832    .text.test_005_001_execute:0000000000000000 test_005_001_execute
     /tmp/ccbGIoKp.s:1011   .text.test_005_001_execute:00000000000000e0 $d
     /tmp/ccbGIoKp.s:1038   .rodata.test_sequence_005:0000000000000000 test_sequence_005
     /tmp/ccbGIoKp.s:1025   .data.gmp1:0000000000000000 $d
     /tmp/ccbGIoKp.s:1029   .data.gmp1:0000000000000000 gmp1
     /tmp/ccbGIoKp.s:1035   .rodata.test_sequence_005:0000000000000000 $d
     /tmp/ccbGIoKp.s:1083   .rodata.test_005_001:0000000000000000 test_005_001
     /tmp/ccbGIoKp.s:1092   .rodata.test_005_002:0000000000000000 test_005_002
     /tmp/ccbGIoKp.s:1054   .rodata.test_005_003:0000000000000000 test_005_003
     /tmp/ccbGIoKp.s:1044   .bss.objects:0000000000000000 $d
     /tmp/ccbGIoKp.s:1048   .bss.objects:0000000000000000 objects
     /tmp/ccbGIoKp.s:1051   .rodata.test_005_003:0000000000000000 $d
     /tmp/ccbGIoKp.s:1060   .rodata.str1.4:0000000000000000 $d
     /tmp/ccbGIoKp.s:1080   .rodata.test_005_001:0000000000000000 $d
     /tmp/ccbGIoKp.s:1089   .rodata.test_005_002:0000000000000000 $d
     /tmp/ccbGIoKp.s:1098   .data.mp1:0000000000000000 $d
     /tmp/ccbGIoKp.s:1102   .data.mp1:0000000000000000 mp1
                            *COM*:0000000000000001 __gnu_lto_v1
                     .debug_frame:0000000000000010 $d
     /tmp/ccbGIoKp.s:564    .text.test_005_003_execute:000000000000002c $t
     /tmp/ccbGIoKp.s:652    .text.test_005_001_setup:0000000000000014 $t
     /tmp/ccbGIoKp.s:1024   .text.test_005_001_execute:00000000000000fc $t

UNDEFINED SYMBOLS
chGuardedPoolAllocTimeout
_test_assert
test_step
chGuardedPoolObjectInit
chPoolObjectInit
chGuardedPoolLoadArray
chGuardedPoolFree
chPoolLoadArray
chPoolAlloc
chPoolFree
