ARM GAS  /tmp/ccZrP8Fe.s 			page 1


   1              		.cpu cortex-m0
   2              		.fpu softvfp
   3              		.eabi_attribute 20, 1
   4              		.eabi_attribute 21, 1
   5              		.eabi_attribute 23, 3
   6              		.eabi_attribute 24, 1
   7              		.eabi_attribute 25, 1
   8              		.eabi_attribute 26, 1
   9              		.eabi_attribute 30, 2
  10              		.eabi_attribute 34, 0
  11              		.eabi_attribute 18, 4
  12              		.code	16
  13              		.file	"test_sequence_003.c"
  14              		.text
  15              	.Ltext0:
  16              		.section	.gnu.lto_.jmpfuncs.55a5542d0aa8932d,"",%progbits
  17 0000 789C6362 		.ascii	"x\234cb`b\300\006n120\204\000iV\006\240\002&\246\010"
  17      6062C006 
  17      6E313230 
  17      84006956 
  17      06A00226 
  18 0016 C64C4686 		.ascii	"\306LF\206\377@\300\017\344\2039/\330A2\014L\325\014"
  18      FF40C00F 
  18      E483392F 
  18      D841320C 
  18      4CD50C
  19 0029 BF1A6634 		.ascii	"\277\032f4\010d22\31210\316m\230\341\220\311\0101\021"
  19      08643232 
  19      CA3130CE 
  19      6D98E190 
  19      C9083111 
  20 003d 4592598E 		.ascii	"E\222Y\216\201\007\"\311\002\221\004\033\302\312\200"
  20      810722C9 
  20      0291041B 
  20      C2CA80
  21 004c 6C1A3358 		.ascii	"l\0323X\002\256\205M\216A\036\242\205\235\260y\254\204"
  21      02AE854D 
  21      8E411EA2 
  21      859DB079 
  21      AC84
  22 005e ECC3EB52 		.ascii	"\354\303\353R<\336\003;3\224\201\201\015\250\012d@\007"
  22      3CDE033B 
  22      33948181 
  22      0DA80A64 
  22      4007
  23 0070 C8008E5C 		.ascii	"\310\000\216\\F\210F\262\334\316)\307`\014\221\344\302"
  23      468846B2 
  23      DCCE29C7 
  23      600C91E4 
  23      C2
  24 0081 94E49663 		.ascii	"\224\344\226c\260\205H\362\200%\321C\031]\036\277\311"
  24      B08548F2 
  24      8025D143 
  24      195D1EBF 
  24      C9
  25 0092 284E6644 		.ascii	"(NfD8\031\004\270J2sSS\024\362KK\030\204\312\213\362"
  25      381904B8 
ARM GAS  /tmp/ccZrP8Fe.s 			page 2


  25      4A327353 
  25      5314F24B 
  25      4B1884CA 
  26 00a8 F3D21552 		.ascii	"\363\322\025R\313R\363J\212\025r\023\213\263\031\204"
  26      CB52F34A 
  26      8A157213 
  26      8BB31984 
  27 00b8 81E20AF9 		.ascii	"\201\342\012\371i\012 E\012\345\231y)\371\345\014\234"
  27      690A2045 
  27      0AE59979 
  27      29F9E50C 
  27      9C
  28 00c9 79F9250A 		.ascii	"y\371%\012~\241>>\014\342\020\015E\251%\245Ey@CrS\213"
  28      7EA13E3E 
  28      0CE2100D 
  28      45A925A5 
  28      45794043 
  29 00e0 8B13D353 		.ascii	"\213\023\323S\031\000(\242}@"
  29      190028A2 
  29      7D40
  30              		.text
  31              		.section	.gnu.lto_.inline.55a5542d0aa8932d,"",%progbits
  32 0000 789C6362 		.ascii	"x\234cb`b\300\006\276@iV\006\006\026fF\006&\246\013"
  32      6062C006 
  32      BE406956 
  32      06061666 
  32      460626A6 
  33 0015 FC0C6C0B 		.ascii	"\374\014l\013\344\301\212\231\030t\364\201BJ7\372\030"
  33      E4C18A99 
  33      1874F481 
  33      424A37FA 
  33      18
  34 0026 E1622CBC 		.ascii	"\341b,\274 q\0105\301\017\225\006\232\302\307\300\300"
  34      20710835 
  34      C10F9506 
  34      9AC2C7C0 
  34      C0
  35 0037 3CC10F28 		.ascii	"<\301\017(\300\314\003\221`e\2201\003\232!\364/\037"
  35      C0CC0391 
  35      60659031 
  35      039A21F4 
  35      2F1F
  36 0049 6E042317 		.ascii	"n\004#\027\003N\003`\332\330\030\024\364\200\332\244"
  36      034E0360 
  36      DAD81814 
  36      F480DAA4 
  37 0059 AE4DC7B0 		.ascii	"\256M\307\260\032a\007L/L\023;\203\2246P\223\310\271"
  37      1A61074C 
  37      2F4C133B 
  37      83943650 
  37      93C8B9
  38 006c 7AA2EC62 		.ascii	"z\242\354b\000\000A\204\032\232"
  38      00004184 
  38      1A9A
  39              		.text
  40              		.section	.gnu.lto_.pureconst.55a5542d0aa8932d,"",%progbits
  41 0000 789C6362 		.ascii	"x\234cb`b\340f\200\000V\006\011&)V)6+v+\000\004\303"
ARM GAS  /tmp/ccZrP8Fe.s 			page 3


  41      6062E066 
  41      80005606 
  41      09262956 
  41      29362B76 
  42 0018 00E9     		.ascii	"\000\351"
  43              		.text
  44              		.section	.gnu.lto_test_003_001_setup.55a5542d0aa8932d,"",%progbits
  45 0000 789C6362 		.ascii	"x\234cb`b@\007\222@<\001\210M\200\230\221\231\201\221"
  45      60624007 
  45      92403C01 
  45      884D8098 
  45      91998191 
  46 0014 69C23906 		.ascii	"i\3029\006\206F\016&FF\020\203\201\221\241\236\211\261"
  46      86460E26 
  46      46461083 
  46      8191A19E 
  46      89B1
  47 0026 3E9211AC 		.ascii	">\222\021\254v=\323\201\007\377\377\257\233\322\266"
  47      763DD381 
  47      07FFFFAF 
  47      9BD2B6
  48 0035 FC0CE30C 		.ascii	"\374\014\343\014&f\240\010+CKC\303\004\005\006\206d"
  48      2666A008 
  48      2B434B43 
  48      C3040506 
  48      8664
  49 0047 B08A1020 		.ascii	"\260\212\020 \011\322\026\312\310\004\242\231\31724"
  49      09D216CA 
  49      C804A299 
  49      CF3234
  50 0056 EDF8F1C8 		.ascii	"\355\370\361\310\"\221q!#+\303l\206Y\215\015\015\002"
  50      22917121 
  50      232BC36C 
  50      86598D0D 
  50      0D02
  51 0068 998C0CD5 		.ascii	"\231\214\014\325\014\277\032:@,\306\\\260\266\010F "
  51      0CBF1A3A 
  51      402CC65C 
  51      B0B60846 
  51      20
  52 0079 9301C602 		.ascii	"\223\001\306\0023.24>\350Q\206h\204\201\020\240\"\240"
  52      332E3234 
  52      3EE85186 
  52      68848110 
  52      A022A0
  53 008c A9203F18 		.ascii	"\251 ?\030\351\351\351CPIjq\211~^f\216~q~iQr*\204\017"
  53      E9E9E943 
  53      50496A71 
  53      897E5E66 
  53      8E7E717E 
  54 00a6 22E28B53 		.ascii	"\"\342\213S\013KS\363\222S\343\015\014\214\365\222\031"
  54      0B4B53F3 
  54      9253E30D 
  54      0C8CF592 
  54      19
  55 00b7 00E16537 		.ascii	"\000\341e7\374"
  55      FC
ARM GAS  /tmp/ccZrP8Fe.s 			page 4


  56              		.text
  57              		.section	.gnu.lto_test_003_002_execute.part.0.55a5542d0aa8932d,"",%progbits
  58 0000 789CB555 		.ascii	"x\234\265UMHTQ\024>\347\375\316\217\223\226e\332b\030"
  58      4D485451 
  58      143EE7FD 
  58      CE8F9396 
  58      65DA6218 
  59 0014 DA55E033 		.ascii	"\332U\3403\245]\213\2426\201nj\244\242\205L\317\227"
  59      A55D8BA2 
  59      36816E6A 
  59      A4A2854C 
  59      CF97
  60 0026 3E72E6D5 		.ascii	">r\346\325\314\230A\201WGA\010R$\302\212\240\242\177"
  60      CC984181 
  60      57474108 
  60      5224C28A 
  60      A0A27F
  61 0039 042509C2 		.ascii	"\004%\011\302MR\020\375`?\233\010[$\256\012\202\266"
  61      4D5210FD 
  61      603F9B08 
  61      5B24AE0A 
  61      82B6
  62 004b 15D174CF 		.ascii	"\025\321t\317}?c6a\005]f\356\275\347\336\363\235\363"
  62      7D3F6336 
  62      61055D66 
  62      EEBDE7DE 
  62      F39DF3
  63 005e 9D7BBE51 		.ascii	"\235{\276Q\011$X:\366\361\357I\015\3405_1\004\250\217"
  63      0924583A 
  63      F6F1EF49 
  63      0DE0355F 
  63      3104A88F 
  64 0072 3CE71B1D 		.ascii	"<\347\033\035%\261J\222\366\332\000\026\221\247\343"
  64      25B14A92 
  64      F6DA0016 
  64      91A7E3
  65 0081 C02A64CF 		.ascii	"\300*d\317R\204\245x\226*,\0255B\364\2054D\332\000B"
  65      5284A578 
  65      962A2C15 
  65      3542F485 
  65      3444DA00 
  66 0096 AF2EC98A 		.ascii	"\257.\311\212\252a\357~\244L\352z\270\314\330\371\371"
  66      AA61EF7E 
  66      A44CEA7A 
  66      B8CCD8F9 
  66      F9
  67 00a7 C1EB1FF0 		.ascii	"\301\353\037\360\334\231\231\201K\354[\261\210h\323"
  67      DC999981 
  67      4BEC5BB1 
  67      8868D3
  68 00b6 A589B08F 		.ascii	"\245\211\260\217\3570!\026I\371\231\243\013dwn\262\260"
  68      EF302116 
  68      49F999A3 
  68      0B64776E 
  68      B2B0
  69 00c8 00C9FF13 		.ascii	"\000\311\377\0233:s\367\351p\035\273\324?\302\276s~"
  69      333A73F7 
ARM GAS  /tmp/ccZrP8Fe.s 			page 5


  69      E9701DBB 
  69      D43FC2BE 
  69      737E
  70 00da 36CA126C 		.ascii	"6\312\022l\301?CN==\275\030\311\237{\353r\310\011\211"
  70      C13F434E 
  70      3D3DBD18 
  70      C99F7BEB 
  70      72C80989 
  71 00ee CD178BE7 		.ascii	"\315\027\213\347\246\303u\010\002a\243\"C\012\257\342"
  71      A6C37508 
  71      0261A322 
  71      430AAFE2 
  72 00fe 7A50B8A1 		.ascii	"zP\270\241\2524i4\3514\205\310+\3549D\270\241Ei\252"
  72      AA346934 
  72      E93485C8 
  72      2BEC3944 
  72      B8A14569 
  73 0113 A0BB184D 		.ascii	"\240\273\030M\364\3220\300\330H\"\205\327\271\217\353"
  73      F4D230C0 
  73      D8482285 
  73      D7B98FEB 
  74 0123 294AE723 		.ascii	")J\347#\311gjO\022uZ\345V\224\304:\013\375\367\306&"
  74      C9676A4F 
  74      12755AE5 
  74      5694C43A 
  74      0BFDF7C6 
  75 0138 EA527893 		.ascii	"\352Rx\223G\270\000\347\373\030\253\262Q?\001_\331\020"
  75      47B800E7 
  75      FB18ABB2 
  75      513F015F 
  75      D910
  76 014a ED426901 		.ascii	"\355Bi\001\247\012B\340\357t\222\323,<\230\033_x\277"
  76      A70A42E0 
  76      EF7492D3 
  76      2C3C981B 
  76      5F78BF
  77 015d C14BEA67 		.ascii	"\301K\352g\237\271;\374V\016\214S\357\256p\303\215n"
  77      9FB93BFC 
  77      560E8C53 
  77      EFAE70C3 
  77      8D6E
  78 016f 22BD8950 		.ascii	"\"\275\211Pb\007\342&\270\315\006\372\346G\037=\227"
  78      6207E226 
  78      B8CD06FA 
  78      E6471F3D 
  78      97
  79 0180 6C0C53E6 		.ascii	"l\014S\346\021\312\027\241\370Q\306\207\"REE\322\203"
  79      11CA17A1 
  79      F851C687 
  79      22524545 
  79      D283
  80 0192 442285E3 		.ascii	"D\"\205\343\242Jx\002\375\223\013{\335\240n\255 \370"
  80      A24A7802 
  80      FD930B7B 
  80      DDA06EAD 
  80      20F8
  81 01a4 F4CF7D9E 		.ascii	"\364\317}\236\330\340\036w\240\264\0116\362'\015J\252"
ARM GAS  /tmp/ccZrP8Fe.s 			page 6


  81      D8E01E77 
  81      A0B40936 
  81      F2270D4A 
  81      AA
  82 01b5 084A8AA5 		.ascii	"\010J\212\245\021\275Bb^t\364\232B\2571Y\351\206 \202"
  82      11BD4262 
  82      5E74F49A 
  82      42AF3159 
  82      E9862082 
  83 01c9 7CECE742 		.ascii	"|\354\347B\010\202\254\340q\011\247x8)x\022\2316/`p"
  83      0882ACE0 
  83      7109A778 
  83      38297812 
  83      99362F60 
  84 01de FEF1A0EE 		.ascii	"\376\361\240\356S\220\203\224\225\246\353 \\\265\"\037"
  84      53908394 
  84      95A6EB20 
  84      5CB5221F 
  85 01ee 95EEF63D 		.ascii	"\225\356\366=\365\266\212J\222\374z\250k\035\344>\013"
  85      F5B68A4A 
  85      92FC7AA8 
  85      6B1DE43E 
  85      0B
  86 01ff 8537851B 		.ascii	"\2057\205\033gU?\234\302O\005\310M\025\234\253A\232"
  86      67553F9C 
  86      C24F05C8 
  86      4D159CAB 
  86      419A
  87 0211 95A6C78C 		.ascii	"\225\246\307\214;\323a\255\215\253\342p\015/\262\261"
  87      3BD361AD 
  87      8DABE270 
  87      0D2FB2B1 
  88 0221 6D36567B 		.ascii	"m6V{}\340\031W\003<\206\201\217\030\204\240\270\352"
  88      7DE01957 
  88      033C8681 
  88      8F1884A0 
  88      B8EA
  89 0233 6279B672 		.ascii	"by\266r\006\323q.\217\302\213\302\255\032\337O\363)"
  89      06D3712E 
  89      8FC28BC2 
  89      AD1ADF4F 
  89      F329
  90 0245 B4FE4C41 		.ascii	"\264\376LA/GA\363(\254\211\303\244G\241\346\367\024"
  90      2F4741F3 
  90      28AC89C3 
  90      A447A1E6 
  90      F714
  91 0257 F4321414 		.ascii	"\3642\024\024\370\024\025\012\375<\365\267\012\225\377"
  91      F814150A 
  91      FD3CF5B7 
  91      0A95FF
  92 0266 54A1CF3E 		.ascii	"T\241\317>\376F\241\241\177Q\350\375\222BG\017,U(\311"
  92      FE46A1A1 
  92      7F51E8FD 
  92      9242470F 
  92      2C5528C9 
  93 027a 63AE248F 		.ascii	"c\256$\217pyy\310\260\2144\302B\032C\205O%iD8]\037\344"
ARM GAS  /tmp/ccZrP8Fe.s 			page 7


  93      707979C8 
  93      B08C34C2 
  93      421A4385 
  93      4F256944 
  94 0292 DECAFE55 		.ascii	"\336\312\376U\324\277\372\240\013\012\232\177Q\372A"
  94      D4BFFAA0 
  94      0B0A9A7F 
  94      51FA41
  95 02a1 AC35BD87 		.ascii	"\2545\275\207\027\201\242^\333j\343\360\320k[]\251m"
  95      1781A25E 
  95      DB6AE3F0 
  95      D06B5B5D 
  95      A96D
  96 02b3 EB96B4AD 		.ascii	"\353\226\264\255\242L\333Tx\251\270\312\371\022('\306"
  96      A24CDB54 
  96      78A9B8CA 
  96      F9122827 
  96      C6
  97 02c4 79FF2A5E 		.ascii	"y\377*^\200r\302\211-'\0347\215&\376\200\275\342\377"
  97      8072C289 
  97      2D271C37 
  97      8D26FE80 
  97      BDE2FF
  98 02d7 7A4AC993 		.ascii	"zJ\311\223\274\203\374\224Z\330X_o\270\237\274\225\313"
  98      BC83FC94 
  98      5AD8585F 
  98      6FB89FBC 
  98      95CB
  99 02e9 1B19BBCB 		.ascii	"\033\031\273\313\3109\335Y\323rm\232\332r\326\321n+"
  99      C839DD59 
  99      D3726D9A 
  99      DA72D6D1 
  99      6E2B
 100 02fb 635A6D0D 		.ascii	"cZm\015\015M\365&h\3261+\223\317)y;m5\005p'gt\246\272"
 100      0D4DF526 
 100      68D6312B 
 100      93CF2979 
 100      3B6D3505 
 101 0315 8C234E36 		.ascii	"\214#N6\2373\366$[\232\032\215\346\346\235FrW\313\261"
 101      9F33F624 
 101      5B9A1A8D 
 101      E6E69D46 
 101      7257CBB1 
 102 0329 CD74D3C6 		.ascii	"\315t\323\306\003uu\265\327w\202\261\030c:\351\264\223"
 102      037575B5 
 102      D77782B1 
 102      18633AE9 
 102      B493
 103 033b F160DB77 		.ascii	"\361`\333w\267\354h9n\230\235\246\223\265\332(~\226"
 103      B7EC6839 
 103      6E989DA6 
 103      93B5DA28 
 103      7E96
 104 034d FB4768D3 		.ascii	"\373Gh\323\236p\272\363\260\252'\353d:\022.\201D:\225"
 104      9E70BAF3 
 104      B0AA27EB 
 104      643A122E 
ARM GAS  /tmp/ccZrP8Fe.s 			page 8


 104      81443A95 
 105 0361 3B0CD5FC 		.ascii	";\014\325\374<\341\034J\220S\242\307\316\264;=\360\003"
 105      3CE11C4A 
 105      9053A2C7 
 105      CEB43B3D 
 105      F003
 106 0373 1F0AC5F8 		.ascii	"\037\012\305\370"
 107              		.text
 108              		.section	.gnu.lto_test_003_002_execute.55a5542d0aa8932d,"",%progbits
 109 0000 789C8553 		.ascii	"x\234\205SMh\023Q\020\236\331\237$&\215\375\263\332"
 109      4D681351 
 109      109ED99F 
 109      24268DFD 
 109      B3DA
 110 0012 5E42F0A6 		.ascii	"^B\360\246\205lm\361\346\241\242\027\241\271h\002z\012"
 110      856C6DF1 
 110      E6A1A217 
 110      A1B96802 
 110      7A0A
 111 0024 71BBA48B 		.ascii	"q\273\244\213IV\263i\025<\3645IAP4\024\204\252\010m"
 111      4956B369 
 111      153CF435 
 111      49415034 
 111      1484AA08 
 112 0039 FD014BC1 		.ascii	"\375\001K\301\202\210\332S,(*\264E\244\"\365\022z\352"
 112      8288DA53 
 112      2C282AB4 
 112      45A422F5 
 112      127AEA
 113 004c 41F0AA22 		.ascii	"A\360\252\"\3067\373\247\321\212\217\335yo\336\316|"
 113      C637FBA7 
 113      D18A8FDD 
 113      796FDECE 
 113      7C
 114 005d DF37F3DE 		.ascii	"\3377\363\336\012 \300\237c\220\277\213\"\3002\237\321"
 114      0A20C09F 
 114      6390BF8B 
 114      22C0329F 
 114      D1
 115 006e 07285457 		.ascii	"\007(TW\001&\002\202 \277W\200\005\305\245\010\260\026"
 115      01260282 
 115      20BF5780 
 115      05C5A508 
 115      B016
 116 0080 D1F124CB 		.ascii	"\321\361$\313\223P\246 \224\021i\006\204qA\224d\034"
 116      9350A620 
 116      94116906 
 116      84714194 
 116      641C
 117 0092 3F858488 		.ascii	"?\205\204\210{a\226\261\251\372\213\373_\361\006\253"
 117      7B6196B1 
 117      A9FA8BFB 
 117      5FF106AB 
 118 00a2 5566D8F7 		.ascii	"Uf\330\367F\003QG\316~\020AE8\311\035\214Z\223 5\313"
 118      46035147 
 118      CE7E1041 
 118      4538C91D 
ARM GAS  /tmp/ccZrP8Fe.s 			page 9


 118      8C5A9320 
 119 00b8 7928D4EA 		.ascii	"y(\324\352\215\306\225w\365\315-\354\350\224@G\321\017"
 119      8DC69577 
 119      F5CD2DEC 
 119      E8944047 
 119      D10F
 120 00ca 699CE5A0 		.ascii	"i\234\345\240\001\356HA2!2a2\355\334\310<M\206\012c"
 120      01EE4841 
 120      32213261 
 120      32EDDCC8 
 120      3C4D860A 
 121 00df D5A8CD5C 		.ascii	"\325\250\315\\{\364\346j\017\233)U\331\017N\314\003"
 121      7BF4E66A 
 121      0F9B2955 
 121      D90F4ECC 
 121      03
 122 00f0 0438F43F 		.ascii	"\0048\364?^\233\002(\212\217\004\267TZ\022\005\232\305"
 122      5E9B0228 
 122      8A8F04B7 
 122      545A1205 
 122      9AC5
 123 0102 15283D9D 		.ascii	"\025(=\235\236\357I\343\035\316v\013nN0\326\246\243"
 123      9EEF49E3 
 123      1DCE760B 
 123      6E4E30D6 
 123      A6A3
 124 0114 EF227C63 		.ascii	"\357\"|c\227h\345\317Yi\004\354\007w\345\243\275\025"
 124      9768E5CF 
 124      596904EC 
 124      0777E5A3 
 124      BD15
 125 0126 58DE58D8 		.ascii	"X\336X\330\334\332\347\010t\225\326\036_\373(z\316\345"
 125      DCDAE708 
 125      7495D61E 
 125      5FFB287A 
 125      CEE5
 126 0138 F5399124 		.ascii	"\3659\221$\020\272\212$\325:\247\014\266\367\302<\253"
 126      10BA8A24 
 126      D53AA70C 
 126      B6F7C23C 
 126      AB
 127 0149 4CD4A75E 		.ascii	"L\324\247^\256\012:\006\210\271J|;\010?\310\370\220"
 127      AE0A3A06 
 127      88B94A7C 
 127      3B083FC8 
 127      F890
 128 015b 2CAAA045 		.ascii	",\252\240Ez\032\255B\036X\035\201\327PZ\234K\332\240"
 128      7A1AAD42 
 128      1E581D81 
 128      D7505A9C 
 128      4BDAA0
 129 016e 69BC6B55 		.ascii	"i\274kUGzJ\033_\346\237\013\366~\006\245^\330\317{\354"
 129      477A4A1B 
 129      5FE69F0B 
 129      F67E06A5 
 129      5ED8CF7B 
 130 0183 D514F26A 		.ascii	"\325\024\362jj\311!:\225\2648\360\3504k\015d;\037\300"
ARM GAS  /tmp/ccZrP8Fe.s 			page 10


 130      6AC9213A 
 130      95B438F0 
 130      E8346B0D 
 130      643B1FC0 
 131 0197 0B0FAB28 		.ascii	"\013\017\253(\202\255Z\242\034H\362\243\331I\261\223"
 131      82AD5AA2 
 131      1C48F2A3 
 131      D949B193 
 132 01a7 F58549BF 		.ascii	"\365\205I\277\313\347\367\022ZU\224\274^\2655\370h\265"
 132      CBE7F712 
 132      5A5594BC 
 132      5EB535F8 
 132      68B5
 133 01b9 975B7E9E 		.ascii	"\227[~\236\331N\005\010\256z:\233\014\265v\005\312\037"
 133      D94E0508 
 133      AE7A3A9B 
 133      0CB57605 
 133      CA1F
 134 01cb CA4FAECB 		.ascii	"\312O\256\313.\\\200\357ZIM\2622\030\364h:T\273\035"
 134      2E5C80EF 
 134      5A494DB2 
 134      3218F468 
 134      3A54BB1D 
 135 01df 144C9BDD 		.ascii	"\024L\233\335:vF\340\036\336f\323\203:\356r\272\316"
 135      3A7646E0 
 135      1EDE66D3 
 135      833AEE72 
 135      BACE
 136 01f1 19BB005E 		.ascii	"\031\273\000^A\345\023z\020\204\333tK\222\274\302\245"
 136      41E5137A 
 136      1084DB74 
 136      4B92BCC2 
 136      A5
 137 0202 08BF0CE5 		.ascii	"\010\277\014\345\265\362\263.7.\344JH6K\010o'!\344H"
 137      B5F2B32E 
 137      372EE44A 
 137      48364B08 
 137      6F2721E4 
 138 0217 D81D8145 		.ascii	"\330\035\201EG\302\236\177K\010o#A\202\317!q\015\312"
 138      47C29E7F 
 138      4B086F23 
 138      4182CF21 
 138      710DCA
 139 022a 81BF4EA0 		.ascii	"\201\277N\240[\345\377/\015\035{\334h\331\272\276o\371"
 139      5BE5FF2F 
 139      0D1D7BDC 
 139      68D9BABE 
 139      6FF9
 140 023c 0FFD0B23 		.ascii	"\017\375\013#\301\317\221\357\322\025\353\217\305\024"
 140      C1CF91EF 
 140      D215EB8F 
 140      C514
 141 024a FB296A66 		.ascii	"\373)jfQ\311\353Y\3054F\013\252f\373dR\246vnT\313\253"
 141      51C9EB59 
 141      C534460B 
 141      AA66FB64 
 141      52A6766E 
ARM GAS  /tmp/ccZrP8Fe.s 			page 11


 142 0261 5AAAAF6F 		.ascii	"Z\252\257o \246\202O\033\323\362ES*\3529m\300K7Le$\235"
 142      20A6824F 
 142      1BD3F245 
 142      532AEA39 
 142      6DC04B37 
 143 0279 55CE1A85 		.ascii	"U\316\032\205\242\251\234H\304\007\372\225\241\241\243"
 143      A2A99C48 
 143      C407FA95 
 143      A1A1A3
 144 0288 4AE2587C 		.ascii	"J\342X|\354\000}Iq\240lv86\002\312\3579\252\221\313"
 144      EC007D49 
 144      71A06C76 
 144      383602CA 
 144      EF39AA91 
 145 029d 197927ED 		.ascii	"\031y'\355\360\361\370\221\370\005E\035Q\215\202\226"
 145      F0F1F891 
 145      F805451D 
 145      518D8296 
 146 02ad 22FC028F 		.ascii	"\"\374\002\217\017\322b8j\214\026\241\343|\301\310g"
 146      0FD26238 
 146      6A8C16A1 
 146      E37CC1C8 
 146      67
 147 02be A2B68068 		.ascii	"\242\266\200h.m\236\201\237\255\337\033\212"
 147      2E6D9E81 
 147      9FADDF1B 
 147      8A
 148              		.text
 149              		.section	.gnu.lto_test_003_001_execute.part.1.55a5542d0aa8932d,"",%progbits
 150 0000 789C8D54 		.ascii	"x\234\215T]h\034U\024>g\376v7I\323j\252M\024\266C\237"
 150      5D681C55 
 150      143E67FE 
 150      763749D3 
 150      6AAA4D14 
 151 0017 84E24ED2 		.ascii	"\204\342N\322\240\342\213X\332\227@V\260\331\200}qY"
 151      A0E28B58 
 151      DA974056 
 151      B0D9807D 
 151      7159
 152 0029 67C7C9C0 		.ascii	"g\307\311\300\316N\235\231m*>\344n\022!`\251KQ\320F"
 152      CE4E9D99 
 152      6D2A3EE4 
 152      6E122160 
 152      A94B51D0 
 153 003e 69A222B4 		.ascii	"i\242\"\264\"Z\364\241\026\212K\301\264\2654\245 >("
 153      225AF4A1 
 153      168A4BC1 
 153      B4B534A5 
 153      203E28
 154 0051 DA405F5A 		.ascii	"\332@_ZP[\351CE\264\343\271\363\227M\254\230K\346\376"
 154      505BE943 
 154      45B4E3B9 
 154      F3974DAC 
 154      984BE6FE 
 155 0065 9DFB9DF3 		.ascii	"\235\373\235\363\235\357\234\215\000\002\254\037#\364"
 155      9DEF9C8D 
 155      0002AC1F 
ARM GAS  /tmp/ccZrP8Fe.s 			page 12


 155      23F4
 156 0073 ED93015E 		.ascii	"\355\223\001^D\000\314\000*\255e\332((\204\253 \310"
 156      4400CC00 
 156      2AAD65DA 
 156      282884AB 
 156      20C8
 157 0085 DF6BC0BA 		.ascii	"\337k\300\272\3043y`=b|\222\302\223\2042\177\323\314"
 157      C4337960 
 157      3D627C92 
 157      C2938432 
 157      7FD3CC
 158 0098 CA887C03 		.ascii	"\312\210|\003\010S\212 J2N\355G\356Z\336\001\213\214"
 158      08538A20 
 158      4A324EED 
 158      47EE5ADE 
 158      018B8C
 159 00ab 1D5BF9E6 		.ascii	"\035[\371\346\372\015|\367\255\366\354\002\373+\010"
 159      FA0D7CF7 
 159      ADF6EC02 
 159      FB2B08
 160 00ba 102D6ED4 		.ascii	"\020-n\324\021^\240\035\252\341\"HkI\205\300V\373\324"
 160      115EA01D 
 160      AAE12248 
 160      6B4985C0 
 160      56FBD4
 161 00cd D2E101B6 		.ascii	"\322\341\001\2660\335b\367\010g\241(\300\023\270\021"
 161      30DD62F7 
 161      0867A128 
 161      C013B811 
 162 00dd E4D1F6F1 		.ascii	"\344\321\366\361\245#\235H\312\373\351\015\"\337>\377"
 162      A5239D48 
 162      CAFBE90D 
 162      22DF3EFF 
 163 00ed ED22B2A3 		.ascii	"\355\"\262\243\254y;\0106[(\011\360\314\006\221\337"
 163      AC793B08 
 163      365B2809 
 163      F0CC0691 
 163      DF
 164 00fe 2D1DEE6A 		.ascii	"-\035\356j5\347X\020L\205\270\275\377\207\373L`+A\360"
 164      35E75810 
 164      4C85B8BD 
 164      FF87FB4C 
 164      602B41F0 
 165 0112 D59D6C1F 		.ascii	"\325\235l\037B\310\261\202\037\340\016\020\351 K|\222"
 165      42C8B182 
 165      1FE00E10 
 165      E9204B7C 
 165      92
 166 0123 695214BA 		.ascii	"iR\024\272\376\230\2563\374\220\345S\216O\\_\230%\225"
 166      FE98AE33 
 166      FC90E553 
 166      8E4F5C5F 
 166      982595
 167 0136 D40A7E44 		.ascii	"\324\012~D\346\010\033\012K\243D3\257I\211\036\322*"
 167      E6081B0A 
 167      4BA34433 
 167      AF49891E 
ARM GAS  /tmp/ccZrP8Fe.s 			page 13


 167      D22A
 168 0148 8EA310AE 		.ascii	"\216\243\020\256\227a\372\364\351\337\372+x\022e\230"
 168      9761FAF4 
 168      E9DFFA2B 
 168      78126598 
 169 0158 87634DC6 		.ascii	"\207cM\306\266X\230y\015\376ds|\227\265C8g\233\205d"
 169      B6589879 
 169      0DFE6473 
 169      7C97B543 
 169      38679B85 
 170 016d 97E15DB3 		.ascii	"\227\341]\263\014\315S\363\327\3658f\022\274}\367\315"
 170      0CCD53F3 
 170      D7F53866 
 170      12BC7DF7 
 170      CD
 171 017e 5FBB1F4B 		.ascii	"_\273\037KO\227~z\036 r\256#O?\3567\204OP\214\232/\017"
 171      4F977E7A 
 171      1E2072AE 
 171      234F3FEE 
 171      37844F50 
 172 0196 5FE2FBEC 		.ascii	"_\342\373\354\235g-\314E\266\313p\356\207\367\276\276"
 172      9D672DCC 
 172      45B6CB70 
 172      EE87F7BE 
 172      BE
 173 01a7 794259EF 		.ascii	"yBY\357z\361\370\217bzx\343\347Eq\325\265H_(\246\211"
 173      7AF1F88F 
 173      627A78E3 
 173      E74571D5 
 173      B5485F28 
 174 01bd B8134EB2 		.ascii	"\270\023N\262\331\346\312\037\227\226\005\013\273xN"
 174      D9E6CA1F 
 174      9796050B 
 174      BB784E
 175 01cc 2D9E4937 		.ascii	"-\236I7g\336\303hHa\022=a\260\227xz\025\374\202\274"
 175      67DEC368 
 175      4861123D 
 175      61B09778 
 175      7A15FC82 
 176 01e1 D0B808D3 		.ascii	"\320\270\010\323\237\237{*r\032\251\310\307\025x}\345"
 176      9F9F7B2A 
 176      721AA9C8 
 176      C715787D 
 176      E5
 177 01f2 EC874A74 		.ascii	"\354\207Jtm\242\220\212\263I\217`\020\3350*s\257\215"
 177      6DA2908A 
 177      B3498F60 
 177      10DD302A 
 177      73AF8D
 178 0205 183D0C83 		.ascii	"\030=\014\203\3107x\2256\207\236\333\003\211c^\030\223"
 178      C8377895 
 178      36879EDB 
 178      0389635E 
 178      1893
 179 0217 4B411AFE 		.ascii	"KA\032\376>?s\015\377-\342\275\356\355\253\251^\353"
 179      3E3F730D 
 179      FF2DE2BD 
ARM GAS  /tmp/ccZrP8Fe.s 			page 14


 179      EEEDABA9 
 179      5EEB
 180 0229 1051A12F 		.ascii	"\020Q\241/\223\210\270 \374\267\2103s3\177oJ8\213\244"
 180      9388B820 
 180      FCB78833 
 180      73337F6F 
 180      4A388BA4 
 181 023d 4BC22732 		.ascii	"K\302'2\212\211IJL73a\256i\236r\232\347\026=.~\350H"
 181      8A89494A 
 181      4C373361 
 181      AE699E72 
 181      9AE7163D 
 182 0255 E2F7FD16 		.ascii	"\342\367\375\026>\220\207\023B\024\364\301\230\036\345"
 182      3E908713 
 182      4214F4C1 
 182      981EE5
 183 0264 DA077001 		.ascii	"\332\007p\001f\177\301\324\013\367\255tv\3718U\353L"
 183      667FC1D4 
 183      0BF7AD74 
 183      76F93855 
 183      EB4C
 184 0276 9E77DEC5 		.ascii	"\236w\336\305\013n\362LI{ok\032\226k\031w\\/\244i]I"
 184      0B6EF24C 
 184      497B6F6B 
 184      1A966B19 
 184      775C2FA4 
 185 028d 996708C6 		.ascii	"\231g\010\306\215[\243\"\311\311}6\365\360\220\036\353"
 185      8D5BA322 
 185      C9C97D36 
 185      F5F0901E 
 185      EB
 186 029e 61462D4D 		.ascii	"aF-M\254\037\316\303\331\230\365\266U\326\375\353Xg"
 186      AC1FCEC3 
 186      D998F5B6 
 186      55D6FDEB 
 186      5867
 187 02b0 EFC35A82 		.ascii	"\357\303Z\202[\335\"'0\363io\362.Ge\344O\007\202d\340"
 187      5BDD2227 
 187      30F3696F 
 187      F22E4765 
 187      E44F0782 
 188 02c6 540797A4 		.ascii	"T\007\227\2443\326R\311\305T\036\311\303\371\230\312"
 188      33D652C9 
 188      C5541EC9 
 188      C3F998CA 
 189 02d6 A36BA844 		.ascii	"\243k\250D\361\344\360\007z\225\376\237\256\262(\221"
 189      F1E4F007 
 189      7A95FE9F 
 189      AEB22891 
 190 02e6 2274CB6B 		.ascii	"\"t\313k\276\253P\320\242?\337\360|\255n\3254\317i\270"
 190      BEAB50D0 
 190      A23FDFF0 
 190      7CAD6ED5 
 190      34CF69B8 
 191 02fa BA119DF9 		.ascii	"\272\021\235\371T\366\214W\032F]7\312\203\203\303\005"
 191      54F68C57 
 191      1A465D37 
ARM GAS  /tmp/ccZrP8Fe.s 			page 15


 191      CA8383C3 
 191      05
 192 030b 1D44DB33 		.ascii	"\035D\3333%\337\262\015\331w\207\012C\212\311\227\301"
 192      25DFB20D 
 192      D977870A 
 192      438AC997 
 192      C1
 193 031c A1D491E3 		.ascii	"\241\324\221\343i\272c\333N]3\016\371\332\236\342\330"
 193      69BA63DB 
 193      4E5D330E 
 193      F9DA9EE2 
 193      D8
 194 032d C89866D5 		.ascii	"\310\230f\325\365Z\243jh\272\355Y^\331\324\365\302\004"
 194      F55AA36A 
 194      68BAED59 
 194      5ED9D4F5 
 194      C204
 195 033f 3C7E1FC4 		.ascii	"<~\037\304\001\307\365=m\367\276\342\236\342!M\237\320"
 195      01C7F53D 
 195      6DF7BEE2 
 195      9EE2214D 
 195      9FD0
 196 0351 1DD7281F 		.ascii	"\035\327(\037|\322\246\327Y\375\200gUU\0132\266a;\356"
 196      7CD2A6D7 
 196      59FD8067 
 196      55550B32 
 196      B6613BEE 
 197 0365 AB30DC09 		.ascii	"\2530\334\011\237\250\324b\354X\2518\274K\033\035\335"
 197      9FA8D462 
 197      EC58A938 
 197      BC4B1B1D 
 197      DD
 198 0376 AB95468A 		.ascii	"\253\225F\212\007\207\270\245L9\324jUr\242m0$\317\316"
 198      0787B8A5 
 198      4C39D46A 
 198      5572A26D 
 198      3024CFCE 
 199 038a 4D821A14 		.ascii	"M\202\032\024\264\317i\370\252\363\262\312\015\352\244"
 199      B4CF69F8 
 199      AAF3B2CA 
 199      0DEAA4
 200 0399 55AF3A93 		.ascii	"U\257:\223\220\253;\276\372\334\370\350(l\233t\235\272"
 200      90AB3BBE 
 200      FADCF8E8 
 200      286C9B74 
 200      9DBA
 201 03ab A9BA86DF 		.ascii	"\251\272\206\337p\353FU\265\015\317\253\230\006\374"
 201      70EB4655 
 201      B50DCFAB 
 201      9806FC
 202 03ba 03467FB8 		.ascii	"\003F\177\270N"
 202      4E
 203              		.text
 204              		.section	.gnu.lto_test_003_001_execute.55a5542d0aa8932d,"",%progbits
 205 0000 789C8593 		.ascii	"x\234\205\223ML\023A\024\307\337\333\217\266t\251\202"
 205      4D4C1341 
 205      14C7DFDB 
ARM GAS  /tmp/ccZrP8Fe.s 			page 16


 205      8FB674A9 
 205      82
 206 0011 8AC2A536 		.ascii	"\212\302\2456\234\274\330\005\215\236<`8\231P\023\005"
 206      9CBCD805 
 206      8D9E3C60 
 206      38995013 
 206      05
 207 0022 123D3564 		.ascii	"\022=5d\230,k\330]\334\335*\306\003\013\305\304\030"
 207      982C6BD8 
 207      5DDCDD2A 
 207      C6030BC5 
 207      C418
 208 0034 D1C693D1 		.ascii	"\321\306\223\321\030%\204\204\213\032.\206p\241\027"
 208      18258484 
 208      8B1A2E86 
 208      70A117
 209 0043 09C44063 		.ascii	"\011\304@c\242^m\364`b0\306\253\007\352L\367\203\017"
 209      A25E6DF4 
 209      606230C6 
 209      AB07EA4C 
 209      F7830F
 210 0056 214CBAF3 		.ascii	"!L\272\363v\336\276\377{\277y3\025@\200\335\243\213"
 210      76DEBEFF 
 210      7BBF7933 
 210      154080DD 
 210      A38B
 211 0068 3D9F4580 		.ascii	"=\237E\200*\263\030\003\024J\353\000\343\011A\220\277"
 211      2AB31803 
 211      144AEB00 
 211      E3094190 
 211      BF
 212 0079 A8E025C5 		.ascii	"\250\340%\305\3054x\215b\260\222\352+\011e\036\2042"
 212      C534788D 
 212      62B092EA 
 212      2B09651E 
 212      8432
 213 008b 22B78030 		.ascii	"\"\267\2000&\210\222\214c\327\221g\024\332a\332\363"
 213      2688928C 
 213      63D79167 
 213      14DA61DA 
 213      F3
 214 009c 9E54DFFF 		.ascii	"\236T\337\377\234k{\360j\242\344m\326j\250#\253}\016"
 214      9C6B7BF0 
 214      6AA2E46D 
 214      D66AA823 
 214      AB7D0E
 215 00af 81205C63 		.ascii	"\201 \\c\013\314\324\215 \355\204\251+K\345\371\345"
 215      0BCCD48D 
 215      20ED84A9 
 215      2B4BE5F9 
 215      E5
 216 00c0 876DDE96 		.ascii	"\207m\336\226R\024\340\302A\312\267B\271Z\253m\314W"
 216      5214E0C2 
 216      41CAB742 
 216      B95AAB6D 
 216      CC57
 217 00d2 BFAD6173 		.ascii	"\277\255as\213\014\0038\203\355\020gv\232\331\004\350"
ARM GAS  /tmp/ccZrP8Fe.s 			page 17


 217      8B0C0338 
 217      83ED1067 
 217      769AD904 
 217      E8
 218 00e3 2825F9A4 		.ascii	"(%\371\244\360)\305'&\222a\222\225\313\370\274\345\227"
 218      F029C527 
 218      26926192 
 218      95CBF8BC 
 218      E597
 219 00f5 CB8FB657 		.ascii	"\313\217\266W\225\005\350:\250\252_\005x\024\033}l\346"
 219      9505E83A 
 219      A8AA5F05 
 219      78141B7D 
 219      6CE6
 220 0107 0DE94781 		.ascii	"\015\351G\201[q\015&\026\026~\264\016\340,\312\360\034"
 220      5B710D26 
 220      16167EB4 
 220      0EE02CCA 
 220      F01C
 221 0119 9E8D7B5E 		.ascii	"\236\215{^\223\216\261\273\360\327\273\317\337\342F"
 221      938EB1BB 
 221      F0D7BBCF 
 221      DFE246
 222 0128 5DC613C7 		.ascii	"]\306\023\307!|\213q\337:\214\317O}'\001_\010Z^z\374"
 222      217C8B71 
 222      DF3A8CCF 
 222      4F7D2701 
 222      5F085A5E 
 223 013e 4B3915AD 		.ascii	"K9\025\255>T\256p\002\236\234 '\015\016\027a\026E\377"
 223      3E54AE70 
 223      029E9C20 
 223      270D0E17 
 223      611645FF 
 224 0152 A4D3F006 		.ascii	"\244\323\360\006_xO\273tL\370\337*p\257:7\023\363U\032"
 224      5F784FBB 
 224      744CF8DF 
 224      2A70AF3A 
 224      3713F355 
 225 0167 CA114B03 		.ascii	"\312\021K\003a\032>|\2177\246c\322@\364\003\353`\012"
 225      611A3E7C 
 225      8F37A663 
 225      D240F403 
 225      EB600A
 226 017a B0AE3502 		.ascii	"\260\2565\002\254\302D\271\315\367\373\333\327x\004"
 226      ACC244B9 
 226      CDF7FBDB 
 226      D77804
 227 0189 23FE3355 		.ascii	"#\3763U\374\212\377#o*'\267\220?mC\226\330#\207\310"
 227      FC8AFF23 
 227      6F2A27B7 
 227      903F6D43 
 227      96D82387 
 228 019e EFF64566 		.ascii	"\357\366Ef]\\]\271\021\022\307\243>\246\"v\016\032t"
 228      5D5C5DB9 
 228      1112C7A3 
 228      3EA62276 
 228      0E1A74
ARM GAS  /tmp/ccZrP8Fe.s 			page 18


 229 01b1 2F09A1A8 		.ascii	"/\011\241\250X\021CM\202\311\370\307\224\337\0019\364"
 229      5811434D 
 229      82C9F8C7 
 229      94DF0139 
 229      F4
 230 01c2 27A30C87 		.ascii	"'\243\014\207\010\273\372|\260`\356l\325\361p\032\226"
 230      08BBFA7C 
 230      B060EE6C 
 230      D5F1701A 
 230      96
 231 01d3 0290A600 		.ascii	"\002\220\246\000\231\355\277\031`\005&70J\301\363\356"
 231      99EDBF19 
 231      60052637 
 231      304AC1F3 
 231      EE
 232 01e4 B814FD6C 		.ascii	"\270\024\375l#\213i\221\003\024_\247\3028\2055\211\207"
 232      238B6991 
 232      03145FA7 
 232      C2388535 
 232      8987
 233 01f6 1ED98590 		.ascii	"\036\331\205\220\332\013A\011\020\216\246a5@8\266?B"
 233      DA0B4109 
 233      108EA661 
 233      354038B6 
 233      3F42
 234 0208 6A0F0409 		.ascii	"j\017\004\011~+b\005\212\211@\005Q\231\026\022\3345"
 234      7E2B6205 
 234      8A894005 
 234      51991612 
 234      DC35
 235 021a 1D8F87D1 		.ascii	"\035\217\207\321r\375\266~d\377\372\255\034}\254\245"
 235      72FDB67E 
 235      64FFFAAD 
 235      1C7DACA5 
 236 022a CCCB8FE4 		.ascii	"\314\313\217\344L6\253\372?\227:\256j\352\303\252c\025"
 236      4C36ABFA 
 236      3F973AAE 
 236      6AEAC3AA 
 236      6315
 237 023c 6C42FD35 		.ascii	"lB\3755\237\362\016\275Y\240&\241\371\216\216\263Y\002"
 237      9FF20EBD 
 237      59A026A1 
 237      F98E8EB3 
 237      5902
 238 024e 31CDB53B 		.ascii	"1\315\265;\263\035\242\341h\222\253\033\2643Ja9*\261"
 238      B31DA2E1 
 238      6892AB1B 
 238      B4334A61 
 238      392AB1
 239 0261 0CC33255 		.ascii	"\014\3032U:\352\252\335\271\336K\275\252n\222\341\302"
 239      3AEAAADD 
 239      B9DE4BBD 
 239      AA6E92E1 
 239      C2
 240 0272 205589E1 		.ascii	" U\211\341\350N^#$;\004\247\367P\214X\266\353\250\027"
 240      E84E5E23 
 240      243B04A7 
ARM GAS  /tmp/ccZrP8Fe.s 			page 19


 240      F7508C58 
 240      B6EBA817 
 241 0286 AFE6BA73 		.ascii	"\257\346\272s\243*\031\"\226M\363\267\316\033,:AF\034"
 241      A32A1922 
 241      964DF3B7 
 241      CE1B2C3A 
 241      41461C
 242 0299 7D30A343 		.ascii	"}0\243C\334\240\206e\337\361\035\2249\032L\313\315\\"
 242      DCA08665 
 242      DFF11D94 
 242      391A4CCB 
 242      CD5C
 243 02ab EEEFE981 		.ascii	"\356\357\351\201\023\267m\313\32426u\013\266I\0073\006"
 243      13B76DCB 
 243      D4323675 
 243      0BB64907 
 243      3306
 244 02bd 759C018D 		.ascii	"u\234\001\215\302?\274\371-\004"
 244      C23FBCF9 
 244      2D04
 245              		.text
 246              		.section	.gnu.lto_.symbol_nodes.55a5542d0aa8932d,"",%progbits
 247 0000 789C4D8C 		.ascii	"x\234M\214;N\003A\020\005kz\266gA\302\3067\340$\234"
 247      3B4E0341 
 247      10056B7A 
 247      B66741C2 
 247      C637E024 
 248 0015 848893B4 		.ascii	"\204\210\223\264\305J\0102\016\000\011{\024K\266\204"
 248      C54A0832 
 248      0E00097B 
 248      144BB684 
 249 0025 2552528C 		.ascii	"%RR\214\371c>\001\022\031\242\207Y\263LRzo^\265 \354"
 249      F9633E01 
 249      1219A287 
 249      59B34C52 
 249      7A6F5EB5 
 250 003b 05CA9325 		.ascii	"\005\312\223%\006'\227`vz\274\2577PY\224O,t\355\331"
 250      06279760 
 250      767ABCAF 
 250      37505994 
 250      4F2C74ED 
 251 0050 51D02757 		.ascii	"Q\320'W\014}&:\344\036\223^\221/,\366[\271\305\252\177"
 251      0C7D263A 
 251      E41E935E 
 251      912F2CF6 
 251      5BB9C5AA 
 252 0065 073F0859 		.ascii	"\007?\010Y}\244R\307\035\352\347\365\201\344\010+L\313"
 252      7DA452C7 
 252      1DEAE7F5 
 252      81E4082B 
 252      4CCB
 253 0077 743C0EE1 		.ascii	"t<\016\341\025K}z\303\352>\275`\033}z\3076\377R\224"
 253      154B7D7A 
 253      C3EA3EBD 
 253      601B7D7A 
 253      C736FF52 
 254 008c 01CBF96E 		.ascii	"\001\313\371n\224!\315\374J\242l\321\\dz=\235\246\314"
ARM GAS  /tmp/ccZrP8Fe.s 			page 20


 254      9421CDFC 
 254      4AA26CD1 
 254      5C647A3D 
 254      9DA6CC
 255 009f E670B593 		.ascii	"\346p\265\223\373v\361\035\242n\323\374r\235\273\177"
 255      FB76F11D 
 255      A26ED3FC 
 255      729DBB7F 
 256 00af EDF62A9C 		.ascii	"\355\366*\234\317\334O\203r\307\331\316\274OC\332\274"
 256      CFDC4F83 
 256      72C7D9CE 
 256      BC4F43DA 
 256      BC
 257 00c0 4BA3E2D7 		.ascii	"K\243\342\327#&\327\231\356-\012'\331\257\023\007\356"
 257      2326D799 
 257      EE2D0A27 
 257      D9AF1307 
 257      EE
 258 00d1 F303D8BE 		.ascii	"\363\003\330\276g2"
 258      6732
 259              		.text
 260              		.section	.gnu.lto_.refs.55a5542d0aa8932d,"",%progbits
 261 0000 789C25C8 		.ascii	"x\234%\310\211\011\000 \020\003\301M\316\337r\354\277"
 261      89090020 
 261      1003C14D 
 261      CEDF72EC 
 261      BF
 262 0011 374F0C2C 		.ascii	"7O\014,\0031\346\360'\244\260\202\222\324g\264w\240"
 262      0331E6F0 
 262      27A4B082 
 262      92D467B4 
 262      77A0
 263 0023 E8E96078 		.ascii	"\350\351`xzyg\270k\273r\001\032E\000\332"
 263      7A7967B8 
 263      6BBB7201 
 263      1A4500DA 
 264              		.text
 265              		.section	.gnu.lto_.decls.55a5542d0aa8932d,"",%progbits
 266 0000 789CBD5A 		.ascii	"x\234\275Z{t\024\325\031\277w&\217\315\003Z\036j\024"
 266      7B7414D5 
 266      19BF7726 
 266      8FCD035A 
 266      1E6A14
 267 0013 9150B556 		.ascii	"\221P\265V\224\204\004\213\361\037\013\015\210\236\212"
 267      9484048B 
 267      F11F0B0D 
 267      889E8A
 268 0022 E56CB07A 		.ascii	"\345l\260zNO\317:nF\222\272\331\015\273\023\036\247"
 268      4E4FCF3A 
 268      6E4692BA 
 268      D90DBB13 
 268      1EA7
 269 0034 7F307908 		.ascii	"\1770y\010X=6&(A\002\004Ey\250\010\221\267\200+\025"
 269      583D3626 
 269      28410204 
 269      4579A808 
 269      91B7802B 
ARM GAS  /tmp/ccZrP8Fe.s 			page 21


 270 0049 08864740 		.ascii	"\010\206G@ \341a\331\202\274\244J\250\242\305\012\351"
 270      20E161D9 
 270      82BCA44A 
 270      A8A2C50A 
 270      E9
 271 005a 77EFCCEC 		.ascii	"w\357\314\354\336\231\235\331\235\211\307\316\311\275"
 271      DE999DD9 
 271      9D89C7CE 
 271      C9BD
 272 0068 3B8F7B7F 		.ascii	";\217{\177\337\357{\334w8\304\241\026\036\241\036\270"
 272      DFEF7BDC 
 272      7738C4A1 
 272      161EA11E 
 272      B8
 273 0079 66DE8750 		.ascii	"f\336\207PV\032B\360\207\036\204\324\007R:\244%\220"
 273      561A42F0 
 273      871E84D4 
 273      07523AA4 
 273      2590
 274 008b 5E87B40C 		.ascii	"^\207\264\014\322rH+!\255\205\264\016\322\006H7c\204"
 274      D272482B 
 274      21AD85B4 
 274      0ED20648 
 274      376384
 275 009e 6E81742B 		.ascii	"n\201t+\244\301\220\310\225\011i\010\334\337\016\351"
 275      A4C190C8 
 275      95096908 
 275      DCDF0EE9 
 276 00ae 2E48C320 		.ascii	".H\303 \345A*\2004\012\322hH\017A\372\035VdL\204_7\244"
 276      E5412A80 
 276      340AD268 
 276      480F41FA 
 276      1D56644C 
 277 00c6 4990FE00 		.ascii	"I\220\376\000\351\317\220j!\275\244\342i\027\301\344"
 277      E9CF906A 
 277      21BDA4E2 
 277      6917C1E4 
 278 00d6 E077A32A 		.ascii	"\340w\243*\233\\X}\217U\034\366\"\362\007\301o?\370"
 278      9B5C587D 
 278      8F551CF6 
 278      22F207C1 
 278      6F3FF8
 279 00e9 ED0BBFD9 		.ascii	"\355\013\277\331*\377\034x.Re\247B\232\007\367M\220"
 279      2AFF1C78 
 279      2E5265A7 
 279      429A07F7 
 279      4D90
 280 00fb E6436A87 		.ascii	"\346Cj\207\364\004\244=\2206\301\267\275\360[\010i\037"
 280      F404A43D 
 280      9036C1B7 
 280      BDF05B08 
 280      691F
 281 010d 8ED9E27E 		.ascii	"\216\331\342~\034\263\307~\034\263\307\030\270\007s"
 281      1CB3C77E 
 281      1CB3C718 
 281      B80773
 282 011c A2D5F0FB 		.ascii	"\242\325\360\373'H\003\261bO\302\243\003\322!\203\015"
ARM GAS  /tmp/ccZrP8Fe.s 			page 22


 282      274803B1 
 282      624FC2A3 
 282      03D22183 
 282      0D
 283 012d 882E9ACE 		.ascii	"\210.\232\316\354Elv\213\312U\343\255q&\272$\342\334"
 283      EC456C76 
 283      8BCA55E3 
 283      AD7126BA 
 283      24E2DC
 284 0140 09693C56 		.ascii	"\011i<Vx\023\375\022q\357\202\373;T\036\032\347tU\276"
 284      7813FD12 
 284      71EF82FB 
 284      3B541E1A 
 284      E77455BE 
 285 0154 C6F72186 		.ascii	"\306\367!\206\363\355\0118\023\037\337j\260\365W*o\202"
 285      F3ED0938 
 285      131FDF6A 
 285      B0F5572A 
 285      6F82
 286 0166 59C4F03E 		.ascii	"Y\304\360>j\340~\034+\376|\024\307\333\223\370\232\360"
 286      6AE07E1C 
 286      2BFE7C14 
 286      C7DB93F8 
 286      9AF0
 287 0178 D7E2EC7E 		.ascii	"\327\342\354~\325\246Z\274a\225{\246\312\341\004\244"
 287      D5A65ABC 
 287      61957BA6 
 287      CAE104A4 
 288 0188 930C7F12 		.ascii	"\223\014\177\022c\237C:\247\332|\024\243\2031^H\214"
 288      639F433A 
 288      A7DA7C14 
 288      A383315E 
 288      488C
 289 019a DEA47266 		.ascii	"\336\244rfu0\332\375(\3039]\345\235\214\347EH\367\250"
 289      7530DAFD 
 289      28C3395D 
 289      E59D8CE7 
 289      4548F7A8 
 290 01ae F25CAA2C 		.ascii	"\362\\\252,\215+\313\221\360\033\306pt\0338f\241\277"
 290      8D2BCB91 
 290      F01BC670 
 290      741B3866 
 290      A1BF
 291 01c0 CA728DDC 		.ascii	"\312r\215\3342K~\270\255o?T/\303\225\333\3247\003\315"
 291      324B7EB8 
 291      AD6F3F54 
 291      2FC395DB 
 291      D43703CD 
 292 01d4 21AF236F 		.ascii	"!\257#o\31299\010=\211\005\014\257\\\364&;\203\032\351"
 292      CA393908 
 292      3D89050C 
 292      AF5CF426 
 292      3B831AE9 
 293 01e8 4EB4148A 		.ascii	"N\264\024\212ByN\300o\340\014\020\300\031\240\265K\371"
 293      42794EC0 
 293      6FE00C10 
 293      C019A0B5 
ARM GAS  /tmp/ccZrP8Fe.s 			page 23


 293      4BF9
 294 01fa 4E2E525D 		.ascii	"N.R]\271\327\356zp\024}\242\206\236\251\326z\035\367"
 294      B9D7EE7A 
 294      70147DA2 
 294      869EA9D6 
 294      7A1DF7
 295 020d A377948B 		.ascii	"\243w\224\213\254R\244%\324\032\271Z\215\024\265\306"
 295      AC52A425 
 295      D41AB95A 
 295      8D14B5C6 
 296 021d 5B8C9CEC 		.ascii	"[\214\234\354\214\330M\206\312\304\252\336\022\234\225"
 296      8CD84D86 
 296      CAC4AADE 
 296      129C95
 297 022c C41E0A5B 		.ascii	"\304\036\012[\265~=\326\000\372\253\000\313\035S]aA"
 297      B57E3DD6 
 297      00FAAB00 
 297      CB1D535D 
 297      6141
 298 023e B55F12AA 		.ascii	"\265_\022\252\313bTU\037)\302\314kP'\325G.\235:\317"
 298      CB625455 
 298      1F29C2CC 
 298      6B5027D5 
 298      472E9D3A 
 299 0253 CBB24BC0 		.ascii	"\313\262K\300+\251\243 n\207\241\025\212\367j\3562\363"
 299      2BA9A320 
 299      6E87A115 
 299      8AF76AEE 
 299      32F3
 300 0265 9A7DE8CE 		.ascii	"\232}\350\316Y;>\3025\262\014\037VQ\360)\030X\276\213"
 300      593B3EC2 
 300      35B20C1F 
 300      5651F029 
 300      1858BE8B 
 301 0279 873946BA 		.ascii	"\2079F\2722{\313\003\224\344\032\212\263\034\353\201"
 301      327BCB03 
 301      94E41A8A 
 301      B31CEB81 
 302 0289 049C9EC1 		.ascii	"\004\234\236\301R\244\317Z\001\202\226\236\021\273!"
 302      52A4CF5A 
 302      0182969E 
 302      11BB21
 303 0298 23D0CFD0 		.ascii	"#\320\317\320O\\\334N\2504ECe\200\212\273\316q\250\254"
 303      4F5CDC4E 
 303      A8344543 
 303      65808ABB 
 303      CE71A8AC 
 304 02ac B70895FE 		.ascii	"\267\010\225\376IBe\255ET\353\036\372\243\227)o\306"
 304      494265AD 
 304      4554EB1E 
 304      FAA39729 
 304      6FC6
 305 02be 392D51CE 		.ascii	"9-Q\316\003\031?\267\237\330\200k\251\2377\341\376\340"
 305      03193FB7 
 305      9FD8806B 
 305      A99F37E1 
 305      FEE0
ARM GAS  /tmp/ccZrP8Fe.s 			page 24


 306 02d0 9F0306FF 		.ascii	"\237\003\006\377$\005\342\3201Ze\013TW**]Hx\315\251"
 306      2405E2D0 
 306      315A650B 
 306      54572A2A 
 306      5D4878CD 
 307 02e5 30A68E27 		.ascii	"0\246\216'_\220\016Tw\015E-\244\370\373\247\332\370"
 307      5F900E54 
 307      770D452D 
 307      A4F8FBA7 
 307      DAF8
 308 02f7 F972B88E 		.ascii	"\371r\270\216W%\266\244Y\005\026\207\316P\211a\203\304"
 308      5725B6A4 
 308      59051687 
 308      CE508961 
 308      83C4
 309 0309 C8E1FD7B 		.ascii	"\310\341\375{jp5U&lCfMx\335'\363n\226[\266\343\244\246"
 309      6A703555 
 309      266C4366 
 309      4D78DD27 
 309      F36E965B 
 310 0321 E334F977 		.ascii	"\3434\371wP\371\315\034\221\277\303(\177\315\247;jU"
 310      50F9CD1C 
 310      91BFC328 
 310      7FCDA73B 
 310      6A55
 311 0333 F93B6CC9 		.ascii	"\371;l\311\237\277on\274|\001?xC\242\006ux\377\331\313"
 311      9FBF6F6E 
 311      BC7C013F 
 311      7843A206 
 311      7578FFD9 
 312 0348 AA94DD50 		.ascii	"\252\224\335P\223CG8c\223\372M\026+\214>3\0058t2\312"
 312      93434738 
 312      6393FA4D 
 312      162B8C3E 
 312      33053874 
 313 035e DF4C4E34 		.ascii	"\337LN4 \231(\324\361\006Ew6\342\206Z\271m\204\306\341"
 313      209928D4 
 313      F1064577 
 313      36E2865A 
 313      B96D84C6 
 314 0373 9463C45C 		.ascii	"\224c\304\\\235%\232\367e\327\013\032\330\031;`.Kz\341"
 314      9D259AF7 
 314      65D70B1A 
 314      D8193B60 
 314      2E4B7AE1 
 315 0387 452CD805 		.ascii	"E,\330\005\307`zf\253Y\260/\355\200\375\334\232Y+\013"
 315      C7607A66 
 315      AB59B02F 
 315      ED80FDDC 
 315      9A592B0B 
 316 039b D6ED184C 		.ascii	"\326\355\030L\317l-\013\366\265\035\260\034kf\353Y\260"
 316      CF6C2D0B 
 316      F6B51DB0 
 316      1C6B66EB 
 316      59B0
 317 03ad 6F1D83E9 		.ascii	"o\035\203\351\231md\301\256\332\001\3135a\026\275\254"
 317      996D64C1 
ARM GAS  /tmp/ccZrP8Fe.s 			page 25


 317      AEDA01CB 
 317      356116BD 
 317      AC
 318 03be 7AC28F63 		.ascii	"z\302\217c=!\207~\340\264>\301aL\243\030F\017\247\365"
 318      3D21877E 
 318      E0B43EC1 
 318      614CA318 
 318      460FA7F5 
 319 03d2 64BD6B17 		.ascii	"d\275k\027\235/\354\315\331\264J\226k\323\230\211VS"
 319      9D2FECCD 
 319      D9B44A96 
 319      6BD39889 
 319      5653
 320 03e4 AC1F899F 		.ascii	"\254\037\211\237i\325G\336;y\233\234\"\340\010\035\035"
 320      69D547DE 
 320      3B799B9C 
 320      22E0081D 
 320      1D
 321 03f5 6B79D361 		.ascii	"ky\323a\326\006L\347\254w\357\241\275\355i\012\364b"
 321      D6064CE7 
 321      AC77EFA1 
 321      BDED690A 
 321      F462
 322 0407 AF81AECC 		.ascii	"\257\201\256\314^TD\201\316R\240\271\274\261s\301\206"
 322      5E544481 
 322      CE52A0B9 
 322      BCB173C1 
 322      86
 323 0418 F11AEB47 		.ascii	"\361\032\353G\324\350<P\235\006\376Te9\264\2107xK\247"
 323      D4E83C50 
 323      9D06FE54 
 323      6539B488 
 323      37784BA7 
 324 042c 4EB23E47 		.ascii	"N\262>G\206\261\2573\347\025\322\211\015@\015\211G\034"
 324      86B1AF33 
 324      E715D289 
 324      0D400D89 
 324      471C
 325 043e 42E7221E 		.ascii	"B\347\"\036\240\037\337>8\225C\034G\336'\037\335\266"
 325      A01FDF3E 
 325      3895431C 
 325      47DE271F 
 325      DDB6
 326 0450 6AA39B6E 		.ascii	"j\243\233n~\220p\342\364\2366\273\373\212:b\251\231"
 326      7E9070E2 
 326      F49E36BB 
 326      FB8A3A62 
 326      A999
 327 0462 47ED00B5 		.ascii	"G\355\000\265t\356\274\201\020\275LaV\366\026&re\327"
 327      74EEBC81 
 327      10BD4C61 
 327      56F61626 
 327      7265D7
 328 0475 062530BE 		.ascii	"\006%0\276\241@\255q\201\221f\010\2144\275\003\341\221"
 328      A140AD71 
 328      81916608 
 328      8C34BD03 
ARM GAS  /tmp/ccZrP8Fe.s 			page 26


 328      E191
 329 0487 48FA0F99 		.ascii	"H\372\017\231f\341\231\352\033\362\220\216\376\357\365"
 329      66E199EA 
 329      1BF2908E 
 329      FEEFF5
 330 0496 38B485D2 		.ascii	"8\264\205\322'\316\353eSo\337\237\263\271U\226\237O"
 330      27CEEB65 
 330      536FDF9F 
 330      B3B95596 
 330      9F4F
 331 04a8 A3C32B87 		.ascii	"\243\303+\207\302?\0160\334q\252\015\313\015\331\002"
 331      C23F0E30 
 331      DC71AA0D 
 331      CB0DD902 
 332 04b8 DE407BCD 		.ascii	"\336@{\315\355?\022\356\220\002g6\263\261\216s\305\323"
 332      ED3F12EE 
 332      90026736 
 332      B3B18E73 
 332      C5D3
 333 04ca E1C6C543 		.ascii	"\341\306\305CH\300\\\247\023\302\235\274\351\2040\321"
 333      48C05CA7 
 333      13C29DBC 
 333      E98430D1 
 334 04da F4EC20AD 		.ascii	"\364\354 \255R\315\031&\204\013\027g\023X\362>I\203"
 334      52CD1926 
 334      840B1767 
 334      1358F23E 
 334      4983
 335 04ec A9AB0E2F 		.ascii	"\251\253\016/>\371*\235\032\321\370\254\266\325^N\323"
 335      3EF92A9D 
 335      1AD1F8AC 
 335      B6D55E4E 
 335      D3
 336 04fd F66223A0 		.ascii	"\366b#\240\005<\213\273\323i\300D\342\342\375\262\261"
 336      053C8BBB 
 336      D369C044 
 336      E2E2FDB2 
 336      B1
 337 050e 27748477 		.ascii	"'t\204w6j\244\336\216W:\3311k\013\270\226jW\307\015"
 337      366AA4DE 
 337      8E573AD9 
 337      316B0BB8 
 337      966A57C7 
 338 0523 8D15B0EA 		.ascii	"\215\025\260\352\325\256\261C\350\027?\272M\034\311"
 338      D5AEB143 
 338      E8173FBA 
 338      4D1CC9
 339 0532 D9A4B609 		.ascii	"\331\244\266\011eIz\251\267\210\321\013&#\306n\336\311"
 339      65497AA9 
 339      B788D10B 
 339      2623C66E 
 339      DEC9
 340 0544 6CB0AE36 		.ascii	"l\260\2566\334\255\264\004\032\027\2656\002)|`\021\364"
 340      DCADB404 
 340      1A17B536 
 340      02297C60 
 340      11F4
ARM GAS  /tmp/ccZrP8Fe.s 			page 27


 341 0556 973616B8 		.ascii	"\2276\026\270\002\256\247\206N\276\244\204IP\\\364\254"
 341      02AEA786 
 341      4EBEA484 
 341      49505CF4 
 341      AC
 342 0567 32468F1D 		.ascii	"2F\217\035\230\332\024\247\266\310e=\024\376N\033\206"
 342      98DA14A7 
 342      B6C8653D 
 342      14FE4E1B 
 342      86
 343 0578 3407BD60 		.ascii	"4\007\275`\007\320lBk\036\205\261E\240\200\267ab\234"
 343      07D06C42 
 343      6B1E85B1 
 343      45A080B7 
 343      61629C
 344 058b 0FF150C8 		.ascii	"\017\361P\310O\322\374\013\232\277\304\221|n\262\350"
 344      4FD2FC0B 
 344      9ABFC491 
 344      7C6EB2E8 
 345 059b 549D31EF 		.ascii	"T\2351\357T\204\243\243\316F\332-6\244\350\355hX9m\262"
 345      5484A3A3 
 345      CE46DA2D 
 345      36A4E8ED 
 345      6858396D 
 346 05b0 5084706B 		.ascii	"P\204pk\342t\253 \035o\3037+\210\015\3166\224\036\326"
 346      E274AB20 
 346      1D6FC337 
 346      2B880DCE 
 346      36941ED6 
 347 05c4 EA67A8F5 		.ascii	"\352g\250\365_\343\234n\022,\340\3147\011\\\011,G\352"
 347      5FE39C6E 
 347      122CE0CC 
 347      37095C09 
 347      2C47EA
 348 05d7 CDE71C31 		.ascii	"\315\347\0341\335\030]\322\337\244\002,tLu\221\005\325"
 348      DD185DD2 
 348      DFA4022C 
 348      744C7591 
 348      05D5
 349 05e9 1B93506D 		.ascii	"\033\223Pm\216Q\035\202\026\311\341\356\310\202\323"
 349      8E511D82 
 349      16C9E1EE 
 349      C882D3
 350 05f8 1D390B49 		.ascii	"\0359\013I?\"_\357\231\211oD\257\250\014d,Y.\216\011"
 350      3F225FEF 
 350      99896F44 
 350      AFA80C64 
 350      2C592E8E 
 351 060d 520B77A3 		.ascii	"R\013w\243z\3678\257\000r\250\313\0200\010\375\022\275"
 351      7AF738AF 
 351      0072A8CB 
 351      103008FD 
 351      12BD
 352 061f 49F0E4E5 		.ascii	"I\360\344\3452O\321H\371\305\334\020}@,\3418\366\205"
 352      324FD148 
 352      F9C5DC10 
 352      7D402CE1 
ARM GAS  /tmp/ccZrP8Fe.s 			page 28


 352      38F685
 353 0632 422CBCFA 		.ascii	"B,\274\372\223\027]\365\325\221\236\236!\366I-5!u\321"
 353      93175DF5 
 353      D5919E9E 
 353      21F6492D 
 353      352175D1 
 354 0646 9C54BD9E 		.ascii	"\234T\275\236\324\033FRo\232\221\222\301P\0312t\020"
 354      D41B4652 
 354      6F9A9192 
 354      C1501932 
 354      7410
 355 0658 64C79658 		.ascii	"d\307\226X\200C\263S\355\350\274\314\010\277\334T\347"
 355      8043B353 
 355      EDE8BCCC 
 355      08BFDC54 
 355      E7
 356 0669 E69DCE75 		.ascii	"\346\235\316u~\333D\347fsR\006\235W\032I\275cS\347\215"
 356      7EDB44E7 
 356      66735206 
 356      9D571A49 
 356      BD6353E7 
 357 067e B6745E65 		.ascii	"\266t^e\204\177/\036>Bv\305\366\016_\334*\327\231\006"
 357      847F2F1E 
 357      3E4276C5 
 357      F60E5FDC 
 357      2AD79906 
 358 0692 E04A6CDD 		.ascii	"\340Jl\335\006ZU\305y\2721\217\224\302\321\207\227\225"
 358      065A55C5 
 358      79BA318F 
 358      94C2D187 
 358      9795
 359 06a4 1612B30A 		.ascii	"\026\022\263\0125\314\3368\346J\241u\246\324\032/u\337"
 359      35CCDE38 
 359      E64AA175 
 359      A6D41A2F 
 359      75DF
 360 06b6 DB644ECD 		.ascii	"\333dN\315\205f\3235\336sr5\236\222`\215\247\356\356"
 360      8566D335 
 360      DE737235 
 360      9E92608D 
 360      A7EEEE
 361 06c9 6FE45C20 		.ascii	"o\344\\ \375z\252\345\366>)@.R_\271\327\356p\202.\322"
 361      FD7AAAE5 
 361      F63E2940 
 361      2E525FB9 
 361      D7EE7082 
 362 06df 6801525E 		.ascii	"h\001R^}\320\365D\321\025i\330rE\012\215\207\216!\266"
 362      7DD0F544 
 362      D11569D8 
 362      72450A8D 
 362      878E21B6 
 363 06f3 CE19E298 		.ascii	"\316\031\342\230l\345\262t\352\350\214^\227fn\364\017"
 363      6CE5B274 
 363      EAE88C5E 
 363      97666EF4 
 363      0F
 364 0704 CD8C1E5E 		.ascii	"\315\214\036^\335\376\242\214M\033\001\321\316\212\300"
ARM GAS  /tmp/ccZrP8Fe.s 			page 29


 364      DDFEA28C 
 364      4D1B01D1 
 364      CE8AC0
 365 0713 47465310 		.ascii	"GFS\020\377\033\203!\372\254\3225\360|\331\202\347\016"
 365      FF1B8321 
 365      FAACD235 
 365      F07CD982 
 365      E70E
 366 0725 D3E038D2 		.ascii	"\323\3408\322\276g\370|y{\0354\215\231\310~s\335e$J"
 366      BE67F87C 
 366      797B1D34 
 366      8D99C87E 
 366      73DD6524 
 367 073a 86435D08 		.ascii	"\206C]\010\307\023[iA\354\023S\003^}\1777\266\"\366"
 367      C7135B69 
 367      41EC1353 
 367      035E7D7F 
 367      37B622F6 
 368 074e 5582F6B4 		.ascii	"U\202\366\264\307\310\214\214\300I\332\323z\013f\373"
 368      C7C88C8C 
 368      C049DAD3 
 368      7A0B66FB 
 369 075e F5CC7E81 		.ascii	"\365\314~\201\226\310\341\2030\326t\255\303\215\265"
 369      96C8E183 
 369      30D674AD 
 369      C38DB5
 370 076d 721B2C50 		.ascii	"r\033,P`\232>D\233h\264GQ\254\270\035\210\341\021\254"
 370      609A3E44 
 370      9B68B447 
 370      51ACB81D 
 370      88E111AC 
 371 0781 484364DB 		.ascii	"HCd\333\267\335iTK\371\007\200\302\032\324\367I\241"
 371      B7DD6954 
 371      4BF90780 
 371      C21AD4F7 
 371      49A1
 372 0793 3ED543B5 		.ascii	">\325C\2654\220f~\317\012\332\314a\375\200{\240\007"
 372      3490667E 
 372      CF0ADACC 
 372      61FD807B 
 372      A007
 373 07a5 4B25D3B5 		.ascii	"K%\323\265\236\244P\207\015P\2443;w\357\27351(\223\375"
 373      9EA45087 
 373      0D50A433 
 373      3B77EFBB 
 373      35312893 
 374 07ba 6D394D83 		.ascii	"m9M\203y\012Eg^\213Ow)\373\017\235\034Y\007>\237\236"
 374      790A4567 
 374      5E8B4F77 
 374      29FB0F9D 
 374      1C59073E 
 375 07d0 F460400F 		.ascii	"\364`@\017\303\241Wi\225c\306u\340\326\323\352\301\300"
 375      C3A15769 
 375      9563C675 
 375      E0D6D3EA 
 375      C1C0
 376 07e2 B1E42B41 		.ascii	"\261\344+A\230\263\036>\335\241\315YI\\rhI\024\266w"
ARM GAS  /tmp/ccZrP8Fe.s 			page 30


 376      98B31E3E 
 376      DDA1CD59 
 376      495C7268 
 376      4914B677 
 377 07f6 4BE3EED3 		.ascii	"K\343\356\323\352J[\201[\341\030.W\0077\357ltNM\002"
 377      EA4A5B81 
 377      5BE1182E 
 377      570737EF 
 377      6C744E4D 
 378 080b 9243ABEC 		.ascii	"\222C\253\354\000&\332\276>\253\362S\34068\206c\371"
 378      0026DABE 
 378      3EABF253 
 378      E0363886 
 378      63F9
 379 081d C9E1FA73 		.ascii	"\311\341\372s.@\323&~\206Y\262\234\252!LT\003\350\254"
 379      2E40D326 
 379      7E8659B2 
 379      9CAA214C 
 379      5403E8AC 
 380 0831 E389DF39 		.ascii	"\343\211\3379\213\211\237\326(9\0246\252\240\027\353"
 380      8B899FD6 
 380      28391436 
 380      AAA017EB 
 381 0841 7899718C 		.ascii	"x\231q\214Y\354\236\240k\260\317\350\242\342$\315\377"
 381      59EC9EA0 
 381      6BB0CFE8 
 381      A2E224CD 
 381      FF
 382 0852 49F3D334 		.ascii	"I\363\3234?\303.38\324\226nh?\372\220%\330\027\364\015"
 382      3FC32E33 
 382      38D4966E 
 382      683FFA90 
 382      25D817F4 
 383 0867 687518BA 		.ascii	"hu\030\272\210\266\242\3155d:\2524\240\230)\243\003"
 383      88B6A2CD 
 383      35643AAA 
 383      34A09829 
 383      A303
 384 0879 5A98D95D 		.ascii	"Z\230\331]\201^\215m\023\230UO\335\252h\274\324\221"
 384      815E8D6D 
 384      1398554F 
 384      DDAA68BC 
 384      D491
 385 088b 430EDDCC 		.ascii	"C\016\335\314\332\220\256<\364\216\240^\322b\244`\267"
 385      DA90AE3C 
 385      F48EA05E 
 385      D262A460 
 385      B7
 386 089c B199FD57 		.ascii	"\261\231\375W\314U\336&ob\327\256\251\021\267\225\266"
 386      CC55DE26 
 386      6F62D7AE 
 386      A911B795 
 386      B6
 387 08ad 883DD44A 		.ascii	"\210=\324J\335\275n`=\027\342\367\236\224y\232U\010"
 387      DDBD6E60 
 387      3D17E2F7 
 387      9E94799A 
ARM GAS  /tmp/ccZrP8Fe.s 			page 31


 387      5508
 388 08bf 5DE10C27 		.ascii	"]\341\014'T\007\034S\310\325Q\250\337IO \256P}:\355"
 388      54071C53 
 388      C8D551A8 
 388      DF494F20 
 388      AE507D3A 
 389 08d4 80256890 		.ascii	"\200%h\220\015,X\3041Xn\\\374*\221{\231F\356\277i\234"
 389      0D2C58C4 
 389      31586E5C 
 389      FC2A917B 
 389      9946EEBF 
 390 08ea 7E43F3EF 		.ascii	"~C\363\357h~U\037\263\347\015\035\257\346T\006/\346"
 390      687E551F 
 390      B3E70D1D 
 390      AFE65406 
 390      2FE6
 391 08fc 7B941CD1 		.ascii	"{\224\034\321\334\007\006g}i\241\037\301\377A7\261b"
 391      DC070667 
 391      7D69A11F 
 391      C1FF4137 
 391      B162
 392 090e 209FD24A 		.ascii	" \237\322Jf\323\267l\227C\352\230\227\022\3605\307="
 392      66D3B76C 
 392      9743EA98 
 392      9712F035 
 392      C73D
 393 0920 CE758B1E 		.ascii	"\316u\213\036\207\035\340c\245\310\351\230\261\335\307"
 393      871DE063 
 393      A5C8E998 
 393      B1DDC7
 394 092f 91E88166 		.ascii	"\221\350\201f\177\033z\316\265PV|w\037z_\236\023\036"
 394      7F1B7ACE 
 394      B550567C 
 394      771F7A5F 
 394      9E131E
 395 0942 21E08BC0 		.ascii	"!\340\213\300.\032\025\177A\337\313M2Y\240\026\361\212"
 395      2E1A157F 
 395      41DFCB4D 
 395      3259A016 
 395      F18A
 396 0954 52A48FE8 		.ascii	"R\244\217\350\350\010/\336\325\214\345\026\350$\256"
 396      E8082FDE 
 396      D58CE516 
 396      E824AE
 397 0963 C3C8AF98 		.ascii	"\303\310\257\230\217C\213]\306\336&\256\325\326\361"
 397      8F438B5D 
 397      C6DE26AE 
 397      D5D6F1
 398 0972 1C236EB4 		.ascii	"\034#n\264RSq\241\"+\274f\027\266\263\202\237\023=\242"
 398      525371A1 
 398      222BBC66 
 398      17B6B382 
 398      9F133DA2 
 399 0986 1EAA42CF 		.ascii	"\036\252B\317\341\235\232\365y\336\334\254Z\000[\325"
 399      E19D9AF5 
 399      79DEDCAC 
 399      5A005BD5 
ARM GAS  /tmp/ccZrP8Fe.s 			page 32


 400 0996 9BCD4703 		.ascii	"\233\315G\003\3426\364\016\230\260itL\274\022\211D\231"
 400      E236F40E 
 400      98B06974 
 400      4CBC1289 
 400      4499
 401 09a8 3972B835 		.ascii	"9r\2705]k\353\352\212[\211P\202w\205F\225\022\253j\351"
 401      5D6BEBEA 
 401      8A5B8950 
 401      82778546 
 401      9512AB6A 
 402 09bd F5D1D2EC 		.ascii	"\365\321\322\354\272Me\2015\0035\365\325y\342p\273\211"
 402      BA4D6581 
 402      350335F5 
 402      D579E270 
 402      BB89
 403 09cf 27F625F7 		.ascii	"'\366%\367\304\337\222z\242\263\335\226'\272\242\320"
 403      C4DF927A 
 403      A2B3DD96 
 403      27BAA2D0 
 404 09df 8354E846 		.ascii	"\203T\350F\307\236\230k\341\211[\222x\242\201\365\304"
 404      C79E986B 
 404      E1895B92 
 404      78A281F5 
 404      C4
 405 09f0 71D5138D 		.ascii	"q\325\023\215:O\260\266N`\373\023Y\232\355\227\305\333"
 405      3A4FB0B6 
 405      4E60FB13 
 405      599AED97 
 405      C5DB
 406 0a02 5E8935AD 		.ascii	"^\2115\255\0370t\035\251\326j\315\343\365\377\345\224"
 406      1F30741D 
 406      A9D66ACD 
 406      E3F5FFE5 
 406      94
 407 0a13 783B1656 		.ascii	"x;\026V\347\330\336\376\252\315)m\344\037\313.\373\351"
 407      E7D8DEFE 
 407      AACD296D 
 407      E41FCB2E 
 407      FBE9
 408 0a25 CC733E4F 		.ascii	"\314s>O\242be\206\303)-\335\256\342\015\343l\343qz\254"
 408      A2626586 
 408      C3292DDD 
 408      AEE20DE3 
 408      6CE3717A 
 409 0a3a 41DE273B 		.ascii	"A\336';\326\250\015\277r\274\231\036k\300\344\223'v"
 409      D6A80DBF 
 409      72BC991E 
 409      6BC0E493 
 409      2776
 410 0a4c 5C4F2990 		.ascii	"\\O)\220\272\275\030j\001\357\325\343thR\3006;\006\313"
 410      BABD186A 
 410      01EFD5E3 
 410      746852C0 
 410      363B06CB 
 411 0a60 D58135B1 		.ascii	"\325\2015\261`\333\354\200%\330v\177\215\005\373\273"
 411      60DBEC80 
 411      25D8767F 
ARM GAS  /tmp/ccZrP8Fe.s 			page 33


 411      8D05FBBB 
 412 0a70 63303DB3 		.ascii	"c0=\263f\026\254\315\016\230\325?a\000\330\"\026\254"
 412      6616ACCD 
 412      0E98D53F 
 412      6100D822 
 412      16AC
 413 0a82 DD31989E 		.ascii	"\3351\230\236\331j\026l\277\0350\253\177\302\000\260"
 413      D96A166C 
 413      BF1D30AB 
 413      7FC200B0 
 414 0a92 5616ECB0 		.ascii	"V\026\354\260c0=\263\265,\330q;`\271\326\314\326\263"
 414      63303DB3 
 414      B52CD871 
 414      3B60B9D6 
 414      CCD6B3
 415 0aa5 6011C760 		.ascii	"`\021\307`zf\033Y\260\317\355\200\375\312\232\331f\026"
 415      7A661B59 
 415      B0CFED80 
 415      FDCA9AD9 
 415      6616
 416 0ab7 ECBC6330 		.ascii	"\354\274c0=\263-,\330\277\354\200\215\260bV\035\336"
 416      3DB32D2C 
 416      D8BFEC80 
 416      8DB06256 
 416      1DDE
 417 0ac9 F6C77A81 		.ascii	"\366\307z\201\235\003\021T\213\341\207-\266\012[\026"
 417      9D031154 
 417      8BE1872D 
 417      B60A5B16 
 418 0ad9 13F0E668 		.ascii	"\023\360\346h_\256\255\272\214\217\034\3526\362\326"
 418      5FAEADBA 
 418      8C8F1CEA 
 418      36F2D6
 419 0ae8 C39811D7 		.ascii	"\303\230\021\327[\241\203\265\3027v\2540\332\032\354"
 419      5BA183B5 
 419      C23776AC 
 419      30DA1AEC 
 420 0af8 200B76D5 		.ascii	" \013v\325\016\330\303\326\316>\304\202]s\014\246gv"
 420      0ED8C3D6 
 420      CE3EC482 
 420      5D730CA6 
 420      6776
 421 0b0a 8405ABC9 		.ascii	"\204\005\253\311\264\0016\321\232Y\027\013\366\234c"
 421      B40136D1 
 421      9A59170B 
 421      F69C63
 422 0b19 30965975 		.ascii	"0\226Yu\370X,rZF\033Bg\264\276\273\324\025cB\307PL\300"
 422      F8582C72 
 422      5A461B42 
 422      67B4BEBB 
 422      D4156342 
 423 0b31 6D8E2721 		.ascii	"m\216'!\273-&!\354\206q\254\0249L4\252\255#\241\336"
 423      BB2D2621 
 423      EC8671AC 
 423      14394C34 
 423      AAAD23A1 
 424 0b46 3E696243 		.ascii	">ibC\263\213\035i\005\274\220'3\201E<Y\315\264\320\374"
ARM GAS  /tmp/ccZrP8Fe.s 			page 34


 424      B38B1D69 
 424      05BC9027 
 424      3381453C 
 424      59CDB4D0 
 425 0b5b 759A2FA5 		.ascii	"u\232/\245\371[4_N\363\2254\177\207\346\253h\276\232"
 425      F95B345F 
 425      4EF39534 
 425      7F87E6AB 
 425      68BE9A
 426 0b6e E6AD345F 		.ascii	"\346\2554_K\363\3654\337H\363-4\337F\3630\315\267\323"
 426      4BF3F534 
 426      DF48F32D 
 426      34DF46F3 
 426      30CDB7D3 
 427 0b82 FC639AEF 		.ascii	"\374c\232\357\344\231\225\223a\2423\337\302\277\204"
 427      E4999593 
 427      61A233DF 
 427      C2BF84
 428 0b91 7B3B6F7E 		.ascii	"{;o~\376\246\354\246Y\325\332cY\2535\301\342y\257e\255"
 428      FEA6ECA6 
 428      59D5DA63 
 428      59AB35C1 
 428      E279AF65 
 429 0ba6 0D096AED 		.ascii	"\015\011j\355\263\254\365Q\202Z\373y\343a]G\353\356"
 429      B3ACF551 
 429      825AFB79 
 429      E3615D47 
 429      EBEE
 430 0bb8 C164FB8B 		.ascii	"\301d\373\213l\355\0165l\355\222\015,+\244\003|\374"
 430      6CED0E35 
 430      6CED920D 
 430      2C2BA403 
 430      7CFC
 431 0bca 195138D3 		.ascii	"\031Q8\323\364\020\247Fn].gh\373\275\002\356\340\207"
 431      F410A746 
 431      6E5D2E67 
 431      68FBBD02 
 431      EEE087
 432 0bdd 58C0D2CF 		.ascii	"X\300\322\317\007y\223#\243H\327\372\243wGy*\34294'"
 432      07799323 
 432      A348D7FA 
 432      A3774779 
 432      2AE23934 
 433 0bf2 CB96C043 		.ascii	"\313\226\300C\211\005\036\326\0134\230sW\002svZ:ai\202"
 433      89051ED6 
 433      0B349873 
 433      57027376 
 433      5A3A6169 
 434 0c07 5A5DB15A 		.ascii	"Z]\261Z\026k\220\"\255J\272Z\345\250\343\326\177\314"
 434      166B9022 
 434      AD4ABA5A 
 434      E5A8E3D6 
 434      7FCC
 435 0c19 A2F5A799 		.ascii	"\242\365\247\231\363\335\223\200\357\361\270\240Y\363"
 435      F3DD9380 
 435      EFF1B8A0 
 435      59F3
ARM GAS  /tmp/ccZrP8Fe.s 			page 35


 436 0c27 E9951DF4 		.ascii	"\351\225\035\364\037\210\345n\230\300\267\270\264S\274"
 436      1F88E56E 
 436      98C0B7B8 
 436      B453BC
 437 0c36 05E6FE30 		.ascii	"\005\346\3760\234\342\235\340\015\247x\237\231z|\301"
 437      9CE29DE0 
 437      0DA7789F 
 437      997A7CC1 
 438 0c46 071772AE 		.ascii	"\007\027r\256j\307\310\325uC5!\235:!\3644\201Cg\262"
 438      6AC7C8D5 
 438      75433521 
 438      9D3A21F4 
 438      34814367 
 439 0c5b 70229127 		.ascii	"p\"\221'\215\"#\246\"\3274^7\325\353k[z}n\024r\306B"
 439      8D2223A6 
 439      22D7345E 
 439      37D5EB6B 
 439      5B7A7D6E 
 440 0c73 AF03F3F0 		.ascii	"\257\003\363\360\274\250\2209\3213\320\236x\305\004"
 440      BCA89039 
 440      D133D09E 
 440      78C504
 441 0c82 7C2A8661 		.ascii	"|*\206a&\363\234Q\346\371\204\301\374v\0027_\214\271"
 441      26F39C51 
 441      E6F984C1 
 441      FC760237 
 441      5F8CB9
 442 0c95 19A578CB 		.ascii	"\031\245x\313\204`Q^^\276\362\027\010\345{\003\025\025"
 442      8460515E 
 442      5EBEF217 
 442      08E57B03 
 442      1515
 443 0ca7 017F7E65 		.ascii	"\001\177~e (\205\362\307\270'\024O\230N\336U\226\373"
 443      202885F2 
 443      C7B82714 
 443      4F984EDE 
 443      5596FB
 444 0cba C460287F 		.ascii	"\304`(\177|qq\276\267L\232Q)\206\362\312P\2268U\364"
 444      7C7171BE 
 444      B74C9A51 
 444      2986F2CA 
 444      50963855 
 445 0ccf 4B1542E8 		.ascii	"K\025B\350Y\217\2246\376\261\307s\213\321\340\374\252"
 445      598F9436 
 445      FEB1C773 
 445      8BD1E0FC 
 445      AA
 446 0ce0 5030BFDC 		.ascii	"P0\277\334\357\365U\225\212\371~q\232\257\374\351\374"
 446      EFF55595 
 446      8AF97E71 
 446      9AAFFCE9 
 446      FC
 447 0cf1 90545AEE 		.ascii	"\220TZ\356\227\240\202\253\012~G\026z\244\341f\305*"
 447      97A082AB 
 447      0A7E4716 
 447      7AA4E166 
 447      C52A
ARM GAS  /tmp/ccZrP8Fe.s 			page 36


 448 0d03 046F59B9 		.ascii	"\004oY\271_\314\367\224\212\317\010U>\311\243\311\311"
 448      5FCCF794 
 448      8ACF0855 
 448      3EC9A3C9 
 448      C9
 449 0d14 F478B48A 		.ascii	"\364x\264\212\203Y\256\376r_\024\303[F\360\245\262\240"
 449      8359AEFE 
 449      725F14C3 
 449      5B46F0A5 
 449      B2A0
 450 0d26 28947AA4 		.ascii	"(\224z\244L\370\344Q\036\262\211*\036o\300/\211\323"
 450      4CF8E451 
 450      1EB2892A 
 450      1E6FC02F 
 450      89D3
 451 0d38 A5BB93AA 		.ascii	"\245\273\223\252Z\346\015\004E\242\033\255\006R\275"
 451      5AE60D04 
 451      45A21BAD 
 451      0652BD
 452 0d47 D2F4E1F6 		.ascii	"\322\364\341\366jy\246\216\252 $\202\342d!X\341\221"
 452      6A79A68E 
 452      AA202482 
 452      E2642158 
 452      E191
 453 0d59 B8601117 		.ascii	"\270`\021\027|\200\017\026\214\200T\300\005\357\343"
 453      7C800F16 
 453      8C8054C0 
 453      05EFE3
 454 0d68 82BFE682 		.ascii	"\202\277\346\202\243\270\340\375\234/\310\205*y\200"
 454      A3B8E0FD 
 454      9C2FC885 
 454      2A7980
 455 0d77 76492149 		.ascii	"vI!I\220D\217\224N4,\362H\031\212\256p\227J\277\244"
 455      90448F94 
 455      4E342CF2 
 455      48198AAE 
 455      70974ABF 
 456 0d8c 568426C3 		.ascii	"V\204&\303WU}\370\252\336\361\360\036W\362R\2602+$V"
 456      57557DF8 
 456      AADEF1F0 
 456      1E57F252 
 456      B0322B24 
 457 0da1 08956584 		.ascii	"\010\225e\204\200\324\207\350\035}N\365\372\301\210"
 457      80D487E8 
 457      1D7D4EF5 
 457      FAC188
 458 0db0 3CE429F0 		.ascii	"<\344)\360\2562M\234F|\305U\025d\204f\204\244\362\012"
 458      AE324D9C 
 458      467CC555 
 458      15648466 
 458      84A4F20A 
 459 0dc4 2296FC04 		.ascii	"\"\226\374\004\252\2444\261\222|\353\257\0320(>#\006"
 459      AAA434B1 
 459      927CEBAF 
 459      1A30283E 
 459      2306
 460 0dd6 45BF174A 		.ascii	"E\277\027J\024F\225\227\304\220Dm\036\012T\005\275\242"
ARM GAS  /tmp/ccZrP8Fe.s 			page 37


 460      14469597 
 460      C490446D 
 460      1E0A5405 
 460      BDA2
 461 0de8 F24C3290 		.ascii	"\362L2\2208\245\212\226\0361bd\236\027\365\247/\341"
 461      38A58A96 
 461      1E316264 
 461      9E17F5A7 
 461      2FE1
 462 0dfa 1E52017C 		.ascii	"\036R\001|\224\252*\0071\257\012=\342t\321[%\211y\225"
 462      94AA2A07 
 462      31AF0A3D 
 462      E274D15B 
 462      25897995 
 463 0e0e 4250CA1B 		.ascii	"BP\312\0331\320\354\333 \035\206\256B\301@\263o\003"
 463      31D0ECDB 
 463      201D86AE 
 463      42C140B3 
 463      6F03
 464 0e20 BC65E3A6 		.ascii	"\274e\343\246JO\010\345\322\030\377\214I\212V\267\352"
 464      4A4F08E5 
 464      D218FF8C 
 464      498A56B7 
 464      EA
 465 0e31 B99320F3 		.ascii	"\271\223 \363\226y\310=\370)\325\363\333@\300\227M\037"
 465      9679C83D 
 465      F829D5F3 
 465      DB40C097 
 465      4D1F
 466 0e43 3D422824 		.ascii	"=B($\006\245\034\366\301C-4\255\334_\032\230\226E\301"
 466      06A51CF6 
 466      C1432D34 
 466      ADDC5F1A 
 466      989645C1 
 467 0e57 4BCA27FB 		.ascii	"K\312'\373\005\337@o\331\244\262\322\222\252P\245\350"
 467      05DF406F 
 467      D9A4B2D2 
 467      92AA50A5 
 467      E8
 468 0e68 2F550595 		.ascii	"/U\005\225\200#\012\206\331\260T0\020 \262S&C\371\014"
 468      80230A86 
 468      D9B05430 
 468      1020B253 
 468      2643F90C 
 469 0e7c C5769258 		.ascii	"\305v\222X\231M\335\006>\021+\324\330U\036\322\275U"
 469      994DDD06 
 469      3E112BD4 
 469      D8551ED2 
 469      BD55
 470 0e8e 41708394 		.ascii	"Ap\203\224\342\207\330u\371\204\220D8\271\310\023\271"
 470      E287D875 
 470      F9849044 
 470      38B9C813 
 470      B9
 471 0e9f 4957BC15 		.ascii	"IW\274\025\342\241F\212_\250\020S\251\255]\222(\004"
 471      E2A1468A 
 471      5FA81053 
ARM GAS  /tmp/ccZrP8Fe.s 			page 38


 471      A9AD5D92 
 471      2804
 472 0eb1 81B43F5D 		.ascii	"\201\264?]5M&\021\344\025B\340\315~q\376\2729/\030("
 472      354D2611 
 472      E41542E0 
 472      CD7E71FE 
 472      BA392F18 
 473 0ec6 1524212F 		.ascii	"\025$!/\356K6k\346\241\252\302\271\002$\267\030\252"
 473      EE4B366B 
 473      E6A1AAC2 
 473      B90224B7 
 473      18AA
 474 0ed8 AA10739F 		.ascii	"\252\020s\237\251\362{\245\362\000\330\244\\\232\201"
 474      A9F27BA5 
 474      F200D8A4 
 474      5C9A81
 475 0ee7 D8E28583 		.ascii	"\330\342\205\203\306\221\256!\224\373\220O\230\0342"
 475      C691AE21 
 475      94FB904F 
 475      981C32
 476 0ef6 142C649B 		.ascii	"\024,d\233S\231\340S\333R\311\244\011#\013\363\037}"
 476      5399E053 
 476      DB52C9A4 
 476      09230BF3 
 476      1F7D
 477 0f08 746CFEA4 		.ascii	"tl\376\244G&L-\200^\243\202\004z9iSY\321\007\210\347"
 477      47264C2D 
 477      805EA382 
 477      047A3969 
 477      5359D107 
 478 0f1e 627701A4 		.ascii	"bw\001\244\302\224\222\011\305\356\224\261\217\214s"
 478      C2949209 
 478      C5EE94B1 
 478      8F8C73
 479 0f2d 73256E7E 		.ascii	"s%n~\334xwjq\361\004w\001\315\013S\212\213\307\271\371"
 479      DC78776A 
 479      71F10477 
 479      01CD0B53 
 479      8A8BC7B9 
 480 0f42 E2C726F1 		.ascii	"\342\307&\361\023K\212\3711n7\357.\206g\250\360\333"
 480      134B8AF9 
 480      316E37EF 
 480      2E8667A8 
 480      F0DB
 481 0f54 B193DCFC 		.ascii	"\261\223\334\374XRs\302\0307\367{\245\326H(\377\244"
 481      585273C2 
 481      1837F77B 
 481      A5D64828 
 481      FFA4
 482 0f66 3BDF663B 		.ascii	";\337f;'\266\017\002\253\001\264\217\240O\236\311\242"
 482      27B60F02 
 482      AB01B48F 
 482      A04F9EC9 
 482      A2
 483 0f77 7237D29E 		.ascii	"r7\322\236r\360\005<\357\361\371J\001\247\277rG1\274"
 483      72F0053C 
 483      EFF1F94A 
ARM GAS  /tmp/ccZrP8Fe.s 			page 39


 483      01A7BF72 
 483      4731BC
 484 0f8a 812AE8A9 		.ascii	"\201*\350\251\202\031\024\332\027\360>[`B\012\374\237"
 484      821914DA 
 484      17F03E5B 
 484      60420AFC 
 484      9F
 485 0f9b 5F3CA1E4 		.ascii	"_<\241\344\221"
 485      91
 486 0fa0 9258F757 		.ascii	"\222X\367W\021*\017y&{\275\000\327\307\343)-\017\011"
 486      112A0F79 
 486      267BBD00 
 486      D7C7E329 
 486      2D0F09
 487 0fb3 4FFB444F 		.ascii	"O\373DOypJ\037\3017M\230\021\202~\303\007\235\253\322"
 487      79704A1F 
 487      C1374D98 
 487      11827EC3 
 487      079DABD2 
 488 0fc7 AD55F909 		.ascii	"\255U\371\011r\266\307#\372\265b\377\003\352\025\372"
 488      72B6C723 
 488      FAB562FF 
 488      03EA15FA 
 489 0fd7 1E       		.ascii	"\036"
 490              		.text
 491              		.section	.gnu.lto_.symtab.55a5542d0aa8932d,"",%progbits
 492 0000 74657374 		.ascii	"test_sequence_003\000\000\000\000\000\000\000\000\000"
 492      5F736571 
 492      75656E63 
 492      655F3030 
 492      33000000 
 493 001a 0000006A 		.ascii	"\000\000\000j\001\000\000test_step\000\000\002\000\000"
 493      01000074 
 493      6573745F 
 493      73746570 
 493      00000200 
 494 002f 00000000 		.ascii	"\000\000\000\000\000\000\000T\001\000\000nil\000\000"
 494      00000054 
 494      0100006E 
 494      696C0000 
 495 003f 02000000 		.ascii	"\002\000\000\000\000\000\000\000\000\000V\001\000\000"
 495      00000000 
 495      00005601 
 495      0000
 496 004d 67747231 		.ascii	"gtr1\000\000\002\000\000\000\000\000\000\000\000\000"
 496      00000200 
 496      00000000 
 496      00000000 
 497 005d 52010000 		.ascii	"R\001\000\000chEvtWaitAnyTimeout\000\000\002\000\000"
 497      63684576 
 497      74576169 
 497      74416E79 
 497      54696D65 
 498 0079 00000000 		.ascii	"\000\000\000\000\000\000\0001\001\000\000_test_asse"
 498      00000031 
 498      0100005F 
 498      74657374 
ARM GAS  /tmp/ccZrP8Fe.s 			page 40


 498      5F617373 
 499 008e 72740000 		.ascii	"rt\000\000\002\000\000\000\000\000\000\000\000\0006"
 499      02000000 
 499      00000000 
 499      000036
 500 009d 0100005F 		.ascii	"\001\000\000_test_assert_time_window\000\000\002\000"
 500      74657374 
 500      5F617373 
 500      6572745F 
 500      74696D65 
 501 00bc 00000000 		.ascii	"\000\000\000\000\000\000\000\000@\001\000\000chEvtS"
 501      00000000 
 501      40010000 
 501      63684576 
 501      7453
 502 00ce 69676E61 		.ascii	"ignal\000\000\002\000\000\000\000\000\000\000\000\000"
 502      6C000002 
 502      00000000 
 502      00000000 
 502      00
 503 00df 46010000 		.ascii	"F\001\000\000chThdSuspendTimeoutS\000\000\002\000\000"
 503      63685468 
 503      64537573 
 503      70656E64 
 503      54696D65 
 504 00fc 00000000 		.ascii	"\000\000\000\000\000\000\000K\001\000\000"
 504      0000004B 
 504      010000
 505              		.text
 506              		.section	.gnu.lto_.opts,"",%progbits
 507 0000 272D6D63 		.ascii	"'-mcpu=cortex-m0' '-mno-thumb-interwork' '-mthumb' "
 507      70753D63 
 507      6F727465 
 507      782D6D30 
 507      2720272D 
 508 0033 272D6767 		.ascii	"'-ggdb' '-O2' '-fomit-frame-pointer' '-falign-funct"
 508      64622720 
 508      272D4F32 
 508      2720272D 
 508      666F6D69 
 509 0066 696F6E73 		.ascii	"ions=16' '-ffunction-sections' '-fdata-sections' '-"
 509      3D313627 
 509      20272D66 
 509      66756E63 
 509      74696F6E 
 510 0099 666E6F2D 		.ascii	"fno-common' '-flto'\000"
 510      636F6D6D 
 510      6F6E2720 
 510      272D666C 
 510      746F2700 
 511              		.text
 512              		.cfi_sections	.debug_frame
 513              		.section	.text.test_003_001_setup,"ax",%progbits
 514              		.align	2
 515              		.p2align 4,,15
 516              		.code	16
 517              		.thumb_func
ARM GAS  /tmp/ccZrP8Fe.s 			page 41


 518              		.type	test_003_001_setup, %function
 519              	test_003_001_setup:
 520              	.LFB98:
 521              		.file 1 "../../../test/nil/source/test/test_sequence_003.c"
 522              		.loc 1 66 0
 523              		.cfi_startproc
 524              		.loc 1 67 0
 525 0000 014B     		ldr	r3, .L2
 526 0002 0022     		mov	r2, #0
 527 0004 1A60     		str	r2, [r3]
 528              		.loc 1 68 0
 529              		@ sp needed
 530 0006 7047     		bx	lr
 531              	.L3:
 532              		.align	2
 533              	.L2:
 534 0008 00000000 		.word	.LANCHOR0
 535              		.cfi_endproc
 536              	.LFE98:
 537              		.size	test_003_001_setup, .-test_003_001_setup
 538 000c C046C046 		.section	.text.test_003_002_execute,"ax",%progbits
 539              		.align	2
 540              		.p2align 4,,15
 541              		.code	16
 542              		.thumb_func
 543              		.type	test_003_002_execute, %function
 544              	test_003_002_execute:
 545              	.LFB100:
 546              		.loc 1 136 0
 547              		.cfi_startproc
 548 0000 F0B5     		push	{r4, r5, r6, r7, lr}
 549              		.cfi_def_cfa_offset 20
 550              		.cfi_offset 4, -20
 551              		.cfi_offset 5, -16
 552              		.cfi_offset 6, -12
 553              		.cfi_offset 7, -8
 554              		.cfi_offset 14, -4
 555              		.loc 1 147 0
 556 0002 324A     		ldr	r2, .L10
 557              		.loc 1 136 0
 558 0004 4746     		mov	r7, r8
 559              		.loc 1 144 0
 560 0006 324E     		ldr	r6, .L10+4
 561              	.LBB78:
 562              	.LBB79:
 563              	.LBB80:
 564              		.file 2 "../../../os/hal/ports/STM32/LLD/TIMv1/hal_st_lld.h"
 565              		.loc 2 141 0
 566 0008 8025     		mov	r5, #128
 567              	.LBE80:
 568              	.LBE79:
 569              	.LBE78:
 570              		.loc 1 136 0
 571 000a 80B4     		push	{r7}
 572              		.cfi_def_cfa_offset 24
 573              		.cfi_offset 8, -24
 574              		.loc 1 147 0
ARM GAS  /tmp/ccZrP8Fe.s 			page 42


 575 000c 1068     		ldr	r0, [r2]
 576              		.loc 1 144 0
 577 000e 0123     		mov	r3, #1
 578              		.loc 1 147 0
 579 0010 5521     		mov	r1, #85
 580              	.LBB85:
 581              	.LBB83:
 582              	.LBB81:
 583              		.loc 2 141 0
 584 0012 ED05     		lsl	r5, r5, #23
 585              	.LBE81:
 586              	.LBE83:
 587              	.LBE85:
 588              		.loc 1 144 0
 589 0014 3360     		str	r3, [r6]
 590              		.loc 1 147 0
 591 0016 9046     		mov	r8, r2
 592              	.LBB86:
 593              	.LBB84:
 594              	.LBB82:
 595              		.loc 2 141 0
 596 0018 6B6A     		ldr	r3, [r5, #36]
 597              	.LBE82:
 598              	.LBE84:
 599              	.LBE86:
 600              		.loc 1 147 0
 601 001a FFF7FEFF 		bl	chEvtSignal
 602              	.LVL0:
 603              		.loc 1 148 0
 604 001e 0120     		mov	r0, #1
 605 0020 FA21     		mov	r1, #250
 606 0022 8900     		lsl	r1, r1, #2
 607 0024 4042     		neg	r0, r0
 608 0026 FFF7FEFF 		bl	chEvtWaitAnyTimeout
 609              	.LVL1:
 610              		.loc 1 149 0
 611 002a 2A4F     		ldr	r7, .L10+8
 612              		.loc 1 148 0
 613 002c 041C     		mov	r4, r0
 614              	.LVL2:
 615              		.loc 1 149 0
 616 002e 431E     		sub	r3, r0, #1
 617 0030 9841     		sbc	r0, r0, r3
 618              	.LVL3:
 619 0032 C0B2     		uxtb	r0, r0
 620 0034 391C     		mov	r1, r7
 621 0036 FFF7FEFF 		bl	_test_assert
 622              	.LVL4:
 623 003a 0028     		cmp	r0, #0
 624 003c 02D0     		beq	.L9
 625              	.LVL5:
 626              	.L4:
 627              		.loc 1 176 0
 628              		@ sp needed
 629 003e 04BC     		pop	{r2}
 630 0040 9046     		mov	r8, r2
 631 0042 F0BD     		pop	{r4, r5, r6, r7, pc}
ARM GAS  /tmp/ccZrP8Fe.s 			page 43


 632              	.LVL6:
 633              	.L9:
 634              		.loc 1 150 0
 635 0044 201C     		mov	r0, r4
 636 0046 5538     		sub	r0, r0, #85
 637 0048 4442     		neg	r4, r0
 638 004a 6041     		adc	r0, r0, r4
 639              	.LVL7:
 640 004c 224C     		ldr	r4, .L10+12
 641 004e C0B2     		uxtb	r0, r0
 642 0050 211C     		mov	r1, r4
 643 0052 FFF7FEFF 		bl	_test_assert
 644              	.LVL8:
 645 0056 0028     		cmp	r0, #0
 646 0058 F1D1     		bne	.L4
 647              	.LBB87:
 648              	.LBB88:
 649              		.loc 1 159 0
 650 005a 4246     		mov	r2, r8
 651              		.loc 1 156 0
 652 005c 0223     		mov	r3, #2
 653 005e 3360     		str	r3, [r6]
 654              	.LBB89:
 655              	.LBB90:
 656              	.LBB91:
 657              		.loc 2 141 0
 658 0060 6B6A     		ldr	r3, [r5, #36]
 659              	.LBE91:
 660              	.LBE90:
 661              	.LBE89:
 662              		.loc 1 159 0
 663 0062 1368     		ldr	r3, [r2]
 664              		.loc 1 160 0
 665 0064 FA21     		mov	r1, #250
 666              		.loc 1 159 0
 667 0066 1861     		str	r0, [r3, #16]
 668              		.loc 1 160 0
 669 0068 0120     		mov	r0, #1
 670 006a 8900     		lsl	r1, r1, #2
 671 006c 4042     		neg	r0, r0
 672 006e FFF7FEFF 		bl	chEvtWaitAnyTimeout
 673              	.LVL9:
 674 0072 8046     		mov	r8, r0
 675              	.LVL10:
 676              		.loc 1 161 0
 677 0074 431E     		sub	r3, r0, #1
 678 0076 9841     		sbc	r0, r0, r3
 679              	.LVL11:
 680 0078 C0B2     		uxtb	r0, r0
 681 007a 391C     		mov	r1, r7
 682 007c FFF7FEFF 		bl	_test_assert
 683              	.LVL12:
 684 0080 0028     		cmp	r0, #0
 685 0082 DCD1     		bne	.L4
 686              		.loc 1 162 0
 687 0084 4046     		mov	r0, r8
 688 0086 5538     		sub	r0, r0, #85
ARM GAS  /tmp/ccZrP8Fe.s 			page 44


 689 0088 4342     		neg	r3, r0
 690 008a 5841     		adc	r0, r0, r3
 691 008c C0B2     		uxtb	r0, r0
 692 008e 211C     		mov	r1, r4
 693 0090 FFF7FEFF 		bl	_test_assert
 694              	.LVL13:
 695 0094 0028     		cmp	r0, #0
 696 0096 D2D1     		bne	.L4
 697              		.loc 1 170 0
 698 0098 FA21     		mov	r1, #250
 699              		.loc 1 167 0
 700 009a 0323     		mov	r3, #3
 701              		.loc 1 170 0
 702 009c 8900     		lsl	r1, r1, #2
 703              		.loc 1 167 0
 704 009e 3360     		str	r3, [r6]
 705              	.LBB92:
 706              	.LBB93:
 707              	.LBB94:
 708              		.loc 2 141 0
 709 00a0 6D6A     		ldr	r5, [r5, #36]
 710              	.LBE94:
 711              	.LBE93:
 712              	.LBE92:
 713              		.loc 1 170 0
 714 00a2 FFF7FEFF 		bl	chEvtWaitAnyTimeout
 715              	.LVL14:
 716              		.loc 1 171 0
 717 00a6 0D4A     		ldr	r2, .L10+16
 718 00a8 FA23     		mov	r3, #250
 719 00aa 9B00     		lsl	r3, r3, #2
 720              		.loc 1 170 0
 721 00ac 061C     		mov	r6, r0
 722              	.LVL15:
 723              		.loc 1 171 0
 724 00ae A918     		add	r1, r5, r2
 725 00b0 E818     		add	r0, r5, r3
 726              	.LVL16:
 727 00b2 0B4A     		ldr	r2, .L10+20
 728 00b4 FFF7FEFF 		bl	_test_assert_time_window
 729              	.LVL17:
 730 00b8 0028     		cmp	r0, #0
 731 00ba C0D1     		bne	.L4
 732              		.loc 1 174 0
 733 00bc 7042     		neg	r0, r6
 734 00be 7041     		adc	r0, r0, r6
 735              	.LVL18:
 736 00c0 211C     		mov	r1, r4
 737 00c2 C0B2     		uxtb	r0, r0
 738 00c4 FFF7FEFF 		bl	_test_assert
 739              	.LVL19:
 740 00c8 B9E7     		b	.L4
 741              	.L11:
 742 00ca C046     		.align	2
 743              	.L10:
 744 00cc 00000000 		.word	nil
 745 00d0 00000000 		.word	test_step
ARM GAS  /tmp/ccZrP8Fe.s 			page 45


 746 00d4 00000000 		.word	.LC3
 747 00d8 0C000000 		.word	.LC5
 748 00dc E9030000 		.word	1001
 749 00e0 20000000 		.word	.LC7
 750              	.LBE88:
 751              	.LBE87:
 752              		.cfi_endproc
 753              	.LFE100:
 754              		.size	test_003_002_execute, .-test_003_002_execute
 755 00e4 C046C046 		.section	.text.test_003_001_execute,"ax",%progbits
 755      C046C046 
 755      C046C046 
 756              		.align	2
 757              		.p2align 4,,15
 758              		.code	16
 759              		.thumb_func
 760              		.type	test_003_001_execute, %function
 761              	test_003_001_execute:
 762              	.LFB99:
 763              		.loc 1 70 0
 764              		.cfi_startproc
 765 0000 F0B5     		push	{r4, r5, r6, r7, lr}
 766              		.cfi_def_cfa_offset 20
 767              		.cfi_offset 4, -20
 768              		.cfi_offset 5, -16
 769              		.cfi_offset 6, -12
 770              		.cfi_offset 7, -8
 771              		.cfi_offset 14, -4
 772              		.loc 1 77 0
 773 0002 264C     		ldr	r4, .L17
 774              		.loc 1 70 0
 775 0004 4746     		mov	r7, r8
 776              		.loc 1 77 0
 777 0006 0123     		mov	r3, #1
 778              		.loc 1 70 0
 779 0008 80B4     		push	{r7}
 780              		.cfi_def_cfa_offset 24
 781              		.cfi_offset 8, -24
 782              		.loc 1 77 0
 783 000a 2360     		str	r3, [r4]
 784              	.LBB118:
 785              	.LBB119:
 786              	.LBB120:
 787              		.file 3 "../../../os/common/ext/CMSIS/include/cmsis_gcc.h"
 788              		.loc 3 71 0
 789              	@ 71 "../../../os/common/ext/CMSIS/include/cmsis_gcc.h" 1
 790 000c 72B6     		cpsid i
 791              	@ 0 "" 2
 792              		.code	16
 793              	.LBE120:
 794              	.LBE119:
 795              	.LBE118:
 796              		.loc 1 80 0
 797 000e 0021     		mov	r1, #0
 798 0010 2348     		ldr	r0, .L17+4
 799 0012 FFF7FEFF 		bl	chThdSuspendTimeoutS
 800              	.LVL20:
ARM GAS  /tmp/ccZrP8Fe.s 			page 46


 801 0016 061C     		mov	r6, r0
 802              	.LVL21:
 803              	.LBB121:
 804              	.LBB122:
 805              	.LBB123:
 806              		.loc 3 60 0
 807              	@ 60 "../../../os/common/ext/CMSIS/include/cmsis_gcc.h" 1
 808 0018 62B6     		cpsie i
 809              	@ 0 "" 2
 810              		.code	16
 811              	.LBE123:
 812              	.LBE122:
 813              	.LBE121:
 814              		.loc 1 82 0
 815 001a 214B     		ldr	r3, .L17+4
 816 001c 214D     		ldr	r5, .L17+8
 817 001e 1B68     		ldr	r3, [r3]
 818 0020 291C     		mov	r1, r5
 819 0022 5A42     		neg	r2, r3
 820 0024 5341     		adc	r3, r3, r2
 821 0026 D8B2     		uxtb	r0, r3
 822              	.LVL22:
 823 0028 FFF7FEFF 		bl	_test_assert
 824              	.LVL23:
 825 002c 0028     		cmp	r0, #0
 826 002e 02D0     		beq	.L16
 827              	.LVL24:
 828              	.L12:
 829              		.loc 1 101 0
 830              		@ sp needed
 831 0030 04BC     		pop	{r2}
 832 0032 9046     		mov	r8, r2
 833 0034 F0BD     		pop	{r4, r5, r6, r7, pc}
 834              	.LVL25:
 835              	.L16:
 836              		.loc 1 83 0
 837 0036 1C4F     		ldr	r7, .L17+12
 838 0038 7042     		neg	r0, r6
 839 003a 7041     		adc	r0, r0, r6
 840              	.LVL26:
 841 003c C0B2     		uxtb	r0, r0
 842 003e 391C     		mov	r1, r7
 843 0040 FFF7FEFF 		bl	_test_assert
 844              	.LVL27:
 845 0044 0028     		cmp	r0, #0
 846 0046 F3D1     		bne	.L12
 847              	.LBB124:
 848              	.LBB125:
 849              		.loc 1 89 0
 850 0048 0223     		mov	r3, #2
 851 004a 2360     		str	r3, [r4]
 852              	.LBB126:
 853              	.LBB127:
 854              	.LBB128:
 855              		.loc 3 71 0
 856              	@ 71 "../../../os/common/ext/CMSIS/include/cmsis_gcc.h" 1
 857 004c 72B6     		cpsid i
ARM GAS  /tmp/ccZrP8Fe.s 			page 47


 858              	@ 0 "" 2
 859              		.code	16
 860              	.LBE128:
 861              	.LBE127:
 862              	.LBE126:
 863              		.loc 1 93 0
 864 004e 174E     		ldr	r6, .L17+16
 865              	.LBB129:
 866              	.LBB130:
 867              	.LBB131:
 868              		.loc 2 141 0
 869 0050 8023     		mov	r3, #128
 870              	.LBE131:
 871              	.LBE130:
 872              	.LBE129:
 873              		.loc 1 93 0
 874 0052 FA21     		mov	r1, #250
 875              	.LBB136:
 876              	.LBB134:
 877              	.LBB132:
 878              		.loc 2 141 0
 879 0054 DB05     		lsl	r3, r3, #23
 880              	.LBE132:
 881              	.LBE134:
 882              	.LBE136:
 883              		.loc 1 93 0
 884 0056 301C     		mov	r0, r6
 885 0058 8900     		lsl	r1, r1, #2
 886              	.LBB137:
 887              	.LBB135:
 888              	.LBB133:
 889              		.loc 2 141 0
 890 005a 5C6A     		ldr	r4, [r3, #36]
 891              	.LBE133:
 892              	.LBE135:
 893              	.LBE137:
 894              		.loc 1 93 0
 895 005c FFF7FEFF 		bl	chThdSuspendTimeoutS
 896              	.LVL28:
 897 0060 8046     		mov	r8, r0
 898              	.LVL29:
 899              	.LBB138:
 900              	.LBB139:
 901              	.LBB140:
 902              		.loc 3 60 0
 903              	@ 60 "../../../os/common/ext/CMSIS/include/cmsis_gcc.h" 1
 904 0062 62B6     		cpsie i
 905              	@ 0 "" 2
 906              		.code	16
 907              	.LBE140:
 908              	.LBE139:
 909              	.LBE138:
 910              		.loc 1 95 0
 911 0064 FA23     		mov	r3, #250
 912 0066 9B00     		lsl	r3, r3, #2
 913 0068 E018     		add	r0, r4, r3
 914              	.LVL30:
ARM GAS  /tmp/ccZrP8Fe.s 			page 48


 915 006a 114B     		ldr	r3, .L17+20
 916 006c 114A     		ldr	r2, .L17+24
 917 006e E118     		add	r1, r4, r3
 918 0070 FFF7FEFF 		bl	_test_assert_time_window
 919              	.LVL31:
 920 0074 0028     		cmp	r0, #0
 921 0076 DBD1     		bne	.L12
 922              		.loc 1 98 0
 923 0078 3068     		ldr	r0, [r6]
 924 007a 291C     		mov	r1, r5
 925 007c 4342     		neg	r3, r0
 926 007e 5841     		adc	r0, r0, r3
 927 0080 C0B2     		uxtb	r0, r0
 928 0082 FFF7FEFF 		bl	_test_assert
 929              	.LVL32:
 930 0086 0028     		cmp	r0, #0
 931 0088 D2D1     		bne	.L12
 932              		.loc 1 99 0
 933 008a 4046     		mov	r0, r8
 934 008c 0130     		add	r0, r0, #1
 935 008e 4342     		neg	r3, r0
 936 0090 5841     		adc	r0, r0, r3
 937 0092 391C     		mov	r1, r7
 938 0094 C0B2     		uxtb	r0, r0
 939 0096 FFF7FEFF 		bl	_test_assert
 940              	.LVL33:
 941 009a C9E7     		b	.L12
 942              	.L18:
 943              		.align	2
 944              	.L17:
 945 009c 00000000 		.word	test_step
 946 00a0 00000000 		.word	gtr1
 947 00a4 34000000 		.word	.LC11
 948 00a8 40000000 		.word	.LC13
 949 00ac 00000000 		.word	.LANCHOR0
 950 00b0 E9030000 		.word	1001
 951 00b4 20000000 		.word	.LC7
 952              	.LBE125:
 953              	.LBE124:
 954              		.cfi_endproc
 955              	.LFE99:
 956              		.size	test_003_001_execute, .-test_003_001_execute
 957              		.global	test_sequence_003
 958 00b8 C046C046 		.section	.rodata.test_sequence_003,"a",%progbits
 958      C046C046 
 959              		.align	2
 960              		.type	test_sequence_003, %object
 961              		.size	test_sequence_003, 12
 962              	test_sequence_003:
 963 0000 00000000 		.word	test_003_001
 964 0004 00000000 		.word	test_003_002
 965 0008 00000000 		.word	0
 966              		.section	.bss.tr1,"aw",%nobits
 967              		.align	2
 968              		.set	.LANCHOR0,. + 0
 969              		.type	tr1, %object
 970              		.size	tr1, 4
ARM GAS  /tmp/ccZrP8Fe.s 			page 49


 971              	tr1:
 972 0000 00000000 		.space	4
 973              		.section	.rodata.test_003_001,"a",%progbits
 974              		.align	2
 975              		.type	test_003_001, %object
 976              		.size	test_003_001, 16
 977              	test_003_001:
 978 0000 74000000 		.word	.LC18
 979 0004 00000000 		.word	test_003_001_setup
 980 0008 00000000 		.word	0
 981 000c 00000000 		.word	test_003_001_execute
 982              		.section	.rodata.test_003_002,"a",%progbits
 983              		.align	2
 984              		.type	test_003_002, %object
 985              		.size	test_003_002, 16
 986              	test_003_002:
 987 0000 58000000 		.word	.LC17
 988 0004 00000000 		.word	0
 989 0008 00000000 		.word	0
 990 000c 00000000 		.word	test_003_002_execute
 991              		.section	.rodata.str1.4,"aMS",%progbits,1
 992              		.align	2
 993              	.LC3:
 994 0000 74696D65 		.ascii	"timed out\000"
 994      64206F75 
 994      7400
 995 000a 0000     		.space	2
 996              	.LC5:
 997 000c 77726F6E 		.ascii	"wrong events mask\000"
 997      67206576 
 997      656E7473 
 997      206D6173 
 997      6B00
 998 001e 0000     		.space	2
 999              	.LC7:
 1000 0020 6F757420 		.ascii	"out of time window\000"
 1000      6F662074 
 1000      696D6520 
 1000      77696E64 
 1000      6F7700
 1001 0033 00       		.space	1
 1002              	.LC11:
 1003 0034 6E6F7420 		.ascii	"not NULL\000"
 1003      4E554C4C 
 1003      00
 1004 003d 000000   		.space	3
 1005              	.LC13:
 1006 0040 77726F6E 		.ascii	"wrong returned message\000"
 1006      67207265 
 1006      7475726E 
 1006      6564206D 
 1006      65737361 
 1007 0057 00       		.space	1
 1008              	.LC17:
 1009 0058 4576656E 		.ascii	"Events Flags functionality\000"
 1009      74732046 
 1009      6C616773 
ARM GAS  /tmp/ccZrP8Fe.s 			page 50


 1009      2066756E 
 1009      6374696F 
 1010 0073 00       		.space	1
 1011              	.LC18:
 1012 0074 53757370 		.ascii	"Suspend and Resume functionality\000"
 1012      656E6420 
 1012      616E6420 
 1012      52657375 
 1012      6D652066 
 1013 0095 000000   		.text
 1014              	.Letext0:
 1015              		.file 4 "/usr/lib/gcc/arm-none-eabi/4.8.2/include/stddef.h"
 1016              		.file 5 "/usr/include/newlib/machine/_default_types.h"
 1017              		.file 6 "/usr/include/newlib/stdint.h"
 1018              		.file 7 "../../../os/common/ports/ARMCMx/compilers/GCC/chtypes.h"
 1019              		.file 8 "../../../os/nil/include/ch.h"
 1020              		.file 9 "../../../os/common/ports/ARMCMx/chcore.h"
 1021              		.file 10 "../../../os/common/ports/ARMCMx/chcore_v6m.h"
 1022              		.file 11 "../../../os/hal/ports/STM32/LLD/TIMv1/stm32_tim.h"
 1023              		.file 12 "../../../test/lib/ch_test.h"
 1024              		.file 13 "../../../os/common/ports/ARMCMx/chcore_timer.h"
 1025              		.file 14 "../../../test/nil/source/test/test_root.h"