ARM GAS  /tmp/ccJqIDY2.s 			page 1


   1              		.cpu cortex-m0
   2              		.fpu softvfp
   3              		.eabi_attribute 20, 1
   4              		.eabi_attribute 21, 1
   5              		.eabi_attribute 23, 3
   6              		.eabi_attribute 24, 1
   7              		.eabi_attribute 25, 1
   8              		.eabi_attribute 26, 1
   9              		.eabi_attribute 30, 2
  10              		.eabi_attribute 34, 0
  11              		.eabi_attribute 18, 4
  12              		.code	16
  13              		.file	"test_root.c"
  14              		.text
  15              	.Ltext0:
  16              		.section	.gnu.lto_.jmpfuncs.a2b2be6d55aea5c3,"",%progbits
  17 0000 789C6362 		.ascii	"x\234cb`b\300\006r\2404#\003##S\004c&#\303/F \227\211"
  17      6062C006 
  17      72A03423 
  17      03232353 
  17      04632623 
  18 001a 19489401 		.ascii	"\031H\224\001i\220\020c(\220\301T\315\360\253\241\243"
  18      69901063 
  18      2890C154 
  18      CDF0ABA1 
  18      A3
  19 002b 41209391 		.ascii	"A \223\221)\227\021\254\005,\007R\207$\307\222\313\310"
  19      299711AC 
  19      052C0752 
  19      8724C792 
  19      CBC8
  20 003d 08976305 		.ascii	"\010\227c\005\231\213\"\007q\003\000\226i\021#"
  20      998B2207 
  20      71030096 
  20      691123
  21              		.text
  22              		.section	.gnu.lto_.inline.a2b2be6d55aea5c3,"",%progbits
  23 0000 789C6362 		.ascii	"x\234cb`b\300\006l\2404#\003\203x\233%#\003\023\337"
  23      6062C006 
  23      6CA03423 
  23      0383789B 
  23      25230313 
  24 0015 83C5B60C 		.ascii	"\203\305\266\014,\020\325L\334\214@\011F.\240$3\017"
  24      2C10D54C 
  24      DC8C4009 
  24      462EA024 
  24      330F
  25 0027 508E1142 		.ascii	"P\216\021B1\300(\210<\003\000\243\320\003P"
  25      31C02888 
  25      3C0300A3 
  25      D00350
  26              		.text
  27              		.section	.gnu.lto_.pureconst.a2b2be6d55aea5c3,"",%progbits
  28 0000 789C6362 		.ascii	"x\234cb`b`f\200\000F\0063\000\000\241\000?"
  28      60626066 
  28      80004606 
  28      330000A1 
ARM GAS  /tmp/ccJqIDY2.s 			page 2


  28      003F
  29              		.text
  30              		.section	.gnu.lto_test_support.a2b2be6d55aea5c3,"",%progbits
  31 0000 789C9D52 		.ascii	"x\234\235R;l\323P\024\275\3679N]\247\205R\376\013D\235"
  31      3B6CD350 
  31      14BDF739 
  31      4E5DA785 
  31      52FE0B44 
  32 0015 10A8B1BA 		.ascii	"\020\250\261\2720\"P'\206\014\320F\202)*\257Vj\251\216"
  32      30225027 
  32      860CD046 
  32      82292AAF 
  32      566AA98E 
  33 0029 A3D84545 		.ascii	"\243\330EE\014}\241ABB\252\"\246\362i\225P\006>\022"
  33      0C7DA141 
  33      4242AA22 
  33      A6F26995 
  33      50063E12 
  34 003d 88AD1384 		.ascii	"\210\255\023\204\217\252\360kXX\030P$\004\352\302oC"
  34      8FAAF06B 
  34      58581850 
  34      2404EAC2 
  34      6F43
  35 004f 1D1ADEF3 		.ascii	"\035\032\336\363sLi\000!,\373\331\367\276s\316\275\357"
  35      734C6900 
  35      212CFBD9 
  35      F7BE73CE 
  35      BDEF
  36 0061 1E1320B0 		.ascii	"\036\023 \260\361:\304\237y\005\340\026\177c\024\220"
  36      F13AC49F 
  36      7905E016 
  36      7F631490 
  37 0071 9496010A 		.ascii	"\224\226\001\012\032AE~($R\326\201\351\352\327'\000"
  37      1A41457E 
  37      282452D6 
  37      81E9EAD7 
  37      2700
  38 0083 AC2B82AA 		.ascii	"\254+\202\252\314\253\022\360HC\230\"JD\305\251\223"
  38      CCAB12F0 
  38      48439822 
  38      4A44C5A9 
  38      93
  39 0094 E80BDE23 		.ascii	"\350\013\336#\325F\263y\367\365\322\215k8Gz\025\264"
  39      D546B379 
  39      F7F5D28D 
  39      6B38477A 
  39      15B4
  40 00a6 1134B0FC 		.ascii	"\0214\260\374M\025\212\214\225\342}Pa\354R\365\315\322"
  40      4D158A8C 
  40      95E27D50 
  40      61EC52F5 
  40      CDD2
  41 00b8 CC6E563E 		.ascii	"\314nV>Wbk\315&Z\210\004\372\021(\302\011\036\220\270"
  41      57626BCD 
  41      265A8804 
  41      FA1128C2 
  41      091E90B8 
ARM GAS  /tmp/ccJqIDY2.s 			page 3


  42 00cc FF52221B 		.ascii	"\377R\"\033\373\245\276\3200_\021R\234\202\3123 #XA"
  42      FBA5BED0 
  42      305F1152 
  42      9C82CA33 
  42      20235841 
  43 00e0 1546F03A 		.ascii	"\025F\360:\366A\006\371i^\301\343\305\331\317\273d\376"
  43      F64106F9 
  43      695EC1E3 
  43      C5D9CFBB 
  43      64FE
  44 00f2 00DC6645 		.ascii	"\000\334fE.\026\271\012W\012\214\365X\250\236\205Uv"
  44      2E16B90A 
  44      570A8CF5 
  44      58A89E85 
  44      5576
  45 0104 417C456D 		.ascii	"A|Em\024\202\242V\324\327?%O\341g\374\342B\352f\366"
  45      1482A256 
  45      D4D73F25 
  45      4FE167FC 
  45      E242EA66 
  46 0119 9F94C8DF 		.ascii	"\237\224\310\337\225\304\225\342\335\361\271)\313P\270"
  46      95C495E2 
  46      DDF1B929 
  46      CB50B8
  47 0128 BF321F0D 		.ascii	"\2772\037\015\006\322\232L\365\316\314\247\330\2760"
  47      06D29A4C 
  47      F5CECCA7 
  47      D8BE30
  48 0137 BAF8EE18 		.ascii	"\272\370\356\030\200\254LQ\214&\260\017\241\304e\374"
  48      80AC4C51 
  48      8C26B00F 
  48      A1C465FC 
  49 0147 600F5CC6 		.ascii	"`\017\\\30696{\330\302\016\271\307\333}\273\370\245"
  49      39367BD8 
  49      C20EB9C7 
  49      DB7DBBF8 
  49      A5
  50 0158 86929641 		.ascii	"\206\222\226A\355\277N\017P\203\247\037\012\003\241"
  50      EDBF4E0F 
  50      5083A71F 
  50      0A03A1
  51 0167 8A80FCE2 		.ascii	"\212\200\374\342C\212\237\251\254+u(6\036\274\327%\016"
  51      438A9FA9 
  51      AC2B7528 
  51      361EBCD7 
  51      250E
  52 0179 2054D6A8 		.ascii	" T\326\250\260!\310h\262R\000\262\260\263%\241\372\263"
  52      B021C868 
  52      B25200B2 
  52      B0B325A1 
  52      FAB3
  53 018b A8C3F9C6 		.ascii	"\250\303\371\306\303\351v\015\235\006s\373\251\0218"
  53      C3E9760D 
  53      9D0673FB 
  53      A91138
  54 019a ED771C13 		.ascii	"\355w\034\023R]\000\202^[h\247wS?\016\351\233lT\326"
  54      525D0082 
ARM GAS  /tmp/ccJqIDY2.s 			page 4


  54      5E5B68A7 
  54      77533F0E 
  54      E99B6C54 
  55 01af D141D037 		.ascii	"\321A\3207\373\364\362s\245\215\335C\203\221\360\377"
  55      FBF4F273 
  55      A58DDD43 
  55      8391F0FF 
  56 01bf 49C0B7A4 		.ascii	"I\300\267\2448\274W\300\247\033/\027bm\370\2554p\300"
  56      38BC57C0 
  56      A71B2F17 
  56      626DF8AD 
  56      3470C0
  57 01d2 C26D00DC 		.ascii	"\302m\000\334\336o+\337\273\333\355]\213\355\015\243"
  57      DE6F2BDF 
  57      BBDBED5D 
  57      8BED0DA3 
  58 01e2 171FD7D9 		.ascii	"\027\037\327\331\253\361\247\263eo\345\217\366\362y"
  58      ABF1A7B3 
  58      656FE58F 
  58      F6F279
  59 01f1 97EBEDDD 		.ascii	"\227\353\355\335n\247\250\207?\333\216U\344]\354\224"
  59      6EA7A887 
  59      3FDB8E55 
  59      E45DEC94 
  60 0201 84610C7C 		.ascii	"\204a\014|\333\237H\030\362\366L\3273\262\326\270\341"
  60      DB9F4818 
  60      F2F64CD7 
  60      33B2D6B8 
  60      E1
  61 0212 3A13796A 		.ascii	":\023yj\312X,\351\274\343x\011\012\304\313\015\204h"
  61      CA582CE9 
  61      BCE37809 
  61      0AC4CB0D 
  61      8468
  62 0224 C735A863 		.ascii	"\3075\250c\333N\3260'=c09tt\310\260\262t|b\3244\250"
  62      DB4ED630 
  62      273D6330 
  62      397474C8 
  62      B0B2747C 
  63 023c ED5A6E3A 		.ascii	"\355Zn:Cib\014\372\177\303\3109y\3175\216\034O\016&"
  63      4369620C 
  63      FA7FC3C8 
  63      3979CF35 
  63      8E1C4F0E 
  64 0251 270D3A46 		.ascii	"'\015:F\235\274\231>}\320\346h\215\346\\k4nA\207m\332"
  64      9DBC993E 
  64      7DD0E668 
  64      8DE65C6B 
  64      346E4187 
  65 0267 4EFE8C4C 		.ascii	"N\376\214L\230<\361\0033(\016\037"
  65      983CF103 
  65      33280E1F 
  66              		.text
  67              		.section	.gnu.lto_.symbol_nodes.a2b2be6d55aea5c3,"",%progbits
  68 0000 789C45CC 		.ascii	"x\234E\314\273\015\3020\024F\341c;N\000\361\334\212"
  68      BB0DC230 
  68      1446E163 
ARM GAS  /tmp/ccJqIDY2.s 			page 5


  68      3B4E00F1 
  68      DC8A
  69 0012 7598E046 		.ascii	"u\230\340F\212\004\005\015\023 !\266\240\245\247d\000"
  69      8A04050D 
  69      132021B6 
  69      A0A5A764 
  69      00
  70 0023 1208EFE7 		.ascii	"\022\010\357\347\002\344\312\210\270\371\376S\\[,%\277"
  70      02E4CA88 
  70      B8F9FE53 
  70      5C5B2C25 
  70      BF
  71 0034 674B0466 		.ascii	"gK\004f\033\020\231\017}\216\365\202/0\312\036\224\003"
  71      1B10990F 
  71      7D8EF582 
  71      2F30CA1E 
  71      9403
  72 0046 4ED91129 		.ascii	"N\331\021)G|u\342O\304\312\231D\271\320P\2564\225\033"
  72      477C75E2 
  72      4FC4CA99 
  72      44B9D050 
  72      AE34951B 
  73 005a AD0AF341 		.ascii	"\255\012\363AL\370:M\215y#\266\256\027\342\352z\"Q]"
  73      4CF83A4D 
  73      8D7923B6 
  73      AE17E2EA 
  73      7A22515D 
  74 006e 0FC4D775 		.ascii	"\017\304\327uG\342\1779\006\254\027\333i\342\350\223"
  74      47E27F39 
  74      06AC17DB 
  74      69E2E893 
  75 007e 87D1231B 		.ascii	"\207\321#\033\027\253\221\243\3132\214\016\3530\332"
  75      17AB91A3 
  75      CB328C0E 
  75      EB30DA
  76 008d 64936AF0 		.ascii	"d\223j\360\005\325\012BS"
  76      05D50A42 
  76      53
  77              		.text
  78              		.section	.gnu.lto_.refs.a2b2be6d55aea5c3,"",%progbits
  79 0000 789C25C1 		.ascii	"x\234%\301\271\021\000 \020\3040\257\031\216\257\006"
  79      B9110020 
  79      10C430AF 
  79      198EAF06 
  80 0010 FA6F9300 		.ascii	"\372o\223\000I\344\362\025I$Fm\325-\207\323\345\366"
  80      49E4F215 
  80      4924466D 
  80      D52D87D3 
  80      E5F6
  81 0022 F0000958 		.ascii	"\360\000\011X\000\204"
  81      0084
  82              		.text
  83              		.section	.gnu.lto_.decls.a2b2be6d55aea5c3,"",%progbits
  84 0000 789CBD59 		.ascii	"x\234\275Y{p\023\307\031\337]\331\262eL\002$dDC\202"
  84      7B7013C7 
  84      19DF5DD9 
  84      B2654C02 
ARM GAS  /tmp/ccJqIDY2.s 			page 6


  84      24644443 
  85 0015 4943664A 		.ascii	"ICfJ\032\033\363p\310t&i\206vR\376\240\177@3\323\277"
  85      1A1BF370 
  85      C8742669 
  85      867652FE 
  85      A07F4033 
  86 002b AA39E48B 		.ascii	"\2529\344\213\345A\222\305\335\211\307\2643\254\261"
  86      E54192C5 
  86      DD89C7B4 
  86      33ACB1
  87 003a 314E535A 		.ascii	"1NSZcB\015\031\002v\203\323P\207\206Wx\024<(i1&\004"
  87      63420D19 
  87      027683D3 
  87      50878657 
  87      78143C28 
  88 0052 308F2629 		.ascii	"0\217&)\246E\230\222B\333!\230Bx\005\324o\367\356t\017"
  88      A6459892 
  88      42DB2198 
  88      427805D4 
  88      6FF7EE74 
  89 0067 DDD99269 		.ascii	"\335\331\222iz\343\357\264{\273\373\373\036\373\355"
  89      7AE3EFB4 
  89      7BBBFBFB 
  89      1EFBED
  90 0076 B7DFAE09 		.ascii	"\267\337\256\011\"\350{\030\241\024<\207\236@\350'\371"
  90      22E87B18 
  90      A1143C87 
  90      9E40E827 
  90      F9
  91 0087 08BE20F4 		.ascii	"\010\276 \364<\220\027\250\000\250\015\250C\253\367"
  91      3C9017A8 
  91      00A80DA8 
  91      43ABF7
  92 0096 03DD41EA 		.ascii	"\003\335A\352\303\332\206\303\330\207\201\374@\217\002"
  92      C3DA86C3 
  92      D88781FC 
  92      408F02
  93 00a5 95004D00 		.ascii	"\225\000M\000\232\0104\014\332K\341w\022\320d\240\251"
  93      9A08340C 
  93      DA4BE177 
  93      12D064A0 
  93      A9
  94 00b6 402F02CD 		.ascii	"@/\002\315\005\022\201B@\363\200\242@\3631\262<\014"
  94      05128142 
  94      40F380A2 
  94      40F331B2 
  94      3C0C
  95 00c8 D7AFF12C 		.ascii	"\327\257\361,\206\362\003\354\027\350\026\320UM\016"
  95      86F203EC 
  95      17E816D0 
  95      554D0E
  96 00d7 19BE2B40 		.ascii	"\031\276+@O\003\305\261*\327S\360\273\000\253\362\216"
  96      4F03C5B1 
  96      2AD753F0 
  96      BB00ABF2 
  96      8E
  97 00e8 87DF8558 		.ascii	"\207\337\205X\225\177,\374\316\006\032\003\264\010\253"
ARM GAS  /tmp/ccJqIDY2.s 			page 7


  97      957F2CFC 
  97      CE061A03 
  97      B408AB
  98 00f7 B28F865F 		.ascii	"\262\217\206_\306\366&Ree<\027\003\375L\223\177\202"
  98      C6F62652 
  98      65653C17 
  98      03FD4C93 
  98      7F82
  99 0109 A6CFA39A 		.ascii	"\246\317\243\232~\265@\365\232\276y\320\177\244\246"
  99      7EB540F5 
  99      9ABE79D0 
  99      7FA4A6
 100 0118 17D3AFD4 		.ascii	"\027\323\257\324&\277\0175R\272\224\2666\320\037t\203"
 100      26BF0F35 
 100      52BA94B6 
 100      36D01F74 
 100      83
 101 0129 EC3FC602 		.ascii	"\354?\306\002~\300\207Jx\241\330\307\207O@\033)mJ^\350"
 101      7EC0874A 
 101      78A1D8C7 
 101      874F401B 
 101      296D4A5E 
 102 013e BBE8A1B4 		.ascii	"\273\350\241\264P\300m\330\007\246\377\016F\023\321"
 102      50C06DD8 
 102      07A6FF0E 
 102      4613D1
 103 014d 260A2D94 		.ascii	"&\012-\224\366}\323\206\232#tg\303\201\017\360RJ\241"
 103      F67DD386 
 103      9A237467 
 103      C3810FF0 
 103      524AA1
 104 0160 A19D8387 		.ascii	"\241\235\203\2071\022\360F<1g\244\336\345\373\236\343"
 104      3112F046 
 104      3C3167A4 
 104      DEE5FB9E 
 104      E3
 105 0171 42BEC371 		.ascii	"B\276\303q\336\302V \001\027\370\314\"\362\272\336\201"
 105      DEC25620 
 105      0117F8CC 
 105      22F2BADE 
 105      81
 106 0182 A1F166AD 		.ascii	"\241\361f\255\300\\\355A\3645w\037\206~n\250f\251\214"
 106      C05CED41 
 106      F435771F 
 106      867E6EA8 
 106      66A98C
 107 0195 422BC1BA 		.ascii	"B+\301\272\264\304\244q+\326U~\330d\274\303gv\341:n"
 107      B4C4A471 
 107      2BD6557E 
 107      D864BCC3 
 107      6776E13A 
 108 01aa BCCD7814 		.ascii	"\274\315x\024(\375\261M\351A\201\010\3723\037\262\005"
 108      28FDB14D 
 108      E9418108 
 108      FA331FB2 
 108      05
 109 01bb 86AB0339 		.ascii	"\206\253\00394Ml\355K`nM\326\202,\240\226g<je\335\267"
ARM GAS  /tmp/ccJqIDY2.s 			page 8


 109      344D6CED 
 109      4B606E4D 
 109      D6822CA0 
 109      96673C6A 
 110 01d2 F7757BD6 		.ascii	"\367u{\326\322D\275G\343\330\352u\233-\202\222\234\343"
 110      D244BD47 
 110      E3D8EA75 
 110      9B2D8292 
 110      9CE3
 111 01e4 0E1BC7E4 		.ascii	"\016\033\307\344\336c\037/\305\265\\\231\035Y\360\\"
 111      DE631F2F 
 111      C5B55C99 
 111      1D59F05C 
 112 01f4 9A78FFA3 		.ascii	"\232x\377\243\2261\264\365C<\250\351\210\316\377I\316"
 112      9631B4F5 
 112      433CA8E9 
 112      88CEFF49 
 112      CE
 113 0205 BF8530FE 		.ascii	"\277\2050\376{\354\374[N\036\250\323\370\357\311\212"
 113      7BECFC5B 
 113      4E1EA8D3 
 113      F8EFC98A 
 114 0215 FFDAA3AF 		.ascii	"\377\332\243\257g\362\027\360\363\243\007\362\322\275"
 114      67F217F0 
 114      F3A307F2 
 114      D2BD
 115 0223 C73EEFD7 		.ascii	"\307>\357\327\270t\302H\202\216\023\273\237\2760\314"
 115      B874C248 
 115      828E13BB 
 115      9FBE30CC 
 116 0233 EA495037 		.ascii	"\352IP7u \350tZ~'>ZQ}\264\016\026\271A\321\256U\270"
 116      7520E874 
 116      5A7E273E 
 116      5A517DB4 
 116      0E16B941 
 117 024b B98E764F 		.ascii	"\271\216vO\322e\370k\316\210%\026K\254;Z\334$\350`\311"
 117      D265F86B 
 117      CE882516 
 117      4BAC3B5A 
 117      DC24E860 
 118 0260 6CC00A5D 		.ascii	"l\300\012]\305K\2547\203\375=g0\253d[\314`\027\263\001"
 118      C54BAC37 
 118      83FD3D67 
 118      30AB645B 
 118      CC6017B3 
 119 0275 1BE12ED9 		.ascii	"\033\341.\33163\330\277r\006\263J\266\303\014v9\033"
 119      3633D8BF 
 119      7206B34A 
 119      B6C30C76 
 119      391B
 120 0287 30BFBB64 		.ascii	"0\277\273d;\315`\3759\203Y%\333m\006\273\226\015X\211"
 120      3BCD60FD 
 120      39835925 
 120      DB6D06BB 
 120      960D5889 
 121 029b 8364E9C7 		.ascii	"\203d\351\307i\034s\353\3358\355\347\004\335 zL\310"
 121      691C73EB 
ARM GAS  /tmp/ccJqIDY2.s 			page 9


 121      DD38EDE7 
 121      04DD207A 
 121      4CC8
 122 02ad D1A79181 		.ascii	"\321\247\221\201q\233\350\221lh\353\242\363\265#\376"
 122      719BE891 
 122      6C68EBA2 
 122      F3B523FE 
 123 02bd 3DBFA7B4 		.ascii	"=\277\247\264\316\253m:\311v\352_c\304\221B\035\203"
 123      CEAB6D3A 
 123      C976EA5F 
 123      63C49142 
 123      1D83
 124 02cf ED78DA72 		.ascii	"\355x\332rn?\3738\315\023\360)\276\345\334#\216{W\026"
 124      6E3FFB38 
 124      CD13F029 
 124      BEE5DC23 
 124      8E7B5716 
 125 02e3 309D0D9B 		.ascii	"0\235\015\233\237\346\321\366S\016\264\3343T\240\336"
 125      9FE6D1F6 
 125      530EB4DC 
 125      3354A0DE 
 126 02f3 E5EBA773 		.ascii	"\345\353\247s\240\323\034\350W\036{p\301\266M\020[\267"
 126      A0D31CE8 
 126      571E7B70 
 126      C1B64D10 
 126      5BB7
 127 0305 29EC330A 		.ascii	")\3543\012)\353\316\376?\355K\320Z\217m\266,\352\014"
 127      29EBCEFE 
 127      3FED4BD0 
 127      5A8F6DB6 
 127      2CEA0C
 128 0318 167328EC 		.ascii	"\026s(\354}\237\372W\263 \366\020j\036x\307a\342\234"
 128      7D9FFA57 
 128      B320F610 
 128      6A1E78C7 
 128      61E29C
 129 032b C50F59F7 		.ascii	"\305\017Y\367\267\275}~6q\354\373\340\273[\247\276\273"
 129      B7BD7D7E 
 129      3671ECFB 
 129      E0BB5BA7 
 129      BEBB
 130 033d F189A0D9 		.ascii	"\361\211\240\331d#\355z\312\324\307'b\203\323\214f\003"
 130      6423ED7A 
 130      CAD4C727 
 130      6283D38C 
 130      6603
 131 034f D4DAD935 		.ascii	"\324\332\3315\232\011z\201\303\264\017\025&\331{p\227"
 131      9A097A81 
 131      C3B40F15 
 131      26D97B70 
 131      97
 132 0360 EA181739 		.ascii	"\352\030\0279\320\346\014\307\360\332\034\303k\235@"
 132      D0E60CC7 
 132      F0DA1CC3 
 132      6B9D40
 133 036f A8324E37 		.ascii	"\2502N7Y\356\202\227h_X\245\000\375\337\307\021\264"
 133      59EE8297 
ARM GAS  /tmp/ccJqIDY2.s 			page 10


 133      685F58A5 
 133      00FDDFC7 
 133      11B4
 134 0381 8B8BCF26 		.ascii	"\213\213\317&o\210K\375\3601\377\037\266Q\372\252\227"
 134      6F884BFD 
 134      F031FF1F 
 134      B651FAAA 
 134      97
 135 0392 6FAF04ED 		.ascii	"o\257\004\355\275?\300DO_7\246\315\305\002\356\340Q"
 135      BD3FC044 
 135      4F5F37A6 
 135      CDC502EE 
 135      E051
 136 03a4 B3F33EE1 		.ascii	"\263\363>\341N\251pN\231\215\273\237\2533\235X\265a"
 136      4EA9704E 
 136      998DBB9F 
 136      AB339D58 
 136      B561
 137 03b6 1C7398AB 		.ascii	"\034s\230\253<!\374\300\343\230\020\016\224\236\035"
 137      3C21FCC0 
 137      E398100E 
 137      949E1D
 138 03c5 E143AEDB 		.ascii	"\341C\256\333\023\30277\0243\330\353\203\247F\365\265"
 138      13C23737 
 138      1433D8EB 
 138      83A746F5 
 138      B5
 139 03d6 890D677F 		.ascii	"\211\015g\177\315S#\356\237\265Y\255\227\363|\275d\341"
 139      CD5323EE 
 139      9FB559AD 
 139      97F37CBD 
 139      64E1
 140 03e8 D002BE8D 		.ascii	"\320\002\276\215'\344\3520\275\031\376~\301\036\011"
 140      27E4EA30 
 140      BD19FE7E 
 140      C11E09
 141 03f7 73C23B97 		.ascii	"s\302;\2276\322P\367+\013o\303\332\002\276\301\265\273"
 141      36D250F7 
 141      2B0B6FC3 
 141      DA02BEC1 
 141      B5BB
 142 0409 89C71B1D 		.ascii	"\211\307\033\035\334\242Z\277y\013\275p\337k\342\023"
 142      DCA25ABF 
 142      790BBD70 
 142      DF6BE213 
 143 0419 FF1E6D4D 		.ascii	"\377\036mM\250\347\274\177\016\0251\375@2b\017\363\271"
 143      A8E7BC7F 
 143      0E1531FD 
 143      4032620F 
 143      F3B9
 144 042b 6483F575 		.ascii	"d\203\365u\211+\352J\340~Q\227\205#%\216\257\207x\231"
 144      892BEA4A 
 144      E07E5197 
 144      8523258E 
 144      AF877899 
 145 043f C5A951C0 		.ascii	"\305\251Q\300\365dBV\3474H\2022\274\247\335\356=\331"
 145      F5644256 
ARM GAS  /tmp/ccJqIDY2.s 			page 11


 145      E7344882 
 145      32BCA7DD 
 145      EE3DD9
 146 0452 C0DCCBD9 		.ascii	"\300\334\313\331\026%\346\031J\334\320\267!}\202\032"
 146      1625E619 
 146      4ADCD0B7 
 146      217D821A 
 147 0462 F2B20074 		.ascii	"\362\262\000tJh\235\275p\213\311\013\267q/\334\016^"
 147      4A689DBD 
 147      708BC90B 
 147      B7712FDC 
 147      0E5E
 148 0474 28E093FC 		.ascii	"(\340\223\374\3757\376^J\330\273\221\014\342\235\332"
 148      FD37FE5E 
 148      4AD8BB91 
 148      0CE29DDA 
 149 0484 64B4F425 		.ascii	"d\264\364%\011\337u\336\345aqE\236\325\216\266\223\323"
 149      09DF75DE 
 149      E5617145 
 149      9ED58EB6 
 149      93D3
 150 0496 66174598 		.ascii	"f\027E\230l\277 \226S\220En[\233\033D\207\261Z\306\241"
 150      6CBF2096 
 150      5390456E 
 150      5B9B1B44 
 150      87B15AC6 
 151 04ab F5B4F55C 		.ascii	"\365\264\365\\r\345\371\3047VB\016A\257\260\031z\004"
 151      72E5F9C4 
 151      3756420E 
 151      41AFB019 
 151      7A04
 152 04bd ADD6620F 		.ascii	"\255\326b\017\305\212\3539\216!\375\222<\302K\036~\017"
 152      C58AEB39 
 152      8E21FD92 
 152      3CC24B1E 
 152      7E0F
 153 04cf A51FD15E 		.ascii	"\245\037\321^\366\244e\"\350\260M\325'\321[\2246SX_"
 153      F6A46522 
 153      E8B04DD5 
 153      27D15B94 
 153      3653585F 
 154 04e3 3E6DCBF9 		.ascii	">m\313\371\214\367XA\306\271\270\247z\014|\012\2653"
 154      8CF75841 
 154      C6B9B8A7 
 154      7A0C7C0A 
 154      B533
 155 04f5 A1E83BD4 		.ascii	"\241\350;\324\303EB\332\030\213\001\232\0101\177`\332"
 155      C34542DA 
 155      188B019A 
 155      08317F60 
 155      DA
 156 0506 2521A97C 		.ascii	"%!\251|-\365\3555\333h\375\253\364^j\011\316^\273\325"
 156      2DF5ED35 
 156      DB68FDAB 
 156      F45E6A09 
 156      CE5EBBD5 
 157 051a 76ED9611 		.ascii	"v\355\226\021\237]\27536\365tIZ\234$I\\\333~\01076\323"
ARM GAS  /tmp/ccJqIDY2.s 			page 12


 157      9F5DBD33 
 157      36F57449 
 157      5A9C2449 
 157      5CDB7E08 
 158 0531 AF52294F 		.ascii	"\257R)O\016V^\253\311a\260&\350\037.|\337p\344\273c"
 158      0E565EAB 
 158      C961B026 
 158      E81F2E7C 
 158      DF70E4BB 
 159 0546 E750F8AE 		.ascii	"\347P\370\256\263\353\317\374+]iSW\276\315\0367]\344"
 159      B3EBCFFC 
 159      2B5D6953 
 159      57BECD1E 
 159      375DE4
 160 0559 DAE028D7 		.ascii	"\332\340(\327\355!\331\243\315.\027s\350t\245\317Q\256"
 160      ED21D9A3 
 160      CD2E1773 
 160      E874A5CF 
 160      51AE
 161 056b 65F9CE72 		.ascii	"e\371\316rmt\224k\335\220\354\365\266]\256~\263\\w\034"
 161      6D74946B 
 161      DD90ECF5 
 161      B65DAE7E 
 161      B35C771C 
 162 057f E56A7691 		.ascii	"\345jv\221k\223\243\\k\206$W\207\223\\69\326\273\310"
 162      6B93A35C 
 162      6B862457 
 162      87935C36 
 162      39D6BBC8 
 163 0593 B1D92AC7 		.ascii	"\261\331*\307\023\250\215&O@\274\350\031\363.\333\""
 163      13A88D26 
 163      4F40BCE8 
 163      19F32EDB 
 163      22
 164 05a4 595E8053 		.ascii	"Y^\200S\036=\256u\244Q\334dy\317\300\343X=\211m]\305"
 164      1E3DAE75 
 164      A451DC64 
 164      79CFC0E3 
 164      583D896D 
 165 05ba 4DB594A6 		.ascii	"M\265\224\246RK\364\\m\313\240([\355(toe7\344f\251\324"
 165      524BF45C 
 165      6DCBA028 
 165      5BED2874 
 165      6F6537E4 
 166 05d1 0B3AC8CE 		.ascii	"\013:\310\316AA\266[AZ\023\211\375]\205\264\017lz\017"
 166      4141B65B 
 166      415A1389 
 166      FD5D85B4 
 166      0F6C7A0F 
 167 05e5 329D91A8 		.ascii	"2\235\221\250\211\337\2375\236\307\332&\232h\240\215"
 167      89DF9F35 
 167      9EC7DA26 
 167      9A68A08D 
 168 05f5 B876EBD8 		.ascii	"\270v\353\330t`\375\256y\253J_k]n\323\256qw\022\266"
 168      7460FDAE 
 168      79AB4A5F 
 168      6B5D6ED3 
ARM GAS  /tmp/ccJqIDY2.s 			page 13


 168      AE717712 
 169 060a 35EDB319 		.ascii	"5\355\263\0316\027\260\316\206c\372\235\360\036\016"
 169      3617B0CE 
 169      8663FA9D 
 169      F01E0E
 170 0619 7670E860 		.ascii	"vp\350`\255\275\007\307\262\274u\037\007\352\311\267"
 170      ADBD07C7 
 170      B2BC751F 
 170      07EAC9B7 
 171 0629 6FE43EDB 		.ascii	"o\344>\333>\356\263\356\343>\237QH\351\217\375\254\373"
 171      3EEEB3EE 
 171      E33E9F51 
 171      48E98FFD 
 171      ACFB
 172 063b 358ED114 		.ascii	"5\216\321\024K\214\3205k$\032\300\373d\244a\013\232"
 172      4B8CD035 
 172      6B241AC0 
 172      FB64A461 
 172      0B9A
 173 064d DE43A18B 		.ascii	"\336C\241\213\333\304\357'\252\256\351\304M+\224\244"
 173      DBC4EF27 
 173      AAAEE9C4 
 173      4D2B94A4 
 174 065d 5743AFDD 		.ascii	"WC\257\335y\034\370&\354\356\003\253\342\263\235x\025"
 174      791CF826 
 174      ECEE03AB 
 174      E2B39D78 
 174      15
 175 066e A5AA27E2 		.ascii	"\245\252'\342q\272\013\331.\265\323\225\204\3510\003"
 175      71BA0BD9 
 175      2EB5D395 
 175      84E93003 
 176 067e 936C4AD0 		.ascii	"\223lJ\320h\372nz\204\341\015\273\276\350\361\263;n"
 176      68FA6E7A 
 176      84E10DBB 
 176      BEE8F1B3 
 176      3B6E
 177 0690 879B5D6B 		.ascii	"\207\233]k\177\001wAF7h7\326\261\233\330N7w\304\022"
 177      7F017741 
 177      46376837 
 177      D6B19BD8 
 177      4E3777C4 
 178 06a5 F5EBE0D7 		.ascii	"\365\353\340\327\276w\357f\236\315\322\0274\211\201"
 178      BE77EF66 
 178      9ECDD217 
 178      348981
 179 06b4 2F68D87F 		.ascii	"/h\330\177L\210\3516\307\357\334W\300Gxnz\3244cjY/\251"
 179      4C88E936 
 179      C7EFDC57 
 179      C047786E 
 179      7AD43463 
 180 06cc 77288D5E 		.ascii	"w(\215^\247\177\276p\200\201\207\272\271\310ab:P\254"
 180      A77FBE70 
 180      808187BA 
 180      B9C86162 
 180      3A50AC
 181 06df F062CD54 		.ascii	"\360b\315TC;\304\246.e\032J\335\325\335\330\237 \266"
ARM GAS  /tmp/ccJqIDY2.s 			page 14


 181      433BC4A6 
 181      2E651A4A 
 181      DDD5DDD8 
 181      9F20B6
 182 06f2 ABEEE69C 		.ascii	"\253\356\346\234E(\261\210\320\324\305\2572\031.Ak\262"
 182      4528B188 
 182      D0D4C5AF 
 182      32192E41 
 182      6BB2
 183 0704 011BE062 		.ascii	"\001\033\340b\272\331\014\326\2263\230\276\314\2149"
 183      BAD90CD6 
 183      963398BE 
 183      CC8C39
 184 0713 5233ED43 		.ascii	"R3\355C|\252?\342y\365q\376>\305\337\237\230sl\2026"
 184      7CAA3FE2 
 184      79F571FE 
 184      3EC5DF9F 
 184      98736C82 
 185 0728 79EDA14B 		.ascii	"y\355\241KuW\023\236\341\325hpD\3479\260M\326\001\027"
 185      7557139E 
 185      E1D56870 
 185      44E739B0 
 185      4DD60117 
 186 073c FD18FE5F 		.ascii	"\375\030\376_\210\345\377\024\256\220\002\376\243\321"
 186      88E5FF14 
 186      AE9002FE 
 186      A3D1
 187 074a 53EB924C 		.ascii	"S\353\222L\257\310\261Z\237\017s\016g\247]\302\2317"
 187      AFC8B15A 
 187      9F0F730E 
 187      67A75DC2 
 187      9937
 188 075c 6DB21D5E 		.ascii	"m\262\035^[8\313d\333\013\321\354q\264\337\373&U\347"
 188      5B38CB64 
 188      DB0BD1EC 
 188      71B4DFFB 
 188      2655E7
 189 076f 6A2ADA4E 		.ascii	"j*\332N\033\0231U\236\264\027\374\024\335\246k(\004"
 189      1B133155 
 189      9EB417FC 
 189      14DDA66B 
 189      2804
 190 0781 BA6485C5 		.ascii	"\272d\205\305@F\244\023\360\237L\3460\1777\233I\300"
 190      4046A413 
 190      F09F4CE6 
 190      307F379B 
 190      49C0
 191 0793 E7343533 		.ascii	"\347453\03775\317\032\343Y\274\275\322\224<\376e\367"
 191      1F3735CF 
 191      1AE359BC 
 191      BDD2943C 
 191      FE65F7
 192 07a6 2AFC3A6D 		.ascii	"*\374:m\325\343\255\200\223\200JP]\201=\227\021\360"
 192      D5E3AD80 
 192      93804A50 
 192      5D813D97 
 192      11F0
ARM GAS  /tmp/ccJqIDY2.s 			page 15


 193 07b8 794B1EA3 		.ascii	"yK\036\243\361\300\206BW*T\016\032t\357mg\350n\007\350"
 193      F1C08642 
 193      572A540E 
 193      1A74EF6D 
 193      67E86E07 
 194 07cd CF9DA0   		.ascii	"\317\235\240"
 195 07d0 89019D78 		.ascii	"\211\001\235x\326\002}\375\2363\364\212\302L\350KN\320"
 195      D6027DFD 
 195      9E33F48A 
 195      C24CE84B 
 195      4ED0
 196 07e2 1E03BAC7 		.ascii	"\036\003\272\307\012\235\372\315!G\350\023\016\320\377"
 196      0A9DFACD 
 196      2147E813 
 196      0ED0FF
 197 07f1 7682CE33 		.ascii	"v\202\3163\240/Z\241\327\376\326\031\272\305\227\011"
 197      A02F5AA1 
 197      D7FED619 
 197      BAC59709 
 198 0801 FD851374 		.ascii	"\375\205\023t\276\311 ~\217\005{{\2073\366\031\007\354"
 198      BEC9207E 
 198      8F057B7B 
 198      8733F619 
 198      07EC
 199 0813 AB4ED85E 		.ascii	"\253N\330^^\320W\227\356tk\036P\343\274\326i\272\356"
 199      5ED05797 
 199      EE746B1E 
 199      50E3BCD6 
 199      69BAEE
 200 0826 50051AD4 		.ascii	"P\005\032\324\1774\0274V\220}\325w\014\020\242\257\031"
 200      7F341734 
 200      56907DD5 
 200      770C10A2 
 200      AF19
 201 0838 EE681BF5 		.ascii	"\356h\033\365\366\000\243\256\273\216j\033`\324\227"
 201      F600A3AE 
 201      BB8E6A1B 
 201      60D497
 202 0847 AEA3D60D 		.ascii	"\256\243\326\0150\352\206\353\250\325\003\214\272I,"
 202      30EA86EB 
 202      A8D5038C 
 202      BA492C
 203 0856 9703892B 		.ascii	"\227\003\211+\311\226\223\327\017\360\177\223\362\333"
 203      C99693D7 
 203      0FF07F93 
 203      F2DB
 204 0864 81D64275 		.ascii	"\201\326Bu\353\"\350r\306\3648\235\321o\331\317\350"
 204      EB22E872 
 204      C6F4389D 
 204      D16FD9CF 
 204      E8
 205 0875 B7334F36 		.ascii	"\2673O6\300\244\377\275K\376[\374D\001g\364\332\372"
 205      C0A4FFBD 
 205      4BFE5BFC 
 205      440167F4 
 205      DAFA
 206 0887 F13A93DF 		.ascii	"\361:\223\337\025\231\231\360\023\014A\273\213\360@"
ARM GAS  /tmp/ccJqIDY2.s 			page 16


 206      159999F0 
 206      130C41BB 
 206      8BF040
 207 0896 2CBFB2B3 		.ascii	",\277\262\263\274\353\310\262e\325=G\275\272\212\262"
 207      BCEBC8B2 
 207      65D53D47 
 207      BDBA8AB2 
 208 08a6 D1ABD663 		.ascii	"\321\253\326cc\262\324\343\254\327\361\026\334\222f"
 208      63B2D4E3 
 208      ACD7F116 
 208      DC9266
 209 08b5 D248742E 		.ascii	"\322Ht.'2\025\023p\312\020\324\211g\275\235\3472+O4"
 209      27321513 
 209      70CA10D4 
 209      8967BD9D 
 209      E7322B4F 
 210 08ca BDB4B44C 		.ascii	"\275\264\264L\375\253\221\313\2025\221HM\264,V#)r\331"
 210      FDAB91CB 
 210      82359148 
 210      4DB42C56 
 210      232972D9 
 211 08de 8BB367CD 		.ascii	"\213\263g\315\230\265\210}\213U\207EI.{i\306\214\262"
 211      98B5887D 
 211      8B558745 
 211      492E7B69 
 211      C68CB2
 212 08f1 6048591C 		.ascii	"`HY\034\023\345\322\020\032&.\020\243JD\220\347\005"
 212      13E5D210 
 212      1A262E10 
 212      A34A4490 
 212      E705
 213 0903 14EF4B3F 		.ascii	"\024\357K?|\271d\006z\254,.Ke\325\321`8^)\226E\305\205"
 213      7CB96406 
 213      7AAC2C2E 
 213      4B65D5D1 
 213      60385E29 
 214 091b E1EAB965 		.ascii	"\341\352\271e\262RY\035U`@a\034~\247L\016(\3178u\213"
 214      B252591D 
 214      55604061 
 214      1C7EA74C 
 214      0E28CF38 
 215 0931 08C15075 		.ascii	"\010\301PuT,\013T\212\257\010\361\260\022\320\371\024"
 215      542C0B54 
 215      8AAF08F1 
 215      B012D0F9 
 215      14
 216 0942 0502FAC0 		.ascii	"\005\002\372\300\307\314\262F\253\303i\214`\210\341"
 216      C7CCB246 
 216      ABC3698C 
 216      6088E1
 217 0951 2B214914 		.ascii	"+!I\024*\003J\0214\005\324J1S%\020\254\211*\342\"\345"
 217      2A034A11 
 217      3405D44A 
 217      31532510 
 217      AC892AE2 
 218 0967 5B83AA1A 		.ascii	"[\203\252\032\012\326H\"\323\215\017\003\256Ae\3213"
 218      0AD64822 
ARM GAS  /tmp/ccJqIDY2.s 			page 17


 218      D38D0F03 
 218      AE4165D1 
 218      33
 219 0978 D98D0A2C 		.ascii	"\331\215\012,\250\2100!$\261J\220\"\001\205H\323\211"
 219      A8883021 
 219      24B14A90 
 219      22018548 
 219      D389
 220 098a F49C472A 		.ascii	"\364\234G*\237\004TN\244\251D\232F\244\012\"=K\302\022"
 220      9F04544E 
 220      A4A9449A 
 220      46A40A22 
 220      3D4BC212 
 221 099e 91631E80 		.ascii	"\221c\036\200.TdEP\304\200R\3004\234\036P|\252\256P"
 221      2E546445 
 221      50C48052 
 221      C0349C1E 
 221      507CAAAE 
 222 09b3 CAE72DF9 		.ascii	"\312\347-\371\021\271\012Z5\365\241U+y\340;\216y\024"
 222      11B90A5A 
 222      35F5A155 
 222      2B79E03B 
 222      8E7914
 223 09c6 29364C16 		.ascii	")6L\026#B,\304\004P\2063\275\323\365\374`\024\214\350"
 223      23422CC4 
 223      04508633 
 223      BDD3F5FC 
 223      60148CE8 
 224 09da 81771E7C 		.ascii	"\201w\036|\213y\305\205l\256H\274\334'/\226\225\352"
 224      8B79C585 
 224      6CAE48BC 
 224      DC272F96 
 224      95EA
 225 09ec 0863CB7E 		.ascii	"\010c\313~j\342\212W\214\261\266Q\232\001%\361\025Q"
 225      6AE28A57 
 225      8CB1B651 
 225      9A0125F1 
 225      1551
 226 09fe 12A341E8 		.ascii	"\022\243A\35011\255\274\"\312\012\267\271\\\023\227"
 226      3131ADBC 
 226      22CA0AB7 
 226      B95C1397 
 227 0a0e 82A25A67 		.ascii	"\202\242Zg\257\200TS\243\224\006Q1\257\310\361\0303"
 227      AF805453 
 227      A3940651 
 227      31AFC8F1 
 227      1833
 228 0a20 8E4790AA 		.ascii	"\216G\220\252\212\202\241\037\205*\347\204E16\"\030"
 228      8A82A11F 
 228      852AE784 
 228      45313622 
 228      18
 229 0a31 9A130CCD 		.ascii	"\232\023\014\315\026\345`H\254\214\207\3059\305\301"
 229      16E56048 
 229      AC8C87C5 
 229      39C5C1
 230 0a40 D0F71728 		.ascii	"\320\367\027(s\252\253\242Bxf1\357\010\255\361\2108"
ARM GAS  /tmp/ccJqIDY2.s 			page 18


 230      73AAABA2 
 230      42786631 
 230      EF08ADF1 
 230      8838
 231 0a52 73187415 		.ascii	"s\030t\025#P\021\025\326\000e\255W^\225\"\225\347W\201"
 231      23501115 
 231      D60065AD 
 231      575E9522 
 231      95E75781 
 232 0a66 2E93F9BB 		.ascii	".\223\371\273\274HV\346\011ah\014(\334\265*\246\302"
 232      BC4856E6 
 232      0961680C 
 232      28DCB52A 
 232      A6C2
 233 0a78 D4AB0664 		.ascii	"\324\253\006d\305\007\027\012\001\263Hc\255\2520\237"
 233      C507170A 
 233      01B34863 
 233      ADAA309F 
 234 0a88 0B86780F 		.ascii	"\013\206x\017\230\266\274`H\220\362\242BD\314\007\306"
 234      98B6BC60 
 234      4890F2A2 
 234      4244CC07 
 234      C6
 235 0a99 F158A122 		.ascii	"\361X\241\"\012Re\315\302h\201\270H\014\306\025\261"
 235      0A5265CD 
 235      C26881B8 
 235      480CC615 
 235      B1
 236 0aaa 88750C0A 		.ascii	"\210u\014\0122\330\244HC\255V\304\021\245\225\202\""
 236      32D8A448 
 236      43AD56C4 
 236      11A59582 
 236      22
 237 0abb 941A1F26 		.ascii	"\224\032\037&ga/Y\234\037\347\326\2354\251\034X\217"
 237      67612F59 
 237      9C1FE7D6 
 237      9D34A91C 
 237      588F
 238 0acd CCF89823 		.ascii	"\314\370\230#\310d'\220\3119\202Lq\002\231\222#\310"
 238      C8642790 
 238      C939824C 
 238      71029992 
 238      23C8
 239 0adf 542790A9 		.ascii	"T'\220\2519\202Ls\002\231\226#H\205\023H\205\217/\353"
 239      39824C73 
 239      02999623 
 239      48851348 
 239      858F2FEB 
 240 0af3 704D705E 		.ascii	"pMp^\271\303\242\206\010Q6c\326\234\231s\214\260\022"
 240      B9C3A286 
 240      08513663 
 240      D69C9973 
 240      8CB012
 241 0b06 91ABE540 		.ascii	"\221\253\345@U0\010h\303\003\201\312jY\230\033\026\003"
 241      55300868 
 241      C30381CA 
 241      6A59981B 
ARM GAS  /tmp/ccJqIDY2.s 			page 19


 241      1603
 242 0b18 D5D2FCE1 		.ascii	"\325\322\374\341Bx\241\260X\206\365\030\206\240\245"
 242      4278A1B0 
 242      5886F518 
 242      86A0A5
 243 0b27 868B7894 		.ascii	"\206\213x\224!\027\007\002bT\357\366_\255\232\270X"
 243      21170702 
 243      6254EFF6 
 243      5FAD9AB8 
 243      58
 244              		.text
 245              		.section	.gnu.lto_.symtab.a2b2be6d55aea5c3,"",%progbits
 246 0000 74657374 		.ascii	"test_support\000\000\000\000\000\000\000\000\000\000"
 246      5F737570 
 246      706F7274 
 246      00000000 
 246      00000000 
 247 0016 00000D01 		.ascii	"\000\000\015\001\000\000gsem1\000\000\000\000\000\000"
 247      00006773 
 247      656D3100 
 247      00000000 
 247      00
 248 0027 00000000 		.ascii	"\000\000\000\000\000\0002\001\000\000gsem2\000\000\000"
 248      00003201 
 248      00006773 
 248      656D3200 
 248      0000
 249 0039 00000000 		.ascii	"\000\000\000\000\000\000\000\000\0000\001\000\000gt"
 249      00000000 
 249      00300100 
 249      006774
 250 0048 72310000 		.ascii	"r1\000\000\000\000\000\000\000\000\000\000\000\000."
 250      00000000 
 250      00000000 
 250      00002E
 251 0057 01000077 		.ascii	"\001\000\000wa_test_support\000\000\000\000\000\000"
 251      615F7465 
 251      73745F73 
 251      7570706F 
 251      72740000 
 252 006f 00000000 		.ascii	"\000\000\000\000\000\0004\001\000\000test_suite\000"
 252      00003401 
 252      00007465 
 252      73745F73 
 252      75697465 
 253 0084 00000000 		.ascii	"\000\000\000\000\000\000\000\000\000\000\000A\001\000"
 253      00000000 
 253      00000041 
 253      0100
 254 0092 00746573 		.ascii	"\000test_sequence_001\000\000\002\000\000\000\000\000"
 254      745F7365 
 254      7175656E 
 254      63655F30 
 254      30310000 
 255 00ac 00000000 		.ascii	"\000\000\000\000b\001\000\000test_sequence_002\000\000"
 255      62010000 
 255      74657374 
ARM GAS  /tmp/ccJqIDY2.s 			page 20


 255      5F736571 
 255      75656E63 
 256 00c7 02000000 		.ascii	"\002\000\000\000\000\000\000\000\000\000e\001\000\000"
 256      00000000 
 256      00006501 
 256      0000
 257 00d5 74657374 		.ascii	"test_sequence_003\000\000\002\000\000\000\000\000\000"
 257      5F736571 
 257      75656E63 
 257      655F3030 
 257      33000002 
 258 00ef 00000068 		.ascii	"\000\000\000h\001\000\000test_sequence_004\000\000\002"
 258      01000074 
 258      6573745F 
 258      73657175 
 258      656E6365 
 259 010a 00000000 		.ascii	"\000\000\000\000\000\000\000\000\000k\001\000\000te"
 259      00000000 
 259      006B0100 
 259      007465
 260 0119 73745F73 		.ascii	"st_sequence_005\000\000\002\000\000\000\000\000\000"
 260      65717565 
 260      6E63655F 
 260      30303500 
 260      00020000 
 261 0131 0000006E 		.ascii	"\000\000\000n\001\000\000test_sequence_006\000\000\002"
 261      01000074 
 261      6573745F 
 261      73657175 
 261      656E6365 
 262 014c 00000000 		.ascii	"\000\000\000\000\000\000\000\000\000q\001\000\000ch"
 262      00000000 
 262      00710100 
 262      006368
 263 015b 54686453 		.ascii	"ThdSleep\000\000\002\000\000\000\000\000\000\000\000"
 263      6C656570 
 263      00000200 
 263      00000000 
 263      000000
 264 016e 00140100 		.ascii	"\000\024\001\000\000chSchRescheduleS\000\000\002\000"
 264      00636853 
 264      63685265 
 264      73636865 
 264      64756C65 
 265 0187 00000000 		.ascii	"\000\000\000\000\000\000\000\000\030\001\000\000chE"
 265      00000000 
 265      18010000 
 265      636845
 266 0196 76745369 		.ascii	"vtSignalI\000\000\002\000\000\000\000\000\000\000\000"
 266      676E616C 
 266      49000002 
 266      00000000 
 266      00000000 
 267 01aa 001B0100 		.ascii	"\000\033\001\000\000chThdResumeI\000\000\002\000\000"
 267      00636854 
 267      68645265 
 267      73756D65 
ARM GAS  /tmp/ccJqIDY2.s 			page 21


 267      49000002 
 268 01c0 00000000 		.ascii	"\000\000\000\000\000\000\000 \001\000\000chSemReset"
 268      00000020 
 268      01000063 
 268      6853656D 
 268      52657365 
 269 01d5 49000002 		.ascii	"I\000\000\002\000\000\000\000\000\000\000\000\000%\001"
 269      00000000 
 269      00000000 
 269      002501
 270 01e4 00006368 		.ascii	"\000\000chSemSignalI\000\000\002\000\000\000\000\000"
 270      53656D53 
 270      69676E61 
 270      6C490000 
 270      02000000 
 271 01fa 00000000 		.ascii	"\000\000\000\000*\001\000\000"
 271      2A010000 
 272              		.text
 273              		.section	.gnu.lto_.opts,"",%progbits
 274 0000 272D6D63 		.ascii	"'-mcpu=cortex-m0' '-mno-thumb-interwork' '-mthumb' "
 274      70753D63 
 274      6F727465 
 274      782D6D30 
 274      2720272D 
 275 0033 272D6767 		.ascii	"'-ggdb' '-O2' '-fomit-frame-pointer' '-falign-funct"
 275      64622720 
 275      272D4F32 
 275      2720272D 
 275      666F6D69 
 276 0066 696F6E73 		.ascii	"ions=16' '-ffunction-sections' '-fdata-sections' '-"
 276      3D313627 
 276      20272D66 
 276      66756E63 
 276      74696F6E 
 277 0099 666E6F2D 		.ascii	"fno-common' '-flto'\000"
 277      636F6D6D 
 277      6F6E2720 
 277      272D666C 
 277      746F2700 
 278              		.text
 279              		.cfi_sections	.debug_frame
 280              		.section	.text.test_support,"ax",%progbits
 281              		.align	2
 282              		.p2align 4,,15
 283              		.global	test_support
 284              		.code	16
 285              		.thumb_func
 286              		.type	test_support, %function
 287              	test_support:
 288              	.LFB98:
 289              		.file 1 "../../../test/nil/source/test/test_root.c"
 290              		.loc 1 80 0
 291              		.cfi_startproc
 292              	.LVL0:
 293 0000 F0B5     		push	{r4, r5, r6, r7, lr}
 294              		.cfi_def_cfa_offset 20
 295              		.cfi_offset 4, -20
ARM GAS  /tmp/ccJqIDY2.s 			page 22


 296              		.cfi_offset 5, -16
 297              		.cfi_offset 6, -12
 298              		.cfi_offset 7, -8
 299              		.cfi_offset 14, -4
 300              		.loc 1 88 0
 301 0002 124C     		ldr	r4, .L5
 302              		.loc 1 89 0
 303 0004 124D     		ldr	r5, .L5+4
 304              		.loc 1 80 0
 305 0006 4746     		mov	r7, r8
 306              		.loc 1 88 0
 307 0008 0023     		mov	r3, #0
 308              		.loc 1 80 0
 309 000a 80B4     		push	{r7}
 310              		.cfi_def_cfa_offset 24
 311              		.cfi_offset 8, -24
 312 000c 114E     		ldr	r6, .L5+8
 313              		.loc 1 88 0
 314 000e 2360     		str	r3, [r4]
 315              		.loc 1 80 0
 316 0010 071C     		mov	r7, r0
 317              	.LVL1:
 318              		.loc 1 89 0
 319 0012 2B60     		str	r3, [r5]
 320              		.loc 1 93 0
 321 0014 A046     		mov	r8, r4
 322 0016 11E0     		b	.L3
 323              	.LVL2:
 324              	.L2:
 325              		.loc 1 95 0
 326 0018 281C     		mov	r0, r5
 327 001a 0021     		mov	r1, #0
 328 001c FFF7FEFF 		bl	chSemResetI
 329              	.LVL3:
 330              		.loc 1 96 0
 331 0020 301C     		mov	r0, r6
 332 0022 0021     		mov	r1, #0
 333 0024 FFF7FEFF 		bl	chThdResumeI
 334              	.LVL4:
 335              		.loc 1 98 0
 336 0028 381C     		mov	r0, r7
 337 002a 5521     		mov	r1, #85
 338 002c FFF7FEFF 		bl	chEvtSignalI
 339              	.LVL5:
 340              		.loc 1 100 0
 341 0030 FFF7FEFF 		bl	chSchRescheduleS
 342              	.LVL6:
 343              	.LBB14:
 344              	.LBB15:
 345              	.LBB16:
 346              		.file 2 "../../../os/common/ext/CMSIS/include/cmsis_gcc.h"
 347              		.loc 2 60 0
 348              	@ 60 "../../../os/common/ext/CMSIS/include/cmsis_gcc.h" 1
 349 0034 62B6     		cpsie i
 350              	@ 0 "" 2
 351              		.code	16
 352              	.LBE16:
ARM GAS  /tmp/ccJqIDY2.s 			page 23


 353              	.LBE15:
 354              	.LBE14:
 355              		.loc 1 103 0
 356 0036 FA20     		mov	r0, #250
 357 0038 FFF7FEFF 		bl	chThdSleep
 358              	.LVL7:
 359              	.L3:
 360              	.LBB17:
 361              	.LBB18:
 362              	.LBB19:
 363              		.loc 2 71 0
 364              	@ 71 "../../../os/common/ext/CMSIS/include/cmsis_gcc.h" 1
 365 003c 72B6     		cpsid i
 366              	@ 0 "" 2
 367              		.code	16
 368              	.LBE19:
 369              	.LBE18:
 370              	.LBE17:
 371              		.loc 1 93 0
 372 003e 2368     		ldr	r3, [r4]
 373 0040 002B     		cmp	r3, #0
 374 0042 E9DA     		bge	.L2
 375              		.loc 1 94 0
 376 0044 4046     		mov	r0, r8
 377 0046 FFF7FEFF 		bl	chSemSignalI
 378              	.LVL8:
 379 004a E5E7     		b	.L2
 380              	.L6:
 381              		.align	2
 382              	.L5:
 383 004c 00000000 		.word	.LANCHOR0
 384 0050 00000000 		.word	.LANCHOR1
 385 0054 00000000 		.word	.LANCHOR2
 386              		.cfi_endproc
 387              	.LFE98:
 388              		.size	test_support, .-test_support
 389              		.global	wa_test_support
 390              		.global	gtr1
 391              		.global	gsem2
 392              		.global	gsem1
 393              		.global	test_suite
 394 0058 C046C046 		.section	.bss.gtr1,"aw",%nobits
 394      C046C046 
 395              		.align	2
 396              		.set	.LANCHOR2,. + 0
 397              		.type	gtr1, %object
 398              		.size	gtr1, 4
 399              	gtr1:
 400 0000 00000000 		.space	4
 401              		.section	.data.test_suite,"aw",%progbits
 402              		.align	2
 403              		.type	test_suite, %object
 404              		.size	test_suite, 28
 405              	test_suite:
 406 0000 00000000 		.word	test_sequence_001
 407 0004 00000000 		.word	test_sequence_002
 408 0008 00000000 		.word	test_sequence_003
ARM GAS  /tmp/ccJqIDY2.s 			page 24


 409 000c 00000000 		.word	test_sequence_004
 410 0010 00000000 		.word	test_sequence_005
 411 0014 00000000 		.word	test_sequence_006
 412 0018 00000000 		.word	0
 413              		.section	.bss.wa_test_support,"aw",%nobits
 414              		.align	3
 415              		.type	wa_test_support, %object
 416              		.size	wa_test_support, 264
 417              	wa_test_support:
 418 0000 00000000 		.space	264
 418      00000000 
 418      00000000 
 418      00000000 
 418      00000000 
 419              		.section	.bss.gsem1,"aw",%nobits
 420              		.align	2
 421              		.set	.LANCHOR0,. + 0
 422              		.type	gsem1, %object
 423              		.size	gsem1, 4
 424              	gsem1:
 425 0000 00000000 		.space	4
 426              		.section	.bss.gsem2,"aw",%nobits
 427              		.align	2
 428              		.set	.LANCHOR1,. + 0
 429              		.type	gsem2, %object
 430              		.size	gsem2, 4
 431              	gsem2:
 432 0000 00000000 		.space	4
 433              		.text
 434              	.Letext0:
 435              		.file 3 "/usr/lib/gcc/arm-none-eabi/4.8.2/include/stddef.h"
 436              		.file 4 "/usr/include/newlib/machine/_default_types.h"
 437              		.file 5 "/usr/include/newlib/stdint.h"
 438              		.file 6 "../../../os/common/ports/ARMCMx/compilers/GCC/chtypes.h"
 439              		.file 7 "../../../os/nil/include/ch.h"
 440              		.file 8 "../../../os/common/ports/ARMCMx/chcore.h"
 441              		.file 9 "../../../os/common/ports/ARMCMx/chcore_v6m.h"
 442              		.file 10 "../../../test/lib/ch_test.h"
 443              		.file 11 "../../../test/nil/source/test/test_sequence_001.h"
 444              		.file 12 "../../../test/nil/source/test/test_sequence_002.h"
 445              		.file 13 "../../../test/nil/source/test/test_sequence_003.h"
 446              		.file 14 "../../../test/nil/source/test/test_sequence_004.h"
 447              		.file 15 "../../../test/nil/source/test/test_sequence_005.h"
 448              		.file 16 "../../../test/nil/source/test/test_sequence_006.h"