ARM GAS  /tmp/ccsypGf3.s 			page 1


   1              		.cpu cortex-m0
   2              		.fpu softvfp
   3              		.eabi_attribute 20, 1
   4              		.eabi_attribute 21, 1
   5              		.eabi_attribute 23, 3
   6              		.eabi_attribute 24, 1
   7              		.eabi_attribute 25, 1
   8              		.eabi_attribute 26, 1
   9              		.eabi_attribute 30, 2
  10              		.eabi_attribute 34, 0
  11              		.eabi_attribute 18, 4
  12              		.code	16
  13              		.file	"test_sequence_001.c"
  14              		.text
  15              	.Ltext0:
  16              		.section	.gnu.lto_.jmpfuncs.39d7050a2e494c8c,"",%progbits
  17 0000 789C6362 		.ascii	"x\234cb`b\300\006.\000\261\010\02033\000\02502E0f22"
  17      6062C006 
  17      2E00B108 
  17      10333300 
  17      15303245 
  18 0018 A480B940 		.ascii	"\244\200\271@\201j\206_\0153\032\0042\031\031\345\030"
  18      816A865F 
  18      0D331A04 
  18      321919E5 
  18      18
  19 0029 18E736CC 		.ascii	"\030\3476\314p\310d\204\230\002U\370\202\235\260J\202"
  19      70C86484 
  19      980255F8 
  19      829DB04A 
  19      82
  20 003a 2A9889B5 		.ascii	"*\230\211\265\215Xg1\003\0252\010\347\227\226(\344\247"
  20      8D586731 
  20      03153208 
  20      E7979628 
  20      E4A7
  21 004c 299464E6 		.ascii	")\224d\346\246*\224g\346\245\344\2273\000\000RC+P"
  21      A62A9467 
  21      E6A5E497 
  21      33000052 
  21      432B50
  22              		.text
  23              		.section	.gnu.lto_.inline.39d7050a2e494c8c,"",%progbits
  24 0000 789C6362 		.ascii	"x\234cb`b\300\006\246@if\006\006\016UF\006&\256\256"
  24      6062C006 
  24      A6406966 
  24      06060E55 
  24      460626AE 
  25 0015 152C0C6C 		.ascii	"\025,\014l\013\344\301\252\231\030\324\015\201b\012"
  25      0BE4C1AA 
  25      9918D40D 
  25      81620A
  26 0024 57BA1911 		.ascii	"W\272\031\021b\334\014\014\214\014\254|@-\023\374&\370"
  26      62DC0C0C 
  26      8C0CAC7C 
  26      402D13FC 
  26      26F8
ARM GAS  /tmp/ccsypGf3.s 			page 2


  27 0036 61E74FF0 		.ascii	"a\347O\360c\341\205\01103\310\351\003\015\221\230\323"
  27      63E18509 
  27      3033C8E9 
  27      030D9198 
  27      D3
  28 0047 84308491 		.ascii	"\2040\204\221\013H\0200\203\201\001\000xR\022\017"
  28      0B481030 
  28      83810100 
  28      7852120F 
  29              		.text
  30              		.section	.gnu.lto_.pureconst.39d7050a2e494c8c,"",%progbits
  31 0000 789C6362 		.ascii	"x\234cb`b`g\200\000f\006)&)f)\000\001\321\000b"
  31      60626067 
  31      80006606 
  31      29262966 
  31      290001D1 
  32              		.text
  33              		.section	.gnu.lto_test_001_001_execute.39d7050a2e494c8c,"",%progbits
  34 0000 789C9D92 		.ascii	"x\234\235\222Mh\023A\024\307\337\233\331\315\326\342"
  34      4D681341 
  34      14C7DF9B 
  34      D9CDD6E2 
  35 0010 A1DEC48B 		.ascii	"\241\336\304\213\241=\012\2316\275\366R\364\"4\027M"
  35      A13D0A99 
  35      36BDF652 
  35      F4223417 
  35      4D
  36 0021 404F215D 		.ascii	"@O!]\227f!\311\332lZ\004\205NJ\004A\261A\274\250\010"
  36      976621C9 
  36      DA6C5A04 
  36      854E4A04 
  36      41B141BC 
  37 0037 F65094E2 		.ascii	"\366P\224\342\007\366\324C\017U\374D\032\360&\346\222"
  37      07F6D443 
  37      0F55FC44 
  37      1AF026E6 
  37      92
  38 0048 B6945EDB 		.ascii	"\266\224^\333\203\227\"\304\367v\322\245\366\340\301"
  38      839722C4 
  38      F776D2A5 
  38      F6E0C1
  39 0057 6177DE7B 		.ascii	"aw\336{3\357\375\366\377fV\200\200\343c\214\336\263"
  39      33EFFDF6 
  39      FF665680 
  39      80E3638C 
  39      DEB3
  40 0069 B4FC942C 		.ascii	"\264\374\224,&\000E\263\005P\357\023(\215#\205}\357"
  40      260045B3 
  40      0550EF13 
  40      288D2385 
  40      7DEF
  41 007b 3380EEB7 		.ascii	"3\200\356\267\032\016\350\223\266Y\037\267\020\331\002"
  41      1A0EE893 
  41      B6591FB7 
  41      10D902
  42 008a C29C90B6 		.ascii	"\302\234\220\266\205sW1\302\275\021\353\235n\367\365"
  42      85735731 
ARM GAS  /tmp/ccsypGf3.s 			page 3


  42      C2BD11EB 
  42      9D6EF7F5 
  43 009a C1E6D602 		.ascii	"\301\346\326\002\236\352K\200\217\340\360D\303\206\206"
  43      9EEA4B80 
  43      8FE0F044 
  43      C38686
  44 00a9 D6CD2480 		.ascii	"\326\315$\200\033\205Y\232\011\231CAFn\300\374\352\352"
  44      1B85599A 
  44      09994341 
  44      466EC0FC 
  44      EAEA
  45 00bb D6E9022E 		.ascii	"\326\351\002.\242\015O\340q]\353\001\037\361&\034\350"
  45      A20D4FE0 
  45      715DEB01 
  45      1FF1261C 
  45      E8
  46 00cc 3BEC8972 		.ascii	";\354\211rTt\005\311\205C\017ym\003\336\377|\331n\211"
  46      547405C9 
  46      85430F79 
  46      6D03DEFF 
  46      7CD96E89 
  47 00e0 186F9CF5 		.ascii	"\030o\234\365\235\373m\031\007\337>\356\307Ar\020\026"
  47      9DFB6D19 
  47      07DF3EEE 
  47      C7417210 
  47      16
  48 00f1 B57EA057 		.ascii	"\265~\240W\264>\361L\377\356v%\351\023\360\210h\244"
  48      B43EF14C 
  48      FFEE7625 
  48      E913F088 
  48      68A4
  49 0103 8CB93219 		.ascii	"\214\2712\031\031\313:~XF\036p\013\234\034)\231\302"
  49      19CB3A7E 
  49      58461E70 
  49      0B9C1C29 
  49      99C2
  50 0115 C43958D6 		.ascii	"\3049X\326\215z\247\375\353\341\031\037mV\337d\315\011"
  50      8D7AA7FD 
  50      EBE1191F 
  50      6D56DF64 
  50      CD09
  51 0127 86389A86 		.ascii	"\2068\232\206\025\361\234\2101\211\021h\311\200\276"
  51      15F19C88 
  51      31891168 
  51      C980BE
  52 0136 C2FCDECA 		.ascii	"\302\374\336\312\333[\005|Nq\001_\340`\374\261\034J"
  52      DB5B057C 
  52      4E71015F 
  52      E060FCB1 
  52      1C4A
  53 0148 A03396DC 		.ascii	"\2403\226\334\340Z\273\225\376g\203w?\275\263\031\313"
  53      E05ABB95 
  53      FE678377 
  53      3FBDB319 
  53      CB
  54 0159 98BFC439 		.ascii	"\230\277\3049\377#\356\225\021\367\005>\354n\336\336"
  54      FF23EE95 
ARM GAS  /tmp/ccsypGf3.s 			page 4


  54      11F7053E 
  54      EC6EDEDE 
  55 0169 FE81864B 		.ascii	"\376\201\206K\235N\365\362\300\334\240\015\364o`\016"
  55      9D4EF5F2 
  55      C0DCA00D 
  55      F46F600E 
  56 0179 2DBEC2EF 		.ascii	"-\276\302\357P\357,\014\305G\324KA\332b)\351TJ\231\247"
  56      50EF2C0C 
  56      C547D44B 
  56      41DA6229 
  56      E9544A99 
  57 018e E6853555 		.ascii	"\346\2055U\361K*\014f\252\256gb\236\362\2417=\343U\\"
  57      F14B2A0C 
  57      66AAAE67 
  57      629EF2A1 
  57      373DE355 
  58 01a3 2F3F3C3C 		.ascii	"/?<<\222ra4.\011BU,\224\324\365\240Z\013\325\345lf4"
  58      92726134 
  58      2E094255 
  58      2C94D4F5 
  58      A05A0BD5 
  59 01bb AD26262E 		.ascii	"\255&&.\250\354\305\314\354\010\357\344\251\270T\272"
  59      A8ECC5CC 
  59      EC08EFE4 
  59      A9B854BA 
  60 01cb 962A823A 		.ascii	"\226*\202:Z\343\006\345rP\351\225\215_\312\234\317\334"
  60      5AE306E5 
  60      7250E995 
  60      8D5FCA9C 
  60      CFDC
  61 01dd 506ED10D 		.ascii	"Pn\321\015\252^\276\346\227\275*\345[\354\374\001>\330"
  61      AA5EBEE6 
  61      97BD2AE5 
  61      5BECFC01 
  61      3ED8
  62 01ef C286     		.ascii	"\302\206"
  63              		.text
  64              		.section	.gnu.lto_test_001_002_execute.part.0.39d7050a2e494c8c,"",%progbits
  65 0000 789CDD95 		.ascii	"x\234\335\225Mh\023Q\020\307g\366+_\365\003\254\250"
  65      4D681351 
  65      10C767F6 
  65      2B5FF503 
  65      ACA8
  66 0012 97127A55 		.ascii	"\227\022zU\262\266\305\273\242\227BsPS\324S\210\333"
  66      B2B6C5BB 
  66      A2974273 
  66      5053D453 
  66      88DB
  67 0024 D82E2459 		.ascii	"\330.$YM\322V\360\320\2276\207\202 A,\324\212\242\025"
  67      4DD256F0 
  67      D0973687 
  67      8220412C 
  67      D48AA215 
  68 0038 A554D1B6 		.ascii	"\245T\321\266\027KO\245\227*\332\026\005=(\224\\\012"
  68      174B4FA5 
  68      972ADA16 
  68      053D2894 
ARM GAS  /tmp/ccsypGf3.s 			page 5


  68      5C0A
  69 004a 1504C10F 		.ascii	"\025\004\301\017\260*\3047o\263\371()\3758\272$\357"
  69      B02AC437 
  69      6FB3F928 
  69      29FD38BA 
  69      24EF
  70 005c BD79B3F3 		.ascii	"\275y\263\363\237y\363\333M$\220`\375\325\312\277=\032"
  70      9F79F3DB 
  70      4D249060 
  70      FDD5CABF 
  70      3D1A
  71 006e C0249FD1 		.ascii	"\300$\237\321\005\250\345\026\371BCI\314\222\244~\320"
  71      05A8E516 
  71      F9424349 
  71      CC92A47E 
  71      D0
  72 007f 8179E599 		.ascii	"\201y\345\231\006`ur\321R\204\245\240J\367d\334*\"-"
  72      06607572 
  72      D15284A5 
  72      A04AF764 
  72      DC2A222D 
  73 0093 00A14F93 		.ascii	"\000\241O\223dE\305\276\013H\322Z#<`l$\277\362}\025"
  73      6445C5BE 
  73      0B48D25A 
  73      233C606C 
  73      24BFF27D 
  74 00a8 6FDF9ACD 		.ascii	"o\337\232\315\336g\177\013\005D\223\234\006\302y\276"
  74      DE677F0B 
  74      0544939C 
  74      06C279BE 
  75 00b8 42BF9824 		.ascii	"B\277\230$\245\272(;\220M\2151\217\010\222\377\207\230"
  75      A5BA283B 
  75      904D8D31 
  75      8F0892FF 
  75      8798
  76 00ca 9BB313F3 		.ascii	"\233\263\023\363u\271\314 +\024\372x\214\004\307p\223"
  76      75B9CC20 
  76      2B14FA78 
  76      8C04C770 
  76      93
  77 00db B0E712CB 		.ascii	"\260\347\022\313\027\012kS\236\003\010\"\302DY\246A"
  77      170A6B53 
  77      9E030822 
  77      C24459A6 
  77      41
  78 00ec E183A2D2 		.ascii	"\341\203\242\322\236F\246\213\0067\355yh\317K\246\217"
  78      9E46A68B 
  78      0637ED79 
  78      68CF4BA6 
  78      8F
  79 00fd 06AEA142 		.ascii	"\006\256\241B\226\261\234?\202\217\261\321\256\223_"
  79      96B19C3F 
  79      828FB1D1 
  79      AE935F
  80 010c 213E12B2 		.ascii	"!>\022\262\020j4\313\355(\211y\001\372\247\247\037\036"
  80      106A34CB 
  80      ED288979 
ARM GAS  /tmp/ccsypGf3.s 			page 6


  80      01FAA7A7 
  80      1F1E
  81 011e 8AE018AA 		.ascii	"\212\340\030\252p\007F2\214\3555Q\275\006\277\331 \255"
  81      70074632 
  81      8CED3551 
  81      BD06BFD9 
  81      20AD
  82 0130 B4B808A7 		.ascii	"\264\270\010\247Z5pV*\245Y\200\271\217o\226\027\245"
  82      5A357056 
  82      2AA55980 
  82      B98F6F96 
  82      17A5
  83 0142 623A27EF 		.ascii	"b:'\357\354\332\215Or\311x=?\312\015[\335@:\275x\036"
  83      ECDA8D4F 
  83      72C9783D 
  83      3FCA0D5B 
  83      DD403ABD 
  84 0158 3B110FC3 		.ascii	";\021\017\3038\313f\362?~\326\233\350\242\3049J\347"
  84      38CB66F2 
  84      3F7ED69B 
  84      E8A2C439 
  84      4AE7
  85 016a 26790FE3 		.ascii	"&y\017\343\227\"2yD\316\213TC\004\237r\021~\275\202"
  85      97223279 
  85      44CE8B54 
  85      43049F72 
  85      117EBD82 
  86 017e FE896FA7 		.ascii	"\376\211o\247mM\347\220\000K\220\315\017?B{\033\240"
  86      6D4DE790 
  86      004B90CD 
  86      0F3F427B 
  86      1BA0
  87 0190 7400AF21 		.ascii	"t\000\257!\232b\027.w\360\036\371\250\366\201\301\201"
  87      9A62172E 
  87      77F01EF9 
  87      A8F681C1 
  87      81
  88 01a1 957AFBE6 		.ascii	"\225z\373\346N\224x=E\267\355\223\035\217\354x\242\""
  88      4E94783D 
  88      45B7ED93 
  88      1D8FEC78 
  88      A222
  89 01b3 85E6EC2B 		.ascii	"\205\346\354+%\375:\003m\206BF\246\375\203&\356j\200"
  89      25FD3A03 
  89      6D864246 
  89      A6FD8326 
  89      EE6A80
  90 01c6 7B78970D 		.ascii	"{x\227\015\0377qw\361\370<\363\036\200\227\220\375\202"
  90      1F377177 
  90      F1F83CF3 
  90      1E809790 
  90      FD82
  91 01d8 251592AE 		.ascii	"%\025\222\256z\002\332y\2613\015\202\312\360\370v\251"
  91      7A02DA79 
  91      B1330D82 
  91      CAF0F876 
  91      A9
ARM GAS  /tmp/ccsypGf3.s 			page 7


  92 01e9 285BA572 		.ascii	"([\245r\375\375\006T\324\035PyQ\2462\332^\213\312\223"
  92      FDFD0654 
  92      D41D5079 
  92      51A632DA 
  92      5E8BCA93 
  93 01fd 4DA9ACBA 		.ascii	"M\251\254\272*\260L\356w\332\243\361\202\034\377:.."
  93      2AB04CEE 
  93      77DAA3F1 
  93      821CFF3A 
  93      2E2E
  94 020f C7F5D955 		.ascii	"\307\365\331U\015\306]\013\014\027rm\013\214\273\006"
  94      0DC65D0B 
  94      0C17726D 
  94      0B8CBB06 
  95 021f 1805BEFA 		.ascii	"\030\005\276\372\004\230_\317\266\013F\335\362\353\262"
  95      04985FCF 
  95      B60B46DD 
  95      F2EBB2
  96 022e BC0118CF 		.ascii	"\274\001\030\317\016\300\314\225\301\274;\267\036\214"
  96      0EC0CC95 
  96      C1BC3BB7 
  96      1E8C
  97 023c 68F59FA1 		.ascii	"h\365\237\241#\316\211\275<G\351\025X\002\245\0261\265"
  97      23CE89BD 
  97      3C47E915 
  97      5802A516 
  97      31B5
  98 024e D84E6F19 		.ascii	"\330No\031VaHu\024|\216B\325\253R\241P\001\204g\363"
  98      56614875 
  98      147C8E42 
  98      D5AB52A1 
  98      50018467 
  99 0263 6D06C4EE 		.ascii	"m\006\304\356\272*~\245\336\362\377\2342\213\020\357"
  99      BA2A7EA5 
  99      DEF2FF9C 
  99      328B10EF 
 100 0273 0CDFA5D6 		.ascii	"\014\337\245\3264\007\002\272\375IGSi=a\306\364\224"
 100      340702BA 
 100      FD494753 
 100      693D61C6 
 100      F494
 101 0285 D59D34A2 		.ascii	"\325\2354\242\266MC8\025\275\322\035M\030\321\360\321"
 101      B64D4338 
 101      15BDD21D 
 101      4D18D1F0 
 101      D1
 102 0296 A34D0103 		.ascii	"\243M\001\003\224\264\031\217\266\224\342\254\224\336"
 102      94B4198F 
 102      B694E2AC 
 102      94DE
 103 02a4 1589E997 		.ascii	"\025\211\351\227\255d:\245\237\015\005[\232\365\266"
 103      AD643AA5 
 103      9F0D055B 
 103      9AF5B6
 104 02b3 B6537AA8 		.ascii	"\266Sz\2505\330\323D\2360W\210\305:\002]\240W\306\030"
 104      35D8D344 
 104      9E305788 
ARM GAS  /tmp/ccsypGf3.s 			page 8


 104      C53A025D 
 104      A057C618 
 105 02c7 563C6E25 		.ascii	"V<n%\212a'\316\004O\006\257\352F\227a%\243a\322O\362"
 105      8A6127CE 
 105      044F06AF 
 105      EA469761 
 105      25A361D2 
 106 02dd FBF759DD 		.ascii	"\373\367Y\335i\277u\311O\266\277\327LtX\275\360\017"
 106      69BF75C9 
 106      4FB6BFD7 
 106      4C7458BD 
 106      F00F
 107 02ef F43EBD14 		.ascii	"\364>\275\024"
 108              		.text
 109              		.section	.gnu.lto_test_001_002_execute.39d7050a2e494c8c,"",%progbits
 110 0000 789C9D54 		.ascii	"x\234\235TKHTa\024>\347\277\017G\235q\214\224l#\203"
 110      4B485461 
 110      143EE7BF 
 110      0F479D71 
 110      8C946C23 
 111 0015 DB60AE0F 		.ascii	"\333`\256\017Z\265\310\250M\340lj\204Z\015\323\235\233"
 111      5AB5C8A8 
 111      4DE06C6A 
 111      845A0DD3 
 111      9D9B
 112 0027 5E98995B 		.ascii	"^\230\231[\363\310\240\205\277:\220+\033ZE\221d-\204"
 112      F3C8A085 
 112      BF3A902B 
 112      1B5A4591 
 112      642D84
 113 003a 904A5722 		.ascii	"\220JW\"-\244ME\251\264iQ\020B\233\026\201\020J\024"
 113      2DA44D45 
 113      A9B46951 
 113      10429B16 
 113      81104A14 
 114 004e E574CEBD 		.ascii	"\345t\316\275sG\261)\262\237\231\363\377\347\365\235"
 114      7347B129 
 114      B29F99F3 
 114      FFE7F59D 
 115 005e C7C78C00 		.ascii	"\307\307\214\000\001{O?}[T\200y\272Q\007\024\345U\200"
 115      017B4F3F 
 115      7D5B5480 
 115      79BA5107 
 115      14E55580 
 116 0072 B18010DA 		.ascii	"\261\200\020\332[\003d\223\262\324\0112\250T5\325\325"
 116      5B036493 
 116      B2D40932 
 116      A85435D5 
 116      D5
 117 0083 54D43808 		.ascii	"T\3248\0105D\276\001aT(\252\206\243\347\321\205|,\226"
 117      3544BE01 
 117      615428AA 
 117      86A3E7D1 
 117      857C2C96 
 118 0097 D72B9547 		.ascii	"\327+\225G\323\327\347\236\342\2348\244\201\215\240"
 118      D3D7E79E 
 118      E29C38A4 
ARM GAS  /tmp/ccsypGf3.s 			page 9


 118      818DA0
 119 00a6 B30890C0 		.ascii	"\263\010\220\300 \277B,\302\254\266\221\020\355,(S\203"
 119      20BF422C 
 119      C2ACB691 
 119      10ED2C28 
 119      5383
 120 00b8 9294E548 		.ascii	"\222\224\345H\027\314Hysy\376\371\324ayo\274,\267+\025"
 120      17CC4879 
 120      7379FEF9 
 120      D461796F 
 120      BC2CB72B 
 121 00cd A4000147 		.ascii	"\244\000\001G\021L\204s\244(\021\367R\325\275\363\230"
 121      114C8473 
 121      A42811F7 
 121      52D5BDF3 
 121      98
 122 00de 6E0F7192 		.ascii	"n\017q\222\334\333 \301\322\255\254\300\370\342\342"
 122      DCDB20C1 
 122      D2ADACC0 
 122      F8E2E2
 123 00ed D78E24CE 		.ascii	"\327\216$\316\240\006w\340\366\230\224\2556j\327\340"
 123      A00677E0 
 123      F69894AD 
 123      366AD7E0 
 124 00fd BB9CE497 		.ascii	"\273\234\344\227\236q\323\030R\007\377\245\261m\005"
 124      9E71D318 
 124      5207FFA5 
 124      B16D05
 125 010c 9EBD7BFD 		.ascii	"\236\275{\375aUT[\363{\\\3766\365^\251)\2576fH\361\320"
 125      6155545B 
 125      F37B5CFE 
 125      36F55EA9 
 125      29AF3666 
 126 0123 4DE426DD 		.ascii	"M\344&\335E\017a\333\021x(Kc\353\233[m66p\3412\227\013"
 126      450F61DB 
 126      1178284B 
 126      63EB9B5B 
 126      6D363670 
 127 013b 307CA3A4 		.ascii	"0|\243\244\243\272\225\032\335\232\027\270^\022g\011"
 127      A3BA951A 
 127      DD9A17B8 
 127      5E126709 
 128 014b 84CE4B18 		.ascii	"\204\316K\030\177\362\345\230\207\231\304\373\330\345"
 128      7FF2E598 
 128      8799C4FB 
 128      D8E5
 129 0159 C6AC4169 		.ascii	"\306\254Ai\375\323\307\006\317\014P\033\240\311D\245"
 129      FDD3C706 
 129      CF0C501B 
 129      A0C944A5 
 130 0169 D6B848D1 		.ascii	"\326\270H\321>\233\271\367\211\311\211\331\033\232\027"
 130      3E9BB9F7 
 130      89C989D9 
 130      1B9A17
 131 0178 3D841A35 		.ascii	"=\204\0325\304~H\201\347T|\217\356{,\267\206\356\333"
 131      C47E4881 
 131      E7547C8F 
ARM GAS  /tmp/ccsypGf3.s 			page 10


 131      EE7B2CB7 
 131      86EEDB
 132 018b 03B50241 		.ascii	"\003\265\002A\023\275]\2730:\333;l\014u\3024\336\225"
 132      13BD5DBB 
 132      303ADB3B 
 132      6C0C75C2 
 132      34DE95
 133 019e B7FA6D6C 		.ascii	"\267\372ml\251\316O\245\303\000/\240\364\031k(\014\215"
 133      A9CE4FA5 
 133      C3002FA0 
 133      F4196B28 
 133      0C8D
 134 01b0 BB591AA4 		.ascii	"\273Y\032\244n\227:=Z\266\367K\213\370gZ~\376\201\226"
 134      6E973A3D 
 134      5AB6F74B 
 134      8BF8675A 
 134      7EFE8196 
 135 01c4 F6FFA065 		.ascii	"\366\377\240ea\207\226\205\343\365h\371\361\000\377"
 135      61879685 
 135      E3F568F9 
 135      F100FF
 136 01d3 4E0BECA6 		.ascii	"N\013\354\246e+\354o'H\375\324g%\344{\366\260\022\256"
 136      652BEC6F 
 136      2748FDD4 
 136      6725E47B 
 136      F6B012AE 
 137 01e7 C70AC184 		.ascii	"\307\012\301\204\366\305J\270\016+*l4+k0\021\370m\222"
 137      F6C54AB8 
 137      0E2B2A6C 
 137      342B6B30 
 137      11F86D92 
 138 01fb 56D39B9F 		.ascii	"V\323\233\237\200\016\370\321\232\373\333zC\177\027"
 138      800EF8D1 
 138      9AFBDB7A 
 138      437F17
 139 020a 3B187182 		.ascii	";\030q\202$+/\2727\0325\274O\301\312\027\214\254\235"
 139      242B2FBA 
 139      371A35BC 
 139      4FC1CA17 
 139      8CAC9D
 140 021d 36F24E31 		.ascii	"6\362N1gZ\236\316\"\221\267.\027\255\254i%\272\273{"
 140      675A9ECE 
 140      2291B72E 
 140      17ADAC69 
 140      25BABB7B 
 141 0231 A226A805 		.ascii	"\242&\250\005;c\365\325\362\234\2741\234L\033\227\234"
 141      3B63F5D5 
 141      F29CBC31 
 141      9C4C1B97 
 141      9C
 142 0242 5C216F9C 		.ascii	"\\!o\234\215\307\372z\215\201\201SF\374t\354J\017{\022"
 142      8DC7FA7A 
 142      8D818153 
 142      46FC74EC 
 142      4A0F7B12 
 143 0256 84904EA7 		.ascii	"\204\220N\247\242\303`\354\3161\235L\306\311V\323N\234"
 143      A2C360EC 
ARM GAS  /tmp/ccsypGf3.s 			page 11


 143      CE319D4C 
 143      C6C956D3 
 143      4E9C
 144 0268 899D8C5D 		.ascii	"\211\235\214]5\314a\323\311Y\011\306\317Q\374A\247X"
 144      35CC61D3 
 144      C95909C6 
 144      CF51FC41 
 144      A758
 145 027a 88381723 		.ascii	"\2108\027#\254GF\354l\312\031\201_\241U.\345"
 145      AC4746EC 
 145      6CCA1981 
 145      5FA1552E 
 145      E5
 146              		.text
 147              		.section	.gnu.lto_.symbol_nodes.39d7050a2e494c8c,"",%progbits
 148 0000 789C4D8B 		.ascii	"x\234M\2139\016\302@\020\004{z\274\034\317\344%mA\202"
 148      390EC240 
 148      10047B7A 
 148      BC1CCFE4 
 148      256D4182 
 149 0014 331E00AF 		.ascii	"3\036\000\257A2\022\010R\247\200\21592>\200X\314rLR"
 149      41321208 
 149      52A7808D 
 149      39323E80 
 149      58CC724C 
 150 0029 AA520F41 		.ascii	"\252R\017Al\221\216G\010\230\355\000i^\214\30296\201"
 150      6C918E47 
 150      0898ED00 
 150      695E8CC2 
 150      393681
 151 003c 77C8525D 		.ascii	"w\310R]L\215\015\304\277Q\013\013B\250\301L\036N\360"
 151      4C8D0DC4 
 151      BF510B0B 
 151      42A8C14C 
 151      1E4EF0
 152 004f 08BB40FE 		.ascii	"\010\273@\376\336\344\271\331\025\312~v\203\302\327"
 152      DEE4B9D9 
 152      15CA7E76 
 152      83C2D7
 153 005e 9C032C37 		.ascii	"\234\003,7\025\235CL:F_\225=g\037u\371b\364\303\303"
 153      159D434C 
 153      3A465F95 
 153      3D671F75 
 153      F962F4C3 
 154 0073 3ADF47FA 		.ascii	":\337G\372\207\251{\332y\372sb\274\256\210'\"\304>\222"
 154      87A97BDA 
 154      79FA7362 
 154      BCAE8827 
 154      22C43E92 
 155              		.text
 156              		.section	.gnu.lto_.refs.39d7050a2e494c8c,"",%progbits
 157 0000 789C25C4 		.ascii	"x\234%\304\301\015\0000\010\304\260\\(\354\321\375\227"
 157      C10D0030 
 157      08C4B05C 
 157      28ECD1FD 
 157      97
 158 0011 AC44FDB0 		.ascii	"\254D\375\260\310\345\013I\231e\355\307v\322\222\261"
ARM GAS  /tmp/ccsypGf3.s 			page 12


 158      C8E50B49 
 158      9965EDC7 
 158      76D292B1 
 159 0021 7809B800 		.ascii	"x\011\270\000f"
 159      66
 160              		.text
 161              		.section	.gnu.lto_.decls.39d7050a2e494c8c,"",%progbits
 162 0000 789CB558 		.ascii	"x\234\265Xql\033\325\031\177\357\354\2446\211B\033:"
 162      716C1BD5 
 162      197FEFEC 
 162      A4368942 
 162      1B3A
 163 0012 96AE2B71 		.ascii	"\226\256+q+\0251\304\342\304\335\244\261? \305\255\000"
 163      2B1531C4 
 163      E2C4DDA4 
 163      B13F20C5 
 163      AD00
 164 0024 8930E4A4 		.ascii	"\2110\344\244R%\37607\347\300\326\034;\330\347\225j"
 164      5225FE30 
 164      37E7C0D6 
 164      1C3BD8E7 
 164      956A
 165 0036 7FEC252D 		.ascii	"\177\354%-]\327u\303\230\265K\241dI\241\013\245\003"
 165      5DD775C3 
 165      98B54BA1 
 165      6449A10B 
 165      A503
 166 0048 959484A6 		.ascii	"\225\224\204\246j\251\333i]F\307\032\301\326u\351Z\274"
 166      6AA9DB69 
 166      5D46C71A 
 166      C1D675E9 
 166      5ABC
 167 005a C226D880 		.ascii	"\302&\330\200U@\0015\315\274\357\275w\347{w\271\213"
 167      55400135 
 167      CDBCEFBD 
 167      77E77B77 
 167      B98B
 168 006c 6DA49DFC 		.ascii	"m\244\235\374>\277{\367}\277\367\373\276\357\335\367"
 168      3EBF7BF7 
 168      7DBFF7FB 
 168      BEEFDDF7 
 169 007c EE4E4212 		.ascii	"\356NB\022:\204\021*\302\361N\023B\267\273\020r#\204"
 169      3A84112A 
 169      C2F14E13 
 169      42B7BB10 
 169      722384
 170 008f 6E43FC7F 		.ascii	"nC\374\177\001\264ah{\240\215 ~\324B{\011\332\030\264"
 170      01B46168 
 170      7BA08D20 
 170      7ED4427B 
 170      09DA18B4 
 171 00a3 096847A0 		.ascii	"\011hG\240\345\241\235\322l^\207v\032\332\273\320>B"
 171      E5A19DD2 
 171      6C5E8776 
 171      1ADABBD0 
 171      3E42
 172 00b5 E683DA79 		.ascii	"\346\203\332y4\254\032h3\320\032\240\325C\273\012m\026"
ARM GAS  /tmp/ccsypGf3.s 			page 13


 172      34AC1A68 
 172      33D01AA0 
 172      D543BB0A 
 172      6D16
 173 00c7 5A2BF081 		.ascii	"Z+\360\201\037Z\014\302\245\331\264A\377\233\332\370"
 173      1F5A0CC2 
 173      A5D9B441 
 173      FF9BDAF8 
 174 00d7 EB164CCA 		.ascii	"\353\026L\312c\241\206\251cQ\336'\2049D\354oA;\012\375"
 174      63A186A9 
 174      6351DE27 
 174      843944EC 
 174      6F413B0A 
 175 00ec 5BB1E1DB 		.ascii	"[\261\341\333qd\314Y\253a\352s\212\376\331\315Oc\320"
 175      7164CC59 
 175      AB61EA73 
 175      8AFED9CD 
 175      4F63D0
 176 00ff 28CC29F2 		.ascii	"(\314)\362\250f\376o\303\371\270\205\307\204\015\217"
 176      A866FE6F 
 176      C3F9B885 
 176      C7840D8F 
 177 010f 31071E75 		.ascii	"1\007\036uh\033!\375dh\013\271k\262a\021\312\0228|\003"
 177      681B21FD 
 177      64680BB9 
 177      6BB26111 
 177      CA12387C 
 178 0124 0D5EB495 		.ascii	"\015^\264\225\016\027\366\222&H\360z,c\030\362\260N"
 178      0E17F692 
 178      2648F07A 
 178      2C6318F2 
 178      B04E
 179 0136 BD9701AD 		.ascii	"\275\227\001\255D\317\202*\350K2~\006{aIH\030\331\036"
 179      44CF822A 
 179      E84B327E 
 179      067B6149 
 179      4818D91E 
 180 014a FC3A3DA8 		.ascii	"\374:=\2509\357\353\275\".\241\017`\035\376:\315l\017"
 180      39EFEBBD 
 180      222EA10F 
 180      601DFE3A 
 180      CD6C0F
 181 015d 5EC47A8C 		.ascii	"^\304z\214\014\32182\015\315\304\247[\2705\213_\011"
 181      0CD13832 
 181      0DCDC4A7 
 181      5BB8358B 
 181      5F09
 182 016f 13D57B8D 		.ascii	"\023\325{\215N\243F\305\311n\030\327\351l5\317\371d"
 182      4EA346C5 
 182      C96E18D7 
 182      E96C35CF 
 182      F964
 183 0181 F616CCF5 		.ascii	"\366\026\314\365l\341\261\177\275)\021\342\221\361\010"
 183      6CE1B17F 
 183      BD2911E2 
 183      91F108
 184 0190 737F2546 		.ascii	"s\177%F7\243}<&\027\277l\023\207\312\221\317\357\333"
ARM GAS  /tmp/ccsypGf3.s 			page 14


 184      37A37D3C 
 184      2617BF6C 
 184      1387CA91 
 184      CFEFDB
 185 01a3 7E0B43DE 		.ascii	"~\013C\336\317\220\2730P|\036\337\\5\316\314\226#\267"
 185      CF90BB30 
 185      507C1EDF 
 185      5C35CECC 
 185      9623B7
 186 01b6 329C1719 		.ascii	"2\234\027\031\316O\260\031H\306\013\274\346D\301\271"
 186      CE4FB019 
 186      48C60BBC 
 186      E644C1B9 
 187 01c6 AE40D116 		.ascii	"\256@\321\026x\215\016\275\331\257E\377g\365f4H\362"
 187      788D0EBD 
 187      D9AF45FF 
 187      67F56634 
 187      48F2
 188 01d8 970AE75F 		.ascii	"\227\012\347_{u\331.\222\337L\212\305\037\242\353\321"
 188      7B75D92E 
 188      92DF4C8A 
 188      C51FA2EB 
 188      D1
 189 01e9 0E2DFB04 		.ascii	"\016-\373\004\2532\276\355K\216Y\034\305\327k\275u."
 189      AB32BEED 
 189      4B8E591C 
 189      C5D76BBD 
 189      752E
 190 01fb 3EA7847E 		.ascii	">\247\204~o\361\031\241\033\321^\212G\236#.\206F\365"
 190      6FF119A1 
 190      1BD15E8A 
 190      479E232E 
 190      8646F5
 191 020e 5FC2CD66 		.ascii	"_\302\315f\252\007\261$\016p^\371\301\337m\367d\373"
 191      AA07B124 
 191      0E705EF9 
 191      C1DF6DF7 
 191      64FB
 192 0220 0AC56273 		.ascii	"\012\305bs\345\244\306mH]\260'\2255\223\032\263\222"
 192      E5A4C66D 
 192      485DB027 
 192      9535931A 
 192      B392
 193 0232 7AC58E14 		.ascii	"z\305\216\024\031%\304\013\201*\322\033\221F@BW*\362"
 193      1925C40B 
 193      812AD21B 
 193      91464042 
 193      572AF2
 194 0245 79C20A7F 		.ascii	"y\302\012\177x.|![8}lg\323.r\242\332\\\034\325\334v"
 194      782E7C21 
 194      5B387D6C 
 194      67D32E72 
 194      A2DA5C1C 
 195 025c 21890FD0 		.ascii	"!\211\017\320\233\304\210\001\013\303c\222\225'W=fK"
 195      9BC48801 
 195      0BC36392 
 195      9527573D 
ARM GAS  /tmp/ccsypGf3.s 			page 15


 195      664B
 196 026e E493DCFB 		.ascii	"\344\223\334\373\222=\021\017\372\021+V\217\222>\374"
 196      923D110F 
 196      FA112B56 
 196      8F923EFC 
 197 027e 70F96A75 		.ascii	"p\371ju\002{`\362W\234\313\025U\240\007\265\347}\275"
 197      027B60F2 
 197      579CCB15 
 197      55A007B5 
 197      E77DBD
 198 0291 879D4BC8 		.ascii	"\207\235K\310q;\207M'\306ES\321-\225\332|\323@\203="
 198      713B874D 
 198      27C64553 
 198      D12D95DA 
 198      7CD34083 
 199 02a6 7B193F8B 		.ascii	"{\031?\213WVZG\3470\2334\212\033B\326\034\034u\310\301"
 199      57565A47 
 199      E7309B34 
 199      8A1B42D6 
 199      1C1C75C8 
 200 02bb 6BB639F8 		.ascii	"k\2669\370\360\330\316%d\270?_,\336\256\345XBg\034\020"
 200      F0D8CE25 
 200      64B83F5F 
 200      2CDEAEE5 
 200      5842671C 
 201 02d0 FE604658 		.ascii	"\376`FX\201\206\311P\256p9\367V\016\3476\015M\022\002"
 201      8186C950 
 201      AE7039F7 
 201      560EE736 
 201      0D4D1202 
 202 02e4 28B859C6 		.ascii	"(\270Y\3065\2644\375\263\004\342\344\305\037\0158\012"
 202      35B434FD 
 202      B304E2E4 
 202      C51F0D38 
 202      0A
 203 02f5 75200F55 		.ascii	"u \017U\342\362\036\374\004!:\224\276{M6\224\342\233"
 203      E2F21EFC 
 203      04213A94 
 203      BE7B4D36 
 203      94E29B
 204 0308 87F836A2 		.ascii	"\207\3706\242\307\331R\201\225\"\224KR\332m\026\242"
 204      C7D95281 
 204      9522944B 
 204      52DA6D16 
 204      A2
 205 0319 52BDBC9C 		.ascii	"R\275\274\234\373m\033\324K\315\302\347\250.\3437!\037"
 205      FB6D1BD4 
 205      4BCDC2E7 
 205      A82EE337 
 205      211F
 206 032b 65D5A8E2 		.ascii	"e\325\250\342\237q\243\346\030_\202\371\031\305\307"
 206      9F71A3E6 
 206      185F82F9 
 206      19C5C7
 207 033a 47914DD4 		.ascii	"G\221M\324\264c9\002\266\375\371\331\331ILr\365<\203"
 207      B4633902 
 207      B6FDF9D9 
ARM GAS  /tmp/ccsypGf3.s 			page 16


 207      D9494C72 
 207      F53C83
 208 034d 12BAC462 		.ascii	"\022\272\304bDM\355bT\332\362\364\005\322\340\265\300"
 208      444DED62 
 208      54DAF2F4 
 208      05D2E0B5 
 208      C0
 209 035e 15DF6370 		.ascii	"\025\337cp\246\305\307K\206S\314\247a^\201\244\204."
 209      A6C5C74B 
 209      8653CCA7 
 209      615E81A4 
 209      842E
 210 0370 574DC167 		.ascii	"WM\301g\242\220=Y\237\2259\256\204f*\001\3638\373\223"
 210      A2903D59 
 210      9F9539AE 
 210      84662A01 
 210      F338FB93 
 211 0384 13C136BB 		.ascii	"\023\3016\273\252\005\363Y\202\316\035\225\361\031v"
 211      AA05F359 
 211      82CE1D95 
 211      F11976
 212 0393 ABFD052F 		.ascii	"\253\375\005/\007\371W&\377\306\344\005\220\245CB\333"
 212      07F95726 
 212      FFC6E405 
 212      90A54342 
 212      DB
 213 03a4 5DD6CD94 		.ascii	"]\326\315\224'U\3003r\217\312#\332\347\300\222\2547"
 213      2755C033 
 213      728FCA23 
 213      DAE7C092 
 213      AC37
 214 03b6 1CFCA3F8 		.ascii	"\034\374\243\370\1777\335\346\002\344\003\272f=\033"
 214      7F37DDE6 
 214      02E403BA 
 214      663D1B
 215 03c5 356E136E 		.ascii	"5n\023nc\257%\343\213U?}\275\355\360\364%\326\001C\013"
 215      63AF25E3 
 215      8B553F7D 
 215      BDEDF0F4 
 215      25D60143 
 216 03da 867FE1B2 		.ascii	"\206\177\341\262\334\365sH\274\003w\375\015h\237\353"
 216      DCF57348 
 216      BC0377FD 
 216      0D689FEB 
 217 03ea 69C273F7 		.ascii	"i\302s\367\015t\220l\315\267\312x\012\330\225V\305\017"
 217      0D74906C 
 217      CDB7CA78 
 217      0AD89556 
 217      C50F
 218 03fc D0153240 		.ascii	"\320\0252@\012\347\267}\032\340>\321\01215\225?xr7&"
 218      0AE7B77D 
 218      1AE03ED1 
 218      0A313595 
 218      3F787237 
 219 0411 43FD84FC 		.ascii	"C\375\204\374\027\352\003\217\236\204~c\235t\356M\373"
 219      17EA038F 
 219      9E847E63 
ARM GAS  /tmp/ccsypGf3.s 			page 17


 219      9D74EE4D 
 219      FB
 220 0422 9E566BF8 		.ascii	"\236Vk\370l\355\334\222g\220O\225\037;\211\035\236\234"
 220      6CEDDC92 
 220      67904F95 
 220      1F3B891D 
 220      9E9C
 221 0434 793DD6A0 		.ascii	"y=\326\240\263\222\016\275B\203\376\240\352\250~\350"
 221      B3920EBD 
 221      4283FEA0 
 221      EAA87EE8 
 222 0444 10557DED 		.ascii	"\020U}\3558\331\275o\254\207\033\320\024Dp\240\335\230"
 222      38D9BD6F 
 222      AC871BD0 
 222      144470A0 
 222      DD98
 223 0456 9E2F446A 		.ascii	"\236/Dj1\315\324\370\222\024\317/h\316n%\371\303\265"
 223      31CDD4F8 
 223      9214CF2F 
 223      68CE6E25 
 223      F9C3B5
 224 0469 7A29109F 		.ascii	"z)\020\237\223\264y\261\036\222\351:S\354\237:e\023"
 224      93B479B1 
 224      1E92E93A 
 224      53EC9F3A 
 224      6513
 225 047b FB8FCBC7 		.ascii	"\373\217\313\307\376\343\262\261\177\372TE\261?[\202"
 225      FEE3B2B1 
 225      7FFA5445 
 225      B13F5B82 
 226 048b 5EAA417F 		.ascii	"^\252A\177Vu\354?w\210\375W\312\304\376S1\366\304\315"
 226      5675EC3F 
 226      7788FD57 
 226      CAC4FE53 
 226      31F6C4CD 
 227 049f 63FFD917 		.ascii	"c\377\331\027\211\375h\235\036\373\211\271\261\347\253"
 227      89FD689D 
 227      1EFB89B9 
 227      B1E7AB
 228 04ae 4BBFF12D 		.ascii	"K\277\361-\265\242\306\331\255\031\313\353\316\246y"
 228      B5A2C6D9 
 228      AD19CBEB 
 228      CEA679
 229 04bd 5F2664FC 		.ascii	"_&d\374kV\022\313?\276\333\355\210\265:\324\003\250"
 229      6B5612CB 
 229      3FBEDBED 
 229      88B53AD4 
 229      03A8
 230 04cf B4CF7E7E 		.ascii	"\264\317~~\361R\202\275\227\314\262Uq\332m.\245ea('"
 230      F15282BD 
 230      97CCB255 
 230      71DA6D2E 
 230      A5656128 
 231 04e4 225936D6 		.ascii	"\"Y6\326'\316\325\0237\037/\263\265n\336\224\337qn\367"
 231      27CED513 
 231      371F2FB3 
 231      B56EDE94 
ARM GAS  /tmp/ccsypGf3.s 			page 18


 231      DF716EF7 
 232 04f8 12327402 		.ascii	"\0222t\002 \257\262W\243s\214\002\265\375\002{+\340"
 232      20AFB257 
 232      A3738C02 
 232      B5FD027B 
 232      2BE0
 233 050a ED3CC7F6 		.ascii	"\355<\307\366\"\016\366V\325`>\023\330\200\010\366v"
 233      220EF656 
 233      D5603E13 
 233      D88008F6 
 233      76
 234 051b 25604EBB 		.ascii	"%`N\273$\200=)\202\275[5\230\231\331n\021\354\203J\300"
 234      24803D29 
 234      82BD5B35 
 234      9899D96E 
 234      11EC834A 
 235 0530 163A331B 		.ascii	"\026:3\033\024\301.U\015ffv@\004\373\244\022\260&gf"
 235      14C12E55 
 235      0D666676 
 235      4004FBA4 
 235      12B02667 
 236 0545 A322D895 		.ascii	"\243\"\330\225\252\301\314\314^\026\301HM\005`>gf\343"
 236      AAC1CCCC 
 236      5E16C148 
 236      4D05603E 
 236      6766E3
 237 0558 22D8A355 		.ascii	"\"\330\243U\203\231\231\035\022\301~\\\011\330M\316"
 237      8399991D 
 237      12C17E5C 
 237      09D84DCE 
 238 0568 CC0E8B60 		.ascii	"\314\016\213`?\255\032\314\314\354\210\010\366x%`\255"
 238      3FAD1ACC 
 238      CCEC8808 
 238      F6782560 
 238      AD
 239 0579 4ECCFAF2 		.ascii	"N\314\372\362\257\336\237\225\305\207\236\253\306\036"
 239      AFDE9F95 
 239      C5879EAB 
 239      C61E
 240 0587 61DD7E44 		.ascii	"a\335~D\265\375\316j2\036\224\252\335J~)\331o%\306\313"
 240      B5FDCE6A 
 240      321E94AA 
 240      DD4A7E29 
 240      D96F25C6 
 241 059c 98A8056E 		.ascii	"\230\250\005n\357\260\272mfa\347\2679\210Sb\020wU\022"
 241      EFB0BA6D 
 241      6661E7B7 
 241      39885362 
 241      10775512 
 242 05b0 C47667B0 		.ascii	"\304vg\2607D\260\301J\300\356r^+\177\022\301\366T\015"
 242      3744B0C1 
 242      4AC0EE72 
 242      5E2B7F12 
 242      C1F6540D 
 243 05c4 66667646 		.ascii	"ffvF\004\033\251\004\354>gfgE\260\347\253\006\023\231"
 243      041BA904 
 243      EC3E6766 
ARM GAS  /tmp/ccsypGf3.s 			page 19


 243      6745B0E7 
 243      AB061399 
 244 05d8 F5E5A78D 		.ascii	"\365\345\247\215\2057\324nYy\355\346jkR\333\357\250"
 244      8537D46E 
 244      5979EDE6 
 244      6A6B52DB 
 244      EFA8
 245 05ea 26E317AA 		.ascii	"&\343\027\252^x/:,<\361\363\207\241\005n\037\260\272"
 245      5E782F3A 
 245      2C3CF1F3 
 245      87A1056E 
 245      1FB0BA
 246 05fd 6D22A175 		.ascii	"m\"\241u\327\333\304\320\356\0207j\031\367I\364A\242"
 246      D7DBC4D0 
 246      EE10376A 
 246      19F749F4 
 246      41A2
 247 060f 5FA26F3F 		.ascii	"_\242o?\233\231\334\302\344V&\2671\271\235\311\2371"
 247      9B99DCC2 
 247      E45626B7 
 247      31B99DC9 
 247      9F31
 248 0621 996532C7 		.ascii	"\231e2\307\344\317\231\334\311\344\000\223O2\271\233"
 248      E4CF99DC 
 248      C9E40093 
 248      4F32B99B 
 249 0631 C961269F 		.ascii	"\311a&\237ar/\223#L\356cr\277$\274iY\236\223f\347y\247"
 249      61722F93 
 249      234CEE63 
 249      72BF24BC 
 249      69599E93 
 250 0649 3A20951E 		.ascii	": \225\036\224\264O\223\323\377\236,}\232\\n\371\034"
 250      94B44F93 
 250      D3FF9E2C 
 250      7D9A5C6E 
 250      F91C
 251 065b 36829DB3 		.ascii	"6\202\235\2630*\315\375\014\370\217\032\333\357t\375"
 251      302ACDFD 
 251      0CF88F1A 
 251      DBEF74FD 
 252 066b 64F439E2 		.ascii	"d\3649\342\325\277\031\301C\267\324\354\000\313.\037"
 252      D5BF19C1 
 252      43B7D4EC 
 252      00CB2E1F 
 253 067b 946CBE0A 		.ascii	"\224l\276\012\026>\372\317\331\257\225x\362\351%\364"
 253      163EFACF 
 253      D9AF9578 
 253      F2E925F4 
 254 068b 426D4513 		.ascii	"BmE\023\216\315?\341\270yBK8\217\316\363=\341\220\021"
 254      8ECD3FE1 
 254      B879424B 
 254      388FCEF3 
 254      3DE19011 
 255 069f 4E8BD5F1 		.ascii	"N\213\325\361y\254&\034\255\306\347\261:lX!w$*\247\226"
 255      79AC261C 
 255      ADC6E7B1 
 255      3A6C5821 
ARM GAS  /tmp/ccsypGf3.s 			page 20


 255      77242AA7 
 256 06b4 B5B4F8F9 		.ascii	"\265\264\370\371/\231\366'bq\177,\021\211g\272\025\177"
 256      2F99F627 
 256      62717F2C 
 256      118967BA 
 256      157F
 257 06c6 24DA1245 		.ascii	"$\332\022E\336\364\306\264\032\353Q\302j\355\235\367"
 257      DEF4C6B4 
 257      1AEB51C2 
 257      6AED9DF7 
 258 06d6 AEF305D1 		.ascii	"\256\363\005\3212\177&\235*\351$\224\015\361\330w\375"
 258      327F269D 
 258      2AE92494 
 258      0DF1D877 
 258      FD
 259 06e7 69B53B96 		.ascii	"i\265;\226PA\335\223\201\377U\201\260\372u;\265\036"
 259      5041DD93 
 259      81FF5581 
 259      B0FA753B 
 259      B51E
 260 06f9 39128D25 		.ascii	"9\022\215%\024\177\270[yP\316\304\325\260\272\261WI"
 260      147FB85B 
 260      7950CEC4 
 260      D5B0BAB1 
 260      5749
 261 070b 83D935E1 		.ascii	"\203\3315\341\260n\030(\321Q\225\264\312\010\245\223"
 261      B06E1828 
 261      D15195B4 
 261      CA08A593 
 262 071b 995444E1 		.ascii	"\231TD\341\347T\204\323\312\303\031%\021Q\302\255\255"
 262      E75484D3 
 262      CAC31925 
 262      1151C2AD 
 262      AD
 263 072c 6D2D11B4 		.ascii	"m-\021\264\230\015B\2375\345\021%\222Q\225\245\302`"
 263      980D429F 
 263      35E51125 
 263      925195A5 
 263      C260
 264 073e 401F6CE9 		.ascii	"@\037l\351\225SjK\353b\273k\327D\242]\321\356\316\270"
 264      95536A4B 
 264      EB62BB6B 
 264      D744A25D 
 264      D1EECEB8 
 265 0752 A2F47ED5 		.ascii	"\242\364~\325\314\201R\217D\303\264\017\\k\302w$\223"
 265      CC81528F 
 265      44C3B40F 
 265      5C6BC277 
 265      2493
 266 0764 F126761A 		.ascii	"\361&v\032\226\323i%\005~\320\010m\210%\272\223\033"
 266      96D36925 
 266      057ED008 
 266      6D8825BA 
 266      931B
 267 0776 AE3560D6 		.ascii	"\2565`\326%\324X\334\313\031\253J\257;!\367(5iE\315"
 267      25D458DC 
 267      CB19AB4A 
ARM GAS  /tmp/ccsypGf3.s 			page 21


 267      AF3B21F7 
 267      28356945 
 268 078b F47A5445 		.ascii	"\364zTEN\201rb\201>9\325\212\310i\210\363\2429..iI%"
 268      4E817262 
 268      813E39D5 
 268      8AC86988 
 268      F3A2392E 
 269 07a3 BB65556E 		.ascii	"\273eUn\231s\245^\364|E'\244J\351\361u\305\"\337\363"
 269      9973A55E 
 269      F47C4527 
 269      A44AE9F1 
 269      75C522DF 
 270 07b8 05939984 		.ascii	"\005\223\231\204\252\244|\017f\022\0215\226L\310\361"
 270      AAA47C0F 
 270      66121135 
 270      964CC8F1 
 271 07c8 98BA1189 		.ascii	"\230\272\021\211\372\201\245]"
 271      FA81A55D 
 272 07d0 D1942277 		.ascii	"\321\224\"w\373\030W\213b@\\\024Q9\356\357M\246\324"
 272      FB18578B 
 272      62405C14 
 272      5139EEEF 
 272      4DA6D4
 273 07e3 B4BFB3AB 		.ascii	"\264\277\263\253cU\300\177\317=k\374]ww|\277\015\362"
 273      6355C07F 
 273      CF3D6BFC 
 273      5D77777C 
 273      BF0DF2
 274 07f6 DE437316 		.ascii	"\336Cs\026\353\201\270\324\225N\302\252+\030j\203\026"
 274      EB81B8D4 
 274      954EC2AA 
 274      2B186A83 
 274      16
 275 0807 70777604 		.ascii	"pwv\004C\3565w\257\015I\235!\327\332;C5\301`G\250\215"
 275      43EE3577 
 275      AF0D499D 
 275      21D7DA3B 
 275      4335C160 
 276 081e C9803B18 		.ascii	"\311\200;\030\\\033r\005\357\355r\335\327\031t\255\016"
 276      5C1B7205 
 276      EFED72DD 
 276      D71974AD 
 276      0E
 277 082f 855CA120 		.ascii	"\205\\\241 \234\203\301\035k\272B\2565\324\262cuH\372"
 277      9C83C11D 
 277      6BBA42AE 
 277      35D4B263 
 277      7548FA
 278 0842 0EB75A05 		.ascii	"\016\267Z\005\372\353C~\221X$\331\323\223Lh\334V\207"
 278      FAEB437E 
 278      915824D9 
 278      D3934C68 
 278      DC5687
 279 0855 3A821D8F 		.ascii	":\202\035\217@\242\"\311\224\3022\222\002V\327\321\213"
 279      40A222C9 
 279      94C23292 
 279      0256D7D1 
ARM GAS  /tmp/ccsypGf3.s 			page 22


 279      8B
 280 0866 FC2CFC90 		.ascii	"\374,\374\220\302{\253*s\016\256@\336\302\361x7\340"
 280      C27BAB2A 
 280      730EAE40 
 280      DEC2F178 
 280      37E0
 281 0878 34F21EC3 		.ascii	"4\362\036\303\210\360\330\376\017\276\272\277\321"
 281      88F0D8FE 
 281      0FBEBABF 
 281      D1
 282              		.text
 283              		.section	.gnu.lto_.symtab.39d7050a2e494c8c,"",%progbits
 284 0000 74657374 		.ascii	"test_sequence_001\000\000\000\000\000\000\000\000\000"
 284      5F736571 
 284      75656E63 
 284      655F3030 
 284      31000000 
 285 001a 000000CF 		.ascii	"\000\000\000\317\000\000\000test_step\000\000\002\000"
 285      00000074 
 285      6573745F 
 285      73746570 
 285      00000200 
 286 002e 00000000 		.ascii	"\000\000\000\000\000\000\000\000\315\000\000\000chT"
 286      00000000 
 286      CD000000 
 286      636854
 287 003d 6864536C 		.ascii	"hdSleep\000\000\002\000\000\000\000\000\000\000\000"
 287      65657000 
 287      00020000 
 287      00000000 
 287      0000
 288 004f 00BC0000 		.ascii	"\000\274\000\000\000_test_assert_time_window\000\000"
 288      005F7465 
 288      73745F61 
 288      73736572 
 288      745F7469 
 289 006e 02000000 		.ascii	"\002\000\000\000\000\000\000\000\000\000\300\000\000"
 289      00000000 
 289      0000C000 
 289      00
 290 007b 00636854 		.ascii	"\000chThdSleepUntil\000\000\002\000\000\000\000\000"
 290      6864536C 
 290      65657055 
 290      6E74696C 
 290      00000200 
 291 0093 00000000 		.ascii	"\000\000\000\000\313\000\000\000"
 291      CB000000 
 292              		.text
 293              		.section	.gnu.lto_.opts,"",%progbits
 294 0000 272D6D63 		.ascii	"'-mcpu=cortex-m0' '-mno-thumb-interwork' '-mthumb' "
 294      70753D63 
 294      6F727465 
 294      782D6D30 
 294      2720272D 
 295 0033 272D6767 		.ascii	"'-ggdb' '-O2' '-fomit-frame-pointer' '-falign-funct"
 295      64622720 
 295      272D4F32 
ARM GAS  /tmp/ccsypGf3.s 			page 23


 295      2720272D 
 295      666F6D69 
 296 0066 696F6E73 		.ascii	"ions=16' '-ffunction-sections' '-fdata-sections' '-"
 296      3D313627 
 296      20272D66 
 296      66756E63 
 296      74696F6E 
 297 0099 666E6F2D 		.ascii	"fno-common' '-flto'\000"
 297      636F6D6D 
 297      6F6E2720 
 297      272D666C 
 297      746F2700 
 298              		.text
 299              		.cfi_sections	.debug_frame
 300              		.section	.text.test_001_001_execute,"ax",%progbits
 301              		.align	2
 302              		.p2align 4,,15
 303              		.code	16
 304              		.thumb_func
 305              		.type	test_001_001_execute, %function
 306              	test_001_001_execute:
 307              	.LFB98:
 308              		.file 1 "../../../test/nil/source/test/test_sequence_001.c"
 309              		.loc 1 61 0
 310              		.cfi_startproc
 311              		.loc 1 65 0
 312 0000 044B     		ldr	r3, .L5
 313 0002 0122     		mov	r2, #1
 314 0004 1A60     		str	r2, [r3]
 315              	.LBB48:
 316              	.LBB49:
 317              	.LBB50:
 318              	.LBB51:
 319              		.file 2 "../../../os/hal/ports/STM32/LLD/TIMv1/hal_st_lld.h"
 320              		.loc 2 141 0
 321 0006 8022     		mov	r2, #128
 322 0008 D205     		lsl	r2, r2, #23
 323 000a 516A     		ldr	r1, [r2, #36]
 324              	.L3:
 325              	.LBE51:
 326              	.LBE50:
 327              	.LBE49:
 328              	.LBB52:
 329              	.LBB53:
 330              	.LBB54:
 331              		.loc 2 141 0 is_stmt 0 discriminator 1
 332 000c 536A     		ldr	r3, [r2, #36]
 333              	.LBE54:
 334              	.LBE53:
 335              	.LBE52:
 336              		.loc 1 68 0 is_stmt 1 discriminator 1
 337 000e 9942     		cmp	r1, r3
 338 0010 FCD0     		beq	.L3
 339              	.LBE48:
 340              		.loc 1 71 0
 341              		@ sp needed
 342 0012 7047     		bx	lr
ARM GAS  /tmp/ccsypGf3.s 			page 24


 343              	.L6:
 344              		.align	2
 345              	.L5:
 346 0014 00000000 		.word	test_step
 347              		.cfi_endproc
 348              	.LFE98:
 349              		.size	test_001_001_execute, .-test_001_001_execute
 350 0018 C046C046 		.section	.text.test_001_002_execute,"ax",%progbits
 350      C046C046 
 351              		.align	2
 352              		.p2align 4,,15
 353              		.code	16
 354              		.thumb_func
 355              		.type	test_001_002_execute, %function
 356              	test_001_002_execute:
 357              	.LFB99:
 358              		.loc 1 103 0
 359              		.cfi_startproc
 360 0000 F8B5     		push	{r3, r4, r5, r6, r7, lr}
 361              		.cfi_def_cfa_offset 24
 362              		.cfi_offset 3, -24
 363              		.cfi_offset 4, -20
 364              		.cfi_offset 5, -16
 365              		.cfi_offset 6, -12
 366              		.cfi_offset 7, -8
 367              		.cfi_offset 14, -4
 368              	.LBB78:
 369              	.LBB79:
 370              	.LBB80:
 371              		.loc 2 141 0
 372 0002 8026     		mov	r6, #128
 373              	.LBE80:
 374              	.LBE79:
 375              	.LBE78:
 376              		.loc 1 109 0
 377 0004 284F     		ldr	r7, .L12
 378              	.LBB83:
 379              	.LBB82:
 380              	.LBB81:
 381              		.loc 2 141 0
 382 0006 F605     		lsl	r6, r6, #23
 383 0008 746A     		ldr	r4, [r6, #36]
 384              	.LBE81:
 385              	.LBE82:
 386              	.LBE83:
 387              		.loc 1 109 0
 388 000a 0123     		mov	r3, #1
 389              		.loc 1 112 0
 390 000c 6420     		mov	r0, #100
 391              		.loc 1 109 0
 392 000e 3B60     		str	r3, [r7]
 393              		.loc 1 112 0
 394 0010 FFF7FEFF 		bl	chThdSleep
 395              	.LVL0:
 396              		.loc 1 113 0
 397 0014 254D     		ldr	r5, .L12+4
 398 0016 201C     		mov	r0, r4
ARM GAS  /tmp/ccsypGf3.s 			page 25


 399 0018 211C     		mov	r1, r4
 400 001a 6430     		add	r0, r0, #100
 401 001c 6531     		add	r1, r1, #101
 402 001e 2A1C     		mov	r2, r5
 403 0020 FFF7FEFF 		bl	_test_assert_time_window
 404              	.LVL1:
 405 0024 0028     		cmp	r0, #0
 406 0026 00D0     		beq	.L11
 407              	.L7:
 408              		.loc 1 163 0
 409              		@ sp needed
 410 0028 F8BD     		pop	{r3, r4, r5, r6, r7, pc}
 411              	.L11:
 412              	.LBB84:
 413              	.LBB85:
 414              	.LBB86:
 415              		.loc 2 141 0
 416 002a 746A     		ldr	r4, [r6, #36]
 417              	.LBE86:
 418              	.LBE85:
 419              	.LBE84:
 420              		.loc 1 121 0
 421 002c 0223     		mov	r3, #2
 422              		.loc 1 124 0
 423 002e 6420     		mov	r0, #100
 424              		.loc 1 121 0
 425 0030 3B60     		str	r3, [r7]
 426              		.loc 1 124 0
 427 0032 FFF7FEFF 		bl	chThdSleep
 428              	.LVL2:
 429              		.loc 1 125 0
 430 0036 201C     		mov	r0, r4
 431 0038 211C     		mov	r1, r4
 432 003a 6430     		add	r0, r0, #100
 433 003c 6531     		add	r1, r1, #101
 434 003e 2A1C     		mov	r2, r5
 435 0040 FFF7FEFF 		bl	_test_assert_time_window
 436              	.LVL3:
 437 0044 0028     		cmp	r0, #0
 438 0046 EFD1     		bne	.L7
 439              	.LBB87:
 440              	.LBB88:
 441              	.LBB89:
 442              	.LBB90:
 443              	.LBB91:
 444              		.loc 2 141 0
 445 0048 746A     		ldr	r4, [r6, #36]
 446              	.LBE91:
 447              	.LBE90:
 448              	.LBE89:
 449              		.loc 1 133 0
 450 004a 0323     		mov	r3, #3
 451              		.loc 1 136 0
 452 004c 6420     		mov	r0, #100
 453              		.loc 1 133 0
 454 004e 3B60     		str	r3, [r7]
 455              		.loc 1 136 0
ARM GAS  /tmp/ccsypGf3.s 			page 26


 456 0050 FFF7FEFF 		bl	chThdSleep
 457              	.LVL4:
 458              		.loc 1 137 0
 459 0054 201C     		mov	r0, r4
 460 0056 211C     		mov	r1, r4
 461 0058 6430     		add	r0, r0, #100
 462 005a 6531     		add	r1, r1, #101
 463 005c 2A1C     		mov	r2, r5
 464 005e FFF7FEFF 		bl	_test_assert_time_window
 465              	.LVL5:
 466 0062 0028     		cmp	r0, #0
 467 0064 E0D1     		bne	.L7
 468              		.loc 1 147 0
 469 0066 FA20     		mov	r0, #250
 470              		.loc 1 144 0
 471 0068 0423     		mov	r3, #4
 472              		.loc 1 147 0
 473 006a 8000     		lsl	r0, r0, #2
 474              	.LBB92:
 475              	.LBB93:
 476              	.LBB94:
 477              		.loc 2 141 0
 478 006c 746A     		ldr	r4, [r6, #36]
 479              	.LBE94:
 480              	.LBE93:
 481              	.LBE92:
 482              		.loc 1 144 0
 483 006e 3B60     		str	r3, [r7]
 484              		.loc 1 147 0
 485 0070 FFF7FEFF 		bl	chThdSleep
 486              	.LVL6:
 487              		.loc 1 148 0
 488 0074 FA23     		mov	r3, #250
 489 0076 9B00     		lsl	r3, r3, #2
 490 0078 E018     		add	r0, r4, r3
 491 007a 0D4B     		ldr	r3, .L12+8
 492 007c 2A1C     		mov	r2, r5
 493 007e E118     		add	r1, r4, r3
 494 0080 FFF7FEFF 		bl	_test_assert_time_window
 495              	.LVL7:
 496 0084 0028     		cmp	r0, #0
 497 0086 CFD1     		bne	.L7
 498              	.LBB95:
 499              	.LBB96:
 500              	.LBB97:
 501              		.loc 2 141 0
 502 0088 766A     		ldr	r6, [r6, #36]
 503              	.LBE97:
 504              	.LBE96:
 505              	.LBE95:
 506              		.loc 1 155 0
 507 008a 0523     		mov	r3, #5
 508              		.loc 1 158 0
 509 008c 341C     		mov	r4, r6
 510 008e 6434     		add	r4, r4, #100
 511 0090 201C     		mov	r0, r4
 512              		.loc 1 155 0
ARM GAS  /tmp/ccsypGf3.s 			page 27


 513 0092 3B60     		str	r3, [r7]
 514              		.loc 1 158 0
 515 0094 FFF7FEFF 		bl	chThdSleepUntil
 516              	.LVL8:
 517              		.loc 1 159 0
 518 0098 311C     		mov	r1, r6
 519 009a 6531     		add	r1, r1, #101
 520 009c 201C     		mov	r0, r4
 521 009e 2A1C     		mov	r2, r5
 522 00a0 FFF7FEFF 		bl	_test_assert_time_window
 523              	.LVL9:
 524 00a4 C0E7     		b	.L7
 525              	.L13:
 526 00a6 C046     		.align	2
 527              	.L12:
 528 00a8 00000000 		.word	test_step
 529 00ac 00000000 		.word	.LC2
 530 00b0 E9030000 		.word	1001
 531              	.LBE88:
 532              	.LBE87:
 533              		.cfi_endproc
 534              	.LFE99:
 535              		.size	test_001_002_execute, .-test_001_002_execute
 536              		.global	test_sequence_001
 537 00b4 C046C046 		.section	.rodata.test_sequence_001,"a",%progbits
 537      C046C046 
 537      C046C046 
 538              		.align	2
 539              		.type	test_sequence_001, %object
 540              		.size	test_sequence_001, 12
 541              	test_sequence_001:
 542 0000 00000000 		.word	test_001_001
 543 0004 00000000 		.word	test_001_002
 544 0008 00000000 		.word	0
 545              		.section	.rodata.test_001_001,"a",%progbits
 546              		.align	2
 547              		.type	test_001_001, %object
 548              		.size	test_001_001, 16
 549              	test_001_001:
 550 0000 30000000 		.word	.LC5
 551 0004 00000000 		.word	0
 552 0008 00000000 		.word	0
 553 000c 00000000 		.word	test_001_001_execute
 554              		.section	.rodata.test_001_002,"a",%progbits
 555              		.align	2
 556              		.type	test_001_002, %object
 557              		.size	test_001_002, 16
 558              	test_001_002:
 559 0000 14000000 		.word	.LC4
 560 0004 00000000 		.word	0
 561 0008 00000000 		.word	0
 562 000c 00000000 		.word	test_001_002_execute
 563              		.section	.rodata.str1.4,"aMS",%progbits,1
 564              		.align	2
 565              	.LC2:
 566 0000 6F757420 		.ascii	"out of time window\000"
 566      6F662074 
ARM GAS  /tmp/ccsypGf3.s 			page 28


 566      696D6520 
 566      77696E64 
 566      6F7700
 567 0013 00       		.space	1
 568              	.LC4:
 569 0014 54687265 		.ascii	"Thread Sleep functionality\000"
 569      61642053 
 569      6C656570 
 569      2066756E 
 569      6374696F 
 570 002f 00       		.space	1
 571              	.LC5:
 572 0030 53797374 		.ascii	"System Tick Counter functionality\000"
 572      656D2054 
 572      69636B20 
 572      436F756E 
 572      74657220 
 573 0052 0000     		.text
 574              	.Letext0:
 575              		.file 3 "/usr/lib/gcc/arm-none-eabi/4.8.2/include/stddef.h"
 576              		.file 4 "/usr/include/newlib/machine/_default_types.h"
 577              		.file 5 "/usr/include/newlib/stdint.h"
 578              		.file 6 "../../../os/nil/include/ch.h"
 579              		.file 7 "../../../os/hal/ports/STM32/LLD/TIMv1/stm32_tim.h"
 580              		.file 8 "../../../test/lib/ch_test.h"
 581              		.file 9 "../../../os/common/ports/ARMCMx/chcore_timer.h"