ARM GAS  /tmp/ccQr8aQx.s 			page 1


   1              		.cpu cortex-m0
   2              		.fpu softvfp
   3              		.eabi_attribute 20, 1
   4              		.eabi_attribute 21, 1
   5              		.eabi_attribute 23, 3
   6              		.eabi_attribute 24, 1
   7              		.eabi_attribute 25, 1
   8              		.eabi_attribute 26, 1
   9              		.eabi_attribute 30, 2
  10              		.eabi_attribute 34, 0
  11              		.eabi_attribute 18, 4
  12              		.code	16
  13              		.file	"test_sequence_006.c"
  14              		.text
  15              	.Ltext0:
  16              		.section	.gnu.lto_.jmpfuncs.788d9d34923c622e,"",%progbits
  17 0000 789CC555 		.ascii	"x\234\305U\261N\3030\020='\245\224\226\266i\221*&\313"
  17      B14EC330 
  17      103D27A5 
  17      9496B669 
  17      912A26CB 
  18 0014 3B5FC0C6 		.ascii	";_\300\306\314\216\304j\0227\265H\234\210\004\004t\311"
  18      CC8EC46A 
  18      1237B548 
  18      9C880404 
  18      74C9
  19 0026 080B7317 		.ascii	"\010\013s\027~\224\201\326\216\003$\320\244\251\032"
  19      7E9481D6 
  19      8E0324D0 
  19      A4A91A
  20 0035 952C71EE 		.ascii	"\225,q\356\335{\357\316']\0140`\335\363\332\006x\223"
  20      DD7BEFCE 
  20      275D0C30 
  20      60DDF3DA 
  20      067893
  21 0048 6F135482 		.ascii	"o\023T\2021\207\217d\221X\034\001\006\364\236,.8Bi\236"
  21      31878F64 
  21      91581C01 
  21      06F49E2C 
  21      2E384269 
  22 005d 695C238E 		.ascii	"i\\#\216\224Fz0\223\317\345r\370\365\321\001@\277\370"
  22      94467A30 
  22      93CFE572 
  22      F8F5D101 
  22      40BFF8
  23 0070 2D0CA79A 		.ascii	"-\014\247\232\177\220\361\025\364\242 \303\327\222)"
  23      7F90F115 
  23      F4A220C3 
  23      D79229
  24 007f B76DE544 		.ascii	"\267m\345D~LRJQ\361\020\303\231V\354hz\036<\302p\256"
  24      7E4C524A 
  24      51F110C3 
  24      9956EC68 
  24      7A1E3CC2 
  25 0095 C16E995D 		.ascii	"\301n\231]\346\323\203\277\305\036c\270\324\354~e\261"
  25      E6D383BF 
  25      C51E63B8 
ARM GAS  /tmp/ccQr8aQx.s 			page 2


  25      D4EC7E65 
  25      B1
  26 00a6 BDC261CB 		.ascii	"\275\302a\313v\013}VU\267[c\250\342\256I\256\206\202"
  26      760B7D56 
  26      55B75B63 
  26      A8E2AE49 
  26      AE8682
  27 00b9 CB00C395 		.ascii	"\313\000\303\225v\031\326s\2519\316\032I;w\273\203\300"
  27      7619D673 
  27      A939CE1A 
  27      493B77BB 
  27      83C0
  28 00cb D6E886F2 		.ascii	"\326\350\206\362\367|\215\243&\257\261\321\241\356g"
  28      F77C8DA3 
  28      26AFB1D1 
  28      A1EE67
  29 00da F2FF5CB2 		.ascii	"\362\377\\\262\\\221N~E\326\007-\014s\015\216\312\233"
  29      5C914E7E 
  29      45D6072D 
  29      0C730D8E 
  29      CA9B
  30 00ec 6D68A76E 		.ascii	"mh\247n\330\352%\012\211\321\314\240Zk-\276#c_\027\222"
  30      D8EA250A 
  30      89D1CCA0 
  30      5A6B2DBE 
  30      23635F17 
  31 0101 FD53D479 		.ascii	"\375S\324yB=/\260i\314\003AD\020\223)\345\036s`\234"
  31      423D2FB0 
  31      69CC0341 
  31      44109329 
  31      E51E7360 
  32 0116 0B67A17E 		.ascii	"\013g\241~\304\237\031\261gT\270\362\313\2321\032\222"
  32      C49F19B1 
  32      6754B8F2 
  32      CB9A311A 
  32      92
  33 0127 E91D757D 		.ascii	"\351\035u}&b\031\350*6\363\303\370\011\006\\<P\217;"
  33      266219E8 
  33      2A36F3C3 
  33      F809065C 
  33      3C508F3B 
  34 013b 248A69CC 		.ascii	"$\212i\314`r/\330c\310l\231ER\226\016\237\370<\212\270"
  34      60722FD8 
  34      63C86C99 
  34      4552960E 
  34      9FF83C8A 
  35 0150 70A50863 		.ascii	"p\245\010c\344F\332\335\302\012\253\220Q~"
  35      E446DADD 
  35      C20AAB90 
  35      517E
  36              		.text
  37              		.section	.gnu.lto_.inline.788d9d34923c622e,"",%progbits
  38 0000 789C6362 		.ascii	"x\234cb`b\300\006\354\240\302\314\014\034\312V\214\014"
  38      6062C006 
  38      ECA0C2CC 
  38      0C1CCA56 
  38      8C0C
ARM GAS  /tmp/ccQr8aQx.s 			page 3


  39 0012 4C021702 		.ascii	"L\002\027\002\030\330\026\310\203EYx\031\030\230&\370"
  39      18D816C8 
  39      83455978 
  39      19189826 
  39      F8
  40 0023 31B0F281 		.ascii	"1\260\362\201\344\201ln\006\006\306\011~\350\302 >\210"
  40      E4816C6E 
  40      0606C609 
  40      7EE8C220 
  40      3E88
  41 0035 6616D8CA 		.ascii	"f\026\330\312\244\0074\242\217qM\004\206\031$\230\205"
  41      A40734A2 
  41      8F714D04 
  41      86192498 
  41      85
  42 0046 E043F561 		.ascii	"\340C\365aJ\300\365C)\354\332\341\252`\\\002\312p\270"
  42      4AC0F543 
  42      29ECDAE1 
  42      AA605C02 
  42      CA70B8
  43 0059 8948DDA4 		.ascii	"\211H\335\244Y\202C\023U5S\024\366X\370\014\354\374"
  43      59824313 
  43      55355314 
  43      F658F80C 
  43      ECFC
  44 006b 8CE06484 		.ascii	"\214\340d\204\034\271 \031\006\000\310\233*/"
  44      1CB92019 
  44      0600C89B 
  44      2A2F
  45              		.text
  46              		.section	.gnu.lto_.pureconst.788d9d34923c622e,"",%progbits
  47 0000 789C6362 		.ascii	"x\234cb`b`g\200\000f\006\011f\011\026\011\000\001\305"
  47      60626067 
  47      80006606 
  47      09660916 
  47      090001C5 
  48 0014 005E     		.ascii	"\000^"
  49              		.text
  50              		.section	.gnu.lto_test_006_002_execute.788d9d34923c622e,"",%progbits
  51 0000 789C9555 		.ascii	"x\234\225UML\023Q\020\236y\333m\013\266\026\371i\340"
  51      4D4C1351 
  51      109E79DB 
  51      6D0BB616 
  51      F969E0
  52 0013 4208470F 		.ascii	"B\010G\017-\032\177\216r7&\036\300h<4\353\262\226\215"
  52      2D1A7F8E 
  52      7237261E 
  52      C0683C34 
  52      EBB2968D 
  53 0027 6D1769B9 		.ascii	"m\027i\271\300\201Gi\010\211\306\020N\2421@\032\304"
  53      C0814769 
  53      0889C610 
  53      4EA23140 
  53      1AC4
  54 0039 8B22E142 		.ascii	"\213\"\341B\"\306\306\304\004\017\330\220p\340bl\274"
  54      22C6C6C4 
  54      040FD890 
ARM GAS  /tmp/ccQr8aQx.s 			page 4


  54      70E0626C 
  54      BC
  55 004a 9088311E 		.ascii	"\220\2101\036\214F \326\367\323n\013\326V7\355\354\233"
  55      8C4620D6 
  55      F7D36E0B 
  55      D65637ED 
  55      EC9B
  56 005c 79F3F3CD 		.ascii	"y\363\363\315\274\257\257\004\010\034}.\262\257\307"
  56      BCAFAF04 
  56      081C7D2E 
  56      B2AFC7
  57 006b 09B0C4DE 		.ascii	"\011\260\304\336\350\002$S\357\000\306\334\204\250k"
  57      E8022453 
  57      EF00C6DC 
  57      84A86B
  58 007a E781D62B 		.ascii	"\347\201\326+[~\240\036\205\250[A\2469\326\332\231\346"
  58      5B7EA01E 
  58      85A85B41 
  58      A639D6DA 
  58      99E6
  59 008c 40A77452 		.ascii	"@\247tR\213\013'\"_\000\302(Q\034\252\023G\257!ON:a"
  59      8B0B2722 
  59      5F00C228 
  59      511CAA13 
  59      47AF214F 
  60 00a3 9E66A673 		.ascii	"\236f\246s\013\3377q\206fRs\364 \237G4\221\0019\213"
  60      0BDF3771 
  60      86665273 
  60      F4209F47 
  60      34910139 
  61 00b8 A0235C65 		.ascii	"\240#\\e\012v\210\027q\034F&c\351\373\276u\232\312\344"
  61      0A768817 
  61      711C4626 
  61      63E9FBBE 
  61      759ACAE4 
  62 00cc F3174454 		.ascii	"\363\027DTw\255\250%\222\311\345\363\007?s\037\367\261"
  62      77ADA825 
  62      92C9E5F3 
  62      073F731F 
  62      F7B1
  63 00de A9D50526 		.ascii	"\251\325\005&*u\\x\271\360q\321\314\204\243\205\013"
  63      2A755C78 
  63      B9F071D1 
  63      CC84A385 
  63      0B
  64 00ef E6AE428A 		.ascii	"\346\256B\212\322\251\016^\213Ng\226\263w\333\350\\"
  64      D2A90E5E 
  64      8B4E6796 
  64      B377DBE8 
  64      5C
  65 0100 728AFE62 		.ascii	"r\212\376b0\231\003\201K\265\352i8\217\235L\246\231"
  65      30990381 
  65      4BB5EA69 
  65      388F9D4C 
  65      A699
  66 0112 04EECB9E 		.ascii	"\004\356\313\236\036&\371<z\221\360\267\262\001\311"
  66      1E26F93C 
ARM GAS  /tmp/ccQr8aQx.s 			page 5


  66      7A91F0B7 
  66      B201C9
  67 0121 D5D51F6D 		.ascii	"\325\325\037m\032.\240\012\017\341\301\030\245\015&"
  67      1A2EA00A 
  67      0FE1C118 
  67      A50D26
  68 0130 AA23B047 		.ascii	"\252#\260G'\371\312\031\025a<\275\023\212+\225\333\262"
  68      27F9CA19 
  68      15613CBD 
  68      138A2B95 
  68      DBB2
  69 0142 3091FBB0 		.ascii	"0\221\373\260\2102\022\300\216p\351\210\266\247[n\260"
  69      883212C0 
  69      8E70E988 
  69      B6A75B6E 
  69      B0
  70 0153 2764625D 		.ascii	"'db]\021\220\210\030\201aaJ\227L&\326\003\274\205dF"
  70      11908818 
  70      8161614A 
  70      974C26D6 
  70      03BC8564 
  71 0168 958642EB 		.ascii	"\225\206B\353\263\331{\345\255\273\011\\\256\325\272"
  71      B3D97BE5 
  71      ADBB095C 
  71      AED5BA
  72 0177 4493D9CC 		.ascii	"D\223\331\314\372\231\177\024m\224<{\011u\345\374\354"
  72      FA997F14 
  72      6D943C7B 
  72      0975E5FC 
  72      EC
  73 0188 28AFD4CA 		.ascii	"(\257\324\312\317m\320 \247\360\365Ez\251\255pX\305"
  73      CF6DD020 
  73      A7F0F545 
  73      7AA9AD70 
  73      58C5
  74 019a 53CBDCF9 		.ascii	"S\313\334\3716\256h\370\\\364\366T\314_\226\324Q\360"
  74      36AE68F8 
  74      5CF4F654 
  74      CC5F96D4 
  74      51F0
  75 01ac 3C8CCDF6 		.ascii	"<\214\315\366\300\216\351\310\\W$>i\245\327\017\301"
  75      C08EE9C8 
  75      5C57243E 
  75      69A5D70F 
  75      C1
  76 01bd 2E5413A3 		.ascii	".T\023\243w\263)y\344\224Z\345\266\206\217E\001\200"
  76      77B32979 
  76      E4945AE5 
  76      B6868F45 
  76      0180
  77 01cf 0D18DF1E 		.ascii	"\015\030\337\036_\234-L/\214.V\206\007\011\360Y\260"
  77      5F9C2D4C 
  77      2F8C2E56 
  77      860709F0 
  77      59B0
  78 01e1 ED75766D 		.ascii	"\355uvm\257.7\27137\266\232x\274\035&\360\021\275\337"
  78      AF2E37B9 
ARM GAS  /tmp/ccQr8aQx.s 			page 6


  78      3337B69A 
  78      78BC1D26 
  78      F011BDDF 
  79 01f5 6DA2AF74 		.ascii	"m\242\257t0\254\327uH}F;\005\317\253\224\217\244\227"
  79      30ACD775 
  79      487D463B 
  79      05CFAB94 
  79      8FA497
  80 0208 A95B7E25 		.ascii	"\251[~%\013\251\334\247\035\327\037\2648\241\313\006"
  80      0BA9DCA7 
  80      1DD71FB4 
  80      38A1CB06 
  81 0218 79EB2636 		.ascii	"y\353&6r\260\311\325\355\375\377e\036\021gH\252\362"
  81      72B0C9D5 
  81      EDFDFF65 
  81      1E116748 
  81      AAF2
  82 022a 43C3676C 		.ascii	"C\303gl\312\265\017\320]$\304\227pU>h\270\374O\371T"
  82      CAB50FD0 
  82      5D24C497 
  82      70553E68 
  82      B8FC4FF9 
  83 023f 1EE0AB46 		.ascii	"\036\340\253F\212\003N\212\227\202\024k\225H\321r\204"
  83      8A034E8A 
  83      9782146B 
  83      9548D172 
  83      84
  84 0250 14AFE4CC 		.ascii	"\024\257\344\314\012`\313j\034\246\002\251@\204\354"
  84      0A60CB6A 
  84      1CA602A9 
  84      4084EC
  85 025f F84E8908 		.ascii	"\370N\211\010^\226\272\022\021|\225\210\340-\020\241"
  85      5E96BA12 
  85      117C9588 
  85      E02D10A1 
  86 026f A91D660A 		.ascii	"\251\035f\012Dh\376;\021|\025\210\340\200]7\273Y^\357"
  86      4468FE3B 
  86      117C1588 
  86      E0805D37 
  86      BB595EEF 
  87 0283 DAC0F8EF 		.ascii	"\332\300\370\357\376\014\254\320I>O\001\260l3}dS&Qa"
  87      FE0CACD0 
  87      493E4F01 
  87      B06C337D 
  87      64532651 
  88 0298 E10D882C 		.ascii	"\341\015\210,O\366\260J\236[\325\3238\3055\267\311\376"
  88      4FF6B04A 
  88      9E5BD5D3 
  88      38C535B7 
  88      C9FE
  89 02aa 094A087B 		.ascii	"\011J\010{\330\015\305\254|\350\247\003\201\240\374"
  89      D80DC5AC 
  89      7CE8A703 
  89      81A0FC
  90 02b9 248C7822 		.ascii	"$\214x\"\0303#\301\27054\250\033R\347\"\0247n\017\031"
  90      183323C1 
  90      B83534A8 
ARM GAS  /tmp/ccQr8aQx.s 			page 7


  90      1B52E722 
  90      14376E0F 
  91 02ce 31DD0875 		.ascii	"1\335\010uu\235\013\350P\237\260\022Z$\0247\207\015"
  91      759D0BE8 
  91      509FB012 
  91      5A241437 
  91      870D
  92 02e0 4F441B0C 		.ascii	"OD\033\014\013\027\246\220\201Sj\277\241\015\0148\270"
  92      0B17A690 
  92      81536ABF 
  92      A10D0C38 
  92      B8
  93 02f1 76D24E6C 		.ascii	"v\322Nl\305\203\272\025\215Z1\266\212\2307\202fL\217"
  93      C583BA15 
  93      8D5A31B6 
  93      8A983782 
  93      664C8F
  94 0304 0CF51941 		.ascii	"\014\365\031A\275\237{\007\372\241Q\213D,]K\230V\254"
  94      BD9F7B07 
  94      FAA1518B 
  94      442C5D4B 
  94      9856AC
  95 0317 E3A66646 		.ascii	"\343\246fF\214>\360\227\231bV\242h\376\015\257\341\255"
  95      8C3EF097 
  95      996256A2 
  95      68FE0DAF 
  95      E1AD
  96 0329 DD       		.ascii	"\335"
  97              		.text
  98              		.section	.gnu.lto_test_006_001_execute.788d9d34923c622e,"",%progbits
  99 0000 789CCD5A 		.ascii	"x\234\315Z}lS\327\025\277\367\331N\034\307\211\363i"
  99      7D6C53D7 
  99      15BFF7D9 
  99      4E1CC789 
  99      F369
 100 0012 12C68C45 		.ascii	"\022\306\214E\313\230\372GB\241\354C\223\312\370\253"
 100      CB98FA47 
 100      42A1EC43 
 100      93CAF8AB 
 101 0022 0CAD0221 		.ascii	"\014\255\002!(E\325\024\034c\022Cb\007l\320\026Dy\371"
 101      2845D514 
 101      1C631243 
 101      62076CD0 
 101      164479F9 
 102 0036 28E52309 		.ascii	"(\345#\011I |\265\264\201(\205\211\265h\313\030\037"
 102      49207CB5 
 102      B4812885 
 102      89B568CB 
 102      181F
 103 0048 A35B86B6 		.ascii	"\243[\206\266BB\223h\032Z\331\006\233\307V\240\243-"
 103      42429368 
 103      1A5AD906 
 103      9BC756A0 
 103      A32D
 104 005a 546C8301 		.ascii	"Tl\203\001\255w\317y\327~\361\343\346\331\036\217hV"
 104      AD77CF79 
 104      D77EF1E3 
ARM GAS  /tmp/ccQr8aQx.s 			page 8


 104      E6D91E8F 
 104      6856
 105 006c 74DE3BF7 		.ascii	"t\336;\367\235s\356y\277\363\345\347\027\211HD\373\371"
 105      9D73EE79 
 105      BFF3E5E7 
 105      17894844 
 105      FBF9
 106 007e 1E2564DF 		.ascii	"\036%d\337S\204\314gG:\221P\251}\230\220\006\253$\225"
 106      5384CC67 
 106      473A9150 
 106      A97D9890 
 106      06AB2495 
 107 0092 9CFE3A91 		.ascii	"\234\376:\221m\246\013N\"\333M\2343#g\346\234\0059\213"
 107      6DA60B4E 
 107      22DB4D9C 
 107      332367E6 
 107      9C05398B 
 108 00a6 94855C06 		.ascii	"\224\205\\\006r\031\234\313D.\223sV\344\254\\\317\206"
 108      72199CCB 
 108      442E9373 
 108      56E4AC5C 
 108      CF86
 109 00b8 5C162D51 		.ascii	"\\\026-Q\266\262\361\345l\\\316\346\234\0359\273\344"
 109      B6B2F1E5 
 109      6C5CCEE6 
 109      9C1D39BB 
 109      E4
 110 00c9 68FD0AE3 		.ascii	"h\375\012\343r\232\276\312\270\034)\367V1\343\034\335"
 110      729ABECA 
 110      B81C29F7 
 110      5631E31C 
 110      DD
 111 00da DF605C2E 		.ascii	"\337`\\.u\200\001\352\340\032y\250\221\307\271|\344"
 111      758001EA 
 111      E01A79A8 
 111      91C7B97C 
 111      E4
 112 00eb F2395780 		.ascii	"\3629W\200\\\001\347\012\221+\344\\\021rE\234+F\256"
 112      5C01E70A 
 112      912BE45C 
 112      1172459C 
 112      2B46AE
 113 00fe 98734EE4 		.ascii	"\230sN\344\234R\311\205r\306M8\355b\334\004Z\2528^\022"
 113      9C52C985 
 113      72C64D38 
 113      ED62DC04 
 113      5AAA385E 
 114 0113 3B29A514 		.ascii	";)\245\024N\010%\033%\223\331\222\221i\315\262e\333"
 114      4E08251B 
 114      2593D992 
 114      9169CDB2 
 114      65DB
 115 0125 73721D79 		.ascii	"sr\035y\371\005\205E\305\316\011%\245t\343R\012p\333"
 115      F9058545 
 115      C5CE0925 
 115      A574E352 
 115      0A70DB
ARM GAS  /tmp/ccQr8aQx.s 			page 9


 116 0138 A69003B2 		.ascii	"\246\220\003\262\334\031\351=\370\221\264w\347\257\232"
 116      DC19E93D 
 116      F891B477 
 116      E7AF9A
 117 0147 BBE507D1 		.ascii	"\273\345\007\321(\245~\312B3\213\022/%/2\206\272\361"
 117      28A57ECA 
 117      42338B12 
 117      2F252F32 
 117      86BAF1
 118 015a 20999906 		.ascii	" \231\231\006(\364w\366\357x\265\265T\356nl\227\277"
 118      28F477F6 
 118      EF78B5B5 
 118      54EE6E6C 
 118      97BF
 119 016c 60F27E6A 		.ascii	"`\362~j\222\3107\205\342\242\217\262g\177\327\340\340"
 119      92C83785 
 119      E2A28FB2 
 119      677FD7E0 
 119      E0
 120 017d 012A77CA 		.ascii	"\001*w\312\015\267\242Q\007\356\370\255d&\270\346\256"
 120      0DB7A251 
 120      07EEF8AD 
 120      6426B8E6 
 120      AE
 121 018e C1165B7B 		.ascii	"\301\026[{\303f9\032\335\210z\263S\324\333\243\321\373"
 121      C366391A 
 121      DD887AB3 
 121      53D4DBA3 
 121      D1FB
 122 01a0 6E4A7AED 		.ascii	"nJz\355\375?=?J\317,\221\227R\334\357\364p\342~\336"
 122      FD3F3D3F 
 122      4ACF2C91 
 122      9752DCEF 
 122      F470E27E 
 123 01b5 647A1EDA 		.ascii	"dz\036\332C\247\304!>\333\246\201\270:\225}\231f\364"
 123      43A7C421 
 123      3EDBA681 
 123      B83A957D 
 123      9966F4
 124 01c8 55ADE6AA 		.ascii	"U\255\346\252\3244\345\317\226\237\223\233\373\243\321"
 124      D434E5CF 
 124      969F939B 
 124      FBA3D1
 125 01d7 D9A8B52E 		.ascii	"\331\250\265.\231\326Q\251?\022\215>8\036\271r\230\026"
 125      99D651A9 
 125      3F128D3E 
 125      381EB972 
 125      9816
 126 01e9 1EA294DD 		.ascii	"\036\242\224\335\300\021v\003Y\204\335\256\215\021\213"
 126      C0117603 
 126      5984DDAE 
 126      8D118B
 127 01f8 1D880348 		.ascii	"\035\210\003H>\220\" N \023\231\350\001&:\011\030\027"
 127      3E902220 
 127      4E201399 
 127      E801263A 
 127      091817
ARM GAS  /tmp/ccQr8aQx.s 			page 10


 128 020b 90C96CE5 		.ascii	"\220\311l\345\020[q\0033\005\310\023|\345Iv\374!;N\205"
 128      105B7103 
 128      3305C813 
 128      7CE54976 
 128      FC213B4E 
 129 0220 C5694066 		.ascii	"\305i@f\300\0063\341l\026\220g\201\235\015gs\200<\007"
 129      C00633E1 
 129      6C169067 
 129      819D0D67 
 129      73803C07 
 130 0234 EC5C389B 		.ascii	"\354\\8\233\007\344y`\347\003Y\000\354B /\000\273\004"
 130      07E47960 
 130      E7035900 
 130      EC42202F 
 130      00BB04
 131 0247 CE9602A9 		.ascii	"\316\226\002\251\000v\031\234U\002\251\002\266\032\316"
 131      0076199C 
 131      5502A902 
 131      B61ACE
 132 0256 5602A965 		.ascii	"V\002\251e\373\367\262\375\203\300\254\006\022\002\201"
 132      FBF7B2FD 
 132      83C0AC06 
 132      120281
 133 0265 309CAD03 		.ascii	"0\234\255\003R\017\354z8\333\000\344e.\277\221\035\337"
 133      520FEC7A 
 133      38DB00E4 
 133      652EBF91 
 133      1DDF
 134 0277 664799C2 		.ascii	"fG\231\302j#\322-@3\266\"\335\206\264\005i+\3226\244"
 134      6A23D22D 
 134      4033B622 
 134      DD86B405 
 134      692BD236 
 135 028c DB91B623 		.ascii	"\333\221\266#\355@\332\211t\007\322\235H\273\220\356"
 135      ED40DA89 
 135      7407D29D 
 135      48BB90EE 
 136 029c 42BA1B29 		.ascii	"B\272\033)\013\207\2054\263tu\363\354\3538\3332:\013"
 136      0B878534 
 136      B37475F3 
 136      ECEB38DB 
 136      323A0B
 137 02af 3224D244 		.ascii	"2$\322DSK\\\371]5\015\230\332\246T\325>HP\333\222TM"
 137      534B5CF9 
 137      5D350D98 
 137      DAA654D5 
 137      3E4850DB 
 138 02c6 49770F3D 		.ascii	"Iw\017=\312(\001Y\366Y\304(t\257\305T\202\243i\2104"
 138      CA280159 
 138      F659C428 
 138      74AFC554 
 138      82A36988 
 139 02db 9E3871BB 		.ascii	"\2368q\273\304C\217Q\013y\215\354k\220\345<D\373\236"
 139      C4438F51 
 139      0B798DEC 
 139      6B90E53C 
 139      44FB9E
ARM GAS  /tmp/ccQr8aQx.s 			page 11


 140 02ee BC19CE32 		.ascii	"\274\031\3162kQ\015\314g\222\330\031\201\265\021\262"
 140      6B510DCC 
 140      6792D819 
 140      81B511B2 
 141 02fe 2932D243 		.ascii	")2\322C\025\315*\232\025W\261z)\352\240\021\253\237"
 141      15CD2A9A 
 141      1557B17A 
 141      29EAA011 
 141      AB9F
 142 0310 66D5522E 		.ascii	"f\325R.\305V\352\375\324\246x\304\227\300\236\2150\204"
 142      C556EAFD 
 142      D4A678C4 
 142      97C09E8D 
 142      3084
 143 0322 B3091922 		.ascii	"\263\011\031\"M#\246\230A\033\263\011\027M\312f\226"
 143      4D23A698 
 143      411BB309 
 143      174DCA66 
 143      96
 144 0333 D8BA3DBE 		.ascii	"\330\272=\276\221\335K\225\011\307\204a\261\304Os\\"
 144      91DD4B95 
 144      09C78461 
 144      B1C44F73 
 144      5C
 145 0344 A485EE97 		.ascii	"\244\205\356\227\367|\333Osc;\370\251\203\220s\244\371"
 145      F77CDB4F 
 145      73633BF8 
 145      A9839073 
 145      A4F9
 146 0356 E3B8AF76 		.ascii	"\343\270\257v\260k\031\015\325bj\"\027\234\210\306\236"
 146      B06B190D 
 146      D5626A22 
 146      179C88C6 
 146      9E
 147 0367 3BE9A201 		.ascii	";\351\242\001N\014\020I\321\342\331\021}/\241GdId\177"
 147      4E0C1049 
 147      D1E2D911 
 147      7D2FA147 
 147      6449647F 
 148 037b D27829DB 		.ascii	"\322x)\333\364\277{\326\231\000\032\030o\214\\\362\352"
 148      F4BF7BD6 
 148      99001A18 
 148      6F8C5CF2 
 148      EA
 149 038c D967DDA4 		.ascii	"\331g\335\244'\251}DS\226\224\330\335\272\330{\264\224"
 149      27A97D44 
 149      539694D8 
 149      DDBAD87B 
 149      B494
 150 039e 67742CB5 		.ascii	"gt,\265\373\267\335l`\370\017`t\336\303\254Q6\3652x"
 150      FBB7DD6C 
 150      60F80F60 
 150      74DEC3AC 
 150      5136F532 
 151 03b3 10E72D34 		.ascii	"\020\347-4\216E\236\227\232=\364}\305CeU~)\301\361\330"
 151      8E459E97 
 151      9A3DF47D 
ARM GAS  /tmp/ccQr8aQx.s 			page 12


 151      C5436555 
 151      7E29C1F1 
 152 03c8 7E089295 		.ascii	"~\010\222\225\305!\037o\245\237\343\353\241?\303-\224"
 152      C5211F6F 
 152      A59FE3EB 
 152      A13FC32D 
 152      94
 153 03d9 B83745DB 		.ascii	"\2707E\333\342!v\300F\240\005U7:\366\371\242\330;x\354"
 153      E22176C0 
 153      46A00555 
 153      373AF6F9 
 153      A2D83B78 
 154 03ee 0B5CE477 		.ascii	"\013\\\344w<\366\205c\307>_\020{3\031\310Pb\177?\335"
 154      3CF68563 
 154      C73E5F10 
 154      7B3319C8 
 154      50627F3F 
 155 0403 D89B5288 		.ascii	"\330\233R\210\275\207\236\245Rj\261\277,\214\375\307"
 155      BD879EA5 
 155      526AB1BF 
 155      2C8CFDC7 
 156 0413 FAB1F7D0 		.ascii	"\372\261\367\320\301\244\3661\026yz\241\277\003\241"
 156      C1A4F631 
 156      16797AA1 
 156      BF03A1
 157 0422 FF3D86FE 		.ascii	"\377=\206\376\202(\364[\265\241\277\230,\364y)E\376"
 157      8228F45B 
 157      B5A1BF98 
 157      2CF47929 
 157      45FE
 158 0434 62D32FB7 		.ascii	"b\323/\267\307\003\\\004\373\210\"\357\024E\276\210"
 158      C7035C04 
 158      FB8822EF 
 158      1445BE88 
 159 0444 47BEC845 		.ascii	"G\276\310E\376\301#_<v\344\235\202\310[\310?\251i\204"
 159      FEC1235F 
 159      3C76E49D 
 159      82C85BC8 
 159      3FA96984 
 160 0458 3447EEFE 		.ascii	"4G\356\376-3\006y|'\247\227\213\203S~:\001\334e\335"
 160      2D330679 
 160      7C27A797 
 160      8B83537E 
 160      3A01DC65 
 161 046d 329A6E8E 		.ascii	"2\232n\216\230\025\330#[z\2639\352\036\372c\004\272"
 161      9815D823 
 161      5B7AB339 
 161      EA1EFA63 
 161      04BA
 162 047f 6F14D0B8 		.ascii	"o\024\320\270\317\304$]\364\257\243\273\250b#a\251O"
 162      CFC4245D 
 162      F4AFA3BB 
 162      A8622361 
 162      A94F
 163 0491 5DE21DB5 		.ascii	"]\342\035\265q\340\026\327S\306\001\333\203\027\334"
 163      71E016D7 
 163      53C601DB 
ARM GAS  /tmp/ccQr8aQx.s 			page 13


 163      8317DC
 164 04a0 919D16E5 		.ascii	"\221\235\026\345B\025\235\304V\023{\255\262\356\022"
 164      42159DC4 
 164      56137BAD 
 164      B2EE12
 165 04af A13E89A3 		.ascii	"\241>\211\243^\342\"\237s\324K\325MU\324\271\011\001"
 165      5EE2229F 
 165      73D44BD5 
 165      4D55D4B9 
 165      0901
 166 04c1 EA19E42C 		.ascii	"\352\031\344,N\236\201\353\007\343r\223\225\373A\337"
 166      4E9E81EB 
 166      07E37293 
 166      95FB41DF 
 167 04d1 864CB155 		.ascii	"\206L\261U7\273\200\2169\022\035\233\"r\314\2556\202"
 167      37BB808E 
 167      39121D9B 
 167      2272CCAD 
 167      3682
 168 04e3 0E496D04 		.ascii	"\016Im\004c86E\340X&)F\2776\367\304\305\236P\375j\374"
 168      63383645 
 168      E0582629 
 168      46BF36F7 
 168      C4C59E50 
 169 04fa 4E6CF1C9 		.ascii	"Nl\361\311X\350\370\304RV\2472iv-\301\321i\"G\247\246"
 169      58E8F8C4 
 169      5256A732 
 169      69762DC1 
 169      D1692247 
 170 0510 E5E83481 		.ascii	"\345\3504\201\243V\002\015\353\314\015)\026Z\360\361"
 170      A356020D 
 170      EBCC0D29 
 170      165AF0F1 
 171 0520 19D2276F 		.ascii	"\031\322'o\006\260\320\261Q\027\373\036\272\310Z\335"
 171      06B0D0B1 
 171      5117FB1E 
 171      BAC85ADD 
 172 0530 5BA569A6 		.ascii	"[\245i\246\261\305\330VwlP\324\352\366\370\306\241\325"
 172      B1C5D856 
 172      776C50D4 
 172      EAF6F8C6 
 172      A1D5
 173 0542 0D353243 		.ascii	"\01552C\377\302R\271-ju\333\264\255\356\216\001\255"
 173      FFC252B9 
 173      2D6A75DB 
 173      B4ADEE8E 
 173      01AD
 174 0554 CE40E88E 		.ascii	"\316@\350\216\013\241\333\367J\306\343\307\356<b\367"
 174      0BA1DBF7 
 174      4AC6E3C7 
 174      EE3C62F7 
 175 0564 00B1BB27 		.ascii	"\000\261\273'\302\256E\213\335\027\217\200\335\011\343"
 175      C2AE458B 
 175      DD178F80 
 175      DD09E3
 176 0573 B13B29C4 		.ascii	"\261;)\304\356\265\361\300n\3330`\327$\001v\015\222"
 176      EEB5F1C0 
ARM GAS  /tmp/ccQr8aQx.s 			page 14


 176      6EDB3060 
 176      D7240176 
 176      0D92
 177 0585 00BB562D 		.ascii	"\000\273V-v\257H\377;v\2478v0\335\366\177\250;\335\266"
 177      76AF48FF 
 177      3B76A738 
 177      7630DDF6 
 177      7FA83BDD 
 178 059a 29D38D49 		.ascii	")\323\215Iv\277a\321\023lQ\005\337\324\025l\215\011"
 178      76BF61D1 
 178      136C5105 
 178      DFD4156C 
 178      8D09
 179 05ac 6E8A1CEE 		.ascii	"n\212\034\356\215O\340\031\351<#\364\244\360\2140\223"
 179      8D4FE019 
 179      E93C23F4 
 179      A4F08C30 
 179      93
 180 05bd D9143D23 		.ascii	"\331\024=#\314\022u\335\231i=#\314\022t\335,\362)\305"
 180      CC1275DD 
 180      99693D23 
 180      CC1274DD 
 180      2CF229C5 
 181 05d1 B67BEE20 		.ascii	"\266{\356 \325i\274\253\306\352\273\212\025\033\221"
 181      D569BCAB 
 181      C6EABB8A 
 181      151B91
 182 05e0 942F9B47 		.ascii	"\224/\233G\322\355\300\031\306\226\302ea)\374h<:\360"
 182      D2EDC019 
 182      C696C265 
 182      6129FC68 
 182      3C3AF0
 183 05f3 075009BB 		.ascii	"\007P\011\273\261\022\272D\225\320\246\255\204\275\217"
 183      B112BA44 
 183      95D0A6AD 
 183      84BD8F
 184 0602 50098FA1 		.ascii	"P\011\217\241\003\377E\010\335;\343\322\201\021\273"
 184      03FF4508 
 184      DD3BE3D2 
 184      8111BB
 185 0611 3710BBD7 		.ascii	"7\020\273\327E\330m\327b\327\375\010\330=\206\016\374"
 185      45D86DD7 
 185      62D7FD08 
 185      D83D860E 
 185      FC
 186 0622 9910BBA3 		.ascii	"\231\020\273\243\343\322\201/\001v\275\210]\217\010"
 186      E3D2812F 
 186      0176BD88 
 186      5D8F08
 187 0631 BB762D76 		.ascii	"\273v-v\207\014\352\300'\365;p\273\332XO\3516\326\355"
 187      870CEAC0 
 187      27F53B70 
 187      BBDA584F 
 187      E936D6ED 
 188 0645 AAE0CF75 		.ascii	"\252\340\317u\005\333\324\016|Z\355\300\317\032\335"
 188      05DBD40E 
 188      7C5AEDC0 
ARM GAS  /tmp/ccQr8aQx.s 			page 15


 188      CF1ADD
 189 0654 8167339B 		.ascii	"\201g3\233\242\016<G\324\201g\247\325\201\347\010:p"
 189      A20E3C47 
 189      D48167A7 
 189      D581E708 
 189      3A70
 190 0666 36A1CA4F 		.ascii	"6\241\312OV?I\267wf\032\233\304\273\317\213\222x\300"
 190      563F49B7 
 190      77661A9B 
 190      C4BBCF8B 
 190      9278C0
 191 0679 A0DE99AF 		.ascii	"\240\336\231\257W\377\037B\016\037\307\034>&\312\341"
 191      57FF1F42 
 191      0E1FC71C 
 191      3E26CAE1 
 192 0689 0E6D0E9F 		.ascii	"\016m\016\237L\226\303\371\343\332;\367\012\241;?.\365"
 192      4C96C3F9 
 192      E3DA3BF7 
 192      0AA13B3F 
 192      2EF5
 193 069b 7F15B0FB 		.ascii	"\177\025\260\373\005bwZ\204]\247\026\273~\003z'\324"
 193      0562775A 
 193      845DA716 
 193      BB7E037A 
 193      27D4
 194 06ad FF907EFD 		.ascii	"\377\220~\375w\250\325:\254V\353sFW\353\\f\363E\345"
 194      77A8D53A 
 194      AC56EB73 
 194      4657EB5C 
 194      66F345E5 
 195 06c1 E7C2846A 		.ascii	"\347\302\204j\235'\252\326\271\274Z'\272\310a\376\224"
 195      9D27AAD6 
 195      B9BC5A27 
 195      BAC861FE 
 195      94
 196 06d2 FAA5B1AB 		.ascii	"\372\245\261\253u\236\240Z\355\204\230\030\"Vb@\326"
 196      759EA05A 
 196      ED849818 
 196      22566240 
 196      D6
 197 06e3 BC29CA9A 		.ascii	"\274)\312\2321-\0334j\257A\272\274\217\3512(J\227\035"
 197      312D1B34 
 197      6AAF41BA 
 197      BC8FE932 
 197      284A971D 
 198 06f7 DA741936 		.ascii	"\332t\0316\340k\012$\301\037\325$x\336\200$8G~}M5\030"
 198      E06B0A24 
 198      C11FD524 
 198      78DE8024 
 198      38477E7D 
 199 070e EFD76AA4 		.ascii	"\357\327j\244rX\244FHFLd\276\321{\316\217g]\354\263"
 199      7258A446 
 199      48464C64 
 199      BED17BCE 
 199      8F675DEC 
 200 0723 88B57E42 		.ascii	"\210\265~B\027C\036AG\3774\236\243\013\252`\307Q\311"
 200      17431E41 
ARM GAS  /tmp/ccQr8aQx.s 			page 16


 200      47FF349E 
 200      A30BAA60 
 200      C751C9
 201 0736 B950949C 		.ascii	"\271P\224\234\013\322\032%\0135\311\371\007\202?2\232"
 201      0BD21A25 
 201      0B35C9F9 
 201      07823F32 
 201      9A
 202 0747 29C9459F 		.ascii	")\311E\237Yb\344\020\276bG@\362\020\220\346\310%\375"
 202      5962E410 
 202      BE624740 
 202      F21090E6 
 202      C825FD
 203 075a BAED54C7 		.ascii	"\272\355T\307\361e\335q\274C-\360?\253\261}\301\350"
 203      F165DD71 
 203      BC432DF0 
 203      3FABB17D 
 203      C1E8
 204 076c 025FC26C 		.ascii	"\002_\302l\212\306\361R\021\206K\322\302p\251\240\300"
 204      8AC6F152 
 204      11864BD2 
 204      C270A9A0 
 204      C0
 205 077d F395E09D 		.ascii	"\363\225\340\235\270{*\335ql%\206\316\224?\011g\312"
 205      B87B2ADD 
 205      716C2586 
 205      CE943F09 
 205      67CA
 206 078f 8D717894 		.ascii	"\215qx\2249\377o\350\021W\261G\374]\324#vj{\304\365"
 206      39FF6FE8 
 206      1157B147 
 206      FC5DD423 
 206      766A7BC4 
 207 07a4 FFAF4799 		.ascii	"\377\257G\231\313B\350>\031\227q|\007\260\373\004\261"
 207      CB42E83E 
 207      1997717C 
 207      07B0FB04 
 207      B1
 208 07b5 BB21C2AE 		.ascii	"\273!\302\256K\213\335M\203\306\361M\375\262\336\251"
 208      4B8BDD4D 
 208      83C6F14D 
 208      FDB2DEA9 
 209 07c5 56EB5DB5 		.ascii	"V\353]\265Z+\214\256\326e\314"
 209      5A2B8CAE 
 209      D665CC
 210 07d0 A6681C57 		.ascii	"\246h\034W\212\252uYZ\343\270RP\255\005\006\216\343"
 210      8AAA7559 
 210      5AE3B852 
 210      50AD0506 
 210      8EE3
 211 07e2 DB8F691C 		.ascii	"\333\217i\034\273\365J\355\001\244\313}L\227\377\210"
 211      BBF54AED 
 211      01A4CB7D 
 211      4C97FF88 
 212 07f2 D2659736 		.ascii	"\322e\2276]>O\226.\356T\306qs\344\236~\272\354R\247"
 212      5D3E4F96 
 212      2EEE54C6 
ARM GAS  /tmp/ccQr8aQx.s 			page 17


 212      7173E49E 
 212      7EBAEC52 
 213 0807 C07DDD29 		.ascii	"\300}\335)\320\245\346\325\0035\257\252\214\316\253"
 213      D0A5E6D5 
 213      0335AFAA 
 213      8CCEAB
 214 0816 6A665334 		.ascii	"jfS4\005V\212\362\252:\255)\260R\220W\205|\012\354\271"
 214      05568AF2 
 214      AA3AAD29 
 214      B0529057 
 214      857C0AEC 
 215 082b 92EE14C8 		.ascii	"\222\356\024\310R\242\035\331z\210>\004[\002\026,z\025"
 215      52A21DD9 
 215      7A883E04 
 215      5B02162C 
 215      7A15
 216 083d E9C1D138 		.ascii	"\351\301\3218p\367\312GR\314\355ZE\322\330G\300\341"
 216      70F7CA47 
 216      52CCED5A 
 216      45D2D847 
 216      C0E1
 217 084f 874B40D7 		.ascii	"\207K@\327xJU\300|\325\251\200\33741#\333Mp\317\255"
 217      784A55C0 
 217      7CD5A980 
 217      DF343123 
 217      DB4D70CF 
 218 0864 264105EC 		.ascii	"&A\005\354\326V@\207i\354\012`[%\315~|A\333\367z<\205"
 218      D6564087 
 218      69EC0A60 
 218      5B25CD7E 
 218      7C41DBF7 
 219 087b 82B00768 		.ascii	"\202\260\007hi_\320\256\026\345V0\255\027\264\253\005"
 219      695FD0AE 
 219      16E55630 
 219      AD17B4AB 
 219      05
 220 088c B95584DF 		.ascii	"\271U\204\337\3036u\267f\306\244B\251T\013\317\2051"
 220      C33675B7 
 220      66C6A442 
 220      A9540BCF 
 220      8531
 221 089e 2B24CCEC 		.ascii	"+$\314\354`\205h\356b\235\350.\302\374.&\271\310q\336"
 221      608568EE 
 221      629DE82E 
 221      C2FC2E26 
 221      B9C871DE 
 222 08b2 79BF3CF6 		.ascii	"y\277<\366]\254\023\334E1\3776\331vM\267\217\354\246"
 222      5DAC13DC 
 222      4531FF36 
 222      D9764DB7 
 222      8FECA6
 223 08c5 F1B7CC77 		.ascii	"\361\267\314w\257\246[K6^K\373\017\305]\2517\272\261"
 223      AFA65B4B 
 223      365E4BFB 
 223      0FC55DA9 
 223      37BAB1
 224 08d8 AC673645 		.ascii	"\254g6E\215e\203\010\266\365i5\226\015\002\330\234J"
ARM GAS  /tmp/ccQr8aQx.s 			page 18


 224      8D658308 
 224      B6F56935 
 224      960D02D8 
 224      9C4A
 225 08ea 631938A7 		.ascii	"c\0318\247>H\274\034+d\345u\254\262\2701\366?N\011\316"
 225      3E48BC1C 
 225      2B64E575 
 225      ACB2B831 
 225      F63F4E09 
 226 08ff CA9489B3 		.ascii	"\312\224\211\263\213\011\2366R\221\2532\345\276\272"
 226      8B099E36 
 226      5291AB32 
 226      E5BEBA
 227 090e 5CE40C0F 		.ascii	"\\\344\014\017\361\344\261}m\244\002g'\240\263\370\326"
 227      F1E4B17D 
 227      6DA40267 
 227      27A0B3F8 
 227      D6
 228 091f 5529A11E 		.ascii	"U)\241\036\361+Y\345\342Q\341\253\201\022\376?Ygn\\"
 228      F12B59E5 
 228      E251E1AB 
 228      8112FE3F 
 228      59676E5C 
 229 0933 0FE99859 		.ascii	"\017\351\230Y\245o\245\024\255\374\2264XU\377\026\261"
 229      A56FA514 
 229      ADFC9634 
 229      5855FF16 
 229      B1
 230 0944 F8B355B8 		.ascii	"\370\263U\270\341\031ee\345\312_\330\027\012\227\007"
 230      E1196565 
 230      E5CA5FD8 
 230      170A9707 
 231 0954 FC35E5A1 		.ascii	"\3745\345\241\340\3325^\237\302\003\251\010\371V\257"
 231      E0DA355E 
 231      9FC203A9 
 231      08F956AF 
 232 0964 F505BCBE 		.ascii	"\365\005\274\276\212\351\323\277V\346%\246@\331t\032"
 232      8AE9D3BF 
 232      56E625A6 
 232      40D9741A 
 233 0974 60F4697B 		.ascii	"`\364i{8\030\366\324T\204\374\365\276\262\031\2715\236"
 233      3818F6D4 
 233      5484FCF5 
 233      BEB219B9 
 233      359E
 234 0986 3555280E 		.ascii	"5U(\016\354\314L\377\212pm]\3313\346P}\331,)ToSe\355"
 234      ECCC4CFF 
 234      8A706D5D 
 234      D933E650 
 234      7DD92C29 
 235 099f A325A5BA 		.ascii	"\243%\245\272\247\245\272\031R\335\314\274j\237\247"
 235      A7A5BA19 
 235      52DDCCBC 
 235      6A9FA7
 236 09ae CEBD628D 		.ascii	"\316\275b\215\247\252\326\027\010\373\226\023\013,\324"
 236      A7AAD617 
 236      08FB9613 
ARM GAS  /tmp/ccQr8aQx.s 			page 19


 236      0B2CD4
 237 09bd 9941E8A9 		.ascii	"\231A\350\251\270\227\301P\2717X[\033\014\260\263\032"
 237      B897C150 
 237      B937585B 
 237      1B0CB0B3 
 237      1A
 238 09ce 7F65B93F 		.ascii	"\177e\271?\340\255Y\273\334W\356\255\006\351\262j\342"
 238      E0AD59BB 
 238      DC57EEAD 
 238      06E9B26A 
 238      E2
 239 09df F4D4D404 		.ascii	"\364\324\324\004\275\236\260?\030p\007\202a\367\012"
 239      BD9EB03F 
 239      18700782 
 239      61F70A
 240 09ee 8FBF8619 		.ascii	"\217\277\206\031+\030\265\314\227\012k\375\241\220?"
 240      2B18B5CC 
 240      970A6BFD 
 240      A1903F
 241 09fd 50C5F6F4 		.ascii	"P\305\366\364\371\334\225\354\362*\342\\\033\360}\277"
 241      F9DC95EC 
 241      F22AE25C 
 241      1BF07DBF 
 242 0a0d CEE765FB 		.ascii	"\316\347e\373\273\321\237P\330\023\366\221\\\177`\235"
 242      BBD19F50 
 242      D813F691 
 242      5C7F609D 
 243 0a1d A7C6BF9C 		.ascii	"\247\306\277\234\26360\354\253\255\013\377\200\344\200"
 243      B33630EC 
 243      ABAD0BFF 
 243      80E480
 244 0a2c 7B6E6FB5 		.ascii	"{no\265'P\305L\376\027V\341|0"
 244      2750C54C 
 244      FE1756E1 
 244      7C30
 245              		.text
 246              		.section	.gnu.lto_test_006_001_setup.788d9d34923c622e,"",%progbits
 247 0000 789C6362 		.ascii	"x\234cb`b@\007\222@\274\006\210M\200\230\221\231\201"
 247      60624007 
 247      9240BC06 
 247      884D8098 
 247      919981
 248 0013 9169C239 		.ascii	"\221i\3029\006\206F\016&FF\020\203\201\221\241\236\211"
 248      0686460E 
 248      26464610 
 248      838191A1 
 248      9E89
 249 0025 B13E9211 		.ascii	"\261>\222\021\254v=\323\201\007\377\377\257\373\326"
 249      AC763DD3 
 249      8107FFFF 
 249      AFFBD6
 250 0034 B6FC0EE3 		.ascii	"\266\374\016\343l&f\240\010+CKC\303\004\005\006\206"
 250      6C2666A0 
 250      082B434B 
 250      43C30405 
 250      0686
 251 0046 64B08A10 		.ascii	"d\260\212\020 \011\322\026\312\310\004\242\231\3173"
ARM GAS  /tmp/ccQr8aQx.s 			page 20


 251      2009D216 
 251      CAC804A2 
 251      99CF33
 252 0055 B43DD8F3 		.ascii	"\264=\330\363\230+\221q!#+P\272\232\341WCG\203@&#P9"
 252      982B9171 
 252      21232B50 
 252      BA9AE157 
 252      43478340 
 253 006d C4449008 		.ascii	"\304D\220\010G&#c.#\003T\021DM\303D\306LF\246\\FF\250"
 253      47262363 
 253      2E230354 
 253      11444DC3 
 253      44C64C46 
 254 0086 680490CB 		.ascii	"h\004\220\313\334\300\310\220\311\310\302\300p\221\241"
 254      DCC0C890 
 254      C9C8C2C0 
 254      7091A1
 255 0095 F1C15E65 		.ascii	"\361\301^e\230\241\020\020\0024\020h#\310\177Fzz\372"
 255      98A11010 
 255      02341068 
 255      23C87F46 
 255      7A7AFA
 256 00a8 1054925A 		.ascii	"\020T\222Z\\\242\237\227\231\243_\234_Z\224\234\012"
 256      5CA29F97 
 256      99A35F9C 
 256      5F5A949C 
 256      0A
 257 00b9 E18388F8 		.ascii	"\341\203\210\370\342\324\302\322\324\274\344\324x\003"
 257      E2D4C2D2 
 257      D4BCE4D4 
 257      7803
 258 00c7 0333BD64 		.ascii	"\0033\275d\006\000\212\224?L"
 258      06008A94 
 258      3F4C
 259              		.text
 260              		.section	.gnu.lto_.symbol_nodes.788d9d34923c622e,"",%progbits
 261 0000 789C4D50 		.ascii	"x\234MP\313JC1\024\234\233\334\253\324\307V\301\212"
 261      CB4A4331 
 261      149C9BDC 
 261      ABD4C756 
 261      C18A
 262 0012 DFE55605 		.ascii	"\337\345V\005\273\020*(XP\350)\004\024+\210\270ve@\241"
 262      BB102A28 
 262      5850E829 
 262      04142B88 
 262      B8766540 
 263 0027 05FD88EC 		.ascii	"\005\375\210\354u\347Z\215\365\375\370\0031g\"^\357"
 263      75E75A8D 
 263      F5FDF803 
 263      3167225E 
 263      EF
 264 0038 62869933 		.ascii	"b\206\2313s\222\\\003\203E\203\374\231'\010pt\005\210"
 264      73925C03 
 264      834583FC 
 264      99270870 
 264      740588
 265 004b 9CEC2F55 		.ascii	"\234\354/U\257i(\250\356\201R\254\031A\212zh\036 \346"
ARM GAS  /tmp/ccQr8aQx.s 			page 21


 265      AF6928A8 
 265      EE8152AC 
 265      19418A7A 
 265      681E20E6 
 266 005f 5F36A248 		.ascii	"_6\242H\241\352\005\266J\225G\224\252\236Q%*\336!6G"
 266      A1EA05B6 
 266      4A954794 
 266      AA9E5125 
 266      2ADE2136 
 267 0074 7BBDA2F8 		.ascii	"{\275\242\370\204\224\265\372\200T\265z\203\214\325"
 267      8494B5FA 
 267      8054B57A 
 267      838CD5
 268 0083 EA0B32FE 		.ascii	"\352\0132\376\247,\246\340o\277\023O\300\335)7\020\311"
 268      A72CA6E0 
 268      6FBF134F 
 268      C0DD2937 
 268      10C9
 269 0095 93F0BBA3 		.ascii	"\223\360\273\243R}\277\247\334\200\353'\266\277y\233"
 269      527DBFA7 
 269      DC80EB27 
 269      B6BF799B 
 270 00a5 72E4D4D3 		.ascii	"r\344\324\323\234jr\322\375\233<'\247=\007\363Z\213"
 270      9C6A72D2 
 270      FD9B3C27 
 270      A73D07F3 
 270      5A8B
 271 00b7 4A0D84C3 		.ascii	"J\015\204\303L\327\226\231c\256\0103\304Y\342\234\226"
 271      4CD79699 
 271      63AE0833 
 271      C459E29C 
 271      96
 272 00c8 5C935562 		.ascii	"\\\223Ubh\262\337\324\202_\340\021\313\304\025\342*"
 272      68B2DFD4 
 272      825FE011 
 272      CBC415E2 
 272      2A
 273 00d9 33C44874 		.ascii	"3\304Ht-^\263\305\003Z\314\254\021\333L\266\271\255"
 273      2D5EB3C5 
 273      035ACCAC 
 273      11DB4CB6 
 273      B9AD
 274 00eb CD6DEBEA 		.ascii	"\315m\353\352\373\015:D\277\251\276\333b\222\030\267"
 274      FB0D3A44 
 274      BFA9BEDB 
 274      629218B7 
 275 00fb D4771DDE 		.ascii	"\324w\035\336\272\243\371\270M\334\341\015\273:\015"
 275      BAA3F9B8 
 275      4DDCE10D 
 275      BB3A0D
 276 010a 5DB684A7 		.ascii	"]\266\204\247\234\362\325!STJu\317_\022<\225?\343\253"
 276      9CF2D521 
 276      53544A75 
 276      CF5F123C 
 276      953FE3AB 
 277 011e FD394D37 		.ascii	"\3759M7\240\031\006Y\015s}\230{\027\271\227)^\026\266"
 277      A0190659 
ARM GAS  /tmp/ccQr8aQx.s 			page 22


 277      0D737D98 
 277      7B17B997 
 277      295E16B6 
 278 0132 9C864B3F 		.ascii	"\234\206K?\036?\313]\216("
 278      1E3FCB5D 
 278      8E28
 279              		.text
 280              		.section	.gnu.lto_.refs.788d9d34923c622e,"",%progbits
 281 0000 789C6D87 		.ascii	"x\234m\207\301\015\300 \020\303\022\037\005&a\273\356"
 281      C10DC020 
 281      10C3121F 
 281      052661BB 
 281      EE
 282 0011 FF2DE2C4 		.ascii	"\377-\342\304\243\002KV\034\204^%!\033\354\021\271\177"
 282      A3024B56 
 282      1C845E25 
 282      211BEC11 
 282      B97F
 283 0023 935B9D7F 		.ascii	"\223[\235\177\367\3322}\2504\372\264\020\356H\037k\242"
 283      F7DA327D 
 283      A834FAB4 
 283      10EE481F 
 283      6BA2
 284 0035 0175     		.ascii	"\001u"
 285              		.text
 286              		.section	.gnu.lto_.decls.788d9d34923c622e,"",%progbits
 287 0000 789CBD59 		.ascii	"x\234\275Ykl\024\327\025\276wv\275\266\361\032\202]"
 287      6B6C14D7 
 287      15BE7776 
 287      BDB6F11A 
 287      825D
 288 0012 10A64016 		.ascii	"\020\246@\026\032*\205\024\233\032\024\021\265\012&"
 288      1A2A8514 
 288      9B1A1411 
 288      B50A26
 289 0021 54057EA4 		.ascii	"T\005~\244\215ZE\252\324\037\333a=`\267\336]\263;n "
 289      8D5A45AA 
 289      D41FDB61 
 289      3D60B7DE 
 289      5DB33B6E 
 290 0036 FDC17821 		.ascii	"\375\301x!\306%ImL!\206\204`\363($P\312#U\312\243\315"
 290      C625496D 
 290      4C218684 
 290      60F32824 
 290      50CA2355 
 291 004d 40126350 		.ascii	"@\022cPx)\305\016\202\312\016\244\220\224\026H\035\036"
 291      7829C50E 
 291      82CA0EA4 
 291      90941648 
 291      1D1E
 292 005f 8198EDB9 		.ascii	"\201\230\355\271\257\335\231\331\231}\270jG\234\361"
 292      AFDD99D9 
 292      997DB86A 
 292      479CF1
 293 006e 9DBBF77C 		.ascii	"\235\273\367|\367;\217\373DB\022\252\222\020\212\303"
 293      F73B8FFB 
 293      444212AA 
ARM GAS  /tmp/ccQr8aQx.s 			page 23


 293      92108AC3 
 294 007e E39B84D0 		.ascii	"\343\233\204\320]\027Bn\204\320\223 \245 \235 \233A"
 294      5D17426E 
 294      84D09320 
 294      A5209D20 
 294      9B41
 295 0090 B683E481 		.ascii	"\266\203\344\201\014\200|\001\262\037\3446\310\035\220"
 295      0C807C01 
 295      B21FE436 
 295      C81D90
 296 009f 2F41EE81 		.ascii	"/A\356\201|\0052\010\362\000\004a\370\007\342\002q\203"
 296      7C053208 
 296      F2000461 
 296      F807E202 
 296      7183
 297 00b1 7830A24F 		.ascii	"x0\242O\001\310\010(\227\202\214\006)\003\371\006\310"
 297      01C80828 
 297      97828C06 
 297      2903F906 
 297      C8
 298 00c2 A3205341 		.ascii	"\243 SA\246\223\266\320\346\011\370\373\035\220*\220"
 298      A693B6D0 
 298      E609F8FB 
 298      1D902A90 
 299 00d2 A7407E0A 		.ascii	"\247@~\012\262\220c\210\207\340\214\342\\\206\203xA"
 299      B2906388 
 299      87E08CE2 
 299      5C868378 
 299      41
 300 00e3 BE0E75B3 		.ascii	"\276\016u\2638\327:(\0071\343N\270\225C9\004\362\010"
 300      38D73A28 
 300      0731E34E 
 300      B8954339 
 300      04F208
 301 00f6 4818276D 		.ascii	"H\030'm\031\013\345z\220)8i/y<\274\017\302k1\347Y\306"
 301      190BE57A 
 301      90293869 
 301      2F793CBC 
 301      0FC26B31 
 302 010d B982CB28 		.ascii	"\271\202\313(\267',\234\210]>\336\277\340D\370\271\015"
 302      B7272C9C 
 302      885D3EDE 
 302      BFE044F8 
 302      B90D
 303 011f DCEC7811 		.ascii	"\334\354x\021>\302\217c\015<\005\037\301U\360\024~\025"
 303      3EC28F63 
 303      0D3C051F 
 303      C155F014 
 303      7E15
 304 0131 7E167E17 		.ascii	"~\026~\0271\021\374K9\3772\203\015\351\370\223\230\020"
 304      3111FC4B 
 304      39FF3283 
 304      0DE9F893 
 304      9810
 305 0143 EECF737E 		.ascii	"\356\317s~\036\376=\203\267\223x\233\351\034C\304\311"
 305      1EFE3D83 
 305      B793789B 
ARM GAS  /tmp/ccQr8aQx.s 			page 24


 305      E91C43C4 
 305      C9
 306 0154 F814A155 		.ascii	"\370\024\241U\232\026\323:\232\264y\335\303G\242V\015"
 306      9A16D33A 
 306      9AB479DD 
 306      C347A256 
 306      0D
 307 0165 1E5FFBF0 		.ascii	"\036_\373\360B\324L\252\373\267ic\306 \364\023,c\250"
 307      42D44CAA 
 307      FBB76963 
 307      C620F413 
 307      2C63A8
 308 0178 2AA0056F 		.ascii	"*\240\005o!\261\003MF[\241)\264\227d\274\005\027B\007"
 308      21B1034D 
 308      465BA129 
 308      B49764BC 
 308      05174207 
 309 018c 92055A3C 		.ascii	"\222\005Z<\354w\362\020uV\026\2458N\240\357\301\002"
 309      EC77F210 
 309      755616A5 
 309      384EA0EF 
 309      C102
 310 019e 7E3457DB 		.ascii	"~4W\333\214G\322\022%\243q\216\264\005W\361\011\015"
 310      8C47D212 
 310      25A3718E 
 310      B40557F1 
 310      090D
 311 01b0 37D7F89D 		.ascii	"7\327\370\235\241#oa\2620\212Sq\322\353\304E\266\016"
 311      A1236F61 
 311      B2308A53 
 311      71D2EBC4 
 311      45B60E
 312 01c3 2941ABA9 		.ascii	")A\253\251C\232/'y\352\011\236c\204\033Z\373[\256\364"
 312      439A2F27 
 312      79EA099E 
 312      63841B5A 
 312      FB5BAEF4 
 313 01d7 BB34AD40 		.ascii	"\2734\255@\306;p\011\270\242\022\243)\350\015\346\237"
 313      C63B7009 
 313      B8A212A3 
 313      29E80DE6 
 313      9F
 314 01e8 D8243BBF 		.ascii	"\330$;\277dF\226\320\\\014\324v\001\240\214w\342)\334"
 314      644696D0 
 314      5C0CD476 
 314      01A08C77 
 314      E229DC
 315 01fb E3FA9A95 		.ascii	"\343\372\232\225^\315\315\352\021\377\305\346\231\210"
 315      5ECDCDEA 
 315      11FFC5E6 
 315      9988
 316 0209 3AA06B7D 		.ascii	":\240k}\355\261\327\312\264\216\243\330d\325h\264\226"
 316      EDB1D7CA 
 316      B48EA3D8 
 316      64D568B4 
 316      96
 317 021a FB53C3AA 		.ascii	"\373S\303\252\214g\0259\372e/f\261p\321\374A<+\030\212"
ARM GAS  /tmp/ccQr8aQx.s 			page 25


 317      8C671539 
 317      FA652F66 
 317      B170D1FC 
 317      413C2B18 
 318 022f BD37B93F 		.ascii	"\2757\271?z\233z\006p\014\360e\274\237&G\023\306&\262"
 318      7A9B7A06 
 318      700CF065 
 318      BC9F2647 
 318      13C626B2 
 319 0243 32CE2B34 		.ascii	"2\316+4'\011|\213\006\004/\2570Y \023\336\210\004\013"
 319      27097C8B 
 319      06042FAF 
 319      30592013 
 319      DE88040B 
 320 0257 A12AE367 		.ascii	"\241*\343g]\011\3754\\\016\2358\266\232s\331\003\216"
 320      5D09FD34 
 320      5C0E9D38 
 320      B69A73D9 
 320      038E
 321 0269 90D0210B 		.ascii	"\220\320!\013\027\223s\230\321N\0169\000\000\366>O\371"
 321      17937398 
 321      D14E0E39 
 321      0000F63E 
 321      4FF9
 322 027b 4D42DD58 		.ascii	"MB\335X\004\320\016.\221\243\006\372\306\340i\375-\003"
 322      04D00E2E 
 322      91A306FA 
 322      C6E069FD 
 322      2D03
 323 028d DDAE0D9A 		.ascii	"\335\256\015\232\336>\255\024\265\221\200\351\036c\266"
 323      DE3EAD14 
 323      B59180E9 
 323      1E63B6
 324 029c 54098482 		.ascii	"T\011\204\202\204\251\372\241\256\361$7\016\343R\350"
 324      84A9FAA1 
 324      AEF12437 
 324      0EE352E8 
 325 02ac FEACC5CC 		.ascii	"\376\254\305\314\314(\022\352\243:\357\200\276)\347"
 325      CC2812EA 
 325      A33AEF80 
 325      BE29E7
 326 02bb CE75B97C 		.ascii	"\316u\271|\254:s\312\3656\265\214\325:^\032\303\223"
 326      AC3A73CA 
 326      F536B58C 
 326      D53A5E1A 
 326      C393
 327 02cd 456FD29A 		.ascii	"Eo\322\232q\343\336q\351x\367\277}\372z'\017\321\273"
 327      71E3DE71 
 327      E978F7BF 
 327      7DFA7A27 
 327      0FD1BB
 328 02e0 345DD64A 		.ascii	"4]\326Jf\356\271\200\255^s\372\010\007\353\242`\177"
 328      66EEB980 
 328      AD5E73FA 
 328      0807EBA2 
 328      607F
 329 02f2 193A58C7 		.ascii	"\031:X\307\246\236q\304\243\307)\320-\311\232\304\205"
ARM GAS  /tmp/ccQr8aQx.s 			page 26


 329      A69E71C4 
 329      A3C729D0 
 329      2DC99AC4 
 329      85
 330 0303 96242E34 		.ascii	"\226$.4'qaa\262\020\027\217y:\370\237\352HHs\211\200"
 330      27716161 
 330      B210178F 
 330      793AF89F 
 330      EA484873 
 331 0319 DA199939 		.ascii	"\332\031\2319\007o\\\333\201\311\004\302\347\253\216"
 331      076F5CDB 
 331      81C904C2 
 331      E7AB8E
 332 0328 2AC3C037 		.ascii	"*\303\3007A\021V\247\254s\325\371.\354c\325\231\363"
 332      411156A7 
 332      AC73D5F9 
 332      2EEC63D5 
 332      99F3
 333 033a E642D3C6 		.ascii	"\346B\323\306\324\251\212\345\262\323h<\233\234\266"
 333      D4A98AE5 
 333      B2D3683C 
 333      9B9CB6
 334 0349 6186A196 		.ascii	"a\206\241\226\236\032\342h\213\351\177\353bS\245\230"
 334      9E1AE268 
 334      8BE97FEB 
 334      6253A598 
 335 0359 B15ECC19 		.ascii	"\261^\314\031\317g1LB\253\377;\357\353w\272\206im\336"
 335      CF67314C 
 335      42ABFF3B 
 335      EFEB77BA 
 335      86696DDE 
 336 036d AC7CDF6B 		.ascii	"\254|\337k\365\375\347\324\367\275Y\371~\200\373^\306"
 336      F5FDE7D4 
 336      F7BD59F9 
 336      7E80FB5E 
 336      C6
 337 037e DBE90CB9 		.ascii	"\333\351\014\271\216\362\356\035\262/oY|\371j\316x\251"
 337      8EF2EE1D 
 337      B22F6F59 
 337      7CF96ACE 
 337      78A9
 338 0390 BEEC18AA 		.ascii	"\276\354\030\252/\355\036\343\034'\343#x2\274\217\342"
 338      2FED1EE3 
 338      1C27E323 
 338      7832BC8F 
 338      E2
 339 03a1 89F03E49 		.ascii	"\211\360>I\337=\3606\364\275\315e\231\311\355\372.p"
 339      DF3DF036 
 339      F4BDCD65 
 339      99C9EDFA 
 339      2E70
 340 03b3 8EE39E63 		.ascii	"\216\343\236c\336VY\204\321\223a\355<p\341\223\253x"
 340      DE565984 
 340      D19361ED 
 340      3C70E193 
 340      AB78
 341 03c5 399DBFFA 		.ascii	"9\235\277\372\351n\342\204\313<\355d\004\222P\017U\271"
ARM GAS  /tmp/ccQr8aQx.s 			page 27


 341      E96EE284 
 341      CB3CED64 
 341      0492500F 
 341      55B9
 342 03d7 6CCD898D 		.ascii	"l\315\211\215\233\350\336\341r\346\244X\321\250o\352"
 342      9BE8DEE1 
 342      72E6A458 
 342      D1A86FEA 
 343 03e7 5B478348 		.ascii	"[G\203H\247\313\306lV\375\365}]g)s\323\216\315^E\306"
 343      A7CBC66C 
 343      56FDF57D 
 343      5D672973 
 343      D38ECD5E 
 344 03fd 9F52AF7B 		.ascii	"\237R\257{\3143\031|\022\315\273t\002[\306k\310G>1k"
 344      CC33197C 
 344      12CDBB74 
 344      025BC66B 
 344      C8473E31 
 345 0412 A3DB6626 		.ascii	"\243\333f&O\337\217X\024>|o/_\024\256\321\224\3342d"
 345      4FDF8F58 
 345      143E7C6F 
 345      2F5F14AE 
 345      D194DC32 
 346 0427 A84D3D6F 		.ascii	"\250M=o\317\244{\275\353\024h\247\333\272(x,\213B\016"
 346      CFA47BBD 
 346      EB1468A7 
 346      DBBA2878 
 346      2C8B420E 
 347 043b 26FEBFF5 		.ascii	"&\376\277\365$\364G\267\310\224\034\207\272\335cL9\031"
 347      24F447B7 
 347      C8941C87 
 347      BADD634C 
 347      3919
 348 044d FF9D06F8 		.ascii	"\377\235\006\370\212y(\035pg\261)z(\353\376v\031\372"
 348      8A79281D 
 348      7067B129 
 348      7A28EBFE 
 348      7619FA
 349 0460 DB4DFBFB 		.ascii	"\333M\373\373\003\035\300\207\350\273\317\330\267\323"
 349      031DC087 
 349      E8BBCFD8 
 349      B7D3
 350 046e 2AB2DD61 		.ascii	"*\262\335a\363\237<\015\261\263\012\327oM\354\322K8"
 350      F39F3C0D 
 350      B1B30AD7 
 350      6F4DECD2 
 350      4B38
 351 0480 C017399F 		.ascii	"\300\0279\237Sn9\234SFf\240:\220\033\325\032\241_\314"
 351      536E399C 
 351      534666A0 
 351      3A901BD5 
 351      1AA15FCC 
 352 0494 F5EFE4CC 		.ascii	"\365\357\344\314\364\256\003So\006\246\267sc\252as\350"
 352      F4AE0353 
 352      6F06A6B7 
 352      7363AA61 
 352      73E8
ARM GAS  /tmp/ccQr8aQx.s 			page 28


 353 04a6 657C2F67 		.ascii	"e|/g\252\367\035\250\216\310@\365K\007\252l\361r\322"
 353      AAF71DA8 
 353      8EC840F5 
 353      4B07AA6C 
 353      F172D2
 354 04b9 FA2A3703 		.ascii	"\372*7\003\237\021\372\303\270\376\203\234\355\213;"
 354      9F11FAC3 
 354      B8FE839C 
 354      ED8B3B
 355 04c8 D897B272 		.ascii	"\330\227\262rZ\364\006scZ/\364\207s\375F)W\2461\311"
 355      5AF40673 
 355      635A2FF4 
 355      8773FD46 
 355      2957A631 
 356 04dd 9E697106 		.ascii	"\236iq\006\246\232\224\023\323\366D\322\224r\200\025"
 356      A69A9413 
 356      D3F644D2 
 356      94728015 
 357 04ed 39537DC1 		.ascii	"9S}\301\201jI\006\252\3133R5\\\241\264'\027\224\324"
 357      816A4906 
 357      AACB3352 
 357      355CA1B4 
 357      271794D4 
 358 0501 3B147260 		.ascii	";\024r`\371\375ctAi\226\310\202\362g\273\225)+\240M"
 358      F9FD6374 
 358      416996C8 
 358      82F267BB 
 358      95292BA0 
 359 0516 EB5E672B 		.ascii	"\353^g+\323\213\024\350\375\224\225\011[V&l^)\022W3"
 359      D38B14E8 
 359      FD949509 
 359      5B56266C 
 359      5E291257 
 360 052b FC662697 		.ascii	"\374f&\227\266b 'xi\230+\256\3149(\277q\010\312\262"
 360      B6622027 
 360      7869982B 
 360      AECC3928 
 360      BF7108CA 
 361 0540 0C41694A 		.ascii	"\014AiJ\006\345a\364\272\246\337\354\177\347\312\335"
 361      06E561F4 
 361      BAA6DFEC 
 361      7FE7CADD 
 362 0550 EF6EDCA7 		.ascii	"\357n\334\247i\277\326\036\304\227a\313\305\307\223"
 362      69BFD61E 
 362      C49761CB 
 362      C5C793
 363 055f A31C915A 		.ascii	"\243\034\221Z%q\011%\356\030$\024\3133\273\023\241o"
 363      25710925 
 363      EE182414 
 363      CB33BB13 
 363      A16F
 364 0571 A26D044F 		.ascii	"\242m\004O\333\241\271(\032i\337\"=l\366\333jI2V0b\372"
 364      DBA1B928 
 364      1A69DF22 
 364      3D6CF6DB 
 364      6A493256 
 365 0588 832E6F6B 		.ascii	"\203.okc\177<\3760\353KB\257d\205\276\306\212\376[["
ARM GAS  /tmp/ccQr8aQx.s 			page 29


 365      637F3CFE 
 365      30EB4B42 
 365      AF6485BE 
 365      C68AFE5B 
 366 059d F4DB56F4 		.ascii	"\364\333V\364]Y\241\257\263\242\277\222\212\336\337"
 366      5D59A1AF 
 366      B3A2BF92 
 366      8ADEDF
 367 05ac DA1FBF76 		.ascii	"\332\037\277v\363[\355\373\264\0256N-@+i\256\276\240"
 367      F35BEDFB 
 367      B415364E 
 367      2D402B69 
 367      AEBEA0
 368 05bf 35E2C569 		.ascii	"5\342\305ir\225_\034\276*\025\000\271\213y\2167\207"
 368      72955F1C 
 368      BE2A1500 
 368      B98B798E 
 368      3787
 369 05d1 A4818838 		.ascii	"\244\201\2108+\213\022vN\203\015\222\351\326\212\265"
 369      2B8B1276 
 369      4E830D92 
 369      E9D68AB5 
 370 05e1 E71FA6C1 		.ascii	"\347\037\246\301\232\030Y\272\343\310\222\361V\272\253"
 370      9A1859BA 
 370      E3C892F1 
 370      56BAAB
 371 05f0 C8EA0A33 		.ascii	"\310\352\0123\205IG2!\221\345\302JB\227Rb\302\032m\266"
 371      85494732 
 371      2191E5C2 
 371      4A429752 
 371      62C21A6D 
 372 0605 757ACBE6 		.ascii	"uz\313\346\343x\275vt\205\026\217/C\331\337\340m\265"
 372      E378BD76 
 372      7485168F 
 372      2F43D9DF 
 372      E06DB5
 373 0618 FA82EC76 		.ascii	"\372\202\354v\022\037\373\231U\351.\326$t\303\201\347"
 373      121FFB99 
 373      55E92ED6 
 373      2474C381 
 373      E7
 374 0629 0E3B9EFA 		.ascii	"\016;\236\372\232U/\225i\2351=\036\237e\245\231f\274"
 374      9A552F95 
 374      699D313D 
 374      1E9F65A5 
 374      9966BC
 375 063c BD69A539 		.ascii	"\275i\2459\253\310J#\346\261\247\261\313\226\306\332"
 375      ABC84A23 
 375      E6B1A7B1 
 375      CB96C6DA 
 376 064c 552F3BD1 		.ascii	"U/;\321H\267\252\357N\353.\276\346[\277-D_v \272\317"
 376      48B7AAEF 
 376      4EEB2EBE 
 376      E65BBF2D 
 376      445F7620 
 377 0662 96687CE5 		.ascii	"\226h|\345P\374\365VZ\236\263\3144y\224-478\320\374"
 377      50FCF556 
ARM GAS  /tmp/ccQr8aQx.s 			page 30


 377      5A9EB3CC 
 377      3479942D 
 377      343738D0 
 378 0677 9399E624 		.ascii	"\223\231\346$\324\251\351g`\"\275y\005\267iZ\363rr\222"
 378      D4A9E967 
 378      6022BD79 
 378      05B7695A 
 378      F3727292 
 379 068b C07197B8 		.ascii	"\300q\227\270\352\336\231\200\341\\\315\267\330\004"
 379      EADE9980 
 379      E15CCDB7 
 379      D804
 380 0699 F1601291 		.ascii	"\361`\022\221\241\351}\037\0274^\002K\037\300\211\204"
 380      A1E97D1F 
 380      17345E02 
 380      4B1FC089 
 380      84
 381 06aa 2D107010 		.ascii	"-\020p\020\261\002\231\226\022j\214\204\016{\260\260"
 381      B1029996 
 381      126A8C84 
 381      0E7BB0B0 
 382 06ba 8BFCE616 		.ascii	"\213\374\346\026\247n\326\321asG\035md\252z\354\015"
 382      A76ED6D1 
 382      6173471D 
 382      6D64AA7A 
 382      EC0D
 383 06cc 3A5509D6 		.ascii	":U\011\326yde|\317\332W\212\203\217\230\241\366\350"
 383      7964657C 
 383      CFDA578A 
 383      838F98A1 
 383      F6E8
 384 06de E0818FE6 		.ascii	"\340\201\217\346\037\214\221\245\204A\211\225\276{x"
 384      1F8C91A5 
 384      84418995 
 384      BE7B78
 385 06ed 624ED193 		.ascii	"bN\321\223\377e\000\307~l8G\232\367\267|\271\216_;3"
 385      FF6500C7 
 385      7E6C3847 
 385      9AF7B77C 
 385      B98E5F3B 
 386 0702 869C96C5 		.ascii	"\206\234\226\305\377\0058\266\227q\2274\031elF\032v"
 386      FF0538B6 
 386      97719734 
 386      19656C46 
 386      1A76
 387 0714 4B9623FF 		.ascii	"K\226#\377}\305\307j3\337\002\015\016vc\255\315\313"
 387      7DC5C76A 
 387      33DF020D 
 387      0E7663AD 
 387      CDCB
 388 0726 A62D099D 		.ascii	"\246-\011\235\242N\"\2529\236\0149\\\3743\012g\331S"
 388      A24E22AA 
 388      399E0C39 
 388      5CFC330A 
 388      67D953
 389 0739 93F5C8C9 		.ascii	"\223\365\310\311\351'%\313\015\372\2079S\360\231(\264"
 389      E92725CB 
ARM GAS  /tmp/ccQr8aQx.s 			page 31


 389      0DFA8739 
 389      53F09928 
 389      B4
 390 074a C23A2833 		.ascii	"\302:(3\\\011\235\317\006\314\361\022'\246\267\031\301"
 390      5C099DCF 
 390      06CCF112 
 390      27A6B719 
 390      C1
 391 075b 2EE50CE6 		.ascii	".\345\014\346\2638]\234Z\217Kd}9!\221\363\352\007\364"
 391      B3385D9C 
 391      5A8F4B64 
 391      7D392191 
 391      F3EA07F4 
 392 076f 7D9ABECF 		.ascii	"}\232\276\317J\246s\363?<\326\315\034\013\252\001/\031"
 392      4AA673F3 
 392      3F3CD6CD 
 392      1C0BAA01 
 392      2F19
 393 0781 7B9419D1 		.ascii	"{\224\031\321>\006\226`\275\357`\037\301\377\253im3"
 393      3E069660 
 393      BDEF601F 
 393      C1FFAB69 
 393      6D33
 394 0793 40FECC7C 		.ascii	"@\376\314|FL\216\023\246c\337J\306\347r\336&\3668l\023"
 394      464C8E13 
 394      A663DF4A 
 394      C6E772DE 
 394      26F6386C 
 395 07a8 8DF357B2 		.ascii	"\215\363W\262\025\271\277\267\016\373\024\022\2750\354"
 395      15B9BFB7 
 395      0EFB1412 
 395      BD30EC
 396 07b7 27A095F9 		.ascii	"'\240\225\371\0335\026\273\031h\277\326\254O\223\361"
 396      1B3516BB 
 396      1968BFD6 
 396      AC4F93F1 
 397 07c7 BBC02E91 		.ascii	"\273\300.\221\025\277B\367\264"
 397      15BF42F7 
 397      B4
 398 07d0 760D6684 		.ascii	"v\015f\204\376\371.f\024\231#\316\234\321\317\235z\015"
 398      FEF92E66 
 398      149923CE 
 398      9CD1CF9D 
 398      7A0D
 399 07e2 6B1D3131 		.ascii	"k\03511\261\021\367I\2503\337:\261\245\214\332\213|"
 399      B111F749 
 399      A833DF3A 
 399      B1A58CDA 
 399      8B7C
 400 07f4 B661DD55 		.ascii	"\266a\335U1M\026B\326\227\336{\012gs$\3724\001=\236"
 400      314D1642 
 400      D697DE7B 
 400      0A677324 
 400      FA34013D 
 401 0809 43F7E7EC 		.ascii	"C\367\347\354\326\217\035\334:.m\346\310\270/\231\020"
 401      D68F1DDC 
 401      3A2E6DE6 
ARM GAS  /tmp/ccQr8aQx.s 			page 32


 401      C8B82F99 
 401      10
 402 081a 13D06E70 		.ascii	"\023\320npa{U\262{\226\211\304\230fM\377h\270\030\353"
 402      617B55B2 
 402      7B9689C4 
 402      98664DFF 
 402      68B818EB 
 403 082e 7CC7C932 		.ascii	"|\307\3112\224\340\235\244 ,Wy\353\213\211\326\306\335"
 403      94E09DA4 
 403      202C5779 
 403      EB8B89D6 
 403      C6DD
 404 0840 2F678185 		.ascii	"/g\201\205\203\016\226\230\"q\377\264M$>\310\034\211"
 404      830E9698 
 404      2271FFB4 
 404      4D243EC8 
 404      1C89
 405 0852 AB192331 		.ascii	"\253\031#1x\032\263\353\215\011\350<7R\\\2530#\215f"
 405      781AB3EB 
 405      8D09E83C 
 405      37525CAB 
 405      30238D66 
 406 0866 A431ABAD 		.ascii	"\2441\253\255D\230\325\222j\226D\013b\210YFe\236s\354"
 406      4498D592 
 406      6A96440B 
 406      62885946 
 406      659E73EC 
 407 087a FEE9702C 		.ascii	"\376\351p,e;\033'\255\1779jmM\243u\335QkC\032\255\033"
 407      653B1B27 
 407      AD7F396A 
 407      6D4DA375 
 407      DD516B43 
 408 0891 8E5A6FA6 		.ascii	"\216Zo\246\321\272i^\031\370\351\356\306\356\317\244"
 408      D1BA695E 
 408      19F8E9EE 
 408      C6EECFA4 
 409 08a1 F59A4EF7 		.ascii	"\365\232N\367\304\023\263\337\023\377;\233=\261e\267"
 409      C413B3DF 
 409      13FF3B9B 
 409      3DB165B7 
 410 08b1 7435DF3C 		.ascii	"t5\337<\375>\202\266hZ\233vV\231'\376\317d\200\266\370"
 410      FD3E82B6 
 410      685A9B76 
 410      569927FE 
 410      CF6480B6 
 411 08c6 1C6269D7 		.ascii	"\034bi\327/\277f\344j\203Dm?=Q_\304RZ5N\207\036\327"
 411      2FBF66E4 
 411      6A83446D 
 411      3F3D515F 
 411      C4525A35 
 412 08de 62DA854F 		.ascii	"b\332\205O\236\231\307\367w\316J\334\314[\346\215\234"
 412      9E99C7F7 
 412      77CE4ADC 
 412      CC5BE68D 
 412      9C
 413 08ef C5DB6FA5 		.ascii	"\305\333o\245\361\366=\303\324\356\016\324\310\221)"
 413      F1F63DC3 
ARM GAS  /tmp/ccQr8aQx.s 			page 33


 413      D4EE0ED4 
 413      C89129
 414 08fe E5E515EC 		.ascii	"\345\345\025\354_8Z\021\010\007\203\341\020\224\352"
 414      5F385A11 
 414      080783E1 
 414      1094EA
 415 090d 6A1754D4 		.ascii	"j\027T\324\206\002u\015\325JE\240\246F\221\353\313k"
 415      8602750D 
 415      D54A45A0 
 415      A64691EB 
 415      CB6B
 416 091f 50715009 		.ascii	"PqP\011\206#K\375\344\323\257z\346\376\340Y\337\034"
 416      86234BFD 
 416      E4D3AF7A 
 416      E6FEE059 
 416      DF1C
 417 0931 5464A8AC 		.ascii	"Td\250\254\254h\210F*\210\356\242@\240B\216\004\247"
 417      AC688846 
 417      2A88EEA2 
 417      40A0428E 
 417      04A7
 418 0943 86C22165 		.ascii	"\206\302!e\252\"/\250\255\230Q>\263\2742\201\031U\253"
 418      AA222FA8 
 418      AD98513E 
 418      B3BC3281 
 418      1955AB
 419 0956 AB958580 		.ascii	"\253\225\205\200\351\211\326>\257\370\325\251Y\260\200"
 419      E989D63E 
 419      AFF8D5A9 
 419      59B080
 420 0965 8E02E188 		.ascii	"\216\002\341\210\002J^(.R\324\205\015\241\200_-\250"
 420      024A5E28 
 420      2E52D485 
 420      0DA1805F 
 420      2DA8
 421 0977 8F847F59 		.ascii	"\217\204\177Y[\255D\212)/xA\331\257\026\031\276\036"
 421      5BAD448A 
 421      292F7841 
 421      D9AF1619 
 421      BE1E
 422 0989 B541AF0F 		.ascii	"\265A\257\017G\324h\305\354\037==\347\351%\000\316\221"
 422      47D468C5 
 422      EC1F3D3D 
 422      E7E92500 
 422      CE91
 423 099b 8745D55F 		.ascii	"\207E\325_\310u\265\213B~u<5Ft\037R\236#l\200wmH\205"
 423      C875B58B 
 423      427E753C 
 423      3546741F 
 423      529E236C 
 424 09b4 86050DF0 		.ascii	"\206\005\015\360\367\361\031\300\334\256YP\016\324\324"
 424      F7F119C0 
 424      DCAE5950 
 424      0ED4D4
 425 09c3 86940A3F 		.ascii	"\206\224\012?\030)7\324\251~ui\275\022%\370~\277P\314"
 425      182937D4 
 425      A97E7569 
ARM GAS  /tmp/ccQr8aQx.s 			page 34


 425      BD1225F8 
 425      7EBF50CC 
 426 09d7 A3FDB843 		.ascii	"\243\375\270C\312\0225\257^^\244D\335\013#\212\342&"
 426      CA1235AF 
 426      5E5EA444 
 426      DD0B238A 
 426      E226
 427 09e9 B4DDC429 		.ascii	"\264\335\304)\356\206\250R\355a\006\2147\032\020\252"
 427      EE86A852 
 427      ED61068C 
 427      371A10AA 
 428 09f9 AD337805 		.ascii	"\2553x\005@\213\242JP\256\257\001\013\374j1\374\352"
 428      408BA24A 
 428      50AEAF01 
 428      0BFC6A31 
 428      FCEA
 429 0a0b 4F7CCFCC 		.ascii	"O|\317\314hx8X_[\247D\242\025s\347\314\0014\3013/\020"
 429      68783858 
 429      5F5BA744 
 429      A21573E7 
 429      CC0134C1 
 430 0a22 02D2F940 		.ascii	"\002\322\371@uz\245_-\364\373y\311\005\365.\200\317"
 430      757AA55F 
 430      2DF4FB79 
 430      C905F52E 
 430      80CF
 431 0a34 2756CCA4 		.ascii	"'V\314\244\277\360Re\242+U\211\252\224d4\334\020\011"
 431      BFF05265 
 431      A22B5589 
 431      AA946434 
 431      DC1009
 432 0a47 28EC9BBC 		.ascii	"(\354\233\274\200\327\342\006%\024P\374\323\246=^\036"
 432      80D7E206 
 432      251450FC 
 432      D3A63D5E 
 432      1E
 433 0a58 405FA395 		.ascii	"@_\243\225P\006\251\364+K\224@\203\252\030+\277-*KL"
 433      5006A9F4 
 433      2B4B9440 
 433      83AA182B 
 433      BF2D2A4B 
 434 0a6d 9551456D 		.ascii	"\225QEm\250\037g\356\217x=P\343'eB\337\377T8\\\347\245"
 434      A81F67EE 
 434      8F783D50 
 434      E3276542 
 434      DFFF5438 
 435 0a84 9F7E391A 		.ascii	"\237~9\032U\"jI\240f\036\270vv]]80\233x^\251\036\306"
 435      55226A49 
 435      A0661EB8 
 435      76765D5D 
 435      38309B78 
 436 0a9c AABE0F6E 		.ascii	"\252\276\017n\367\262\342\217UYm\210>\304>~\270\340"
 436      F7B2E28F 
 436      55596D88 
 436      3EC43E7E 
 436      B8E0
 437 0aae E74A409D 		.ascii	"\347J@\235\037\252U\013)\016\211\214'\270\224\374\311"
ARM GAS  /tmp/ccQr8aQx.s 			page 35


 437      1FAA550B 
 437      290E898C 
 437      27B894FC 
 437      C9
 438 0abf 971902FB 		.ascii	"\227\031\002\373!\252*\365\356\220\034T\362(\263\002"
 438      21AA2AF5 
 438      EE901C54 
 438      F228B302 
 439 0acf 559123D5 		.ascii	"U\221#\325\341\347B\371\234\3750\322* G!<#S\374PV\036"
 439      E1E742F9 
 439      9CFD30D2 
 439      2A204721 
 439      3C2353FC 
 440 0ae6 0957CBAA 		.ascii	"\011W\313\252\\\236\362\213\327h\364xJ\\Vk\303!\237"
 440      5C9EF28B 
 440      D768F478 
 440      4A5C566B 
 440      C3219F
 441 0af9 1CAAF62D 		.ascii	"\034\252\366-\214\310\213\202JH\2455\310\330\264\262"
 441      8CC88B82 
 441      4A48A535 
 441      C8D8B4B2 
 442 0b09 F87B2CE9 		.ascii	"\370{,\351|\304\010Td\260;\217p\257\377\0174\272\330"
 442      7CC40854 
 442      64B03B8F 
 442      70AFFF0F 
 442      34BAD8
 443 0b1c 9F       		.ascii	"\237"
 444              		.text
 445              		.section	.gnu.lto_.symtab.788d9d34923c622e,"",%progbits
 446 0000 74657374 		.ascii	"test_sequence_006\000\000\000\000\000\000\000\000\000"
 446      5F736571 
 446      75656E63 
 446      655F3030 
 446      36000000 
 447 001a 00000042 		.ascii	"\000\000\000B\001\000\000test_step\000\000\002\000\000"
 447      01000074 
 447      6573745F 
 447      73746570 
 447      00000200 
 448 002f 00000000 		.ascii	"\000\000\000\000\000\000\000@\001\000\000_test_asse"
 448      00000040 
 448      0100005F 
 448      74657374 
 448      5F617373 
 449 0044 72740000 		.ascii	"rt\000\000\002\000\000\000\000\000\000\000\000\000\031"
 449      02000000 
 449      00000000 
 449      000019
 450 0053 01000063 		.ascii	"\001\000\000chHeapAllocAligned\000\000\002\000\000\000"
 450      68486561 
 450      70416C6C 
 450      6F63416C 
 450      69676E65 
 451 006e 00000000 		.ascii	"\000\000\000\000\000\000#\001\000\000chHeapFree\000"
 451      00002301 
 451      00006368 
ARM GAS  /tmp/ccQr8aQx.s 			page 36


 451      48656170 
 451      46726565 
 452 0083 00020000 		.ascii	"\000\002\000\000\000\000\000\000\000\000\000)\001\000"
 452      00000000 
 452      00000029 
 452      0100
 453 0091 00636848 		.ascii	"\000chHeapStatus\000\000\002\000\000\000\000\000\000"
 453      65617053 
 453      74617475 
 453      73000002 
 453      00000000 
 454 00a7 0000002D 		.ascii	"\000\000\000-\001\000\000chHeapObjectInit\000\000\002"
 454      01000063 
 454      68486561 
 454      704F626A 
 454      65637449 
 455 00c1 00000000 		.ascii	"\000\000\000\000\000\000\000\000\0003\001\000\000"
 455      00000000 
 455      00330100 
 455      00
 456              		.text
 457              		.section	.gnu.lto_.opts,"",%progbits
 458 0000 272D6D63 		.ascii	"'-mcpu=cortex-m0' '-mno-thumb-interwork' '-mthumb' "
 458      70753D63 
 458      6F727465 
 458      782D6D30 
 458      2720272D 
 459 0033 272D6767 		.ascii	"'-ggdb' '-O2' '-fomit-frame-pointer' '-falign-funct"
 459      64622720 
 459      272D4F32 
 459      2720272D 
 459      666F6D69 
 460 0066 696F6E73 		.ascii	"ions=16' '-ffunction-sections' '-fdata-sections' '-"
 460      3D313627 
 460      20272D66 
 460      66756E63 
 460      74696F6E 
 461 0099 666E6F2D 		.ascii	"fno-common' '-flto'\000"
 461      636F6D6D 
 461      6F6E2720 
 461      272D666C 
 461      746F2700 
 462              		.text
 463              		.cfi_sections	.debug_frame
 464              		.section	.text.test_006_002_execute,"ax",%progbits
 465              		.align	2
 466              		.p2align 4,,15
 467              		.code	16
 468              		.thumb_func
 469              		.type	test_006_002_execute, %function
 470              	test_006_002_execute:
 471              	.LFB100:
 472              		.file 1 "../../../test/nil/source/test/test_sequence_006.c"
 473              		.loc 1 231 0
 474              		.cfi_startproc
 475 0000 30B5     		push	{r4, r5, lr}
 476              		.cfi_def_cfa_offset 12
ARM GAS  /tmp/ccQr8aQx.s 			page 37


 477              		.cfi_offset 4, -12
 478              		.cfi_offset 5, -8
 479              		.cfi_offset 14, -4
 480              		.loc 1 237 0
 481 0002 154C     		ldr	r4, .L6
 482              		.loc 1 231 0
 483 0004 83B0     		sub	sp, sp, #12
 484              		.cfi_def_cfa_offset 24
 485              		.loc 1 237 0
 486 0006 0123     		mov	r3, #1
 487              		.loc 1 239 0
 488 0008 6946     		mov	r1, sp
 489 000a 01AA     		add	r2, sp, #4
 490 000c 0020     		mov	r0, #0
 491              		.loc 1 237 0
 492 000e 2360     		str	r3, [r4]
 493              		.loc 1 239 0
 494 0010 FFF7FEFF 		bl	chHeapStatus
 495              	.LVL0:
 496              	.LBB37:
 497              	.LBB38:
 498              		.file 2 "../../../os/common/oslib/include/chheap.h"
 499              		.loc 2 157 0
 500 0014 1021     		mov	r1, #16
 501 0016 1148     		ldr	r0, .L6+4
 502 0018 0822     		mov	r2, #8
 503 001a FFF7FEFF 		bl	chHeapAllocAligned
 504              	.LVL1:
 505 001e 051C     		mov	r5, r0
 506              	.LBE38:
 507              	.LBE37:
 508              		.loc 1 241 0
 509 0020 431E     		sub	r3, r0, #1
 510 0022 9841     		sbc	r0, r0, r3
 511 0024 C0B2     		uxtb	r0, r0
 512 0026 0E49     		ldr	r1, .L6+8
 513 0028 FFF7FEFF 		bl	_test_assert
 514              	.LVL2:
 515 002c 0028     		cmp	r0, #0
 516 002e 01D0     		beq	.L5
 517              	.L1:
 518              		.loc 1 251 0
 519 0030 03B0     		add	sp, sp, #12
 520              		@ sp needed
 521 0032 30BD     		pop	{r4, r5, pc}
 522              	.L5:
 523              		.loc 1 242 0
 524 0034 281C     		mov	r0, r5
 525 0036 FFF7FEFF 		bl	chHeapFree
 526              	.LVL3:
 527              		.loc 1 246 0
 528 003a 0223     		mov	r3, #2
 529              	.LBB39:
 530              	.LBB40:
 531              		.loc 2 157 0
 532 003c 0949     		ldr	r1, .L6+12
 533 003e 0822     		mov	r2, #8
ARM GAS  /tmp/ccQr8aQx.s 			page 38


 534 0040 0020     		mov	r0, #0
 535              	.LBE40:
 536              	.LBE39:
 537              		.loc 1 246 0
 538 0042 2360     		str	r3, [r4]
 539              	.LVL4:
 540              	.LBB42:
 541              	.LBB41:
 542              		.loc 2 157 0
 543 0044 FFF7FEFF 		bl	chHeapAllocAligned
 544              	.LVL5:
 545              	.LBE41:
 546              	.LBE42:
 547              		.loc 1 249 0
 548 0048 4342     		neg	r3, r0
 549 004a 5841     		adc	r0, r0, r3
 550 004c 0649     		ldr	r1, .L6+16
 551 004e C0B2     		uxtb	r0, r0
 552 0050 FFF7FEFF 		bl	_test_assert
 553              	.LVL6:
 554 0054 ECE7     		b	.L1
 555              	.L7:
 556 0056 C046     		.align	2
 557              	.L6:
 558 0058 00000000 		.word	test_step
 559 005c 00000000 		.word	.LANCHOR0
 560 0060 00000000 		.word	.LC2
 561 0064 00FFFFFF 		.word	-256
 562 0068 14000000 		.word	.LC4
 563              		.cfi_endproc
 564              	.LFE100:
 565              		.size	test_006_002_execute, .-test_006_002_execute
 566 006c C046C046 		.section	.text.test_006_001_execute,"ax",%progbits
 567              		.align	2
 568              		.p2align 4,,15
 569              		.code	16
 570              		.thumb_func
 571              		.type	test_006_001_execute, %function
 572              	test_006_001_execute:
 573              	.LFB99:
 574              		.loc 1 95 0
 575              		.cfi_startproc
 576 0000 F0B5     		push	{r4, r5, r6, r7, lr}
 577              		.cfi_def_cfa_offset 20
 578              		.cfi_offset 4, -20
 579              		.cfi_offset 5, -16
 580              		.cfi_offset 6, -12
 581              		.cfi_offset 7, -8
 582              		.cfi_offset 14, -4
 583 0002 5646     		mov	r6, r10
 584 0004 4D46     		mov	r5, r9
 585 0006 4446     		mov	r4, r8
 586 0008 5F46     		mov	r7, fp
 587 000a F0B4     		push	{r4, r5, r6, r7}
 588              		.cfi_def_cfa_offset 36
 589              		.cfi_offset 8, -36
 590              		.cfi_offset 9, -32
ARM GAS  /tmp/ccQr8aQx.s 			page 39


 591              		.cfi_offset 10, -28
 592              		.cfi_offset 11, -24
 593              		.loc 1 103 0
 594 000c C84C     		ldr	r4, .L18
 595              		.loc 1 95 0
 596 000e 87B0     		sub	sp, sp, #28
 597              		.cfi_def_cfa_offset 64
 598              		.loc 1 101 0
 599 0010 C84D     		ldr	r5, .L18+4
 600 0012 0123     		mov	r3, #1
 601              		.loc 1 103 0
 602 0014 03A9     		add	r1, sp, #12
 603 0016 201C     		mov	r0, r4
 604 0018 0022     		mov	r2, #0
 605              		.loc 1 101 0
 606 001a 2B60     		str	r3, [r5]
 607              		.loc 1 103 0
 608 001c FFF7FEFF 		bl	chHeapStatus
 609              	.LVL7:
 610 0020 C54E     		ldr	r6, .L18+8
 611 0022 0138     		sub	r0, r0, #1
 612 0024 4342     		neg	r3, r0
 613 0026 5841     		adc	r0, r0, r3
 614 0028 C0B2     		uxtb	r0, r0
 615 002a 311C     		mov	r1, r6
 616 002c FFF7FEFF 		bl	_test_assert
 617              	.LVL8:
 618 0030 0028     		cmp	r0, #0
 619 0032 06D0     		beq	.L17
 620              	.L8:
 621              		.loc 1 208 0
 622 0034 07B0     		add	sp, sp, #28
 623              		@ sp needed
 624 0036 3CBC     		pop	{r2, r3, r4, r5}
 625 0038 9046     		mov	r8, r2
 626 003a 9946     		mov	r9, r3
 627 003c A246     		mov	r10, r4
 628 003e AB46     		mov	fp, r5
 629 0040 F0BD     		pop	{r4, r5, r6, r7, pc}
 630              	.L17:
 631              	.LBB43:
 632              	.LBB44:
 633              		.loc 2 157 0
 634 0042 8021     		mov	r1, #128
 635              	.LBE44:
 636              	.LBE43:
 637              		.loc 1 108 0
 638 0044 0223     		mov	r3, #2
 639              	.LBB47:
 640              	.LBB45:
 641              		.loc 2 157 0
 642 0046 4900     		lsl	r1, r1, #1
 643 0048 201C     		mov	r0, r4
 644 004a 0822     		mov	r2, #8
 645              	.LBE45:
 646              	.LBE47:
 647              		.loc 1 108 0
ARM GAS  /tmp/ccQr8aQx.s 			page 40


 648 004c 2B60     		str	r3, [r5]
 649              	.LVL9:
 650              	.LBB48:
 651              	.LBB46:
 652              		.loc 2 157 0
 653 004e FFF7FEFF 		bl	chHeapAllocAligned
 654              	.LVL10:
 655              	.LBE46:
 656              	.LBE48:
 657              		.loc 1 111 0
 658 0052 4342     		neg	r3, r0
 659 0054 5841     		adc	r0, r0, r3
 660 0056 C0B2     		uxtb	r0, r0
 661 0058 B849     		ldr	r1, .L18+12
 662 005a FFF7FEFF 		bl	_test_assert
 663              	.LVL11:
 664 005e 0028     		cmp	r0, #0
 665 0060 E8D1     		bne	.L8
 666              		.loc 1 116 0
 667 0062 0323     		mov	r3, #3
 668              	.LBB49:
 669              	.LBB50:
 670              		.loc 2 157 0
 671 0064 1021     		mov	r1, #16
 672 0066 201C     		mov	r0, r4
 673 0068 0822     		mov	r2, #8
 674              	.LBE50:
 675              	.LBE49:
 676              		.loc 1 116 0
 677 006a 2B60     		str	r3, [r5]
 678              	.LVL12:
 679              	.LBB53:
 680              	.LBB51:
 681              		.loc 2 157 0
 682 006c FFF7FEFF 		bl	chHeapAllocAligned
 683              	.LVL13:
 684              	.LBE51:
 685              	.LBE53:
 686              		.loc 1 119 0
 687 0070 B34F     		ldr	r7, .L18+16
 688              	.LBB54:
 689              	.LBB52:
 690              		.loc 2 157 0
 691 0072 8046     		mov	r8, r0
 692              	.LBE52:
 693              	.LBE54:
 694              		.loc 1 119 0
 695 0074 431E     		sub	r3, r0, #1
 696 0076 9841     		sbc	r0, r0, r3
 697 0078 C0B2     		uxtb	r0, r0
 698 007a 391C     		mov	r1, r7
 699 007c FFF7FEFF 		bl	_test_assert
 700              	.LVL14:
 701 0080 0028     		cmp	r0, #0
 702 0082 D7D1     		bne	.L8
 703              		.loc 1 120 0
 704 0084 4046     		mov	r0, r8
ARM GAS  /tmp/ccQr8aQx.s 			page 41


 705 0086 FFF7FEFF 		bl	chHeapFree
 706              	.LVL15:
 707              		.loc 1 125 0
 708 008a 0423     		mov	r3, #4
 709              	.LBB55:
 710              		.loc 1 129 0
 711 008c 04A9     		add	r1, sp, #16
 712 008e 201C     		mov	r0, r4
 713 0090 05AA     		add	r2, sp, #20
 714              	.LBE55:
 715              		.loc 1 125 0
 716 0092 2B60     		str	r3, [r5]
 717              	.LBB56:
 718              		.loc 1 129 0
 719 0094 FFF7FEFF 		bl	chHeapStatus
 720              	.LVL16:
 721 0098 0290     		str	r0, [sp, #8]
 722              		.loc 1 130 0
 723 009a 0138     		sub	r0, r0, #1
 724 009c 4342     		neg	r3, r0
 725 009e 5841     		adc	r0, r0, r3
 726 00a0 C0B2     		uxtb	r0, r0
 727 00a2 A849     		ldr	r1, .L18+20
 728 00a4 FFF7FEFF 		bl	_test_assert
 729              	.LVL17:
 730 00a8 0028     		cmp	r0, #0
 731 00aa C3D1     		bne	.L8
 732              		.loc 1 131 0
 733 00ac 049A     		ldr	r2, [sp, #16]
 734 00ae A64B     		ldr	r3, .L18+24
 735 00b0 0F20     		mov	r0, #15
 736 00b2 9042     		cmp	r0, r2
 737 00b4 8041     		sbc	r0, r0, r0
 738 00b6 4042     		neg	r0, r0
 739 00b8 191C     		mov	r1, r3
 740 00ba 9846     		mov	r8, r3
 741 00bc FFF7FEFF 		bl	_test_assert
 742              	.LVL18:
 743 00c0 0028     		cmp	r0, #0
 744 00c2 B7D1     		bne	.L8
 745              		.loc 1 132 0
 746 00c4 059B     		ldr	r3, [sp, #20]
 747 00c6 049A     		ldr	r2, [sp, #16]
 748 00c8 4146     		mov	r1, r8
 749 00ca D01A     		sub	r0, r2, r3
 750 00cc 4342     		neg	r3, r0
 751 00ce 5841     		adc	r0, r0, r3
 752 00d0 C0B2     		uxtb	r0, r0
 753 00d2 FFF7FEFF 		bl	_test_assert
 754              	.LVL19:
 755 00d6 0028     		cmp	r0, #0
 756 00d8 ACD1     		bne	.L8
 757              	.LBE56:
 758              		.loc 1 136 0
 759 00da 0523     		mov	r3, #5
 760              	.LBB57:
 761              	.LBB58:
ARM GAS  /tmp/ccQr8aQx.s 			page 42


 762              		.loc 2 157 0
 763 00dc 1021     		mov	r1, #16
 764 00de 0822     		mov	r2, #8
 765 00e0 201C     		mov	r0, r4
 766              	.LBE58:
 767              	.LBE57:
 768              		.loc 1 136 0
 769 00e2 2B60     		str	r3, [r5]
 770              	.LVL20:
 771              	.LBB61:
 772              	.LBB59:
 773              		.loc 2 157 0
 774 00e4 FFF7FEFF 		bl	chHeapAllocAligned
 775              	.LVL21:
 776              	.LBE59:
 777              	.LBE61:
 778              	.LBB62:
 779              	.LBB63:
 780 00e8 1021     		mov	r1, #16
 781              	.LBE63:
 782              	.LBE62:
 783              	.LBB66:
 784              	.LBB60:
 785 00ea 8246     		mov	r10, r0
 786              	.LVL22:
 787              	.LBE60:
 788              	.LBE66:
 789              	.LBB67:
 790              	.LBB64:
 791 00ec 0822     		mov	r2, #8
 792 00ee 201C     		mov	r0, r4
 793 00f0 FFF7FEFF 		bl	chHeapAllocAligned
 794              	.LVL23:
 795              	.LBE64:
 796              	.LBE67:
 797              	.LBB68:
 798              	.LBB69:
 799 00f4 1021     		mov	r1, #16
 800 00f6 0822     		mov	r2, #8
 801              	.LBE69:
 802              	.LBE68:
 803              	.LBB71:
 804              	.LBB65:
 805 00f8 8146     		mov	r9, r0
 806              	.LVL24:
 807              	.LBE65:
 808              	.LBE71:
 809              	.LBB72:
 810              	.LBB70:
 811 00fa 201C     		mov	r0, r4
 812 00fc FFF7FEFF 		bl	chHeapAllocAligned
 813              	.LVL25:
 814 0100 8046     		mov	r8, r0
 815              	.LBE70:
 816              	.LBE72:
 817              		.loc 1 141 0
 818 0102 5046     		mov	r0, r10
ARM GAS  /tmp/ccQr8aQx.s 			page 43


 819 0104 FFF7FEFF 		bl	chHeapFree
 820              	.LVL26:
 821              		.loc 1 142 0
 822 0108 4846     		mov	r0, r9
 823 010a FFF7FEFF 		bl	chHeapFree
 824              	.LVL27:
 825              		.loc 1 143 0
 826 010e 4046     		mov	r0, r8
 827 0110 FFF7FEFF 		bl	chHeapFree
 828              	.LVL28:
 829              		.loc 1 144 0
 830 0114 02A9     		add	r1, sp, #8
 831 0116 0022     		mov	r2, #0
 832 0118 201C     		mov	r0, r4
 833 011a FFF7FEFF 		bl	chHeapStatus
 834              	.LVL29:
 835 011e 0138     		sub	r0, r0, #1
 836 0120 4342     		neg	r3, r0
 837 0122 5841     		adc	r0, r0, r3
 838 0124 C0B2     		uxtb	r0, r0
 839 0126 311C     		mov	r1, r6
 840 0128 FFF7FEFF 		bl	_test_assert
 841              	.LVL30:
 842 012c 8046     		mov	r8, r0
 843 012e 0028     		cmp	r0, #0
 844 0130 00D0     		beq	.LCB333
 845 0132 7FE7     		b	.L8	@long jump
 846              	.LCB333:
 847              		.loc 1 148 0
 848 0134 0623     		mov	r3, #6
 849              	.LBB73:
 850              	.LBB74:
 851              		.loc 2 157 0
 852 0136 1021     		mov	r1, #16
 853 0138 0822     		mov	r2, #8
 854 013a 201C     		mov	r0, r4
 855              	.LBE74:
 856              	.LBE73:
 857              		.loc 1 148 0
 858 013c 2B60     		str	r3, [r5]
 859              	.LVL31:
 860              	.LBB77:
 861              	.LBB75:
 862              		.loc 2 157 0
 863 013e FFF7FEFF 		bl	chHeapAllocAligned
 864              	.LVL32:
 865              	.LBE75:
 866              	.LBE77:
 867              	.LBB78:
 868              	.LBB79:
 869 0142 1021     		mov	r1, #16
 870              	.LBE79:
 871              	.LBE78:
 872              	.LBB82:
 873              	.LBB76:
 874 0144 8146     		mov	r9, r0
 875              	.LVL33:
ARM GAS  /tmp/ccQr8aQx.s 			page 44


 876              	.LBE76:
 877              	.LBE82:
 878              	.LBB83:
 879              	.LBB80:
 880 0146 0822     		mov	r2, #8
 881 0148 201C     		mov	r0, r4
 882 014a FFF7FEFF 		bl	chHeapAllocAligned
 883              	.LVL34:
 884              	.LBE80:
 885              	.LBE83:
 886              	.LBB84:
 887              	.LBB85:
 888 014e 1021     		mov	r1, #16
 889 0150 0822     		mov	r2, #8
 890              	.LBE85:
 891              	.LBE84:
 892              	.LBB87:
 893              	.LBB81:
 894 0152 8246     		mov	r10, r0
 895              	.LVL35:
 896              	.LBE81:
 897              	.LBE87:
 898              	.LBB88:
 899              	.LBB86:
 900 0154 201C     		mov	r0, r4
 901 0156 FFF7FEFF 		bl	chHeapAllocAligned
 902              	.LVL36:
 903              	.LBE86:
 904              	.LBE88:
 905              		.loc 1 153 0
 906 015a FFF7FEFF 		bl	chHeapFree
 907              	.LVL37:
 908              		.loc 1 154 0
 909 015e 5046     		mov	r0, r10
 910 0160 FFF7FEFF 		bl	chHeapFree
 911              	.LVL38:
 912              		.loc 1 155 0
 913 0164 4846     		mov	r0, r9
 914 0166 FFF7FEFF 		bl	chHeapFree
 915              	.LVL39:
 916              		.loc 1 156 0
 917 016a 4246     		mov	r2, r8
 918 016c 02A9     		add	r1, sp, #8
 919 016e 201C     		mov	r0, r4
 920 0170 FFF7FEFF 		bl	chHeapStatus
 921              	.LVL40:
 922 0174 0138     		sub	r0, r0, #1
 923 0176 4342     		neg	r3, r0
 924 0178 5841     		adc	r0, r0, r3
 925 017a C0B2     		uxtb	r0, r0
 926 017c 311C     		mov	r1, r6
 927 017e FFF7FEFF 		bl	_test_assert
 928              	.LVL41:
 929 0182 8046     		mov	r8, r0
 930 0184 0028     		cmp	r0, #0
 931 0186 00D0     		beq	.LCB412
 932 0188 54E7     		b	.L8	@long jump
ARM GAS  /tmp/ccQr8aQx.s 			page 45


 933              	.LCB412:
 934              		.loc 1 161 0
 935 018a 0723     		mov	r3, #7
 936              	.LBB89:
 937              	.LBB90:
 938              		.loc 2 157 0
 939 018c 1121     		mov	r1, #17
 940 018e 0822     		mov	r2, #8
 941 0190 201C     		mov	r0, r4
 942              	.LBE90:
 943              	.LBE89:
 944              		.loc 1 161 0
 945 0192 2B60     		str	r3, [r5]
 946              	.LVL42:
 947              	.LBB93:
 948              	.LBB91:
 949              		.loc 2 157 0
 950 0194 FFF7FEFF 		bl	chHeapAllocAligned
 951              	.LVL43:
 952              	.LBE91:
 953              	.LBE93:
 954              	.LBB94:
 955              	.LBB95:
 956 0198 1021     		mov	r1, #16
 957              	.LBE95:
 958              	.LBE94:
 959              	.LBB97:
 960              	.LBB92:
 961 019a 8146     		mov	r9, r0
 962              	.LVL44:
 963              	.LBE92:
 964              	.LBE97:
 965              	.LBB98:
 966              	.LBB96:
 967 019c 0822     		mov	r2, #8
 968 019e 201C     		mov	r0, r4
 969 01a0 FFF7FEFF 		bl	chHeapAllocAligned
 970              	.LVL45:
 971 01a4 8346     		mov	fp, r0
 972              	.LBE96:
 973              	.LBE98:
 974              		.loc 1 165 0
 975 01a6 4846     		mov	r0, r9
 976 01a8 FFF7FEFF 		bl	chHeapFree
 977              	.LVL46:
 978              		.loc 1 166 0
 979 01ac 4246     		mov	r2, r8
 980 01ae 02A9     		add	r1, sp, #8
 981 01b0 201C     		mov	r0, r4
 982 01b2 FFF7FEFF 		bl	chHeapStatus
 983              	.LVL47:
 984 01b6 654A     		ldr	r2, .L18+28
 985 01b8 0238     		sub	r0, r0, #2
 986 01ba 4342     		neg	r3, r0
 987 01bc 5841     		adc	r0, r0, r3
 988 01be C0B2     		uxtb	r0, r0
 989 01c0 111C     		mov	r1, r2
ARM GAS  /tmp/ccQr8aQx.s 			page 46


 990 01c2 9146     		mov	r9, r2
 991 01c4 FFF7FEFF 		bl	_test_assert
 992              	.LVL48:
 993 01c8 8046     		mov	r8, r0
 994 01ca 0028     		cmp	r0, #0
 995 01cc 00D0     		beq	.LCB469
 996 01ce 31E7     		b	.L8	@long jump
 997              	.LCB469:
 998              	.LVL49:
 999              	.LBB99:
 1000              	.LBB100:
 1001              		.loc 2 157 0
 1002 01d0 1021     		mov	r1, #16
 1003 01d2 0822     		mov	r2, #8
 1004 01d4 201C     		mov	r0, r4
 1005 01d6 FFF7FEFF 		bl	chHeapAllocAligned
 1006              	.LVL50:
 1007              	.LBE100:
 1008              	.LBE99:
 1009              		.loc 1 170 0
 1010 01da 02A9     		add	r1, sp, #8
 1011              	.LBB102:
 1012              	.LBB101:
 1013              		.loc 2 157 0
 1014 01dc 8246     		mov	r10, r0
 1015              	.LBE101:
 1016              	.LBE102:
 1017              		.loc 1 170 0
 1018 01de 4246     		mov	r2, r8
 1019 01e0 201C     		mov	r0, r4
 1020 01e2 FFF7FEFF 		bl	chHeapStatus
 1021              	.LVL51:
 1022 01e6 0123     		mov	r3, #1
 1023 01e8 9842     		cmp	r0, r3
 1024 01ea 07D0     		beq	.L13
 1025              		.loc 1 170 0 is_stmt 0 discriminator 2
 1026 01ec 0022     		mov	r2, #0
 1027 01ee 201C     		mov	r0, r4
 1028 01f0 02A9     		add	r1, sp, #8
 1029 01f2 FFF7FEFF 		bl	chHeapStatus
 1030              	.LVL52:
 1031 01f6 831E     		sub	r3, r0, #2
 1032 01f8 5A42     		neg	r2, r3
 1033 01fa 5341     		adc	r3, r3, r2
 1034              	.L13:
 1035              		.loc 1 170 0 discriminator 4
 1036 01fc 181C     		mov	r0, r3
 1037 01fe 311C     		mov	r1, r6
 1038 0200 FFF7FEFF 		bl	_test_assert
 1039              	.LVL53:
 1040 0204 8046     		mov	r8, r0
 1041 0206 0028     		cmp	r0, #0
 1042 0208 00D0     		beq	.LCB512
 1043 020a 13E7     		b	.L8	@long jump
 1044              	.LCB512:
 1045              		.loc 1 172 0 is_stmt 1
 1046 020c 5846     		mov	r0, fp
ARM GAS  /tmp/ccQr8aQx.s 			page 47


 1047 020e FFF7FEFF 		bl	chHeapFree
 1048              	.LVL54:
 1049              		.loc 1 173 0
 1050 0212 5046     		mov	r0, r10
 1051 0214 FFF7FEFF 		bl	chHeapFree
 1052              	.LVL55:
 1053              		.loc 1 174 0
 1054 0218 02A9     		add	r1, sp, #8
 1055 021a 4246     		mov	r2, r8
 1056 021c 201C     		mov	r0, r4
 1057 021e FFF7FEFF 		bl	chHeapStatus
 1058              	.LVL56:
 1059 0222 0138     		sub	r0, r0, #1
 1060 0224 4342     		neg	r3, r0
 1061 0226 5841     		adc	r0, r0, r3
 1062 0228 C0B2     		uxtb	r0, r0
 1063 022a 311C     		mov	r1, r6
 1064 022c FFF7FEFF 		bl	_test_assert
 1065              	.LVL57:
 1066 0230 8246     		mov	r10, r0
 1067 0232 0028     		cmp	r0, #0
 1068 0234 00D0     		beq	.LCB532
 1069 0236 FDE6     		b	.L8	@long jump
 1070              	.LCB532:
 1071              		.loc 1 179 0
 1072 0238 0823     		mov	r3, #8
 1073 023a 1A1C     		mov	r2, r3
 1074              	.LBB103:
 1075              	.LBB104:
 1076              		.loc 2 157 0
 1077 023c 1021     		mov	r1, #16
 1078 023e 201C     		mov	r0, r4
 1079              	.LBE104:
 1080              	.LBE103:
 1081              		.loc 1 179 0
 1082 0240 9846     		mov	r8, r3
 1083 0242 2B60     		str	r3, [r5]
 1084              	.LVL58:
 1085              	.LBB107:
 1086              	.LBB105:
 1087              		.loc 2 157 0
 1088 0244 FFF7FEFF 		bl	chHeapAllocAligned
 1089              	.LVL59:
 1090              	.LBE105:
 1091              	.LBE107:
 1092              	.LBB108:
 1093              	.LBB109:
 1094 0248 1021     		mov	r1, #16
 1095 024a 4246     		mov	r2, r8
 1096              	.LBE109:
 1097              	.LBE108:
 1098              	.LBB111:
 1099              	.LBB106:
 1100 024c 8346     		mov	fp, r0
 1101              	.LVL60:
 1102              	.LBE106:
 1103              	.LBE111:
ARM GAS  /tmp/ccQr8aQx.s 			page 48


 1104              	.LBB112:
 1105              	.LBB110:
 1106 024e 201C     		mov	r0, r4
 1107 0250 FFF7FEFF 		bl	chHeapAllocAligned
 1108              	.LVL61:
 1109 0254 0190     		str	r0, [sp, #4]
 1110              	.LBE110:
 1111              	.LBE112:
 1112              		.loc 1 183 0
 1113 0256 5846     		mov	r0, fp
 1114 0258 FFF7FEFF 		bl	chHeapFree
 1115              	.LVL62:
 1116              		.loc 1 184 0
 1117 025c 02A9     		add	r1, sp, #8
 1118 025e 5246     		mov	r2, r10
 1119 0260 201C     		mov	r0, r4
 1120 0262 FFF7FEFF 		bl	chHeapStatus
 1121              	.LVL63:
 1122 0266 0238     		sub	r0, r0, #2
 1123 0268 4342     		neg	r3, r0
 1124 026a 5841     		adc	r0, r0, r3
 1125 026c 4946     		mov	r1, r9
 1126 026e C0B2     		uxtb	r0, r0
 1127 0270 FFF7FEFF 		bl	_test_assert
 1128              	.LVL64:
 1129 0274 8146     		mov	r9, r0
 1130 0276 0028     		cmp	r0, #0
 1131 0278 00D0     		beq	.LCB588
 1132 027a DBE6     		b	.L8	@long jump
 1133              	.LCB588:
 1134              	.LVL65:
 1135              	.LBB113:
 1136              	.LBB114:
 1137              		.loc 2 157 0
 1138 027c 2021     		mov	r1, #32
 1139 027e 4246     		mov	r2, r8
 1140 0280 201C     		mov	r0, r4
 1141 0282 FFF7FEFF 		bl	chHeapAllocAligned
 1142              	.LVL66:
 1143              	.LBE114:
 1144              	.LBE113:
 1145              		.loc 1 186 0
 1146 0286 FFF7FEFF 		bl	chHeapFree
 1147              	.LVL67:
 1148              		.loc 1 187 0
 1149 028a 0198     		ldr	r0, [sp, #4]
 1150 028c FFF7FEFF 		bl	chHeapFree
 1151              	.LVL68:
 1152              		.loc 1 188 0
 1153 0290 4A46     		mov	r2, r9
 1154 0292 02A9     		add	r1, sp, #8
 1155 0294 201C     		mov	r0, r4
 1156 0296 FFF7FEFF 		bl	chHeapStatus
 1157              	.LVL69:
 1158 029a 0138     		sub	r0, r0, #1
 1159 029c 4342     		neg	r3, r0
 1160 029e 5841     		adc	r0, r0, r3
ARM GAS  /tmp/ccQr8aQx.s 			page 49


 1161 02a0 C0B2     		uxtb	r0, r0
 1162 02a2 311C     		mov	r1, r6
 1163 02a4 FFF7FEFF 		bl	_test_assert
 1164              	.LVL70:
 1165 02a8 021E     		sub	r2, r0, #0
 1166 02aa 00D0     		beq	.LCB618
 1167 02ac C2E6     		b	.L8	@long jump
 1168              	.LCB618:
 1169              		.loc 1 192 0
 1170 02ae 0923     		mov	r3, #9
 1171              		.loc 1 194 0
 1172 02b0 02A9     		add	r1, sp, #8
 1173 02b2 201C     		mov	r0, r4
 1174              		.loc 1 192 0
 1175 02b4 2B60     		str	r3, [r5]
 1176              		.loc 1 194 0
 1177 02b6 FFF7FEFF 		bl	chHeapStatus
 1178              	.LVL71:
 1179              	.LBB115:
 1180              	.LBB116:
 1181              		.loc 2 157 0
 1182 02ba 4246     		mov	r2, r8
 1183 02bc 0299     		ldr	r1, [sp, #8]
 1184 02be 201C     		mov	r0, r4
 1185 02c0 FFF7FEFF 		bl	chHeapAllocAligned
 1186              	.LVL72:
 1187 02c4 8046     		mov	r8, r0
 1188              	.LBE116:
 1189              	.LBE115:
 1190              		.loc 1 196 0
 1191 02c6 431E     		sub	r3, r0, #1
 1192 02c8 9841     		sbc	r0, r0, r3
 1193 02ca C0B2     		uxtb	r0, r0
 1194 02cc 391C     		mov	r1, r7
 1195 02ce FFF7FEFF 		bl	_test_assert
 1196              	.LVL73:
 1197 02d2 021E     		sub	r2, r0, #0
 1198 02d4 00D0     		beq	.LCB645
 1199 02d6 ADE6     		b	.L8	@long jump
 1200              	.LCB645:
 1201              		.loc 1 197 0
 1202 02d8 111C     		mov	r1, r2
 1203 02da 201C     		mov	r0, r4
 1204 02dc FFF7FEFF 		bl	chHeapStatus
 1205              	.LVL74:
 1206 02e0 4342     		neg	r3, r0
 1207 02e2 5841     		adc	r0, r0, r3
 1208 02e4 C0B2     		uxtb	r0, r0
 1209 02e6 1A49     		ldr	r1, .L18+32
 1210 02e8 FFF7FEFF 		bl	_test_assert
 1211              	.LVL75:
 1212 02ec 071E     		sub	r7, r0, #0
 1213 02ee 00D0     		beq	.LCB657
 1214 02f0 A0E6     		b	.L8	@long jump
 1215              	.LCB657:
 1216              		.loc 1 198 0
 1217 02f2 4046     		mov	r0, r8
ARM GAS  /tmp/ccQr8aQx.s 			page 50


 1218 02f4 FFF7FEFF 		bl	chHeapFree
 1219              	.LVL76:
 1220              		.loc 1 203 0
 1221 02f8 0A23     		mov	r3, #10
 1222              		.loc 1 205 0
 1223 02fa 02A9     		add	r1, sp, #8
 1224 02fc 201C     		mov	r0, r4
 1225 02fe 3A1C     		mov	r2, r7
 1226              		.loc 1 203 0
 1227 0300 2B60     		str	r3, [r5]
 1228              		.loc 1 205 0
 1229 0302 FFF7FEFF 		bl	chHeapStatus
 1230              	.LVL77:
 1231 0306 0138     		sub	r0, r0, #1
 1232 0308 4342     		neg	r3, r0
 1233 030a 5841     		adc	r0, r0, r3
 1234 030c C0B2     		uxtb	r0, r0
 1235 030e 311C     		mov	r1, r6
 1236 0310 FFF7FEFF 		bl	_test_assert
 1237              	.LVL78:
 1238 0314 0028     		cmp	r0, #0
 1239 0316 00D0     		beq	.LCB675
 1240 0318 8CE6     		b	.L8	@long jump
 1241              	.LCB675:
 1242              		.loc 1 206 0
 1243 031a 029B     		ldr	r3, [sp, #8]
 1244 031c 039A     		ldr	r2, [sp, #12]
 1245 031e 0D49     		ldr	r1, .L18+36
 1246 0320 981A     		sub	r0, r3, r2
 1247 0322 4342     		neg	r3, r0
 1248 0324 5841     		adc	r0, r0, r3
 1249 0326 C0B2     		uxtb	r0, r0
 1250 0328 FFF7FEFF 		bl	_test_assert
 1251              	.LVL79:
 1252 032c 82E6     		b	.L8
 1253              	.L19:
 1254 032e C046     		.align	2
 1255              	.L18:
 1256 0330 00000000 		.word	.LANCHOR0
 1257 0334 00000000 		.word	test_step
 1258 0338 2C000000 		.word	.LC8
 1259 033c 14000000 		.word	.LC4
 1260 0340 00000000 		.word	.LC2
 1261 0344 3C000000 		.word	.LC12
 1262 0348 50000000 		.word	.LC14
 1263 034c 68000000 		.word	.LC16
 1264 0350 78000000 		.word	.LC18
 1265 0354 84000000 		.word	.LC20
 1266              		.cfi_endproc
 1267              	.LFE99:
 1268              		.size	test_006_001_execute, .-test_006_001_execute
 1269 0358 C046C046 		.section	.text.test_006_001_setup,"ax",%progbits
 1269      C046C046 
 1270              		.align	2
 1271              		.p2align 4,,15
 1272              		.code	16
 1273              		.thumb_func
ARM GAS  /tmp/ccQr8aQx.s 			page 51


 1274              		.type	test_006_001_setup, %function
 1275              	test_006_001_setup:
 1276              	.LFB98:
 1277              		.loc 1 91 0
 1278              		.cfi_startproc
 1279 0000 08B5     		push	{r3, lr}
 1280              		.cfi_def_cfa_offset 8
 1281              		.cfi_offset 3, -8
 1282              		.cfi_offset 14, -4
 1283              		.loc 1 92 0
 1284 0002 0348     		ldr	r0, .L21
 1285 0004 0349     		ldr	r1, .L21+4
 1286 0006 8022     		mov	r2, #128
 1287 0008 FFF7FEFF 		bl	chHeapObjectInit
 1288              	.LVL80:
 1289              		.loc 1 93 0
 1290              		@ sp needed
 1291 000c 08BD     		pop	{r3, pc}
 1292              	.L22:
 1293 000e C046     		.align	2
 1294              	.L21:
 1295 0010 00000000 		.word	.LANCHOR0
 1296 0014 00000000 		.word	.LANCHOR1
 1297              		.cfi_endproc
 1298              	.LFE98:
 1299              		.size	test_006_001_setup, .-test_006_001_setup
 1300              		.global	test_sequence_006
 1301 0018 C046C046 		.section	.bss.myheap,"aw",%nobits
 1301      C046C046 
 1302              		.align	3
 1303              		.set	.LANCHOR1,. + 0
 1304              		.type	myheap, %object
 1305              		.size	myheap, 128
 1306              	myheap:
 1307 0000 00000000 		.space	128
 1307      00000000 
 1307      00000000 
 1307      00000000 
 1307      00000000 
 1308              		.section	.rodata.test_sequence_006,"a",%progbits
 1309              		.align	2
 1310              		.type	test_sequence_006, %object
 1311              		.size	test_sequence_006, 12
 1312              	test_sequence_006:
 1313 0000 00000000 		.word	test_006_001
 1314 0004 00000000 		.word	test_006_002
 1315 0008 00000000 		.word	0
 1316              		.section	.rodata.str1.4,"aMS",%progbits,1
 1317              		.align	2
 1318              	.LC2:
 1319 0000 616C6C6F 		.ascii	"allocation failed\000"
 1319      63617469 
 1319      6F6E2066 
 1319      61696C65 
 1319      6400
 1320 0012 0000     		.space	2
 1321              	.LC4:
ARM GAS  /tmp/ccQr8aQx.s 			page 52


 1322 0014 616C6C6F 		.ascii	"allocation not failed\000"
 1322      63617469 
 1322      6F6E206E 
 1322      6F742066 
 1322      61696C65 
 1323 002a 0000     		.space	2
 1324              	.LC8:
 1325 002c 68656170 		.ascii	"heap fragmented\000"
 1325      20667261 
 1325      676D656E 
 1325      74656400 
 1326              	.LC12:
 1327 003c 6D697373 		.ascii	"missing free block\000"
 1327      696E6720 
 1327      66726565 
 1327      20626C6F 
 1327      636B00
 1328 004f 00       		.space	1
 1329              	.LC14:
 1330 0050 756E6578 		.ascii	"unexpected heap state\000"
 1330      70656374 
 1330      65642068 
 1330      65617020 
 1330      73746174 
 1331 0066 0000     		.space	2
 1332              	.LC16:
 1333 0068 696E7661 		.ascii	"invalid state\000"
 1333      6C696420 
 1333      73746174 
 1333      6500
 1334 0076 0000     		.space	2
 1335              	.LC18:
 1336 0078 6E6F7420 		.ascii	"not empty\000"
 1336      656D7074 
 1336      7900
 1337 0082 0000     		.space	2
 1338              	.LC20:
 1339 0084 73697A65 		.ascii	"size changed\000"
 1339      20636861 
 1339      6E676564 
 1339      00
 1340 0091 000000   		.space	3
 1341              	.LC24:
 1342 0094 44656661 		.ascii	"Default Heap\000"
 1342      756C7420 
 1342      48656170 
 1342      00
 1343 00a1 000000   		.space	3
 1344              	.LC25:
 1345 00a4 416C6C6F 		.ascii	"Allocation and fragmentation\000"
 1345      63617469 
 1345      6F6E2061 
 1345      6E642066 
 1345      7261676D 
 1346 00c1 000000   		.section	.bss.test_heap,"aw",%nobits
 1347              		.align	3
 1348              		.set	.LANCHOR0,. + 0
ARM GAS  /tmp/ccQr8aQx.s 			page 53


 1349              		.type	test_heap, %object
 1350              		.size	test_heap, 24
 1351              	test_heap:
 1352 0000 00000000 		.space	24
 1352      00000000 
 1352      00000000 
 1352      00000000 
 1352      00000000 
 1353              		.section	.rodata.test_006_001,"a",%progbits
 1354              		.align	2
 1355              		.type	test_006_001, %object
 1356              		.size	test_006_001, 16
 1357              	test_006_001:
 1358 0000 A4000000 		.word	.LC25
 1359 0004 00000000 		.word	test_006_001_setup
 1360 0008 00000000 		.word	0
 1361 000c 00000000 		.word	test_006_001_execute
 1362              		.section	.rodata.test_006_002,"a",%progbits
 1363              		.align	2
 1364              		.type	test_006_002, %object
 1365              		.size	test_006_002, 16
 1366              	test_006_002:
 1367 0000 94000000 		.word	.LC24
 1368 0004 00000000 		.word	0
 1369 0008 00000000 		.word	0
 1370 000c 00000000 		.word	test_006_002_execute
 1371              		.text
 1372              	.Letext0:
 1373              		.file 3 "/usr/lib/gcc/arm-none-eabi/4.8.2/include/stddef.h"
 1374              		.file 4 "/usr/include/newlib/machine/_default_types.h"
 1375              		.file 5 "/usr/include/newlib/stdint.h"
 1376              		.file 6 "../../../os/common/ports/ARMCMx/compilers/GCC/chtypes.h"
 1377              		.file 7 "../../../os/common/ports/ARMCMx/chcore.h"
 1378              		.file 8 "../../../os/nil/include/ch.h"
 1379              		.file 9 "../../../os/common/oslib/include/chmemcore.h"
 1380              		.file 10 "../../../test/lib/ch_test.h"