ARM GAS  /tmp/ccsypGf3.s 			page 1


   1              		.cpu cortex-m0
   2              		.fpu softvfp
   3              		.eabi_attribute 20, 1
   4              		.eabi_attribute 21, 1
   5              		.eabi_attribute 23, 3
   6              		.eabi_attribute 24, 1
   7              		.eabi_attribute 25, 1
   8              		.eabi_attribute 26, 1
   9              		.eabi_attribute 30, 2
  10              		.eabi_attribute 34, 0
  11              		.eabi_attribute 18, 4
  12              		.code	16
  13              		.file	"test_sequence_001.c"
  14              		.text
  15              	.Ltext0:
  16              		.section	.gnu.lto_.jmpfuncs.39d7050a2e494c8c,"",%progbits
  17 0000 789C6362 		.ascii	"x\234cb`b\300\006.\000\261\010\02033\000\02502E0f22"
  17      6062C006 
  17      2E00B108 
  17      10333300 
  17      15303245 
  18 0018 A480B940 		.ascii	"\244\200\271@\201j\206_\0153\032\0042\031\031\345\030"
  18      816A865F 
  18      0D331A04 
  18      321919E5 
  18      18
  19 0029 18E736CC 		.ascii	"\030\3476\314p\310d\204\230\002U\370\202\235\260J\202"
  19      70C86484 
  19      980255F8 
  19      829DB04A 
  19      82
  20 003a 2A9889B5 		.ascii	"*\230\211\265\215Xg1\003\0252\010\347\227\226(\344\247"
  20      8D586731 
  20      03153208 
  20      E7979628 
  20      E4A7
  21 004c 299464E6 		.ascii	")\224d\346\246*\224g\346\245\344\2273\000\000RC+P"
  21      A62A9467 
  21      E6A5E497 
  21      33000052 
  21      432B50
  22              		.text
  23              		.section	.gnu.lto_.inline.39d7050a2e494c8c,"",%progbits
  24 0000 789C6362 		.ascii	"x\234cb`b\300\006\246@if\006\006\016UF\006&\256\256"
  24      6062C006 
  24      A6406966 
  24      06060E55 
  24      460626AE 
  25 0015 152C0C6C 		.ascii	"\025,\014l\013\344\301\252\231\030\324\015\201b\012"
  25      0BE4C1AA 
  25      9918D40D 
  25      81620A
  26 0024 57BA1911 		.ascii	"W\272\031\021b\334\014\014\214\014\254|@-\023\374&\370"
  26      62DC0C0C 
  26      8C0CAC7C 
  26      402D13FC 
  26      26F8
ARM GAS  /tmp/ccsypGf3.s 			page 2


  27 0036 61E74FF0 		.ascii	"a\347O\360c\341\205\01103\310\351\003\015\221\230\323"
  27      63E18509 
  27      3033C8E9 
  27      030D9198 
  27      D3
  28 0047 84308491 		.ascii	"\2040\204\221\013H\0200\203\201\001\000xR\022\017"
  28      0B481030 
  28      83810100 
  28      7852120F 
  29              		.text
  30              		.section	.gnu.lto_.pureconst.39d7050a2e494c8c,"",%progbits
  31 0000 789C6362 		.ascii	"x\234cb`b`g\200\000f\006)&)f)\000\001\321\000b"
  31      60626067 
  31      80006606 
  31      29262966 
  31      290001D1 
  32              		.text
  33              		.section	.gnu.lto_test_001_001_execute.39d7050a2e494c8c,"",%progbits
  34 0000 789C9D92 		.ascii	"x\234\235\222Mh\023A\024\307\337\233\331\315\326\342"
  34      4D681341 
  34      14C7DF9B 
  34      D9CDD6E2 
  35 0010 A1DEC48B 		.ascii	"\241\336\304\213\241=\012\2316\275\366R\364\"4\027M"
  35      A13D0A99 
  35      36BDF652 
  35      F4223417 
  35      4D
  36 0021 404F215D 		.ascii	"@O!]\227f!\311\332lZ\004\205NJ\004A\261A\274\250\010"
  36      976621C9 
  36      DA6C5A04 
  36      854E4A04 
  36      41B141BC 
  37 0037 F65094E2 		.ascii	"\366P\224\342\007\366\324C\017U\374D\032\360&\346\222"
  37      07F6D443 
  37      0F55FC44 
  37      1AF026E6 
  37      92
  38 0048 B6945EDB 		.ascii	"\266\224^\333\203\227\"\304\367v\322\245\366\340\301"
  38      839722C4 
  38      F776D2A5 
  38      F6E0C1
  39 0057 6177DE7B 		.ascii	"aw\336{3\357\375\366\377fV\200\200\343c\214\336\263"
  39      33EFFDF6 
  39      FF665680 
  39      80E3638C 
  39      DEB3
  40 0069 B4FC942C 		.ascii	"\264\374\224,&\000E\263\005P\357\023(\215#\205}\357"
  40      260045B3 
  40      0550EF13 
  40      288D2385 
  40      7DEF
  41 007b 3380EEB7 		.ascii	"3\200\356\267\032\016\350\223\266Y\037\267\020\331\002"
  41      1A0EE893 
  41      B6591FB7 
  41      10D902
  42 008a C29C90B6 		.ascii	"\302\234\220\266\205sW1\302\275\021\353\235n\367\365"
  42      85735731 
ARM GAS  /tmp/ccsypGf3.s 			page 3


  42      C2BD11EB 
  42      9D6EF7F5 
  43 009a C1E6D602 		.ascii	"\301\346\326\002\236\352K\200\217\340\360D\303\206\206"
  43      9EEA4B80 
  43      8FE0F044 
  43      C38686
  44 00a9 D6CD2480 		.ascii	"\326\315$\200\033\205Y\232\011\231CAFn\300\374\352\352"
  44      1B85599A 
  44      09994341 
  44      466EC0FC 
  44      EAEA
  45 00bb D6E9022E 		.ascii	"\326\351\002.\242\015O\340q]\353\001\037\361&\034\350"
  45      A20D4FE0 
  45      715DEB01 
  45      1FF1261C 
  45      E8
  46 00cc 3BEC8972 		.ascii	";\354\211rTt\005\311\205C\017ym\003\336\377|\331n\211"
  46      547405C9 
  46      85430F79 
  46      6D03DEFF 
  46      7CD96E89 
  47 00e0 186F9CF5 		.ascii	"\030o\234\365\235\373m\031\007\337>\356\307Ar\020\026"
  47      9DFB6D19 
  47      07DF3EEE 
  47      C7417210 
  47      16
  48 00f1 B57EA057 		.ascii	"\265~\240W\264>\361L\377\356v%\351\023\360\210h\244"
  48      B43EF14C 
  48      FFEE7625 
  48      E913F088 
  48      68A4
  49 0103 8CB93219 		.ascii	"\214\2712\031\031\313:~XF\036p\013\234\034)\231\302"
  49      19CB3A7E 
  49      58461E70 
  49      0B9C1C29 
  49      99C2
  50 0115 C43958D6 		.ascii	"\3049X\326\215z\247\375\353\341\031\037mV\337d\315\011"
  50      8D7AA7FD 
  50      EBE1191F 
  50      6D56DF64 
  50      CD09
  51 0127 86389A86 		.ascii	"\2068\232\206\025\361\234\2101\211\021h\311\200\276"
  51      15F19C88 
  51      31891168 
  51      C980BE
  52 0136 C2FCDECA 		.ascii	"\302\374\336\312\333[\005|Nq\001_\340`\374\261\034J"
  52      DB5B057C 
  52      4E71015F 
  52      E060FCB1 
  52      1C4A
  53 0148 A03396DC 		.ascii	"\2403\226\334\340Z\273\225\376g\203w?\275\263\031\313"
  53      E05ABB95 
  53      FE678377 
  53      3FBDB319 
  53      CB
  54 0159 98BFC439 		.ascii	"\230\277\3049\377#\356\225\021\367\005>\354n\336\336"
  54      FF23EE95 
ARM GAS  /tmp/ccsypGf3.s 			page 4


  54      11F7053E 
  54      EC6EDEDE 
  55 0169 FE81864B 		.ascii	"\376\201\206K\235N\365\362\300\334\240\015\364o`\016"
  55      9D4EF5F2 
  55      C0DCA00D 
  55      F46F600E 
  56 0179 2DBEC2EF 		.ascii	"-\276\302\357P\357,\014\305G\324KA\332b)\351TJ\231\247"
  56      50EF2C0C 
  56      C547D44B 
  56      41DA6229 
  56      E9544A99 
  57 018e E6853555 		.ascii	"\346\2055U\361K*\014f\252\256gb\236\362\2417=\343U\\"
  57      F14B2A0C 
  57      66AAAE67 
  57      629EF2A1 
  57      373DE355 
  58 01a3 2F3F3C3C 		.ascii	"/?<<\222ra4.\011BU,\224\324\365\240Z\013\325\345lf4"
  58      92726134 
  58      2E094255 
  58      2C94D4F5 
  58      A05A0BD5 
  59 01bb AD26262E 		.ascii	"\255&&.\250\354\305\314\354\010\357\344\251\270T\272"
  59      A8ECC5CC 
  59      EC08EFE4 
  59      A9B854BA 
  60 01cb 962A823A 		.ascii	"\226*\202:Z\343\006\345rP\351\225\215_\312\234\317\334"
  60      5AE306E5 
  60      7250E995 
  60      8D5FCA9C 
  60      CFDC
  61 01dd 506ED10D 		.ascii	"Pn\321\015\252^\276\346\227\275*\345[\354\374\001>\330"
  61      AA5EBEE6 
  61      97BD2AE5 
  61      5BECFC01 
  61      3ED8
  62 01ef C286     		.ascii	"\302\206"
  63              		.text
  64              		.section	.gnu.lto_test_001_002_execute.part.0.39d7050a2e494c8c,"",%progbits
  65 0000 789CDD95 		.ascii	"x\234\335\225Mh\023Q\020\307g\366+_\365\003\254\250"
  65      4D681351 
  65      10C767F6 
  65      2B5FF503 
  65      ACA8
  66 0012 97127A55 		.ascii	"\227\022zU\262\266\305\273\242\227BsPS\324S\210\333"
  66      B2B6C5BB 
  66      A2974273 
  66      5053D453 
  66      88DB
  67 0024 D82E2459 		.ascii	"\330.$YM\322V\360\320\2276\207\202 A,\324\212\242\025"
  67      4DD256F0 
  67      D0973687 
  67      8220412C 
  67      D48AA215 
  68 0038 A554D1B6 		.ascii	"\245T\321\266\027KO\245\227*\332\026\005=(\224\\\012"
  68      174B4FA5 
  68      972ADA16 
  68      053D2894 
ARM GAS  /tmp/ccsypGf3.s 			page 5


  68      5C0A
  69 004a 1504C10F 		.ascii	"\025\004\301\017\260*\3047o\263\371()\3758\272$\357"
  69      B02AC437 
  69      6FB3F928 
  69      29FD38BA 
  69      24EF
  70 005c BD79B3F3 		.ascii	"\275y\263\363\237y\363\333M$\220`\375\325\312\277=\032"
  70      9F79F3DB 
  70      4D249060 
  70      FDD5CABF 
  70      3D1A
  71 006e C0249FD1 		.ascii	"\300$\237\321\005\250\345\026\371BCI\314\222\244~\320"
  71      05A8E516 
  71      F9424349 
  71      CC92A47E 
  71      D0
  72 007f 8179E599 		.ascii	"\201y\345\231\006`ur\321R\204\245\240J\367d\334*\"-"
  72      06607572 
  72      D15284A5 
  72      A04AF764 
  72      DC2A222D 
  73 0093 00A14F93 		.ascii	"\000\241O\223dE\305\276\013H\322Z#<`l$\277\362}\025"
  73      6445C5BE 
  73      0B48D25A 
  73      233C606C 
  73      24BFF27D 
  74 00a8 6FDF9ACD 		.ascii	"o\337\232\315\336g\177\013\005D\223\234\006\302y\276"
  74      DE677F0B 
  74      0544939C 
  74      06C279BE 
  75 00b8 42BF9824 		.ascii	"B\277\230$\245\272(;\220M\2151\217\010\222\377\207\230"
  75      A5BA283B 
  75      904D8D31 
  75      8F0892FF 
  75      8798
  76 00ca 9BB313F3 		.ascii	"\233\263\023\363u\271\314 +\024\372x\214\004\307p\223"
  76      75B9CC20 
  76      2B14FA78 
  76      8C04C770 
  76      93
  77 00db B0E712CB 		.ascii	"\260\347\022\313\027\012kS\236\003\010\"\302DY\246A"
  77      170A6B53 
  77      9E030822 
  77      C24459A6 
  77      41
  78 00ec E183A2D2 		.ascii	"\341\203\242\322\236F\246\213\0067\355yh\317K\246\217"
  78      9E46A68B 
  78      0637ED79 
  78      68CF4BA6 
  78      8F
  79 00fd 06AEA142 		.ascii	"\006\256\241B\226\261\234?\202\217\261\321\256\223_"
  79      96B19C3F 
  79      828FB1D1 
  79      AE935F
  80 010c 213E12B2 		.ascii	"!>\022\262\020j4\313\355(\211y\001\372\247\247\037\036"
  80      106A34CB 
  80      ED288979 
ARM GAS  /tmp/ccsypGf3.s 			page 6


  80      01FAA7A7 
  80      1F1E
  81 011e 8AE018AA 		.ascii	"\212\340\030\252p\007F2\214\3555Q\275\006\277\331 \255"
  81      70074632 
  81      8CED3551 
  81      BD06BFD9 
  81      20AD
  82 0130 B4B808A7 		.ascii	"\264\270\010\247Z5pV*\245Y\200\271\217o\226\027\245"
  82      5A357056 
  82      2AA55980 
  82      B98F6F96 
  82      17A5
  83 0142 623A27EF 		.ascii	"b:'\357\354\332\215Or\311x=?\312\015[\335@:\275x\036"
  83      ECDA8D4F 
  83      72C9783D 
  83      3FCA0D5B 
  83      DD403ABD 
  84 0158 3B110FC3 		.ascii	";\021\017\3038\313f\362?~\326\233\350\242\3049J\347"
  84      38CB66F2 
  84      3F7ED69B 
  84      E8A2C439 
  84      4AE7
  85 016a 26790FE3 		.ascii	"&y\017\343\227\"2yD\316\213TC\004\237r\021~\275\202"
  85      97223279 
  85      44CE8B54 
  85      43049F72 
  85      117EBD82 
  86 017e FE896FA7 		.ascii	"\376\211o\247mM\347\220\000K\220\315\017?B{\033\240"
  86      6D4DE790 
  86      004B90CD 
  86      0F3F427B 
  86      1BA0
  87 0190 7400AF21 		.ascii	"t\000\257!\232b\027.w\360\036\371\250\366\201\301\201"
  87      9A62172E 
  87      77F01EF9 
  87      A8F681C1 
  87      81
  88 01a1 957AFBE6 		.ascii	"\225z\373\346N\224x=E\267\355\223\035\217\354x\242\""
  88      4E94783D 
  88      45B7ED93 
  88      1D8FEC78 
  88      A222
  89 01b3 85E6EC2B 		.ascii	"\205\346\354+%\375:\003m\206BF\246\375\203&\356j\200"
  89      25FD3A03 
  89      6D864246 
  89      A6FD8326 
  89      EE6A80
  90 01c6 7B78970D 		.ascii	"{x\227\015\0377qw\361\370<\363\036\200\227\220\375\202"
  90      1F377177 
  90      F1F83CF3 
  90      1E809790 
  90      FD82
  91 01d8 251592AE 		.ascii	"%\025\222\256z\002\332y\2613\015\202\312\360\370v\251"
  91      7A02DA79 
  91      B1330D82 
  91      CAF0F876 
  91      A9
ARM GAS  /tmp/ccsypGf3.s 			page 7


  92 01e9 285BA572 		.ascii	"([\245r\375\375\006T\324\035PyQ\2462\332^\213\312\223"
  92      FDFD0654 
  92      D41D5079 
  92      51A632DA 
  92      5E8BCA93 
  93 01fd 4DA9ACBA 		.ascii	"M\251\254\272*\260L\356w\332\243\361\202\034\377:.."
  93      2AB04CEE 
  93      77DAA3F1 
  93      821CFF3A 
  93      2E2E
  94 020f C7F5D955 		.ascii	"\307\365\331U\015\306]\013\014\027rm\013\214\273\006"
  94      0DC65D0B 
  94      0C17726D 
  94      0B8CBB06 
  95 021f 1805BEFA 		.ascii	"\030\005\276\372\004\230_\317\266\013F\335\362\353\262"
  95      04985FCF 
  95      B60B46DD 
  95      F2EBB2
  96 022e BC0118CF 		.ascii	"\274\001\030\317\016\300\314\225\301\274;\267\036\214"
  96      0EC0CC95 
  96      C1BC3BB7 
  96      1E8C
  97 023c 68F59FA1 		.ascii	"h\365\237\241#\316\211\275<G\351\025X\002\245\0261\265"
  97      23CE89BD 
  97      3C47E915 
  97      5802A516 
  97      31B5
  98 024e D84E6F19 		.ascii	"\330No\031VaHu\024|\216B\325\253R\241P\001\204g\363"
  98      56614875 
  98      147C8E42 
  98      D5AB52A1 
  98      50018467 
  99 0263 6D06C4EE 		.ascii	"m\006\304\356\272*~\245\336\362\377\2342\213\020\357"
  99      BA2A7EA5 
  99      DEF2FF9C 
  99      328B10EF 
 100 0273 0CDFA5D6 		.ascii	"\014\337\245\3264\007\002\272\375IGSi=a\306\364\224"
 100      340702BA 
 100      FD494753 
 100      693D61C6 
 100      F494
 101 0285 D59D34A2 		.ascii	"\325\2354\242\266MC8\025\275\322\035M\030\321\360\321"
 101      B64D4338 
 101      15BDD21D 
 101      4D18D1F0 
 101      D1
 102 0296 A34D0103 		.ascii	"\243M\001\003\224\264\031\217\266\224\342\254\224\336"
 102      94B4198F 
 102      B694E2AC 
 102      94DE
 103 02a4 1589E997 		.ascii	"\025\211\351\227\255d:\245\237\015\005[\232\365\266"
 103      AD643AA5 
 103      9F0D055B 
 103      9AF5B6
 104 02b3 B6537AA8 		.ascii	"\266Sz\2505\330\323D\2360W\210\305:\002]\240W\306\030"
 104      35D8D344 
 104      9E305788 
ARM GAS  /tmp/ccsypGf3.s 			page 8


 104      C53A025D 
 104      A057C618 
 105 02c7 563C6E25 		.ascii	"V<n%\212a'\316\004O\006\257\352F\227a%\243a\322O\362"
 105      8A6127CE 
 105      044F06AF 
 105      EA469761 
 105      25A361D2 
 106 02dd FBF759DD 		.ascii	"\373\367Y\335i\277u\311O\266\277\327LtX\275\360\017"
 106      69BF75C9 
 106      4FB6BFD7 
 106      4C7458BD 
 106      F00F
 107 02ef F43EBD14 		.ascii	"\364>\275\024"
 108              		.text
 109              		.section	.gnu.lto_test_001_002_execute.39d7050a2e494c8c,"",%progbits
 110 0000 789C9D54 		.ascii	"x\234\235TKHTa\024>\347\277\017G\235q\214\224l#\203"
 110      4B485461 
 110      143EE7BF 
 110      0F479D71 
 110      8C946C23 
 111 0015 DB60AE0F 		.ascii	"\333`\256\017Z\265\310\250M\340lj\204Z\015\323\235\233"
 111      5AB5C8A8 
 111      4DE06C6A 
 111      845A0DD3 
 111      9D9B
 112 0027 5E98995B 		.ascii	"^\230\231[\363\310\240\205\277:\220+\033ZE\221d-\204"
 112      F3C8A085 
 112      BF3A902B 
 112      1B5A4591 
 112      642D84
 113 003a 904A5722 		.ascii	"\220JW\"-\244ME\251\264iQ\020B\233\026\201\020J\024"
 113      2DA44D45 
 113      A9B46951 
 113      10429B16 
 113      81104A14 
 114 004e E574CEBD 		.ascii	"\345t\316\275sG\261)\262\237\231\363\377\347\365\235"
 114      7347B129 
 114      B29F99F3 
 114      FFE7F59D 
 115 005e C7C78C00 		.ascii	"\307\307\214\000\001{O?}[T\200y\272Q\007\024\345U\200"
 115      017B4F3F 
 115      7D5B5480 
 115      79BA5107 
 115      14E55580 
 116 0072 B18010DA 		.ascii	"\261\200\020\332[\003d\223\262\324\0112\250T5\325\325"
 116      5B036493 
 116      B2D40932 
 116      A85435D5 
 116      D5
 117 0083 54D43808 		.ascii	"T\3248\0105D\276\001aT(\252\206\243\347\321\205|,\226"
 117      3544BE01 
 117      615428AA 
 117      86A3E7D1 
 117      857C2C96 
 118 0097 D72B9547 		.ascii	"\327+\225G\323\327\347\236\342\2348\244\201\215\240"
 118      D3D7E79E 
 118      E29C38A4 
ARM GAS  /tmp/ccsypGf3.s 			page 9


 118      818DA0
 119 00a6 B30890C0 		.ascii	"\263\010\220\300 \277B,\302\254\266\221\020\355,(S\203"
 119      20BF422C 
 119      C2ACB691 
 119      10ED2C28 
 119      5383
 120 00b8 9294E548 		.ascii	"\222\224\345H\027\314Hysy\376\371\324ayo\274,\267+\025"
 120      17CC4879 
 120      7379FEF9 
 120      D461796F 
 120      BC2CB72B 
 121 00cd A4000147 		.ascii	"\244\000\001G\021L\204s\244(\021\367R\325\275\363\230"
 121      114C8473 
 121      A42811F7 
 121      52D5BDF3 
 121      98
 122 00de 6E0F7192 		.ascii	"n\017q\222\334\333 \301\322\255\254\300\370\342\342"
 122      DCDB20C1 
 122      D2ADACC0 
 122      F8E2E2
 123 00ed D78E24CE 		.ascii	"\327\216$\316\240\006w\340\366\230\224\2556j\327\340"
 123      A00677E0 
 123      F69894AD 
 123      366AD7E0 
 124 00fd BB9CE497 		.ascii	"\273\234\344\227\236q\323\030R\007\377\245\261m\005"
 124      9E71D318 
 124      5207FFA5 
 124      B16D05
 125 010c 9EBD7BFD 		.ascii	"\236\275{\375aUT[\363{\\\3766\365^\251)\2576fH\361\320"
 125      6155545B 
 125      F37B5CFE 
 125      36F55EA9 
 125      29AF3666 
 126 0123 4DE426DD 		.ascii	"M\344&\335E\017a\333\021x(Kc\353\233[m66p\3412\227\013"
 126      450F61DB 
 126      1178284B 
 126      63EB9B5B 
 126      6D363670 
 127 013b 307CA3A4 		.ascii	"0|\243\244\243\272\225\032\335\232\027\270^\022g\011"
 127      A3BA951A 
 127      DD9A17B8 
 127      5E126709 
 128 014b 84CE4B18 		.ascii	"\204\316K\030\177\362\345\230\207\231\304\373\330\345"
 128      7FF2E598 
 128      8799C4FB 
 128      D8E5
 129 0159 C6AC4169 		.ascii	"\306\254Ai\375\323\307\006\317\014P\033\240\311D\245"
 129      FDD3C706 
 129      CF0C501B 
 129      A0C944A5 
 130 0169 D6B848D1 		.ascii	"\326\270H\321>\233\271\367\211\311\211\331\033\232\027"
 130      3E9BB9F7 
 130      89C989D9 
 130      1B9A17
 131 0178 3D841A35 		.ascii	"=\204\0325\304~H\201\347T|\217\356{,\267\206\356\333"
 131      C47E4881 
 131      E7547C8F 
ARM GAS  /tmp/ccsypGf3.s 			page 10


 131      EE7B2CB7 
 131      86EEDB
 132 018b 03B50241 		.ascii	"\003\265\002A\023\275]\2730:\333;l\014u\3024\336\225"
 132      13BD5DBB 
 132      303ADB3B 
 132      6C0C75C2 
 132      34DE95
 133 019e B7FA6D6C 		.ascii	"\267\372ml\251\316O\245\303\000/\240\364\031k(\014\215"
 133      A9CE4FA5 
 133      C3002FA0 
 133      F4196B28 
 133      0C8D
 134 01b0 BB591AA4 		.ascii	"\273Y\032\244n\227:=Z\266\367K\213\370gZ~\376\201\226"
 134      6E973A3D 
 134      5AB6F74B 
 134      8BF8675A 
 134      7EFE8196 
 135 01c4 F6FFA065 		.ascii	"\366\377\240ea\207\226\205\343\365h\371\361\000\377"
 135      61879685 
 135      E3F568F9 
 135      F100FF
 136 01d3 4E0BECA6 		.ascii	"N\013\354\246e+\354o'H\375\324g%\344{\366\260\022\256"
 136      652BEC6F 
 136      2748FDD4 
 136      6725E47B 
 136      F6B012AE 
 137 01e7 C70AC184 		.ascii	"\307\012\301\204\366\305J\270\016+*l4+k0\021\370m\222"
 137      F6C54AB8 
 137      0E2B2A6C 
 137      342B6B30 
 137      11F86D92 
 138 01fb 56D39B9F 		.ascii	"V\323\233\237\200\016\370\321\232\373\333zC\177\027"
 138      800EF8D1 
 138      9AFBDB7A 
 138      437F17
 139 020a 3B187182 		.ascii	";\030q\202$+/\2727\0325\274O\301\312\027\214\254\235"
 139      242B2FBA 
 139      371A35BC 
 139      4FC1CA17 
 139      8CAC9D
 140 021d 36F24E31 		.ascii	"6\362N1gZ\236\316\"\221\267.\027\255\254i%\272\273{"
 140      675A9ECE 
 140      2291B72E 
 140      17ADAC69 
 140      25BABB7B 
 141 0231 A226A805 		.ascii	"\242&\250\005;c\365\325\362\234\2741\234L\033\227\234"
 141      3B63F5D5 
 141      F29CBC31 
 141      9C4C1B97 
 141      9C
 142 0242 5C216F9C 		.ascii	"\\!o\234\215\307\372z\215\201\201SF\374t\354J\017{\022"
 142      8DC7FA7A 
 142      8D818153 
 142      46FC74EC 
 142      4A0F7B12 
 143 0256 84904EA7 		.ascii	"\204\220N\247\242\303`\354\3161\235L\306\311V\323N\234"
 143      A2C360EC 
ARM GAS  /tmp/ccsypGf3.s 			page 11


 143      CE319D4C 
 143      C6C956D3 
 143      4E9C
 144 0268 899D8C5D 		.ascii	"\211\235\214]5\314a\323\311Y\011\306\317Q\374A\247X"
 144      35CC61D3 
 144      C95909C6 
 144      CF51FC41 
 144      A758
 145 027a 88381723 		.ascii	"\2108\027#\254GF\354l\312\031\201_\241U.\345"
 145      AC4746EC 
 145      6CCA1981 
 145      5FA1552E 
 145      E5
 146              		.text
 147              		.section	.gnu.lto_.symbol_nodes.39d7050a2e494c8c,"",%progbits
 148 0000 789C4D8B 		.ascii	"x\234M\2139\016\302@\020\004{z\274\034\317\344%mA\202"
 148      390EC240 
 148      10047B7A 
 148      BC1CCFE4 
 148      256D4182 
 149 0014 331E00AF 		.ascii	"3\036\000\257A2\022\010R\247\200\21592>\200X\314rLR"
 149      41321208 
 149      52A7808D 
 149      39323E80 
 149      58CC724C 
 150 0029 AA520F41 		.ascii	"\252R\017Al\221\216G\010\230\355\000i^\214\30296\201"
 150      6C918E47 
 150      0898ED00 
 150      695E8CC2 
 150      393681
 151 003c 77C8525D 		.ascii	"w\310R]L\215\015\304\277Q\013\013B\250\301L\036N\360"
 151      4C8D0DC4 
 151      BF510B0B 
 151      42A8C14C 
 151      1E4EF0
 152 004f 08BB40FE 		.ascii	"\010\273@\376\336\344\271\331\025\312~v\203\302\327"
 152      DEE4B9D9 
 152      15CA7E76 
 152      83C2D7
 153 005e 9C032C37 		.ascii	"\234\003,7\025\235CL:F_\225=g\037u\371b\364\303\303"
 153      159D434C 
 153      3A465F95 
 153      3D671F75 
 153      F962F4C3 
 154 0073 3ADF47FA 		.ascii	":\337G\372\207\251{\332y\372sb\274\256\210'\"\304>\222"
 154      87A97BDA 
 154      79FA7362 
 154      BCAE8827 
 154      22C43E92 
 155              		.text
 156              		.section	.gnu.lto_.refs.39d7050a2e494c8c,"",%progbits
 157 0000 789C25C4 		.ascii	"x\234%\304\301\015\0000\010\304\260\\(\354\321\375\227"
 157      C10D0030 
 157      08C4B05C 
 157      28ECD1FD 
 157      97
 158 0011 AC44FDB0 		.ascii	"\254D\375\260\310\345\013I\231e\355\307v\322\222\261"
ARM GAS  /tmp/ccsypGf3.s 			page 12


 158      C8E50B49 
 158      9965EDC7 
 158      76D292B1 
 159 0021 7809B800 		.ascii	"x\011\270\000f"
 159      66
 160              		.text
 161              		.section	.gnu.lto_.decls.39d7050a2e494c8c,"",%progbits
 162 0000 789CB558 		.ascii	"x\234\265Xql\033\325\031\177\357\354\2446\211B\033:"
 162      716C1BD5 
 162      197FEFEC 
 162      A4368942 
 162      1B3A
 163 0012 96AE2B71 		.ascii	"\226\256+q+\0251\304\342\304\335\244\261? \305\255\000"
 163      2B1531C4 
 163      E2C4DDA4 
 163      B13F20C5 
 163      AD00
 164 0024 8930E4A4 		.ascii	"\2110\344\244R%\37607\347\300\326\034;\330\347\225j"
 164      5225FE30 
 164      37E7C0D6 
 164      1C3BD8E7 
 164      956A
 165 0036 7FEC252D 		.ascii	"\177\354%-]\327u\303\230\265K\241dI\241\013\245\003"
 165      5DD775C3 
 165      98B54BA1 
 165      6449A10B 
 165      A503
 166 0048 959484A6 		.ascii	"\225\224\204\246j\251\333i]F\307\032\301\326u\351Z\274"
 166      6AA9DB69 
 166      5D46C71A 
 166      C1D675E9 
 166      5ABC
 167 005a C226D880 		.ascii	"\302&\330\200U@\0015\315\274\357\275w\347{w\271\213"
 167      55400135 
 167      CDBCEFBD 
 167      77E77B77 
 167      B98B
 168 006c 6DA49DFC 		.ascii	"m\244\235\374>\277{\367}\277\367\373\276\357\335\367"
 168      3EBF7BF7 
 168      7DBFF7FB 
 168      BEEFDDF7 
 169 007c EE4E4212 		.ascii	"\356NB\022:\204\021*\302\361N\023B\267\273\020r#\204"
 169      3A84112A 
 169      C2F14E13 
 169      42B7BB10 
 169      722384
 170 008f 6E43FC7F 		.ascii	"nC\374\177\001\264ah{\240\215 ~\324B{\011\332\030\264"
 170      01B46168 
 170      7BA08D20 
 170      7ED4427B 
 170      09DA18B4 
 171 00a3 096847A0 		.ascii	"\011hG\240\345\241\235\322l^\207v\032\332\273\320>B"
 171      E5A19DD2 
 171      6C5E8776 
 171      1ADABBD0 
 171      3E42
 172 00b5 E683DA79 		.ascii	"\346\203\332y4\254\032h3\320\032\240\325C\273\012m\026"
ARM GAS  /tmp/ccsypGf3.s 			page 13


 172      34AC1A68 
 172      33D01AA0 
 172      D543BB0A 
 172      6D16
 173 00c7 5A2BF081 		.ascii	"Z+\360\201\037Z\014\302\245\331\264A\377\233\332\370"
 173      1F5A0CC2 
 173      A5D9B441 
 173      FF9BDAF8 
 174 00d7 EB164CCA 		.ascii	"\353\026L\312c\241\206\251cQ\336'\2049D\354oA;\012\375"
 174      63A186A9 
 174      6351DE27 
 174      843944EC 
 174      6F413B0A 
 175 00ec 5BB1E1DB 		.ascii	"[\261\341\333qd\314Y\253a\352s\212\376\331\315Oc\320"
 175      7164CC59 
 175      AB61EA73 
 175      8AFED9CD 
 175      4F63D0
 176 00ff 28CC29F2 		.ascii	"(\314)\362\250f\376o\303\371\270\205\307\204\015\217"
 176      A866FE6F 
 176      C3F9B885 
 176      C7840D8F 
 177 010f 31071E75 		.ascii	"1\007\036uh\033!\375dh\013\271k\262a\021\312\0228|\003"
 177      681B21FD 
 177      64680BB9 
 177      6BB26111 
 177      CA12387C 
 178 0124 0D5EB495 		.ascii	"\015^\264\225\016\027\366\222&H\360z,c\030\362\260N"
 178      0E17F692 
 178      2648F07A 
 178      2C6318F2 
 178      B04E
 179 0136 BD9701AD 		.ascii	"\275\227\001\255D\317\202*\350K2~\006{aIH\030\331\036"
 179      44CF822A 
 179      E84B327E 
 179      067B6149 
 179      4818D91E 
 180 014a FC3A3DA8 		.ascii	"\374:=\2509\357\353\275\".\241\017`\035\376:\315l\017"
 180      39EFEBBD 
 180      222EA10F 
 180      601DFE3A 
 180      CD6C0F
 181 015d 5EC47A8C 		.ascii	"^\304z\214\014\32182\015\315\304\247[\2705\213_\011"
 181      0CD13832 
 181      0DCDC4A7 
 181      5BB8358B 
 181      5F09
 182 016f 13D57B8D 		.ascii	"\023\325{\215N\243F\305\311n\030\327\351l5\317\371d"
 182      4EA346C5 
 182      C96E18D7 
 182      E96C35CF 
 182      F964
 183 0181 F616CCF5 		.ascii	"\366\026\314\365l\341\261\177\275)\021\342\221\361\010"
 183      6CE1B17F 
 183      BD2911E2 
 183      91F108
 184 0190 737F2546 		.ascii	"s\177%F7\243}<&\027\277l\023\207\312\221\317\357\333"
ARM GAS  /tmp/ccsypGf3.s 			page 14


 184      37A37D3C 
 184      2617BF6C 
 184      1387CA91 
 184      CFEFDB
 185 01a3 7E0B43DE 		.ascii	"~\013C\336\317\220\2730P|\036\337\\5\316\314\226#\267"
 185      CF90BB30 
 185      507C1EDF 
 185      5C35CECC 
 185      9623B7
 186 01b6 329C1719 		.ascii	"2\234\027\031\316O\260\031H\306\013\274\346D\301\271"
 186      CE4FB019 
 186      48C60BBC 
 186      E644C1B9 
 187 01c6 AE40D116 		.ascii	"\256@\321\026x\215\016\275\331\257E\377g\365f4H\362"
 187      788D0EBD 
 187      D9AF45FF 
 187      67F56634 
 187      48F2
 188 01d8 970AE75F 		.ascii	"\227\012\347_{u\331.\222\337L\212\305\037\242\353\321"
 188      7B75D92E 
 188      92DF4C8A 
 188      C51FA2EB 
 188      D1
 189 01e9 0E2DFB04 		.ascii	"\016-\373\004\2532\276\355K\216Y\034\305\327k\275u."
 189      AB32BEED 
 189      4B8E591C 
 189      C5D76BBD 
 189      752E
 190 01fb 3EA7847E 		.ascii	">\247\204~o\361\031\241\033\321^\212G\236#.\206F\365"
 190      6FF119A1 
 190      1BD15E8A 
 190      479E232E 
 190      8646F5
 191 020e 5FC2CD66 		.ascii	"_\302\315f\252\007\261$\016p^\371\301\337m\367d\373"
 191      AA07B124 
 191      0E705EF9 
 191      C1DF6DF7 
 191      64FB
 192 0220 0AC56273 		.ascii	"\012\305bs\345\244\306mH]\260'\2255\223\032\263\222"
 192      E5A4C66D 
 192      485DB027 
 192      9535931A 
 192      B392
 193 0232 7AC58E14 		.ascii	"z\305\216\024\031%\304\013\201*\322\033\221F@BW*\362"
 193      1925C40B 
 193      812AD21B 
 193      91464042 
 193      572AF2
 194 0245 79C20A7F 		.ascii	"y\302\012\177x.|![8}lg\323.r\242\332\\\034\325\334v"
 194      782E7C21 
 194      5B387D6C 
 194      67D32E72 
 194      A2DA5C1C 
 195 025c 21890FD0 		.ascii	"!\211\017\320\233\304\210\001\013\303c\222\225'W=fK"
 195      9BC48801 
 195      0BC36392 
 195      9527573D 
ARM GAS  /tmp/ccsypGf3.s 			page 15


 195      664B
 196 026e E493DCFB 		.ascii	"\344\223\334\373\222=\021\017\372\021+V\217\222>\374"
 196      923D110F 
 196      FA112B56 
 196      8F923EFC 
 197 027e 70F96A75 		.ascii	"p\371ju\002{`\362W\234\313\025U\240\007\265\347}\275"
 197      027B60F2 
 197      579CCB15 
 197      55A007B5 
 197      E77DBD
 198 0291 879D4BC8 		.ascii	"\207\235K\310q;\207M'\306ES\321-\225\332|\323@\203="
 198      713B874D 
 198      27C64553 
 198      D12D95DA 
 198      7CD34083 
 199 02a6 7B193F8B 		.ascii	"{\031?\213WVZG\3470\2334\212\033B\326\034\034u\310\301"
 199      57565A47 
 199      E7309B34 
 199      8A1B42D6 
 199      1C1C75C8 
 200 02bb 6BB639F8 		.ascii	"k\2669\370\360\330\316%d\270?_,\336\256\345XBg\034\020"
 200      F0D8CE25 
 200      64B83F5F 
 200      2CDEAEE5 
 200      5842671C 
 201 02d0 FE604658 		.ascii	"\376`FX\201\206\311P\256p9\367V\016\3476\015M\022\002"
 201      8186C950 
 201      AE7039F7 
 201      560EE736 
 201      0D4D1202 
 202 02e4 28B859C6 		.ascii	"(\270Y\3065\2644\375\263\004\342\344\305\037\0158\012"
 202      35B434FD 
 202      B304E2E4 
 202      C51F0D38 
 202      0A
 203 02f5 75200F55 		.ascii	"u \017U\342\362\036\374\004!:\224\276{M6\224\342\233"
 203      E2F21EFC 
 203      04213A94 
 203      BE7B4D36 
 203      94E29B
 204 0308 87F836A2 		.ascii	"\207\3706\242\307\331R\201\225\"\224KR\332m\026\242"
 204      C7D95281 
 204      9522944B 
 204      52DA6D16 
 204      A2
 205 0319 52BDBC9C 		.ascii	"R\275\274\234\373m\033\324K\315\302\347\250.\3437!\037"
 205      FB6D1BD4 
 205      4BCDC2E7 
 205      A82EE337 
 205      211F
 206 032b 65D5A8E2 		.ascii	"e\325\250\342\237q\243\346\030_\202\371\031\305\307"
 206      9F71A3E6 
 206      185F82F9 
 206      19C5C7
 207 033a 47914DD4 		.ascii	"G\221M\324\264c9\002\266\375\371\331\331ILr\365<\203"
 207      B4633902 
 207      B6FDF9D9 
ARM GAS  /tmp/ccsypGf3.s 			page 16


 207      D9494C72 
 207      F53C83
 208 034d 12BAC462 		.ascii	"\022\272\304bDM\355bT\332\362\364\005\322\340\265\300"
 208      444DED62 
 208      54DAF2F4 
 208      05D2E0B5 
 208      C0
 209 035e 15DF6370 		.ascii	"\025\337cp\246\305\307K\206S\314\247a^\201\244\204."
 209      A6C5C74B 
 209      8653CCA7 
 209      615E81A4 
 209      842E
 210 0370 574DC167 		.ascii	"WM\301g\242\220=Y\237\2259\256\204f*\001\3638\373\223"
 210      A2903D59 
 210      9F9539AE 
 210      84662A01 
 210      F338FB93 
 211 0384 13C136BB 		.ascii	"\023\3016\273\252\005\363Y\202\316\035\225\361\031v"
 211      AA05F359 
 211      82CE1D95 
 211      F11976
 212 0393 ABFD052F 		.ascii	"\253\375\005/\007\371W&\377\306\344\005\220\245CB\333"
 212      07F95726 
 212      FFC6E405 
 212      90A54342 
 212      DB
 213 03a4 5DD6CD94 		.ascii	"]\326\315\224'U\3003r\217\312#\332\347\300\222\2547"
 213      2755C033 
 213      728FCA23 
 213      DAE7C092 
 213      AC37
 214 03b6 1CFCA3F8 		.ascii	"\034\374\243\370\1777\335\346\002\344\003\272f=\033"
 214      7F37DDE6 
 214      02E403BA 
 214      663D1B
 215 03c5 356E136E 		.ascii	"5n\023nc\257%\343\213U?}\275\355\360\364%\326\001C\013"
 215      63AF25E3 
 215      8B553F7D 
 215      BDEDF0F4 
 215      25D60143 
 216 03da 867FE1B2 		.ascii	"\206\177\341\262\334\365sH\274\003w\375\015h\237\353"
 216      DCF57348 
 216      BC0377FD 
 216      0D689FEB 
 217 03ea 69C273F7 		.ascii	"i\302s\367\015t\220l\315\267\312x\012\330\225V\305\017"
 217      0D74906C 
 217      CDB7CA78 
 217      0AD89556 
 217      C50F
 218 03fc D0153240 		.ascii	"\320\0252@\012\347\267}\032\340>\321\01215\225?xr7&"
 218      0AE7B77D 
 218      1AE03ED1 
 218      0A313595 
 218      3F787237 
 219 0411 43FD84FC 		.ascii	"C\375\204\374\027\352\003\217\236\204~c\235t\356M\373"
 219      17EA038F 
 219      9E847E63 
ARM GAS  /tmp/ccsypGf3.s 			page 17


 219      9D74EE4D 
 219      FB
 220 0422 9E566BF8 		.ascii	"\236Vk\370l\355\334\222g\220O\225\037;\211\035\236\234"
 220      6CEDDC92 
 220      67904F95 
 220      1F3B891D 
 220      9E9C
 221 0434 793DD6A0 		.ascii	"y=\326\240\263\222\016\275B\203\376\240\352\250~\350"
 221      B3920EBD 
 221      4283FEA0 
 221      EAA87EE8 
 222 0444 10557DED 		.ascii	"\020U}\3558\331\275o\254\207\033\320\024Dp\240\335\230"
 222      38D9BD6F 
 222      AC871BD0 
 222      144470A0 
 222      DD98
 223 0456 9E2F446A 		.ascii	"\236/Dj1\315\324\370\222\024\317/h\316n%\371\303\265"
 223      31CDD4F8 
 223      9214CF2F 
 223      68CE6E25 
 223      F9C3B5
 224 0469 7A29109F 		.ascii	"z)\020\237\223\264y\261\036\222\351:S\354\237:e\023"
 224      93B479B1 
 224      1E92E93A 
 224      53EC9F3A 
 224      6513
 225 047b FB8FCBC7 		.ascii	"\373\217\313\307\376\343\262\261\177\372TE\261?[\202"
 225      FEE3B2B1 
 225      7FFA5445 
 225      B13F5B82 
 226 048b 5EAA417F 		.ascii	"^\252A\177Vu\354?w\210\375W\312\304\376S1\366\304\315"
 226      5675EC3F 
 226      7788FD57 
 226      CAC4FE53 
 226      31F6C4CD 
 227 049f 63FFD917 		.ascii	"c\377\331\027\211\375h\235\036\373\211\271\261\347\253"
 227      89FD689D 
 227      1EFB89B9 
 227      B1E7AB
 228 04ae 4BBFF12D 		.ascii	"K\277\361-\265\242\306\331\255\031\313\353\316\246y"
 228      B5A2C6D9 
 228      AD19CBEB 
 228      CEA679
 229 04bd 5F2664FC 		.ascii	"_&d\374kV\022\313?\276\333\355\210\265:\324\003\250"
 229      6B5612CB 
 229      3FBEDBED 
 229      88B53AD4 
 229      03A8
 230 04cf B4CF7E7E 		.ascii	"\264\317~~\361R\202\275\227\314\262Uq\332m.\245ea('"
 230      F15282BD 
 230      97CCB255 
 230      71DA6D2E 
 230      A5656128 
 231 04e4 225936D6 		.ascii	"\"Y6\326'\316\325\0237\037/\263\265n\336\224\337qn\367"
 231      27CED513 
 231      371F2FB3 
 231      B56EDE94 
ARM GAS  /tmp/ccsypGf3.s 			page 18


 231      DF716EF7 
 232 04f8 12327402 		.ascii	"\0222t\002 \257\262W\243s\214\002\265\375\002{+\340"
 232      20AFB257 
 232      A3738C02 
 232      B5FD027B 
 232      2BE0
 233 050a ED3CC7F6 		.ascii	"\355<\307\366\"\016\366V\325`>\023\330\200\010\366v"
 233      220EF656 
 233      D5603E13 
 233      D88008F6 
 233      76
 234 051b 25604EBB 		.ascii	"%`N\273$\200=)\202\275[5\230\231\331n\021\354\203J\300"
 234      24803D29 
 234      82BD5B35 
 234      9899D96E 
 234      11EC834A 
 235 0530 163A331B 		.ascii	"\026:3\033\024\301.U\015ffv@\004\373\244\022\260&gf"
 235      14C12E55 
 235      0D666676 
 235      4004FBA4 
 235      12B02667 
 236 0545 A322D895 		.ascii	"\243\"\330\225\252\301\314\314^\026\301HM\005`>gf\343"
 236      AAC1CCCC 
 236      5E16C148 
 236      4D05603E 
 236      6766E3
 237 0558 22D8A355 		.ascii	"\"\330\243U\203\231\231\035\022\301~\\\011\330M\316"
 237      8399991D 
 237      12C17E5C 
 237      09D84DCE 
 238 0568 CC0E8B60 		.ascii	"\314\016\213`?\255\032\314\314\354\210\010\366x%`\255"
 238      3FAD1ACC 
 238      CCEC8808 
 238      F6782560 
 238      AD
 239 0579 4ECCFAF2 		.ascii	"N\314\372\362\257\336\237\225\305\207\236\253\306\036"
 239      AFDE9F95 
 239      C5879EAB 
 239      C61E
 240 0587 61DD7E44 		.ascii	"a\335~D\265\375\316j2\036\224\252\335J~)\331o%\306\313"
 240      B5FDCE6A 
 240      321E94AA 
 240      DD4A7E29 
 240      D96F25C6 
 241 059c 98A8056E 		.ascii	"\230\250\005n\357\260\272mfa\347\2679\210Sb\020wU\022"
 241      EFB0BA6D 
 241      6661E7B7 
 241      39885362 
 241      10775512 
 242 05b0 C47667B0 		.ascii	"\304vg\2607D\260\301J\300\356r^+\177\022\301\366T\015"
 242      3744B0C1 
 242      4AC0EE72 
 242      5E2B7F12 
 242      C1F6540D 
 243 05c4 66667646 		.ascii	"ffvF\004\033\251\004\354>gfgE\260\347\253\006\023\231"
 243      041BA904 
 243      EC3E6766 
ARM GAS  /tmp/ccsypGf3.s 			page 19


 243      6745B0E7 
 243      AB061399 
 244 05d8 F5E5A78D 		.ascii	"\365\345\247\215\2057\324nYy\355\346jkR\333\357\250"
 244      8537D46E 
 244      5979EDE6 
 244      6A6B52DB 
 244      EFA8
 245 05ea 26E317AA 		.ascii	"&\343\027\252^x/:,<\361\363\207\241\005n\037\260\272"
 245      5E782F3A 
 245      2C3CF1F3 
 245      87A1056E 
 245      1FB0BA
 246 05fd 6D22A175 		.ascii	"m\"\241u\327\333\304\320\356\0207j\031\367I\364A\242"
 246      D7DBC4D0 
 246      EE10376A 
 246      19F749F4 
 246      41A2
 247 060f 5FA26F3F 		.ascii	"_\242o?\233\231\334\302\344V&\2671\271\235\311\2371"
 247      9B99DCC2 
 247      E45626B7 
 247      31B99DC9 
 247      9F31
 248 0621 996532C7 		.ascii	"\231e2\307\344\317\231\334\311\344\000\223O2\271\233"
 248      E4CF99DC 
 248      C9E40093 
 248      4F32B99B 
 249 0631 C961269F 		.ascii	"\311a&\237ar/\223#L\356cr\277$\274iY\236\223f\347y\247"
 249      61722F93 
 249      234CEE63 
 249      72BF24BC 
 249      69599E93 
 250 0649 3A20951E 		.ascii	": \225\036\224\264O\223\323\377\236,}\232\\n\371\034"
 250      94B44F93 
 250      D3FF9E2C 
 250      7D9A5C6E 
 250      F91C
 251 065b 36829DB3 		.ascii	"6\202\235\2630*\315\375\014\370\217\032\333\357t\375"
 251      302ACDFD 
 251      0CF88F1A 
 251      DBEF74FD 
 252 066b 64F439E2 		.ascii	"d\3649\342\325\277\031\301C\267\324\354\000\313.\037"
 252      D5BF19C1 
 252      43B7D4EC 
 252      00CB2E1F 
 253 067b 946CBE0A 		.ascii	"\224l\276\012\026>\372\317\331\257\225x\362\351%\364"
 253      163EFACF 
 253      D9AF9578 
 253      F2E925F4 
 254 068b 426D4513 		.ascii	"BmE\023\216\315?\341\270yBK8\217\316\363=\341\220\021"
 254      8ECD3FE1 
 254      B879424B 
 254      388FCEF3 
 254      3DE19011 
 255 069f 4E8BD5F1 		.ascii	"N\213\325\361y\254&\034\255\306\347\261:lX!w$*\247\226"
 255      79AC261C 
 255      ADC6E7B1 
 255      3A6C5821 
ARM GAS  /tmp/ccsypGf3.s 			page 20


 255      77242AA7 
 256 06b4 B5B4F8F9 		.ascii	"\265\264\370\371/\231\366'bq\177,\021\211g\272\025\177"
 256      2F99F627 
 256      62717F2C 
 256      118967BA 
 256      157F
 257 06c6 24DA1245 		.ascii	"$\332\022E\336\364\306\264\032\353Q\302j\355\235\367"
 257      DEF4C6B4 
 257      1AEB51C2 
 257      6AED9DF7 
 258 06d6 AEF305D1 		.ascii	"\256\363\005\3212\177&\235*\351$\224\015\361\330w\375"
 258      327F269D 
 258      2AE92494 
 258      0DF1D877 
 258      FD
 259 06e7 69B53B96 		.ascii	"i\265;\226PA\335\223\201\377U\201\260\372u;\265\036"
 259      5041DD93 
 259      81FF5581 
 259      B0FA753B 
 259      B51E
 260 06f9 39128D25 		.ascii	"9\022\215%\024\177\270[yP\316\304\325\260\272\261WI"
 260      147FB85B 
 260      7950CEC4 
 260      D5B0BAB1 
 260      5749
 261 070b 83D935E1 		.ascii	"\203\3315\341\260n\030(\321Q\225\264\312\010\245\223"
 261      B06E1828 
 261      D15195B4 
 261      CA08A593 
 262 071b 995444E1 		.ascii	"\231TD\341\347T\204\323\312\303\031%\021Q\302\255\255"
 262      E75484D3 
 262      CAC31925 
 262      1151C2AD 
 262      AD
 263 072c 6D2D11B4 		.ascii	"m-\021\264\230\015B\2375\345\021%\222Q\225\245\302`"
 263      980D429F 
 263      35E51125 
 263      925195A5 
 263      C260
 264 073e 401F6CE9 		.ascii	"@\037l\351\225SjK\353b\273k\327D\242]\321\356\316\270"
 264      95536A4B 
 264      EB62BB6B 
 264      D744A25D 
 264      D1EECEB8 
 265 0752 A2F47ED5 		.ascii	"\242\364~\325\314\201R\217D\303\264\017\\k\302w$\223"
 265      CC81528F 
 265      44C3B40F 
 265      5C6BC277 
 265      2493
 266 0764 F126761A 		.ascii	"\361&v\032\226\323i%\005~\320\010m\210%\272\223\033"
 266      96D36925 
 266      057ED008 
 266      6D8825BA 
 266      931B
 267 0776 AE3560D6 		.ascii	"\2565`\326%\324X\334\313\031\253J\257;!\367(5iE\315"
 267      25D458DC 
 267      CB19AB4A 
ARM GAS  /tmp/ccsypGf3.s 			page 21


 267      AF3B21F7 
 267      28356945 
 268 078b F47A5445 		.ascii	"\364zTEN\201rb\201>9\325\212\310i\210\363\2429..iI%"
 268      4E817262 
 268      813E39D5 
 268      8AC86988 
 268      F3A2392E 
 269 07a3 BB65556E 		.ascii	"\273eUn\231s\245^\364|E'\244J\351\361u\305\"\337\363"
 269      9973A55E 
 269      F47C4527 
 269      A44AE9F1 
 269      75C522DF 
 270 07b8 05939984 		.ascii	"\005\223\231\204\252\244|\017f\022\0215\226L\310\361"
 270      AAA47C0F 
 270      66121135 
 270      964CC8F1 
 271 07c8 98BA1189 		.ascii	"\230\272\021\211\372\201\245]"
 271      FA81A55D 
 272 07d0 D1942277 		.ascii	"\321\224\"w\373\030W\213b@\\\024Q9\356\357M\246\324"
 272      FB18578B 
 272      62405C14 
 272      5139EEEF 
 272      4DA6D4
 273 07e3 B4BFB3AB 		.ascii	"\264\277\263\253cU\300\177\317=k\374]ww|\277\015\362"
 273      6355C07F 
 273      CF3D6BFC 
 273      5D77777C 
 273      BF0DF2
 274 07f6 DE437316 		.ascii	"\336Cs\026\353\201\270\324\225N\302\252+\030j\203\026"
 274      EB81B8D4 
 274      954EC2AA 
 274      2B186A83 
 274      16
 275 0807 70777604 		.ascii	"pwv\004C\3565w\257\015I\235!\327\332;C5\301`G\250\215"
 275      43EE3577 
 275      AF0D499D 
 275      21D7DA3B 
 275      4335C160 
 276 081e C9803B18 		.ascii	"\311\200;\030\\\033r\005\357\355r\335\327\031t\255\016"
 276      5C1B7205 
 276      EFED72DD 
 276      D71974AD 
 276      0E
 277 082f 855CA120 		.ascii	"\205\\\241 \234\203\301\035k\272B\2565\324\262cuH\372"
 277      9C83C11D 
 277      6BBA42AE 
 277      35D4B263 
 277      7548FA
 278 0842 0EB75A05 		.ascii	"\016\267Z\005\372\353C~\221X$\331\323\223Lh\334V\207"
 278      FAEB437E 
 278      915824D9 
 278      D3934C68 
 278      DC5687
 279 0855 3A821D8F 		.ascii	":\202\035\217@\242\"\311\224\3022\222\002V\327\321\213"
 279      40A222C9 
 279      94C23292 
 279      0256D7D1 
ARM GAS  /tmp/ccsypGf3.s 			page 22


 279      8B
 280 0866 FC2CFC90 		.ascii	"\374,\374\220\302{\253*s\016\256@\336\302\361x7\340"
 280      C27BAB2A 
 280      730EAE40 
 280      DEC2F178 
 280      37E0
 281 0878 34F21EC3 		.ascii	"4\362\036\303\210\360\330\376\017\276\272\277\321"
 281      88F0D8FE 
 281      0FBEBABF 
 281      D1
 282              		.text
 283              		.section	.gnu.lto_.symtab.39d7050a2e494c8c,"",%progbits
 284 0000 74657374 		.ascii	"test_sequence_001\000\000\000\000\000\000\000\000\000"
 284      5F736571 
 284      75656E63 
 284      655F3030 
 284      31000000 
 285 001a 000000CF 		.ascii	"\000\000\000\317\000\000\000test_step\000\000\002\000"
 285      00000074 
 285      6573745F 
 285      73746570 
 285      00000200 
 286 002e 00000000 		.ascii	"\000\000\000\000\000\000\000\000\315\000\000\000chT"
 286      00000000 
 286      CD000000 
 286      636854
 287 003d 6864536C 		.ascii	"hdSleep\000\000\002\000\000\000\000\000\000\000\000"
 287      65657000 
 287      00020000 
 287      00000000 
 287      0000
 288 004f 00BC0000 		.ascii	"\000\274\000\000\000_test_assert_time_window\000\000"
 288      005F7465 
 288      73745F61 
 288      73736572 
 288      745F7469 
 289 006e 02000000 		.ascii	"\002\000\000\000\000\000\000\000\000\000\300\000\000"
 289      00000000 
 289      0000C000 
 289      00
 290 007b 00636854 		.ascii	"\000chThdSleepUntil\000\000\002\000\000\000\000\000"
 290      6864536C 
 290      65657055 
 290      6E74696C 
 290      00000200 
 291 0093 00000000 		.ascii	"\000\000\000\000\313\000\000\000"
 291      CB000000 
 292              		.text
 293              		.section	.gnu.lto_.opts,"",%progbits
 294 0000 272D6D63 		.ascii	"'-mcpu=cortex-m0' '-mno-thumb-interwork' '-mthumb' "
 294      70753D63 
 294      6F727465 
 294      782D6D30 
 294      2720272D 
 295 0033 272D6767 		.ascii	"'-ggdb' '-O2' '-fomit-frame-pointer' '-falign-funct"
 295      64622720 
 295      272D4F32 
ARM GAS  /tmp/ccsypGf3.s 			page 23


 295      2720272D 
 295      666F6D69 
 296 0066 696F6E73 		.ascii	"ions=16' '-ffunction-sections' '-fdata-sections' '-"
 296      3D313627 
 296      20272D66 
 296      66756E63 
 296      74696F6E 
 297 0099 666E6F2D 		.ascii	"fno-common' '-flto'\000"
 297      636F6D6D 
 297      6F6E2720 
 297      272D666C 
 297      746F2700 
 298              		.text
 299              		.cfi_sections	.debug_frame
 300              		.section	.text.test_001_001_execute,"ax",%progbits
 301              		.align	2
 302              		.p2align 4,,15
 303              		.code	16
 304              		.thumb_func
 305              		.type	test_001_001_execute, %function
 306              	test_001_001_execute:
 307              	.LFB98:
 308              		.file 1 "../../../test/nil/source/test/test_sequence_001.c"
 309              		.loc 1 61 0
 310              		.cfi_startproc
 311              		.loc 1 65 0
 312 0000 044B     		ldr	r3, .L5
 313 0002 0122     		mov	r2, #1
 314 0004 1A60     		str	r2, [r3]
 315              	.LBB48:
 316              	.LBB49:
 317              	.LBB50:
 318              	.LBB51:
 319              		.file 2 "../../../os/hal/ports/STM32/LLD/TIMv1/hal_st_lld.h"
 320              		.loc 2 141 0
 321 0006 8022     		mov	r2, #128
 322 0008 D205     		lsl	r2, r2, #23
 323 000a 516A     		ldr	r1, [r2, #36]
 324              	.L3:
 325              	.LBE51:
 326              	.LBE50:
 327              	.LBE49:
 328              	.LBB52:
 329              	.LBB53:
 330              	.LBB54:
 331              		.loc 2 141 0 is_stmt 0 discriminator 1
 332 000c 536A     		ldr	r3, [r2, #36]
 333              	.LBE54:
 334              	.LBE53:
 335              	.LBE52:
 336              		.loc 1 68 0 is_stmt 1 discriminator 1
 337 000e 9942     		cmp	r1, r3
 338 0010 FCD0     		beq	.L3
 339              	.LBE48:
 340              		.loc 1 71 0
 341              		@ sp needed
 342 0012 7047     		bx	lr
ARM GAS  /tmp/ccsypGf3.s 			page 24


 343              	.L6:
 344              		.align	2
 345              	.L5:
 346 0014 00000000 		.word	test_step
 347              		.cfi_endproc
 348              	.LFE98:
 349              		.size	test_001_001_execute, .-test_001_001_execute
 350 0018 C046C046 		.section	.text.test_001_002_execute,"ax",%progbits
 350      C046C046 
 351              		.align	2
 352              		.p2align 4,,15
 353              		.code	16
 354              		.thumb_func
 355              		.type	test_001_002_execute, %function
 356              	test_001_002_execute:
 357              	.LFB99:
 358              		.loc 1 103 0
 359              		.cfi_startproc
 360 0000 F8B5     		push	{r3, r4, r5, r6, r7, lr}
 361              		.cfi_def_cfa_offset 24
 362              		.cfi_offset 3, -24
 363              		.cfi_offset 4, -20
 364              		.cfi_offset 5, -16
 365              		.cfi_offset 6, -12
 366              		.cfi_offset 7, -8
 367              		.cfi_offset 14, -4
 368              	.LBB78:
 369              	.LBB79:
 370              	.LBB80:
 371              		.loc 2 141 0
 372 0002 8026     		mov	r6, #128
 373              	.LBE80:
 374              	.LBE79:
 375              	.LBE78:
 376              		.loc 1 109 0
 377 0004 284F     		ldr	r7, .L12
 378              	.LBB83:
 379              	.LBB82:
 380              	.LBB81:
 381              		.loc 2 141 0
 382 0006 F605     		lsl	r6, r6, #23
 383 0008 746A     		ldr	r4, [r6, #36]
 384              	.LBE81:
 385              	.LBE82:
 386              	.LBE83:
 387              		.loc 1 109 0
 388 000a 0123     		mov	r3, #1
 389              		.loc 1 112 0
 390 000c 6420     		mov	r0, #100
 391              		.loc 1 109 0
 392 000e 3B60     		str	r3, [r7]
 393              		.loc 1 112 0
 394 0010 FFF7FEFF 		bl	chThdSleep
 395              	.LVL0:
 396              		.loc 1 113 0
 397 0014 254D     		ldr	r5, .L12+4
 398 0016 201C     		mov	r0, r4
ARM GAS  /tmp/ccsypGf3.s 			page 25


 399 0018 211C     		mov	r1, r4
 400 001a 6430     		add	r0, r0, #100
 401 001c 6531     		add	r1, r1, #101
 402 001e 2A1C     		mov	r2, r5
 403 0020 FFF7FEFF 		bl	_test_assert_time_window
 404              	.LVL1:
 405 0024 0028     		cmp	r0, #0
 406 0026 00D0     		beq	.L11
 407              	.L7:
 408              		.loc 1 163 0
 409              		@ sp needed
 410 0028 F8BD     		pop	{r3, r4, r5, r6, r7, pc}
 411              	.L11:
 412              	.LBB84:
 413              	.LBB85:
 414              	.LBB86:
 415              		.loc 2 141 0
 416 002a 746A     		ldr	r4, [r6, #36]
 417              	.LBE86:
 418              	.LBE85:
 419              	.LBE84:
 420              		.loc 1 121 0
 421 002c 0223     		mov	r3, #2
 422              		.loc 1 124 0
 423 002e 6420     		mov	r0, #100
 424              		.loc 1 121 0
 425 0030 3B60     		str	r3, [r7]
 426              		.loc 1 124 0
 427 0032 FFF7FEFF 		bl	chThdSleep
 428              	.LVL2:
 429              		.loc 1 125 0
 430 0036 201C     		mov	r0, r4
 431 0038 211C     		mov	r1, r4
 432 003a 6430     		add	r0, r0, #100
 433 003c 6531     		add	r1, r1, #101
 434 003e 2A1C     		mov	r2, r5
 435 0040 FFF7FEFF 		bl	_test_assert_time_window
 436              	.LVL3:
 437 0044 0028     		cmp	r0, #0
 438 0046 EFD1     		bne	.L7
 439              	.LBB87:
 440              	.LBB88:
 441              	.LBB89:
 442              	.LBB90:
 443              	.LBB91:
 444              		.loc 2 141 0
 445 0048 746A     		ldr	r4, [r6, #36]
 446              	.LBE91:
 447              	.LBE90:
 448              	.LBE89:
 449              		.loc 1 133 0
 450 004a 0323     		mov	r3, #3
 451              		.loc 1 136 0
 452 004c 6420     		mov	r0, #100
 453              		.loc 1 133 0
 454 004e 3B60     		str	r3, [r7]
 455              		.loc 1 136 0
ARM GAS  /tmp/ccsypGf3.s 			page 26


 456 0050 FFF7FEFF 		bl	chThdSleep
 457              	.LVL4:
 458              		.loc 1 137 0
 459 0054 201C     		mov	r0, r4
 460 0056 211C     		mov	r1, r4
 461 0058 6430     		add	r0, r0, #100
 462 005a 6531     		add	r1, r1, #101
 463 005c 2A1C     		mov	r2, r5
 464 005e FFF7FEFF 		bl	_test_assert_time_window
 465              	.LVL5:
 466 0062 0028     		cmp	r0, #0
 467 0064 E0D1     		bne	.L7
 468              		.loc 1 147 0
 469 0066 FA20     		mov	r0, #250
 470              		.loc 1 144 0
 471 0068 0423     		mov	r3, #4
 472              		.loc 1 147 0
 473 006a 8000     		lsl	r0, r0, #2
 474              	.LBB92:
 475              	.LBB93:
 476              	.LBB94:
 477              		.loc 2 141 0
 478 006c 746A     		ldr	r4, [r6, #36]
 479              	.LBE94:
 480              	.LBE93:
 481              	.LBE92:
 482              		.loc 1 144 0
 483 006e 3B60     		str	r3, [r7]
 484              		.loc 1 147 0
 485 0070 FFF7FEFF 		bl	chThdSleep
 486              	.LVL6:
 487              		.loc 1 148 0
 488 0074 FA23     		mov	r3, #250
 489 0076 9B00     		lsl	r3, r3, #2
 490 0078 E018     		add	r0, r4, r3
 491 007a 0D4B     		ldr	r3, .L12+8
 492 007c 2A1C     		mov	r2, r5
 493 007e E118     		add	r1, r4, r3
 494 0080 FFF7FEFF 		bl	_test_assert_time_window
 495              	.LVL7:
 496 0084 0028     		cmp	r0, #0
 497 0086 CFD1     		bne	.L7
 498              	.LBB95:
 499              	.LBB96:
 500              	.LBB97:
 501              		.loc 2 141 0
 502 0088 766A     		ldr	r6, [r6, #36]
 503              	.LBE97:
 504              	.LBE96:
 505              	.LBE95:
 506              		.loc 1 155 0
 507 008a 0523     		mov	r3, #5
 508              		.loc 1 158 0
 509 008c 341C     		mov	r4, r6
 510 008e 6434     		add	r4, r4, #100
 511 0090 201C     		mov	r0, r4
 512              		.loc 1 155 0
ARM GAS  /tmp/ccsypGf3.s 			page 27


 513 0092 3B60     		str	r3, [r7]
 514              		.loc 1 158 0
 515 0094 FFF7FEFF 		bl	chThdSleepUntil
 516              	.LVL8:
 517              		.loc 1 159 0
 518 0098 311C     		mov	r1, r6
 519 009a 6531     		add	r1, r1, #101
 520 009c 201C     		mov	r0, r4
 521 009e 2A1C     		mov	r2, r5
 522 00a0 FFF7FEFF 		bl	_test_assert_time_window
 523              	.LVL9:
 524 00a4 C0E7     		b	.L7
 525              	.L13:
 526 00a6 C046     		.align	2
 527              	.L12:
 528 00a8 00000000 		.word	test_step
 529 00ac 00000000 		.word	.LC2
 530 00b0 E9030000 		.word	1001
 531              	.LBE88:
 532              	.LBE87:
 533              		.cfi_endproc
 534              	.LFE99:
 535              		.size	test_001_002_execute, .-test_001_002_execute
 536              		.global	test_sequence_001
 537 00b4 C046C046 		.section	.rodata.test_sequence_001,"a",%progbits
 537      C046C046 
 537      C046C046 
 538              		.align	2
 539              		.type	test_sequence_001, %object
 540              		.size	test_sequence_001, 12
 541              	test_sequence_001:
 542 0000 00000000 		.word	test_001_001
 543 0004 00000000 		.word	test_001_002
 544 0008 00000000 		.word	0
 545              		.section	.rodata.test_001_001,"a",%progbits
 546              		.align	2
 547              		.type	test_001_001, %object
 548              		.size	test_001_001, 16
 549              	test_001_001:
 550 0000 30000000 		.word	.LC5
 551 0004 00000000 		.word	0
 552 0008 00000000 		.word	0
 553 000c 00000000 		.word	test_001_001_execute
 554              		.section	.rodata.test_001_002,"a",%progbits
 555              		.align	2
 556              		.type	test_001_002, %object
 557              		.size	test_001_002, 16
 558              	test_001_002:
 559 0000 14000000 		.word	.LC4
 560 0004 00000000 		.word	0
 561 0008 00000000 		.word	0
 562 000c 00000000 		.word	test_001_002_execute
 563              		.section	.rodata.str1.4,"aMS",%progbits,1
 564              		.align	2
 565              	.LC2:
 566 0000 6F757420 		.ascii	"out of time window\000"
 566      6F662074 
ARM GAS  /tmp/ccsypGf3.s 			page 28


 566      696D6520 
 566      77696E64 
 566      6F7700
 567 0013 00       		.space	1
 568              	.LC4:
 569 0014 54687265 		.ascii	"Thread Sleep functionality\000"
 569      61642053 
 569      6C656570 
 569      2066756E 
 569      6374696F 
 570 002f 00       		.space	1
 571              	.LC5:
 572 0030 53797374 		.ascii	"System Tick Counter functionality\000"
 572      656D2054 
 572      69636B20 
 572      436F756E 
 572      74657220 
 573 0052 0000     		.text
 574              	.Letext0:
 575              		.file 3 "/usr/lib/gcc/arm-none-eabi/4.8.2/include/stddef.h"
 576              		.file 4 "/usr/include/newlib/machine/_default_types.h"
 577              		.file 5 "/usr/include/newlib/stdint.h"
 578              		.file 6 "../../../os/nil/include/ch.h"
 579              		.file 7 "../../../os/hal/ports/STM32/LLD/TIMv1/stm32_tim.h"
 580              		.file 8 "../../../test/lib/ch_test.h"
 581              		.file 9 "../../../os/common/ports/ARMCMx/chcore_timer.h"
 582              		.section	.debug_info,"",%progbits
 583              	.Ldebug_info0:
 584 0000 62050000 		.4byte	0x562
 585 0004 0400     		.2byte	0x4
 586 0006 00000000 		.4byte	.Ldebug_abbrev0
 587 000a 04       		.byte	0x4
 588 000b 01       		.uleb128 0x1
 589 000c 22020000 		.4byte	.LASF38
 590 0010 01       		.byte	0x1
 591 0011 E4000000 		.4byte	.LASF39
 592 0015 16000000 		.4byte	.LASF40
 593 0019 18000000 		.4byte	.Ldebug_ranges0+0x18
 594 001d 00000000 		.4byte	0
 595 0021 00000000 		.4byte	.Ldebug_line0
 596 0025 02       		.uleb128 0x2
 597 0026 04       		.byte	0x4
 598 0027 05       		.byte	0x5
 599 0028 696E7400 		.ascii	"int\000"
 600 002c 03       		.uleb128 0x3
 601 002d 05000000 		.4byte	.LASF6
 602 0031 03       		.byte	0x3
 603 0032 D4       		.byte	0xd4
 604 0033 37000000 		.4byte	0x37
 605 0037 04       		.uleb128 0x4
 606 0038 04       		.byte	0x4
 607 0039 07       		.byte	0x7
 608 003a 6B010000 		.4byte	.LASF0
 609 003e 04       		.uleb128 0x4
 610 003f 01       		.byte	0x1
 611 0040 06       		.byte	0x6
 612 0041 C5020000 		.4byte	.LASF1
ARM GAS  /tmp/ccsypGf3.s 			page 29


 613 0045 04       		.uleb128 0x4
 614 0046 01       		.byte	0x1
 615 0047 08       		.byte	0x8
 616 0048 6B000000 		.4byte	.LASF2
 617 004c 04       		.uleb128 0x4
 618 004d 02       		.byte	0x2
 619 004e 05       		.byte	0x5
 620 004f 2F010000 		.4byte	.LASF3
 621 0053 04       		.uleb128 0x4
 622 0054 02       		.byte	0x2
 623 0055 07       		.byte	0x7
 624 0056 BB000000 		.4byte	.LASF4
 625 005a 04       		.uleb128 0x4
 626 005b 04       		.byte	0x4
 627 005c 05       		.byte	0x5
 628 005d 19020000 		.4byte	.LASF5
 629 0061 03       		.uleb128 0x3
 630 0062 CE000000 		.4byte	.LASF7
 631 0066 04       		.byte	0x4
 632 0067 38       		.byte	0x38
 633 0068 6C000000 		.4byte	0x6c
 634 006c 04       		.uleb128 0x4
 635 006d 04       		.byte	0x4
 636 006e 07       		.byte	0x7
 637 006f A0000000 		.4byte	.LASF8
 638 0073 04       		.uleb128 0x4
 639 0074 08       		.byte	0x8
 640 0075 05       		.byte	0x5
 641 0076 B7010000 		.4byte	.LASF9
 642 007a 04       		.uleb128 0x4
 643 007b 08       		.byte	0x8
 644 007c 07       		.byte	0x7
 645 007d 8C010000 		.4byte	.LASF10
 646 0081 03       		.uleb128 0x3
 647 0082 10020000 		.4byte	.LASF11
 648 0086 05       		.byte	0x5
 649 0087 42       		.byte	0x42
 650 0088 61000000 		.4byte	0x61
 651 008c 05       		.uleb128 0x5
 652 008d 0C000000 		.4byte	.LASF12
 653 0091 06       		.byte	0x6
 654 0092 D001     		.2byte	0x1d0
 655 0094 81000000 		.4byte	0x81
 656 0098 04       		.uleb128 0x4
 657 0099 04       		.byte	0x4
 658 009a 07       		.byte	0x7
 659 009b AE010000 		.4byte	.LASF13
 660 009f 06       		.uleb128 0x6
 661 00a0 81000000 		.4byte	0x81
 662 00a4 07       		.uleb128 0x7
 663 00a5 81000000 		.4byte	0x81
 664 00a9 B4000000 		.4byte	0xb4
 665 00ad 08       		.uleb128 0x8
 666 00ae 98000000 		.4byte	0x98
 667 00b2 01       		.byte	0x1
 668 00b3 00       		.byte	0
 669 00b4 07       		.uleb128 0x7
ARM GAS  /tmp/ccsypGf3.s 			page 30


 670 00b5 81000000 		.4byte	0x81
 671 00b9 C4000000 		.4byte	0xc4
 672 00bd 08       		.uleb128 0x8
 673 00be 98000000 		.4byte	0x98
 674 00c2 03       		.byte	0x3
 675 00c3 00       		.byte	0
 676 00c4 09       		.uleb128 0x9
 677 00c5 60       		.byte	0x60
 678 00c6 07       		.byte	0x7
 679 00c7 A101     		.2byte	0x1a1
 680 00c9 D0010000 		.4byte	0x1d0
 681 00cd 0A       		.uleb128 0xa
 682 00ce 43523100 		.ascii	"CR1\000"
 683 00d2 07       		.byte	0x7
 684 00d3 A201     		.2byte	0x1a2
 685 00d5 9F000000 		.4byte	0x9f
 686 00d9 00       		.byte	0
 687 00da 0A       		.uleb128 0xa
 688 00db 43523200 		.ascii	"CR2\000"
 689 00df 07       		.byte	0x7
 690 00e0 A301     		.2byte	0x1a3
 691 00e2 9F000000 		.4byte	0x9f
 692 00e6 04       		.byte	0x4
 693 00e7 0B       		.uleb128 0xb
 694 00e8 E4010000 		.4byte	.LASF14
 695 00ec 07       		.byte	0x7
 696 00ed A401     		.2byte	0x1a4
 697 00ef 9F000000 		.4byte	0x9f
 698 00f3 08       		.byte	0x8
 699 00f4 0B       		.uleb128 0xb
 700 00f5 66000000 		.4byte	.LASF15
 701 00f9 07       		.byte	0x7
 702 00fa A501     		.2byte	0x1a5
 703 00fc 9F000000 		.4byte	0x9f
 704 0100 0C       		.byte	0xc
 705 0101 0A       		.uleb128 0xa
 706 0102 535200   		.ascii	"SR\000"
 707 0105 07       		.byte	0x7
 708 0106 A601     		.2byte	0x1a6
 709 0108 9F000000 		.4byte	0x9f
 710 010c 10       		.byte	0x10
 711 010d 0A       		.uleb128 0xa
 712 010e 45475200 		.ascii	"EGR\000"
 713 0112 07       		.byte	0x7
 714 0113 A701     		.2byte	0x1a7
 715 0115 9F000000 		.4byte	0x9f
 716 0119 14       		.byte	0x14
 717 011a 0B       		.uleb128 0xb
 718 011b E9010000 		.4byte	.LASF16
 719 011f 07       		.byte	0x7
 720 0120 A801     		.2byte	0x1a8
 721 0122 9F000000 		.4byte	0x9f
 722 0126 18       		.byte	0x18
 723 0127 0B       		.uleb128 0xb
 724 0128 EF010000 		.4byte	.LASF17
 725 012c 07       		.byte	0x7
 726 012d A901     		.2byte	0x1a9
ARM GAS  /tmp/ccsypGf3.s 			page 31


 727 012f 9F000000 		.4byte	0x9f
 728 0133 1C       		.byte	0x1c
 729 0134 0B       		.uleb128 0xb
 730 0135 DF010000 		.4byte	.LASF18
 731 0139 07       		.byte	0x7
 732 013a AA01     		.2byte	0x1aa
 733 013c 9F000000 		.4byte	0x9f
 734 0140 20       		.byte	0x20
 735 0141 0A       		.uleb128 0xa
 736 0142 434E5400 		.ascii	"CNT\000"
 737 0146 07       		.byte	0x7
 738 0147 AB01     		.2byte	0x1ab
 739 0149 9F000000 		.4byte	0x9f
 740 014d 24       		.byte	0x24
 741 014e 0A       		.uleb128 0xa
 742 014f 50534300 		.ascii	"PSC\000"
 743 0153 07       		.byte	0x7
 744 0154 AC01     		.2byte	0x1ac
 745 0156 9F000000 		.4byte	0x9f
 746 015a 28       		.byte	0x28
 747 015b 0A       		.uleb128 0xa
 748 015c 41525200 		.ascii	"ARR\000"
 749 0160 07       		.byte	0x7
 750 0161 AD01     		.2byte	0x1ad
 751 0163 9F000000 		.4byte	0x9f
 752 0167 2C       		.byte	0x2c
 753 0168 0A       		.uleb128 0xa
 754 0169 52435200 		.ascii	"RCR\000"
 755 016d 07       		.byte	0x7
 756 016e AE01     		.2byte	0x1ae
 757 0170 9F000000 		.4byte	0x9f
 758 0174 30       		.byte	0x30
 759 0175 0A       		.uleb128 0xa
 760 0176 43435200 		.ascii	"CCR\000"
 761 017a 07       		.byte	0x7
 762 017b AF01     		.2byte	0x1af
 763 017d D0010000 		.4byte	0x1d0
 764 0181 34       		.byte	0x34
 765 0182 0B       		.uleb128 0xb
 766 0183 00000000 		.4byte	.LASF19
 767 0187 07       		.byte	0x7
 768 0188 B001     		.2byte	0x1b0
 769 018a 9F000000 		.4byte	0x9f
 770 018e 44       		.byte	0x44
 771 018f 0A       		.uleb128 0xa
 772 0190 44435200 		.ascii	"DCR\000"
 773 0194 07       		.byte	0x7
 774 0195 B101     		.2byte	0x1b1
 775 0197 9F000000 		.4byte	0x9f
 776 019b 48       		.byte	0x48
 777 019c 0B       		.uleb128 0xb
 778 019d 39010000 		.4byte	.LASF20
 779 01a1 07       		.byte	0x7
 780 01a2 B201     		.2byte	0x1b2
 781 01a4 9F000000 		.4byte	0x9f
 782 01a8 4C       		.byte	0x4c
 783 01a9 0A       		.uleb128 0xa
ARM GAS  /tmp/ccsypGf3.s 			page 32


 784 01aa 4F5200   		.ascii	"OR\000"
 785 01ad 07       		.byte	0x7
 786 01ae B301     		.2byte	0x1b3
 787 01b0 9F000000 		.4byte	0x9f
 788 01b4 50       		.byte	0x50
 789 01b5 0B       		.uleb128 0xb
 790 01b6 F5010000 		.4byte	.LASF21
 791 01ba 07       		.byte	0x7
 792 01bb B401     		.2byte	0x1b4
 793 01bd 9F000000 		.4byte	0x9f
 794 01c1 54       		.byte	0x54
 795 01c2 0B       		.uleb128 0xb
 796 01c3 EC020000 		.4byte	.LASF22
 797 01c7 07       		.byte	0x7
 798 01c8 B501     		.2byte	0x1b5
 799 01ca D5010000 		.4byte	0x1d5
 800 01ce 58       		.byte	0x58
 801 01cf 00       		.byte	0
 802 01d0 06       		.uleb128 0x6
 803 01d1 B4000000 		.4byte	0xb4
 804 01d5 06       		.uleb128 0x6
 805 01d6 A4000000 		.4byte	0xa4
 806 01da 05       		.uleb128 0x5
 807 01db 5A000000 		.4byte	.LASF23
 808 01df 07       		.byte	0x7
 809 01e0 B601     		.2byte	0x1b6
 810 01e2 C4000000 		.4byte	0xc4
 811 01e6 0C       		.uleb128 0xc
 812 01e7 04       		.byte	0x4
 813 01e8 EC010000 		.4byte	0x1ec
 814 01ec 0D       		.uleb128 0xd
 815 01ed F1010000 		.4byte	0x1f1
 816 01f1 04       		.uleb128 0x4
 817 01f2 01       		.byte	0x1
 818 01f3 08       		.byte	0x8
 819 01f4 DA010000 		.4byte	.LASF24
 820 01f8 04       		.uleb128 0x4
 821 01f9 01       		.byte	0x1
 822 01fa 02       		.byte	0x2
 823 01fb E1020000 		.4byte	.LASF25
 824 01ff 0C       		.uleb128 0xc
 825 0200 04       		.byte	0x4
 826 0201 05020000 		.4byte	0x205
 827 0205 0E       		.uleb128 0xe
 828 0206 0F       		.uleb128 0xf
 829 0207 10       		.byte	0x10
 830 0208 08       		.byte	0x8
 831 0209 3D       		.byte	0x3d
 832 020a 3F020000 		.4byte	0x23f
 833 020e 10       		.uleb128 0x10
 834 020f E7020000 		.4byte	.LASF26
 835 0213 08       		.byte	0x8
 836 0214 3E       		.byte	0x3e
 837 0215 E6010000 		.4byte	0x1e6
 838 0219 00       		.byte	0
 839 021a 10       		.uleb128 0x10
 840 021b A3010000 		.4byte	.LASF27
ARM GAS  /tmp/ccsypGf3.s 			page 33


 841 021f 08       		.byte	0x8
 842 0220 3F       		.byte	0x3f
 843 0221 FF010000 		.4byte	0x1ff
 844 0225 04       		.byte	0x4
 845 0226 10       		.uleb128 0x10
 846 0227 B2000000 		.4byte	.LASF28
 847 022b 08       		.byte	0x8
 848 022c 40       		.byte	0x40
 849 022d FF010000 		.4byte	0x1ff
 850 0231 08       		.byte	0x8
 851 0232 10       		.uleb128 0x10
 852 0233 52000000 		.4byte	.LASF29
 853 0237 08       		.byte	0x8
 854 0238 41       		.byte	0x41
 855 0239 FF010000 		.4byte	0x1ff
 856 023d 0C       		.byte	0xc
 857 023e 00       		.byte	0
 858 023f 03       		.uleb128 0x3
 859 0240 D9000000 		.4byte	.LASF30
 860 0244 08       		.byte	0x8
 861 0245 42       		.byte	0x42
 862 0246 06020000 		.4byte	0x206
 863 024a 11       		.uleb128 0x11
 864 024b 58010000 		.4byte	.LASF31
 865 024f 02       		.byte	0x2
 866 0250 8B       		.byte	0x8b
 867 0251 8C000000 		.4byte	0x8c
 868 0255 03       		.byte	0x3
 869 0256 11       		.uleb128 0x11
 870 0257 78010000 		.4byte	.LASF32
 871 025b 09       		.byte	0x9
 872 025c 69       		.byte	0x69
 873 025d 8C000000 		.4byte	0x8c
 874 0261 03       		.byte	0x3
 875 0262 12       		.uleb128 0x12
 876 0263 C5010000 		.4byte	.LASF41
 877 0267 01       		.byte	0x1
 878 0268 67       		.byte	0x67
 879 0269 01       		.byte	0x1
 880 026a 7A020000 		.4byte	0x27a
 881 026e 13       		.uleb128 0x13
 882 026f A9010000 		.4byte	.LASF33
 883 0273 01       		.byte	0x1
 884 0274 68       		.byte	0x68
 885 0275 8C000000 		.4byte	0x8c
 886 0279 00       		.byte	0
 887 027a 14       		.uleb128 0x14
 888 027b FB010000 		.4byte	.LASF42
 889 027f 01       		.byte	0x1
 890 0280 3D       		.byte	0x3d
 891 0281 00000000 		.4byte	.LFB98
 892 0285 18000000 		.4byte	.LFE98-.LFB98
 893 0289 01       		.uleb128 0x1
 894 028a 9C       		.byte	0x9c
 895 028b E7020000 		.4byte	0x2e7
 896 028f 15       		.uleb128 0x15
 897 0290 06000000 		.4byte	.LBB48
ARM GAS  /tmp/ccsypGf3.s 			page 34


 898 0294 0C000000 		.4byte	.LBE48-.LBB48
 899 0298 13       		.uleb128 0x13
 900 0299 A9010000 		.4byte	.LASF33
 901 029d 01       		.byte	0x1
 902 029e 43       		.byte	0x43
 903 029f 8C000000 		.4byte	0x8c
 904 02a3 16       		.uleb128 0x16
 905 02a4 56020000 		.4byte	0x256
 906 02a8 06000000 		.4byte	.LBB49
 907 02ac 06000000 		.4byte	.LBE49-.LBB49
 908 02b0 01       		.byte	0x1
 909 02b1 43       		.byte	0x43
 910 02b2 C6020000 		.4byte	0x2c6
 911 02b6 17       		.uleb128 0x17
 912 02b7 4A020000 		.4byte	0x24a
 913 02bb 06000000 		.4byte	.LBB50
 914 02bf 06000000 		.4byte	.LBE50-.LBB50
 915 02c3 09       		.byte	0x9
 916 02c4 6B       		.byte	0x6b
 917 02c5 00       		.byte	0
 918 02c6 18       		.uleb128 0x18
 919 02c7 56020000 		.4byte	0x256
 920 02cb 0C000000 		.4byte	.LBB52
 921 02cf 02000000 		.4byte	.LBE52-.LBB52
 922 02d3 01       		.byte	0x1
 923 02d4 44       		.byte	0x44
 924 02d5 17       		.uleb128 0x17
 925 02d6 4A020000 		.4byte	0x24a
 926 02da 0C000000 		.4byte	.LBB53
 927 02de 02000000 		.4byte	.LBE53-.LBB53
 928 02e2 09       		.byte	0x9
 929 02e3 6B       		.byte	0x6b
 930 02e4 00       		.byte	0
 931 02e5 00       		.byte	0
 932 02e6 00       		.byte	0
 933 02e7 19       		.uleb128 0x19
 934 02e8 62020000 		.4byte	0x262
 935 02ec 00000000 		.4byte	.LFB99
 936 02f0 B4000000 		.4byte	.LFE99-.LFB99
 937 02f4 01       		.uleb128 0x1
 938 02f5 9C       		.byte	0x9c
 939 02f6 C8040000 		.4byte	0x4c8
 940 02fa 1A       		.uleb128 0x1a
 941 02fb 6E020000 		.4byte	0x26e
 942 02ff 1B       		.uleb128 0x1b
 943 0300 56020000 		.4byte	0x256
 944 0304 02000000 		.4byte	.LBB78
 945 0308 00000000 		.4byte	.Ldebug_ranges0+0
 946 030c 01       		.byte	0x1
 947 030d 6F       		.byte	0x6f
 948 030e 22030000 		.4byte	0x322
 949 0312 1C       		.uleb128 0x1c
 950 0313 4A020000 		.4byte	0x24a
 951 0317 02000000 		.4byte	.LBB79
 952 031b 00000000 		.4byte	.Ldebug_ranges0+0
 953 031f 09       		.byte	0x9
 954 0320 6B       		.byte	0x6b
ARM GAS  /tmp/ccsypGf3.s 			page 35


 955 0321 00       		.byte	0
 956 0322 16       		.uleb128 0x16
 957 0323 56020000 		.4byte	0x256
 958 0327 2A000000 		.4byte	.LBB84
 959 032b 02000000 		.4byte	.LBE84-.LBB84
 960 032f 01       		.byte	0x1
 961 0330 7B       		.byte	0x7b
 962 0331 45030000 		.4byte	0x345
 963 0335 17       		.uleb128 0x17
 964 0336 4A020000 		.4byte	0x24a
 965 033a 2A000000 		.4byte	.LBB85
 966 033e 02000000 		.4byte	.LBE85-.LBB85
 967 0342 09       		.byte	0x9
 968 0343 6B       		.byte	0x6b
 969 0344 00       		.byte	0
 970 0345 1D       		.uleb128 0x1d
 971 0346 48000000 		.4byte	.LBB88
 972 034a 6C000000 		.4byte	.LBE88-.LBB88
 973 034e 5F040000 		.4byte	0x45f
 974 0352 1A       		.uleb128 0x1a
 975 0353 6E020000 		.4byte	0x26e
 976 0357 16       		.uleb128 0x16
 977 0358 56020000 		.4byte	0x256
 978 035c 48000000 		.4byte	.LBB89
 979 0360 02000000 		.4byte	.LBE89-.LBB89
 980 0364 01       		.byte	0x1
 981 0365 87       		.byte	0x87
 982 0366 7A030000 		.4byte	0x37a
 983 036a 17       		.uleb128 0x17
 984 036b 4A020000 		.4byte	0x24a
 985 036f 48000000 		.4byte	.LBB90
 986 0373 02000000 		.4byte	.LBE90-.LBB90
 987 0377 09       		.byte	0x9
 988 0378 6B       		.byte	0x6b
 989 0379 00       		.byte	0
 990 037a 16       		.uleb128 0x16
 991 037b 56020000 		.4byte	0x256
 992 037f 6C000000 		.4byte	.LBB92
 993 0383 02000000 		.4byte	.LBE92-.LBB92
 994 0387 01       		.byte	0x1
 995 0388 92       		.byte	0x92
 996 0389 9D030000 		.4byte	0x39d
 997 038d 17       		.uleb128 0x17
 998 038e 4A020000 		.4byte	0x24a
 999 0392 6C000000 		.4byte	.LBB93
 1000 0396 02000000 		.4byte	.LBE93-.LBB93
 1001 039a 09       		.byte	0x9
 1002 039b 6B       		.byte	0x6b
 1003 039c 00       		.byte	0
 1004 039d 16       		.uleb128 0x16
 1005 039e 56020000 		.4byte	0x256
 1006 03a2 88000000 		.4byte	.LBB95
 1007 03a6 02000000 		.4byte	.LBE95-.LBB95
 1008 03aa 01       		.byte	0x1
 1009 03ab 9D       		.byte	0x9d
 1010 03ac C0030000 		.4byte	0x3c0
 1011 03b0 17       		.uleb128 0x17
ARM GAS  /tmp/ccsypGf3.s 			page 36


 1012 03b1 4A020000 		.4byte	0x24a
 1013 03b5 88000000 		.4byte	.LBB96
 1014 03b9 02000000 		.4byte	.LBE96-.LBB96
 1015 03bd 09       		.byte	0x9
 1016 03be 6B       		.byte	0x6b
 1017 03bf 00       		.byte	0
 1018 03c0 1E       		.uleb128 0x1e
 1019 03c1 54000000 		.4byte	.LVL4
 1020 03c5 26050000 		.4byte	0x526
 1021 03c9 D4030000 		.4byte	0x3d4
 1022 03cd 1F       		.uleb128 0x1f
 1023 03ce 01       		.uleb128 0x1
 1024 03cf 50       		.byte	0x50
 1025 03d0 02       		.uleb128 0x2
 1026 03d1 08       		.byte	0x8
 1027 03d2 64       		.byte	0x64
 1028 03d3 00       		.byte	0
 1029 03d4 1E       		.uleb128 0x1e
 1030 03d5 62000000 		.4byte	.LVL5
 1031 03d9 38050000 		.4byte	0x538
 1032 03dd F6030000 		.4byte	0x3f6
 1033 03e1 1F       		.uleb128 0x1f
 1034 03e2 01       		.uleb128 0x1
 1035 03e3 52       		.byte	0x52
 1036 03e4 02       		.uleb128 0x2
 1037 03e5 75       		.byte	0x75
 1038 03e6 00       		.sleb128 0
 1039 03e7 1F       		.uleb128 0x1f
 1040 03e8 01       		.uleb128 0x1
 1041 03e9 51       		.byte	0x51
 1042 03ea 03       		.uleb128 0x3
 1043 03eb 74       		.byte	0x74
 1044 03ec E500     		.sleb128 101
 1045 03ee 1F       		.uleb128 0x1f
 1046 03ef 01       		.uleb128 0x1
 1047 03f0 50       		.byte	0x50
 1048 03f1 03       		.uleb128 0x3
 1049 03f2 74       		.byte	0x74
 1050 03f3 E400     		.sleb128 100
 1051 03f5 00       		.byte	0
 1052 03f6 1E       		.uleb128 0x1e
 1053 03f7 74000000 		.4byte	.LVL6
 1054 03fb 26050000 		.4byte	0x526
 1055 03ff 0B040000 		.4byte	0x40b
 1056 0403 1F       		.uleb128 0x1f
 1057 0404 01       		.uleb128 0x1
 1058 0405 50       		.byte	0x50
 1059 0406 03       		.uleb128 0x3
 1060 0407 0A       		.byte	0xa
 1061 0408 E803     		.2byte	0x3e8
 1062 040a 00       		.byte	0
 1063 040b 1E       		.uleb128 0x1e
 1064 040c 84000000 		.4byte	.LVL7
 1065 0410 38050000 		.4byte	0x538
 1066 0414 2D040000 		.4byte	0x42d
 1067 0418 1F       		.uleb128 0x1f
 1068 0419 01       		.uleb128 0x1
ARM GAS  /tmp/ccsypGf3.s 			page 37


 1069 041a 52       		.byte	0x52
 1070 041b 02       		.uleb128 0x2
 1071 041c 75       		.byte	0x75
 1072 041d 00       		.sleb128 0
 1073 041e 1F       		.uleb128 0x1f
 1074 041f 01       		.uleb128 0x1
 1075 0420 51       		.byte	0x51
 1076 0421 03       		.uleb128 0x3
 1077 0422 74       		.byte	0x74
 1078 0423 E907     		.sleb128 1001
 1079 0425 1F       		.uleb128 0x1f
 1080 0426 01       		.uleb128 0x1
 1081 0427 50       		.byte	0x50
 1082 0428 03       		.uleb128 0x3
 1083 0429 74       		.byte	0x74
 1084 042a E807     		.sleb128 1000
 1085 042c 00       		.byte	0
 1086 042d 1E       		.uleb128 0x1e
 1087 042e 98000000 		.4byte	.LVL8
 1088 0432 57050000 		.4byte	0x557
 1089 0436 41040000 		.4byte	0x441
 1090 043a 1F       		.uleb128 0x1f
 1091 043b 01       		.uleb128 0x1
 1092 043c 50       		.byte	0x50
 1093 043d 02       		.uleb128 0x2
 1094 043e 74       		.byte	0x74
 1095 043f 00       		.sleb128 0
 1096 0440 00       		.byte	0
 1097 0441 20       		.uleb128 0x20
 1098 0442 A4000000 		.4byte	.LVL9
 1099 0446 38050000 		.4byte	0x538
 1100 044a 1F       		.uleb128 0x1f
 1101 044b 01       		.uleb128 0x1
 1102 044c 52       		.byte	0x52
 1103 044d 02       		.uleb128 0x2
 1104 044e 75       		.byte	0x75
 1105 044f 00       		.sleb128 0
 1106 0450 1F       		.uleb128 0x1f
 1107 0451 01       		.uleb128 0x1
 1108 0452 51       		.byte	0x51
 1109 0453 03       		.uleb128 0x3
 1110 0454 76       		.byte	0x76
 1111 0455 E500     		.sleb128 101
 1112 0457 1F       		.uleb128 0x1f
 1113 0458 01       		.uleb128 0x1
 1114 0459 50       		.byte	0x50
 1115 045a 02       		.uleb128 0x2
 1116 045b 74       		.byte	0x74
 1117 045c 00       		.sleb128 0
 1118 045d 00       		.byte	0
 1119 045e 00       		.byte	0
 1120 045f 1E       		.uleb128 0x1e
 1121 0460 14000000 		.4byte	.LVL0
 1122 0464 26050000 		.4byte	0x526
 1123 0468 73040000 		.4byte	0x473
 1124 046c 1F       		.uleb128 0x1f
 1125 046d 01       		.uleb128 0x1
ARM GAS  /tmp/ccsypGf3.s 			page 38


 1126 046e 50       		.byte	0x50
 1127 046f 02       		.uleb128 0x2
 1128 0470 08       		.byte	0x8
 1129 0471 64       		.byte	0x64
 1130 0472 00       		.byte	0
 1131 0473 1E       		.uleb128 0x1e
 1132 0474 24000000 		.4byte	.LVL1
 1133 0478 38050000 		.4byte	0x538
 1134 047c 95040000 		.4byte	0x495
 1135 0480 1F       		.uleb128 0x1f
 1136 0481 01       		.uleb128 0x1
 1137 0482 52       		.byte	0x52
 1138 0483 02       		.uleb128 0x2
 1139 0484 75       		.byte	0x75
 1140 0485 00       		.sleb128 0
 1141 0486 1F       		.uleb128 0x1f
 1142 0487 01       		.uleb128 0x1
 1143 0488 51       		.byte	0x51
 1144 0489 03       		.uleb128 0x3
 1145 048a 74       		.byte	0x74
 1146 048b E500     		.sleb128 101
 1147 048d 1F       		.uleb128 0x1f
 1148 048e 01       		.uleb128 0x1
 1149 048f 50       		.byte	0x50
 1150 0490 03       		.uleb128 0x3
 1151 0491 74       		.byte	0x74
 1152 0492 E400     		.sleb128 100
 1153 0494 00       		.byte	0
 1154 0495 1E       		.uleb128 0x1e
 1155 0496 36000000 		.4byte	.LVL2
 1156 049a 26050000 		.4byte	0x526
 1157 049e A9040000 		.4byte	0x4a9
 1158 04a2 1F       		.uleb128 0x1f
 1159 04a3 01       		.uleb128 0x1
 1160 04a4 50       		.byte	0x50
 1161 04a5 02       		.uleb128 0x2
 1162 04a6 08       		.byte	0x8
 1163 04a7 64       		.byte	0x64
 1164 04a8 00       		.byte	0
 1165 04a9 20       		.uleb128 0x20
 1166 04aa 44000000 		.4byte	.LVL3
 1167 04ae 38050000 		.4byte	0x538
 1168 04b2 1F       		.uleb128 0x1f
 1169 04b3 01       		.uleb128 0x1
 1170 04b4 52       		.byte	0x52
 1171 04b5 02       		.uleb128 0x2
 1172 04b6 75       		.byte	0x75
 1173 04b7 00       		.sleb128 0
 1174 04b8 1F       		.uleb128 0x1f
 1175 04b9 01       		.uleb128 0x1
 1176 04ba 51       		.byte	0x51
 1177 04bb 03       		.uleb128 0x3
 1178 04bc 74       		.byte	0x74
 1179 04bd E500     		.sleb128 101
 1180 04bf 1F       		.uleb128 0x1f
 1181 04c0 01       		.uleb128 0x1
 1182 04c1 50       		.byte	0x50
ARM GAS  /tmp/ccsypGf3.s 			page 39


 1183 04c2 03       		.uleb128 0x3
 1184 04c3 74       		.byte	0x74
 1185 04c4 E400     		.sleb128 100
 1186 04c6 00       		.byte	0
 1187 04c7 00       		.byte	0
 1188 04c8 21       		.uleb128 0x21
 1189 04c9 3E010000 		.4byte	.LASF34
 1190 04cd 01       		.byte	0x1
 1191 04ce 49       		.byte	0x49
 1192 04cf D9040000 		.4byte	0x4d9
 1193 04d3 05       		.uleb128 0x5
 1194 04d4 03       		.byte	0x3
 1195 04d5 00000000 		.4byte	test_001_001
 1196 04d9 0D       		.uleb128 0xd
 1197 04da 3F020000 		.4byte	0x23f
 1198 04de 21       		.uleb128 0x21
 1199 04df 4B010000 		.4byte	.LASF35
 1200 04e3 01       		.byte	0x1
 1201 04e4 A5       		.byte	0xa5
 1202 04e5 D9040000 		.4byte	0x4d9
 1203 04e9 05       		.uleb128 0x5
 1204 04ea 03       		.byte	0x3
 1205 04eb 00000000 		.4byte	test_001_002
 1206 04ef 22       		.uleb128 0x22
 1207 04f0 96000000 		.4byte	.LASF36
 1208 04f4 08       		.byte	0x8
 1209 04f5 9E       		.byte	0x9e
 1210 04f6 37000000 		.4byte	0x37
 1211 04fa 07       		.uleb128 0x7
 1212 04fb 0A050000 		.4byte	0x50a
 1213 04ff 0A050000 		.4byte	0x50a
 1214 0503 08       		.uleb128 0x8
 1215 0504 98000000 		.4byte	0x98
 1216 0508 02       		.byte	0x2
 1217 0509 00       		.byte	0
 1218 050a 0C       		.uleb128 0xc
 1219 050b 04       		.byte	0x4
 1220 050c D9040000 		.4byte	0x4d9
 1221 0510 23       		.uleb128 0x23
 1222 0511 84000000 		.4byte	.LASF37
 1223 0515 01       		.byte	0x1
 1224 0516 B3       		.byte	0xb3
 1225 0517 21050000 		.4byte	0x521
 1226 051b 05       		.uleb128 0x5
 1227 051c 03       		.byte	0x3
 1228 051d 00000000 		.4byte	test_sequence_001
 1229 0521 0D       		.uleb128 0xd
 1230 0522 FA040000 		.4byte	0x4fa
 1231 0526 24       		.uleb128 0x24
 1232 0527 79000000 		.4byte	.LASF43
 1233 052b 06       		.byte	0x6
 1234 052c 3E05     		.2byte	0x53e
 1235 052e 38050000 		.4byte	0x538
 1236 0532 25       		.uleb128 0x25
 1237 0533 8C000000 		.4byte	0x8c
 1238 0537 00       		.byte	0
 1239 0538 26       		.uleb128 0x26
ARM GAS  /tmp/ccsypGf3.s 			page 40


 1240 0539 16010000 		.4byte	.LASF44
 1241 053d 08       		.byte	0x8
 1242 053e A8       		.byte	0xa8
 1243 053f F8010000 		.4byte	0x1f8
 1244 0543 57050000 		.4byte	0x557
 1245 0547 25       		.uleb128 0x25
 1246 0548 8C000000 		.4byte	0x8c
 1247 054c 25       		.uleb128 0x25
 1248 054d 8C000000 		.4byte	0x8c
 1249 0551 25       		.uleb128 0x25
 1250 0552 E6010000 		.4byte	0x1e6
 1251 0556 00       		.byte	0
 1252 0557 27       		.uleb128 0x27
 1253 0558 D1020000 		.4byte	.LASF45
 1254 055c 06       		.byte	0x6
 1255 055d 3F05     		.2byte	0x53f
 1256 055f 25       		.uleb128 0x25
 1257 0560 8C000000 		.4byte	0x8c
 1258 0564 00       		.byte	0
 1259 0565 00       		.byte	0
 1260              		.section	.debug_abbrev,"",%progbits
 1261              	.Ldebug_abbrev0:
 1262 0000 01       		.uleb128 0x1
 1263 0001 11       		.uleb128 0x11
 1264 0002 01       		.byte	0x1
 1265 0003 25       		.uleb128 0x25
 1266 0004 0E       		.uleb128 0xe
 1267 0005 13       		.uleb128 0x13
 1268 0006 0B       		.uleb128 0xb
 1269 0007 03       		.uleb128 0x3
 1270 0008 0E       		.uleb128 0xe
 1271 0009 1B       		.uleb128 0x1b
 1272 000a 0E       		.uleb128 0xe
 1273 000b 55       		.uleb128 0x55
 1274 000c 17       		.uleb128 0x17
 1275 000d 11       		.uleb128 0x11
 1276 000e 01       		.uleb128 0x1
 1277 000f 10       		.uleb128 0x10
 1278 0010 17       		.uleb128 0x17
 1279 0011 00       		.byte	0
 1280 0012 00       		.byte	0
 1281 0013 02       		.uleb128 0x2
 1282 0014 24       		.uleb128 0x24
 1283 0015 00       		.byte	0
 1284 0016 0B       		.uleb128 0xb
 1285 0017 0B       		.uleb128 0xb
 1286 0018 3E       		.uleb128 0x3e
 1287 0019 0B       		.uleb128 0xb
 1288 001a 03       		.uleb128 0x3
 1289 001b 08       		.uleb128 0x8
 1290 001c 00       		.byte	0
 1291 001d 00       		.byte	0
 1292 001e 03       		.uleb128 0x3
 1293 001f 16       		.uleb128 0x16
 1294 0020 00       		.byte	0
 1295 0021 03       		.uleb128 0x3
 1296 0022 0E       		.uleb128 0xe
ARM GAS  /tmp/ccsypGf3.s 			page 41


 1297 0023 3A       		.uleb128 0x3a
 1298 0024 0B       		.uleb128 0xb
 1299 0025 3B       		.uleb128 0x3b
 1300 0026 0B       		.uleb128 0xb
 1301 0027 49       		.uleb128 0x49
 1302 0028 13       		.uleb128 0x13
 1303 0029 00       		.byte	0
 1304 002a 00       		.byte	0
 1305 002b 04       		.uleb128 0x4
 1306 002c 24       		.uleb128 0x24
 1307 002d 00       		.byte	0
 1308 002e 0B       		.uleb128 0xb
 1309 002f 0B       		.uleb128 0xb
 1310 0030 3E       		.uleb128 0x3e
 1311 0031 0B       		.uleb128 0xb
 1312 0032 03       		.uleb128 0x3
 1313 0033 0E       		.uleb128 0xe
 1314 0034 00       		.byte	0
 1315 0035 00       		.byte	0
 1316 0036 05       		.uleb128 0x5
 1317 0037 16       		.uleb128 0x16
 1318 0038 00       		.byte	0
 1319 0039 03       		.uleb128 0x3
 1320 003a 0E       		.uleb128 0xe
 1321 003b 3A       		.uleb128 0x3a
 1322 003c 0B       		.uleb128 0xb
 1323 003d 3B       		.uleb128 0x3b
 1324 003e 05       		.uleb128 0x5
 1325 003f 49       		.uleb128 0x49
 1326 0040 13       		.uleb128 0x13
 1327 0041 00       		.byte	0
 1328 0042 00       		.byte	0
 1329 0043 06       		.uleb128 0x6
 1330 0044 35       		.uleb128 0x35
 1331 0045 00       		.byte	0
 1332 0046 49       		.uleb128 0x49
 1333 0047 13       		.uleb128 0x13
 1334 0048 00       		.byte	0
 1335 0049 00       		.byte	0
 1336 004a 07       		.uleb128 0x7
 1337 004b 01       		.uleb128 0x1
 1338 004c 01       		.byte	0x1
 1339 004d 49       		.uleb128 0x49
 1340 004e 13       		.uleb128 0x13
 1341 004f 01       		.uleb128 0x1
 1342 0050 13       		.uleb128 0x13
 1343 0051 00       		.byte	0
 1344 0052 00       		.byte	0
 1345 0053 08       		.uleb128 0x8
 1346 0054 21       		.uleb128 0x21
 1347 0055 00       		.byte	0
 1348 0056 49       		.uleb128 0x49
 1349 0057 13       		.uleb128 0x13
 1350 0058 2F       		.uleb128 0x2f
 1351 0059 0B       		.uleb128 0xb
 1352 005a 00       		.byte	0
 1353 005b 00       		.byte	0
ARM GAS  /tmp/ccsypGf3.s 			page 42


 1354 005c 09       		.uleb128 0x9
 1355 005d 13       		.uleb128 0x13
 1356 005e 01       		.byte	0x1
 1357 005f 0B       		.uleb128 0xb
 1358 0060 0B       		.uleb128 0xb
 1359 0061 3A       		.uleb128 0x3a
 1360 0062 0B       		.uleb128 0xb
 1361 0063 3B       		.uleb128 0x3b
 1362 0064 05       		.uleb128 0x5
 1363 0065 01       		.uleb128 0x1
 1364 0066 13       		.uleb128 0x13
 1365 0067 00       		.byte	0
 1366 0068 00       		.byte	0
 1367 0069 0A       		.uleb128 0xa
 1368 006a 0D       		.uleb128 0xd
 1369 006b 00       		.byte	0
 1370 006c 03       		.uleb128 0x3
 1371 006d 08       		.uleb128 0x8
 1372 006e 3A       		.uleb128 0x3a
 1373 006f 0B       		.uleb128 0xb
 1374 0070 3B       		.uleb128 0x3b
 1375 0071 05       		.uleb128 0x5
 1376 0072 49       		.uleb128 0x49
 1377 0073 13       		.uleb128 0x13
 1378 0074 38       		.uleb128 0x38
 1379 0075 0B       		.uleb128 0xb
 1380 0076 00       		.byte	0
 1381 0077 00       		.byte	0
 1382 0078 0B       		.uleb128 0xb
 1383 0079 0D       		.uleb128 0xd
 1384 007a 00       		.byte	0
 1385 007b 03       		.uleb128 0x3
 1386 007c 0E       		.uleb128 0xe
 1387 007d 3A       		.uleb128 0x3a
 1388 007e 0B       		.uleb128 0xb
 1389 007f 3B       		.uleb128 0x3b
 1390 0080 05       		.uleb128 0x5
 1391 0081 49       		.uleb128 0x49
 1392 0082 13       		.uleb128 0x13
 1393 0083 38       		.uleb128 0x38
 1394 0084 0B       		.uleb128 0xb
 1395 0085 00       		.byte	0
 1396 0086 00       		.byte	0
 1397 0087 0C       		.uleb128 0xc
 1398 0088 0F       		.uleb128 0xf
 1399 0089 00       		.byte	0
 1400 008a 0B       		.uleb128 0xb
 1401 008b 0B       		.uleb128 0xb
 1402 008c 49       		.uleb128 0x49
 1403 008d 13       		.uleb128 0x13
 1404 008e 00       		.byte	0
 1405 008f 00       		.byte	0
 1406 0090 0D       		.uleb128 0xd
 1407 0091 26       		.uleb128 0x26
 1408 0092 00       		.byte	0
 1409 0093 49       		.uleb128 0x49
 1410 0094 13       		.uleb128 0x13
ARM GAS  /tmp/ccsypGf3.s 			page 43


 1411 0095 00       		.byte	0
 1412 0096 00       		.byte	0
 1413 0097 0E       		.uleb128 0xe
 1414 0098 15       		.uleb128 0x15
 1415 0099 00       		.byte	0
 1416 009a 27       		.uleb128 0x27
 1417 009b 19       		.uleb128 0x19
 1418 009c 00       		.byte	0
 1419 009d 00       		.byte	0
 1420 009e 0F       		.uleb128 0xf
 1421 009f 13       		.uleb128 0x13
 1422 00a0 01       		.byte	0x1
 1423 00a1 0B       		.uleb128 0xb
 1424 00a2 0B       		.uleb128 0xb
 1425 00a3 3A       		.uleb128 0x3a
 1426 00a4 0B       		.uleb128 0xb
 1427 00a5 3B       		.uleb128 0x3b
 1428 00a6 0B       		.uleb128 0xb
 1429 00a7 01       		.uleb128 0x1
 1430 00a8 13       		.uleb128 0x13
 1431 00a9 00       		.byte	0
 1432 00aa 00       		.byte	0
 1433 00ab 10       		.uleb128 0x10
 1434 00ac 0D       		.uleb128 0xd
 1435 00ad 00       		.byte	0
 1436 00ae 03       		.uleb128 0x3
 1437 00af 0E       		.uleb128 0xe
 1438 00b0 3A       		.uleb128 0x3a
 1439 00b1 0B       		.uleb128 0xb
 1440 00b2 3B       		.uleb128 0x3b
 1441 00b3 0B       		.uleb128 0xb
 1442 00b4 49       		.uleb128 0x49
 1443 00b5 13       		.uleb128 0x13
 1444 00b6 38       		.uleb128 0x38
 1445 00b7 0B       		.uleb128 0xb
 1446 00b8 00       		.byte	0
 1447 00b9 00       		.byte	0
 1448 00ba 11       		.uleb128 0x11
 1449 00bb 2E       		.uleb128 0x2e
 1450 00bc 00       		.byte	0
 1451 00bd 03       		.uleb128 0x3
 1452 00be 0E       		.uleb128 0xe
 1453 00bf 3A       		.uleb128 0x3a
 1454 00c0 0B       		.uleb128 0xb
 1455 00c1 3B       		.uleb128 0x3b
 1456 00c2 0B       		.uleb128 0xb
 1457 00c3 27       		.uleb128 0x27
 1458 00c4 19       		.uleb128 0x19
 1459 00c5 49       		.uleb128 0x49
 1460 00c6 13       		.uleb128 0x13
 1461 00c7 20       		.uleb128 0x20
 1462 00c8 0B       		.uleb128 0xb
 1463 00c9 00       		.byte	0
 1464 00ca 00       		.byte	0
 1465 00cb 12       		.uleb128 0x12
 1466 00cc 2E       		.uleb128 0x2e
 1467 00cd 01       		.byte	0x1
ARM GAS  /tmp/ccsypGf3.s 			page 44


 1468 00ce 03       		.uleb128 0x3
 1469 00cf 0E       		.uleb128 0xe
 1470 00d0 3A       		.uleb128 0x3a
 1471 00d1 0B       		.uleb128 0xb
 1472 00d2 3B       		.uleb128 0x3b
 1473 00d3 0B       		.uleb128 0xb
 1474 00d4 27       		.uleb128 0x27
 1475 00d5 19       		.uleb128 0x19
 1476 00d6 20       		.uleb128 0x20
 1477 00d7 0B       		.uleb128 0xb
 1478 00d8 01       		.uleb128 0x1
 1479 00d9 13       		.uleb128 0x13
 1480 00da 00       		.byte	0
 1481 00db 00       		.byte	0
 1482 00dc 13       		.uleb128 0x13
 1483 00dd 34       		.uleb128 0x34
 1484 00de 00       		.byte	0
 1485 00df 03       		.uleb128 0x3
 1486 00e0 0E       		.uleb128 0xe
 1487 00e1 3A       		.uleb128 0x3a
 1488 00e2 0B       		.uleb128 0xb
 1489 00e3 3B       		.uleb128 0x3b
 1490 00e4 0B       		.uleb128 0xb
 1491 00e5 49       		.uleb128 0x49
 1492 00e6 13       		.uleb128 0x13
 1493 00e7 00       		.byte	0
 1494 00e8 00       		.byte	0
 1495 00e9 14       		.uleb128 0x14
 1496 00ea 2E       		.uleb128 0x2e
 1497 00eb 01       		.byte	0x1
 1498 00ec 03       		.uleb128 0x3
 1499 00ed 0E       		.uleb128 0xe
 1500 00ee 3A       		.uleb128 0x3a
 1501 00ef 0B       		.uleb128 0xb
 1502 00f0 3B       		.uleb128 0x3b
 1503 00f1 0B       		.uleb128 0xb
 1504 00f2 27       		.uleb128 0x27
 1505 00f3 19       		.uleb128 0x19
 1506 00f4 11       		.uleb128 0x11
 1507 00f5 01       		.uleb128 0x1
 1508 00f6 12       		.uleb128 0x12
 1509 00f7 06       		.uleb128 0x6
 1510 00f8 40       		.uleb128 0x40
 1511 00f9 18       		.uleb128 0x18
 1512 00fa 9742     		.uleb128 0x2117
 1513 00fc 19       		.uleb128 0x19
 1514 00fd 01       		.uleb128 0x1
 1515 00fe 13       		.uleb128 0x13
 1516 00ff 00       		.byte	0
 1517 0100 00       		.byte	0
 1518 0101 15       		.uleb128 0x15
 1519 0102 0B       		.uleb128 0xb
 1520 0103 01       		.byte	0x1
 1521 0104 11       		.uleb128 0x11
 1522 0105 01       		.uleb128 0x1
 1523 0106 12       		.uleb128 0x12
 1524 0107 06       		.uleb128 0x6
ARM GAS  /tmp/ccsypGf3.s 			page 45


 1525 0108 00       		.byte	0
 1526 0109 00       		.byte	0
 1527 010a 16       		.uleb128 0x16
 1528 010b 1D       		.uleb128 0x1d
 1529 010c 01       		.byte	0x1
 1530 010d 31       		.uleb128 0x31
 1531 010e 13       		.uleb128 0x13
 1532 010f 11       		.uleb128 0x11
 1533 0110 01       		.uleb128 0x1
 1534 0111 12       		.uleb128 0x12
 1535 0112 06       		.uleb128 0x6
 1536 0113 58       		.uleb128 0x58
 1537 0114 0B       		.uleb128 0xb
 1538 0115 59       		.uleb128 0x59
 1539 0116 0B       		.uleb128 0xb
 1540 0117 01       		.uleb128 0x1
 1541 0118 13       		.uleb128 0x13
 1542 0119 00       		.byte	0
 1543 011a 00       		.byte	0
 1544 011b 17       		.uleb128 0x17
 1545 011c 1D       		.uleb128 0x1d
 1546 011d 00       		.byte	0
 1547 011e 31       		.uleb128 0x31
 1548 011f 13       		.uleb128 0x13
 1549 0120 11       		.uleb128 0x11
 1550 0121 01       		.uleb128 0x1
 1551 0122 12       		.uleb128 0x12
 1552 0123 06       		.uleb128 0x6
 1553 0124 58       		.uleb128 0x58
 1554 0125 0B       		.uleb128 0xb
 1555 0126 59       		.uleb128 0x59
 1556 0127 0B       		.uleb128 0xb
 1557 0128 00       		.byte	0
 1558 0129 00       		.byte	0
 1559 012a 18       		.uleb128 0x18
 1560 012b 1D       		.uleb128 0x1d
 1561 012c 01       		.byte	0x1
 1562 012d 31       		.uleb128 0x31
 1563 012e 13       		.uleb128 0x13
 1564 012f 11       		.uleb128 0x11
 1565 0130 01       		.uleb128 0x1
 1566 0131 12       		.uleb128 0x12
 1567 0132 06       		.uleb128 0x6
 1568 0133 58       		.uleb128 0x58
 1569 0134 0B       		.uleb128 0xb
 1570 0135 59       		.uleb128 0x59
 1571 0136 0B       		.uleb128 0xb
 1572 0137 00       		.byte	0
 1573 0138 00       		.byte	0
 1574 0139 19       		.uleb128 0x19
 1575 013a 2E       		.uleb128 0x2e
 1576 013b 01       		.byte	0x1
 1577 013c 31       		.uleb128 0x31
 1578 013d 13       		.uleb128 0x13
 1579 013e 11       		.uleb128 0x11
 1580 013f 01       		.uleb128 0x1
 1581 0140 12       		.uleb128 0x12
ARM GAS  /tmp/ccsypGf3.s 			page 46


 1582 0141 06       		.uleb128 0x6
 1583 0142 40       		.uleb128 0x40
 1584 0143 18       		.uleb128 0x18
 1585 0144 9742     		.uleb128 0x2117
 1586 0146 19       		.uleb128 0x19
 1587 0147 01       		.uleb128 0x1
 1588 0148 13       		.uleb128 0x13
 1589 0149 00       		.byte	0
 1590 014a 00       		.byte	0
 1591 014b 1A       		.uleb128 0x1a
 1592 014c 34       		.uleb128 0x34
 1593 014d 00       		.byte	0
 1594 014e 31       		.uleb128 0x31
 1595 014f 13       		.uleb128 0x13
 1596 0150 00       		.byte	0
 1597 0151 00       		.byte	0
 1598 0152 1B       		.uleb128 0x1b
 1599 0153 1D       		.uleb128 0x1d
 1600 0154 01       		.byte	0x1
 1601 0155 31       		.uleb128 0x31
 1602 0156 13       		.uleb128 0x13
 1603 0157 52       		.uleb128 0x52
 1604 0158 01       		.uleb128 0x1
 1605 0159 55       		.uleb128 0x55
 1606 015a 17       		.uleb128 0x17
 1607 015b 58       		.uleb128 0x58
 1608 015c 0B       		.uleb128 0xb
 1609 015d 59       		.uleb128 0x59
 1610 015e 0B       		.uleb128 0xb
 1611 015f 01       		.uleb128 0x1
 1612 0160 13       		.uleb128 0x13
 1613 0161 00       		.byte	0
 1614 0162 00       		.byte	0
 1615 0163 1C       		.uleb128 0x1c
 1616 0164 1D       		.uleb128 0x1d
 1617 0165 00       		.byte	0
 1618 0166 31       		.uleb128 0x31
 1619 0167 13       		.uleb128 0x13
 1620 0168 52       		.uleb128 0x52
 1621 0169 01       		.uleb128 0x1
 1622 016a 55       		.uleb128 0x55
 1623 016b 17       		.uleb128 0x17
 1624 016c 58       		.uleb128 0x58
 1625 016d 0B       		.uleb128 0xb
 1626 016e 59       		.uleb128 0x59
 1627 016f 0B       		.uleb128 0xb
 1628 0170 00       		.byte	0
 1629 0171 00       		.byte	0
 1630 0172 1D       		.uleb128 0x1d
 1631 0173 0B       		.uleb128 0xb
 1632 0174 01       		.byte	0x1
 1633 0175 11       		.uleb128 0x11
 1634 0176 01       		.uleb128 0x1
 1635 0177 12       		.uleb128 0x12
 1636 0178 06       		.uleb128 0x6
 1637 0179 01       		.uleb128 0x1
 1638 017a 13       		.uleb128 0x13
ARM GAS  /tmp/ccsypGf3.s 			page 47


 1639 017b 00       		.byte	0
 1640 017c 00       		.byte	0
 1641 017d 1E       		.uleb128 0x1e
 1642 017e 898201   		.uleb128 0x4109
 1643 0181 01       		.byte	0x1
 1644 0182 11       		.uleb128 0x11
 1645 0183 01       		.uleb128 0x1
 1646 0184 31       		.uleb128 0x31
 1647 0185 13       		.uleb128 0x13
 1648 0186 01       		.uleb128 0x1
 1649 0187 13       		.uleb128 0x13
 1650 0188 00       		.byte	0
 1651 0189 00       		.byte	0
 1652 018a 1F       		.uleb128 0x1f
 1653 018b 8A8201   		.uleb128 0x410a
 1654 018e 00       		.byte	0
 1655 018f 02       		.uleb128 0x2
 1656 0190 18       		.uleb128 0x18
 1657 0191 9142     		.uleb128 0x2111
 1658 0193 18       		.uleb128 0x18
 1659 0194 00       		.byte	0
 1660 0195 00       		.byte	0
 1661 0196 20       		.uleb128 0x20
 1662 0197 898201   		.uleb128 0x4109
 1663 019a 01       		.byte	0x1
 1664 019b 11       		.uleb128 0x11
 1665 019c 01       		.uleb128 0x1
 1666 019d 31       		.uleb128 0x31
 1667 019e 13       		.uleb128 0x13
 1668 019f 00       		.byte	0
 1669 01a0 00       		.byte	0
 1670 01a1 21       		.uleb128 0x21
 1671 01a2 34       		.uleb128 0x34
 1672 01a3 00       		.byte	0
 1673 01a4 03       		.uleb128 0x3
 1674 01a5 0E       		.uleb128 0xe
 1675 01a6 3A       		.uleb128 0x3a
 1676 01a7 0B       		.uleb128 0xb
 1677 01a8 3B       		.uleb128 0x3b
 1678 01a9 0B       		.uleb128 0xb
 1679 01aa 49       		.uleb128 0x49
 1680 01ab 13       		.uleb128 0x13
 1681 01ac 02       		.uleb128 0x2
 1682 01ad 18       		.uleb128 0x18
 1683 01ae 00       		.byte	0
 1684 01af 00       		.byte	0
 1685 01b0 22       		.uleb128 0x22
 1686 01b1 34       		.uleb128 0x34
 1687 01b2 00       		.byte	0
 1688 01b3 03       		.uleb128 0x3
 1689 01b4 0E       		.uleb128 0xe
 1690 01b5 3A       		.uleb128 0x3a
 1691 01b6 0B       		.uleb128 0xb
 1692 01b7 3B       		.uleb128 0x3b
 1693 01b8 0B       		.uleb128 0xb
 1694 01b9 49       		.uleb128 0x49
 1695 01ba 13       		.uleb128 0x13
ARM GAS  /tmp/ccsypGf3.s 			page 48


 1696 01bb 3F       		.uleb128 0x3f
 1697 01bc 19       		.uleb128 0x19
 1698 01bd 3C       		.uleb128 0x3c
 1699 01be 19       		.uleb128 0x19
 1700 01bf 00       		.byte	0
 1701 01c0 00       		.byte	0
 1702 01c1 23       		.uleb128 0x23
 1703 01c2 34       		.uleb128 0x34
 1704 01c3 00       		.byte	0
 1705 01c4 03       		.uleb128 0x3
 1706 01c5 0E       		.uleb128 0xe
 1707 01c6 3A       		.uleb128 0x3a
 1708 01c7 0B       		.uleb128 0xb
 1709 01c8 3B       		.uleb128 0x3b
 1710 01c9 0B       		.uleb128 0xb
 1711 01ca 49       		.uleb128 0x49
 1712 01cb 13       		.uleb128 0x13
 1713 01cc 3F       		.uleb128 0x3f
 1714 01cd 19       		.uleb128 0x19
 1715 01ce 02       		.uleb128 0x2
 1716 01cf 18       		.uleb128 0x18
 1717 01d0 00       		.byte	0
 1718 01d1 00       		.byte	0
 1719 01d2 24       		.uleb128 0x24
 1720 01d3 2E       		.uleb128 0x2e
 1721 01d4 01       		.byte	0x1
 1722 01d5 3F       		.uleb128 0x3f
 1723 01d6 19       		.uleb128 0x19
 1724 01d7 03       		.uleb128 0x3
 1725 01d8 0E       		.uleb128 0xe
 1726 01d9 3A       		.uleb128 0x3a
 1727 01da 0B       		.uleb128 0xb
 1728 01db 3B       		.uleb128 0x3b
 1729 01dc 05       		.uleb128 0x5
 1730 01dd 27       		.uleb128 0x27
 1731 01de 19       		.uleb128 0x19
 1732 01df 3C       		.uleb128 0x3c
 1733 01e0 19       		.uleb128 0x19
 1734 01e1 01       		.uleb128 0x1
 1735 01e2 13       		.uleb128 0x13
 1736 01e3 00       		.byte	0
 1737 01e4 00       		.byte	0
 1738 01e5 25       		.uleb128 0x25
 1739 01e6 05       		.uleb128 0x5
 1740 01e7 00       		.byte	0
 1741 01e8 49       		.uleb128 0x49
 1742 01e9 13       		.uleb128 0x13
 1743 01ea 00       		.byte	0
 1744 01eb 00       		.byte	0
 1745 01ec 26       		.uleb128 0x26
 1746 01ed 2E       		.uleb128 0x2e
 1747 01ee 01       		.byte	0x1
 1748 01ef 3F       		.uleb128 0x3f
 1749 01f0 19       		.uleb128 0x19
 1750 01f1 03       		.uleb128 0x3
 1751 01f2 0E       		.uleb128 0xe
 1752 01f3 3A       		.uleb128 0x3a
ARM GAS  /tmp/ccsypGf3.s 			page 49


 1753 01f4 0B       		.uleb128 0xb
 1754 01f5 3B       		.uleb128 0x3b
 1755 01f6 0B       		.uleb128 0xb
 1756 01f7 27       		.uleb128 0x27
 1757 01f8 19       		.uleb128 0x19
 1758 01f9 49       		.uleb128 0x49
 1759 01fa 13       		.uleb128 0x13
 1760 01fb 3C       		.uleb128 0x3c
 1761 01fc 19       		.uleb128 0x19
 1762 01fd 01       		.uleb128 0x1
 1763 01fe 13       		.uleb128 0x13
 1764 01ff 00       		.byte	0
 1765 0200 00       		.byte	0
 1766 0201 27       		.uleb128 0x27
 1767 0202 2E       		.uleb128 0x2e
 1768 0203 01       		.byte	0x1
 1769 0204 3F       		.uleb128 0x3f
 1770 0205 19       		.uleb128 0x19
 1771 0206 03       		.uleb128 0x3
 1772 0207 0E       		.uleb128 0xe
 1773 0208 3A       		.uleb128 0x3a
 1774 0209 0B       		.uleb128 0xb
 1775 020a 3B       		.uleb128 0x3b
 1776 020b 05       		.uleb128 0x5
 1777 020c 27       		.uleb128 0x27
 1778 020d 19       		.uleb128 0x19
 1779 020e 3C       		.uleb128 0x3c
 1780 020f 19       		.uleb128 0x19
 1781 0210 00       		.byte	0
 1782 0211 00       		.byte	0
 1783 0212 00       		.byte	0
 1784              		.section	.debug_aranges,"",%progbits
 1785 0000 24000000 		.4byte	0x24
 1786 0004 0200     		.2byte	0x2
 1787 0006 00000000 		.4byte	.Ldebug_info0
 1788 000a 04       		.byte	0x4
 1789 000b 00       		.byte	0
 1790 000c 0000     		.2byte	0
 1791 000e 0000     		.2byte	0
 1792 0010 00000000 		.4byte	.LFB98
 1793 0014 18000000 		.4byte	.LFE98-.LFB98
 1794 0018 00000000 		.4byte	.LFB99
 1795 001c B4000000 		.4byte	.LFE99-.LFB99
 1796 0020 00000000 		.4byte	0
 1797 0024 00000000 		.4byte	0
 1798              		.section	.debug_ranges,"",%progbits
 1799              	.Ldebug_ranges0:
 1800 0000 02000000 		.4byte	.LBB78
 1801 0004 04000000 		.4byte	.LBE78
 1802 0008 06000000 		.4byte	.LBB83
 1803 000c 0A000000 		.4byte	.LBE83
 1804 0010 00000000 		.4byte	0
 1805 0014 00000000 		.4byte	0
 1806 0018 00000000 		.4byte	.LFB98
 1807 001c 18000000 		.4byte	.LFE98
 1808 0020 00000000 		.4byte	.LFB99
 1809 0024 B4000000 		.4byte	.LFE99
ARM GAS  /tmp/ccsypGf3.s 			page 50


 1810 0028 00000000 		.4byte	0
 1811 002c 00000000 		.4byte	0
 1812              		.section	.debug_line,"",%progbits
 1813              	.Ldebug_line0:
 1814 0000 15020000 		.section	.debug_str,"MS",%progbits,1
 1814      02008301 
 1814      00000201 
 1814      FB0E0D00 
 1814      01010101 
 1815              	.LASF19:
 1816 0000 42445452 		.ascii	"BDTR\000"
 1816      00
 1817              	.LASF6:
 1818 0005 73697A65 		.ascii	"size_t\000"
 1818      5F7400
 1819              	.LASF12:
 1820 000c 73797374 		.ascii	"systime_t\000"
 1820      696D655F 
 1820      7400
 1821              	.LASF40:
 1822 0016 2F686F6D 		.ascii	"/home/awygle/ChibiOS-RT/demos/STM32/NIL-STM32F051-D"
 1822      652F6177 
 1822      79676C65 
 1822      2F436869 
 1822      62694F53 
 1823 0049 4953434F 		.ascii	"ISCOVERY\000"
 1823      56455259 
 1823      00
 1824              	.LASF29:
 1825 0052 65786563 		.ascii	"execute\000"
 1825      75746500 
 1826              	.LASF23:
 1827 005a 73746D33 		.ascii	"stm32_tim_t\000"
 1827      325F7469 
 1827      6D5F7400 
 1828              	.LASF15:
 1829 0066 44494552 		.ascii	"DIER\000"
 1829      00
 1830              	.LASF2:
 1831 006b 756E7369 		.ascii	"unsigned char\000"
 1831      676E6564 
 1831      20636861 
 1831      7200
 1832              	.LASF43:
 1833 0079 63685468 		.ascii	"chThdSleep\000"
 1833      64536C65 
 1833      657000
 1834              	.LASF37:
 1835 0084 74657374 		.ascii	"test_sequence_001\000"
 1835      5F736571 
 1835      75656E63 
 1835      655F3030 
 1835      3100
 1836              	.LASF36:
 1837 0096 74657374 		.ascii	"test_step\000"
 1837      5F737465 
 1837      7000
ARM GAS  /tmp/ccsypGf3.s 			page 51


 1838              	.LASF8:
 1839 00a0 6C6F6E67 		.ascii	"long unsigned int\000"
 1839      20756E73 
 1839      69676E65 
 1839      6420696E 
 1839      7400
 1840              	.LASF28:
 1841 00b2 74656172 		.ascii	"teardown\000"
 1841      646F776E 
 1841      00
 1842              	.LASF4:
 1843 00bb 73686F72 		.ascii	"short unsigned int\000"
 1843      7420756E 
 1843      7369676E 
 1843      65642069 
 1843      6E7400
 1844              	.LASF7:
 1845 00ce 5F5F7569 		.ascii	"__uint32_t\000"
 1845      6E743332 
 1845      5F7400
 1846              	.LASF30:
 1847 00d9 74657374 		.ascii	"testcase_t\000"
 1847      63617365 
 1847      5F7400
 1848              	.LASF39:
 1849 00e4 2E2E2F2E 		.ascii	"../../../test/nil/source/test/test_sequence_001.c\000"
 1849      2E2F2E2E 
 1849      2F746573 
 1849      742F6E69 
 1849      6C2F736F 
 1850              	.LASF44:
 1851 0116 5F746573 		.ascii	"_test_assert_time_window\000"
 1851      745F6173 
 1851      73657274 
 1851      5F74696D 
 1851      655F7769 
 1852              	.LASF3:
 1853 012f 73686F72 		.ascii	"short int\000"
 1853      7420696E 
 1853      7400
 1854              	.LASF20:
 1855 0139 444D4152 		.ascii	"DMAR\000"
 1855      00
 1856              	.LASF34:
 1857 013e 74657374 		.ascii	"test_001_001\000"
 1857      5F303031 
 1857      5F303031 
 1857      00
 1858              	.LASF35:
 1859 014b 74657374 		.ascii	"test_001_002\000"
 1859      5F303031 
 1859      5F303032 
 1859      00
 1860              	.LASF31:
 1861 0158 73745F6C 		.ascii	"st_lld_get_counter\000"
 1861      6C645F67 
 1861      65745F63 
ARM GAS  /tmp/ccsypGf3.s 			page 52


 1861      6F756E74 
 1861      657200
 1862              	.LASF0:
 1863 016b 756E7369 		.ascii	"unsigned int\000"
 1863      676E6564 
 1863      20696E74 
 1863      00
 1864              	.LASF32:
 1865 0178 706F7274 		.ascii	"port_timer_get_time\000"
 1865      5F74696D 
 1865      65725F67 
 1865      65745F74 
 1865      696D6500 
 1866              	.LASF10:
 1867 018c 6C6F6E67 		.ascii	"long long unsigned int\000"
 1867      206C6F6E 
 1867      6720756E 
 1867      7369676E 
 1867      65642069 
 1868              	.LASF27:
 1869 01a3 73657475 		.ascii	"setup\000"
 1869      7000
 1870              	.LASF33:
 1871 01a9 74696D65 		.ascii	"time\000"
 1871      00
 1872              	.LASF13:
 1873 01ae 73697A65 		.ascii	"sizetype\000"
 1873      74797065 
 1873      00
 1874              	.LASF9:
 1875 01b7 6C6F6E67 		.ascii	"long long int\000"
 1875      206C6F6E 
 1875      6720696E 
 1875      7400
 1876              	.LASF41:
 1877 01c5 74657374 		.ascii	"test_001_002_execute\000"
 1877      5F303031 
 1877      5F303032 
 1877      5F657865 
 1877      63757465 
 1878              	.LASF24:
 1879 01da 63686172 		.ascii	"char\000"
 1879      00
 1880              	.LASF18:
 1881 01df 43434552 		.ascii	"CCER\000"
 1881      00
 1882              	.LASF14:
 1883 01e4 534D4352 		.ascii	"SMCR\000"
 1883      00
 1884              	.LASF16:
 1885 01e9 43434D52 		.ascii	"CCMR1\000"
 1885      3100
 1886              	.LASF17:
 1887 01ef 43434D52 		.ascii	"CCMR2\000"
 1887      3200
 1888              	.LASF21:
 1889 01f5 43434D52 		.ascii	"CCMR3\000"
ARM GAS  /tmp/ccsypGf3.s 			page 53


 1889      3300
 1890              	.LASF42:
 1891 01fb 74657374 		.ascii	"test_001_001_execute\000"
 1891      5F303031 
 1891      5F303031 
 1891      5F657865 
 1891      63757465 
 1892              	.LASF11:
 1893 0210 75696E74 		.ascii	"uint32_t\000"
 1893      33325F74 
 1893      00
 1894              	.LASF5:
 1895 0219 6C6F6E67 		.ascii	"long int\000"
 1895      20696E74 
 1895      00
 1896              	.LASF38:
 1897 0222 474E5520 		.ascii	"GNU C 4.8.2 -mcpu=cortex-m0 -mno-thumb-interwork -m"
 1897      4320342E 
 1897      382E3220 
 1897      2D6D6370 
 1897      753D636F 
 1898 0255 7468756D 		.ascii	"thumb -ggdb -O2 -fomit-frame-pointer -falign-functi"
 1898      62202D67 
 1898      67646220 
 1898      2D4F3220 
 1898      2D666F6D 
 1899 0288 6F6E733D 		.ascii	"ons=16 -ffunction-sections -fdata-sections -fno-com"
 1899      3136202D 
 1899      6666756E 
 1899      6374696F 
 1899      6E2D7365 
 1900 02bb 6D6F6E20 		.ascii	"mon -flto\000"
 1900      2D666C74 
 1900      6F00
 1901              	.LASF1:
 1902 02c5 7369676E 		.ascii	"signed char\000"
 1902      65642063 
 1902      68617200 
 1903              	.LASF45:
 1904 02d1 63685468 		.ascii	"chThdSleepUntil\000"
 1904      64536C65 
 1904      6570556E 
 1904      74696C00 
 1905              	.LASF25:
 1906 02e1 5F426F6F 		.ascii	"_Bool\000"
 1906      6C00
 1907              	.LASF26:
 1908 02e7 6E616D65 		.ascii	"name\000"
 1908      00
 1909              	.LASF22:
 1910 02ec 43435852 		.ascii	"CCXR\000"
 1910      00
 1911              		.comm	__gnu_lto_v1,1,1
 1912              		.ident	"GCC: (4.8.2-14ubuntu1+6) 4.8.2"
ARM GAS  /tmp/ccsypGf3.s 			page 54


DEFINED SYMBOLS
                            *ABS*:0000000000000000 test_sequence_001.c
     /tmp/ccsypGf3.s:301    .text.test_001_001_execute:0000000000000000 $t
     /tmp/ccsypGf3.s:306    .text.test_001_001_execute:0000000000000000 test_001_001_execute
     /tmp/ccsypGf3.s:346    .text.test_001_001_execute:0000000000000014 $d
     /tmp/ccsypGf3.s:351    .text.test_001_002_execute:0000000000000000 $t
     /tmp/ccsypGf3.s:356    .text.test_001_002_execute:0000000000000000 test_001_002_execute
     /tmp/ccsypGf3.s:528    .text.test_001_002_execute:00000000000000a8 $d
     /tmp/ccsypGf3.s:541    .rodata.test_sequence_001:0000000000000000 test_sequence_001
     /tmp/ccsypGf3.s:538    .rodata.test_sequence_001:0000000000000000 $d
     /tmp/ccsypGf3.s:549    .rodata.test_001_001:0000000000000000 test_001_001
     /tmp/ccsypGf3.s:558    .rodata.test_001_002:0000000000000000 test_001_002
     /tmp/ccsypGf3.s:546    .rodata.test_001_001:0000000000000000 $d
     /tmp/ccsypGf3.s:555    .rodata.test_001_002:0000000000000000 $d
     /tmp/ccsypGf3.s:564    .rodata.str1.4:0000000000000000 $d
                            *COM*:0000000000000001 __gnu_lto_v1
                     .debug_frame:0000000000000010 $d
     /tmp/ccsypGf3.s:350    .text.test_001_001_execute:0000000000000018 $t
     /tmp/ccsypGf3.s:537    .text.test_001_002_execute:00000000000000b4 $t

UNDEFINED SYMBOLS
test_step
chThdSleep
_test_assert_time_window
chThdSleepUntil
