GAS LISTING /tmp/ccEjeVnM.s 			page 1


   1               		.file	"chmempools.c"
   2               		.section	.text.chPoolObjectInit,"ax",@progbits
   3               		.balign 2
   4               		.global	chPoolObjectInit
   5               		.type	chPoolObjectInit, @function
   6               	chPoolObjectInit:
   7               	; start of function
   8               	; framesize_regs:     8
   9               	; framesize_locals:   4
  10               	; framesize_outgoing: 0
  11               	; framesize:          12
  12               	; elim ap -> fp       12
  13               	; elim fp -> sp       4
  14               	; saved regs: R8 R10
  15               		; start of prologue
  16 0000 0A14      		PUSHM.A	#1, R10
  17 0002 0814      		PUSHM.A	#1, R8
  18 0004 B100 0400 		SUBA	#4, R1
  19               		; end of prologue
  20 0008 CA0C      		MOVA	R12, R10
  21 000a 710D 0000 		MOVA	R13, @R1
  22 000e C80E      		MOVA	R14, R8
  23 0010 9C00 0000 		CMPA	#0, R12 { JEQ	.L2
  23      0024 
  24 0016 7C40 0300 		MOV.B	#3, R12
  25 001a DC0D 0028 		CMPA	R13, R12 { JLO	.L3
  26               	.L2:
  27 001e 8C00 0000 		MOVA	#__func__.2595, R12
  28 0022 B013 0000 		CALLA	#chSysHalt
  29               	.L3:
  30 0026 0018 CA43 		MOVX.A	#0, @R10
  30      0000 
  31 002c AA41 0400 		MOV.W	@R1, 4(R10)
  32 0030 0D01      		MOVA	@R1, R13
  33 0032 0D14 0C17 		PUSHM.A	#1,R13 { POPM.W	#1,R12 { POPM.W	#1,R12
  33      0C17 
  34 0038 7CF0 0F00 		AND.B	#15, R12
  35 003c 5D4A 0600 		MOV.B	6(R10), R13
  36 0040 7DF0 F0FF 		AND.B	#-16, R13
  37 0044 4DDC      		BIS.B	R12, R13
  38 0046 CA4D 0600 		MOV.B	R13, 6(R10)
  39 004a 7A08 0800 		MOVA	R8, 8(R10)
  40               		; start of epilogue
  41 004e A100 0400 		ADDA	#4, R1
  42 0052 0816      		POPM.A	#1, r8
  43 0054 0A16      		POPM.A	#1, r10
  44 0056 1001      		RETA
  45               		.size	chPoolObjectInit, .-chPoolObjectInit
  46               		.section	.text.chPoolAllocI,"ax",@progbits
  47               		.balign 2
  48               		.global	chPoolAllocI
  49               		.type	chPoolAllocI, @function
  50               	chPoolAllocI:
  51               	; start of function
  52               	; framesize_regs:     4
  53               	; framesize_locals:   0
  54               	; framesize_outgoing: 0
GAS LISTING /tmp/ccEjeVnM.s 			page 2


  55               	; framesize:          4
  56               	; elim ap -> fp       8
  57               	; elim fp -> sp       0
  58               	; saved regs: R10
  59               		; start of prologue
  60 0000 0A14      		PUSHM.A	#1, R10
  61               		; end of prologue
  62 0002 CA0C      		MOVA	R12, R10
  63 0004 9C00 0000 		CMPA	#0, R12 { JNE	.L8
  63      0020 
  64 000a 8C00 0000 		MOVA	#__func__.2609, R12
  65 000e B013 0000 		CALLA	#chSysHalt
  66               	.L8:
  67 0012 0C0A      		MOVA	@R10, R12
  68 0014 9C00 0000 		CMPA	#0, R12 { JEQ	.L9
  68      0024 
  69 001a 0018 EA4C 		MOVX.A	@R12, @R10
  69      0000 
  70               	.L7:
  71               		; start of epilogue
  72 0020 0A16      		POPM.A	#1, r10
  73 0022 1001      		RETA
  74               	.L9:
  75 0024 3E0A 0800 		MOVA	8(R10), R14
  76 0028 9E00 0000 		CMPA	#0, R14 { JEQ	.L7
  76      0024 
  77 002e 6D43      		MOV.B	#2, R13
  78 0030 3C0A 0400 		MOVA	4(R10), R12
  79 0034 4E13      		CALLA	R14
  80 0036 8000 0000 		BRA	#.L7
  81               		.size	chPoolAllocI, .-chPoolAllocI
  82               		.section	.text.chPoolAlloc,"ax",@progbits
  83               		.balign 2
  84               		.global	chPoolAlloc
  85               		.type	chPoolAlloc, @function
  86               	chPoolAlloc:
  87               	; start of function
  88               	; framesize_regs:     0
  89               	; framesize_locals:   0
  90               	; framesize_outgoing: 0
  91               	; framesize:          0
  92               	; elim ap -> fp       4
  93               	; elim fp -> sp       0
  94               	; saved regs:(none)
  95               		; start of prologue
  96               		; end of prologue
  97               	 ; 347 "../ChibiOS-Contrib/os/common/ports/MSP430X/chcore.h" 1
  98 0000 32C2 0343 		dint { nop
  99               	 ; 0 "" 2
 100               	 ; 348 "../ChibiOS-Contrib/os/common/ports/MSP430X/chcore.h" 1
 101 0004 0343      		nop
 102               	 ; 0 "" 2
 103 0006 B013 0000 		CALLA	#chPoolAllocI
 104               	 ; 355 "../ChibiOS-Contrib/os/common/ports/MSP430X/chcore.h" 1
 105 000a 0343      		nop
 106               	 ; 0 "" 2
 107               	 ; 356 "../ChibiOS-Contrib/os/common/ports/MSP430X/chcore.h" 1
GAS LISTING /tmp/ccEjeVnM.s 			page 3


 108 000c 0343 32D2 		nop { eint { nop
 108      0343 
 109               	 ; 0 "" 2
 110               		; start of epilogue
 111 0012 1001      		RETA
 112               		.size	chPoolAlloc, .-chPoolAlloc
 113               		.section	.text.chPoolFreeI,"ax",@progbits
 114               		.balign 2
 115               		.global	chPoolFreeI
 116               		.type	chPoolFreeI, @function
 117               	chPoolFreeI:
 118               	; start of function
 119               	; framesize_regs:     8
 120               	; framesize_locals:   0
 121               	; framesize_outgoing: 0
 122               	; framesize:          8
 123               	; elim ap -> fp       12
 124               	; elim fp -> sp       0
 125               	; saved regs: R8 R10
 126               		; start of prologue
 127 0000 0A14      		PUSHM.A	#1, R10
 128 0002 0814      		PUSHM.A	#1, R8
 129               		; end of prologue
 130 0004 CA0C      		MOVA	R12, R10
 131 0006 C80D      		MOVA	R13, R8
 132 0008 9C00 0000 		CMPA	#0, R12 { JEQ	.L15
 132      0024 
 133 000e 9D00 0000 		CMPA	#0, R13 { JNE	.L16
 133      0020 
 134               	.L15:
 135 0014 8C00 0000 		MOVA	#__func__.2619, R12
 136 0018 B013 0000 		CALLA	#chSysHalt
 137               	.L16:
 138 001c 0018 E84A 		MOVX.A	@R10, @R8
 138      0000 
 139 0022 7A08 0000 		MOVA	R8, @R10
 140               		; start of epilogue
 141 0026 0816      		POPM.A	#1, r8
 142 0028 0A16      		POPM.A	#1, r10
 143 002a 1001      		RETA
 144               		.size	chPoolFreeI, .-chPoolFreeI
 145               		.section	.text.chPoolFree,"ax",@progbits
 146               		.balign 2
 147               		.global	chPoolFree
 148               		.type	chPoolFree, @function
 149               	chPoolFree:
 150               	; start of function
 151               	; framesize_regs:     0
 152               	; framesize_locals:   0
 153               	; framesize_outgoing: 0
 154               	; framesize:          0
 155               	; elim ap -> fp       4
 156               	; elim fp -> sp       0
 157               	; saved regs:(none)
 158               		; start of prologue
 159               		; end of prologue
 160               	 ; 347 "../ChibiOS-Contrib/os/common/ports/MSP430X/chcore.h" 1
GAS LISTING /tmp/ccEjeVnM.s 			page 4


 161 0000 32C2 0343 		dint { nop
 162               	 ; 0 "" 2
 163               	 ; 348 "../ChibiOS-Contrib/os/common/ports/MSP430X/chcore.h" 1
 164 0004 0343      		nop
 165               	 ; 0 "" 2
 166 0006 B013 0000 		CALLA	#chPoolFreeI
 167               	 ; 355 "../ChibiOS-Contrib/os/common/ports/MSP430X/chcore.h" 1
 168 000a 0343      		nop
 169               	 ; 0 "" 2
 170               	 ; 356 "../ChibiOS-Contrib/os/common/ports/MSP430X/chcore.h" 1
 171 000c 0343 32D2 		nop { eint { nop
 171      0343 
 172               	 ; 0 "" 2
 173               		; start of epilogue
 174 0012 1001      		RETA
 175               		.size	chPoolFree, .-chPoolFree
 176               		.section	.text.chPoolLoadArray,"ax",@progbits
 177               		.balign 2
 178               		.global	chPoolLoadArray
 179               		.type	chPoolLoadArray, @function
 180               	chPoolLoadArray:
 181               	; start of function
 182               	; framesize_regs:     16
 183               	; framesize_locals:   0
 184               	; framesize_outgoing: 0
 185               	; framesize:          16
 186               	; elim ap -> fp       20
 187               	; elim fp -> sp       0
 188               	; saved regs: R4 R6 R8 R10
 189               		; start of prologue
 190 0000 0A14      		PUSHM.A	#1, R10
 191 0002 0814      		PUSHM.A	#1, R8
 192 0004 0614      		PUSHM.A	#1, R6
 193 0006 0414      		PUSHM.A	#1, R4
 194               		; end of prologue
 195 0008 CA0C      		MOVA	R12, R10
 196 000a C40D      		MOVA	R13, R4
 197 000c C60E      		MOVA	R14, R6
 198 000e 9C00 0000 		CMPA	#0, R12 { JEQ	.L22
 198      0024 
 199 0014 9E00 0000 		CMPA	#0, R14 { JNE	.L23
 199      0020 
 200               	.L22:
 201 001a 8C00 0000 		MOVA	#__func__.2601, R12
 202 001e B013 0000 		CALLA	#chSysHalt
 203               	.L23:
 204 0022 8800 0000 		MOVA	#chPoolFree, R8
 205               	.L24:
 206 0026 9600 0000 		CMPA	#0, R6 { JNE	.L25
 206      0020 
 207               		; start of epilogue
 208 002c 0416      		POPM.A	#1, r4
 209 002e 0616      		POPM.A	#1, r6
 210 0030 0816      		POPM.A	#1, r8
 211 0032 0A16      		POPM.A	#1, r10
 212 0034 1001      		RETA
 213               	.L25:
GAS LISTING /tmp/ccEjeVnM.s 			page 5


 214 0036 CD04      		MOVA	R4, R13
 215 0038 CC0A      		MOVA	R10, R12
 216 003a 4813      		CALLA	R8
 217 003c 0018 545A 		ADDX.A	4(R10), R4
 217      0400 
 218 0042 A60F FFFF 		ADDA	#-1, R6
 219 0046 8000 0000 		BRA	#.L24
 220               		.size	chPoolLoadArray, .-chPoolLoadArray
 221               		.section	.text.chGuardedPoolObjectInit,"ax",@progbits
 222               		.balign 2
 223               		.global	chGuardedPoolObjectInit
 224               		.type	chGuardedPoolObjectInit, @function
 225               	chGuardedPoolObjectInit:
 226               	; start of function
 227               	; framesize_regs:     4
 228               	; framesize_locals:   0
 229               	; framesize_outgoing: 0
 230               	; framesize:          4
 231               	; elim ap -> fp       8
 232               	; elim fp -> sp       0
 233               	; saved regs: R10
 234               		; start of prologue
 235 0000 0A14      		PUSHM.A	#1, R10
 236               		; end of prologue
 237 0002 CA0C      		MOVA	R12, R10
 238 0004 4E43      		MOV.B	#0, R14
 239 0006 AC00 0200 		ADDA	#2, R12
 240 000a B013 0000 		CALLA	#chPoolObjectInit
 241 000e 8A43 0000 		MOV.W	#0, @R10
 242               		; start of epilogue
 243 0012 0A16      		POPM.A	#1, r10
 244 0014 1001      		RETA
 245               		.size	chGuardedPoolObjectInit, .-chGuardedPoolObjectInit
 246               		.section	.text.chGuardedPoolAllocTimeoutS,"ax",@progbits
 247               		.balign 2
 248               		.global	chGuardedPoolAllocTimeoutS
 249               		.type	chGuardedPoolAllocTimeoutS, @function
 250               	chGuardedPoolAllocTimeoutS:
 251               	; start of function
 252               	; framesize_regs:     4
 253               	; framesize_locals:   0
 254               	; framesize_outgoing: 0
 255               	; framesize:          4
 256               	; elim ap -> fp       8
 257               	; elim fp -> sp       0
 258               	; saved regs: R10
 259               		; start of prologue
 260 0000 0A14      		PUSHM.A	#1, R10
 261               		; end of prologue
 262 0002 CA0C      		MOVA	R12, R10
 263 0004 B013 0000 		CALLA	#chSemWaitTimeoutS
 264 0008 9C00 0000 		CMPA	#0, R12 { JNE	.L32
 264      0020 
 265 000e CC0A      		MOVA	R10, R12
 266 0010 AC00 0200 		ADDA	#2, R12
 267 0014 B013 0000 		CALLA	#chPoolAllocI
 268               	.L30:
GAS LISTING /tmp/ccEjeVnM.s 			page 6


 269               		; start of epilogue
 270 0018 0A16      		POPM.A	#1, r10
 271 001a 1001      		RETA
 272               	.L32:
 273 001c 4C43      		MOV.B	#0, R12
 274 001e 8000 0000 		BRA	#.L30
 275               		.size	chGuardedPoolAllocTimeoutS, .-chGuardedPoolAllocTimeoutS
 276               		.section	.text.chGuardedPoolAllocTimeout,"ax",@progbits
 277               		.balign 2
 278               		.global	chGuardedPoolAllocTimeout
 279               		.type	chGuardedPoolAllocTimeout, @function
 280               	chGuardedPoolAllocTimeout:
 281               	; start of function
 282               	; framesize_regs:     0
 283               	; framesize_locals:   0
 284               	; framesize_outgoing: 0
 285               	; framesize:          0
 286               	; elim ap -> fp       4
 287               	; elim fp -> sp       0
 288               	; saved regs:(none)
 289               		; start of prologue
 290               		; end of prologue
 291               	 ; 347 "../ChibiOS-Contrib/os/common/ports/MSP430X/chcore.h" 1
 292 0000 32C2 0343 		dint { nop
 293               	 ; 0 "" 2
 294               	 ; 348 "../ChibiOS-Contrib/os/common/ports/MSP430X/chcore.h" 1
 295 0004 0343      		nop
 296               	 ; 0 "" 2
 297 0006 B013 0000 		CALLA	#chGuardedPoolAllocTimeoutS
 298               	 ; 355 "../ChibiOS-Contrib/os/common/ports/MSP430X/chcore.h" 1
 299 000a 0343      		nop
 300               	 ; 0 "" 2
 301               	 ; 356 "../ChibiOS-Contrib/os/common/ports/MSP430X/chcore.h" 1
 302 000c 0343 32D2 		nop { eint { nop
 302      0343 
 303               	 ; 0 "" 2
 304               		; start of epilogue
 305 0012 1001      		RETA
 306               		.size	chGuardedPoolAllocTimeout, .-chGuardedPoolAllocTimeout
 307               		.section	.text.chGuardedPoolFreeI,"ax",@progbits
 308               		.balign 2
 309               		.global	chGuardedPoolFreeI
 310               		.type	chGuardedPoolFreeI, @function
 311               	chGuardedPoolFreeI:
 312               	; start of function
 313               	; framesize_regs:     4
 314               	; framesize_locals:   0
 315               	; framesize_outgoing: 0
 316               	; framesize:          4
 317               	; elim ap -> fp       8
 318               	; elim fp -> sp       0
 319               	; saved regs: R10
 320               		; start of prologue
 321 0000 0A14      		PUSHM.A	#1, R10
 322               		; end of prologue
 323 0002 CA0C      		MOVA	R12, R10
 324 0004 AC00 0200 		ADDA	#2, R12
GAS LISTING /tmp/ccEjeVnM.s 			page 7


 325 0008 B013 0000 		CALLA	#chPoolFreeI
 326 000c CC0A      		MOVA	R10, R12
 327 000e B013 0000 		CALLA	#chSemSignalI
 328               		; start of epilogue
 329 0012 0A16      		POPM.A	#1, r10
 330 0014 1001      		RETA
 331               		.size	chGuardedPoolFreeI, .-chGuardedPoolFreeI
 332               		.section	.text.chGuardedPoolFree,"ax",@progbits
 333               		.balign 2
 334               		.global	chGuardedPoolFree
 335               		.type	chGuardedPoolFree, @function
 336               	chGuardedPoolFree:
 337               	; start of function
 338               	; framesize_regs:     0
 339               	; framesize_locals:   0
 340               	; framesize_outgoing: 0
 341               	; framesize:          0
 342               	; elim ap -> fp       4
 343               	; elim fp -> sp       0
 344               	; saved regs:(none)
 345               		; start of prologue
 346               		; end of prologue
 347               	 ; 347 "../ChibiOS-Contrib/os/common/ports/MSP430X/chcore.h" 1
 348 0000 32C2 0343 		dint { nop
 349               	 ; 0 "" 2
 350               	 ; 348 "../ChibiOS-Contrib/os/common/ports/MSP430X/chcore.h" 1
 351 0004 0343      		nop
 352               	 ; 0 "" 2
 353 0006 B013 0000 		CALLA	#chGuardedPoolFreeI
 354 000a B013 0000 		CALLA	#chSchRescheduleS
 355               	 ; 355 "../ChibiOS-Contrib/os/common/ports/MSP430X/chcore.h" 1
 356 000e 0343      		nop
 357               	 ; 0 "" 2
 358               	 ; 356 "../ChibiOS-Contrib/os/common/ports/MSP430X/chcore.h" 1
 359 0010 0343 32D2 		nop { eint { nop
 359      0343 
 360               	 ; 0 "" 2
 361               		; start of epilogue
 362 0016 1001      		RETA
 363               		.size	chGuardedPoolFree, .-chGuardedPoolFree
 364               		.section	.text.chGuardedPoolLoadArray,"ax",@progbits
 365               		.balign 2
 366               		.global	chGuardedPoolLoadArray
 367               		.type	chGuardedPoolLoadArray, @function
 368               	chGuardedPoolLoadArray:
 369               	; start of function
 370               	; framesize_regs:     16
 371               	; framesize_locals:   0
 372               	; framesize_outgoing: 0
 373               	; framesize:          16
 374               	; elim ap -> fp       20
 375               	; elim fp -> sp       0
 376               	; saved regs: R4 R6 R8 R10
 377               		; start of prologue
 378 0000 0A14      		PUSHM.A	#1, R10
 379 0002 0814      		PUSHM.A	#1, R8
 380 0004 0614      		PUSHM.A	#1, R6
GAS LISTING /tmp/ccEjeVnM.s 			page 8


 381 0006 0414      		PUSHM.A	#1, R4
 382               		; end of prologue
 383 0008 CA0C      		MOVA	R12, R10
 384 000a C40D      		MOVA	R13, R4
 385 000c C60E      		MOVA	R14, R6
 386 000e 9C00 0000 		CMPA	#0, R12 { JEQ	.L37
 386      0024 
 387 0014 9E00 0000 		CMPA	#0, R14 { JNE	.L38
 387      0020 
 388               	.L37:
 389 001a 8C00 0000 		MOVA	#__func__.2633, R12
 390 001e B013 0000 		CALLA	#chSysHalt
 391               	.L38:
 392 0022 8800 0000 		MOVA	#chGuardedPoolFree, R8
 393               	.L39:
 394 0026 9600 0000 		CMPA	#0, R6 { JNE	.L40
 394      0020 
 395               		; start of epilogue
 396 002c 0416      		POPM.A	#1, r4
 397 002e 0616      		POPM.A	#1, r6
 398 0030 0816      		POPM.A	#1, r8
 399 0032 0A16      		POPM.A	#1, r10
 400 0034 1001      		RETA
 401               	.L40:
 402 0036 CD04      		MOVA	R4, R13
 403 0038 CC0A      		MOVA	R10, R12
 404 003a 4813      		CALLA	R8
 405 003c 0018 545A 		ADDX.A	6(R10), R4
 405      0600 
 406 0042 A60F FFFF 		ADDA	#-1, R6
 407 0046 8000 0000 		BRA	#.L39
 408               		.size	chGuardedPoolLoadArray, .-chGuardedPoolLoadArray
 409               		.section	.upper.rodata,"a",@progbits
 410               		.type	__func__.2633, @object
 411               		.size	__func__.2633, 23
 412               	__func__.2633:
 413 0000 6368 4775 		.string	"chGuardedPoolLoadArray"
 413      6172 6465 
 413      6450 6F6F 
 413      6C4C 6F61 
 413      6441 7272 
 414               		.type	__func__.2619, @object
 415               		.size	__func__.2619, 12
 416               	__func__.2619:
 417 0017 6368 506F 		.string	"chPoolFreeI"
 417      6F6C 4672 
 417      6565 4900 
 418               		.type	__func__.2609, @object
 419               		.size	__func__.2609, 13
 420               	__func__.2609:
 421 0023 6368 506F 		.string	"chPoolAllocI"
 421      6F6C 416C 
 421      6C6F 6349 
 421      00
 422               		.type	__func__.2601, @object
 423               		.size	__func__.2601, 16
 424               	__func__.2601:
GAS LISTING /tmp/ccEjeVnM.s 			page 9


 425 0030 6368 506F 		.string	"chPoolLoadArray"
 425      6F6C 4C6F 
 425      6164 4172 
 425      7261 7900 
 426               		.type	__func__.2595, @object
 427               		.size	__func__.2595, 17
 428               	__func__.2595:
 429 0040 6368 506F 		.string	"chPoolObjectInit"
 429      6F6C 4F62 
 429      6A65 6374 
 429      496E 6974 
 429      00
 430               		.ident	"GCC: (SOMNIUM Technologies Limited - msp430-gcc 6.2.1.16) 6.2.1 20161212"
GAS LISTING /tmp/ccEjeVnM.s 			page 10


DEFINED SYMBOLS
                            *ABS*:0000000000000000 chmempools.c
     /tmp/ccEjeVnM.s:6      .text.chPoolObjectInit:0000000000000000 chPoolObjectInit
     /tmp/ccEjeVnM.s:428    .upper.rodata:0000000000000040 __func__.2595
     /tmp/ccEjeVnM.s:50     .text.chPoolAllocI:0000000000000000 chPoolAllocI
     /tmp/ccEjeVnM.s:420    .upper.rodata:0000000000000023 __func__.2609
     /tmp/ccEjeVnM.s:86     .text.chPoolAlloc:0000000000000000 chPoolAlloc
     /tmp/ccEjeVnM.s:117    .text.chPoolFreeI:0000000000000000 chPoolFreeI
     /tmp/ccEjeVnM.s:416    .upper.rodata:0000000000000017 __func__.2619
     /tmp/ccEjeVnM.s:149    .text.chPoolFree:0000000000000000 chPoolFree
     /tmp/ccEjeVnM.s:180    .text.chPoolLoadArray:0000000000000000 chPoolLoadArray
     /tmp/ccEjeVnM.s:424    .upper.rodata:0000000000000030 __func__.2601
     /tmp/ccEjeVnM.s:225    .text.chGuardedPoolObjectInit:0000000000000000 chGuardedPoolObjectInit
     /tmp/ccEjeVnM.s:250    .text.chGuardedPoolAllocTimeoutS:0000000000000000 chGuardedPoolAllocTimeoutS
     /tmp/ccEjeVnM.s:280    .text.chGuardedPoolAllocTimeout:0000000000000000 chGuardedPoolAllocTimeout
     /tmp/ccEjeVnM.s:311    .text.chGuardedPoolFreeI:0000000000000000 chGuardedPoolFreeI
     /tmp/ccEjeVnM.s:336    .text.chGuardedPoolFree:0000000000000000 chGuardedPoolFree
     /tmp/ccEjeVnM.s:368    .text.chGuardedPoolLoadArray:0000000000000000 chGuardedPoolLoadArray
     /tmp/ccEjeVnM.s:412    .upper.rodata:0000000000000000 __func__.2633
     /tmp/ccEjeVnM.s:26     .text.chPoolObjectInit:000000000000001e .L2
     /tmp/ccEjeVnM.s:29     .text.chPoolObjectInit:0000000000000026 .L3
     /tmp/ccEjeVnM.s:66     .text.chPoolAllocI:0000000000000012 .L8
     /tmp/ccEjeVnM.s:74     .text.chPoolAllocI:0000000000000024 .L9
     /tmp/ccEjeVnM.s:70     .text.chPoolAllocI:0000000000000020 .L7
     /tmp/ccEjeVnM.s:134    .text.chPoolFreeI:0000000000000014 .L15
     /tmp/ccEjeVnM.s:137    .text.chPoolFreeI:000000000000001c .L16
     /tmp/ccEjeVnM.s:200    .text.chPoolLoadArray:000000000000001a .L22
     /tmp/ccEjeVnM.s:203    .text.chPoolLoadArray:0000000000000022 .L23
     /tmp/ccEjeVnM.s:213    .text.chPoolLoadArray:0000000000000036 .L25
     /tmp/ccEjeVnM.s:205    .text.chPoolLoadArray:0000000000000026 .L24
     /tmp/ccEjeVnM.s:272    .text.chGuardedPoolAllocTimeoutS:000000000000001c .L32
     /tmp/ccEjeVnM.s:268    .text.chGuardedPoolAllocTimeoutS:0000000000000018 .L30
     /tmp/ccEjeVnM.s:388    .text.chGuardedPoolLoadArray:000000000000001a .L37
     /tmp/ccEjeVnM.s:391    .text.chGuardedPoolLoadArray:0000000000000022 .L38
     /tmp/ccEjeVnM.s:401    .text.chGuardedPoolLoadArray:0000000000000036 .L40
     /tmp/ccEjeVnM.s:393    .text.chGuardedPoolLoadArray:0000000000000026 .L39

UNDEFINED SYMBOLS
chSysHalt
chSemWaitTimeoutS
chSemSignalI
chSchRescheduleS
