GAS LISTING /tmp/ccSJb14j.s 			page 1


   1               		.file	"chmemcore.c"
   2               		.section	.text._core_init,"ax",@progbits
   3               		.balign 2
   4               		.global	_core_init
   5               		.type	_core_init, @function
   6               	_core_init:
   7               	; start of function
   8               	; framesize_regs:     0
   9               	; framesize_locals:   0
  10               	; framesize_outgoing: 0
  11               	; framesize:          0
  12               	; elim ap -> fp       4
  13               	; elim fp -> sp       0
  14               	; saved regs:(none)
  15               		; start of prologue
  16               		; end of prologue
  17 0000 0018 F240 		MOVX.A	#__heap_base__, &nextmem
  17      0000 0000 
  18 0008 0018 F240 		MOVX.A	#__heap_end__, &endmem
  18      0000 0000 
  19               		; start of epilogue
  20 0010 1001      		RETA
  21               		.size	_core_init, .-_core_init
  22               		.section	.text.chCoreAllocAlignedI,"ax",@progbits
  23               		.balign 2
  24               		.global	chCoreAllocAlignedI
  25               		.type	chCoreAllocAlignedI, @function
  26               	chCoreAllocAlignedI:
  27               	; start of function
  28               	; framesize_regs:     8
  29               	; framesize_locals:   0
  30               	; framesize_outgoing: 0
  31               	; framesize:          8
  32               	; elim ap -> fp       12
  33               	; elim fp -> sp       0
  34               	; saved regs: R8 R10
  35               		; start of prologue
  36 0000 0A14      		PUSHM.A	#1, R10
  37 0002 0814      		PUSHM.A	#1, R8
  38               		; end of prologue
  39 0004 CA0C      		MOVA	R12, R10
  40 0006 4018 084D 		MOVX	R13, R8
  41 000a 0D93 0024 		CMP.W	#0, R13 { JEQ	.L3
  42 000e CC08      		MOVA	R8, R12
  43 0010 AC0F FFFF 		ADDA	#-1, R12
  44 0014 0018 4CB8 		BITX.A	R8, R12 { JEQ	.L4
  44      0024 
  45               	.L3:
  46 001a 8C00 0000 		MOVA	#__func__.2604, R12
  47 001e B013 0000 		CALLA	#chSysHalt
  48               	.L4:
  49 0022 CE0A      		MOVA	R10, R14
  50 0024 AE0F FFFF 		ADDA	#-1, R14
  51 0028 EE08      		ADDA	R8, R14
  52 002a 0018 4A43 		MOVX.A	#0, R10 { SUBA	R8, R10
  52      FA08 
  53 0030 0018 4EFA 		ANDX.A	R10, R14
GAS LISTING /tmp/ccSJb14j.s 			page 2


  54 0034 2C00 0000 		MOVA	&nextmem, R12
  55 0038 AC0F FFFF 		ADDA	#-1, R12
  56 003c EC08      		ADDA	R8, R12
  57 003e 0018 4CFA 		ANDX.A	R10, R12
  58 0042 2A00 0000 		MOVA	&endmem, R10
  59 0046 FA0C      		SUBA	R12, R10
  60 0048 DA0E 0028 		CMPA	R14, R10 { JLO	.L6
  61 004c EE0C      		ADDA	R12, R14
  62 004e 600E 0000 		MOVA	R14, &nextmem
  63               	.L2:
  64               		; start of epilogue
  65 0052 0816      		POPM.A	#1, r8
  66 0054 0A16      		POPM.A	#1, r10
  67 0056 1001      		RETA
  68               	.L6:
  69 0058 4C43      		MOV.B	#0, R12
  70 005a 8000 0000 		BRA	#.L2
  71               		.size	chCoreAllocAlignedI, .-chCoreAllocAlignedI
  72               		.section	.text.chCoreAllocAligned,"ax",@progbits
  73               		.balign 2
  74               		.global	chCoreAllocAligned
  75               		.type	chCoreAllocAligned, @function
  76               	chCoreAllocAligned:
  77               	; start of function
  78               	; framesize_regs:     0
  79               	; framesize_locals:   0
  80               	; framesize_outgoing: 0
  81               	; framesize:          0
  82               	; elim ap -> fp       4
  83               	; elim fp -> sp       0
  84               	; saved regs:(none)
  85               		; start of prologue
  86               		; end of prologue
  87               	 ; 347 "../ChibiOS-Contrib/os/common/ports/MSP430X/chcore.h" 1
  88 0000 32C2 0343 		dint { nop
  89               	 ; 0 "" 2
  90               	 ; 348 "../ChibiOS-Contrib/os/common/ports/MSP430X/chcore.h" 1
  91 0004 0343      		nop
  92               	 ; 0 "" 2
  93 0006 B013 0000 		CALLA	#chCoreAllocAlignedI
  94               	 ; 355 "../ChibiOS-Contrib/os/common/ports/MSP430X/chcore.h" 1
  95 000a 0343      		nop
  96               	 ; 0 "" 2
  97               	 ; 356 "../ChibiOS-Contrib/os/common/ports/MSP430X/chcore.h" 1
  98 000c 0343 32D2 		nop { eint { nop
  98      0343 
  99               	 ; 0 "" 2
 100               		; start of epilogue
 101 0012 1001      		RETA
 102               		.size	chCoreAllocAligned, .-chCoreAllocAligned
 103               		.section	.text.chCoreGetStatusX,"ax",@progbits
 104               		.balign 2
 105               		.global	chCoreGetStatusX
 106               		.type	chCoreGetStatusX, @function
 107               	chCoreGetStatusX:
 108               	; start of function
 109               	; framesize_regs:     0
GAS LISTING /tmp/ccSJb14j.s 			page 3


 110               	; framesize_locals:   0
 111               	; framesize_outgoing: 0
 112               	; framesize:          0
 113               	; elim ap -> fp       4
 114               	; elim fp -> sp       0
 115               	; saved regs:(none)
 116               		; start of prologue
 117               		; end of prologue
 118 0000 2C00 0000 		MOVA	&endmem, R12
 119 0004 0018 5C82 		SUBX.A	&nextmem, R12
 119      0000 
 120               		; start of epilogue
 121 000a 1001      		RETA
 122               		.size	chCoreGetStatusX, .-chCoreGetStatusX
 123               		.section	.upper.rodata,"a",@progbits
 124               		.type	__func__.2604, @object
 125               		.size	__func__.2604, 20
 126               	__func__.2604:
 127 0000 6368 436F 		.string	"chCoreAllocAlignedI"
 127      7265 416C 
 127      6C6F 6341 
 127      6C69 676E 
 127      6564 4900 
 128               		.local	endmem
 129               		.comm	endmem,4,2
 130               		.local	nextmem
 131               		.comm	nextmem,4,2
 132               		.ident	"GCC: (SOMNIUM Technologies Limited - msp430-gcc 6.2.1.16) 6.2.1 20161212"
GAS LISTING /tmp/ccSJb14j.s 			page 4


DEFINED SYMBOLS
                            *ABS*:0000000000000000 chmemcore.c
     /tmp/ccSJb14j.s:6      .text._core_init:0000000000000000 _core_init
     /tmp/ccSJb14j.s:131    .bss:0000000000000004 nextmem
     /tmp/ccSJb14j.s:129    .bss:0000000000000000 endmem
     /tmp/ccSJb14j.s:26     .text.chCoreAllocAlignedI:0000000000000000 chCoreAllocAlignedI
     /tmp/ccSJb14j.s:126    .upper.rodata:0000000000000000 __func__.2604
     /tmp/ccSJb14j.s:76     .text.chCoreAllocAligned:0000000000000000 chCoreAllocAligned
     /tmp/ccSJb14j.s:107    .text.chCoreGetStatusX:0000000000000000 chCoreGetStatusX
     /tmp/ccSJb14j.s:45     .text.chCoreAllocAlignedI:000000000000001a .L3
     /tmp/ccSJb14j.s:48     .text.chCoreAllocAlignedI:0000000000000022 .L4
     /tmp/ccSJb14j.s:68     .text.chCoreAllocAlignedI:0000000000000058 .L6
     /tmp/ccSJb14j.s:63     .text.chCoreAllocAlignedI:0000000000000052 .L2

UNDEFINED SYMBOLS
__heap_base__
__heap_end__
chSysHalt
__crt0_init_bss
