GAS LISTING /tmp/ccCpBAv9.s 			page 1


   1               		.file	"cmds.c"
   2               		.section	.text.port_lock,"ax",@progbits
   3               		.balign 2
   4               		.type	port_lock, @function
   5               	port_lock:
   6               	; start of function
   7               	; framesize_regs:     0
   8               	; framesize_locals:   0
   9               	; framesize_outgoing: 0
  10               	; framesize:          0
  11               	; elim ap -> fp       4
  12               	; elim fp -> sp       0
  13               	; saved regs:(none)
  14               		; start of prologue
  15               		; end of prologue
  16               	 ; 347 "../ChibiOS-Contrib/os/common/ports/MSP430X/chcore.h" 1
  17 0000 32C2 0343 		dint { nop
  18               	 ; 0 "" 2
  19               	 ; 348 "../ChibiOS-Contrib/os/common/ports/MSP430X/chcore.h" 1
  20 0004 0343      		nop
  21               	 ; 0 "" 2
  22               		; start of epilogue
  23 0006 1001      		RETA
  24               		.size	port_lock, .-port_lock
  25               		.section	.text.port_unlock,"ax",@progbits
  26               		.balign 2
  27               		.type	port_unlock, @function
  28               	port_unlock:
  29               	; start of function
  30               	; framesize_regs:     0
  31               	; framesize_locals:   0
  32               	; framesize_outgoing: 0
  33               	; framesize:          0
  34               	; elim ap -> fp       4
  35               	; elim fp -> sp       0
  36               	; saved regs:(none)
  37               		; start of prologue
  38               		; end of prologue
  39               	 ; 355 "../ChibiOS-Contrib/os/common/ports/MSP430X/chcore.h" 1
  40 0000 0343      		nop
  41               	 ; 0 "" 2
  42               	 ; 356 "../ChibiOS-Contrib/os/common/ports/MSP430X/chcore.h" 1
  43 0002 0343 32D2 		nop { eint { nop
  43      0343 
  44               	 ; 0 "" 2
  45               		; start of epilogue
  46 0008 1001      		RETA
  47               		.size	port_unlock, .-port_unlock
  48               		.section	.text.reset,"ax",@progbits
  49               		.balign 2
  50               		.type	reset, @function
  51               	reset:
  52               	; start of function
  53               	; framesize_regs:     0
  54               	; framesize_locals:   0
  55               	; framesize_outgoing: 0
  56               	; framesize:          0
GAS LISTING /tmp/ccCpBAv9.s 			page 2


  57               	; elim ap -> fp       4
  58               	; elim fp -> sp       0
  59               	; saved regs:(none)
  60               		; start of prologue
  61               		; end of prologue
  62 0000 B013 0000 		CALLA	#elyNLFromFW
  63 0004 B013 0000 		CALLA	#elyNLFreeBuffer
  64 0008 0018 C243 		MOVX.A	#0, &active_buffer
  64      0000 
  65 000e C01F B240 		MOVX.W	#-23224, &PMMCTL0
  65      48A5 0000 
  66               		; start of epilogue
  67 0016 1001      		RETA
  68               		.size	reset, .-reset
  69               		.section	.text.write_failure,"ax",@progbits
  70               		.balign 2
  71               		.type	write_failure, @function
  72               	write_failure:
  73               	; start of function
  74               	; framesize_regs:     0
  75               	; framesize_locals:   0
  76               	; framesize_outgoing: 0
  77               	; framesize:          0
  78               	; elim ap -> fp       4
  79               	; elim fp -> sp       0
  80               	; saved regs:(none)
  81               		; start of prologue
  82               		; end of prologue
  83 0000 2D4D      		MOV.W	@R13, R13
  84 0002 0E4D      		MOV.W	R13, R14
  85 0004 5E07      		rrum.w	#2, R14
  86 0006 7EF0 3F00 		AND.B	#63, R14
  87 000a CC4E 0000 		MOV.B	R14, @R12
  88 000e 5DF3      		AND.B	#1, R13
  89 0010 0D93 0024 		CMP.W	#0, R13 { JEQ	.L7
  90 0014 6E43      		MOV.B	#2, R14
  91               	.L5:
  92 0016 CC4E 0100 		MOV.B	R14, 1(R12)
  93 001a 2E00 0000 		MOVA	&bank0p, R14
  94 001e DC4E 5100 		MOV.B	81(R14), 2(R12)
  94      0200 
  95 0024 DC4E 5000 		MOV.B	80(R14), 3(R12)
  95      0300 
  96 002a 0D93 0024 		CMP.W	#0, R13 { JEQ	.L4
  97 002e 7D40 0600 		MOV.B	#6, R13
  98 0032 B013 0000 		CALLA	#crcGenX25
  99               	.L4:
 100               		; start of epilogue
 101 0036 1001      		RETA
 102               	.L7:
 103 0038 0E4D      		MOV.W	R13, R14
 104 003a 8000 0000 		BRA	#.L5
 105               		.size	write_failure, .-write_failure
 106               		.section	.text.store_telem,"ax",@progbits
 107               		.balign 2
 108               		.type	store_telem, @function
 109               	store_telem:
GAS LISTING /tmp/ccCpBAv9.s 			page 3


 110               	; start of function
 111               	; framesize_regs:     28
 112               	; framesize_locals:   2
 113               	; framesize_outgoing: 0
 114               	; framesize:          30
 115               	; elim ap -> fp       32
 116               	; elim fp -> sp       2
 117               	; saved regs: R4 R5 R6 R7 R8 R9 R10
 118               		; start of prologue
 119 0000 6A14      		PUSHM.A	#7, R10
 120 0002 B100 0200 		SUBA	#2, R1
 121               		; end of prologue
 122 0006 C80C      		MOVA	R12, R8
 123 0008 294D      		MOV.W	@R13, R9
 124 000a 914D 0200 		MOV.W	2(R13), @R1
 124      0000 
 125 0010 0449      		MOV.W	R9, R4
 126 0012 540F 540F 		rrum.w	#4, R4 { rrum.w	#4, R4 
 127 0016 4C49      		MOV.B	R9, R12
 128 0018 4E4C      		MOV.B	R12, R14
 129 001a 6EF3      		AND.B	#2, R14
 130 001c 474E      		MOV.B	R14, R7
 131 001e 0793 0024 		CMP.W	#0, R7 { JEQ	.L17
 132 0022 6542      		MOV.B	#4, R5
 133               	.L12:
 134 0024 4018 1CB3 		BITX.W	#1, R12 { JEQ	.L18
 134      0024 
 135 002a 6C43      		MOV.B	#2, R12
 136               	.L13:
 137 002c 448E      		SUB.B	R14, R4
 138 002e 448C      		SUB.B	R12, R4
 139 0030 4644      		MOV.B	R4, R6
 140 0032 B013 0000 		CALLA	#elyFWGetBuffer
 141 0036 CA0C      		MOVA	R12, R10
 142 0038 9C00 0000 		CMPA	#0, R12 { JNE	.L14
 142      0020 
 143 003e CC08      		MOVA	R8, R12
 144 0040 B013 0000 		CALLA	#elyNLFromFW
 145 0044 B013 0000 		CALLA	#elyNLFreeBuffer
 146               	.L11:
 147               		; start of epilogue
 148 0048 A100 0200 		ADDA	#2, R1
 149 004c 6416      		POPM.A	#7, r10
 150 004e 1001      		RETA
 151               	.L17:
 152 0050 6543      		MOV.B	#2, R5
 153 0052 8000 0000 		BRA	#.L12
 154               	.L18:
 155 0056 4C43      		MOV.B	#0, R12
 156 0058 8000 0000 		BRA	#.L13
 157               	.L14:
 158 005c 0C44      		MOV.W	R4, R12
 159 005e 4018 044C 		MOVX	R12, R4
 160 0062 4018 0D45 		MOVX	R5, R13
 161 0066 CE04      		MOVA	R4, R14
 162 0068 ED08      		ADDA	R8, R13
 163 006a CC0A      		MOVA	R10, R12
GAS LISTING /tmp/ccCpBAv9.s 			page 4


 164 006c AC00 0500 		ADDA	#5, R12
 165 0070 B013 0000 		CALLA	#memcpy
 166 0074 4018 3E40 		MOVX.W	#251, R14 { SUBX.W	R6, R14
 166      FB00 4018 
 166      0E86 
 167 007e 4E0E 4E0D 		RLAM.A #4, R14 { RRAM.A #4, R14
 168 0082 CC04      		MOVA	R4, R12
 169 0084 AC00 0500 		ADDA	#5, R12
 170 0088 4D43      		MOV.B	#0, R13
 171 008a EC0A      		ADDA	R10, R12
 172 008c B013 0000 		CALLA	#memset
 173 0090 4018 8249 		MOVX.W	R9, &telem_stored_hdr
 173      0000 
 174 0096 4018 A241 		MOVX.W	@R1, &telem_stored_hdr+2
 174      0000 
 175 009c CC08      		MOVA	R8, R12
 176 009e B013 0000 		CALLA	#elyNLFromFW
 177 00a2 B013 0000 		CALLA	#elyNLFreeBuffer
 178 00a6 B013 0000 		CALLA	#port_lock
 179 00aa 0793 0024 		CMP.W	#0, R7 { JEQ	.L19
 180 00ae 8D00 0000 		MOVA	#store_telem_reply_cb, R13
 181               	.L16:
 182 00b2 CC0A      		MOVA	R10, R12
 183 00b4 B013 0000 		CALLA	#elyTelemPostBufferS
 184 00b8 B013 0000 		CALLA	#port_unlock
 185 00bc 8000 0000 		BRA	#.L11
 186               	.L19:
 187 00c0 8D00 0000 		MOVA	#store_telem_noreply_cb, R13
 188 00c4 8000 0000 		BRA	#.L16
 189               		.size	store_telem, .-store_telem
 190               		.section	.text.store_telem_noreply_cb,"ax",@progbits
 191               		.balign 2
 192               		.type	store_telem_noreply_cb, @function
 193               	store_telem_noreply_cb:
 194               	; start of function
 195               	; framesize_regs:     0
 196               	; framesize_locals:   0
 197               	; framesize_outgoing: 0
 198               	; framesize:          0
 199               	; elim ap -> fp       4
 200               	; elim fp -> sp       0
 201               	; saved regs:(none)
 202               		; start of prologue
 203               		; end of prologue
 204 0000 B013 0000 		CALLA	#elyNLFromFW
 205 0004 B013 0000 		CALLA	#elyFWFreeBufferI
 206               		; start of epilogue
 207 0008 1001      		RETA
 208               		.size	store_telem_noreply_cb, .-store_telem_noreply_cb
 209               		.section	.text.upload_fw_noreply_cb,"ax",@progbits
 210               		.balign 2
 211               		.type	upload_fw_noreply_cb, @function
 212               	upload_fw_noreply_cb:
 213               	; start of function
 214               	; framesize_regs:     0
 215               	; framesize_locals:   0
 216               	; framesize_outgoing: 0
GAS LISTING /tmp/ccCpBAv9.s 			page 5


 217               	; framesize:          0
 218               	; elim ap -> fp       4
 219               	; elim fp -> sp       0
 220               	; saved regs:(none)
 221               		; start of prologue
 222               		; end of prologue
 223 0000 B013 0000 		CALLA	#store_telem_noreply_cb
 224               		; start of epilogue
 225 0004 1001      		RETA
 226               		.size	upload_fw_noreply_cb, .-upload_fw_noreply_cb
 227               		.section	.text.verify_fw,"ax",@progbits
 228               		.balign 2
 229               		.type	verify_fw, @function
 230               	verify_fw:
 231               	; start of function
 232               	; framesize_regs:     16
 233               	; framesize_locals:   4
 234               	; framesize_outgoing: 0
 235               	; framesize:          20
 236               	; elim ap -> fp       20
 237               	; elim fp -> sp       4
 238               	; saved regs: R6 R8 R9 R10
 239               		; start of prologue
 240 0000 2A14      		PUSHM.A	#3, R10
 241 0002 0614      		PUSHM.A	#1, R6
 242 0004 B100 0400 		SUBA	#4, R1
 243               		; end of prologue
 244 0008 C60C      		MOVA	R12, R6
 245 000a 294D      		MOV.W	@R13, R9
 246 000c 1A4D 0200 		MOV.W	2(R13), R10
 247 0010 8E00 0000 		MOVA	#elyNLFromFW, R14
 248 0014 8800 0000 		MOVA	#elyNLFreeBuffer, R8
 249 0018 4018 29B3 		BITX.W	#2, R9 { JEQ	.L23
 249      0024 
 250 001e 5D4C 0400 		MOV.B	4(R12), R13
 251 0022 4718 0D5D 		rpt	#8 { rlax.w	R13
 252 0026 564C 0500 		MOV.B	5(R12), R6
 253 002a 06DD      		BIS.W	R13, R6
 254 002c 4018 8246 		MOVX.W	R6, &verify_crc
 254      0000 
 255 0032 4E13      		CALLA	R14
 256 0034 4813      		CALLA	R8
 257 0036 B013 0000 		CALLA	#crcStart
 258 003a C80C      		MOVA	R12, R8
 259 003c 4018 8249 		MOVX.W	R9, &verify_stored_hdr
 259      0000 
 260 0042 4018 824A 		MOVX.W	R10, &verify_stored_hdr+2
 260      0000 
 261 0048 8A00 0000 		MOVA	#port_lock, R10
 262 004c 4A13      		CALLA	R10
 263 004e 4D43      		MOV.B	#0, R13
 264 0050 CC01      		MOVA	R1, R12
 265 0052 B013 0000 		CALLA	#elyFramGetRequestTimeoutS
 266 0056 8600 0000 		MOVA	#port_unlock, R6
 267 005a 4613      		CALLA	R6
 268 005c 0C01      		MOVA	@R1, R12
 269 005e BC40 0004 		MOV.W	#1024, @R12
GAS LISTING /tmp/ccCpBAv9.s 			page 6


 269      0000 
 270 0064 9C43 0200 		MOV.W	#1, 2(R12)
 271 0068 FCD0 0300 		BIS.B	#3, 4(R12)
 271      0400 
 272 006e 1D4C 0400 		MOV.W	4(R12), R13
 273 0072 7DF0 0300 		AND.B	#3, R13
 274 0076 3DD0 00F0 		BIS.W	#-4096, R13
 275 007a 8C4D 0400 		MOV.W	R13, 4(R12)
 276 007e 5D4C 0600 		MOV.B	6(R12), R13
 277 0082 7DD0 0300 		BIS.B	#3, R13
 278 0086 6DC2      		BIC.B	#4, R13
 279 0088 CC4D 0600 		MOV.B	R13, 6(R12)
 280 008c 7C08 0800 		MOVA	R8, 8(R12)
 281 0090 0018 FC40 		MOVX.A	#verify_fw_cb, 12(R12)
 281      0000 0C00 
 282 0098 4A13      		CALLA	R10
 283 009a 0C01      		MOVA	@R1, R12
 284 009c B013 0000 		CALLA	#elyFramPostRequestS
 285 00a0 4613      		CALLA	R6
 286               	.L22:
 287               		; start of epilogue
 288 00a2 A100 0400 		ADDA	#4, R1
 289 00a6 0616      		POPM.A	#1, r6
 290 00a8 2816      		POPM.A	#3, r10
 291 00aa 1001      		RETA
 292               	.L23:
 293 00ac 4E13      		CALLA	R14
 294 00ae 4813      		CALLA	R8
 295 00b0 8000 0000 		BRA	#.L22
 296               		.size	verify_fw, .-verify_fw
 297               		.section	.text.write_success,"ax",@progbits
 298               		.balign 2
 299               		.type	write_success, @function
 300               	write_success:
 301               	; start of function
 302               	; framesize_regs:     4
 303               	; framesize_locals:   0
 304               	; framesize_outgoing: 0
 305               	; framesize:          4
 306               	; elim ap -> fp       8
 307               	; elim fp -> sp       0
 308               	; saved regs: R10
 309               		; start of prologue
 310 0000 0A14      		PUSHM.A	#1, R10
 311               		; end of prologue
 312 0002 2D4D      		MOV.W	@R13, R13
 313 0004 0F4D      		MOV.W	R13, R15
 314 0006 5F07      		rrum.w	#2, R15
 315 0008 7FF0 3F00 		AND.B	#63, R15
 316 000c CC4F 0000 		MOV.B	R15, @R12
 317 0010 2A00 0000 		MOVA	&bank0p, R10
 318 0014 DC4A 5100 		MOV.B	81(R10), 2(R12)
 318      0200 
 319 001a DC4A 5000 		MOV.B	80(R10), 3(R12)
 319      0300 
 320 0020 DC43 0400 		MOV.B	#1, 4(R12)
 321 0024 4018 1DB3 		BITX.W	#1, R13 { JEQ	.L26
GAS LISTING /tmp/ccCpBAv9.s 			page 7


 321      0024 
 322 002a FC40 0300 		MOV.B	#3, 1(R12)
 322      0100 
 323 0030 7D40 0700 		MOV.B	#7, R13
 324 0034 B013 0000 		CALLA	#crcGenX25
 325               	.L25:
 326               		; start of epilogue
 327 0038 0A16      		POPM.A	#1, r10
 328 003a 1001      		RETA
 329               	.L26:
 330 003c DC43 0100 		MOV.B	#1, 1(R12)
 331 0040 8000 0000 		BRA	#.L25
 332               		.size	write_success, .-write_success
 333               		.section	.text.cancel_fw_eeprom_cb,"ax",@progbits
 334               		.balign 2
 335               		.type	cancel_fw_eeprom_cb, @function
 336               	cancel_fw_eeprom_cb:
 337               	; start of function
 338               	; framesize_regs:     0
 339               	; framesize_locals:   0
 340               	; framesize_outgoing: 0
 341               	; framesize:          0
 342               	; elim ap -> fp       4
 343               	; elim fp -> sp       0
 344               	; saved regs:(none)
 345               		; start of prologue
 346               		; end of prologue
 347 0000 4018 1C42 		MOVX.W	&cancel_sem, R12
 347      0000 
 348 0006 4D43      		MOV.B	#0, R13
 349 0008 0D9C 0038 		CMP.W	R12, R13 { JL	.L28
 350 000c 8C00 0000 		MOVA	#cancel_sem, R12
 351 0010 B013 0000 		CALLA	#chSemSignalI
 352               	.L28:
 353               		; start of epilogue
 354 0014 1001      		RETA
 355               		.size	cancel_fw_eeprom_cb, .-cancel_fw_eeprom_cb
 356               		.section	.text.elyMainMBPost,"ax",@progbits
 357               		.balign 2
 358               		.global	elyMainMBPost
 359               		.type	elyMainMBPost, @function
 360               	elyMainMBPost:
 361               	; start of function
 362               	; framesize_regs:     0
 363               	; framesize_locals:   0
 364               	; framesize_outgoing: 0
 365               	; framesize:          0
 366               	; elim ap -> fp       4
 367               	; elim fp -> sp       0
 368               	; saved regs:(none)
 369               		; start of prologue
 370               		; end of prologue
 371 0000 0E4D      		MOV.W	R13, R14
 372 0002 CD0C      		MOVA	R12, R13
 373 0004 8C00 0000 		MOVA	#main_mbox, R12
 374 0008 B013 0000 		CALLA	#chMBPost
 375               		; start of epilogue
GAS LISTING /tmp/ccCpBAv9.s 			page 8


 376 000c 1001      		RETA
 377               		.size	elyMainMBPost, .-elyMainMBPost
 378               		.section	.text.elyMainMBPostS,"ax",@progbits
 379               		.balign 2
 380               		.global	elyMainMBPostS
 381               		.type	elyMainMBPostS, @function
 382               	elyMainMBPostS:
 383               	; start of function
 384               	; framesize_regs:     0
 385               	; framesize_locals:   0
 386               	; framesize_outgoing: 0
 387               	; framesize:          0
 388               	; elim ap -> fp       4
 389               	; elim fp -> sp       0
 390               	; saved regs:(none)
 391               		; start of prologue
 392               		; end of prologue
 393 0000 0E4D      		MOV.W	R13, R14
 394 0002 CD0C      		MOVA	R12, R13
 395 0004 8C00 0000 		MOVA	#main_mbox, R12
 396 0008 B013 0000 		CALLA	#chMBPostS
 397               		; start of epilogue
 398 000c 1001      		RETA
 399               		.size	elyMainMBPostS, .-elyMainMBPostS
 400               		.section	.text.elyMainMBPostI,"ax",@progbits
 401               		.balign 2
 402               		.global	elyMainMBPostI
 403               		.type	elyMainMBPostI, @function
 404               	elyMainMBPostI:
 405               	; start of function
 406               	; framesize_regs:     0
 407               	; framesize_locals:   0
 408               	; framesize_outgoing: 0
 409               	; framesize:          0
 410               	; elim ap -> fp       4
 411               	; elim fp -> sp       0
 412               	; saved regs:(none)
 413               		; start of prologue
 414               		; end of prologue
 415 0000 CD0C      		MOVA	R12, R13
 416 0002 8C00 0000 		MOVA	#main_mbox, R12
 417 0006 B013 0000 		CALLA	#chMBPostI
 418               		; start of epilogue
 419 000a 1001      		RETA
 420               		.size	elyMainMBPostI, .-elyMainMBPostI
 421               		.section	.text.elyCmdParse,"ax",@progbits
 422               		.balign 2
 423               		.global	elyCmdParse
 424               		.type	elyCmdParse, @function
 425               	elyCmdParse:
 426               	; start of function
 427               	; framesize_regs:     12
 428               	; framesize_locals:   0
 429               	; framesize_outgoing: 0
 430               	; framesize:          12
 431               	; elim ap -> fp       16
 432               	; elim fp -> sp       0
GAS LISTING /tmp/ccCpBAv9.s 			page 9


 433               	; saved regs: R8 R9 R10
 434               		; start of prologue
 435 0000 2A14      		PUSHM.A	#3, R10
 436               		; end of prologue
 437 0002 CA0D      		MOVA	R13, R10
 438 0004 6D4D      		MOV.B	@R13, R13
 439 0006 094D      		MOV.W	R13, R9
 440 0008 590F 590B 		rrum.w	#4, R9 { rrum.w	#3, R9 
 441 000c 0E4D      		MOV.W	R13, R14
 442 000e 5E0F 5E07 		rrum.w	#4, R14 { rrum.w	#2, R14 
 443 0012 5EF3      		AND.B	#1, R14
 444 0014 084D      		MOV.W	R13, R8
 445 0016 78F0 3F00 		AND.B	#63, R8
 446 001a 5B4A 0100 		MOV.B	1(R10), R11
 447 001e 4E93 0024 		CMP.B	#0, R14 { JEQ	.L34
 448 0022 5F4A 0200 		MOV.B	2(R10), R15
 449 0026 4718 0F5F 		rpt	#8 { rlax.w	R15
 450 002a 5A4A 0300 		MOV.B	3(R10), R10
 451 002e 0FDA      		BIS.W	R10, R15
 452               	.L34:
 453 0030 4D4E      		MOV.B	R14, R13
 454 0032 5DF3      		AND.B	#1, R13
 455 0034 4D5D      		ADD.B	R13, R13
 456 0036 7DF0 0300 		AND.B	#3, R13
 457 003a 0E48      		MOV.W	R8, R14
 458 003c 4118 0E5E 		rpt	#2 { rlax.w	R14
 459 0040 4DD9      		BIS.B	R9, R13
 460 0042 4DDE      		BIS.B	R14, R13
 461 0044 CC4D 0000 		MOV.B	R13, @R12
 462 0048 CC4B 0100 		MOV.B	R11, 1(R12)
 463 004c 8C4F 0200 		MOV.W	R15, 2(R12)
 464               		; start of epilogue
 465 0050 2816      		POPM.A	#3, r10
 466 0052 1001      		RETA
 467               		.size	elyCmdParse, .-elyCmdParse
 468               		.section	.text.elyCmdValidate,"ax",@progbits
 469               		.balign 2
 470               		.global	elyCmdValidate
 471               		.type	elyCmdValidate, @function
 472               	elyCmdValidate:
 473               	; start of function
 474               	; framesize_regs:     12
 475               	; framesize_locals:   0
 476               	; framesize_outgoing: 0
 477               	; framesize:          12
 478               	; elim ap -> fp       16
 479               	; elim fp -> sp       0
 480               	; saved regs: R8 R9 R10
 481               		; start of prologue
 482 0000 2A14      		PUSHM.A	#3, R10
 483               		; end of prologue
 484 0002 294C      		MOV.W	@R12, R9
 485 0004 CA0D      		MOVA	R13, R10
 486 0006 0C49      		MOV.W	R9, R12
 487 0008 5C07      		rrum.w	#2, R12
 488 000a 7CF0 3F00 		AND.B	#63, R12
 489 000e 0849      		MOV.W	R9, R8
GAS LISTING /tmp/ccCpBAv9.s 			page 10


 490 0010 580F 580F 		rrum.w	#4, R8 { rrum.w	#4, R8 
 491 0014 7D40 2F00 		MOV.B	#47, R13
 492 0018 0D9C 0034 		CMP.W	R12, R13 { JGE	.L39
 493 001c 7C40 89FF 		MOV.B	#-119, R12
 494               	.L182:
 495 0020 B013 0000 		CALLA	#elyErrorSignal
 496               	.L70:
 497 0024 4A43      		MOV.B	#0, R10
 498 0026 8000 0000 		BRA	#.L40
 499               	.L39:
 500 002a 39F0 FF00 		AND	#0xff, R9
 501 002e 4F49      		MOV.B	R9, R15
 502 0030 6FF3      		AND.B	#2, R15
 503 0032 4F93 0024 		CMP.B	#0, R15 { JEQ	.L41
 504 0036 2E00 0000 		MOVA	&bank0p, R14
 505 003a DA9E 5100 		CMP.B	81(R14), 2(R10) { JNE	.L41
 505      0200 0020 
 506 0042 DA9E 5000 		CMP.B	80(R14), 3(R10) { JEQ	.L70
 506      0300 0024 
 507               	.L41:
 508 004a 59F3      		AND.B	#1, R9
 509 004c 0993 0024 		CMP.W	#0, R9 { JEQ	.L71
 510 0050 6D43      		MOV.B	#2, R13
 511               	.L42:
 512 0052 4018 4E48 		MOVX.B	R8, R14 { SUBX.B	R15, R14
 512      4018 4E8F 
 513 005a 4E8D      		SUB.B	R13, R14
 514 005c 4D4E      		MOV.B	R14, R13
 515 005e 7C90 1600 		CMP.B	#22, R12 { JEQ	.L44
 515      0024 
 516 0064 7F40 1600 		MOV.B	#22, R15
 517 0068 4F9C 0028 		CMP.B	R12, R15 { JLO	.L45
 518 006c 7C90 0A00 		CMP.B	#10, R12 { JEQ	.L44
 518      0024 
 519 0072 7F40 0A00 		MOV.B	#10, R15
 520 0076 4F9C 0028 		CMP.B	R12, R15 { JLO	.L46
 521 007a 6C92 0024 		CMP.B	#4, R12 { JEQ	.L47
 522 007e 6F42      		MOV.B	#4, R15
 523 0080 4F9C 0028 		CMP.B	R12, R15 { JLO	.L48
 524 0084 6C93 0020 		CMP.B	#2, R12 { JNE	.L44
 525               	.L49:
 526 0088 5E93 0020 		CMP.B	#1, R14 { JNE	.L67
 527               	.L66:
 528 008c 0993 0020 		CMP.W	#0, R9 { JNE	.L68
 529               	.L69:
 530 0090 5A43      		MOV.B	#1, R10
 531               	.L40:
 532 0092 4C4A      		MOV.B	R10, R12
 533               		; start of epilogue
 534 0094 2816      		POPM.A	#3, r10
 535 0096 1001      		RETA
 536               	.L71:
 537 0098 0D49      		MOV.W	R9, R13
 538 009a 8000 0000 		BRA	#.L42
 539               	.L48:
 540 009e 7C90 0700 		CMP.B	#7, R12 { JEQ	.L50
 540      0024 
GAS LISTING /tmp/ccCpBAv9.s 			page 11


 541 00a4 7F40 0700 		MOV.B	#7, R15
 542 00a8 4F9C 0028 		CMP.B	R12, R15 { JLO	.L51
 543 00ac 7C90 0500 		CMP.B	#5, R12 { JEQ	.L52
 543      0024 
 544 00b2 7C90 0600 		CMP.B	#6, R12 { JEQ	.L53
 544      0024 
 545               	.L43:
 546 00b8 8C00 0000 		MOVA	#__func__.5620, R12
 547 00bc B013 0000 		CALLA	#chSysHalt
 548 00c0 8000 0000 		BRA	#.L66
 549               	.L51:
 550 00c4 7C92 0024 		CMP.B	#8, R12 { JEQ	.L44
 551 00c8 7C90 0900 		CMP.B	#9, R12 { JNE	.L43
 551      0020 
 552               	.L179:
 553 00ce 6E92 0020 		CMP.B	#4, R14 { JNE	.L67
 554 00d2 8000 0000 		BRA	#.L66
 555               	.L46:
 556 00d6 7C90 1000 		CMP.B	#16, R12 { JEQ	.L44
 556      0024 
 557 00dc 7F40 1000 		MOV.B	#16, R15
 558 00e0 4F9C 0028 		CMP.B	R12, R15 { JLO	.L55
 559 00e4 7C90 0D00 		CMP.B	#13, R12 { JEQ	.L179
 559      0024 
 560 00ea 7F40 0D00 		MOV.B	#13, R15
 561 00ee 4F9C 0028 		CMP.B	R12, R15 { JLO	.L56
 562 00f2 7C90 0B00 		CMP.B	#11, R12 { JEQ	.L179
 562      0024 
 563 00f8 7C90 0C00 		CMP.B	#12, R12 { JNE	.L43
 563      0020 
 564               	.L44:
 565 00fe 0D93 0024 		CMP.W	#0, R13 { JEQ	.L66
 566               	.L67:
 567 0102 7C40 8AFF 		MOV.B	#-118, R12
 568 0106 8000 0000 		BRA	#.L182
 569               	.L56:
 570 010a 7C90 0E00 		CMP.B	#14, R12 { JEQ	.L44
 570      0024 
 571 0110 7C90 0F00 		CMP.B	#15, R12 { JEQ	.L179
 571      0024 
 572 0116 8000 0000 		BRA	#.L43
 573               	.L55:
 574 011a 7C90 1300 		CMP.B	#19, R12 { JEQ	.L179
 574      0024 
 575 0120 7F40 1300 		MOV.B	#19, R15
 576 0124 4F9C 0028 		CMP.B	R12, R15 { JLO	.L57
 577 0128 7C90 1100 		CMP.B	#17, R12 { JEQ	.L179
 577      0024 
 578 012e 7C90 1200 		CMP.B	#18, R12 { JEQ	.L44
 578      0024 
 579 0134 8000 0000 		BRA	#.L43
 580               	.L57:
 581 0138 7C90 1400 		CMP.B	#20, R12 { JEQ	.L44
 581      0024 
 582 013e 7C90 1500 		CMP.B	#21, R12 { JEQ	.L49
 582      0024 
 583 0144 8000 0000 		BRA	#.L43
GAS LISTING /tmp/ccCpBAv9.s 			page 12


 584               	.L45:
 585 0148 7C90 2400 		CMP.B	#36, R12 { JEQ	.L179
 585      0024 
 586 014e 7F40 2400 		MOV.B	#36, R15
 587 0152 4F9C 0028 		CMP.B	R12, R15 { JLO	.L58
 588 0156 7C90 1C00 		CMP.B	#28, R12 { JEQ	.L47
 588      0024 
 589 015c 7F40 1C00 		MOV.B	#28, R15
 590 0160 4F9C 0028 		CMP.B	R12, R15 { JLO	.L59
 591 0164 7C90 1900 		CMP.B	#25, R12 { JEQ	.L60
 591      0024 
 592 016a 7D40 1900 		MOV.B	#25, R13
 593 016e 4D9C 0028 		CMP.B	R12, R13 { JLO	.L61
 594 0172 7C90 1700 		CMP.B	#23, R12 { JEQ	.L179
 594      0024 
 595 0178 7C90 1800 		CMP.B	#24, R12 { JEQ	.L49
 595      0024 
 596 017e 8000 0000 		BRA	#.L43
 597               	.L61:
 598 0182 7C90 1A00 		CMP.B	#26, R12 { JEQ	.L47
 598      0024 
 599 0188 7C90 1B00 		CMP.B	#27, R12 { JNE	.L43
 599      0020 
 600               	.L60:
 601 018e 7E50 FCFF 		ADD.B	#-4, R14
 602 0192 7C40 F7FF 		MOV.B	#-9, R12
 603 0196 8000 0000 		BRA	#.L181
 604               	.L59:
 605 019a 7F40 2200 		MOV.B	#34, R15
 606 019e 4F9C 0028 		CMP.B	R12, R15 { JLO	.L44
 607 01a2 7C90 1F00 		CMP.B	#31, R12 { JHS	.L47
 607      002C 
 608 01a8 7C90 1D00 		CMP.B	#29, R12 { JEQ	.L49
 608      0024 
 609 01ae 7C90 1E00 		CMP.B	#30, R12 { JNE	.L43
 609      0020 
 610 01b4 8000 0000 		BRA	#.L44
 611               	.L58:
 612 01b8 7C90 2A00 		CMP.B	#42, R12 { JEQ	.L60
 612      0024 
 613 01be 7F40 2A00 		MOV.B	#42, R15
 614 01c2 4F9C 0028 		CMP.B	R12, R15 { JLO	.L62
 615 01c6 7C90 2700 		CMP.B	#39, R12 { JEQ	.L49
 615      0024 
 616 01cc 7C90 2700 		CMP.B	#39, R12 { JLO	.L44
 616      0028 
 617 01d2 7C90 2800 		CMP.B	#40, R12 { JEQ	.L44
 617      0024 
 618 01d8 7C90 2900 		CMP.B	#41, R12 { JEQ	.L49
 618      0024 
 619 01de 8000 0000 		BRA	#.L43
 620               	.L62:
 621 01e2 7F40 2D00 		MOV.B	#45, R15
 622 01e6 4F9C 0028 		CMP.B	R12, R15 { JLO	.L63
 623 01ea 7C90 2C00 		CMP.B	#44, R12 { JHS	.L44
 623      002C 
 624 01f0 6E93 0024 		CMP.B	#2, R14 { JEQ	.L66
GAS LISTING /tmp/ccCpBAv9.s 			page 13


 625 01f4 8000 0000 		BRA	#.L67
 626               	.L63:
 627 01f8 7C90 2E00 		CMP.B	#46, R12 { JEQ	.L47
 627      0024 
 628 01fe 7C90 2F00 		CMP.B	#47, R12 { JNE	.L43
 628      0020 
 629 0204 7EC2      		BIC.B	#8, R14
 630 0206 6E93 0020 		CMP.B	#2, R14 { JNE	.L179
 631 020a 8000 0000 		BRA	#.L66
 632               	.L53:
 633 020e 7E90 0300 		CMP.B	#3, R14 { JEQ	.L66
 633      0024 
 634 0214 8000 0000 		BRA	#.L67
 635               	.L47:
 636 0218 7C40 FBFF 		MOV.B	#-5, R12
 637               	.L181:
 638 021c 4C9E 002C 		CMP.B	R14, R12 { JHS	.L66
 639 0220 8000 0000 		BRA	#.L67
 640               	.L52:
 641 0224 4C4E      		MOV.B	R14, R12
 642 0226 7C53      		ADD.B	#-1, R12
 643 0228 7D40 FAFF 		MOV.B	#-6, R13
 644 022c 4D9C 0028 		CMP.B	R12, R13 { JLO	.L67
 645 0230 1EB3 0020 		BIT.W	#1, R14 { JNE	.L66
 646 0234 8000 0000 		BRA	#.L67
 647               	.L50:
 648 0238 7E50 FEFF 		ADD.B	#-2, R14
 649 023c 7F40 F9FF 		MOV.B	#-7, R15
 650 0240 4F9E 002C 		CMP.B	R14, R15 { JHS	.L66
 651 0244 8000 0000 		BRA	#.L67
 652               	.L68:
 653 0248 0D48      		MOV.W	R8, R13
 654 024a 2D53      		ADD.W	#2, R13
 655 024c 4D0E 4D0D 		RLAM.A #4, R13 { RRAM.A #4, R13
 656 0250 CC0A      		MOVA	R10, R12
 657 0252 B013 0000 		CALLA	#crcCheckX25
 658 0256 4A4C      		MOV.B	R12, R10
 659 0258 0A93 0020 		CMP.W	#0, R10 { JNE	.L69
 660 025c 7C40 8BFF 		MOV.B	#-117, R12
 661 0260 B013 0000 		CALLA	#elyErrorSignal
 662 0264 8000 0000 		BRA	#.L40
 663               		.size	elyCmdValidate, .-elyCmdValidate
 664               		.section	.text.elyCmdDispatch,"ax",@progbits
 665               		.balign 2
 666               		.global	elyCmdDispatch
 667               		.type	elyCmdDispatch, @function
 668               	elyCmdDispatch:
 669               	; start of function
 670               	; framesize_regs:     4
 671               	; framesize_locals:   8
 672               	; framesize_outgoing: 0
 673               	; framesize:          12
 674               	; elim ap -> fp       8
 675               	; elim fp -> sp       8
 676               	; saved regs: R10
 677               		; start of prologue
 678 0000 0A14      		PUSHM.A	#1, R10
GAS LISTING /tmp/ccCpBAv9.s 			page 14


 679 0002 B100 0800 		SUBA	#8, R1
 680               		; end of prologue
 681 0006 2F4C      		MOV.W	@R12, R15
 682 0008 914C 0200 		MOV.W	2(R12), 6(R1)
 682      0600 
 683 000e CC0D      		MOVA	R13, R12
 684 0010 0E4F      		MOV.W	R15, R14
 685 0012 5E07      		rrum.w	#2, R14
 686 0014 7EF0 3F00 		AND.B	#63, R14
 687 0018 814F 0400 		MOV.W	R15, 4(R1)
 688 001c 0F43      		MOV.W	#0,R15
 689 001e 0A4E      		MOV.W	R14, R10
 690 0020 0B4F      		MOV.W	R15, R11
 691 0022 0A5A 0B6B 		RLA.W	R10 { RLC.W	R11 { RLA.W	R10 { RLC.W	R11
 691      0A5A 0B6B 
 692 002a 814A 0000 		MOV.W	R10, @R1
 693 002e 814B 0200 		MOV.W	R11, 2(R1)
 694 0032 CD01      		MOVA	R1, R13
 695 0034 AD00 0400 		ADDA	#4, R13
 696 0038 0A01      		MOVA	@R1, R10
 697 003a 0018 5A4A 		MOVX.A	handlers(R10), R10
 697      0000 
 698 0040 4A13      		CALLA	R10
 699               		; start of epilogue
 700 0042 A100 0800 		ADDA	#8, R1
 701 0046 0A16      		POPM.A	#1, r10
 702 0048 1001      		RETA
 703               		.size	elyCmdDispatch, .-elyCmdDispatch
 704               		.section	.text.elyCmdSendReplyI,"ax",@progbits
 705               		.balign 2
 706               		.global	elyCmdSendReplyI
 707               		.type	elyCmdSendReplyI, @function
 708               	elyCmdSendReplyI:
 709               	; start of function
 710               	; framesize_regs:     12
 711               	; framesize_locals:   0
 712               	; framesize_outgoing: 0
 713               	; framesize:          12
 714               	; elim ap -> fp       16
 715               	; elim fp -> sp       0
 716               	; saved regs: R8 R9 R10
 717               		; start of prologue
 718 0000 2A14      		PUSHM.A	#3, R10
 719               		; end of prologue
 720 0002 094D      		MOV.W	R13, R9
 721 0004 584C 0100 		MOV.B	1(R12), R8
 722 0008 B013 0000 		CALLA	#elyNLFromFW
 723 000c CA0C      		MOVA	R12, R10
 724 000e 0E49      		MOV.W	R9, R14
 725 0010 0D48      		MOV.W	R8, R13
 726 0012 2D52      		ADD.W	#4, R13
 727 0014 B013 0000 		CALLA	#elyNLSetHeader
 728 0018 0D49      		MOV.W	R9, R13
 729 001a CC0A      		MOVA	R10, R12
 730 001c B013 0000 		CALLA	#elyNLGetDest
 731 0020 4C93 0024 		CMP.B	#0, R12 { JEQ	.L186
 732 0024 5C93 0020 		CMP.B	#1, R12 { JNE	.L194
GAS LISTING /tmp/ccCpBAv9.s 			page 15


 733 0028 CC0A      		MOVA	R10, R12
 734 002a B013 0000 		CALLA	#elyRFPostI
 735               	.L197:
 736 002e 9C00 0000 		CMPA	#0, R12 { JEQ	.L184
 736      0024 
 737 0034 8C00 0000 		MOVA	#__func__.5636, R12
 738 0038 B013 0000 		CALLA	#chSysHalt
 739 003c CC0A      		MOVA	R10, R12
 740 003e B013 0000 		CALLA	#elyFWFreeBuffer
 741               	.L184:
 742               		; start of epilogue
 743 0042 2816      		POPM.A	#3, r10
 744 0044 1001      		RETA
 745               	.L186:
 746 0046 CC0A      		MOVA	R10, R12
 747 0048 B013 0000 		CALLA	#elyUARTPostI
 748 004c 8000 0000 		BRA	#.L197
 749               	.L194:
 750 0050 8C00 0000 		MOVA	#__func__.5636, R12
 751 0054 B013 0000 		CALLA	#chSysHalt
 752 0058 8000 0000 		BRA	#.L184
 753               		.size	elyCmdSendReplyI, .-elyCmdSendReplyI
 754               		.section	.text.store_telem_reply_cb,"ax",@progbits
 755               		.balign 2
 756               		.type	store_telem_reply_cb, @function
 757               	store_telem_reply_cb:
 758               	; start of function
 759               	; framesize_regs:     8
 760               	; framesize_locals:   0
 761               	; framesize_outgoing: 0
 762               	; framesize:          8
 763               	; elim ap -> fp       12
 764               	; elim fp -> sp       0
 765               	; saved regs: R8 R10
 766               		; start of prologue
 767 0000 0A14      		PUSHM.A	#1, R10
 768 0002 0814      		PUSHM.A	#1, R8
 769               		; end of prologue
 770 0004 C80C      		MOVA	R12, R8
 771 0006 8A00 0000 		MOVA	#telem_stored_hdr, R10
 772 000a CD0A      		MOVA	R10, R13
 773 000c B013 0000 		CALLA	#write_success
 774 0010 1D4A 0200 		MOV.W	2(R10), R13
 775 0014 CC08      		MOVA	R8, R12
 776 0016 B013 0000 		CALLA	#elyCmdSendReplyI
 777               		; start of epilogue
 778 001a 0816      		POPM.A	#1, r8
 779 001c 0A16      		POPM.A	#1, r10
 780 001e 1001      		RETA
 781               		.size	store_telem_reply_cb, .-store_telem_reply_cb
 782               		.section	.text.verify_fw_cb,"ax",@progbits
 783               		.balign 2
 784               		.type	verify_fw_cb, @function
 785               	verify_fw_cb:
 786               	; start of function
 787               	; framesize_regs:     16
 788               	; framesize_locals:   0
GAS LISTING /tmp/ccCpBAv9.s 			page 16


 789               	; framesize_outgoing: 0
 790               	; framesize:          16
 791               	; elim ap -> fp       20
 792               	; elim fp -> sp       0
 793               	; saved regs: R6 R8 R9 R10
 794               		; start of prologue
 795 0000 2A14      		PUSHM.A	#3, R10
 796 0002 0614      		PUSHM.A	#1, R6
 797               		; end of prologue
 798 0004 B013 0000 		CALLA	#crcStop
 799 0008 094C      		MOV.W	R12, R9
 800 000a B013 0000 		CALLA	#elyFWGetBufferI
 801 000e C60C      		MOVA	R12, R6
 802 0010 9C00 0000 		CMPA	#0, R12 { JEQ	.L199
 802      0024 
 803 0016 8800 0000 		MOVA	#stored_hdr, R8
 804 001a 8A00 0000 		MOVA	#elyCmdSendReplyI, R10
 805 001e 8D00 0000 		MOVA	#verify_stored_hdr, R13
 806 0022 4018 1992 		CMPX.W	&verify_crc, R9 { JNE	.L201
 806      0000 0020 
 807 002a B013 0000 		CALLA	#write_success
 808               	.L205:
 809 002e 1D48 0200 		MOV.W	2(R8), R13
 810 0032 CC06      		MOVA	R6, R12
 811 0034 4A13      		CALLA	R10
 812               	.L199:
 813               		; start of epilogue
 814 0036 0616      		POPM.A	#1, r6
 815 0038 2816      		POPM.A	#3, r10
 816 003a 1001      		RETA
 817               	.L201:
 818 003c B013 0000 		CALLA	#write_failure
 819 0040 8000 0000 		BRA	#.L205
 820               		.size	verify_fw_cb, .-verify_fw_cb
 821               		.section	.text.upload_fw_reply_cb,"ax",@progbits
 822               		.balign 2
 823               		.type	upload_fw_reply_cb, @function
 824               	upload_fw_reply_cb:
 825               	; start of function
 826               	; framesize_regs:     8
 827               	; framesize_locals:   0
 828               	; framesize_outgoing: 0
 829               	; framesize:          8
 830               	; elim ap -> fp       12
 831               	; elim fp -> sp       0
 832               	; saved regs: R8 R10
 833               		; start of prologue
 834 0000 0A14      		PUSHM.A	#1, R10
 835 0002 0814      		PUSHM.A	#1, R8
 836               		; end of prologue
 837 0004 C80C      		MOVA	R12, R8
 838 0006 8A00 0000 		MOVA	#stored_hdr, R10
 839 000a CD0A      		MOVA	R10, R13
 840 000c B013 0000 		CALLA	#write_success
 841 0010 1D4A 0200 		MOV.W	2(R10), R13
 842 0014 CC08      		MOVA	R8, R12
 843 0016 B013 0000 		CALLA	#elyCmdSendReplyI
GAS LISTING /tmp/ccCpBAv9.s 			page 17


 844               		; start of epilogue
 845 001a 0816      		POPM.A	#1, r8
 846 001c 0A16      		POPM.A	#1, r10
 847 001e 1001      		RETA
 848               		.size	upload_fw_reply_cb, .-upload_fw_reply_cb
 849               		.section	.text.elyCmdSendReply,"ax",@progbits
 850               		.balign 2
 851               		.global	elyCmdSendReply
 852               		.type	elyCmdSendReply, @function
 853               	elyCmdSendReply:
 854               	; start of function
 855               	; framesize_regs:     0
 856               	; framesize_locals:   8
 857               	; framesize_outgoing: 0
 858               	; framesize:          8
 859               	; elim ap -> fp       4
 860               	; elim fp -> sp       8
 861               	; saved regs:(none)
 862               		; start of prologue
 863 0000 B100 0800 		SUBA	#8, R1
 864               		; end of prologue
 865 0004 710C 0400 		MOVA	R12, 4(R1)
 866 0008 710D 0000 		MOVA	R13, @R1
 867 000c B013 0000 		CALLA	#port_lock
 868 0010 0D01      		MOVA	@R1, R13
 869 0012 3C01 0400 		MOVA	4(R1), R12
 870 0016 B013 0000 		CALLA	#elyCmdSendReplyI
 871 001a B013 0000 		CALLA	#port_unlock
 872               		; start of epilogue
 873 001e A100 0800 		ADDA	#8, R1
 874 0022 1001      		RETA
 875               		.size	elyCmdSendReply, .-elyCmdSendReply
 876               		.section	.text.gen_success,"ax",@progbits
 877               		.balign 2
 878               		.type	gen_success, @function
 879               	gen_success:
 880               	; start of function
 881               	; framesize_regs:     12
 882               	; framesize_locals:   4
 883               	; framesize_outgoing: 0
 884               	; framesize:          16
 885               	; elim ap -> fp       16
 886               	; elim fp -> sp       4
 887               	; saved regs: R8 R9 R10
 888               		; start of prologue
 889 0000 2A14      		PUSHM.A	#3, R10
 890 0002 B100 0400 		SUBA	#4, R1
 891               		; end of prologue
 892 0006 284C      		MOV.W	@R12, R8
 893 0008 194C 0200 		MOV.W	2(R12), R9
 894 000c B013 0000 		CALLA	#elyFWGetBuffer
 895 0010 CA0C      		MOVA	R12, R10
 896 0012 9C00 0000 		CMPA	#0, R12 { JEQ	.L208
 896      0024 
 897 0018 8148 0000 		MOV.W	R8, @R1
 898 001c 8149 0200 		MOV.W	R9, 2(R1)
 899 0020 CD01      		MOVA	R1, R13
GAS LISTING /tmp/ccCpBAv9.s 			page 18


 900 0022 B013 0000 		CALLA	#write_success
 901 0026 0D49      		MOV.W	R9, R13
 902 0028 CC0A      		MOVA	R10, R12
 903 002a B013 0000 		CALLA	#elyCmdSendReply
 904               	.L208:
 905               		; start of epilogue
 906 002e A100 0400 		ADDA	#4, R1
 907 0032 2816      		POPM.A	#3, r10
 908 0034 1001      		RETA
 909               		.size	gen_success, .-gen_success
 910               		.section	.text.get_telem,"ax",@progbits
 911               		.balign 2
 912               		.type	get_telem, @function
 913               	get_telem:
 914               	; start of function
 915               	; framesize_regs:     28
 916               	; framesize_locals:   26
 917               	; framesize_outgoing: 0
 918               	; framesize:          54
 919               	; elim ap -> fp       32
 920               	; elim fp -> sp       26
 921               	; saved regs: R4 R5 R6 R7 R8 R9 R10
 922               		; start of prologue
 923 0000 6A14      		PUSHM.A	#7, R10
 924 0002 B100 1A00 		SUBA	#26, R1
 925               		; end of prologue
 926 0006 C60C      		MOVA	R12, R6
 927 0008 254D      		MOV.W	@R13, R5
 928 000a 914D 0200 		MOV.W	2(R13), 8(R1)
 928      0800 
 929 0010 0D45      		MOV.W	R5, R13
 930 0012 5D0F 5D0F 		rrum.w	#4, R13 { rrum.w	#4, R13 
 931 0016 4C45      		MOV.B	R5, R12
 932 0018 4E4C      		MOV.B	R12, R14
 933 001a 6EF3      		AND.B	#2, R14
 934 001c 4F4E      		MOV.B	R14, R15
 935 001e 814F 0600 		MOV.W	R15, 6(R1)
 936 0022 0F93 0024 		CMP.W	#0, R15 { JEQ	.L223
 937 0026 6F42      		MOV.B	#4, R15
 938               	.L214:
 939 0028 4018 1CB3 		BITX.W	#1, R12 { JEQ	.L224
 939      0024 
 940 002e 6C43      		MOV.B	#2, R12
 941               	.L215:
 942 0030 4D8E      		SUB.B	R14, R13
 943 0032 4D8C      		SUB.B	R12, R13
 944 0034 4C4D      		MOV.B	R13, R12
 945 0036 7CC2      		BIC.B	#8, R12
 946 0038 6C92 0020 		CMP.B	#4, R12 { JNE	.L216
 947 003c 4018 0C4F 		MOVX	R15, R12
 948 0040 CE06      		MOVA	R6, R14
 949 0042 EE0C      		ADDA	R12, R14
 950 0044 D14E 0200 		MOV.B	2(R14), 22(R1)
 950      1600 
 951 004a D14E 0300 		MOV.B	3(R14), 23(R1)
 951      1700 
 952 0050 6D92 0020 		CMP.B	#4, R13 { JNE	.L217
GAS LISTING /tmp/ccCpBAv9.s 			page 19


 953               	.L230:
 954 0054 5443      		MOV.B	#1, R4
 955               	.L218:
 956 0056 CC06      		MOVA	R6, R12
 957 0058 B013 0000 		CALLA	#elyNLFromFW
 958 005c B013 0000 		CALLA	#elyNLFreeBuffer
 959 0060 B013 0000 		CALLA	#port_lock
 960 0064 814A 0E00 		MOV.W	R10, 14(R1)
 961 0068 8149 1000 		MOV.W	R9, 16(R1)
 962 006c 8148 1200 		MOV.W	R8, 18(R1)
 963 0070 8147 1400 		MOV.W	R7, 20(R1)
 964 0074 C144 1800 		MOV.B	R4, 24(R1)
 965 0078 CC01      		MOVA	R1, R12
 966 007a AC00 0E00 		ADDA	#14, R12
 967 007e B013 0000 		CALLA	#elyTelemUpdateConfigS
 968 0082 B013 0000 		CALLA	#port_unlock
 969 0086 8193 0600 		CMP.W	#0, 6(R1) { JEQ	.L213
 969      0024 
 970 008c 8145 0A00 		MOV.W	R5, 10(R1)
 971 0090 9141 0800 		MOV.W	8(R1), 12(R1)
 971      0C00 
 972 0096 CC01      		MOVA	R1, R12
 973 0098 AC00 0A00 		ADDA	#10, R12
 974 009c B013 0000 		CALLA	#gen_success
 975               	.L213:
 976               		; start of epilogue
 977 00a0 A100 1A00 		ADDA	#26, R1
 978 00a4 6416      		POPM.A	#7, r10
 979 00a6 1001      		RETA
 980               	.L223:
 981 00a8 6F43      		MOV.B	#2, R15
 982 00aa 8000 0000 		BRA	#.L214
 983               	.L224:
 984 00ae 4C43      		MOV.B	#0, R12
 985 00b0 8000 0000 		BRA	#.L215
 986               	.L217:
 987 00b4 D143 1900 		MOV.B	#1, 25(R1)
 988 00b8 0E4F      		MOV.W	R15, R14
 989 00ba 3E50 0B00 		ADD.W	#11, R14
 990 00be 4E0E 4E0D 		RLAM.A #4, R14 { RRAM.A #4, R14
 991 00c2 EE06      		ADDA	R6, R14
 992 00c4 5E4E FFFF 		MOV.B	-1(R14), R14
 993 00c8 814E 0400 		MOV.W	R14, 4(R1)
 994 00cc AC00 0700 		ADDA	#7, R12
 995 00d0 CE06      		MOVA	R6, R14
 996 00d2 EE0C      		ADDA	R12, R14
 997 00d4 4443      		MOV.B	#0, R4
 998               	.L219:
 999 00d6 6C4E      		MOV.B	@R14, R12
 1000 00d8 0D44      		MOV.W	R4, R13
 1001 00da 710E 0000 		MOVA	R14, @R1
 1002 00de B013 0000 		CALLA	#__mspabi_slli
 1003 00e2 0D4C      		MOV.W	R12, R13
 1004 00e4 0B4C 4E18 		MOV.W	R12, R11 { RPT	#15 { RRAX.W	R12
 1004      0C11 
 1005 00ea 0ADD      		BIS.W	R13, R10
 1006 00ec 09DC      		BIS.W	R12, R9
GAS LISTING /tmp/ccCpBAv9.s 			page 20


 1007 00ee 1C41 0400 		MOV.W	4(R1), R12
 1008 00f2 0D44      		MOV.W	R4, R13
 1009 00f4 B013 0000 		CALLA	#__mspabi_slli
 1010 00f8 0D4C      		MOV.W	R12, R13
 1011 00fa 0B4C 4E18 		MOV.W	R12, R11 { RPT	#15 { RRAX.W	R12
 1011      0C11 
 1012 0100 08DD      		BIS.W	R13, R8
 1013 0102 07DC      		BIS.W	R12, R7
 1014 0104 0E01      		MOVA	@R1, R14
 1015 0106 AE0F FFFF 		ADDA	#-1, R14
 1016 010a 3452      		ADD.W	#8, R4
 1017 010c 3490 2000 		CMP.W	#32, R4 { JNE	.L219
 1017      0020 
 1018 0112 8000 0000 		BRA	#.L230
 1019               	.L216:
 1020 0116 6C42      		MOV.B	#4, R12
 1021 0118 4C9D 002C 		CMP.B	R13, R12 { JHS	.L231
 1022 011c D143 1900 		MOV.B	#1, 25(R1)
 1023 0120 0C4F      		MOV.W	R15, R12
 1024 0122 3C50 0900 		ADD.W	#9, R12
 1025 0126 4C0E 4C0D 		RLAM.A #4, R12 { RRAM.A #4, R12
 1026 012a EC06      		ADDA	R6, R12
 1027 012c 5C4C FFFF 		MOV.B	-1(R12), R12
 1028 0130 814C 0400 		MOV.W	R12, 4(R1)
 1029 0134 4018 0E4F 		MOVX	R15, R14
 1030 0138 AE00 0500 		ADDA	#5, R14
 1031 013c EE06      		ADDA	R6, R14
 1032 013e 4443      		MOV.B	#0, R4
 1033               	.L220:
 1034 0140 6C4E      		MOV.B	@R14, R12
 1035 0142 0D44      		MOV.W	R4, R13
 1036 0144 710E 0000 		MOVA	R14, @R1
 1037 0148 B013 0000 		CALLA	#__mspabi_slli
 1038 014c 0D4C      		MOV.W	R12, R13
 1039 014e 0B4C 4E18 		MOV.W	R12, R11 { RPT	#15 { RRAX.W	R12
 1039      0C11 
 1040 0154 0ADD      		BIS.W	R13, R10
 1041 0156 09DC      		BIS.W	R12, R9
 1042 0158 1C41 0400 		MOV.W	4(R1), R12
 1043 015c 0D44      		MOV.W	R4, R13
 1044 015e B013 0000 		CALLA	#__mspabi_slli
 1045 0162 0D4C      		MOV.W	R12, R13
 1046 0164 0B4C 4E18 		MOV.W	R12, R11 { RPT	#15 { RRAX.W	R12
 1046      0C11 
 1047 016a 08DD      		BIS.W	R13, R8
 1048 016c 07DC      		BIS.W	R12, R7
 1049 016e 0E01      		MOVA	@R1, R14
 1050 0170 AE0F FFFF 		ADDA	#-1, R14
 1051 0174 3452      		ADD.W	#8, R4
 1052 0176 3490 2000 		CMP.W	#32, R4 { JNE	.L220
 1052      0020 
 1053               	.L231:
 1054 017c 4443      		MOV.B	#0, R4
 1055 017e 8000 0000 		BRA	#.L218
 1056               		.size	get_telem, .-get_telem
 1057               		.section	.text.install_fw,"ax",@progbits
 1058               		.balign 2
GAS LISTING /tmp/ccCpBAv9.s 			page 21


 1059               		.type	install_fw, @function
 1060               	install_fw:
 1061               	; start of function
 1062               	; framesize_regs:     24
 1063               	; framesize_locals:   4
 1064               	; framesize_outgoing: 0
 1065               	; framesize:          28
 1066               	; elim ap -> fp       28
 1067               	; elim fp -> sp       4
 1068               	; saved regs: R4 R6 R7 R8 R9 R10
 1069               		; start of prologue
 1070 0000 4A14      		PUSHM.A	#5, R10
 1071 0002 0414      		PUSHM.A	#1, R4
 1072 0004 B100 0400 		SUBA	#4, R1
 1073               		; end of prologue
 1074 0008 C60C      		MOVA	R12, R6
 1075 000a 274D      		MOV.W	@R13, R7
 1076 000c 1A4D 0200 		MOV.W	2(R13), R10
 1077 0010 0947      		MOV.W	R7, R9
 1078 0012 8400 0000 		MOVA	#elyNLFromFW, R4
 1079 0016 4413      		CALLA	R4
 1080 0018 8800 0000 		MOVA	#elyNLFreeBuffer, R8
 1081 001c 4813      		CALLA	R8
 1082 001e 4018 27B3 		BITX.W	#2, R7 { JEQ	.L233
 1082      0024 
 1083 0024 8147 0000 		MOV.W	R7, @R1
 1084 0028 814A 0200 		MOV.W	R10, 2(R1)
 1085 002c CC01      		MOVA	R1, R12
 1086 002e B013 0000 		CALLA	#gen_success
 1087               	.L234:
 1088 0032 4018 D243 		MOVX.B	#1, &bootloader
 1088      0000 
 1089 0038 C01F B240 		MOVX.W	#-23224, &PMMCTL0
 1089      48A5 0000 
 1090               		; start of epilogue
 1091 0040 A100 0400 		ADDA	#4, R1
 1092 0044 0416      		POPM.A	#1, r4
 1093 0046 4616      		POPM.A	#5, r10
 1094 0048 1001      		RETA
 1095               	.L233:
 1096 004a CC06      		MOVA	R6, R12
 1097 004c 4413      		CALLA	R4
 1098 004e 4813      		CALLA	R8
 1099 0050 8000 0000 		BRA	#.L234
 1100               		.size	install_fw, .-install_fw
 1101               		.section	.text.cancel_fw,"ax",@progbits
 1102               		.balign 2
 1103               		.type	cancel_fw, @function
 1104               	cancel_fw:
 1105               	; start of function
 1106               	; framesize_regs:     28
 1107               	; framesize_locals:   8
 1108               	; framesize_outgoing: 0
 1109               	; framesize:          36
 1110               	; elim ap -> fp       32
 1111               	; elim fp -> sp       8
 1112               	; saved regs: R4 R5 R6 R7 R8 R9 R10
GAS LISTING /tmp/ccCpBAv9.s 			page 22


 1113               		; start of prologue
 1114 0000 6A14      		PUSHM.A	#7, R10
 1115 0002 B100 0800 		SUBA	#8, R1
 1116               		; end of prologue
 1117 0006 2A4D      		MOV.W	@R13, R10
 1118 0008 174D 0200 		MOV.W	2(R13), R7
 1119 000c B013 0000 		CALLA	#elyNLFromFW
 1120 0010 B013 0000 		CALLA	#elyNLFreeBuffer
 1121 0014 3840 0004 		MOV.W	#1024, R8
 1122 0018 5943      		MOV.B	#1, R9
 1123 001a 8400 0000 		MOVA	#port_lock, R4
 1124 001e 8500 0000 		MOVA	#elyFramGetRequestTimeoutS, R5
 1125               	.L240:
 1126 0022 4413      		CALLA	R4
 1127 0024 4D43      		MOV.B	#0, R13
 1128 0026 CC01      		MOVA	R1, R12
 1129 0028 AC00 0400 		ADDA	#4, R12
 1130 002c 4513      		CALLA	R5
 1131 002e 8600 0000 		MOVA	#port_unlock, R6
 1132 0032 4613      		CALLA	R6
 1133 0034 3C01 0400 		MOVA	4(R1), R12
 1134 0038 8C48 0000 		MOV.W	R8, @R12
 1135 003c 8C49 0200 		MOV.W	R9, 2(R12)
 1136 0040 5D4C 0400 		MOV.B	4(R12), R13
 1137 0044 6DC3      		BIC.B	#2, R13
 1138 0046 5DD3      		BIS.B	#1, R13
 1139 0048 CC4D 0400 		MOV.B	R13, 4(R12)
 1140 004c 1D4C 0400 		MOV.W	4(R12), R13
 1141 0050 7DF0 0300 		AND.B	#3, R13
 1142 0054 3DD0 0002 		BIS.W	#512, R13
 1143 0058 8C4D 0400 		MOV.W	R13, 4(R12)
 1144 005c FCF0 F8FF 		AND.B	#-8, 6(R12)
 1144      0600 
 1145 0062 0018 FC40 		MOVX.A	#fill_value.5522, 8(R12)
 1145      0000 0800 
 1146 006a 0018 FC40 		MOVX.A	#cancel_fw_eeprom_cb, 12(R12)
 1146      0000 0C00 
 1147 0072 4413      		CALLA	R4
 1148 0074 3C01 0400 		MOVA	4(R1), R12
 1149 0078 B013 0000 		CALLA	#elyFramPostRequestS
 1150 007c 4613      		CALLA	R6
 1151 007e 4D43      		MOV.B	#0, R13
 1152 0080 8C00 0000 		MOVA	#cancel_sem, R12
 1153 0084 B013 0000 		CALLA	#chSemWaitTimeout
 1154 0088 3850 8000 		ADD	#128, R8 ; cy
 1155 008c 0963      		ADDC	#0, R9
 1156 008e 0893 0020 		CMP.W	#0, R8 { JNE	.L240
 1157 0092 2993 0020 		CMP.W	#2, R9 { JNE	.L240
 1158 0096 4018 2AB3 		BITX.W	#2, R10 { JEQ	.L235
 1158      0024 
 1159 009c 814A 0000 		MOV.W	R10, @R1
 1160 00a0 8147 0200 		MOV.W	R7, 2(R1)
 1161 00a4 CC01      		MOVA	R1, R12
 1162 00a6 B013 0000 		CALLA	#gen_success
 1163               	.L235:
 1164               		; start of epilogue
 1165 00aa A100 0800 		ADDA	#8, R1
GAS LISTING /tmp/ccCpBAv9.s 			page 23


 1166 00ae 6416      		POPM.A	#7, r10
 1167 00b0 1001      		RETA
 1168               		.size	cancel_fw, .-cancel_fw
 1169               		.section	.text.reset_event,"ax",@progbits
 1170               		.balign 2
 1171               		.type	reset_event, @function
 1172               	reset_event:
 1173               	; start of function
 1174               	; framesize_regs:     16
 1175               	; framesize_locals:   4
 1176               	; framesize_outgoing: 0
 1177               	; framesize:          20
 1178               	; elim ap -> fp       20
 1179               	; elim fp -> sp       4
 1180               	; saved regs: R7 R8 R9 R10
 1181               		; start of prologue
 1182 0000 3A14      		PUSHM.A	#4, R10
 1183 0002 B100 0400 		SUBA	#4, R1
 1184               		; end of prologue
 1185 0006 C80C      		MOVA	R12, R8
 1186 0008 294D      		MOV.W	@R13, R9
 1187 000a 1A4D 0200 		MOV.W	2(R13), R10
 1188 000e 0749      		MOV.W	R9, R7
 1189 0010 B013 0000 		CALLA	#elyEventReset
 1190 0014 4018 29B3 		BITX.W	#2, R9 { JEQ	.L243
 1190      0024 
 1191 001a 8149 0000 		MOV.W	R9, @R1
 1192 001e 814A 0200 		MOV.W	R10, 2(R1)
 1193 0022 CC01      		MOVA	R1, R12
 1194 0024 B013 0000 		CALLA	#gen_success
 1195               	.L243:
 1196 0028 CC08      		MOVA	R8, R12
 1197 002a B013 0000 		CALLA	#elyNLFromFW
 1198 002e B013 0000 		CALLA	#elyNLFreeBuffer
 1199               		; start of epilogue
 1200 0032 A100 0400 		ADDA	#4, R1
 1201 0036 3716      		POPM.A	#4, r10
 1202 0038 1001      		RETA
 1203               		.size	reset_event, .-reset_event
 1204               		.section	.text.reset_chan,"ax",@progbits
 1205               		.balign 2
 1206               		.type	reset_chan, @function
 1207               	reset_chan:
 1208               	; start of function
 1209               	; framesize_regs:     16
 1210               	; framesize_locals:   4
 1211               	; framesize_outgoing: 0
 1212               	; framesize:          20
 1213               	; elim ap -> fp       20
 1214               	; elim fp -> sp       4
 1215               	; saved regs: R7 R8 R9 R10
 1216               		; start of prologue
 1217 0000 3A14      		PUSHM.A	#4, R10
 1218 0002 B100 0400 		SUBA	#4, R1
 1219               		; end of prologue
 1220 0006 C80C      		MOVA	R12, R8
 1221 0008 294D      		MOV.W	@R13, R9
GAS LISTING /tmp/ccCpBAv9.s 			page 24


 1222 000a 1A4D 0200 		MOV.W	2(R13), R10
 1223 000e 0749      		MOV.W	R9, R7
 1224 0010 B013 0000 		CALLA	#elyChanReset
 1225 0014 4018 29B3 		BITX.W	#2, R9 { JEQ	.L248
 1225      0024 
 1226 001a 8149 0000 		MOV.W	R9, @R1
 1227 001e 814A 0200 		MOV.W	R10, 2(R1)
 1228 0022 CC01      		MOVA	R1, R12
 1229 0024 B013 0000 		CALLA	#gen_success
 1230               	.L248:
 1231 0028 CC08      		MOVA	R8, R12
 1232 002a B013 0000 		CALLA	#elyNLFromFW
 1233 002e B013 0000 		CALLA	#elyNLFreeBuffer
 1234               		; start of epilogue
 1235 0032 A100 0400 		ADDA	#4, R1
 1236 0036 3716      		POPM.A	#4, r10
 1237 0038 1001      		RETA
 1238               		.size	reset_chan, .-reset_chan
 1239               		.section	.text.gen_failure,"ax",@progbits
 1240               		.balign 2
 1241               		.type	gen_failure, @function
 1242               	gen_failure:
 1243               	; start of function
 1244               	; framesize_regs:     12
 1245               	; framesize_locals:   4
 1246               	; framesize_outgoing: 0
 1247               	; framesize:          16
 1248               	; elim ap -> fp       16
 1249               	; elim fp -> sp       4
 1250               	; saved regs: R8 R9 R10
 1251               		; start of prologue
 1252 0000 2A14      		PUSHM.A	#3, R10
 1253 0002 B100 0400 		SUBA	#4, R1
 1254               		; end of prologue
 1255 0006 284C      		MOV.W	@R12, R8
 1256 0008 194C 0200 		MOV.W	2(R12), R9
 1257 000c B013 0000 		CALLA	#elyFWGetBuffer
 1258 0010 CA0C      		MOVA	R12, R10
 1259 0012 9C00 0000 		CMPA	#0, R12 { JEQ	.L252
 1259      0024 
 1260 0018 8148 0000 		MOV.W	R8, @R1
 1261 001c 8149 0200 		MOV.W	R9, 2(R1)
 1262 0020 CD01      		MOVA	R1, R13
 1263 0022 B013 0000 		CALLA	#write_failure
 1264 0026 0D49      		MOV.W	R9, R13
 1265 0028 CC0A      		MOVA	R10, R12
 1266 002a B013 0000 		CALLA	#elyCmdSendReply
 1267               	.L252:
 1268               		; start of epilogue
 1269 002e A100 0400 		ADDA	#4, R1
 1270 0032 2816      		POPM.A	#3, r10
 1271 0034 1001      		RETA
 1272               		.size	gen_failure, .-gen_failure
 1273               		.section	.text.upload_fw,"ax",@progbits
 1274               		.balign 2
 1275               		.type	upload_fw, @function
 1276               	upload_fw:
GAS LISTING /tmp/ccCpBAv9.s 			page 25


 1277               	; start of function
 1278               	; framesize_regs:     28
 1279               	; framesize_locals:   20
 1280               	; framesize_outgoing: 0
 1281               	; framesize:          48
 1282               	; elim ap -> fp       32
 1283               	; elim fp -> sp       20
 1284               	; saved regs: R4 R5 R6 R7 R8 R9 R10
 1285               		; start of prologue
 1286 0000 6A14      		PUSHM.A	#7, R10
 1287 0002 B100 1400 		SUBA	#20, R1
 1288               		; end of prologue
 1289 0006 C60C      		MOVA	R12, R6
 1290 0008 274D      		MOV.W	@R13, R7
 1291 000a 914D 0200 		MOV.W	2(R13), 8(R1)
 1291      0800 
 1292 0010 0A47      		MOV.W	R7, R10
 1293 0012 5A0F 5A0F 		rrum.w	#4, R10 { rrum.w	#4, R10 
 1294 0016 814A 0A00 		MOV.W	R10, 10(R1)
 1295 001a 4A47      		MOV.B	R7, R10
 1296 001c 814A 0000 		MOV.W	R10, @R1
 1297 0020 0C4A      		MOV.W	R10, R12
 1298 0022 6CF3      		AND.B	#2, R12
 1299 0024 454C      		MOV.B	R12, R5
 1300 0026 0593 0024 		CMP.W	#0, R5 { JEQ	.L269
 1301 002a 6D42      		MOV.B	#4, R13
 1302               	.L258:
 1303 002c 0018 C14D 		MOVX.A	R13, 4(R1)
 1303      0400 
 1304 0032 3A01 0400 		MOVA	4(R1), R10
 1305 0036 EA06      		ADDA	R6, R10
 1306 0038 7840 1800 		MOV.B	#24, R8
 1307 003c 4443      		MOV.B	#0, R4
 1308 003e 0944      		MOV.W	R4, R9
 1309               	.L259:
 1310 0040 6C4A 0D43 		MOV.B	@R10,R12 { CLR	R13
 1311 0044 0E48 0F43 		MOV.W	R8,R14 { MOV.W	#0,R15
 1312 0048 B013 0000 		CALLA	#__mspabi_slll
 1313 004c 0CD4      		BIS.W	R4, R12
 1314 004e 0DD9      		BIS.W	R9, R13
 1315 0050 044C      		MOV.W	R12, R4
 1316 0052 094D      		MOV.W	R13, R9
 1317 0054 AA00 0100 		ADDA	#1, R10
 1318 0058 3850 F8FF 		ADD.W	#-8, R8
 1319 005c 3890 F8FF 		CMP.W	#-8, R8 { JNE	.L259
 1319      0020 
 1320 0062 3C50 00BC 		ADD	#-17408, R12 ; cy
 1321 0066 0A4D      		MOV.W	R13, R10
 1322 0068 3A63      		ADDC	#-1, R10
 1323 006a 0A93 0020 		CMP.W	#0, R10 { JNE	.L272
 1324 006e 3D40 FFFB 		MOV.W	#-1025, R13
 1325 0072 0D9C 002C 		CMP.W	R12, R13 { JHS	.L274
 1326               	.L272:
 1327 0076 0593 0024 		CMP.W	#0, R5 { JEQ	.L262
 1328 007a 8147 0C00 		MOV.W	R7, 12(R1)
 1329 007e 9141 0800 		MOV.W	8(R1), 14(R1)
 1329      0E00 
GAS LISTING /tmp/ccCpBAv9.s 			page 26


 1330 0084 CC01      		MOVA	R1, R12
 1331 0086 AC00 0C00 		ADDA	#12, R12
 1332 008a B013 0000 		CALLA	#gen_failure
 1333               	.L275:
 1334 008e CC06      		MOVA	R6, R12
 1335 0090 B013 0000 		CALLA	#elyNLFromFW
 1336 0094 B013 0000 		CALLA	#elyNLFreeBuffer
 1337               	.L257:
 1338               		; start of epilogue
 1339 0098 A100 1400 		ADDA	#20, R1
 1340 009c 6416      		POPM.A	#7, r10
 1341 009e 1001      		RETA
 1342               	.L269:
 1343 00a0 6D43      		MOV.B	#2, R13
 1344 00a2 8000 0000 		BRA	#.L258
 1345               	.L262:
 1346 00a6 7C40 8CFF 		MOV.B	#-116, R12
 1347 00aa B013 0000 		CALLA	#elyErrorSignal
 1348 00ae 8000 0000 		BRA	#.L275
 1349               	.L274:
 1350 00b2 B013 0000 		CALLA	#elyFWGetBuffer
 1351 00b6 C80C      		MOVA	R12, R8
 1352 00b8 9C00 0000 		CMPA	#0, R12 { JEQ	.L275
 1352      0024 
 1353 00be B013 0000 		CALLA	#port_lock
 1354 00c2 0D4A      		MOV.W	R10, R13
 1355 00c4 CC01      		MOVA	R1, R12
 1356 00c6 AC00 1000 		ADDA	#16, R12
 1357 00ca B013 0000 		CALLA	#elyFramGetRequestTimeoutS
 1358 00ce B013 0000 		CALLA	#port_unlock
 1359 00d2 3E01 1000 		MOVA	16(R1), R14
 1360 00d6 1C41 0A00 		MOV.W	10(R1), R12
 1361 00da 0C85      		SUB.W	R5, R12
 1362 00dc 4018 91B3 		BITX.W	#1, @R1 { JEQ	.L266
 1362      0000 0024 
 1363 00e4 6A43      		MOV.B	#2, R10
 1364               	.L266:
 1365 00e6 0C8A      		SUB.W	R10, R12
 1366 00e8 3C50 FCFF 		ADD.W	#-4, R12
 1367 00ec 0A4C      		MOV.W	R12, R10
 1368 00ee 4A0E 4A0D 		RLAM.A #4, R10 { RRAM.A #4, R10
 1369 00f2 8018 7AF0 		ANDX.A	#131071, R10
 1369      FFFF 
 1370 00f8 710A 0000 		MOVA	R10, @R1
 1371 00fc 0C4A      		MOV.W	R10, R12
 1372 00fe 4118 0C5C 		rpt	#2 { rlax.w	R12
 1373 0102 1D4E 0400 		MOV.W	4(R14), R13
 1374 0106 7DF0 0300 		AND.B	#3, R13
 1375 010a 0DDC      		BIS.W	R12, R13
 1376 010c 8E4D 0400 		MOV.W	R13, 4(R14)
 1377 0110 0F4A      		MOV.W	R10, R15
 1378 0112 5F03 4C18 		rrum.w	#1, R15 { rpt	#13 { rrax.w	R15
 1378      0F11 
 1379 0118 5D4E 0600 		MOV.B	6(R14), R13
 1380 011c 7DF0 F8FF 		AND.B	#-8, R13
 1381 0120 0A01      		MOVA	@R1, R10
 1382 0122 0A14 0C17 		PUSHM.A	#1,R10 { POPM.W	#1,R12 { POPM.W	#1,R12
GAS LISTING /tmp/ccCpBAv9.s 			page 27


 1382      0C17 
 1383 0128 5CF3      		AND.B	#1, R12
 1384 012a 4118 0C5C 		rpt	#2 { rlax.w	R12
 1385 012e 4DDF      		BIS.B	R15, R13
 1386 0130 4DDC      		BIS.B	R12, R13
 1387 0132 CE4D 0600 		MOV.B	R13, 6(R14)
 1388 0136 3D01 0400 		MOVA	4(R1), R13
 1389 013a AD00 0400 		ADDA	#4, R13
 1390 013e CE0A      		MOVA	R10, R14
 1391 0140 ED06      		ADDA	R6, R13
 1392 0142 CC08      		MOVA	R8, R12
 1393 0144 B013 0000 		CALLA	#memcpy
 1394 0148 CC06      		MOVA	R6, R12
 1395 014a B013 0000 		CALLA	#elyNLFromFW
 1396 014e B013 0000 		CALLA	#elyNLFreeBuffer
 1397 0152 4018 8247 		MOVX.W	R7, &stored_hdr
 1397      0000 
 1398 0158 4018 9241 		MOVX.W	8(R1), &stored_hdr+2
 1398      0800 0000 
 1399 0160 3C01 1000 		MOVA	16(R1), R12
 1400 0164 3450 00C0 		ADD	#-16384, R4 ; cy
 1401 0168 8C44 0000 		MOV.W	R4, @R12
 1402 016c 0963      		ADDC	#0, R9
 1403 016e 8C49 0200 		MOV.W	R9, 2(R12)
 1404 0172 ECC3 0400 		BIC.B	#2, 4(R12)
 1405 0176 7C08 0800 		MOVA	R8, 8(R12)
 1406 017a 0593 0024 		CMP.W	#0, R5 { JEQ	.L271
 1407 017e 8E00 0000 		MOVA	#upload_fw_reply_cb, R14
 1408               	.L267:
 1409 0182 7C0E 0C00 		MOVA	R14, 12(R12)
 1410 0186 B013 0000 		CALLA	#port_lock
 1411 018a 3C01 1000 		MOVA	16(R1), R12
 1412 018e B013 0000 		CALLA	#elyFramPostRequestS
 1413 0192 B013 0000 		CALLA	#port_unlock
 1414 0196 8000 0000 		BRA	#.L257
 1415               	.L271:
 1416 019a 8E00 0000 		MOVA	#upload_fw_noreply_cb, R14
 1417 019e 8000 0000 		BRA	#.L267
 1418               		.size	upload_fw, .-upload_fw
 1419               		.section	.text.set_log,"ax",@progbits
 1420               		.balign 2
 1421               		.type	set_log, @function
 1422               	set_log:
 1423               	; start of function
 1424               	; framesize_regs:     16
 1425               	; framesize_locals:   4
 1426               	; framesize_outgoing: 0
 1427               	; framesize:          20
 1428               	; elim ap -> fp       20
 1429               	; elim fp -> sp       4
 1430               	; saved regs: R7 R8 R9 R10
 1431               		; start of prologue
 1432 0000 3A14      		PUSHM.A	#4, R10
 1433 0002 B100 0400 		SUBA	#4, R1
 1434               		; end of prologue
 1435 0006 2A4D      		MOV.W	@R13, R10
 1436 0008 184D 0200 		MOV.W	2(R13), R8
GAS LISTING /tmp/ccCpBAv9.s 			page 28


 1437 000c 494A      		MOV.B	R10, R9
 1438 000e 69F3      		AND.B	#2, R9
 1439 0010 39F0 FF00 		AND	#0xff, R9
 1440 0014 0993 0020 		CMP.W	#0, R9 { JNE	.L281
 1441 0018 6E43      		MOV.B	#2, R14
 1442               	.L277:
 1443 001a 4018 0E4E 		MOVX	R14, R14
 1444 001e EE0C      		ADDA	R12, R14
 1445 0020 674E      		MOV.B	@R14, R7
 1446 0022 B013 0000 		CALLA	#elyNLFromFW
 1447 0026 B013 0000 		CALLA	#elyNLFreeBuffer
 1448 002a 7C40 1F00 		MOV.B	#31, R12
 1449 002e 4C97 002C 		CMP.B	R7, R12 { JHS	.L278
 1450 0032 0993 0024 		CMP.W	#0, R9 { JEQ	.L279
 1451 0036 814A 0000 		MOV.W	R10, @R1
 1452 003a 8148 0200 		MOV.W	R8, 2(R1)
 1453 003e CC01      		MOVA	R1, R12
 1454 0040 B013 0000 		CALLA	#gen_failure
 1455               	.L276:
 1456               		; start of epilogue
 1457 0044 A100 0400 		ADDA	#4, R1
 1458 0048 3716      		POPM.A	#4, r10
 1459 004a 1001      		RETA
 1460               	.L281:
 1461 004c 6E42      		MOV.B	#4, R14
 1462 004e 8000 0000 		BRA	#.L277
 1463               	.L279:
 1464 0052 7C40 8CFF 		MOV.B	#-116, R12
 1465 0056 B013 0000 		CALLA	#elyErrorSignal
 1466 005a 8000 0000 		BRA	#.L276
 1467               	.L278:
 1468 005e 2C00 0000 		MOVA	&bank0w, R12
 1469 0062 CC47 4D00 		MOV.B	R7, 77(R12)
 1470 0066 B013 0000 		CALLA	#port_lock
 1471 006a 4C47      		MOV.B	R7, R12
 1472 006c B013 0000 		CALLA	#elyErrorSetLogLvlS
 1473 0070 B013 0000 		CALLA	#port_unlock
 1474 0074 0993 0024 		CMP.W	#0, R9 { JEQ	.L276
 1475 0078 814A 0000 		MOV.W	R10, @R1
 1476 007c 8148 0200 		MOV.W	R8, 2(R1)
 1477 0080 CC01      		MOVA	R1, R12
 1478 0082 B013 0000 		CALLA	#gen_success
 1479 0086 8000 0000 		BRA	#.L276
 1480               		.size	set_log, .-set_log
 1481               		.section	.text.set_err,"ax",@progbits
 1482               		.balign 2
 1483               		.type	set_err, @function
 1484               	set_err:
 1485               	; start of function
 1486               	; framesize_regs:     16
 1487               	; framesize_locals:   4
 1488               	; framesize_outgoing: 0
 1489               	; framesize:          20
 1490               	; elim ap -> fp       20
 1491               	; elim fp -> sp       4
 1492               	; saved regs: R7 R8 R9 R10
 1493               		; start of prologue
GAS LISTING /tmp/ccCpBAv9.s 			page 29


 1494 0000 3A14      		PUSHM.A	#4, R10
 1495 0002 B100 0400 		SUBA	#4, R1
 1496               		; end of prologue
 1497 0006 2A4D      		MOV.W	@R13, R10
 1498 0008 184D 0200 		MOV.W	2(R13), R8
 1499 000c 494A      		MOV.B	R10, R9
 1500 000e 69F3      		AND.B	#2, R9
 1501 0010 39F0 FF00 		AND	#0xff, R9
 1502 0014 0993 0020 		CMP.W	#0, R9 { JNE	.L290
 1503 0018 6E43      		MOV.B	#2, R14
 1504               	.L286:
 1505 001a 4018 0E4E 		MOVX	R14, R14
 1506 001e EE0C      		ADDA	R12, R14
 1507 0020 674E      		MOV.B	@R14, R7
 1508 0022 B013 0000 		CALLA	#elyNLFromFW
 1509 0026 B013 0000 		CALLA	#elyNLFreeBuffer
 1510 002a 7C40 1F00 		MOV.B	#31, R12
 1511 002e 4C97 002C 		CMP.B	R7, R12 { JHS	.L287
 1512 0032 0993 0024 		CMP.W	#0, R9 { JEQ	.L288
 1513 0036 814A 0000 		MOV.W	R10, @R1
 1514 003a 8148 0200 		MOV.W	R8, 2(R1)
 1515 003e CC01      		MOVA	R1, R12
 1516 0040 B013 0000 		CALLA	#gen_failure
 1517               	.L285:
 1518               		; start of epilogue
 1519 0044 A100 0400 		ADDA	#4, R1
 1520 0048 3716      		POPM.A	#4, r10
 1521 004a 1001      		RETA
 1522               	.L290:
 1523 004c 6E42      		MOV.B	#4, R14
 1524 004e 8000 0000 		BRA	#.L286
 1525               	.L288:
 1526 0052 7C40 8CFF 		MOV.B	#-116, R12
 1527 0056 B013 0000 		CALLA	#elyErrorSignal
 1528 005a 8000 0000 		BRA	#.L285
 1529               	.L287:
 1530 005e 2C00 0000 		MOVA	&bank0w, R12
 1531 0062 CC47 4C00 		MOV.B	R7, 76(R12)
 1532 0066 B013 0000 		CALLA	#port_lock
 1533 006a 4C47      		MOV.B	R7, R12
 1534 006c B013 0000 		CALLA	#elyErrorSetRptLvlS
 1535 0070 B013 0000 		CALLA	#port_unlock
 1536 0074 0993 0024 		CMP.W	#0, R9 { JEQ	.L285
 1537 0078 814A 0000 		MOV.W	R10, @R1
 1538 007c 8148 0200 		MOV.W	R8, 2(R1)
 1539 0080 CC01      		MOVA	R1, R12
 1540 0082 B013 0000 		CALLA	#gen_success
 1541 0086 8000 0000 		BRA	#.L285
 1542               		.size	set_err, .-set_err
 1543               		.section	.text.unlog_event,"ax",@progbits
 1544               		.balign 2
 1545               		.type	unlog_event, @function
 1546               	unlog_event:
 1547               	; start of function
 1548               	; framesize_regs:     28
 1549               	; framesize_locals:   4
 1550               	; framesize_outgoing: 0
GAS LISTING /tmp/ccCpBAv9.s 			page 30


 1551               	; framesize:          32
 1552               	; elim ap -> fp       32
 1553               	; elim fp -> sp       4
 1554               	; saved regs: R4 R5 R6 R7 R8 R9 R10
 1555               		; start of prologue
 1556 0000 6A14      		PUSHM.A	#7, R10
 1557 0002 B100 0400 		SUBA	#4, R1
 1558               		; end of prologue
 1559 0006 C80C      		MOVA	R12, R8
 1560 0008 294D      		MOV.W	@R13, R9
 1561 000a 164D 0200 		MOV.W	2(R13), R6
 1562 000e 0549      		MOV.W	R9, R5
 1563 0010 550F 550F 		rrum.w	#4, R5 { rrum.w	#4, R5 
 1564 0014 4C49      		MOV.B	R9, R12
 1565 0016 4018 1CB3 		BITX.W	#1, R12 { JEQ	.L306
 1565      0024 
 1566 001c 6E43      		MOV.B	#2, R14
 1567               	.L295:
 1568 001e 6CF3      		AND.B	#2, R12
 1569 0020 474C      		MOV.B	R12, R7
 1570 0022 458C      		SUB.B	R12, R5
 1571 0024 458E      		SUB.B	R14, R5
 1572 0026 35F0 FF00 		AND	#0xff, R5
 1573 002a 0793 0024 		CMP.W	#0, R7 { JEQ	.L307
 1574 002e 6A42      		MOV.B	#4, R10
 1575               	.L296:
 1576 0030 4018 044A 		MOVX	R10, R4
 1577 0034 E408      		ADDA	R8, R4
 1578 0036 CC04      		MOVA	R4, R12
 1579 0038 0E4A      		MOV.W	R10, R14
 1580 003a 055A      		ADD.W	R10, R5
 1581               	.L297:
 1582 003c 0E95 0038 		CMP.W	R5, R14 { JL	.L302
 1583               	.L303:
 1584 0040 0A95 0038 		CMP.W	R5, R10 { JL	.L304
 1585 0044 0793 0024 		CMP.W	#0, R7 { JEQ	.L305
 1586 0048 8149 0000 		MOV.W	R9, @R1
 1587 004c 8146 0200 		MOV.W	R6, 2(R1)
 1588 0050 CC01      		MOVA	R1, R12
 1589 0052 B013 0000 		CALLA	#gen_success
 1590 0056 8000 0000 		BRA	#.L305
 1591               	.L306:
 1592 005a 4E43      		MOV.B	#0, R14
 1593 005c 8000 0000 		BRA	#.L295
 1594               	.L307:
 1595 0060 6A43      		MOV.B	#2, R10
 1596 0062 8000 0000 		BRA	#.L296
 1597               	.L302:
 1598 0066 AC00 0100 		ADDA	#1, R12
 1599 006a 7D40 BFFF 		MOV.B	#-65, R13
 1600 006e 5D9C FFFF 		CMP.B	-1(R12), R13 { JLO	.L298
 1600      0028 
 1601 0074 0793 0024 		CMP.W	#0, R7 { JEQ	.L299
 1602 0078 8149 0000 		MOV.W	R9, @R1
 1603 007c 8146 0200 		MOV.W	R6, 2(R1)
 1604 0080 CC01      		MOVA	R1, R12
 1605 0082 B013 0000 		CALLA	#gen_failure
GAS LISTING /tmp/ccCpBAv9.s 			page 31


 1606               	.L305:
 1607 0086 CC08      		MOVA	R8, R12
 1608 0088 B013 0000 		CALLA	#elyNLFromFW
 1609 008c B013 0000 		CALLA	#elyNLFreeBuffer
 1610               		; start of epilogue
 1611 0090 A100 0400 		ADDA	#4, R1
 1612 0094 6416      		POPM.A	#7, r10
 1613 0096 1001      		RETA
 1614               	.L299:
 1615 0098 7C40 8CFF 		MOV.B	#-116, R12
 1616 009c B013 0000 		CALLA	#elyErrorSignal
 1617 00a0 8000 0000 		BRA	#.L305
 1618               	.L298:
 1619 00a4 1E53      		ADD.W	#1, R14
 1620 00a6 8000 0000 		BRA	#.L297
 1621               	.L304:
 1622 00aa 6C44      		MOV.B	@R4, R12
 1623 00ac B013 0000 		CALLA	#elyEventUnlog
 1624 00b0 1A53      		ADD.W	#1, R10
 1625 00b2 A400 0100 		ADDA	#1, R4
 1626 00b6 8000 0000 		BRA	#.L303
 1627               		.size	unlog_event, .-unlog_event
 1628               		.section	.text.log_event,"ax",@progbits
 1629               		.balign 2
 1630               		.type	log_event, @function
 1631               	log_event:
 1632               	; start of function
 1633               	; framesize_regs:     28
 1634               	; framesize_locals:   8
 1635               	; framesize_outgoing: 0
 1636               	; framesize:          36
 1637               	; elim ap -> fp       32
 1638               	; elim fp -> sp       8
 1639               	; saved regs: R4 R5 R6 R7 R8 R9 R10
 1640               		; start of prologue
 1641 0000 6A14      		PUSHM.A	#7, R10
 1642 0002 B100 0800 		SUBA	#8, R1
 1643               		; end of prologue
 1644 0006 C80C      		MOVA	R12, R8
 1645 0008 294D      		MOV.W	@R13, R9
 1646 000a 154D 0200 		MOV.W	2(R13), R5
 1647 000e 0D49      		MOV.W	R9, R13
 1648 0010 5D0F 5D0F 		rrum.w	#4, R13 { rrum.w	#4, R13 
 1649 0014 4C49      		MOV.B	R9, R12
 1650 0016 4018 1CB3 		BITX.W	#1, R12 { JEQ	.L324
 1650      0024 
 1651 001c 6E43      		MOV.B	#2, R14
 1652               	.L312:
 1653 001e 6CF3      		AND.B	#2, R12
 1654 0020 474C      		MOV.B	R12, R7
 1655 0022 4D8C      		SUB.B	R12, R13
 1656 0024 4D8E      		SUB.B	R14, R13
 1657 0026 3DF0 FF00 		AND	#0xff, R13
 1658 002a 0793 0024 		CMP.W	#0, R7 { JEQ	.L325
 1659 002e 6A42      		MOV.B	#4, R10
 1660               	.L313:
 1661 0030 4018 044A 		MOVX	R10, R4
GAS LISTING /tmp/ccCpBAv9.s 			page 32


 1662 0034 E408      		ADDA	R8, R4
 1663 0036 C604      		MOVA	R4, R6
 1664 0038 0E4A      		MOV.W	R10, R14
 1665 003a 0D5A      		ADD.W	R10, R13
 1666               	.L314:
 1667 003c 0E9D 0038 		CMP.W	R13, R14 { JL	.L320
 1668 0040 8600 0000 		MOVA	#elyEventLog, R6
 1669               	.L321:
 1670 0044 0A9D 0038 		CMP.W	R13, R10 { JL	.L322
 1671 0048 0793 0024 		CMP.W	#0, R7 { JEQ	.L323
 1672 004c 8149 0400 		MOV.W	R9, 4(R1)
 1673 0050 8145 0600 		MOV.W	R5, 6(R1)
 1674 0054 CC01      		MOVA	R1, R12
 1675 0056 AC00 0400 		ADDA	#4, R12
 1676 005a B013 0000 		CALLA	#gen_success
 1677 005e 8000 0000 		BRA	#.L323
 1678               	.L324:
 1679 0062 4E43      		MOV.B	#0, R14
 1680 0064 8000 0000 		BRA	#.L312
 1681               	.L325:
 1682 0068 6A43      		MOV.B	#2, R10
 1683 006a 8000 0000 		BRA	#.L313
 1684               	.L320:
 1685 006e 6C46      		MOV.B	@R6, R12
 1686 0070 4F4C      		MOV.B	R12, R15
 1687 0072 7F50 4000 		ADD.B	#64, R15
 1688 0076 7B40 3200 		MOV.B	#50, R11
 1689 007a 4B9F 0028 		CMP.B	R15, R11 { JLO	.L315
 1690 007e 7F50 EDFF 		ADD.B	#-19, R15
 1691 0082 7B40 0C00 		MOV.B	#12, R11
 1692 0086 4B9F 002C 		CMP.B	R15, R11 { JHS	.L315
 1693 008a A600 0100 		ADDA	#1, R6
 1694 008e 7C50 1D00 		ADD.B	#29, R12
 1695 0092 4B9C 0028 		CMP.B	R12, R11 { JLO	.L316
 1696               	.L315:
 1697 0096 0793 0024 		CMP.W	#0, R7 { JEQ	.L317
 1698 009a 8149 0400 		MOV.W	R9, 4(R1)
 1699 009e 8145 0600 		MOV.W	R5, 6(R1)
 1700 00a2 CC01      		MOVA	R1, R12
 1701 00a4 AC00 0400 		ADDA	#4, R12
 1702 00a8 B013 0000 		CALLA	#gen_failure
 1703               	.L323:
 1704 00ac CC08      		MOVA	R8, R12
 1705 00ae B013 0000 		CALLA	#elyNLFromFW
 1706 00b2 B013 0000 		CALLA	#elyNLFreeBuffer
 1707               		; start of epilogue
 1708 00b6 A100 0800 		ADDA	#8, R1
 1709 00ba 6416      		POPM.A	#7, r10
 1710 00bc 1001      		RETA
 1711               	.L317:
 1712 00be 7C40 8CFF 		MOV.B	#-116, R12
 1713 00c2 B013 0000 		CALLA	#elyErrorSignal
 1714 00c6 8000 0000 		BRA	#.L323
 1715               	.L316:
 1716 00ca 1E53      		ADD.W	#1, R14
 1717 00cc 8000 0000 		BRA	#.L314
 1718               	.L322:
GAS LISTING /tmp/ccCpBAv9.s 			page 33


 1719 00d0 6C44      		MOV.B	@R4, R12
 1720 00d2 710D 0000 		MOVA	R13, @R1
 1721 00d6 4613      		CALLA	R6
 1722 00d8 1A53      		ADD.W	#1, R10
 1723 00da A400 0100 		ADDA	#1, R4
 1724 00de 0D01      		MOVA	@R1, R13
 1725 00e0 8000 0000 		BRA	#.L321
 1726               		.size	log_event, .-log_event
 1727               		.section	.text.event_unsub,"ax",@progbits
 1728               		.balign 2
 1729               		.type	event_unsub, @function
 1730               	event_unsub:
 1731               	; start of function
 1732               	; framesize_regs:     28
 1733               	; framesize_locals:   4
 1734               	; framesize_outgoing: 0
 1735               	; framesize:          32
 1736               	; elim ap -> fp       32
 1737               	; elim fp -> sp       4
 1738               	; saved regs: R4 R5 R6 R7 R8 R9 R10
 1739               		; start of prologue
 1740 0000 6A14      		PUSHM.A	#7, R10
 1741 0002 B100 0400 		SUBA	#4, R1
 1742               		; end of prologue
 1743 0006 C80C      		MOVA	R12, R8
 1744 0008 294D      		MOV.W	@R13, R9
 1745 000a 164D 0200 		MOV.W	2(R13), R6
 1746 000e 0549      		MOV.W	R9, R5
 1747 0010 550F 550F 		rrum.w	#4, R5 { rrum.w	#4, R5 
 1748 0014 4C49      		MOV.B	R9, R12
 1749 0016 4018 1CB3 		BITX.W	#1, R12 { JEQ	.L341
 1749      0024 
 1750 001c 6E43      		MOV.B	#2, R14
 1751               	.L330:
 1752 001e 6CF3      		AND.B	#2, R12
 1753 0020 474C      		MOV.B	R12, R7
 1754 0022 458C      		SUB.B	R12, R5
 1755 0024 458E      		SUB.B	R14, R5
 1756 0026 35F0 FF00 		AND	#0xff, R5
 1757 002a 0793 0024 		CMP.W	#0, R7 { JEQ	.L342
 1758 002e 6A42      		MOV.B	#4, R10
 1759               	.L331:
 1760 0030 4018 044A 		MOVX	R10, R4
 1761 0034 E408      		ADDA	R8, R4
 1762 0036 CC04      		MOVA	R4, R12
 1763 0038 0E4A      		MOV.W	R10, R14
 1764 003a 055A      		ADD.W	R10, R5
 1765               	.L332:
 1766 003c 0E95 0038 		CMP.W	R5, R14 { JL	.L337
 1767               	.L338:
 1768 0040 0A95 0038 		CMP.W	R5, R10 { JL	.L339
 1769 0044 0793 0024 		CMP.W	#0, R7 { JEQ	.L340
 1770 0048 8149 0000 		MOV.W	R9, @R1
 1771 004c 8146 0200 		MOV.W	R6, 2(R1)
 1772 0050 CC01      		MOVA	R1, R12
 1773 0052 B013 0000 		CALLA	#gen_success
 1774 0056 8000 0000 		BRA	#.L340
GAS LISTING /tmp/ccCpBAv9.s 			page 34


 1775               	.L341:
 1776 005a 4E43      		MOV.B	#0, R14
 1777 005c 8000 0000 		BRA	#.L330
 1778               	.L342:
 1779 0060 6A43      		MOV.B	#2, R10
 1780 0062 8000 0000 		BRA	#.L331
 1781               	.L337:
 1782 0066 AC00 0100 		ADDA	#1, R12
 1783 006a 7D40 BFFF 		MOV.B	#-65, R13
 1784 006e 5D9C FFFF 		CMP.B	-1(R12), R13 { JLO	.L333
 1784      0028 
 1785 0074 0793 0024 		CMP.W	#0, R7 { JEQ	.L334
 1786 0078 8149 0000 		MOV.W	R9, @R1
 1787 007c 8146 0200 		MOV.W	R6, 2(R1)
 1788 0080 CC01      		MOVA	R1, R12
 1789 0082 B013 0000 		CALLA	#gen_failure
 1790               	.L340:
 1791 0086 CC08      		MOVA	R8, R12
 1792 0088 B013 0000 		CALLA	#elyNLFromFW
 1793 008c B013 0000 		CALLA	#elyNLFreeBuffer
 1794               		; start of epilogue
 1795 0090 A100 0400 		ADDA	#4, R1
 1796 0094 6416      		POPM.A	#7, r10
 1797 0096 1001      		RETA
 1798               	.L334:
 1799 0098 7C40 8CFF 		MOV.B	#-116, R12
 1800 009c B013 0000 		CALLA	#elyErrorSignal
 1801 00a0 8000 0000 		BRA	#.L340
 1802               	.L333:
 1803 00a4 1E53      		ADD.W	#1, R14
 1804 00a6 8000 0000 		BRA	#.L332
 1805               	.L339:
 1806 00aa 6C44      		MOV.B	@R4, R12
 1807 00ac B013 0000 		CALLA	#elyEventUnsubscribe
 1808 00b0 1A53      		ADD.W	#1, R10
 1809 00b2 A400 0100 		ADDA	#1, R4
 1810 00b6 8000 0000 		BRA	#.L338
 1811               		.size	event_unsub, .-event_unsub
 1812               		.section	.text.event_sub,"ax",@progbits
 1813               		.balign 2
 1814               		.type	event_sub, @function
 1815               	event_sub:
 1816               	; start of function
 1817               	; framesize_regs:     28
 1818               	; framesize_locals:   8
 1819               	; framesize_outgoing: 0
 1820               	; framesize:          36
 1821               	; elim ap -> fp       32
 1822               	; elim fp -> sp       8
 1823               	; saved regs: R4 R5 R6 R7 R8 R9 R10
 1824               		; start of prologue
 1825 0000 6A14      		PUSHM.A	#7, R10
 1826 0002 B100 0800 		SUBA	#8, R1
 1827               		; end of prologue
 1828 0006 C80C      		MOVA	R12, R8
 1829 0008 274D      		MOV.W	@R13, R7
 1830 000a 144D 0200 		MOV.W	2(R13), R4
GAS LISTING /tmp/ccCpBAv9.s 			page 35


 1831 000e 0A47      		MOV.W	R7, R10
 1832 0010 5A0F 5A0F 		rrum.w	#4, R10 { rrum.w	#4, R10 
 1833 0014 4C47      		MOV.B	R7, R12
 1834 0016 4018 1CB3 		BITX.W	#1, R12 { JEQ	.L361
 1834      0024 
 1835 001c 6D43      		MOV.B	#2, R13
 1836               	.L347:
 1837 001e 6CF3      		AND.B	#2, R12
 1838 0020 454C      		MOV.B	R12, R5
 1839 0022 4A8C      		SUB.B	R12, R10
 1840 0024 4A8D      		SUB.B	R13, R10
 1841 0026 3AF0 FF00 		AND	#0xff, R10
 1842 002a 0593 0024 		CMP.W	#0, R5 { JEQ	.L362
 1843 002e 6942      		MOV.B	#4, R9
 1844               	.L348:
 1845 0030 4018 0649 		MOVX	R9, R6
 1846 0034 E608      		ADDA	R8, R6
 1847 0036 CC06      		MOVA	R6, R12
 1848 0038 0E49      		MOV.W	R9, R14
 1849 003a 0A59      		ADD.W	R9, R10
 1850               	.L349:
 1851 003c 0E9A 0038 		CMP.W	R10, R14 { JL	.L355
 1852 0040 0593 0024 		CMP.W	#0, R5 { JEQ	.L356
 1853 0044 5E48 0200 		MOV.B	2(R8), R14
 1854 0048 4718 0E5E 		rpt	#8 { rlax.w	R14
 1855 004c 5C48 0300 		MOV.B	3(R8), R12
 1856               	.L366:
 1857 0050 0EDC      		BIS.W	R12, R14
 1858               	.L358:
 1859 0052 099A 0038 		CMP.W	R10, R9 { JL	.L359
 1860 0056 0593 0024 		CMP.W	#0, R5 { JEQ	.L360
 1861 005a 8147 0400 		MOV.W	R7, 4(R1)
 1862 005e 8144 0600 		MOV.W	R4, 6(R1)
 1863 0062 CC01      		MOVA	R1, R12
 1864 0064 AC00 0400 		ADDA	#4, R12
 1865 0068 B013 0000 		CALLA	#gen_success
 1866 006c 8000 0000 		BRA	#.L360
 1867               	.L361:
 1868 0070 4D43      		MOV.B	#0, R13
 1869 0072 8000 0000 		BRA	#.L347
 1870               	.L362:
 1871 0076 6943      		MOV.B	#2, R9
 1872 0078 8000 0000 		BRA	#.L348
 1873               	.L355:
 1874 007c 6D4C      		MOV.B	@R12, R13
 1875 007e 4F4D      		MOV.B	R13, R15
 1876 0080 7F50 4000 		ADD.B	#64, R15
 1877 0084 7B40 3200 		MOV.B	#50, R11
 1878 0088 4B9F 0028 		CMP.B	R15, R11 { JLO	.L350
 1879 008c 7F50 EDFF 		ADD.B	#-19, R15
 1880 0090 7B40 0C00 		MOV.B	#12, R11
 1881 0094 4B9F 002C 		CMP.B	R15, R11 { JHS	.L350
 1882 0098 AC00 0100 		ADDA	#1, R12
 1883 009c 7D50 1D00 		ADD.B	#29, R13
 1884 00a0 4B9D 0028 		CMP.B	R13, R11 { JLO	.L351
 1885               	.L350:
 1886 00a4 0593 0024 		CMP.W	#0, R5 { JEQ	.L352
GAS LISTING /tmp/ccCpBAv9.s 			page 36


 1887 00a8 8147 0400 		MOV.W	R7, 4(R1)
 1888 00ac 8144 0600 		MOV.W	R4, 6(R1)
 1889 00b0 CC01      		MOVA	R1, R12
 1890 00b2 AC00 0400 		ADDA	#4, R12
 1891 00b6 B013 0000 		CALLA	#gen_failure
 1892               	.L360:
 1893 00ba CC08      		MOVA	R8, R12
 1894 00bc B013 0000 		CALLA	#elyNLFromFW
 1895 00c0 B013 0000 		CALLA	#elyNLFreeBuffer
 1896               		; start of epilogue
 1897 00c4 A100 0800 		ADDA	#8, R1
 1898 00c8 6416      		POPM.A	#7, r10
 1899 00ca 1001      		RETA
 1900               	.L352:
 1901 00cc 7C40 8CFF 		MOV.B	#-116, R12
 1902 00d0 B013 0000 		CALLA	#elyErrorSignal
 1903 00d4 8000 0000 		BRA	#.L360
 1904               	.L351:
 1905 00d8 1E53      		ADD.W	#1, R14
 1906 00da 8000 0000 		BRA	#.L349
 1907               	.L356:
 1908 00de 2C00 0000 		MOVA	&bank0p, R12
 1909 00e2 5E4C 5500 		MOV.B	85(R12), R14
 1910 00e6 4718 0E5E 		rpt	#8 { rlax.w	R14
 1911 00ea 5C4C 5400 		MOV.B	84(R12), R12
 1912 00ee 8000 0000 		BRA	#.L366
 1913               	.L359:
 1914 00f2 0D4E      		MOV.W	R14, R13
 1915 00f4 6C46      		MOV.B	@R6, R12
 1916 00f6 710E 0000 		MOVA	R14, @R1
 1917 00fa B013 0000 		CALLA	#elyEventSubscribe
 1918 00fe 1953      		ADD.W	#1, R9
 1919 0100 A600 0100 		ADDA	#1, R6
 1920 0104 0E01      		MOVA	@R1, R14
 1921 0106 8000 0000 		BRA	#.L358
 1922               		.size	event_sub, .-event_sub
 1923               		.section	.text.unlog_chan,"ax",@progbits
 1924               		.balign 2
 1925               		.type	unlog_chan, @function
 1926               	unlog_chan:
 1927               	; start of function
 1928               	; framesize_regs:     28
 1929               	; framesize_locals:   6
 1930               	; framesize_outgoing: 0
 1931               	; framesize:          34
 1932               	; elim ap -> fp       32
 1933               	; elim fp -> sp       6
 1934               	; saved regs: R4 R5 R6 R7 R8 R9 R10
 1935               		; start of prologue
 1936 0000 6A14      		PUSHM.A	#7, R10
 1937 0002 B100 0600 		SUBA	#6, R1
 1938               		; end of prologue
 1939 0006 C60C      		MOVA	R12, R6
 1940 0008 2A4D      		MOV.W	@R13, R10
 1941 000a 184D 0200 		MOV.W	2(R13), R8
 1942 000e 0F4A      		MOV.W	R10, R15
 1943 0010 5F0F 5F0F 		rrum.w	#4, R15 { rrum.w	#4, R15 
GAS LISTING /tmp/ccCpBAv9.s 			page 37


 1944 0014 4E4A      		MOV.B	R10, R14
 1945 0016 0D4E      		MOV.W	R14, R13
 1946 0018 5DF3      		AND.B	#1, R13
 1947 001a 0D93 0024 		CMP.W	#0, R13 { JEQ	.L379
 1948 001e 6743      		MOV.B	#2, R7
 1949               	.L368:
 1950 0020 6EF3      		AND.B	#2, R14
 1951 0022 494E      		MOV.B	R14, R9
 1952 0024 0993 0024 		CMP.W	#0, R9 { JEQ	.L380
 1953 0028 6C42      		MOV.B	#4, R12
 1954               	.L369:
 1955 002a 0B4C      		MOV.W	R12, R11
 1956 002c 054F      		MOV.W	R15, R5
 1957 002e 055C      		ADD.W	R12, R5
 1958 0030 0D93 0024 		CMP.W	#0, R13 { JEQ	.L371
 1959 0034 6D43      		MOV.B	#2, R13
 1960               	.L371:
 1961 0036 058D      		SUB.W	R13, R5
 1962 0038 8145 0000 		MOV.W	R5, @R1
 1963 003c 4018 044C 		MOVX	R12, R4
 1964 0040 E406      		ADDA	R6, R4
 1965 0042 CC04      		MOVA	R4, R12
 1966               	.L372:
 1967 0044 2B91 0038 		CMP.W	@R1, R11 { JL	.L377
 1968 0048 4018 4D4F 		MOVX.B	R15, R13 { SUBX.B	R14, R13
 1968      4018 4D8E 
 1969 0050 4D87      		SUB.B	R7, R13
 1970 0052 CC04      		MOVA	R4, R12
 1971 0054 B013 0000 		CALLA	#elyChanUnlog
 1972 0058 0993 0024 		CMP.W	#0, R9 { JEQ	.L378
 1973 005c 814A 0200 		MOV.W	R10, 2(R1)
 1974 0060 8148 0400 		MOV.W	R8, 4(R1)
 1975 0064 CC01      		MOVA	R1, R12
 1976 0066 AC00 0200 		ADDA	#2, R12
 1977 006a B013 0000 		CALLA	#gen_success
 1978 006e 8000 0000 		BRA	#.L378
 1979               	.L379:
 1980 0072 074D      		MOV.W	R13, R7
 1981 0074 8000 0000 		BRA	#.L368
 1982               	.L380:
 1983 0078 6C43      		MOV.B	#2, R12
 1984 007a 8000 0000 		BRA	#.L369
 1985               	.L377:
 1986 007e 6D4C      		MOV.B	@R12, R13
 1987 0080 7D50 C0FF 		ADD.B	#-64, R13
 1988 0084 AC00 0100 		ADDA	#1, R12
 1989 0088 7540 3F00 		MOV.B	#63, R5
 1990 008c 459D 002C 		CMP.B	R13, R5 { JHS	.L373
 1991 0090 0993 0024 		CMP.W	#0, R9 { JEQ	.L374
 1992 0094 814A 0200 		MOV.W	R10, 2(R1)
 1993 0098 8148 0400 		MOV.W	R8, 4(R1)
 1994 009c CC01      		MOVA	R1, R12
 1995 009e AC00 0200 		ADDA	#2, R12
 1996 00a2 B013 0000 		CALLA	#gen_failure
 1997               	.L378:
 1998 00a6 CC06      		MOVA	R6, R12
 1999 00a8 B013 0000 		CALLA	#elyNLFromFW
GAS LISTING /tmp/ccCpBAv9.s 			page 38


 2000 00ac B013 0000 		CALLA	#elyNLFreeBuffer
 2001               		; start of epilogue
 2002 00b0 A100 0600 		ADDA	#6, R1
 2003 00b4 6416      		POPM.A	#7, r10
 2004 00b6 1001      		RETA
 2005               	.L374:
 2006 00b8 7C40 8CFF 		MOV.B	#-116, R12
 2007 00bc B013 0000 		CALLA	#elyErrorSignal
 2008 00c0 8000 0000 		BRA	#.L378
 2009               	.L373:
 2010 00c4 1B53      		ADD.W	#1, R11
 2011 00c6 8000 0000 		BRA	#.L372
 2012               		.size	unlog_chan, .-unlog_chan
 2013               		.global	__mspabi_divul
 2014               		.section	.text.log_chan,"ax",@progbits
 2015               		.balign 2
 2016               		.type	log_chan, @function
 2017               	log_chan:
 2018               	; start of function
 2019               	; framesize_regs:     28
 2020               	; framesize_locals:   20
 2021               	; framesize_outgoing: 0
 2022               	; framesize:          48
 2023               	; elim ap -> fp       32
 2024               	; elim fp -> sp       20
 2025               	; saved regs: R4 R5 R6 R7 R8 R9 R10
 2026               		; start of prologue
 2027 0000 6A14      		PUSHM.A	#7, R10
 2028 0002 B100 1400 		SUBA	#20, R1
 2029               		; end of prologue
 2030 0006 C50C      		MOVA	R12, R5
 2031 0008 294D      		MOV.W	@R13, R9
 2032 000a 914D 0200 		MOV.W	2(R13), 4(R1)
 2032      0400 
 2033 0010 0A49      		MOV.W	R9, R10
 2034 0012 5A0F 5A0F 		rrum.w	#4, R10 { rrum.w	#4, R10 
 2035 0016 4C49      		MOV.B	R9, R12
 2036 0018 4018 1CB3 		BITX.W	#1, R12 { JEQ	.L397
 2036      0024 
 2037 001e 6D43      		MOV.B	#2, R13
 2038               	.L385:
 2039 0020 6CF3      		AND.B	#2, R12
 2040 0022 474C      		MOV.B	R12, R7
 2041 0024 4A8C      		SUB.B	R12, R10
 2042 0026 4A8D      		SUB.B	R13, R10
 2043 0028 484A      		MOV.B	R10, R8
 2044 002a 0793 0024 		CMP.W	#0, R7 { JEQ	.L398
 2045 002e 6C42      		MOV.B	#4, R12
 2046               	.L386:
 2047 0030 0F4C      		MOV.W	R12, R15
 2048 0032 2F52      		ADD.W	#4, R15
 2049 0034 044F      		MOV.W	R15, R4
 2050 0036 440E 440D 		RLAM.A #4, R4 { RRAM.A #4, R4
 2051 003a CE04      		MOVA	R4, R14
 2052 003c EE05      		ADDA	R5, R14
 2053 003e 085C      		ADD.W	R12, R8
 2054               	.L387:
GAS LISTING /tmp/ccCpBAv9.s 			page 39


 2055 0040 0F98 0038 		CMP.W	R8, R15 { JL	.L393
 2056 0044 044C      		MOV.W	R12, R4
 2057 0046 4C18 0454 		rpt	#13 { rlax.w	R4
 2058 004a 048C      		SUB.W	R12, R4
 2059 004c 8144 0A00 		MOV.W	R4, 10(R1)
 2060 0050 6642      		MOV.B	#4, R6
 2061 0052 4843      		MOV.B	#0, R8
 2062 0054 0448      		MOV.W	R8, R4
 2063 0056 4D4C 0E43 		MOV.B	R12,R13 { CLR	R14
 2064 005a 814D 0600 		MOV.W	R13, 6(R1)
 2065 005e 814E 0800 		MOV.W	R14, 8(R1)
 2066 0062 0E12 0D12 		PUSH.W	R14 { PUSH.W	R13 { POPM.A	#1, R12
 2066      0C16 
 2067 0068 EC05      		ADDA	R5, R12
 2068 006a 710C 0C00 		MOVA	R12, 12(R1)
 2069               	.L394:
 2070 006e 3653      		ADD.W	#-1, R6
 2071 0070 3693 0020 		CMP.W	#-1, R6 { JNE	.L395
 2072 0074 7E40 6400 		MOV.B	#100, R14
 2073 0078 4F43      		MOV.B	#0, R15
 2074 007a 0C48      		MOV.W	R8, R12
 2075 007c 0D44      		MOV.W	R4, R13
 2076 007e B013 0000 		CALLA	#__mspabi_divul
 2077 0082 064C      		MOV.W	R12, R6
 2078 0084 084D      		MOV.W	R13, R8
 2079 0086 0E4C      		MOV.W	R12, R14
 2080 0088 0E5C      		ADD	R12, R14 ; cy
 2081 008a 0D6D      		ADDC	R13, R13
 2082 008c 0E56      		ADD	R6, R14 ; cy
 2083 008e 044D      		MOV.W	R13, R4
 2084 0090 0468      		ADDC	R8, R4
 2085 0092 0C4E      		MOV.W	R14, R12
 2086 0094 0D44      		MOV.W	R4, R13
 2087 0096 710E 0000 		MOVA	R14, @R1
 2088 009a B013 0000 		CALLA	#__mspabi_slll_5
 2089 009e 0E01      		MOVA	@R1, R14
 2090 00a0 0E5C      		ADD	R12, R14 ; cy
 2091 00a2 0D64      		ADDC	R4, R13
 2092 00a4 1B41 0600 		MOV.W	6(R1), R11
 2093 00a8 1C41 0800 		MOV.W	8(R1), R12
 2094 00ac 0C12 0B12 		PUSH.W	R12 { PUSH.W	R11 { POPM.A	#1, R4
 2094      0416 
 2095 00b2 CC04      		MOVA	R4, R12
 2096 00b4 AC00 0400 		ADDA	#4, R12
 2097 00b8 0E56      		ADD	R6, R14 ; cy
 2098 00ba 0F4D      		MOV.W	R13, R15
 2099 00bc 0F68      		ADDC	R8, R15
 2100 00be 4D4A      		MOV.B	R10, R13
 2101 00c0 7D50 FCFF 		ADD.B	#-4, R13
 2102 00c4 EC05      		ADDA	R5, R12
 2103 00c6 B013 0000 		CALLA	#elyChanLog
 2104 00ca 0793 0024 		CMP.W	#0, R7 { JEQ	.L396
 2105 00ce 8149 1000 		MOV.W	R9, 16(R1)
 2106 00d2 9141 0400 		MOV.W	4(R1), 18(R1)
 2106      1200 
 2107 00d8 CC01      		MOVA	R1, R12
 2108 00da AC00 1000 		ADDA	#16, R12
GAS LISTING /tmp/ccCpBAv9.s 			page 40


 2109 00de B013 0000 		CALLA	#gen_success
 2110 00e2 8000 0000 		BRA	#.L396
 2111               	.L397:
 2112 00e6 4D43      		MOV.B	#0, R13
 2113 00e8 8000 0000 		BRA	#.L385
 2114               	.L398:
 2115 00ec 6C43      		MOV.B	#2, R12
 2116 00ee 8000 0000 		BRA	#.L386
 2117               	.L393:
 2118 00f2 6D4E      		MOV.B	@R14, R13
 2119 00f4 464D      		MOV.B	R13, R6
 2120 00f6 7650 C0FF 		ADD.B	#-64, R6
 2121 00fa 7B40 3600 		MOV.B	#54, R11
 2122 00fe 4B96 0028 		CMP.B	R6, R11 { JLO	.L388
 2123 0102 7650 EFFF 		ADD.B	#-17, R6
 2124 0106 7440 0E00 		MOV.B	#14, R4
 2125 010a 4496 002C 		CMP.B	R6, R4 { JHS	.L388
 2126 010e AE00 0100 		ADDA	#1, R14
 2127 0112 7D50 9DFF 		ADD.B	#-99, R13
 2128 0116 7640 0C00 		MOV.B	#12, R6
 2129 011a 469D 0028 		CMP.B	R13, R6 { JLO	.L389
 2130               	.L388:
 2131 011e 0793 0024 		CMP.W	#0, R7 { JEQ	.L390
 2132 0122 8149 1000 		MOV.W	R9, 16(R1)
 2133 0126 9141 0400 		MOV.W	4(R1), 18(R1)
 2133      1200 
 2134 012c CC01      		MOVA	R1, R12
 2135 012e AC00 1000 		ADDA	#16, R12
 2136 0132 B013 0000 		CALLA	#gen_failure
 2137               	.L396:
 2138 0136 CC05      		MOVA	R5, R12
 2139 0138 B013 0000 		CALLA	#elyNLFromFW
 2140 013c B013 0000 		CALLA	#elyNLFreeBuffer
 2141               		; start of epilogue
 2142 0140 A100 1400 		ADDA	#20, R1
 2143 0144 6416      		POPM.A	#7, r10
 2144 0146 1001      		RETA
 2145               	.L390:
 2146 0148 7C40 8CFF 		MOV.B	#-116, R12
 2147 014c B013 0000 		CALLA	#elyErrorSignal
 2148 0150 8000 0000 		BRA	#.L396
 2149               	.L389:
 2150 0154 1F53      		ADD.W	#1, R15
 2151 0156 8000 0000 		BRA	#.L387
 2152               	.L395:
 2153 015a 1E41 0A00 		MOV.W	10(R1), R14
 2154 015e 0E56      		ADD.W	R6, R14
 2155 0160 4218 0E5E 		rpt	#3 { rlax.w	R14
 2156 0164 3F01 0C00 		MOVA	12(R1), R15
 2157 0168 6C4F 0D43 		MOV.B	@R15,R12 { CLR	R13
 2158 016c 0F43      		MOV.W	#0,R15
 2159 016e B013 0000 		CALLA	#__mspabi_slll
 2160 0172 08DC      		BIS.W	R12, R8
 2161 0174 04DD      		BIS.W	R13, R4
 2162 0176 8000 0000 		BRA	#.L394
 2163               		.size	log_chan, .-log_chan
 2164               		.section	.text.channel_unsub,"ax",@progbits
GAS LISTING /tmp/ccCpBAv9.s 			page 41


 2165               		.balign 2
 2166               		.type	channel_unsub, @function
 2167               	channel_unsub:
 2168               	; start of function
 2169               	; framesize_regs:     24
 2170               	; framesize_locals:   4
 2171               	; framesize_outgoing: 0
 2172               	; framesize:          28
 2173               	; elim ap -> fp       28
 2174               	; elim fp -> sp       4
 2175               	; saved regs: R5 R6 R7 R8 R9 R10
 2176               		; start of prologue
 2177 0000 5A14      		PUSHM.A	#6, R10
 2178 0002 B100 0400 		SUBA	#4, R1
 2179               		; end of prologue
 2180 0006 C80C      		MOVA	R12, R8
 2181 0008 2A4D      		MOV.W	@R13, R10
 2182 000a 174D 0200 		MOV.W	2(R13), R7
 2183 000e 0D4A      		MOV.W	R10, R13
 2184 0010 5D0F 5D0F 		rrum.w	#4, R13 { rrum.w	#4, R13 
 2185 0014 4C4A      		MOV.B	R10, R12
 2186 0016 4018 1CB3 		BITX.W	#1, R12 { JEQ	.L412
 2186      0024 
 2187 001c 6E43      		MOV.B	#2, R14
 2188               	.L403:
 2189 001e 6CF3      		AND.B	#2, R12
 2190 0020 494C      		MOV.B	R12, R9
 2191 0022 4D8C      		SUB.B	R12, R13
 2192 0024 4D8E      		SUB.B	R14, R13
 2193 0026 4F4D      		MOV.B	R13, R15
 2194 0028 0993 0024 		CMP.W	#0, R9 { JEQ	.L413
 2195 002c 6C42      		MOV.B	#4, R12
 2196               	.L404:
 2197 002e 4018 064C 		MOVX	R12, R6
 2198 0032 E608      		ADDA	R8, R6
 2199 0034 CE06      		MOVA	R6, R14
 2200 0036 0F5C      		ADD.W	R12, R15
 2201               	.L405:
 2202 0038 0C9F 0038 		CMP.W	R15, R12 { JL	.L410
 2203 003c CC06      		MOVA	R6, R12
 2204 003e B013 0000 		CALLA	#elyChanUnsubscribe
 2205 0042 0993 0024 		CMP.W	#0, R9 { JEQ	.L411
 2206 0046 814A 0000 		MOV.W	R10, @R1
 2207 004a 8147 0200 		MOV.W	R7, 2(R1)
 2208 004e CC01      		MOVA	R1, R12
 2209 0050 B013 0000 		CALLA	#gen_success
 2210 0054 8000 0000 		BRA	#.L411
 2211               	.L412:
 2212 0058 4E43      		MOV.B	#0, R14
 2213 005a 8000 0000 		BRA	#.L403
 2214               	.L413:
 2215 005e 6C43      		MOV.B	#2, R12
 2216 0060 8000 0000 		BRA	#.L404
 2217               	.L410:
 2218 0064 6B4E      		MOV.B	@R14, R11
 2219 0066 7B50 C0FF 		ADD.B	#-64, R11
 2220 006a AE00 0100 		ADDA	#1, R14
GAS LISTING /tmp/ccCpBAv9.s 			page 42


 2221 006e 7540 3F00 		MOV.B	#63, R5
 2222 0072 459B 002C 		CMP.B	R11, R5 { JHS	.L406
 2223 0076 0993 0024 		CMP.W	#0, R9 { JEQ	.L407
 2224 007a 814A 0000 		MOV.W	R10, @R1
 2225 007e 8147 0200 		MOV.W	R7, 2(R1)
 2226 0082 CC01      		MOVA	R1, R12
 2227 0084 B013 0000 		CALLA	#gen_failure
 2228               	.L411:
 2229 0088 CC08      		MOVA	R8, R12
 2230 008a B013 0000 		CALLA	#elyNLFromFW
 2231 008e B013 0000 		CALLA	#elyNLFreeBuffer
 2232               		; start of epilogue
 2233 0092 A100 0400 		ADDA	#4, R1
 2234 0096 5516      		POPM.A	#6, r10
 2235 0098 1001      		RETA
 2236               	.L407:
 2237 009a 7C40 8CFF 		MOV.B	#-116, R12
 2238 009e B013 0000 		CALLA	#elyErrorSignal
 2239 00a2 8000 0000 		BRA	#.L411
 2240               	.L406:
 2241 00a6 1C53      		ADD.W	#1, R12
 2242 00a8 8000 0000 		BRA	#.L405
 2243               		.size	channel_unsub, .-channel_unsub
 2244               		.section	.text.channel_sub,"ax",@progbits
 2245               		.balign 2
 2246               		.type	channel_sub, @function
 2247               	channel_sub:
 2248               	; start of function
 2249               	; framesize_regs:     28
 2250               	; framesize_locals:   20
 2251               	; framesize_outgoing: 0
 2252               	; framesize:          48
 2253               	; elim ap -> fp       32
 2254               	; elim fp -> sp       20
 2255               	; saved regs: R4 R5 R6 R7 R8 R9 R10
 2256               		; start of prologue
 2257 0000 6A14      		PUSHM.A	#7, R10
 2258 0002 B100 1400 		SUBA	#20, R1
 2259               		; end of prologue
 2260 0006 C50C      		MOVA	R12, R5
 2261 0008 294D      		MOV.W	@R13, R9
 2262 000a 914D 0200 		MOV.W	2(R13), 4(R1)
 2262      0400 
 2263 0010 0A49      		MOV.W	R9, R10
 2264 0012 5A0F 5A0F 		rrum.w	#4, R10 { rrum.w	#4, R10 
 2265 0016 4C49      		MOV.B	R9, R12
 2266 0018 4018 1CB3 		BITX.W	#1, R12 { JEQ	.L430
 2266      0024 
 2267 001e 6D43      		MOV.B	#2, R13
 2268               	.L418:
 2269 0020 6CF3      		AND.B	#2, R12
 2270 0022 474C      		MOV.B	R12, R7
 2271 0024 4A8C      		SUB.B	R12, R10
 2272 0026 4A8D      		SUB.B	R13, R10
 2273 0028 484A      		MOV.B	R10, R8
 2274 002a 0793 0024 		CMP.W	#0, R7 { JEQ	.L431
 2275 002e 6C42      		MOV.B	#4, R12
GAS LISTING /tmp/ccCpBAv9.s 			page 43


 2276               	.L419:
 2277 0030 0F4C      		MOV.W	R12, R15
 2278 0032 2F52      		ADD.W	#4, R15
 2279 0034 044F      		MOV.W	R15, R4
 2280 0036 440E 440D 		RLAM.A #4, R4 { RRAM.A #4, R4
 2281 003a CE04      		MOVA	R4, R14
 2282 003c EE05      		ADDA	R5, R14
 2283 003e 085C      		ADD.W	R12, R8
 2284               	.L420:
 2285 0040 0F98 0038 		CMP.W	R8, R15 { JL	.L426
 2286 0044 044C      		MOV.W	R12, R4
 2287 0046 4C18 0454 		rpt	#13 { rlax.w	R4
 2288 004a 048C      		SUB.W	R12, R4
 2289 004c 8144 0A00 		MOV.W	R4, 10(R1)
 2290 0050 6642      		MOV.B	#4, R6
 2291 0052 4843      		MOV.B	#0, R8
 2292 0054 0448      		MOV.W	R8, R4
 2293 0056 4D4C 0E43 		MOV.B	R12,R13 { CLR	R14
 2294 005a 814D 0600 		MOV.W	R13, 6(R1)
 2295 005e 814E 0800 		MOV.W	R14, 8(R1)
 2296 0062 0E12 0D12 		PUSH.W	R14 { PUSH.W	R13 { POPM.A	#1, R12
 2296      0C16 
 2297 0068 EC05      		ADDA	R5, R12
 2298 006a 710C 0C00 		MOVA	R12, 12(R1)
 2299               	.L427:
 2300 006e 3653      		ADD.W	#-1, R6
 2301 0070 3693 0020 		CMP.W	#-1, R6 { JNE	.L428
 2302 0074 7E40 6400 		MOV.B	#100, R14
 2303 0078 4F43      		MOV.B	#0, R15
 2304 007a 0C48      		MOV.W	R8, R12
 2305 007c 0D44      		MOV.W	R4, R13
 2306 007e B013 0000 		CALLA	#__mspabi_divul
 2307 0082 064C      		MOV.W	R12, R6
 2308 0084 084D      		MOV.W	R13, R8
 2309 0086 0E4C      		MOV.W	R12, R14
 2310 0088 0E5C      		ADD	R12, R14 ; cy
 2311 008a 0D6D      		ADDC	R13, R13
 2312 008c 0E56      		ADD	R6, R14 ; cy
 2313 008e 044D      		MOV.W	R13, R4
 2314 0090 0468      		ADDC	R8, R4
 2315 0092 0C4E      		MOV.W	R14, R12
 2316 0094 0D44      		MOV.W	R4, R13
 2317 0096 710E 0000 		MOVA	R14, @R1
 2318 009a B013 0000 		CALLA	#__mspabi_slll_5
 2319 009e 0E01      		MOVA	@R1, R14
 2320 00a0 0E5C      		ADD	R12, R14 ; cy
 2321 00a2 0D64      		ADDC	R4, R13
 2322 00a4 1B41 0600 		MOV.W	6(R1), R11
 2323 00a8 1C41 0800 		MOV.W	8(R1), R12
 2324 00ac 0C12 0B12 		PUSH.W	R12 { PUSH.W	R11 { POPM.A	#1, R4
 2324      0416 
 2325 00b2 CC04      		MOVA	R4, R12
 2326 00b4 AC00 0400 		ADDA	#4, R12
 2327 00b8 0E56      		ADD	R6, R14 ; cy
 2328 00ba 0F4D      		MOV.W	R13, R15
 2329 00bc 0F68      		ADDC	R8, R15
 2330 00be 4D4A      		MOV.B	R10, R13
GAS LISTING /tmp/ccCpBAv9.s 			page 44


 2331 00c0 7D50 FCFF 		ADD.B	#-4, R13
 2332 00c4 EC05      		ADDA	R5, R12
 2333 00c6 B013 0000 		CALLA	#elyChanSubscribe
 2334 00ca 0793 0024 		CMP.W	#0, R7 { JEQ	.L429
 2335 00ce 8149 1000 		MOV.W	R9, 16(R1)
 2336 00d2 9141 0400 		MOV.W	4(R1), 18(R1)
 2336      1200 
 2337 00d8 CC01      		MOVA	R1, R12
 2338 00da AC00 1000 		ADDA	#16, R12
 2339 00de B013 0000 		CALLA	#gen_success
 2340 00e2 8000 0000 		BRA	#.L429
 2341               	.L430:
 2342 00e6 4D43      		MOV.B	#0, R13
 2343 00e8 8000 0000 		BRA	#.L418
 2344               	.L431:
 2345 00ec 6C43      		MOV.B	#2, R12
 2346 00ee 8000 0000 		BRA	#.L419
 2347               	.L426:
 2348 00f2 6D4E      		MOV.B	@R14, R13
 2349 00f4 464D      		MOV.B	R13, R6
 2350 00f6 7650 C0FF 		ADD.B	#-64, R6
 2351 00fa 7B40 3600 		MOV.B	#54, R11
 2352 00fe 4B96 0028 		CMP.B	R6, R11 { JLO	.L421
 2353 0102 7650 EFFF 		ADD.B	#-17, R6
 2354 0106 7440 0E00 		MOV.B	#14, R4
 2355 010a 4496 002C 		CMP.B	R6, R4 { JHS	.L421
 2356 010e AE00 0100 		ADDA	#1, R14
 2357 0112 7D50 9DFF 		ADD.B	#-99, R13
 2358 0116 7640 0C00 		MOV.B	#12, R6
 2359 011a 469D 0028 		CMP.B	R13, R6 { JLO	.L422
 2360               	.L421:
 2361 011e 0793 0024 		CMP.W	#0, R7 { JEQ	.L423
 2362 0122 8149 1000 		MOV.W	R9, 16(R1)
 2363 0126 9141 0400 		MOV.W	4(R1), 18(R1)
 2363      1200 
 2364 012c CC01      		MOVA	R1, R12
 2365 012e AC00 1000 		ADDA	#16, R12
 2366 0132 B013 0000 		CALLA	#gen_failure
 2367               	.L429:
 2368 0136 CC05      		MOVA	R5, R12
 2369 0138 B013 0000 		CALLA	#elyNLFromFW
 2370 013c B013 0000 		CALLA	#elyNLFreeBuffer
 2371               		; start of epilogue
 2372 0140 A100 1400 		ADDA	#20, R1
 2373 0144 6416      		POPM.A	#7, r10
 2374 0146 1001      		RETA
 2375               	.L423:
 2376 0148 7C40 8CFF 		MOV.B	#-116, R12
 2377 014c B013 0000 		CALLA	#elyErrorSignal
 2378 0150 8000 0000 		BRA	#.L429
 2379               	.L422:
 2380 0154 1F53      		ADD.W	#1, R15
 2381 0156 8000 0000 		BRA	#.L420
 2382               	.L428:
 2383 015a 1E41 0A00 		MOV.W	10(R1), R14
 2384 015e 0E56      		ADD.W	R6, R14
 2385 0160 4218 0E5E 		rpt	#3 { rlax.w	R14
GAS LISTING /tmp/ccCpBAv9.s 			page 45


 2386 0164 3F01 0C00 		MOVA	12(R1), R15
 2387 0168 6C4F 0D43 		MOV.B	@R15,R12 { CLR	R13
 2388 016c 0F43      		MOV.W	#0,R15
 2389 016e B013 0000 		CALLA	#__mspabi_slll
 2390 0172 08DC      		BIS.W	R12, R8
 2391 0174 04DD      		BIS.W	R13, R4
 2392 0176 8000 0000 		BRA	#.L427
 2393               		.size	channel_sub, .-channel_sub
 2394               		.section	.text.reload_config,"ax",@progbits
 2395               		.balign 2
 2396               		.type	reload_config, @function
 2397               	reload_config:
 2398               	; start of function
 2399               	; framesize_regs:     16
 2400               	; framesize_locals:   4
 2401               	; framesize_outgoing: 0
 2402               	; framesize:          20
 2403               	; elim ap -> fp       20
 2404               	; elim fp -> sp       4
 2405               	; saved regs: R7 R8 R9 R10
 2406               		; start of prologue
 2407 0000 3A14      		PUSHM.A	#4, R10
 2408 0002 B100 0400 		SUBA	#4, R1
 2409               		; end of prologue
 2410 0006 284D      		MOV.W	@R13, R8
 2411 0008 1A4D 0200 		MOV.W	2(R13), R10
 2412 000c 4748      		MOV.B	R8, R7
 2413 000e 67F3      		AND.B	#2, R7
 2414 0010 37F0 FF00 		AND	#0xff, R7
 2415 0014 0793 0020 		CMP.W	#0, R7 { JNE	.L440
 2416 0018 6E43      		MOV.B	#2, R14
 2417               	.L436:
 2418 001a 4018 0E4E 		MOVX	R14, R14
 2419 001e EE0C      		ADDA	R12, R14
 2420 0020 694E      		MOV.B	@R14, R9
 2421 0022 B013 0000 		CALLA	#elyNLFromFW
 2422 0026 B013 0000 		CALLA	#elyNLFreeBuffer
 2423 002a 4C49      		MOV.B	R9, R12
 2424 002c 7C53      		ADD.B	#-1, R12
 2425 002e 7D40 0300 		MOV.B	#3, R13
 2426 0032 4D9C 002C 		CMP.B	R12, R13 { JHS	.L437
 2427 0036 0793 0024 		CMP.W	#0, R7 { JEQ	.L438
 2428 003a 8148 0000 		MOV.W	R8, @R1
 2429 003e 814A 0200 		MOV.W	R10, 2(R1)
 2430 0042 CC01      		MOVA	R1, R12
 2431 0044 B013 0000 		CALLA	#gen_failure
 2432               	.L435:
 2433               		; start of epilogue
 2434 0048 A100 0400 		ADDA	#4, R1
 2435 004c 3716      		POPM.A	#4, r10
 2436 004e 1001      		RETA
 2437               	.L440:
 2438 0050 6E42      		MOV.B	#4, R14
 2439 0052 8000 0000 		BRA	#.L436
 2440               	.L438:
 2441 0056 7C40 8CFF 		MOV.B	#-116, R12
 2442 005a B013 0000 		CALLA	#elyErrorSignal
GAS LISTING /tmp/ccCpBAv9.s 			page 46


 2443 005e 8000 0000 		BRA	#.L435
 2444               	.L437:
 2445 0062 2A00 0000 		MOVA	&bank0w, R10
 2446 0066 8800 0000 		MOVA	#elyRegGetBlock, R8
 2447 006a 7F40 5600 		MOV.B	#86, R15
 2448 006e 4E43      		MOV.B	#0, R14
 2449 0070 CD0A      		MOVA	R10, R13
 2450 0072 4C49      		MOV.B	R9, R12
 2451 0074 4813      		CALLA	R8
 2452 0076 7F40 0A00 		MOV.B	#10, R15
 2453 007a 7E40 80FF 		MOV.B	#-128, R14
 2454 007e CD0A      		MOVA	R10, R13
 2455 0080 AD00 8000 		ADDA	#128, R13
 2456 0084 4C49      		MOV.B	R9, R12
 2457 0086 4813      		CALLA	R8
 2458 0088 7F40 1500 		MOV.B	#21, R15
 2459 008c 7E40 C0FF 		MOV.B	#-64, R14
 2460 0090 CD0A      		MOVA	R10, R13
 2461 0092 AD00 C000 		ADDA	#192, R13
 2462 0096 4C49      		MOV.B	R9, R12
 2463 0098 4813      		CALLA	R8
 2464 009a CA49 6900 		MOV.B	R9, 105(R10)
 2465 009e 0018 C243 		MOVX.A	#0, &active_buffer
 2465      0000 
 2466 00a4 C01F B240 		MOVX.W	#-23224, &PMMCTL0
 2466      48A5 0000 
 2467 00ac 8000 0000 		BRA	#.L435
 2468               		.size	reload_config, .-reload_config
 2469               		.section	.text.set_u32,"ax",@progbits
 2470               		.balign 2
 2471               		.type	set_u32, @function
 2472               	set_u32:
 2473               	; start of function
 2474               	; framesize_regs:     28
 2475               	; framesize_locals:   20
 2476               	; framesize_outgoing: 0
 2477               	; framesize:          48
 2478               	; elim ap -> fp       32
 2479               	; elim fp -> sp       20
 2480               	; saved regs: R4 R5 R6 R7 R8 R9 R10
 2481               		; start of prologue
 2482 0000 B100 0200 		SUBA	#2, r1 { MOVX.A	2(r1), 0(r1)
 2482      0018 D141 
 2482      0200 0000 
 2483 000c 6A14      		PUSHM.A	#7, R10
 2484 000e B100 1400 		SUBA	#20, R1
 2485               		; end of prologue
 2486 0012 3CF0 FF00 		AND	#0xff, R12
 2487 0016 814C 0A00 		MOV.W	R12, 10(R1)
 2488 001a 2A4E      		MOV.W	@R14, R10
 2489 001c 1C4E 0200 		MOV.W	2(R14), R12
 2490 0020 814F 3400 		MOV.W	R15, 52(R1)
 2491 0024 814F 0C00 		MOV.W	R15, 12(R1)
 2492 0028 1B41 3600 		MOV.W	54(R1), R11
 2493 002c 9141 3800 		MOV.W	56(R1), 14(R1)
 2493      0E00 
 2494 0032 1541 3A00 		MOV.W	58(R1), R5
GAS LISTING /tmp/ccCpBAv9.s 			page 47


 2495 0036 814C 0800 		MOV.W	R12, 8(R1)
 2496 003a 494A      		MOV.B	R10, R9
 2497 003c 69F3      		AND.B	#2, R9
 2498 003e 39F0 FF00 		AND	#0xff, R9
 2499 0042 0993 0020 		CMP.W	#0, R9 { JNE	.L450
 2500 0046 6C43      		MOV.B	#2, R12
 2501               	.L442:
 2502 0048 4018 044C 		MOVX	R12, R4
 2503 004c E40D      		ADDA	R13, R4
 2504 004e 7104 0400 		MOVA	R4, 4(R1)
 2505 0052 7640 1800 		MOV.B	#24, R6
 2506 0056 4843      		MOV.B	#0, R8
 2507 0058 0748      		MOV.W	R8, R7
 2508               	.L443:
 2509 005a 3E01 0400 		MOVA	4(R1), R14
 2510 005e 6C4E 0D43 		MOV.B	@R14,R12 { CLR	R13
 2511 0062 0E46 0F43 		MOV.W	R6,R14 { MOV.W	#0,R15
 2512 0066 710B 0000 		MOVA	R11, @R1
 2513 006a B013 0000 		CALLA	#__mspabi_slll
 2514 006e 0CD8      		BIS.W	R8, R12
 2515 0070 0DD7      		BIS.W	R7, R13
 2516 0072 084C      		MOV.W	R12, R8
 2517 0074 074D      		MOV.W	R13, R7
 2518 0076 0018 D153 		ADDX.A	#1, 4(R1)
 2518      0400 
 2519 007c 3650 F8FF 		ADD.W	#-8, R6
 2520 0080 0B01      		MOVA	@R1, R11
 2521 0082 3690 F8FF 		CMP.W	#-8, R6 { JNE	.L443
 2521      0020 
 2522 0088 0B9D 0028 		CMP.W	R13, R11 { JLO	.L444
 2523 008c 0D9B 0020 		CMP.W	R11, R13 { JNE	.L451
 2524 0090 819C 0C00 		CMP.W	R12, 12(R1) { JLO	.L444
 2524      0028 
 2525               	.L451:
 2526 0096 0D95 0028 		CMP.W	R5, R13 { JLO	.L444
 2527 009a 059D 0020 		CMP.W	R13, R5 { JNE	.L446
 2528 009e 1C91 0E00 		CMP.W	14(R1), R12 { JHS	.L446
 2528      002C 
 2529               	.L444:
 2530 00a4 0993 0024 		CMP.W	#0, R9 { JEQ	.L448
 2531 00a8 814A 1000 		MOV.W	R10, 16(R1)
 2532 00ac 9141 0800 		MOV.W	8(R1), 18(R1)
 2532      1200 
 2533 00b2 CC01      		MOVA	R1, R12
 2534 00b4 AC00 1000 		ADDA	#16, R12
 2535 00b8 B013 0000 		CALLA	#gen_failure
 2536               	.L441:
 2537               		; start of epilogue
 2538 00bc A100 1400 		ADDA	#20, R1
 2539 00c0 6416      		POPM.A	#7, r10
 2540 00c2 0018 E141 		MOVX.A	0(r1), 2(r1) { ADDA	#2, SP
 2540      0200 A100 
 2540      0200 
 2541 00cc 1001      		RETA
 2542               	.L450:
 2543 00ce 6C42      		MOV.B	#4, R12
 2544 00d0 8000 0000 		BRA	#.L442
GAS LISTING /tmp/ccCpBAv9.s 			page 48


 2545               	.L448:
 2546 00d4 7C40 8CFF 		MOV.B	#-116, R12
 2547 00d8 B013 0000 		CALLA	#elyErrorSignal
 2548 00dc 8000 0000 		BRA	#.L441
 2549               	.L446:
 2550 00e0 4018 1C41 		MOVX	10(R1), R12
 2550      0A00 
 2551 00e6 0018 5C52 		ADDX.A	&bank0w, R12
 2551      0000 
 2552 00ec EC44 0300 		MOV.B	@R4, 3(R12)
 2553 00f0 DC44 0100 		MOV.B	1(R4), 2(R12)
 2553      0200 
 2554 00f6 DC44 0200 		MOV.B	2(R4), 1(R12)
 2554      0100 
 2555 00fc DC44 0300 		MOV.B	3(R4), @R12
 2555      0000 
 2556 0102 0993 0024 		CMP.W	#0, R9 { JEQ	.L441
 2557 0106 814A 1000 		MOV.W	R10, 16(R1)
 2558 010a 9141 0800 		MOV.W	8(R1), 18(R1)
 2558      1200 
 2559 0110 CC01      		MOVA	R1, R12
 2560 0112 AC00 1000 		ADDA	#16, R12
 2561 0116 B013 0000 		CALLA	#gen_success
 2562 011a 8000 0000 		BRA	#.L441
 2563               		.size	set_u32, .-set_u32
 2564               		.section	.text.set_baud,"ax",@progbits
 2565               		.balign 2
 2566               		.type	set_baud, @function
 2567               	set_baud:
 2568               	; start of function
 2569               	; framesize_regs:     4
 2570               	; framesize_locals:   4
 2571               	; framesize_outgoing: 6
 2572               	; framesize:          14
 2573               	; elim ap -> fp       8
 2574               	; elim fp -> sp       10
 2575               	; saved regs: R10
 2576               		; start of prologue
 2577 0000 0A14      		PUSHM.A	#1, R10
 2578 0002 B100 0A00 		SUBA	#10, R1
 2579               		; end of prologue
 2580 0006 CA0C      		MOVA	R12, R10
 2581 0008 A14D 0600 		MOV.W	@R13, 6(R1)
 2582 000c 914D 0200 		MOV.W	2(R13), 8(R1)
 2582      0800 
 2583 0012 9143 0200 		MOV.W	#1, 2(R1)
 2584 0016 8143 0400 		MOV.W	#0, 4(R1)
 2585 001a B140 0F00 		MOV.W	#15, @R1
 2585      0000 
 2586 0020 3F40 4042 		MOV.W	#16960, R15
 2587 0024 CE01      		MOVA	R1, R14
 2588 0026 AE00 0600 		ADDA	#6, R14
 2589 002a CD0C      		MOVA	R12, R13
 2590 002c 7C40 2200 		MOV.B	#34, R12
 2591 0030 B013 0000 		CALLA	#set_u32
 2592 0034 CC0A      		MOVA	R10, R12
 2593 0036 B013 0000 		CALLA	#elyNLFromFW
GAS LISTING /tmp/ccCpBAv9.s 			page 49


 2594 003a B013 0000 		CALLA	#elyNLFreeBuffer
 2595 003e B013 0000 		CALLA	#elyUARTCfgMarkDirty
 2596               		; start of epilogue
 2597 0042 A100 0A00 		ADDA	#10, R1
 2598 0046 0A16      		POPM.A	#1, r10
 2599 0048 1001      		RETA
 2600               		.size	set_baud, .-set_baud
 2601               		.section	.text.set_rx_dev,"ax",@progbits
 2602               		.balign 2
 2603               		.type	set_rx_dev, @function
 2604               	set_rx_dev:
 2605               	; start of function
 2606               	; framesize_regs:     4
 2607               	; framesize_locals:   4
 2608               	; framesize_outgoing: 6
 2609               	; framesize:          14
 2610               	; elim ap -> fp       8
 2611               	; elim fp -> sp       10
 2612               	; saved regs: R10
 2613               		; start of prologue
 2614 0000 0A14      		PUSHM.A	#1, R10
 2615 0002 B100 0A00 		SUBA	#10, R1
 2616               		; end of prologue
 2617 0006 CA0C      		MOVA	R12, R10
 2618 0008 A14D 0600 		MOV.W	@R13, 6(R1)
 2619 000c 914D 0200 		MOV.W	2(R13), 8(R1)
 2619      0800 
 2620 0012 B140 E880 		MOV.W	#-32536, 2(R1)
 2620      0200 
 2621 0018 8143 0400 		MOV.W	#0, 4(R1)
 2622 001c B140 0300 		MOV.W	#3, @R1
 2622      0000 
 2623 0022 3F40 400D 		MOV.W	#3392, R15
 2624 0026 CE01      		MOVA	R1, R14
 2625 0028 AE00 0600 		ADDA	#6, R14
 2626 002c CD0C      		MOVA	R12, R13
 2627 002e 7C40 0C00 		MOV.B	#12, R12
 2628 0032 B013 0000 		CALLA	#set_u32
 2629 0036 CC0A      		MOVA	R10, R12
 2630 0038 B013 0000 		CALLA	#elyNLFromFW
 2631 003c B013 0000 		CALLA	#elyNLFreeBuffer
 2632 0040 7C40 2000 		MOV.B	#32, R12
 2633 0044 4D43      		MOV.B	#0, R13
 2634 0046 B013 0000 		CALLA	#elyRFCfgMarkDirty
 2635 004a 7C40 CAFF 		MOV.B	#-54, R12
 2636 004e B013 0000 		CALLA	#elyEventSignal
 2637               		; start of epilogue
 2638 0052 A100 0A00 		ADDA	#10, R1
 2639 0056 0A16      		POPM.A	#1, r10
 2640 0058 1001      		RETA
 2641               		.size	set_rx_dev, .-set_rx_dev
 2642               		.section	.text.set_tx_dev,"ax",@progbits
 2643               		.balign 2
 2644               		.type	set_tx_dev, @function
 2645               	set_tx_dev:
 2646               	; start of function
 2647               	; framesize_regs:     4
GAS LISTING /tmp/ccCpBAv9.s 			page 50


 2648               	; framesize_locals:   4
 2649               	; framesize_outgoing: 6
 2650               	; framesize:          14
 2651               	; elim ap -> fp       8
 2652               	; elim fp -> sp       10
 2653               	; saved regs: R10
 2654               		; start of prologue
 2655 0000 0A14      		PUSHM.A	#1, R10
 2656 0002 B100 0A00 		SUBA	#10, R1
 2657               		; end of prologue
 2658 0006 CA0C      		MOVA	R12, R10
 2659 0008 A14D 0600 		MOV.W	@R13, 6(R1)
 2660 000c 914D 0200 		MOV.W	2(R13), 8(R1)
 2660      0800 
 2661 0012 B140 5802 		MOV.W	#600, 2(R1)
 2661      0200 
 2662 0018 8143 0400 		MOV.W	#0, 4(R1)
 2663 001c B140 0300 		MOV.W	#3, @R1
 2663      0000 
 2664 0022 3F40 400D 		MOV.W	#3392, R15
 2665 0026 CE01      		MOVA	R1, R14
 2666 0028 AE00 0600 		ADDA	#6, R14
 2667 002c CD0C      		MOVA	R12, R13
 2668 002e 7C42      		MOV.B	#8, R12
 2669 0030 B013 0000 		CALLA	#set_u32
 2670 0034 CC0A      		MOVA	R10, R12
 2671 0036 B013 0000 		CALLA	#elyNLFromFW
 2672 003a B013 0000 		CALLA	#elyNLFreeBuffer
 2673 003e 7C40 1000 		MOV.B	#16, R12
 2674 0042 4D43      		MOV.B	#0, R13
 2675 0044 B013 0000 		CALLA	#elyRFCfgMarkDirty
 2676 0048 7C40 C9FF 		MOV.B	#-55, R12
 2677 004c B013 0000 		CALLA	#elyEventSignal
 2678               		; start of epilogue
 2679 0050 A100 0A00 		ADDA	#10, R1
 2680 0054 0A16      		POPM.A	#1, r10
 2681 0056 1001      		RETA
 2682               		.size	set_tx_dev, .-set_tx_dev
 2683               		.section	.text.set_rx_br,"ax",@progbits
 2684               		.balign 2
 2685               		.type	set_rx_br, @function
 2686               	set_rx_br:
 2687               	; start of function
 2688               	; framesize_regs:     4
 2689               	; framesize_locals:   4
 2690               	; framesize_outgoing: 6
 2691               	; framesize:          14
 2692               	; elim ap -> fp       8
 2693               	; elim fp -> sp       10
 2694               	; saved regs: R10
 2695               		; start of prologue
 2696 0000 0A14      		PUSHM.A	#1, R10
 2697 0002 B100 0A00 		SUBA	#10, R1
 2698               		; end of prologue
 2699 0006 CA0C      		MOVA	R12, R10
 2700 0008 A14D 0600 		MOV.W	@R13, 6(R1)
 2701 000c 914D 0200 		MOV.W	2(R13), 8(R1)
GAS LISTING /tmp/ccCpBAv9.s 			page 51


 2701      0800 
 2702 0012 B140 0C03 		MOV.W	#780, 2(R1)
 2702      0200 
 2703 0018 8143 0400 		MOV.W	#0, 4(R1)
 2704 001c A143 0000 		MOV.W	#2, @R1
 2705 0020 3F40 F049 		MOV.W	#18928, R15
 2706 0024 CE01      		MOVA	R1, R14
 2707 0026 AE00 0600 		ADDA	#6, R14
 2708 002a CD0C      		MOVA	R12, R13
 2709 002c 7C40 1C00 		MOV.B	#28, R12
 2710 0030 B013 0000 		CALLA	#set_u32
 2711 0034 CC0A      		MOVA	R10, R12
 2712 0036 B013 0000 		CALLA	#elyNLFromFW
 2713 003a B013 0000 		CALLA	#elyNLFreeBuffer
 2714 003e 7C42      		MOV.B	#8, R12
 2715 0040 4D43      		MOV.B	#0, R13
 2716 0042 B013 0000 		CALLA	#elyRFCfgMarkDirty
 2717 0046 7C40 C8FF 		MOV.B	#-56, R12
 2718 004a B013 0000 		CALLA	#elyEventSignal
 2719               		; start of epilogue
 2720 004e A100 0A00 		ADDA	#10, R1
 2721 0052 0A16      		POPM.A	#1, r10
 2722 0054 1001      		RETA
 2723               		.size	set_rx_br, .-set_rx_br
 2724               		.section	.text.set_tx_br,"ax",@progbits
 2725               		.balign 2
 2726               		.type	set_tx_br, @function
 2727               	set_tx_br:
 2728               	; start of function
 2729               	; framesize_regs:     4
 2730               	; framesize_locals:   4
 2731               	; framesize_outgoing: 6
 2732               	; framesize:          14
 2733               	; elim ap -> fp       8
 2734               	; elim fp -> sp       10
 2735               	; saved regs: R10
 2736               		; start of prologue
 2737 0000 0A14      		PUSHM.A	#1, R10
 2738 0002 B100 0A00 		SUBA	#10, R1
 2739               		; end of prologue
 2740 0006 CA0C      		MOVA	R12, R10
 2741 0008 A14D 0600 		MOV.W	@R13, 6(R1)
 2742 000c 914D 0200 		MOV.W	2(R13), 8(R1)
 2742      0800 
 2743 0012 B140 B004 		MOV.W	#1200, 2(R1)
 2743      0200 
 2744 0018 8143 0400 		MOV.W	#0, 4(R1)
 2745 001c A142 0000 		MOV.W	#4, @R1
 2746 0020 3F40 E093 		MOV.W	#-27680, R15
 2747 0024 CE01      		MOVA	R1, R14
 2748 0026 AE00 0600 		ADDA	#6, R14
 2749 002a CD0C      		MOVA	R12, R13
 2750 002c 7C40 1800 		MOV.B	#24, R12
 2751 0030 B013 0000 		CALLA	#set_u32
 2752 0034 CC0A      		MOVA	R10, R12
 2753 0036 B013 0000 		CALLA	#elyNLFromFW
 2754 003a B013 0000 		CALLA	#elyNLFreeBuffer
GAS LISTING /tmp/ccCpBAv9.s 			page 52


 2755 003e 6C42      		MOV.B	#4, R12
 2756 0040 4D43      		MOV.B	#0, R13
 2757 0042 B013 0000 		CALLA	#elyRFCfgMarkDirty
 2758 0046 7C40 C7FF 		MOV.B	#-57, R12
 2759 004a B013 0000 		CALLA	#elyEventSignal
 2760               		; start of epilogue
 2761 004e A100 0A00 		ADDA	#10, R1
 2762 0052 0A16      		POPM.A	#1, r10
 2763 0054 1001      		RETA
 2764               		.size	set_tx_br, .-set_tx_br
 2765               		.section	.text.set_rx_freq,"ax",@progbits
 2766               		.balign 2
 2767               		.type	set_rx_freq, @function
 2768               	set_rx_freq:
 2769               	; start of function
 2770               	; framesize_regs:     4
 2771               	; framesize_locals:   4
 2772               	; framesize_outgoing: 6
 2773               	; framesize:          14
 2774               	; elim ap -> fp       8
 2775               	; elim fp -> sp       10
 2776               	; saved regs: R10
 2777               		; start of prologue
 2778 0000 0A14      		PUSHM.A	#1, R10
 2779 0002 B100 0A00 		SUBA	#10, R1
 2780               		; end of prologue
 2781 0006 CA0C      		MOVA	R12, R10
 2782 0008 A14D 0600 		MOV.W	@R13, 6(R1)
 2783 000c 914D 0200 		MOV.W	2(R13), 8(R1)
 2783      0800 
 2784 0012 B140 4044 		MOV.W	#17472, 2(R1)
 2784      0200 
 2785 0018 B140 3D1B 		MOV.W	#6973, 4(R1)
 2785      0400 
 2786 001e B140 121C 		MOV.W	#7186, @R1
 2786      0000 
 2787 0024 3F40 C0E3 		MOV.W	#-7232, R15
 2788 0028 CE01      		MOVA	R1, R14
 2789 002a AE00 0600 		ADDA	#6, R14
 2790 002e CD0C      		MOVA	R12, R13
 2791 0030 6C42      		MOV.B	#4, R12
 2792 0032 B013 0000 		CALLA	#set_u32
 2793 0036 CC0A      		MOVA	R10, R12
 2794 0038 B013 0000 		CALLA	#elyNLFromFW
 2795 003c B013 0000 		CALLA	#elyNLFreeBuffer
 2796 0040 6C43      		MOV.B	#2, R12
 2797 0042 4D43      		MOV.B	#0, R13
 2798 0044 B013 0000 		CALLA	#elyRFCfgMarkDirty
 2799 0048 7C40 C6FF 		MOV.B	#-58, R12
 2800 004c B013 0000 		CALLA	#elyEventSignal
 2801               		; start of epilogue
 2802 0050 A100 0A00 		ADDA	#10, R1
 2803 0054 0A16      		POPM.A	#1, r10
 2804 0056 1001      		RETA
 2805               		.size	set_rx_freq, .-set_rx_freq
 2806               		.section	.text.set_tx_freq,"ax",@progbits
 2807               		.balign 2
GAS LISTING /tmp/ccCpBAv9.s 			page 53


 2808               		.type	set_tx_freq, @function
 2809               	set_tx_freq:
 2810               	; start of function
 2811               	; framesize_regs:     4
 2812               	; framesize_locals:   4
 2813               	; framesize_outgoing: 6
 2814               	; framesize:          14
 2815               	; elim ap -> fp       8
 2816               	; elim fp -> sp       10
 2817               	; saved regs: R10
 2818               		; start of prologue
 2819 0000 0A14      		PUSHM.A	#1, R10
 2820 0002 B100 0A00 		SUBA	#10, R1
 2821               		; end of prologue
 2822 0006 CA0C      		MOVA	R12, R10
 2823 0008 A14D 0600 		MOV.W	@R13, 6(R1)
 2824 000c 914D 0200 		MOV.W	2(R13), 8(R1)
 2824      0800 
 2825 0012 B140 40DA 		MOV.W	#-9664, 2(R1)
 2825      0200 
 2826 0018 B140 8E33 		MOV.W	#13198, 4(R1)
 2826      0400 
 2827 001e B140 EC38 		MOV.W	#14572, @R1
 2827      0000 
 2828 0024 3F40 C024 		MOV.W	#9408, R15
 2829 0028 CE01      		MOVA	R1, R14
 2830 002a AE00 0600 		ADDA	#6, R14
 2831 002e CD0C      		MOVA	R12, R13
 2832 0030 4C43      		MOV.B	#0, R12
 2833 0032 B013 0000 		CALLA	#set_u32
 2834 0036 CC0A      		MOVA	R10, R12
 2835 0038 B013 0000 		CALLA	#elyNLFromFW
 2836 003c B013 0000 		CALLA	#elyNLFreeBuffer
 2837 0040 5C43      		MOV.B	#1, R12
 2838 0042 4D43      		MOV.B	#0, R13
 2839 0044 B013 0000 		CALLA	#elyRFCfgMarkDirty
 2840 0048 7C40 C5FF 		MOV.B	#-59, R12
 2841 004c B013 0000 		CALLA	#elyEventSignal
 2842               		; start of epilogue
 2843 0050 A100 0A00 		ADDA	#10, R1
 2844 0054 0A16      		POPM.A	#1, r10
 2845 0056 1001      		RETA
 2846               		.size	set_tx_freq, .-set_tx_freq
 2847               		.section	.text.set_tx_pow,"ax",@progbits
 2848               		.balign 2
 2849               		.type	set_tx_pow, @function
 2850               	set_tx_pow:
 2851               	; start of function
 2852               	; framesize_regs:     24
 2853               	; framesize_locals:   4
 2854               	; framesize_outgoing: 0
 2855               	; framesize:          28
 2856               	; elim ap -> fp       28
 2857               	; elim fp -> sp       4
 2858               	; saved regs: R5 R6 R7 R8 R9 R10
 2859               		; start of prologue
 2860 0000 5A14      		PUSHM.A	#6, R10
GAS LISTING /tmp/ccCpBAv9.s 			page 54


 2861 0002 B100 0400 		SUBA	#4, R1
 2862               		; end of prologue
 2863 0006 CA0C      		MOVA	R12, R10
 2864 0008 294D      		MOV.W	@R13, R9
 2865 000a 154D 0200 		MOV.W	2(R13), R5
 2866 000e 4749      		MOV.B	R9, R7
 2867 0010 67F3      		AND.B	#2, R7
 2868 0012 37F0 FF00 		AND	#0xff, R7
 2869 0016 0793 0020 		CMP.W	#0, R7 { JNE	.L470
 2870 001a 6C43      		MOV.B	#2, R12
 2871               	.L464:
 2872 001c 4018 0C4C 		MOVX	R12, R12
 2873 0020 EC0A      		ADDA	R10, R12
 2874 0022 6D4C      		MOV.B	@R12, R13
 2875 0024 8800 0000 		MOVA	#elyNLFromFW, R8
 2876 0028 8600 0000 		MOVA	#elyNLFreeBuffer, R6
 2877 002c 7C40 82FF 		MOV.B	#-126, R12
 2878 0030 4C9D 002C 		CMP.B	R13, R12 { JHS	.L465
 2879 0034 0793 0024 		CMP.W	#0, R7 { JEQ	.L466
 2880 0038 8149 0000 		MOV.W	R9, @R1
 2881 003c 8145 0200 		MOV.W	R5, 2(R1)
 2882 0040 CC01      		MOVA	R1, R12
 2883 0042 B013 0000 		CALLA	#gen_failure
 2884               	.L469:
 2885 0046 CC0A      		MOVA	R10, R12
 2886 0048 4813      		CALLA	R8
 2887 004a 4613      		CALLA	R6
 2888               		; start of epilogue
 2889 004c A100 0400 		ADDA	#4, R1
 2890 0050 5516      		POPM.A	#6, r10
 2891 0052 1001      		RETA
 2892               	.L470:
 2893 0054 6C42      		MOV.B	#4, R12
 2894 0056 8000 0000 		BRA	#.L464
 2895               	.L466:
 2896 005a 7C40 8CFF 		MOV.B	#-116, R12
 2897 005e B013 0000 		CALLA	#elyErrorSignal
 2898 0062 8000 0000 		BRA	#.L469
 2899               	.L465:
 2900 0066 2C00 0000 		MOVA	&bank0w, R12
 2901 006a CC4D 2100 		MOV.B	R13, 33(R12)
 2902 006e 3C40 0001 		MOV.W	#256, R12
 2903 0072 4D43      		MOV.B	#0, R13
 2904 0074 B013 0000 		CALLA	#elyRFCfgMarkDirty
 2905 0078 0793 0024 		CMP.W	#0, R7 { JEQ	.L469
 2906 007c 8149 0000 		MOV.W	R9, @R1
 2907 0080 8145 0200 		MOV.W	R5, 2(R1)
 2908 0084 CC01      		MOVA	R1, R12
 2909 0086 B013 0000 		CALLA	#gen_success
 2910 008a 8000 0000 		BRA	#.L469
 2911               		.size	set_tx_pow, .-set_tx_pow
 2912               		.section	.text.set_gpo,"ax",@progbits
 2913               		.balign 2
 2914               		.type	set_gpo, @function
 2915               	set_gpo:
 2916               	; start of function
 2917               	; framesize_regs:     16
GAS LISTING /tmp/ccCpBAv9.s 			page 55


 2918               	; framesize_locals:   4
 2919               	; framesize_outgoing: 0
 2920               	; framesize:          20
 2921               	; elim ap -> fp       20
 2922               	; elim fp -> sp       4
 2923               	; saved regs: R7 R8 R9 R10
 2924               		; start of prologue
 2925 0000 3A14      		PUSHM.A	#4, R10
 2926 0002 B100 0400 		SUBA	#4, R1
 2927               		; end of prologue
 2928 0006 2A4D      		MOV.W	@R13, R10
 2929 0008 184D 0200 		MOV.W	2(R13), R8
 2930 000c 494A      		MOV.B	R10, R9
 2931 000e 69F3      		AND.B	#2, R9
 2932 0010 39F0 FF00 		AND	#0xff, R9
 2933 0014 0993 0020 		CMP.W	#0, R9 { JNE	.L480
 2934 0018 6E43      		MOV.B	#2, R14
 2935               	.L475:
 2936 001a EE0C      		ADDA	R12, R14
 2937 001c 674E      		MOV.B	@R14, R7
 2938 001e B013 0000 		CALLA	#elyNLFromFW
 2939 0022 B013 0000 		CALLA	#elyNLFreeBuffer
 2940 0026 5C43      		MOV.B	#1, R12
 2941 0028 4C97 002C 		CMP.B	R7, R12 { JHS	.L476
 2942 002c 0993 0024 		CMP.W	#0, R9 { JEQ	.L477
 2943 0030 814A 0000 		MOV.W	R10, @R1
 2944 0034 8148 0200 		MOV.W	R8, 2(R1)
 2945 0038 CC01      		MOVA	R1, R12
 2946 003a B013 0000 		CALLA	#gen_failure
 2947               	.L474:
 2948               		; start of epilogue
 2949 003e A100 0400 		ADDA	#4, R1
 2950 0042 3716      		POPM.A	#4, r10
 2951 0044 1001      		RETA
 2952               	.L480:
 2953 0046 6E42      		MOV.B	#4, R14
 2954 0048 8000 0000 		BRA	#.L475
 2955               	.L477:
 2956 004c 7C40 8CFF 		MOV.B	#-116, R12
 2957 0050 B013 0000 		CALLA	#elyErrorSignal
 2958 0054 8000 0000 		BRA	#.L474
 2959               	.L476:
 2960 0058 2C00 0000 		MOVA	&bank0p, R12
 2961 005c CC97 6100 		CMP.B	R7, 97(R12) { JEQ	.L479
 2961      0024 
 2962 0062 0C47      		MOV.W	R7, R12
 2963 0064 4C18 0C5C 		rpt	#13 { rlax.w	R12
 2964 0068 3CF0 0020 		AND.W	#8192, R12
 2965 006c 4018 1D42 		MOVX.W	&546, R13
 2965      2202 
 2966 0072 3DF0 FFDF 		AND.W	#-8193, R13
 2967 0076 0CDD      		BIS.W	R13, R12
 2968 0078 4018 824C 		MOVX.W	R12, &546
 2968      2202 
 2969 007e 7C40 C3FF 		MOV.B	#-61, R12
 2970 0082 B013 0000 		CALLA	#elyEventSignal
 2971 0086 2C00 0000 		MOVA	&bank0w, R12
GAS LISTING /tmp/ccCpBAv9.s 			page 56


 2972 008a CC47 6100 		MOV.B	R7, 97(R12)
 2973               	.L479:
 2974 008e 0993 0024 		CMP.W	#0, R9 { JEQ	.L474
 2975 0092 814A 0000 		MOV.W	R10, @R1
 2976 0096 8148 0200 		MOV.W	R8, 2(R1)
 2977 009a CC01      		MOVA	R1, R12
 2978 009c B013 0000 		CALLA	#gen_success
 2979 00a0 8000 0000 		BRA	#.L474
 2980               		.size	set_gpo, .-set_gpo
 2981               		.section	.text.get_log,"ax",@progbits
 2982               		.balign 2
 2983               		.type	get_log, @function
 2984               	get_log:
 2985               	; start of function
 2986               	; framesize_regs:     28
 2987               	; framesize_locals:   0
 2988               	; framesize_outgoing: 0
 2989               	; framesize:          28
 2990               	; elim ap -> fp       32
 2991               	; elim fp -> sp       0
 2992               	; saved regs: R4 R5 R6 R7 R8 R9 R10
 2993               		; start of prologue
 2994 0000 6A14      		PUSHM.A	#7, R10
 2995               		; end of prologue
 2996 0002 C80C      		MOVA	R12, R8
 2997 0004 254D      		MOV.W	@R13, R5
 2998 0006 194D 0200 		MOV.W	2(R13), R9
 2999 000a 0745      		MOV.W	R5, R7
 3000 000c 5707      		rrum.w	#2, R7
 3001 000e 77F0 3F00 		AND.B	#63, R7
 3002 0012 8A00 0000 		MOVA	#elyNLFromFW, R10
 3003 0016 4A13      		CALLA	R10
 3004 0018 8600 0000 		MOVA	#elyNLFreeBuffer, R6
 3005 001c 4613      		CALLA	R6
 3006 001e 35F0 FF00 		AND	#0xff, R5
 3007 0022 4018 25B3 		BITX.W	#2, R5 { JEQ	.L484
 3007      0024 
 3008 0028 B013 0000 		CALLA	#elyFWGetBuffer
 3009 002c C40C      		MOVA	R12, R4
 3010 002e 9C00 0000 		CMPA	#0, R12 { JNE	.L486
 3010      0020 
 3011 0034 CC08      		MOVA	R8, R12
 3012 0036 4A13      		CALLA	R10
 3013 0038 4613      		CALLA	R6
 3014               	.L484:
 3015               		; start of epilogue
 3016 003a 6416      		POPM.A	#7, r10
 3017 003c 1001      		RETA
 3018               	.L486:
 3019 003e CC47 0000 		MOV.B	R7, @R12
 3020 0042 2E00 0000 		MOVA	&bank0p, R14
 3021 0046 DC4E 5100 		MOV.B	81(R14), 2(R12)
 3021      0200 
 3022 004c DC4E 5000 		MOV.B	80(R14), 3(R12)
 3022      0300 
 3023 0052 DC4E 4D00 		MOV.B	77(R14), 4(R12)
 3023      0400 
GAS LISTING /tmp/ccCpBAv9.s 			page 57


 3024 0058 4018 15B3 		BITX.W	#1, R5 { JEQ	.L487
 3024      0024 
 3025 005e FC40 0300 		MOV.B	#3, 1(R12)
 3025      0100 
 3026 0064 7D40 0700 		MOV.B	#7, R13
 3027 0068 B013 0000 		CALLA	#crcGenX25
 3028               	.L488:
 3029 006c 0D49      		MOV.W	R9, R13
 3030 006e CC04      		MOVA	R4, R12
 3031 0070 B013 0000 		CALLA	#elyCmdSendReply
 3032 0074 8000 0000 		BRA	#.L484
 3033               	.L487:
 3034 0078 DC43 0100 		MOV.B	#1, 1(R12)
 3035 007c 8000 0000 		BRA	#.L488
 3036               		.size	get_log, .-get_log
 3037               		.section	.text.get_err,"ax",@progbits
 3038               		.balign 2
 3039               		.type	get_err, @function
 3040               	get_err:
 3041               	; start of function
 3042               	; framesize_regs:     24
 3043               	; framesize_locals:   0
 3044               	; framesize_outgoing: 0
 3045               	; framesize:          24
 3046               	; elim ap -> fp       28
 3047               	; elim fp -> sp       0
 3048               	; saved regs: R5 R6 R7 R8 R9 R10
 3049               		; start of prologue
 3050 0000 5A14      		PUSHM.A	#6, R10
 3051               		; end of prologue
 3052 0002 C80C      		MOVA	R12, R8
 3053 0004 254D      		MOV.W	@R13, R5
 3054 0006 194D 0200 		MOV.W	2(R13), R9
 3055 000a 0745      		MOV.W	R5, R7
 3056 000c 5707      		rrum.w	#2, R7
 3057 000e 77F0 3F00 		AND.B	#63, R7
 3058 0012 35F0 FF00 		AND	#0xff, R5
 3059 0016 8A00 0000 		MOVA	#elyNLFromFW, R10
 3060 001a 4018 25B3 		BITX.W	#2, R5 { JEQ	.L493
 3060      0024 
 3061 0020 B013 0000 		CALLA	#elyFWGetBuffer
 3062 0024 C60C      		MOVA	R12, R6
 3063 0026 9C00 0000 		CMPA	#0, R12 { JNE	.L494
 3063      0020 
 3064               	.L493:
 3065 002c CC08      		MOVA	R8, R12
 3066 002e 4A13      		CALLA	R10
 3067 0030 B013 0000 		CALLA	#elyNLFreeBuffer
 3068               		; start of epilogue
 3069 0034 5516      		POPM.A	#6, r10
 3070 0036 1001      		RETA
 3071               	.L494:
 3072 0038 CC47 0000 		MOV.B	R7, @R12
 3073 003c 2E00 0000 		MOVA	&bank0p, R14
 3074 0040 DC4E 5100 		MOV.B	81(R14), 2(R12)
 3074      0200 
 3075 0046 DC4E 5000 		MOV.B	80(R14), 3(R12)
GAS LISTING /tmp/ccCpBAv9.s 			page 58


 3075      0300 
 3076 004c DC4E 4C00 		MOV.B	76(R14), 4(R12)
 3076      0400 
 3077 0052 4018 15B3 		BITX.W	#1, R5 { JEQ	.L496
 3077      0024 
 3078 0058 FC40 0300 		MOV.B	#3, 1(R12)
 3078      0100 
 3079 005e 7D40 0700 		MOV.B	#7, R13
 3080 0062 B013 0000 		CALLA	#crcGenX25
 3081               	.L497:
 3082 0066 0D49      		MOV.W	R9, R13
 3083 0068 CC06      		MOVA	R6, R12
 3084 006a B013 0000 		CALLA	#elyCmdSendReply
 3085 006e 8000 0000 		BRA	#.L493
 3086               	.L496:
 3087 0072 DC43 0100 		MOV.B	#1, 1(R12)
 3088 0076 8000 0000 		BRA	#.L497
 3089               		.size	get_err, .-get_err
 3090               		.section	.text.get_time,"ax",@progbits
 3091               		.balign 2
 3092               		.type	get_time, @function
 3093               	get_time:
 3094               	; start of function
 3095               	; framesize_regs:     20
 3096               	; framesize_locals:   0
 3097               	; framesize_outgoing: 0
 3098               	; framesize:          20
 3099               	; elim ap -> fp       24
 3100               	; elim fp -> sp       0
 3101               	; saved regs: R6 R7 R8 R9 R10
 3102               		; start of prologue
 3103 0000 4A14      		PUSHM.A	#5, R10
 3104               		; end of prologue
 3105 0002 274D      		MOV.W	@R13, R7
 3106 0004 194D 0200 		MOV.W	2(R13), R9
 3107 0008 0847      		MOV.W	R7, R8
 3108 000a 5807      		rrum.w	#2, R8
 3109 000c 78F0 3F00 		AND.B	#63, R8
 3110 0010 0647      		MOV.W	R7, R6
 3111 0012 560F 560F 		rrum.w	#4, R6 { rrum.w	#4, R6 
 3112 0016 B013 0000 		CALLA	#elyNLFromFW
 3113 001a B013 0000 		CALLA	#elyNLFreeBuffer
 3114 001e 37F0 FF00 		AND	#0xff, R7
 3115 0022 4018 27B3 		BITX.W	#2, R7 { JEQ	.L501
 3115      0024 
 3116 0028 B013 0000 		CALLA	#elyFWGetBuffer
 3117 002c CA0C      		MOVA	R12, R10
 3118 002e 9C00 0000 		CMPA	#0, R12 { JEQ	.L501
 3118      0024 
 3119 0034 CC48 0000 		MOV.B	R8, @R12
 3120 0038 2800 0000 		MOVA	&bank0p, R8
 3121 003c DC48 5100 		MOV.B	81(R8), 2(R12)
 3121      0200 
 3122 0042 DC48 5000 		MOV.B	80(R8), 3(R12)
 3122      0300 
 3123 0048 6653      		ADD.B	#2, R6
 3124 004a CC46 0100 		MOV.B	R6, 1(R12)
GAS LISTING /tmp/ccCpBAv9.s 			page 59


 3125 004e CC08      		MOVA	R8, R12
 3126 0050 AC00 7600 		ADDA	#118, R12
 3127 0054 CE0A      		MOVA	R10, R14
 3128 0056 AE00 0400 		ADDA	#4, R14
 3129 005a A800 7200 		ADDA	#114, R8
 3130               	.L505:
 3131 005e EE4C 0000 		MOV.B	@R12, @R14
 3132 0062 AC0F FFFF 		ADDA	#-1, R12
 3133 0066 AE00 0100 		ADDA	#1, R14
 3134 006a DC08 0020 		CMPA	R8, R12 { JNE	.L505
 3135 006e 4018 17B3 		BITX.W	#1, R7 { JEQ	.L506
 3135      0024 
 3136 0074 5D4A 0100 		MOV.B	1(R10), R13
 3137 0078 2D52      		ADD.W	#4, R13
 3138 007a 4018 0D4D 		MOVX	R13, R13
 3139 007e CC0A      		MOVA	R10, R12
 3140 0080 B013 0000 		CALLA	#crcGenX25
 3141               	.L506:
 3142 0084 0D49      		MOV.W	R9, R13
 3143 0086 CC0A      		MOVA	R10, R12
 3144 0088 B013 0000 		CALLA	#elyCmdSendReply
 3145               	.L501:
 3146               		; start of epilogue
 3147 008c 4616      		POPM.A	#5, r10
 3148 008e 1001      		RETA
 3149               		.size	get_time, .-get_time
 3150               		.section	.text.set_time,"ax",@progbits
 3151               		.balign 2
 3152               		.type	set_time, @function
 3153               	set_time:
 3154               	; start of function
 3155               	; framesize_regs:     24
 3156               	; framesize_locals:   0
 3157               	; framesize_outgoing: 0
 3158               	; framesize:          24
 3159               	; elim ap -> fp       28
 3160               	; elim fp -> sp       0
 3161               	; saved regs: R5 R6 R7 R8 R9 R10
 3162               		; start of prologue
 3163 0000 5A14      		PUSHM.A	#6, R10
 3164               		; end of prologue
 3165 0002 2A4D      		MOV.W	@R13, R10
 3166 0004 194D 0200 		MOV.W	2(R13), R9
 3167 0008 054A      		MOV.W	R10, R5
 3168 000a 5507      		rrum.w	#2, R5
 3169 000c 75F0 3F00 		AND.B	#63, R5
 3170 0010 064A      		MOV.W	R10, R6
 3171 0012 560F 560F 		rrum.w	#4, R6 { rrum.w	#4, R6 
 3172 0016 3AF0 FF00 		AND	#0xff, R10
 3173 001a 474A      		MOV.B	R10, R7
 3174 001c 67F3      		AND.B	#2, R7
 3175 001e 37F0 FF00 		AND	#0xff, R7
 3176 0022 0793 0024 		CMP.W	#0, R7 { JEQ	.L520
 3177 0026 6E42      		MOV.B	#4, R14
 3178               	.L515:
 3179 0028 2800 0000 		MOVA	&bank0w, R8
 3180 002c 4018 0E4E 		MOVX	R14, R14
GAS LISTING /tmp/ccCpBAv9.s 			page 60


 3181 0030 EE0C      		ADDA	R12, R14
 3182 0032 E84E 7600 		MOV.B	@R14, 118(R8)
 3183 0036 D84E 0100 		MOV.B	1(R14), 117(R8)
 3183      7500 
 3184 003c D84E 0200 		MOV.B	2(R14), 116(R8)
 3184      7400 
 3185 0042 D84E 0300 		MOV.B	3(R14), 115(R8)
 3185      7300 
 3186 0048 B013 0000 		CALLA	#elyNLFromFW
 3187 004c B013 0000 		CALLA	#elyNLFreeBuffer
 3188 0050 0793 0024 		CMP.W	#0, R7 { JEQ	.L514
 3189 0054 B013 0000 		CALLA	#elyFWGetBuffer
 3190 0058 C80C      		MOVA	R12, R8
 3191 005a 9C00 0000 		CMPA	#0, R12 { JEQ	.L514
 3191      0024 
 3192 0060 CC45 0000 		MOV.B	R5, @R12
 3193 0064 2E00 0000 		MOVA	&bank0p, R14
 3194 0068 DC4E 5100 		MOV.B	81(R14), 2(R12)
 3194      0200 
 3195 006e DC4E 5000 		MOV.B	80(R14), 3(R12)
 3195      0300 
 3196 0074 7650 FEFF 		ADD.B	#-2, R6
 3197 0078 4D46      		MOV.B	R6, R13
 3198 007a CC46 0100 		MOV.B	R6, 1(R12)
 3199 007e 4018 1AB3 		BITX.W	#1, R10 { JEQ	.L519
 3199      0024 
 3200 0084 2D52      		ADD.W	#4, R13
 3201 0086 4D0E 4D0D 		RLAM.A #4, R13 { RRAM.A #4, R13
 3202 008a B013 0000 		CALLA	#crcGenX25
 3203               	.L519:
 3204 008e 0D49      		MOV.W	R9, R13
 3205 0090 CC08      		MOVA	R8, R12
 3206 0092 B013 0000 		CALLA	#elyCmdSendReply
 3207               	.L514:
 3208               		; start of epilogue
 3209 0096 5516      		POPM.A	#6, r10
 3210 0098 1001      		RETA
 3211               	.L520:
 3212 009a 6E43      		MOV.B	#2, R14
 3213 009c 8000 0000 		BRA	#.L515
 3214               		.size	set_time, .-set_time
 3215               		.section	.text.get_chan,"ax",@progbits
 3216               		.balign 2
 3217               		.type	get_chan, @function
 3218               	get_chan:
 3219               	; start of function
 3220               	; framesize_regs:     28
 3221               	; framesize_locals:   4
 3222               	; framesize_outgoing: 0
 3223               	; framesize:          32
 3224               	; elim ap -> fp       32
 3225               	; elim fp -> sp       4
 3226               	; saved regs: R4 R5 R6 R7 R8 R9 R10
 3227               		; start of prologue
 3228 0000 6A14      		PUSHM.A	#7, R10
 3229 0002 B100 0400 		SUBA	#4, R1
 3230               		; end of prologue
GAS LISTING /tmp/ccCpBAv9.s 			page 61


 3231 0006 CA0C      		MOVA	R12, R10
 3232 0008 2E4D      		MOV.W	@R13, R14
 3233 000a 174D 0200 		MOV.W	2(R13), R7
 3234 000e 094E      		MOV.W	R14, R9
 3235 0010 5907      		rrum.w	#2, R9
 3236 0012 79F0 3F00 		AND.B	#63, R9
 3237 0016 454E      		MOV.B	R14, R5
 3238 0018 8800 0000 		MOVA	#elyNLFromFW, R8
 3239 001c 8600 0000 		MOVA	#elyNLFreeBuffer, R6
 3240 0020 4018 25B3 		BITX.W	#2, R5 { JEQ	.L528
 3240      0024 
 3241 0026 5C4C 0400 		MOV.B	4(R12), R12
 3242 002a 4D4C      		MOV.B	R12, R13
 3243 002c 7D50 C0FF 		ADD.B	#-64, R13
 3244 0030 7F40 3600 		MOV.B	#54, R15
 3245 0034 4F9D 0028 		CMP.B	R13, R15 { JLO	.L529
 3246 0038 7D50 EFFF 		ADD.B	#-17, R13
 3247 003c 7F40 0E00 		MOV.B	#14, R15
 3248 0040 4F9D 002C 		CMP.B	R13, R15 { JHS	.L529
 3249 0044 7C50 9DFF 		ADD.B	#-99, R12
 3250 0048 7D40 0C00 		MOV.B	#12, R13
 3251 004c 4D9C 0028 		CMP.B	R12, R13 { JLO	.L530
 3252               	.L529:
 3253 0050 814E 0000 		MOV.W	R14, @R1
 3254 0054 8147 0200 		MOV.W	R7, 2(R1)
 3255 0058 CC01      		MOVA	R1, R12
 3256 005a B013 0000 		CALLA	#gen_failure
 3257               	.L535:
 3258 005e CC0A      		MOVA	R10, R12
 3259               	.L528:
 3260 0060 4813      		CALLA	R8
 3261 0062 4613      		CALLA	R6
 3262 0064 8000 0000 		BRA	#.L527
 3263               	.L530:
 3264 0068 B013 0000 		CALLA	#elyFWGetBuffer
 3265 006c C40C      		MOVA	R12, R4
 3266 006e 9C00 0000 		CMPA	#0, R12 { JEQ	.L535
 3266      0024 
 3267 0074 CC49 0000 		MOV.B	R9, @R12
 3268 0078 2C00 0000 		MOVA	&bank0p, R12
 3269 007c D44C 5100 		MOV.B	81(R12), 2(R4)
 3269      0200 
 3270 0082 D44C 5000 		MOV.B	80(R12), 3(R4)
 3270      0300 
 3271 0088 5D4A 0400 		MOV.B	4(R10), R13
 3272 008c CC04      		MOVA	R4, R12
 3273 008e AC00 0400 		ADDA	#4, R12
 3274 0092 B013 0000 		CALLA	#elyChanGetValue
 3275 0096 C90C      		MOVA	R12, R9
 3276 0098 CC0A      		MOVA	R10, R12
 3277 009a 4813      		CALLA	R8
 3278 009c 4613      		CALLA	R6
 3279 009e 0914 4018 		PUSHM.A	#1, R9 { POPX.W	R12 { POPX.W	R13 ; move pointer in R9 into reg-pair R12:R13
 3279      3C41 4018 
 3279      3D41 
 3280 00a8 4018 15B3 		BITX.W	#1, R5 { JEQ	.L533
 3280      0024 
GAS LISTING /tmp/ccCpBAv9.s 			page 62


 3281 00ae 7C50 0300 		ADD.B	#3, R12
 3282 00b2 C44C 0100 		MOV.B	R12, 1(R4)
 3283 00b6 CD09      		MOVA	R9, R13
 3284 00b8 AD00 0700 		ADDA	#7, R13
 3285 00bc CC04      		MOVA	R4, R12
 3286 00be B013 0000 		CALLA	#crcGenX25
 3287               	.L534:
 3288 00c2 0D47      		MOV.W	R7, R13
 3289 00c4 CC04      		MOVA	R4, R12
 3290 00c6 B013 0000 		CALLA	#elyCmdSendReply
 3291               	.L527:
 3292               		; start of epilogue
 3293 00ca A100 0400 		ADDA	#4, R1
 3294 00ce 6416      		POPM.A	#7, r10
 3295 00d0 1001      		RETA
 3296               	.L533:
 3297 00d2 5C53      		ADD.B	#1, R12
 3298 00d4 C44C 0100 		MOV.B	R12, 1(R4)
 3299 00d8 8000 0000 		BRA	#.L534
 3300               		.size	get_chan, .-get_chan
 3301               		.section	.text.get_u32,"ax",@progbits
 3302               		.balign 2
 3303               		.type	get_u32, @function
 3304               	get_u32:
 3305               	; start of function
 3306               	; framesize_regs:     28
 3307               	; framesize_locals:   14
 3308               	; framesize_outgoing: 0
 3309               	; framesize:          42
 3310               	; elim ap -> fp       32
 3311               	; elim fp -> sp       14
 3312               	; saved regs: R4 R5 R6 R7 R8 R9 R10
 3313               		; start of prologue
 3314 0000 6A14      		PUSHM.A	#7, R10
 3315 0002 B100 0E00 		SUBA	#14, R1
 3316               		; end of prologue
 3317 0006 464C      		MOV.B	R12, R6
 3318 0008 2C4D      		MOV.W	@R13, R12
 3319 000a 914D 0200 		MOV.W	2(R13), 12(R1)
 3319      0C00 
 3320 0010 074E      		MOV.W	R14, R7
 3321 0012 084F      		MOV.W	R15, R8
 3322 0014 9141 2E00 		MOV.W	46(R1), 8(R1)
 3322      0800 
 3323 001a 1541 3000 		MOV.W	48(R1), R5
 3324 001e 094C      		MOV.W	R12, R9
 3325 0020 5907      		rrum.w	#2, R9
 3326 0022 79F0 3F00 		AND.B	#63, R9
 3327 0026 3CF0 FF00 		AND	#0xff, R12
 3328 002a 814C 0A00 		MOV.W	R12, 10(R1)
 3329 002e 4018 2CB3 		BITX.W	#2, R12 { JEQ	.L536
 3329      0024 
 3330 0034 B013 0000 		CALLA	#elyFWGetBuffer
 3331 0038 CA0C      		MOVA	R12, R10
 3332 003a 9C00 0000 		CMPA	#0, R12 { JEQ	.L536
 3332      0024 
 3333 0040 CC49 0000 		MOV.B	R9, @R12
GAS LISTING /tmp/ccCpBAv9.s 			page 63


 3334 0044 2C00 0000 		MOVA	&bank0p, R12
 3335 0048 DA4C 5100 		MOV.B	81(R12), 2(R10)
 3335      0200 
 3336 004e DA4C 5000 		MOV.B	80(R12), 3(R10)
 3336      0300 
 3337 0054 0018 C146 		MOVX.A	R6, 4(R1)
 3337      0400 
 3338 005a 3B01 0400 		MOVA	4(R1), R11
 3339 005e EB0C      		ADDA	R12, R11
 3340 0060 4443      		MOV.B	#0, R4
 3341 0062 0944      		MOV.W	R4, R9
 3342 0064 0644      		MOV.W	R4, R6
 3343               	.L540:
 3344 0066 6C4B 0D43 		MOV.B	@R11,R12 { CLR	R13
 3345 006a 0E44 0F43 		MOV.W	R4,R14 { MOV.W	#0,R15
 3346 006e 710B 0000 		MOVA	R11, @R1
 3347 0072 B013 0000 		CALLA	#__mspabi_slll
 3348 0076 0CD9      		BIS.W	R9, R12
 3349 0078 0DD6      		BIS.W	R6, R13
 3350 007a 094C      		MOV.W	R12, R9
 3351 007c 064D      		MOV.W	R13, R6
 3352 007e 0B01      		MOVA	@R1, R11
 3353 0080 AB00 0100 		ADDA	#1, R11
 3354 0084 3452      		ADD.W	#8, R4
 3355 0086 3490 2000 		CMP.W	#32, R4 { JNE	.L540
 3355      0020 
 3356 008c 089D 0028 		CMP.W	R13, R8 { JLO	.L549
 3357 0090 0D98 0020 		CMP.W	R8, R13 { JNE	.L541
 3358 0094 079C 002C 		CMP.W	R12, R7 { JHS	.L541
 3359               	.L549:
 3360 0098 3601 0400 		MOVA	4(R1), R6
 3361 009c 0018 5652 		ADDX.A	&bank0w, R6
 3361      0000 
 3362 00a2 4943      		MOV.B	#0, R9
 3363               	.L543:
 3364 00a4 0C47      		MOV.W	R7, R12
 3365 00a6 0D48      		MOV.W	R8, R13
 3366 00a8 0E49 0F43 		MOV.W	R9,R14 { MOV.W	#0,R15
 3367 00ac B013 0000 		CALLA	#__mspabi_srll
 3368 00b0 C64C 0000 		MOV.B	R12, @R6
 3369 00b4 3952      		ADD.W	#8, R9
 3370 00b6 A600 0100 		ADDA	#1, R6
 3371 00ba 3990 2000 		CMP.W	#32, R9 { JNE	.L543
 3371      0020 
 3372 00c0 0947      		MOV.W	R7, R9
 3373 00c2 0648      		MOV.W	R8, R6
 3374               	.L544:
 3375 00c4 0C49      		MOV.W	R9, R12
 3376 00c6 0D46      		MOV.W	R6, R13
 3377 00c8 7E40 1800 		MOV.B	#24, R14
 3378 00cc B013 0000 		CALLA	#__mspabi_srll
 3379 00d0 CA4C 0400 		MOV.B	R12, 4(R10)
 3380 00d4 0C49      		MOV.W	R9, R12
 3381 00d6 0D46      		MOV.W	R6, R13
 3382 00d8 7E40 1000 		MOV.B	#16, R14
 3383 00dc B013 0000 		CALLA	#__mspabi_srll
 3384 00e0 CA4C 0500 		MOV.B	R12, 5(R10)
GAS LISTING /tmp/ccCpBAv9.s 			page 64


 3385 00e4 0C49      		MOV.W	R9, R12
 3386 00e6 0D46      		MOV.W	R6, R13
 3387 00e8 B013 0000 		CALLA	#__mspabi_srll_8
 3388 00ec CA4C 0600 		MOV.B	R12, 6(R10)
 3389 00f0 CA49 0700 		MOV.B	R9, 7(R10)
 3390 00f4 4018 91B3 		BITX.W	#1, 10(R1) { JEQ	.L547
 3390      0A00 0024 
 3391 00fc FA40 0600 		MOV.B	#6, 1(R10)
 3391      0100 
 3392 0102 7D40 0A00 		MOV.B	#10, R13
 3393 0106 CC0A      		MOVA	R10, R12
 3394 0108 B013 0000 		CALLA	#crcGenX25
 3395               	.L548:
 3396 010c 1D41 0C00 		MOV.W	12(R1), R13
 3397 0110 CC0A      		MOVA	R10, R12
 3398 0112 B013 0000 		CALLA	#elyCmdSendReply
 3399               	.L536:
 3400               		; start of epilogue
 3401 0116 A100 0E00 		ADDA	#14, R1
 3402 011a 6416      		POPM.A	#7, r10
 3403 011c 1001      		RETA
 3404               	.L541:
 3405 011e 0D95 0028 		CMP.W	R5, R13 { JLO	.L550
 3406 0122 059D 0020 		CMP.W	R13, R5 { JNE	.L544
 3407 0126 1C91 0800 		CMP.W	8(R1), R12 { JHS	.L544
 3407      002C 
 3408               	.L550:
 3409 012c 3601 0400 		MOVA	4(R1), R6
 3410 0130 0018 5652 		ADDX.A	&bank0w, R6
 3410      0000 
 3411 0136 4943      		MOV.B	#0, R9
 3412               	.L546:
 3413 0138 1C41 0800 		MOV.W	8(R1), R12
 3414 013c 0D45      		MOV.W	R5, R13
 3415 013e 0E49 0F43 		MOV.W	R9,R14 { MOV.W	#0,R15
 3416 0142 B013 0000 		CALLA	#__mspabi_srll
 3417 0146 C64C 0000 		MOV.B	R12, @R6
 3418 014a 3952      		ADD.W	#8, R9
 3419 014c A600 0100 		ADDA	#1, R6
 3420 0150 3990 2000 		CMP.W	#32, R9 { JNE	.L546
 3420      0020 
 3421 0156 1941 0800 		MOV.W	8(R1), R9
 3422 015a 0645      		MOV.W	R5, R6
 3423 015c 8000 0000 		BRA	#.L544
 3424               	.L547:
 3425 0160 EA42 0100 		MOV.B	#4, 1(R10)
 3426 0164 8000 0000 		BRA	#.L548
 3427               		.size	get_u32, .-get_u32
 3428               		.section	.text.get_baud,"ax",@progbits
 3429               		.balign 2
 3430               		.type	get_baud, @function
 3431               	get_baud:
 3432               	; start of function
 3433               	; framesize_regs:     8
 3434               	; framesize_locals:   4
 3435               	; framesize_outgoing: 4
 3436               	; framesize:          16
GAS LISTING /tmp/ccCpBAv9.s 			page 65


 3437               	; elim ap -> fp       12
 3438               	; elim fp -> sp       8
 3439               	; saved regs: R8 R9
 3440               		; start of prologue
 3441 0000 1914      		PUSHM.A	#2, R9
 3442 0002 B100 0800 		SUBA	#8, R1
 3443               		; end of prologue
 3444 0006 284D      		MOV.W	@R13, R8
 3445 0008 194D 0200 		MOV.W	2(R13), R9
 3446 000c B013 0000 		CALLA	#elyNLFromFW
 3447 0010 B013 0000 		CALLA	#elyNLFreeBuffer
 3448 0014 8148 0400 		MOV.W	R8, 4(R1)
 3449 0018 8149 0600 		MOV.W	R9, 6(R1)
 3450 001c 9143 0000 		MOV.W	#1, @R1
 3451 0020 8143 0200 		MOV.W	#0, 2(R1)
 3452 0024 3E40 4042 		MOV.W	#16960, R14
 3453 0028 7F40 0F00 		MOV.B	#15, R15
 3454 002c CD01      		MOVA	R1, R13
 3455 002e AD00 0400 		ADDA	#4, R13
 3456 0032 7C40 2200 		MOV.B	#34, R12
 3457 0036 B013 0000 		CALLA	#get_u32
 3458               		; start of epilogue
 3459 003a A100 0800 		ADDA	#8, R1
 3460 003e 1816      		POPM.A	#2, r9
 3461 0040 1001      		RETA
 3462               		.size	get_baud, .-get_baud
 3463               		.section	.text.get_rx_dev,"ax",@progbits
 3464               		.balign 2
 3465               		.type	get_rx_dev, @function
 3466               	get_rx_dev:
 3467               	; start of function
 3468               	; framesize_regs:     8
 3469               	; framesize_locals:   4
 3470               	; framesize_outgoing: 4
 3471               	; framesize:          16
 3472               	; elim ap -> fp       12
 3473               	; elim fp -> sp       8
 3474               	; saved regs: R8 R9
 3475               		; start of prologue
 3476 0000 1914      		PUSHM.A	#2, R9
 3477 0002 B100 0800 		SUBA	#8, R1
 3478               		; end of prologue
 3479 0006 284D      		MOV.W	@R13, R8
 3480 0008 194D 0200 		MOV.W	2(R13), R9
 3481 000c B013 0000 		CALLA	#elyNLFromFW
 3482 0010 B013 0000 		CALLA	#elyNLFreeBuffer
 3483 0014 8148 0400 		MOV.W	R8, 4(R1)
 3484 0018 8149 0600 		MOV.W	R9, 6(R1)
 3485 001c B140 E880 		MOV.W	#-32536, @R1
 3485      0000 
 3486 0022 8143 0200 		MOV.W	#0, 2(R1)
 3487 0026 3E40 400D 		MOV.W	#3392, R14
 3488 002a 7F40 0300 		MOV.B	#3, R15
 3489 002e CD01      		MOVA	R1, R13
 3490 0030 AD00 0400 		ADDA	#4, R13
 3491 0034 7C40 0C00 		MOV.B	#12, R12
 3492 0038 B013 0000 		CALLA	#get_u32
GAS LISTING /tmp/ccCpBAv9.s 			page 66


 3493               		; start of epilogue
 3494 003c A100 0800 		ADDA	#8, R1
 3495 0040 1816      		POPM.A	#2, r9
 3496 0042 1001      		RETA
 3497               		.size	get_rx_dev, .-get_rx_dev
 3498               		.section	.text.get_tx_dev,"ax",@progbits
 3499               		.balign 2
 3500               		.type	get_tx_dev, @function
 3501               	get_tx_dev:
 3502               	; start of function
 3503               	; framesize_regs:     8
 3504               	; framesize_locals:   4
 3505               	; framesize_outgoing: 4
 3506               	; framesize:          16
 3507               	; elim ap -> fp       12
 3508               	; elim fp -> sp       8
 3509               	; saved regs: R8 R9
 3510               		; start of prologue
 3511 0000 1914      		PUSHM.A	#2, R9
 3512 0002 B100 0800 		SUBA	#8, R1
 3513               		; end of prologue
 3514 0006 284D      		MOV.W	@R13, R8
 3515 0008 194D 0200 		MOV.W	2(R13), R9
 3516 000c B013 0000 		CALLA	#elyNLFromFW
 3517 0010 B013 0000 		CALLA	#elyNLFreeBuffer
 3518 0014 8148 0400 		MOV.W	R8, 4(R1)
 3519 0018 8149 0600 		MOV.W	R9, 6(R1)
 3520 001c B140 5802 		MOV.W	#600, @R1
 3520      0000 
 3521 0022 8143 0200 		MOV.W	#0, 2(R1)
 3522 0026 3E40 400D 		MOV.W	#3392, R14
 3523 002a 7F40 0300 		MOV.B	#3, R15
 3524 002e CD01      		MOVA	R1, R13
 3525 0030 AD00 0400 		ADDA	#4, R13
 3526 0034 7C42      		MOV.B	#8, R12
 3527 0036 B013 0000 		CALLA	#get_u32
 3528               		; start of epilogue
 3529 003a A100 0800 		ADDA	#8, R1
 3530 003e 1816      		POPM.A	#2, r9
 3531 0040 1001      		RETA
 3532               		.size	get_tx_dev, .-get_tx_dev
 3533               		.section	.text.get_rx_br,"ax",@progbits
 3534               		.balign 2
 3535               		.type	get_rx_br, @function
 3536               	get_rx_br:
 3537               	; start of function
 3538               	; framesize_regs:     8
 3539               	; framesize_locals:   4
 3540               	; framesize_outgoing: 4
 3541               	; framesize:          16
 3542               	; elim ap -> fp       12
 3543               	; elim fp -> sp       8
 3544               	; saved regs: R8 R9
 3545               		; start of prologue
 3546 0000 1914      		PUSHM.A	#2, R9
 3547 0002 B100 0800 		SUBA	#8, R1
 3548               		; end of prologue
GAS LISTING /tmp/ccCpBAv9.s 			page 67


 3549 0006 284D      		MOV.W	@R13, R8
 3550 0008 194D 0200 		MOV.W	2(R13), R9
 3551 000c B013 0000 		CALLA	#elyNLFromFW
 3552 0010 B013 0000 		CALLA	#elyNLFreeBuffer
 3553 0014 8148 0400 		MOV.W	R8, 4(R1)
 3554 0018 8149 0600 		MOV.W	R9, 6(R1)
 3555 001c B140 0C03 		MOV.W	#780, @R1
 3555      0000 
 3556 0022 8143 0200 		MOV.W	#0, 2(R1)
 3557 0026 3E40 F049 		MOV.W	#18928, R14
 3558 002a 6F43      		MOV.B	#2, R15
 3559 002c CD01      		MOVA	R1, R13
 3560 002e AD00 0400 		ADDA	#4, R13
 3561 0032 7C40 1C00 		MOV.B	#28, R12
 3562 0036 B013 0000 		CALLA	#get_u32
 3563               		; start of epilogue
 3564 003a A100 0800 		ADDA	#8, R1
 3565 003e 1816      		POPM.A	#2, r9
 3566 0040 1001      		RETA
 3567               		.size	get_rx_br, .-get_rx_br
 3568               		.section	.text.get_tx_br,"ax",@progbits
 3569               		.balign 2
 3570               		.type	get_tx_br, @function
 3571               	get_tx_br:
 3572               	; start of function
 3573               	; framesize_regs:     8
 3574               	; framesize_locals:   4
 3575               	; framesize_outgoing: 4
 3576               	; framesize:          16
 3577               	; elim ap -> fp       12
 3578               	; elim fp -> sp       8
 3579               	; saved regs: R8 R9
 3580               		; start of prologue
 3581 0000 1914      		PUSHM.A	#2, R9
 3582 0002 B100 0800 		SUBA	#8, R1
 3583               		; end of prologue
 3584 0006 284D      		MOV.W	@R13, R8
 3585 0008 194D 0200 		MOV.W	2(R13), R9
 3586 000c B013 0000 		CALLA	#elyNLFromFW
 3587 0010 B013 0000 		CALLA	#elyNLFreeBuffer
 3588 0014 8148 0400 		MOV.W	R8, 4(R1)
 3589 0018 8149 0600 		MOV.W	R9, 6(R1)
 3590 001c B140 B004 		MOV.W	#1200, @R1
 3590      0000 
 3591 0022 8143 0200 		MOV.W	#0, 2(R1)
 3592 0026 3E40 E093 		MOV.W	#-27680, R14
 3593 002a 6F42      		MOV.B	#4, R15
 3594 002c CD01      		MOVA	R1, R13
 3595 002e AD00 0400 		ADDA	#4, R13
 3596 0032 7C40 1800 		MOV.B	#24, R12
 3597 0036 B013 0000 		CALLA	#get_u32
 3598               		; start of epilogue
 3599 003a A100 0800 		ADDA	#8, R1
 3600 003e 1816      		POPM.A	#2, r9
 3601 0040 1001      		RETA
 3602               		.size	get_tx_br, .-get_tx_br
 3603               		.section	.text.get_rx_freq,"ax",@progbits
GAS LISTING /tmp/ccCpBAv9.s 			page 68


 3604               		.balign 2
 3605               		.type	get_rx_freq, @function
 3606               	get_rx_freq:
 3607               	; start of function
 3608               	; framesize_regs:     8
 3609               	; framesize_locals:   4
 3610               	; framesize_outgoing: 4
 3611               	; framesize:          16
 3612               	; elim ap -> fp       12
 3613               	; elim fp -> sp       8
 3614               	; saved regs: R8 R9
 3615               		; start of prologue
 3616 0000 1914      		PUSHM.A	#2, R9
 3617 0002 B100 0800 		SUBA	#8, R1
 3618               		; end of prologue
 3619 0006 284D      		MOV.W	@R13, R8
 3620 0008 194D 0200 		MOV.W	2(R13), R9
 3621 000c B013 0000 		CALLA	#elyNLFromFW
 3622 0010 B013 0000 		CALLA	#elyNLFreeBuffer
 3623 0014 8148 0400 		MOV.W	R8, 4(R1)
 3624 0018 8149 0600 		MOV.W	R9, 6(R1)
 3625 001c B140 4044 		MOV.W	#17472, @R1
 3625      0000 
 3626 0022 B140 3D1B 		MOV.W	#6973, 2(R1)
 3626      0200 
 3627 0028 3E40 C0E3 		MOV.W	#-7232, R14
 3628 002c 3F40 121C 		MOV.W	#7186, R15
 3629 0030 CD01      		MOVA	R1, R13
 3630 0032 AD00 0400 		ADDA	#4, R13
 3631 0036 6C42      		MOV.B	#4, R12
 3632 0038 B013 0000 		CALLA	#get_u32
 3633               		; start of epilogue
 3634 003c A100 0800 		ADDA	#8, R1
 3635 0040 1816      		POPM.A	#2, r9
 3636 0042 1001      		RETA
 3637               		.size	get_rx_freq, .-get_rx_freq
 3638               		.section	.text.get_tx_freq,"ax",@progbits
 3639               		.balign 2
 3640               		.type	get_tx_freq, @function
 3641               	get_tx_freq:
 3642               	; start of function
 3643               	; framesize_regs:     8
 3644               	; framesize_locals:   4
 3645               	; framesize_outgoing: 4
 3646               	; framesize:          16
 3647               	; elim ap -> fp       12
 3648               	; elim fp -> sp       8
 3649               	; saved regs: R8 R9
 3650               		; start of prologue
 3651 0000 1914      		PUSHM.A	#2, R9
 3652 0002 B100 0800 		SUBA	#8, R1
 3653               		; end of prologue
 3654 0006 284D      		MOV.W	@R13, R8
 3655 0008 194D 0200 		MOV.W	2(R13), R9
 3656 000c B013 0000 		CALLA	#elyNLFromFW
 3657 0010 B013 0000 		CALLA	#elyNLFreeBuffer
 3658 0014 8148 0400 		MOV.W	R8, 4(R1)
GAS LISTING /tmp/ccCpBAv9.s 			page 69


 3659 0018 8149 0600 		MOV.W	R9, 6(R1)
 3660 001c B140 40DA 		MOV.W	#-9664, @R1
 3660      0000 
 3661 0022 B140 8E33 		MOV.W	#13198, 2(R1)
 3661      0200 
 3662 0028 3E40 C024 		MOV.W	#9408, R14
 3663 002c 3F40 EC38 		MOV.W	#14572, R15
 3664 0030 CD01      		MOVA	R1, R13
 3665 0032 AD00 0400 		ADDA	#4, R13
 3666 0036 4C43      		MOV.B	#0, R12
 3667 0038 B013 0000 		CALLA	#get_u32
 3668               		; start of epilogue
 3669 003c A100 0800 		ADDA	#8, R1
 3670 0040 1816      		POPM.A	#2, r9
 3671 0042 1001      		RETA
 3672               		.size	get_tx_freq, .-get_tx_freq
 3673               		.section	.text.get_tx_pow,"ax",@progbits
 3674               		.balign 2
 3675               		.type	get_tx_pow, @function
 3676               	get_tx_pow:
 3677               	; start of function
 3678               	; framesize_regs:     20
 3679               	; framesize_locals:   0
 3680               	; framesize_outgoing: 0
 3681               	; framesize:          20
 3682               	; elim ap -> fp       24
 3683               	; elim fp -> sp       0
 3684               	; saved regs: R6 R7 R8 R9 R10
 3685               		; start of prologue
 3686 0000 4A14      		PUSHM.A	#5, R10
 3687               		; end of prologue
 3688 0002 C80C      		MOVA	R12, R8
 3689 0004 294D      		MOV.W	@R13, R9
 3690 0006 164D 0200 		MOV.W	2(R13), R6
 3691 000a 0749      		MOV.W	R9, R7
 3692 000c 5707      		rrum.w	#2, R7
 3693 000e 77F0 3F00 		AND.B	#63, R7
 3694 0012 B013 0000 		CALLA	#elyNLFromFW
 3695 0016 B013 0000 		CALLA	#elyNLFreeBuffer
 3696 001a 39F0 FF00 		AND	#0xff, R9
 3697 001e 4018 29B3 		BITX.W	#2, R9 { JEQ	.L564
 3697      0024 
 3698 0024 B013 0000 		CALLA	#elyFWGetBuffer
 3699 0028 CA0C      		MOVA	R12, R10
 3700 002a 9C00 0000 		CMPA	#0, R12 { JEQ	.L564
 3700      0024 
 3701 0030 CC47 0000 		MOV.B	R7, @R12
 3702 0034 2C00 0000 		MOVA	&bank0p, R12
 3703 0038 DA4C 5100 		MOV.B	81(R12), 2(R10)
 3703      0200 
 3704 003e DA4C 5000 		MOV.B	80(R12), 3(R10)
 3704      0300 
 3705 0044 DA4C 2100 		MOV.B	33(R12), 4(R10)
 3705      0400 
 3706 004a 4018 19B3 		BITX.W	#1, R9 { JEQ	.L568
 3706      0024 
 3707 0050 FA40 0300 		MOV.B	#3, 1(R10)
GAS LISTING /tmp/ccCpBAv9.s 			page 70


 3707      0100 
 3708 0056 7D40 0700 		MOV.B	#7, R13
 3709 005a CC08      		MOVA	R8, R12
 3710 005c B013 0000 		CALLA	#crcGenX25
 3711               	.L569:
 3712 0060 0D46      		MOV.W	R6, R13
 3713 0062 CC0A      		MOVA	R10, R12
 3714 0064 B013 0000 		CALLA	#elyCmdSendReply
 3715               	.L564:
 3716               		; start of epilogue
 3717 0068 4616      		POPM.A	#5, r10
 3718 006a 1001      		RETA
 3719               	.L568:
 3720 006c DA43 0100 		MOV.B	#1, 1(R10)
 3721 0070 8000 0000 		BRA	#.L569
 3722               		.size	get_tx_pow, .-get_tx_pow
 3723               		.section	.text.set_block,"ax",@progbits
 3724               		.balign 2
 3725               		.type	set_block, @function
 3726               	set_block:
 3727               	; start of function
 3728               	; framesize_regs:     28
 3729               	; framesize_locals:   18
 3730               	; framesize_outgoing: 0
 3731               	; framesize:          46
 3732               	; elim ap -> fp       32
 3733               	; elim fp -> sp       18
 3734               	; saved regs: R4 R5 R6 R7 R8 R9 R10
 3735               		; start of prologue
 3736 0000 6A14      		PUSHM.A	#7, R10
 3737 0002 B100 1200 		SUBA	#18, R1
 3738               		; end of prologue
 3739 0006 710C 0800 		MOVA	R12, 8(R1)
 3740 000a 254D      		MOV.W	@R13, R5
 3741 000c 194D 0200 		MOV.W	2(R13), R9
 3742 0010 0845      		MOV.W	R5, R8
 3743 0012 580F 580F 		rrum.w	#4, R8 { rrum.w	#4, R8 
 3744 0016 4F45      		MOV.B	R5, R15
 3745 0018 4B4F      		MOV.B	R15, R11
 3746 001a 6BF3      		AND.B	#2, R11
 3747 001c 474B      		MOV.B	R11, R7
 3748 001e 0793 0024 		CMP.W	#0, R7 { JEQ	.L584
 3749 0022 6D42      		MOV.B	#4, R13
 3750               	.L574:
 3751 0024 4018 064D 		MOVX	R13, R6
 3752 0028 3C01 0800 		MOVA	8(R1), R12
 3753 002c EC06      		ADDA	R6, R12
 3754 002e 6A4C      		MOV.B	@R12, R10
 3755 0030 814A 0C00 		MOV.W	R10, 12(R1)
 3756 0034 5A4C 0100 		MOV.B	1(R12), R10
 3757 0038 4018 1FB3 		BITX.W	#1, R15 { JEQ	.L585
 3757      0024 
 3758 003e 6D43      		MOV.B	#2, R13
 3759               	.L575:
 3760 0040 710B 0000 		MOVA	R11, @R1
 3761 0044 710D 0400 		MOVA	R13, 4(R1)
 3762 0048 B013 0000 		CALLA	#elyFWGetBuffer
GAS LISTING /tmp/ccCpBAv9.s 			page 71


 3763 004c C40C      		MOVA	R12, R4
 3764 004e 8E00 0000 		MOVA	#elyNLFromFW, R14
 3765 0052 0B01      		MOVA	@R1, R11
 3766 0054 3D01 0400 		MOVA	4(R1), R13
 3767 0058 9C00 0000 		CMPA	#0, R12 { JNE	.L576
 3767      0020 
 3768               	.L582:
 3769 005e 3C01 0800 		MOVA	8(R1), R12
 3770 0062 4E13      		CALLA	R14
 3771 0064 B013 0000 		CALLA	#elyNLFreeBuffer
 3772               	.L573:
 3773               		; start of epilogue
 3774 0068 A100 1200 		ADDA	#18, R1
 3775 006c 6416      		POPM.A	#7, r10
 3776 006e 1001      		RETA
 3777               	.L584:
 3778 0070 6D43      		MOV.B	#2, R13
 3779 0072 8000 0000 		BRA	#.L574
 3780               	.L585:
 3781 0076 4D43      		MOV.B	#0, R13
 3782 0078 8000 0000 		BRA	#.L575
 3783               	.L576:
 3784 007c 1C41 0C00 		MOV.W	12(R1), R12
 3785 0080 7C53      		ADD.B	#-1, R12
 3786 0082 7F40 0300 		MOV.B	#3, R15
 3787 0086 4F9C 0028 		CMP.B	R12, R15 { JLO	.L578
 3788 008a 7850 FEFF 		ADD.B	#-2, R8
 3789 008e 4018 4F48 		MOVX.B	R8, R15 { SUBX.B	R11, R15
 3789      4018 4F8B 
 3790 0096 4F8D      		SUB.B	R13, R15
 3791 0098 4C4F      		MOV.B	R15, R12
 3792 009a 4018 3D40 		MOVX.W	#87, R13 { SUBX.W	R12, R13
 3792      5700 4018 
 3792      0D8C 
 3793 00a4 0A9D 0038 		CMP.W	R13, R10 { JL	.L579
 3794 00a8 4A93 0034 		CMP.B	#0, R10 { JGE	.L578
 3795               	.L579:
 3796 00ac 4018 3D40 		MOVX.W	#139, R13 { SUBX.W	R12, R13
 3796      8B00 4018 
 3796      0D8C 
 3797 00b6 0A9D 0038 		CMP.W	R13, R10 { JL	.L580
 3798 00ba 7D40 BFFF 		MOV.B	#-65, R13
 3799 00be 4D9A 002C 		CMP.B	R10, R13 { JHS	.L578
 3800               	.L580:
 3801 00c2 4018 3D40 		MOVX.W	#214, R13 { SUBX.W	R12, R13
 3801      D600 4018 
 3801      0D8C 
 3802 00cc 0A9D 0038 		CMP.W	R13, R10 { JL	.L581
 3803               	.L578:
 3804 00d0 0793 0024 		CMP.W	#0, R7 { JEQ	.L582
 3805 00d4 8145 0E00 		MOV.W	R5, 14(R1)
 3806 00d8 8149 1000 		MOV.W	R9, 16(R1)
 3807 00dc CD01      		MOVA	R1, R13
 3808 00de AD00 0E00 		ADDA	#14, R13
 3809 00e2 CC04      		MOVA	R4, R12
 3810 00e4 710E 0400 		MOVA	R14, 4(R1)
 3811 00e8 B013 0000 		CALLA	#write_failure
GAS LISTING /tmp/ccCpBAv9.s 			page 72


 3812 00ec 0D49      		MOV.W	R9, R13
 3813 00ee CC04      		MOVA	R4, R12
 3814 00f0 B013 0000 		CALLA	#elyCmdSendReply
 3815 00f4 3E01 0400 		MOVA	4(R1), R14
 3816 00f8 8000 0000 		BRA	#.L582
 3817               	.L581:
 3818 00fc CD06      		MOVA	R6, R13
 3819 00fe AD00 0200 		ADDA	#2, R13
 3820 0102 4018 0E4F 		MOVX	R15, R14
 3821 0106 0018 5D51 		ADDX.A	8(R1), R13
 3821      0800 
 3822 010c C804      		MOVA	R4, R8
 3823 010e A800 0400 		ADDA	#4, R8
 3824 0112 CC08      		MOVA	R8, R12
 3825 0114 710F 0400 		MOVA	R15, 4(R1)
 3826 0118 B013 0000 		CALLA	#memcpy
 3827 011c 8600 0000 		MOVA	#elyNLFromFW, R6
 3828 0120 3C01 0800 		MOVA	8(R1), R12
 3829 0124 4613      		CALLA	R6
 3830 0126 B013 0000 		CALLA	#elyNLFreeBuffer
 3831 012a 3F01 0400 		MOVA	4(R1), R15
 3832 012e 4E4A      		MOV.B	R10, R14
 3833 0130 CD08      		MOVA	R8, R13
 3834 0132 1A41 0C00 		MOV.W	12(R1), R10
 3835 0136 4C4A      		MOV.B	R10, R12
 3836 0138 B013 0000 		CALLA	#elyRegSetBlock
 3837 013c 0793 0024 		CMP.W	#0, R7 { JEQ	.L583
 3838 0140 8145 0E00 		MOV.W	R5, 14(R1)
 3839 0144 8149 1000 		MOV.W	R9, 16(R1)
 3840 0148 CD01      		MOVA	R1, R13
 3841 014a AD00 0E00 		ADDA	#14, R13
 3842 014e CC04      		MOVA	R4, R12
 3843 0150 B013 0000 		CALLA	#write_success
 3844 0154 0D49      		MOV.W	R9, R13
 3845 0156 CC04      		MOVA	R4, R12
 3846 0158 B013 0000 		CALLA	#elyCmdSendReply
 3847 015c 8000 0000 		BRA	#.L573
 3848               	.L583:
 3849 0160 CC04      		MOVA	R4, R12
 3850 0162 4613      		CALLA	R6
 3851 0164 B013 0000 		CALLA	#elyFWFreeBuffer
 3852 0168 8000 0000 		BRA	#.L573
 3853               		.size	set_block, .-set_block
 3854               		.section	.text.get_block,"ax",@progbits
 3855               		.balign 2
 3856               		.type	get_block, @function
 3857               	get_block:
 3858               	; start of function
 3859               	; framesize_regs:     28
 3860               	; framesize_locals:   14
 3861               	; framesize_outgoing: 0
 3862               	; framesize:          42
 3863               	; elim ap -> fp       32
 3864               	; elim fp -> sp       14
 3865               	; saved regs: R4 R5 R6 R7 R8 R9 R10
 3866               		; start of prologue
 3867 0000 6A14      		PUSHM.A	#7, R10
GAS LISTING /tmp/ccCpBAv9.s 			page 73


 3868 0002 B100 0E00 		SUBA	#14, R1
 3869               		; end of prologue
 3870 0006 264D      		MOV.W	@R13, R6
 3871 0008 184D 0200 		MOV.W	2(R13), R8
 3872 000c 0746      		MOV.W	R6, R7
 3873 000e 5707      		rrum.w	#2, R7
 3874 0010 77F0 3F00 		AND.B	#63, R7
 3875 0014 C147 0900 		MOV.B	R7, 9(R1)
 3876 0018 4546      		MOV.B	R6, R5
 3877 001a 8F00 0000 		MOVA	#elyNLFromFW, R15
 3878 001e 8400 0000 		MOVA	#elyNLFreeBuffer, R4
 3879 0022 4018 25B3 		BITX.W	#2, R5 { JEQ	.L590
 3879      0024 
 3880 0028 710C 0400 		MOVA	R12, 4(R1)
 3881 002c 710F 0000 		MOVA	R15, @R1
 3882 0030 B013 0000 		CALLA	#elyFWGetBuffer
 3883 0034 CA0C      		MOVA	R12, R10
 3884 0036 3E01 0400 		MOVA	4(R1), R14
 3885 003a 0F01      		MOVA	@R1, R15
 3886 003c 9C00 0000 		CMPA	#0, R12 { JNE	.L591
 3886      0020 
 3887 0042 CC0E      		MOVA	R14, R12
 3888               	.L590:
 3889 0044 4F13      		CALLA	R15
 3890 0046 4413      		CALLA	R4
 3891 0048 8000 0000 		BRA	#.L589
 3892               	.L591:
 3893 004c 574E 0400 		MOV.B	4(R14), R7
 3894 0050 5D4E 0500 		MOV.B	5(R14), R13
 3895 0054 594E 0600 		MOV.B	6(R14), R9
 3896 0058 CC0E      		MOVA	R14, R12
 3897 005a 710D 0400 		MOVA	R13, 4(R1)
 3898 005e 4F13      		CALLA	R15
 3899 0060 4413      		CALLA	R4
 3900 0062 3D01 0400 		MOVA	4(R1), R13
 3901 0066 6C42      		MOV.B	#4, R12
 3902 0068 4C97 0028 		CMP.B	R7, R12 { JLO	.L593
 3903 006c 4018 3C40 		MOVX.W	#87, R12 { SUBX.W	R9, R12
 3903      5700 4018 
 3903      0C89 
 3904 0076 0D9C 0038 		CMP.W	R12, R13 { JL	.L594
 3905 007a 7E40 5F00 		MOV.B	#95, R14
 3906 007e 4E9D 002C 		CMP.B	R13, R14 { JHS	.L593
 3907               	.L594:
 3908 0082 4C4D      		MOV.B	R13, R12
 3909 0084 7C50 89FF 		ADD.B	#-119, R12
 3910 0088 7E42      		MOV.B	#8, R14
 3911 008a 4E9C 002C 		CMP.B	R12, R14 { JHS	.L593
 3912 008e 4018 3C40 		MOVX.W	#139, R12 { SUBX.W	R9, R12
 3912      8B00 4018 
 3912      0C89 
 3913 0098 0D9C 0038 		CMP.W	R12, R13 { JL	.L595
 3914 009c 7C40 BFFF 		MOV.B	#-65, R12
 3915 00a0 4C9D 002C 		CMP.B	R13, R12 { JHS	.L593
 3916               	.L595:
 3917 00a4 4018 3C40 		MOVX.W	#214, R12 { SUBX.W	R9, R12
 3917      D600 4018 
GAS LISTING /tmp/ccCpBAv9.s 			page 74


 3917      0C89 
 3918 00ae 0D9C 0038 		CMP.W	R12, R13 { JL	.L596
 3919               	.L593:
 3920 00b2 8146 0A00 		MOV.W	R6, 10(R1)
 3921 00b6 8148 0C00 		MOV.W	R8, 12(R1)
 3922 00ba CD01      		MOVA	R1, R13
 3923 00bc AD00 0A00 		ADDA	#10, R13
 3924 00c0 CC0A      		MOVA	R10, R12
 3925 00c2 B013 0000 		CALLA	#write_failure
 3926               	.L598:
 3927 00c6 0D48      		MOV.W	R8, R13
 3928 00c8 CC0A      		MOVA	R10, R12
 3929 00ca B013 0000 		CALLA	#elyCmdSendReply
 3930               	.L589:
 3931               		; start of epilogue
 3932 00ce A100 0E00 		ADDA	#14, R1
 3933 00d2 6416      		POPM.A	#7, r10
 3934 00d4 1001      		RETA
 3935               	.L596:
 3936 00d6 4F49      		MOV.B	R9, R15
 3937 00d8 4E4D      		MOV.B	R13, R14
 3938 00da CD0A      		MOVA	R10, R13
 3939 00dc AD00 0400 		ADDA	#4, R13
 3940 00e0 4C47      		MOV.B	R7, R12
 3941 00e2 B013 0000 		CALLA	#elyRegGetBlock
 3942 00e6 DA41 0900 		MOV.B	9(R1), @R10
 3942      0000 
 3943 00ec 2C00 0000 		MOVA	&bank0p, R12
 3944 00f0 DA4C 5100 		MOV.B	81(R12), 2(R10)
 3944      0200 
 3945 00f6 DA4C 5000 		MOV.B	80(R12), 3(R10)
 3945      0300 
 3946 00fc 4018 15B3 		BITX.W	#1, R5 { JEQ	.L597
 3946      0024 
 3947 0102 4E49      		MOV.B	R9, R14
 3948 0104 6E53      		ADD.B	#2, R14
 3949 0106 CA4E 0100 		MOV.B	R14, 1(R10)
 3950 010a 0D49      		MOV.W	R9, R13
 3951 010c 3D50 0600 		ADD.W	#6, R13
 3952 0110 4D0E 4D0D 		RLAM.A #4, R13 { RRAM.A #4, R13
 3953 0114 CC0A      		MOVA	R10, R12
 3954 0116 B013 0000 		CALLA	#crcGenX25
 3955 011a 8000 0000 		BRA	#.L598
 3956               	.L597:
 3957 011e CA49 0100 		MOV.B	R9, 1(R10)
 3958 0122 8000 0000 		BRA	#.L598
 3959               		.size	get_block, .-get_block
 3960               		.section	.text.set_regs,"ax",@progbits
 3961               		.balign 2
 3962               		.type	set_regs, @function
 3963               	set_regs:
 3964               	; start of function
 3965               	; framesize_regs:     28
 3966               	; framesize_locals:   18
 3967               	; framesize_outgoing: 0
 3968               	; framesize:          46
 3969               	; elim ap -> fp       32
GAS LISTING /tmp/ccCpBAv9.s 			page 75


 3970               	; elim fp -> sp       18
 3971               	; saved regs: R4 R5 R6 R7 R8 R9 R10
 3972               		; start of prologue
 3973 0000 6A14      		PUSHM.A	#7, R10
 3974 0002 B100 1200 		SUBA	#18, R1
 3975               		; end of prologue
 3976 0006 C40C      		MOVA	R12, R4
 3977 0008 254D      		MOV.W	@R13, R5
 3978 000a 184D 0200 		MOV.W	2(R13), R8
 3979 000e 0C45      		MOV.W	R5, R12
 3980 0010 5C0F 5C0F 		rrum.w	#4, R12 { rrum.w	#4, R12 
 3981 0014 4E45      		MOV.B	R5, R14
 3982 0016 494E      		MOV.B	R14, R9
 3983 0018 69F3      		AND.B	#2, R9
 3984 001a 39F0 FF00 		AND	#0xff, R9
 3985 001e 0993 0024 		CMP.W	#0, R9 { JEQ	.L600
 3986 0022 5744 0400 		MOV.B	4(R4), R7
 3987 0026 7D40 0500 		MOV.B	#5, R13
 3988               	.L601:
 3989 002a 4018 1EB3 		BITX.W	#1, R14 { JEQ	.L611
 3989      0024 
 3990 0030 6E43      		MOV.B	#2, R14
 3991               	.L602:
 3992 0032 0C8E      		SUB.W	R14, R12
 3993 0034 0C89      		SUB.W	R9, R12
 3994 0036 0E4C      		MOV.W	R12, R14
 3995 0038 5E03 4D18 		rrum.w	#1, R14 { rpt	#14 { rrax.w	R14
 3995      0E11 
 3996 003e 0C5E      		ADD.W	R14, R12
 3997 0040 0C11      		RRA.W	R12
 3998 0042 814C 0A00 		MOV.W	R12, 10(R1)
 3999 0046 710D 0200 		MOVA	R13, 2(R1)
 4000 004a B013 0000 		CALLA	#elyFWGetBuffer
 4001 004e CA0C      		MOVA	R12, R10
 4002 0050 3D01 0200 		MOVA	2(R1), R13
 4003 0054 9C00 0000 		CMPA	#0, R12 { JEQ	.L608
 4003      0024 
 4004 005a 1641 0A00 		MOV.W	10(R1), R6
 4005 005e 76F0 FF00 		AND.B	#255, R6
 4006 0062 0656      		ADD.W	R6, R6
 4007 0064 8146 0C00 		MOV.W	R6, 12(R1)
 4008 0068 0018 C14D 		MOVX.A	R13, 6(R1)
 4008      0600 
 4009 006e 3B01 0600 		MOVA	6(R1), R11
 4010 0072 EB0C      		ADDA	R12, R11
 4011 0074 3601 0600 		MOVA	6(R1), R6
 4012 0078 E604      		ADDA	R4, R6
 4013 007a 4D43      		MOV.B	#0, R13
 4014 007c 4C47      		MOV.B	R7, R12
 4015 007e 7C53      		ADD.B	#-1, R12
 4016 0080 C14C 0100 		MOV.B	R12, 1(R1)
 4017               	.L604:
 4018 0084 1D91 0C00 		CMP.W	12(R1), R13 { JL	.L609
 4018      0038 
 4019 008a 8600 0000 		MOVA	#elyNLFromFW, R6
 4020 008e CC04      		MOVA	R4, R12
 4021 0090 4613      		CALLA	R6
GAS LISTING /tmp/ccCpBAv9.s 			page 76


 4022 0092 B013 0000 		CALLA	#elyNLFreeBuffer
 4023 0096 3D01 0600 		MOVA	6(R1), R13
 4024 009a AD0F FFFF 		ADDA	#-1, R13
 4025 009e 1F41 0A00 		MOV.W	10(R1), R15
 4026 00a2 4E4F      		MOV.B	R15, R14
 4027 00a4 ED0A      		ADDA	R10, R13
 4028 00a6 4C47      		MOV.B	R7, R12
 4029 00a8 B013 0000 		CALLA	#elyRegSet
 4030 00ac 0993 0024 		CMP.W	#0, R9 { JEQ	.L610
 4031 00b0 8145 0E00 		MOV.W	R5, 14(R1)
 4032 00b4 8148 1000 		MOV.W	R8, 16(R1)
 4033 00b8 CD01      		MOVA	R1, R13
 4034 00ba AD00 0E00 		ADDA	#14, R13
 4035 00be CC0A      		MOVA	R10, R12
 4036 00c0 B013 0000 		CALLA	#write_success
 4037 00c4 0D48      		MOV.W	R8, R13
 4038 00c6 CC0A      		MOVA	R10, R12
 4039 00c8 B013 0000 		CALLA	#elyCmdSendReply
 4040 00cc 8000 0000 		BRA	#.L599
 4041               	.L600:
 4042 00d0 5744 0200 		MOV.B	2(R4), R7
 4043 00d4 7D40 0300 		MOV.B	#3, R13
 4044 00d8 8000 0000 		BRA	#.L601
 4045               	.L611:
 4046 00dc 4E43      		MOV.B	#0, R14
 4047 00de 8000 0000 		BRA	#.L602
 4048               	.L609:
 4049 00e2 6C46      		MOV.B	@R6, R12
 4050 00e4 7E40 0300 		MOV.B	#3, R14
 4051 00e8 5E91 0100 		CMP.B	1(R1), R14 { JLO	.L606
 4051      0028 
 4052 00ee 4E4C      		MOV.B	R12, R14
 4053 00f0 7E50 AAFF 		ADD.B	#-86, R14
 4054 00f4 7F40 2900 		MOV.B	#41, R15
 4055 00f8 4F9E 002C 		CMP.B	R14, R15 { JHS	.L606
 4056 00fc 7E50 CCFF 		ADD.B	#-52, R14
 4057 0100 7F40 3500 		MOV.B	#53, R15
 4058 0104 4F9E 002C 		CMP.B	R14, R15 { JHS	.L606
 4059 0108 A600 0200 		ADDA	#2, R6
 4060 010c 7E40 D4FF 		MOV.B	#-44, R14
 4061 0110 4E9C 002C 		CMP.B	R12, R14 { JHS	.L607
 4062               	.L606:
 4063 0114 0993 0024 		CMP.W	#0, R9 { JEQ	.L608
 4064 0118 8145 0E00 		MOV.W	R5, 14(R1)
 4065 011c 8148 1000 		MOV.W	R8, 16(R1)
 4066 0120 CD01      		MOVA	R1, R13
 4067 0122 AD00 0E00 		ADDA	#14, R13
 4068 0126 CC0A      		MOVA	R10, R12
 4069 0128 B013 0000 		CALLA	#write_failure
 4070 012c 0D48      		MOV.W	R8, R13
 4071 012e CC0A      		MOVA	R10, R12
 4072 0130 B013 0000 		CALLA	#elyCmdSendReply
 4073               	.L608:
 4074 0134 CC04      		MOVA	R4, R12
 4075 0136 B013 0000 		CALLA	#elyNLFromFW
 4076 013a B013 0000 		CALLA	#elyNLFreeBuffer
 4077               	.L599:
GAS LISTING /tmp/ccCpBAv9.s 			page 77


 4078               		; start of epilogue
 4079 013e A100 1200 		ADDA	#18, R1
 4080 0142 6416      		POPM.A	#7, r10
 4081 0144 1001      		RETA
 4082               	.L607:
 4083 0146 CB4C FFFF 		MOV.B	R12, -1(R11)
 4084 014a DB46 FFFF 		MOV.B	-1(R6), @R11
 4084      0000 
 4085 0150 2D53      		ADD.W	#2, R13
 4086 0152 AB00 0200 		ADDA	#2, R11
 4087 0156 8000 0000 		BRA	#.L604
 4088               	.L610:
 4089 015a CC0A      		MOVA	R10, R12
 4090 015c 4613      		CALLA	R6
 4091 015e B013 0000 		CALLA	#elyFWFreeBuffer
 4092 0162 8000 0000 		BRA	#.L599
 4093               		.size	set_regs, .-set_regs
 4094               		.section	.text.get_regs,"ax",@progbits
 4095               		.balign 2
 4096               		.type	get_regs, @function
 4097               	get_regs:
 4098               	; start of function
 4099               	; framesize_regs:     28
 4100               	; framesize_locals:   14
 4101               	; framesize_outgoing: 0
 4102               	; framesize:          42
 4103               	; elim ap -> fp       32
 4104               	; elim fp -> sp       14
 4105               	; saved regs: R4 R5 R6 R7 R8 R9 R10
 4106               		; start of prologue
 4107 0000 6A14      		PUSHM.A	#7, R10
 4108 0002 B100 0E00 		SUBA	#14, R1
 4109               		; end of prologue
 4110 0006 C40C      		MOVA	R12, R4
 4111 0008 294D      		MOV.W	@R13, R9
 4112 000a 174D 0200 		MOV.W	2(R13), R7
 4113 000e 0D49      		MOV.W	R9, R13
 4114 0010 5D07      		rrum.w	#2, R13
 4115 0012 7DF0 3F00 		AND.B	#63, R13
 4116 0016 C14D 0900 		MOV.B	R13, 9(R1)
 4117 001a 0549      		MOV.W	R9, R5
 4118 001c 550F 550F 		rrum.w	#4, R5 { rrum.w	#4, R5 
 4119 0020 4849      		MOV.B	R9, R8
 4120 0022 4018 28B3 		BITX.W	#2, R8 { JEQ	.L616
 4120      0024 
 4121 0028 B013 0000 		CALLA	#elyFWGetBuffer
 4122 002c CA0C      		MOVA	R12, R10
 4123 002e 9C00 0000 		CMPA	#0, R12 { JNE	.L617
 4123      0020 
 4124               	.L627:
 4125 0034 CC04      		MOVA	R4, R12
 4126               	.L616:
 4127 0036 B013 0000 		CALLA	#elyNLFromFW
 4128 003a B013 0000 		CALLA	#elyNLFreeBuffer
 4129 003e 8000 0000 		BRA	#.L615
 4130               	.L617:
 4131 0042 5F44 0400 		MOV.B	4(R4), R15
GAS LISTING /tmp/ccCpBAv9.s 			page 78


 4132 0046 814F 0000 		MOV.W	R15, @R1
 4133 004a 58F3      		AND.B	#1, R8
 4134 004c 0893 0024 		CMP.W	#0, R8 { JEQ	.L626
 4135 0050 6C43      		MOV.B	#2, R12
 4136               	.L619:
 4137 0052 458C      		SUB.B	R12, R5
 4138 0054 C145 0800 		MOV.B	R5, 8(R1)
 4139 0058 4645      		MOV.B	R5, R6
 4140 005a 7650 FDFF 		ADD.B	#-3, R6
 4141 005e 4546      		MOV.B	R6, R5
 4142 0060 8145 0200 		MOV.W	R5, 2(R1)
 4143 0064 CF0A      		MOVA	R10, R15
 4144 0066 AF00 0400 		ADDA	#4, R15
 4145 006a 710F 0400 		MOVA	R15, 4(R1)
 4146 006e CB0F      		MOVA	R15, R11
 4147 0070 CE04      		MOVA	R4, R14
 4148 0072 AE00 0500 		ADDA	#5, R14
 4149 0076 4D43      		MOV.B	#0, R13
 4150               	.L620:
 4151 0078 1D91 0200 		CMP.W	2(R1), R13 { JL	.L623
 4151      0038 
 4152 007e CC04      		MOVA	R4, R12
 4153 0080 B013 0000 		CALLA	#elyNLFromFW
 4154 0084 B013 0000 		CALLA	#elyNLFreeBuffer
 4155 0088 DA41 0900 		MOV.B	9(R1), @R10
 4155      0000 
 4156 008e 2C00 0000 		MOVA	&bank0p, R12
 4157 0092 DA4C 5100 		MOV.B	81(R12), 2(R10)
 4157      0200 
 4158 0098 DA4C 5000 		MOV.B	80(R12), 3(R10)
 4158      0300 
 4159 009e 4E46      		MOV.B	R6, R14
 4160 00a0 3D01 0400 		MOVA	4(R1), R13
 4161 00a4 2541      		MOV.W	@R1, R5
 4162 00a6 4C45      		MOV.B	R5, R12
 4163 00a8 B013 0000 		CALLA	#elyRegGet
 4164 00ac 0893 0024 		CMP.W	#0, R8 { JEQ	.L624
 4165 00b0 5F41 0800 		MOV.B	8(R1), R15
 4166 00b4 7F53      		ADD.B	#-1, R15
 4167 00b6 CA4F 0100 		MOV.B	R15, 1(R10)
 4168 00ba 1D41 0200 		MOV.W	2(R1), R13
 4169 00be 3D50 0600 		ADD.W	#6, R13
 4170 00c2 4D0E 4D0D 		RLAM.A #4, R13 { RRAM.A #4, R13
 4171 00c6 CC0A      		MOVA	R10, R12
 4172 00c8 B013 0000 		CALLA	#crcGenX25
 4173               	.L625:
 4174 00cc 0D47      		MOV.W	R7, R13
 4175 00ce CC0A      		MOVA	R10, R12
 4176 00d0 B013 0000 		CALLA	#elyCmdSendReply
 4177               	.L615:
 4178               		; start of epilogue
 4179 00d4 A100 0E00 		ADDA	#14, R1
 4180 00d8 6416      		POPM.A	#7, r10
 4181 00da 1001      		RETA
 4182               	.L626:
 4183 00dc 0C48      		MOV.W	R8, R12
 4184 00de 8000 0000 		BRA	#.L619
GAS LISTING /tmp/ccCpBAv9.s 			page 79


 4185               	.L623:
 4186 00e2 6C4E      		MOV.B	@R14, R12
 4187 00e4 2541      		MOV.W	@R1, R5
 4188 00e6 6F42      		MOV.B	#4, R15
 4189 00e8 4F95 0028 		CMP.B	R5, R15 { JLO	.L621
 4190 00ec 4F4C      		MOV.B	R12, R15
 4191 00ee 7F50 AAFF 		ADD.B	#-86, R15
 4192 00f2 7540 0900 		MOV.B	#9, R5
 4193 00f6 459F 002C 		CMP.B	R15, R5 { JHS	.L621
 4194 00fa 7F50 DFFF 		ADD.B	#-33, R15
 4195 00fe 7542      		MOV.B	#8, R5
 4196 0100 459F 002C 		CMP.B	R15, R5 { JHS	.L621
 4197 0104 7F50 EDFF 		ADD.B	#-19, R15
 4198 0108 7540 3500 		MOV.B	#53, R5
 4199 010c 459F 002C 		CMP.B	R15, R5 { JHS	.L621
 4200 0110 AE00 0100 		ADDA	#1, R14
 4201 0114 7F40 D4FF 		MOV.B	#-44, R15
 4202 0118 4F9C 002C 		CMP.B	R12, R15 { JHS	.L622
 4203               	.L621:
 4204 011c 8149 0A00 		MOV.W	R9, 10(R1)
 4205 0120 8147 0C00 		MOV.W	R7, 12(R1)
 4206 0124 CD01      		MOVA	R1, R13
 4207 0126 AD00 0A00 		ADDA	#10, R13
 4208 012a CC0A      		MOVA	R10, R12
 4209 012c B013 0000 		CALLA	#write_failure
 4210 0130 0D47      		MOV.W	R7, R13
 4211 0132 CC0A      		MOVA	R10, R12
 4212 0134 B013 0000 		CALLA	#elyCmdSendReply
 4213 0138 8000 0000 		BRA	#.L627
 4214               	.L622:
 4215 013c CB4C 0000 		MOV.B	R12, @R11
 4216 0140 1D53      		ADD.W	#1, R13
 4217 0142 AB00 0100 		ADDA	#1, R11
 4218 0146 8000 0000 		BRA	#.L620
 4219               	.L624:
 4220 014a CA46 0100 		MOV.B	R6, 1(R10)
 4221 014e 8000 0000 		BRA	#.L625
 4222               		.size	get_regs, .-get_regs
 4223               		.section	.text.get_active_bank,"ax",@progbits
 4224               		.balign 2
 4225               		.type	get_active_bank, @function
 4226               	get_active_bank:
 4227               	; start of function
 4228               	; framesize_regs:     20
 4229               	; framesize_locals:   0
 4230               	; framesize_outgoing: 0
 4231               	; framesize:          20
 4232               	; elim ap -> fp       24
 4233               	; elim fp -> sp       0
 4234               	; saved regs: R6 R7 R8 R9 R10
 4235               		; start of prologue
 4236 0000 4A14      		PUSHM.A	#5, R10
 4237               		; end of prologue
 4238 0002 294D      		MOV.W	@R13, R9
 4239 0004 174D 0200 		MOV.W	2(R13), R7
 4240 0008 4849      		MOV.B	R9, R8
 4241 000a 58F3      		AND.B	#1, R8
GAS LISTING /tmp/ccCpBAv9.s 			page 80


 4242 000c 0649      		MOV.W	R9, R6
 4243 000e 5607      		rrum.w	#2, R6
 4244 0010 76F0 3F00 		AND.B	#63, R6
 4245 0014 B013 0000 		CALLA	#elyNLFromFW
 4246 0018 B013 0000 		CALLA	#elyNLFreeBuffer
 4247 001c 39F0 FF00 		AND	#0xff, R9
 4248 0020 4018 29B3 		BITX.W	#2, R9 { JEQ	.L628
 4248      0024 
 4249 0026 B013 0000 		CALLA	#elyFWGetBuffer
 4250 002a CA0C      		MOVA	R12, R10
 4251 002c 9C00 0000 		CMPA	#0, R12 { JEQ	.L628
 4251      0024 
 4252 0032 CC46 0000 		MOV.B	R6, @R12
 4253 0036 4858      		ADD.B	R8, R8
 4254 0038 5853      		ADD.B	#1, R8
 4255 003a CC48 0100 		MOV.B	R8, 1(R12)
 4256 003e 2E00 0000 		MOVA	&bank0p, R14
 4257 0042 DC4E 5100 		MOV.B	81(R14), 2(R12)
 4257      0200 
 4258 0048 DC4E 5000 		MOV.B	80(R14), 3(R12)
 4258      0300 
 4259 004e DC4E 6900 		MOV.B	105(R14), 4(R12)
 4259      0400 
 4260 0054 4018 19B3 		BITX.W	#1, R9 { JEQ	.L632
 4260      0024 
 4261 005a 7D40 0700 		MOV.B	#7, R13
 4262 005e B013 0000 		CALLA	#crcGenX25
 4263               	.L632:
 4264 0062 0D47      		MOV.W	R7, R13
 4265 0064 CC0A      		MOVA	R10, R12
 4266 0066 B013 0000 		CALLA	#elyCmdSendReply
 4267               	.L628:
 4268               		; start of epilogue
 4269 006a 4616      		POPM.A	#5, r10
 4270 006c 1001      		RETA
 4271               		.size	get_active_bank, .-get_active_bank
 4272               		.section	.text.get_gpo,"ax",@progbits
 4273               		.balign 2
 4274               		.type	get_gpo, @function
 4275               	get_gpo:
 4276               	; start of function
 4277               	; framesize_regs:     20
 4278               	; framesize_locals:   0
 4279               	; framesize_outgoing: 0
 4280               	; framesize:          20
 4281               	; elim ap -> fp       24
 4282               	; elim fp -> sp       0
 4283               	; saved regs: R6 R7 R8 R9 R10
 4284               		; start of prologue
 4285 0000 4A14      		PUSHM.A	#5, R10
 4286               		; end of prologue
 4287 0002 294D      		MOV.W	@R13, R9
 4288 0004 174D 0200 		MOV.W	2(R13), R7
 4289 0008 4849      		MOV.B	R9, R8
 4290 000a 58F3      		AND.B	#1, R8
 4291 000c 0649      		MOV.W	R9, R6
 4292 000e 5607      		rrum.w	#2, R6
GAS LISTING /tmp/ccCpBAv9.s 			page 81


 4293 0010 76F0 3F00 		AND.B	#63, R6
 4294 0014 B013 0000 		CALLA	#elyNLFromFW
 4295 0018 B013 0000 		CALLA	#elyNLFreeBuffer
 4296 001c 39F0 FF00 		AND	#0xff, R9
 4297 0020 4018 29B3 		BITX.W	#2, R9 { JEQ	.L639
 4297      0024 
 4298 0026 B013 0000 		CALLA	#elyFWGetBuffer
 4299 002a CA0C      		MOVA	R12, R10
 4300 002c 9C00 0000 		CMPA	#0, R12 { JEQ	.L639
 4300      0024 
 4301 0032 CC46 0000 		MOV.B	R6, @R12
 4302 0036 4858      		ADD.B	R8, R8
 4303 0038 5853      		ADD.B	#1, R8
 4304 003a CC48 0100 		MOV.B	R8, 1(R12)
 4305 003e 2E00 0000 		MOVA	&bank0p, R14
 4306 0042 DC4E 5100 		MOV.B	81(R14), 2(R12)
 4306      0200 
 4307 0048 DC4E 5000 		MOV.B	80(R14), 3(R12)
 4307      0300 
 4308 004e DC4E 6100 		MOV.B	97(R14), 4(R12)
 4308      0400 
 4309 0054 4018 19B3 		BITX.W	#1, R9 { JEQ	.L643
 4309      0024 
 4310 005a 7D40 0700 		MOV.B	#7, R13
 4311 005e B013 0000 		CALLA	#crcGenX25
 4312               	.L643:
 4313 0062 0D47      		MOV.W	R7, R13
 4314 0064 CC0A      		MOVA	R10, R12
 4315 0066 B013 0000 		CALLA	#elyCmdSendReply
 4316               	.L639:
 4317               		; start of epilogue
 4318 006a 4616      		POPM.A	#5, r10
 4319 006c 1001      		RETA
 4320               		.size	get_gpo, .-get_gpo
 4321               		.section	.text.CmdThd,"ax",@progbits
 4322               		.balign 2
 4323               		.global	CmdThd
 4324               		.type	CmdThd, @function
 4325               	CmdThd:
 4326               	; start of function
 4327               	; framesize_regs:     20
 4328               	; framesize_locals:   4
 4329               	; framesize_outgoing: 0
 4330               	; framesize:          24
 4331               	; elim ap -> fp       24
 4332               	; elim fp -> sp       4
 4333               	; saved regs: R4 R5 R6 R8 R10
 4334               		; start of prologue
 4335 0000 0A14      		PUSHM.A	#1, R10
 4336 0002 0814      		PUSHM.A	#1, R8
 4337 0004 2614      		PUSHM.A	#3, R6
 4338 0006 B100 0400 		SUBA	#4, R1
 4339               		; end of prologue
 4340 000a 8800 0000 		MOVA	#chMBFetch, R8
 4341 000e 8A00 0000 		MOVA	#elyNLToFW, R10
 4342               	.L654:
 4343 0012 0018 C293 		CMPX.A	#0, &active_buffer { JNE	.L651
GAS LISTING /tmp/ccCpBAv9.s 			page 82


 4343      0000 0020 
 4344 001a 4E43      		MOV.B	#0, R14
 4345 001c 8D00 0000 		MOVA	#active_buffer, R13
 4346 0020 8C00 0000 		MOVA	#main_mbox, R12
 4347 0024 4813      		CALLA	R8
 4348               	.L651:
 4349 0026 2C00 0000 		MOVA	&active_buffer, R12
 4350 002a 4A13      		CALLA	R10
 4351 002c C60C      		MOVA	R12, R6
 4352 002e CD0C      		MOVA	R12, R13
 4353 0030 CC01      		MOVA	R1, R12
 4354 0032 B013 0000 		CALLA	#elyCmdParse
 4355 0036 2441      		MOV.W	@R1, R4
 4356 0038 1541 0200 		MOV.W	2(R1), R5
 4357 003c CD06      		MOVA	R6, R13
 4358 003e CC01      		MOVA	R1, R12
 4359 0040 B013 0000 		CALLA	#elyCmdValidate
 4360 0044 4C93 0024 		CMP.B	#0, R12 { JEQ	.L652
 4361 0048 8144 0000 		MOV.W	R4, @R1
 4362 004c 8145 0200 		MOV.W	R5, 2(R1)
 4363 0050 CD06      		MOVA	R6, R13
 4364 0052 CC01      		MOVA	R1, R12
 4365 0054 B013 0000 		CALLA	#elyCmdDispatch
 4366               	.L653:
 4367 0058 0018 C243 		MOVX.A	#0, &active_buffer
 4367      0000 
 4368 005e 8000 0000 		BRA	#.L654
 4369               	.L652:
 4370 0062 2C00 0000 		MOVA	&active_buffer, R12
 4371 0066 B013 0000 		CALLA	#elyNLFreeBuffer
 4372 006a 8000 0000 		BRA	#.L653
 4373               		.size	CmdThd, .-CmdThd
 4374               		.section	.upper.rodata,"a",@progbits
 4375               		.type	__func__.5636, @object
 4376               		.size	__func__.5636, 17
 4377               	__func__.5636:
 4378 0000 656C 7943 		.string	"elyCmdSendReplyI"
 4378      6D64 5365 
 4378      6E64 5265 
 4378      706C 7949 
 4378      00
 4379               		.local	fill_value.5522
 4380               		.comm	fill_value.5522,1,1
 4381               		.type	__func__.5620, @object
 4382               		.size	__func__.5620, 15
 4383               	__func__.5620:
 4384 0011 656C 7943 		.string	"elyCmdValidate"
 4384      6D64 5661 
 4384      6C69 6461 
 4384      7465 00
 4385               		.global	waCmdThd
 4386               		.section	.upper.bss,"aw",@nobits
 4387               		.balign 2
 4388               		.type	waCmdThd, @object
 4389               		.size	waCmdThd, 320
 4390               	waCmdThd:
 4391 0000 0000 0000 		.zero	320
GAS LISTING /tmp/ccCpBAv9.s 			page 83


 4391      0000 0000 
 4391      0000 0000 
 4391      0000 0000 
 4391      0000 0000 
 4392               		.section	.upper.rodata
 4393               		.balign 2
 4394               		.type	handlers, @object
 4395               		.size	handlers, 192
 4396               	handlers:
 4397 0020 0000 0000 		.long	reset
 4398 0024 0000 0000 		.long	get_gpo
 4399 0028 0000 0000 		.long	set_gpo
 4400 002c 0000 0000 		.long	get_active_bank
 4401 0030 0000 0000 		.long	get_regs
 4402 0034 0000 0000 		.long	set_regs
 4403 0038 0000 0000 		.long	get_block
 4404 003c 0000 0000 		.long	set_block
 4405 0040 0000 0000 		.long	get_tx_freq
 4406 0044 0000 0000 		.long	set_tx_freq
 4407 0048 0000 0000 		.long	get_rx_freq
 4408 004c 0000 0000 		.long	set_rx_freq
 4409 0050 0000 0000 		.long	get_tx_br
 4410 0054 0000 0000 		.long	set_tx_br
 4411 0058 0000 0000 		.long	get_rx_br
 4412 005c 0000 0000 		.long	set_rx_br
 4413 0060 0000 0000 		.long	get_tx_dev
 4414 0064 0000 0000 		.long	set_tx_dev
 4415 0068 0000 0000 		.long	get_rx_dev
 4416 006c 0000 0000 		.long	set_rx_dev
 4417 0070 0000 0000 		.long	get_tx_pow
 4418 0074 0000 0000 		.long	set_tx_pow
 4419 0078 0000 0000 		.long	get_baud
 4420 007c 0000 0000 		.long	set_baud
 4421 0080 0000 0000 		.long	reload_config
 4422 0084 0000 0000 		.long	channel_sub
 4423 0088 0000 0000 		.long	channel_unsub
 4424 008c 0000 0000 		.long	log_chan
 4425 0090 0000 0000 		.long	unlog_chan
 4426 0094 0000 0000 		.long	get_chan
 4427 0098 0000 0000 		.long	reset_chan
 4428 009c 0000 0000 		.long	event_sub
 4429 00a0 0000 0000 		.long	event_unsub
 4430 00a4 0000 0000 		.long	log_event
 4431 00a8 0000 0000 		.long	unlog_event
 4432 00ac 0000 0000 		.long	reset_event
 4433 00b0 0000 0000 		.long	set_time
 4434 00b4 0000 0000 		.long	get_time
 4435 00b8 0000 0000 		.long	get_err
 4436 00bc 0000 0000 		.long	set_err
 4437 00c0 0000 0000 		.long	get_log
 4438 00c4 0000 0000 		.long	set_log
 4439 00c8 0000 0000 		.long	upload_fw
 4440 00cc 0000 0000 		.long	verify_fw
 4441 00d0 0000 0000 		.long	cancel_fw
 4442 00d4 0000 0000 		.long	install_fw
 4443 00d8 0000 0000 		.long	store_telem
 4444 00dc 0000 0000 		.long	get_telem
GAS LISTING /tmp/ccCpBAv9.s 			page 84


 4445               		.local	cancel_sem
 4446               		.comm	cancel_sem,2,2
 4447               		.local	verify_crc
 4448               		.comm	verify_crc,2,2
 4449               		.local	telem_stored_hdr
 4450               		.comm	telem_stored_hdr,4,2
 4451               		.local	verify_stored_hdr
 4452               		.comm	verify_stored_hdr,4,2
 4453               		.local	stored_hdr
 4454               		.comm	stored_hdr,4,2
 4455               		.local	active_buffer
 4456               		.comm	active_buffer,4,2
 4457               		.section	.upper.data,"aw",@progbits
 4458               		.balign 2
 4459               		.type	main_mbox, @object
 4460               		.size	main_mbox, 20
 4461               	main_mbox:
 4462 0000 0000 0000 		.long	main_buffer
 4463 0004 0000 0000 		.long	main_buffer+48
 4464 0008 0000 0000 		.long	main_buffer
 4465 000c 0000 0000 		.long	main_buffer
 4466 0010 0000      		.short	0
 4467 0012 0C00      		.short	12
 4468               		.local	main_buffer
 4469               		.comm	main_buffer,48,2
 4470               		.ident	"GCC: (SOMNIUM Technologies Limited - msp430-gcc 6.2.1.16) 6.2.1 20161212"
GAS LISTING /tmp/ccCpBAv9.s 			page 85


DEFINED SYMBOLS
                            *ABS*:0000000000000000 cmds.c
     /tmp/ccCpBAv9.s:5      .text.port_lock:0000000000000000 port_lock
     /tmp/ccCpBAv9.s:28     .text.port_unlock:0000000000000000 port_unlock
     /tmp/ccCpBAv9.s:51     .text.reset:0000000000000000 reset
     /tmp/ccCpBAv9.s:4456   .bss:0000000000000012 active_buffer
     /tmp/ccCpBAv9.s:72     .text.write_failure:0000000000000000 write_failure
     /tmp/ccCpBAv9.s:109    .text.store_telem:0000000000000000 store_telem
     /tmp/ccCpBAv9.s:4450   .bss:0000000000000006 telem_stored_hdr
     /tmp/ccCpBAv9.s:757    .text.store_telem_reply_cb:0000000000000000 store_telem_reply_cb
     /tmp/ccCpBAv9.s:193    .text.store_telem_noreply_cb:0000000000000000 store_telem_noreply_cb
     /tmp/ccCpBAv9.s:212    .text.upload_fw_noreply_cb:0000000000000000 upload_fw_noreply_cb
     /tmp/ccCpBAv9.s:230    .text.verify_fw:0000000000000000 verify_fw
     /tmp/ccCpBAv9.s:4448   .bss:0000000000000004 verify_crc
     /tmp/ccCpBAv9.s:4452   .bss:000000000000000a verify_stored_hdr
     /tmp/ccCpBAv9.s:785    .text.verify_fw_cb:0000000000000000 verify_fw_cb
     /tmp/ccCpBAv9.s:300    .text.write_success:0000000000000000 write_success
     /tmp/ccCpBAv9.s:336    .text.cancel_fw_eeprom_cb:0000000000000000 cancel_fw_eeprom_cb
     /tmp/ccCpBAv9.s:4446   .bss:0000000000000002 cancel_sem
     /tmp/ccCpBAv9.s:360    .text.elyMainMBPost:0000000000000000 elyMainMBPost
     /tmp/ccCpBAv9.s:4461   .upper.data:0000000000000000 main_mbox
     /tmp/ccCpBAv9.s:382    .text.elyMainMBPostS:0000000000000000 elyMainMBPostS
     /tmp/ccCpBAv9.s:404    .text.elyMainMBPostI:0000000000000000 elyMainMBPostI
     /tmp/ccCpBAv9.s:425    .text.elyCmdParse:0000000000000000 elyCmdParse
     /tmp/ccCpBAv9.s:472    .text.elyCmdValidate:0000000000000000 elyCmdValidate
     /tmp/ccCpBAv9.s:4383   .upper.rodata:0000000000000011 __func__.5620
     /tmp/ccCpBAv9.s:668    .text.elyCmdDispatch:0000000000000000 elyCmdDispatch
     /tmp/ccCpBAv9.s:4396   .upper.rodata:0000000000000020 handlers
     /tmp/ccCpBAv9.s:708    .text.elyCmdSendReplyI:0000000000000000 elyCmdSendReplyI
     /tmp/ccCpBAv9.s:4377   .upper.rodata:0000000000000000 __func__.5636
     /tmp/ccCpBAv9.s:4454   .bss:000000000000000e stored_hdr
     /tmp/ccCpBAv9.s:824    .text.upload_fw_reply_cb:0000000000000000 upload_fw_reply_cb
     /tmp/ccCpBAv9.s:853    .text.elyCmdSendReply:0000000000000000 elyCmdSendReply
     /tmp/ccCpBAv9.s:879    .text.gen_success:0000000000000000 gen_success
     /tmp/ccCpBAv9.s:913    .text.get_telem:0000000000000000 get_telem
     /tmp/ccCpBAv9.s:1060   .text.install_fw:0000000000000000 install_fw
     /tmp/ccCpBAv9.s:1104   .text.cancel_fw:0000000000000000 cancel_fw
                             .bss:0000000000000000 fill_value.5522
     /tmp/ccCpBAv9.s:1172   .text.reset_event:0000000000000000 reset_event
     /tmp/ccCpBAv9.s:1207   .text.reset_chan:0000000000000000 reset_chan
     /tmp/ccCpBAv9.s:1242   .text.gen_failure:0000000000000000 gen_failure
     /tmp/ccCpBAv9.s:1276   .text.upload_fw:0000000000000000 upload_fw
     /tmp/ccCpBAv9.s:1422   .text.set_log:0000000000000000 set_log
     /tmp/ccCpBAv9.s:1484   .text.set_err:0000000000000000 set_err
     /tmp/ccCpBAv9.s:1546   .text.unlog_event:0000000000000000 unlog_event
     /tmp/ccCpBAv9.s:1631   .text.log_event:0000000000000000 log_event
     /tmp/ccCpBAv9.s:1730   .text.event_unsub:0000000000000000 event_unsub
     /tmp/ccCpBAv9.s:1815   .text.event_sub:0000000000000000 event_sub
     /tmp/ccCpBAv9.s:1926   .text.unlog_chan:0000000000000000 unlog_chan
     /tmp/ccCpBAv9.s:2017   .text.log_chan:0000000000000000 log_chan
     /tmp/ccCpBAv9.s:2167   .text.channel_unsub:0000000000000000 channel_unsub
     /tmp/ccCpBAv9.s:2247   .text.channel_sub:0000000000000000 channel_sub
     /tmp/ccCpBAv9.s:2397   .text.reload_config:0000000000000000 reload_config
     /tmp/ccCpBAv9.s:2472   .text.set_u32:0000000000000000 set_u32
     /tmp/ccCpBAv9.s:2567   .text.set_baud:0000000000000000 set_baud
     /tmp/ccCpBAv9.s:2604   .text.set_rx_dev:0000000000000000 set_rx_dev
     /tmp/ccCpBAv9.s:2645   .text.set_tx_dev:0000000000000000 set_tx_dev
GAS LISTING /tmp/ccCpBAv9.s 			page 86


     /tmp/ccCpBAv9.s:2686   .text.set_rx_br:0000000000000000 set_rx_br
     /tmp/ccCpBAv9.s:2727   .text.set_tx_br:0000000000000000 set_tx_br
     /tmp/ccCpBAv9.s:2768   .text.set_rx_freq:0000000000000000 set_rx_freq
     /tmp/ccCpBAv9.s:2809   .text.set_tx_freq:0000000000000000 set_tx_freq
     /tmp/ccCpBAv9.s:2850   .text.set_tx_pow:0000000000000000 set_tx_pow
     /tmp/ccCpBAv9.s:2915   .text.set_gpo:0000000000000000 set_gpo
     /tmp/ccCpBAv9.s:2984   .text.get_log:0000000000000000 get_log
     /tmp/ccCpBAv9.s:3040   .text.get_err:0000000000000000 get_err
     /tmp/ccCpBAv9.s:3093   .text.get_time:0000000000000000 get_time
     /tmp/ccCpBAv9.s:3153   .text.set_time:0000000000000000 set_time
     /tmp/ccCpBAv9.s:3218   .text.get_chan:0000000000000000 get_chan
     /tmp/ccCpBAv9.s:3304   .text.get_u32:0000000000000000 get_u32
     /tmp/ccCpBAv9.s:3431   .text.get_baud:0000000000000000 get_baud
     /tmp/ccCpBAv9.s:3466   .text.get_rx_dev:0000000000000000 get_rx_dev
     /tmp/ccCpBAv9.s:3501   .text.get_tx_dev:0000000000000000 get_tx_dev
     /tmp/ccCpBAv9.s:3536   .text.get_rx_br:0000000000000000 get_rx_br
     /tmp/ccCpBAv9.s:3571   .text.get_tx_br:0000000000000000 get_tx_br
     /tmp/ccCpBAv9.s:3606   .text.get_rx_freq:0000000000000000 get_rx_freq
     /tmp/ccCpBAv9.s:3641   .text.get_tx_freq:0000000000000000 get_tx_freq
     /tmp/ccCpBAv9.s:3676   .text.get_tx_pow:0000000000000000 get_tx_pow
     /tmp/ccCpBAv9.s:3726   .text.set_block:0000000000000000 set_block
     /tmp/ccCpBAv9.s:3857   .text.get_block:0000000000000000 get_block
     /tmp/ccCpBAv9.s:3963   .text.set_regs:0000000000000000 set_regs
     /tmp/ccCpBAv9.s:4097   .text.get_regs:0000000000000000 get_regs
     /tmp/ccCpBAv9.s:4226   .text.get_active_bank:0000000000000000 get_active_bank
     /tmp/ccCpBAv9.s:4275   .text.get_gpo:0000000000000000 get_gpo
     /tmp/ccCpBAv9.s:4325   .text.CmdThd:0000000000000000 CmdThd
     /tmp/ccCpBAv9.s:4390   .upper.bss:0000000000000000 waCmdThd
     /tmp/ccCpBAv9.s:4469   .bss:0000000000000016 main_buffer
     /tmp/ccCpBAv9.s:102    .text.write_failure:0000000000000038 .L7
     /tmp/ccCpBAv9.s:99     .text.write_failure:0000000000000036 .L4
     /tmp/ccCpBAv9.s:91     .text.write_failure:0000000000000016 .L5
     /tmp/ccCpBAv9.s:151    .text.store_telem:0000000000000050 .L17
     /tmp/ccCpBAv9.s:154    .text.store_telem:0000000000000056 .L18
     /tmp/ccCpBAv9.s:157    .text.store_telem:000000000000005c .L14
     /tmp/ccCpBAv9.s:133    .text.store_telem:0000000000000024 .L12
     /tmp/ccCpBAv9.s:136    .text.store_telem:000000000000002c .L13
     /tmp/ccCpBAv9.s:186    .text.store_telem:00000000000000c0 .L19
     /tmp/ccCpBAv9.s:146    .text.store_telem:0000000000000048 .L11
     /tmp/ccCpBAv9.s:181    .text.store_telem:00000000000000b2 .L16
     /tmp/ccCpBAv9.s:292    .text.verify_fw:00000000000000ac .L23
     /tmp/ccCpBAv9.s:286    .text.verify_fw:00000000000000a2 .L22
     /tmp/ccCpBAv9.s:329    .text.write_success:000000000000003c .L26
     /tmp/ccCpBAv9.s:325    .text.write_success:0000000000000038 .L25
     /tmp/ccCpBAv9.s:352    .text.cancel_fw_eeprom_cb:0000000000000014 .L28
     /tmp/ccCpBAv9.s:452    .text.elyCmdParse:0000000000000030 .L34
     /tmp/ccCpBAv9.s:499    .text.elyCmdValidate:000000000000002a .L39
     /tmp/ccCpBAv9.s:531    .text.elyCmdValidate:0000000000000092 .L40
     /tmp/ccCpBAv9.s:507    .text.elyCmdValidate:000000000000004a .L41
     /tmp/ccCpBAv9.s:496    .text.elyCmdValidate:0000000000000024 .L70
     /tmp/ccCpBAv9.s:536    .text.elyCmdValidate:0000000000000098 .L71
     /tmp/ccCpBAv9.s:564    .text.elyCmdValidate:00000000000000fe .L44
     /tmp/ccCpBAv9.s:584    .text.elyCmdValidate:0000000000000148 .L45
     /tmp/ccCpBAv9.s:555    .text.elyCmdValidate:00000000000000d6 .L46
     /tmp/ccCpBAv9.s:635    .text.elyCmdValidate:0000000000000218 .L47
     /tmp/ccCpBAv9.s:539    .text.elyCmdValidate:000000000000009e .L48
     /tmp/ccCpBAv9.s:566    .text.elyCmdValidate:0000000000000102 .L67
GAS LISTING /tmp/ccCpBAv9.s 			page 87


     /tmp/ccCpBAv9.s:652    .text.elyCmdValidate:0000000000000248 .L68
     /tmp/ccCpBAv9.s:511    .text.elyCmdValidate:0000000000000052 .L42
     /tmp/ccCpBAv9.s:647    .text.elyCmdValidate:0000000000000238 .L50
     /tmp/ccCpBAv9.s:549    .text.elyCmdValidate:00000000000000c4 .L51
     /tmp/ccCpBAv9.s:640    .text.elyCmdValidate:0000000000000224 .L52
     /tmp/ccCpBAv9.s:632    .text.elyCmdValidate:000000000000020e .L53
     /tmp/ccCpBAv9.s:527    .text.elyCmdValidate:000000000000008c .L66
     /tmp/ccCpBAv9.s:545    .text.elyCmdValidate:00000000000000b8 .L43
     /tmp/ccCpBAv9.s:573    .text.elyCmdValidate:000000000000011a .L55
     /tmp/ccCpBAv9.s:552    .text.elyCmdValidate:00000000000000ce .L179
     /tmp/ccCpBAv9.s:569    .text.elyCmdValidate:000000000000010a .L56
     /tmp/ccCpBAv9.s:494    .text.elyCmdValidate:0000000000000020 .L182
     /tmp/ccCpBAv9.s:580    .text.elyCmdValidate:0000000000000138 .L57
     /tmp/ccCpBAv9.s:525    .text.elyCmdValidate:0000000000000088 .L49
     /tmp/ccCpBAv9.s:611    .text.elyCmdValidate:00000000000001b8 .L58
     /tmp/ccCpBAv9.s:604    .text.elyCmdValidate:000000000000019a .L59
     /tmp/ccCpBAv9.s:600    .text.elyCmdValidate:000000000000018e .L60
     /tmp/ccCpBAv9.s:597    .text.elyCmdValidate:0000000000000182 .L61
     /tmp/ccCpBAv9.s:637    .text.elyCmdValidate:000000000000021c .L181
     /tmp/ccCpBAv9.s:620    .text.elyCmdValidate:00000000000001e2 .L62
     /tmp/ccCpBAv9.s:626    .text.elyCmdValidate:00000000000001f8 .L63
     /tmp/ccCpBAv9.s:529    .text.elyCmdValidate:0000000000000090 .L69
     /tmp/ccCpBAv9.s:745    .text.elyCmdSendReplyI:0000000000000046 .L186
     /tmp/ccCpBAv9.s:749    .text.elyCmdSendReplyI:0000000000000050 .L194
     /tmp/ccCpBAv9.s:741    .text.elyCmdSendReplyI:0000000000000042 .L184
     /tmp/ccCpBAv9.s:735    .text.elyCmdSendReplyI:000000000000002e .L197
     /tmp/ccCpBAv9.s:812    .text.verify_fw_cb:0000000000000036 .L199
     /tmp/ccCpBAv9.s:817    .text.verify_fw_cb:000000000000003c .L201
     /tmp/ccCpBAv9.s:808    .text.verify_fw_cb:000000000000002e .L205
     /tmp/ccCpBAv9.s:904    .text.gen_success:000000000000002e .L208
     /tmp/ccCpBAv9.s:980    .text.get_telem:00000000000000a8 .L223
     /tmp/ccCpBAv9.s:983    .text.get_telem:00000000000000ae .L224
     /tmp/ccCpBAv9.s:1019   .text.get_telem:0000000000000116 .L216
     /tmp/ccCpBAv9.s:986    .text.get_telem:00000000000000b4 .L217
     /tmp/ccCpBAv9.s:975    .text.get_telem:00000000000000a0 .L213
     /tmp/ccCpBAv9.s:938    .text.get_telem:0000000000000028 .L214
     /tmp/ccCpBAv9.s:941    .text.get_telem:0000000000000030 .L215
     /tmp/ccCpBAv9.s:998    .text.get_telem:00000000000000d6 .L219
     /tmp/ccCpBAv9.s:953    .text.get_telem:0000000000000054 .L230
     /tmp/ccCpBAv9.s:1053   .text.get_telem:000000000000017c .L231
     /tmp/ccCpBAv9.s:1033   .text.get_telem:0000000000000140 .L220
     /tmp/ccCpBAv9.s:955    .text.get_telem:0000000000000056 .L218
     /tmp/ccCpBAv9.s:1095   .text.install_fw:000000000000004a .L233
     /tmp/ccCpBAv9.s:1087   .text.install_fw:0000000000000032 .L234
     /tmp/ccCpBAv9.s:1125   .text.cancel_fw:0000000000000022 .L240
     /tmp/ccCpBAv9.s:1163   .text.cancel_fw:00000000000000aa .L235
     /tmp/ccCpBAv9.s:1195   .text.reset_event:0000000000000028 .L243
     /tmp/ccCpBAv9.s:1230   .text.reset_chan:0000000000000028 .L248
     /tmp/ccCpBAv9.s:1267   .text.gen_failure:000000000000002e .L252
     /tmp/ccCpBAv9.s:1342   .text.upload_fw:00000000000000a0 .L269
     /tmp/ccCpBAv9.s:1309   .text.upload_fw:0000000000000040 .L259
     /tmp/ccCpBAv9.s:1326   .text.upload_fw:0000000000000076 .L272
     /tmp/ccCpBAv9.s:1349   .text.upload_fw:00000000000000b2 .L274
     /tmp/ccCpBAv9.s:1345   .text.upload_fw:00000000000000a6 .L262
     /tmp/ccCpBAv9.s:1302   .text.upload_fw:000000000000002c .L258
     /tmp/ccCpBAv9.s:1333   .text.upload_fw:000000000000008e .L275
     /tmp/ccCpBAv9.s:1364   .text.upload_fw:00000000000000e6 .L266
GAS LISTING /tmp/ccCpBAv9.s 			page 88


     /tmp/ccCpBAv9.s:1415   .text.upload_fw:000000000000019a .L271
     /tmp/ccCpBAv9.s:1337   .text.upload_fw:0000000000000098 .L257
     /tmp/ccCpBAv9.s:1408   .text.upload_fw:0000000000000182 .L267
     /tmp/ccCpBAv9.s:1460   .text.set_log:000000000000004c .L281
     /tmp/ccCpBAv9.s:1467   .text.set_log:000000000000005e .L278
     /tmp/ccCpBAv9.s:1463   .text.set_log:0000000000000052 .L279
     /tmp/ccCpBAv9.s:1442   .text.set_log:000000000000001a .L277
     /tmp/ccCpBAv9.s:1455   .text.set_log:0000000000000044 .L276
     /tmp/ccCpBAv9.s:1522   .text.set_err:000000000000004c .L290
     /tmp/ccCpBAv9.s:1529   .text.set_err:000000000000005e .L287
     /tmp/ccCpBAv9.s:1525   .text.set_err:0000000000000052 .L288
     /tmp/ccCpBAv9.s:1504   .text.set_err:000000000000001a .L286
     /tmp/ccCpBAv9.s:1517   .text.set_err:0000000000000044 .L285
     /tmp/ccCpBAv9.s:1591   .text.unlog_event:000000000000005a .L306
     /tmp/ccCpBAv9.s:1594   .text.unlog_event:0000000000000060 .L307
     /tmp/ccCpBAv9.s:1597   .text.unlog_event:0000000000000066 .L302
     /tmp/ccCpBAv9.s:1621   .text.unlog_event:00000000000000aa .L304
     /tmp/ccCpBAv9.s:1606   .text.unlog_event:0000000000000086 .L305
     /tmp/ccCpBAv9.s:1567   .text.unlog_event:000000000000001e .L295
     /tmp/ccCpBAv9.s:1575   .text.unlog_event:0000000000000030 .L296
     /tmp/ccCpBAv9.s:1618   .text.unlog_event:00000000000000a4 .L298
     /tmp/ccCpBAv9.s:1614   .text.unlog_event:0000000000000098 .L299
     /tmp/ccCpBAv9.s:1581   .text.unlog_event:000000000000003c .L297
     /tmp/ccCpBAv9.s:1583   .text.unlog_event:0000000000000040 .L303
     /tmp/ccCpBAv9.s:1678   .text.log_event:0000000000000062 .L324
     /tmp/ccCpBAv9.s:1681   .text.log_event:0000000000000068 .L325
     /tmp/ccCpBAv9.s:1684   .text.log_event:000000000000006e .L320
     /tmp/ccCpBAv9.s:1718   .text.log_event:00000000000000d0 .L322
     /tmp/ccCpBAv9.s:1703   .text.log_event:00000000000000ac .L323
     /tmp/ccCpBAv9.s:1652   .text.log_event:000000000000001e .L312
     /tmp/ccCpBAv9.s:1660   .text.log_event:0000000000000030 .L313
     /tmp/ccCpBAv9.s:1696   .text.log_event:0000000000000096 .L315
     /tmp/ccCpBAv9.s:1715   .text.log_event:00000000000000ca .L316
     /tmp/ccCpBAv9.s:1711   .text.log_event:00000000000000be .L317
     /tmp/ccCpBAv9.s:1666   .text.log_event:000000000000003c .L314
     /tmp/ccCpBAv9.s:1669   .text.log_event:0000000000000044 .L321
     /tmp/ccCpBAv9.s:1775   .text.event_unsub:000000000000005a .L341
     /tmp/ccCpBAv9.s:1778   .text.event_unsub:0000000000000060 .L342
     /tmp/ccCpBAv9.s:1781   .text.event_unsub:0000000000000066 .L337
     /tmp/ccCpBAv9.s:1805   .text.event_unsub:00000000000000aa .L339
     /tmp/ccCpBAv9.s:1790   .text.event_unsub:0000000000000086 .L340
     /tmp/ccCpBAv9.s:1751   .text.event_unsub:000000000000001e .L330
     /tmp/ccCpBAv9.s:1759   .text.event_unsub:0000000000000030 .L331
     /tmp/ccCpBAv9.s:1802   .text.event_unsub:00000000000000a4 .L333
     /tmp/ccCpBAv9.s:1798   .text.event_unsub:0000000000000098 .L334
     /tmp/ccCpBAv9.s:1765   .text.event_unsub:000000000000003c .L332
     /tmp/ccCpBAv9.s:1767   .text.event_unsub:0000000000000040 .L338
     /tmp/ccCpBAv9.s:1867   .text.event_sub:0000000000000070 .L361
     /tmp/ccCpBAv9.s:1870   .text.event_sub:0000000000000076 .L362
     /tmp/ccCpBAv9.s:1873   .text.event_sub:000000000000007c .L355
     /tmp/ccCpBAv9.s:1907   .text.event_sub:00000000000000de .L356
     /tmp/ccCpBAv9.s:1913   .text.event_sub:00000000000000f2 .L359
     /tmp/ccCpBAv9.s:1892   .text.event_sub:00000000000000ba .L360
     /tmp/ccCpBAv9.s:1836   .text.event_sub:000000000000001e .L347
     /tmp/ccCpBAv9.s:1844   .text.event_sub:0000000000000030 .L348
     /tmp/ccCpBAv9.s:1885   .text.event_sub:00000000000000a4 .L350
     /tmp/ccCpBAv9.s:1904   .text.event_sub:00000000000000d8 .L351
GAS LISTING /tmp/ccCpBAv9.s 			page 89


     /tmp/ccCpBAv9.s:1900   .text.event_sub:00000000000000cc .L352
     /tmp/ccCpBAv9.s:1850   .text.event_sub:000000000000003c .L349
     /tmp/ccCpBAv9.s:1856   .text.event_sub:0000000000000050 .L366
     /tmp/ccCpBAv9.s:1858   .text.event_sub:0000000000000052 .L358
     /tmp/ccCpBAv9.s:1979   .text.unlog_chan:0000000000000072 .L379
     /tmp/ccCpBAv9.s:1982   .text.unlog_chan:0000000000000078 .L380
     /tmp/ccCpBAv9.s:1960   .text.unlog_chan:0000000000000036 .L371
     /tmp/ccCpBAv9.s:1985   .text.unlog_chan:000000000000007e .L377
     /tmp/ccCpBAv9.s:1997   .text.unlog_chan:00000000000000a6 .L378
     /tmp/ccCpBAv9.s:1949   .text.unlog_chan:0000000000000020 .L368
     /tmp/ccCpBAv9.s:1954   .text.unlog_chan:000000000000002a .L369
     /tmp/ccCpBAv9.s:2009   .text.unlog_chan:00000000000000c4 .L373
     /tmp/ccCpBAv9.s:2005   .text.unlog_chan:00000000000000b8 .L374
     /tmp/ccCpBAv9.s:1966   .text.unlog_chan:0000000000000044 .L372
     /tmp/ccCpBAv9.s:2111   .text.log_chan:00000000000000e6 .L397
     /tmp/ccCpBAv9.s:2114   .text.log_chan:00000000000000ec .L398
     /tmp/ccCpBAv9.s:2117   .text.log_chan:00000000000000f2 .L393
     /tmp/ccCpBAv9.s:2152   .text.log_chan:000000000000015a .L395
     /tmp/ccCpBAv9.s:2137   .text.log_chan:0000000000000136 .L396
     /tmp/ccCpBAv9.s:2038   .text.log_chan:0000000000000020 .L385
     /tmp/ccCpBAv9.s:2046   .text.log_chan:0000000000000030 .L386
     /tmp/ccCpBAv9.s:2130   .text.log_chan:000000000000011e .L388
     /tmp/ccCpBAv9.s:2149   .text.log_chan:0000000000000154 .L389
     /tmp/ccCpBAv9.s:2145   .text.log_chan:0000000000000148 .L390
     /tmp/ccCpBAv9.s:2054   .text.log_chan:0000000000000040 .L387
     /tmp/ccCpBAv9.s:2069   .text.log_chan:000000000000006e .L394
     /tmp/ccCpBAv9.s:2211   .text.channel_unsub:0000000000000058 .L412
     /tmp/ccCpBAv9.s:2214   .text.channel_unsub:000000000000005e .L413
     /tmp/ccCpBAv9.s:2217   .text.channel_unsub:0000000000000064 .L410
     /tmp/ccCpBAv9.s:2228   .text.channel_unsub:0000000000000088 .L411
     /tmp/ccCpBAv9.s:2188   .text.channel_unsub:000000000000001e .L403
     /tmp/ccCpBAv9.s:2196   .text.channel_unsub:000000000000002e .L404
     /tmp/ccCpBAv9.s:2240   .text.channel_unsub:00000000000000a6 .L406
     /tmp/ccCpBAv9.s:2236   .text.channel_unsub:000000000000009a .L407
     /tmp/ccCpBAv9.s:2201   .text.channel_unsub:0000000000000038 .L405
     /tmp/ccCpBAv9.s:2341   .text.channel_sub:00000000000000e6 .L430
     /tmp/ccCpBAv9.s:2344   .text.channel_sub:00000000000000ec .L431
     /tmp/ccCpBAv9.s:2347   .text.channel_sub:00000000000000f2 .L426
     /tmp/ccCpBAv9.s:2382   .text.channel_sub:000000000000015a .L428
     /tmp/ccCpBAv9.s:2367   .text.channel_sub:0000000000000136 .L429
     /tmp/ccCpBAv9.s:2268   .text.channel_sub:0000000000000020 .L418
     /tmp/ccCpBAv9.s:2276   .text.channel_sub:0000000000000030 .L419
     /tmp/ccCpBAv9.s:2360   .text.channel_sub:000000000000011e .L421
     /tmp/ccCpBAv9.s:2379   .text.channel_sub:0000000000000154 .L422
     /tmp/ccCpBAv9.s:2375   .text.channel_sub:0000000000000148 .L423
     /tmp/ccCpBAv9.s:2284   .text.channel_sub:0000000000000040 .L420
     /tmp/ccCpBAv9.s:2299   .text.channel_sub:000000000000006e .L427
     /tmp/ccCpBAv9.s:2437   .text.reload_config:0000000000000050 .L440
     /tmp/ccCpBAv9.s:2444   .text.reload_config:0000000000000062 .L437
     /tmp/ccCpBAv9.s:2440   .text.reload_config:0000000000000056 .L438
     /tmp/ccCpBAv9.s:2417   .text.reload_config:000000000000001a .L436
     /tmp/ccCpBAv9.s:2432   .text.reload_config:0000000000000048 .L435
     /tmp/ccCpBAv9.s:2542   .text.set_u32:00000000000000ce .L450
     /tmp/ccCpBAv9.s:2508   .text.set_u32:000000000000005a .L443
     /tmp/ccCpBAv9.s:2529   .text.set_u32:00000000000000a4 .L444
     /tmp/ccCpBAv9.s:2525   .text.set_u32:0000000000000096 .L451
     /tmp/ccCpBAv9.s:2549   .text.set_u32:00000000000000e0 .L446
GAS LISTING /tmp/ccCpBAv9.s 			page 90


     /tmp/ccCpBAv9.s:2545   .text.set_u32:00000000000000d4 .L448
     /tmp/ccCpBAv9.s:2501   .text.set_u32:0000000000000048 .L442
     /tmp/ccCpBAv9.s:2536   .text.set_u32:00000000000000bc .L441
     /tmp/ccCpBAv9.s:2892   .text.set_tx_pow:0000000000000054 .L470
     /tmp/ccCpBAv9.s:2899   .text.set_tx_pow:0000000000000066 .L465
     /tmp/ccCpBAv9.s:2895   .text.set_tx_pow:000000000000005a .L466
     /tmp/ccCpBAv9.s:2871   .text.set_tx_pow:000000000000001c .L464
     /tmp/ccCpBAv9.s:2884   .text.set_tx_pow:0000000000000046 .L469
     /tmp/ccCpBAv9.s:2952   .text.set_gpo:0000000000000046 .L480
     /tmp/ccCpBAv9.s:2959   .text.set_gpo:0000000000000058 .L476
     /tmp/ccCpBAv9.s:2955   .text.set_gpo:000000000000004c .L477
     /tmp/ccCpBAv9.s:2935   .text.set_gpo:000000000000001a .L475
     /tmp/ccCpBAv9.s:2947   .text.set_gpo:000000000000003e .L474
     /tmp/ccCpBAv9.s:2973   .text.set_gpo:000000000000008e .L479
     /tmp/ccCpBAv9.s:3014   .text.get_log:000000000000003a .L484
     /tmp/ccCpBAv9.s:3018   .text.get_log:000000000000003e .L486
     /tmp/ccCpBAv9.s:3033   .text.get_log:0000000000000078 .L487
     /tmp/ccCpBAv9.s:3028   .text.get_log:000000000000006c .L488
     /tmp/ccCpBAv9.s:3064   .text.get_err:000000000000002c .L493
     /tmp/ccCpBAv9.s:3071   .text.get_err:0000000000000038 .L494
     /tmp/ccCpBAv9.s:3086   .text.get_err:0000000000000072 .L496
     /tmp/ccCpBAv9.s:3081   .text.get_err:0000000000000066 .L497
     /tmp/ccCpBAv9.s:3145   .text.get_time:000000000000008c .L501
     /tmp/ccCpBAv9.s:3130   .text.get_time:000000000000005e .L505
     /tmp/ccCpBAv9.s:3141   .text.get_time:0000000000000084 .L506
     /tmp/ccCpBAv9.s:3211   .text.set_time:000000000000009a .L520
     /tmp/ccCpBAv9.s:3207   .text.set_time:0000000000000096 .L514
     /tmp/ccCpBAv9.s:3203   .text.set_time:000000000000008e .L519
     /tmp/ccCpBAv9.s:3178   .text.set_time:0000000000000028 .L515
     /tmp/ccCpBAv9.s:3259   .text.get_chan:0000000000000060 .L528
     /tmp/ccCpBAv9.s:3252   .text.get_chan:0000000000000050 .L529
     /tmp/ccCpBAv9.s:3263   .text.get_chan:0000000000000068 .L530
     /tmp/ccCpBAv9.s:3291   .text.get_chan:00000000000000ca .L527
     /tmp/ccCpBAv9.s:3257   .text.get_chan:000000000000005e .L535
     /tmp/ccCpBAv9.s:3296   .text.get_chan:00000000000000d2 .L533
     /tmp/ccCpBAv9.s:3287   .text.get_chan:00000000000000c2 .L534
     /tmp/ccCpBAv9.s:3399   .text.get_u32:0000000000000116 .L536
     /tmp/ccCpBAv9.s:3343   .text.get_u32:0000000000000066 .L540
     /tmp/ccCpBAv9.s:3359   .text.get_u32:0000000000000098 .L549
     /tmp/ccCpBAv9.s:3404   .text.get_u32:000000000000011e .L541
     /tmp/ccCpBAv9.s:3363   .text.get_u32:00000000000000a4 .L543
     /tmp/ccCpBAv9.s:3424   .text.get_u32:0000000000000160 .L547
     /tmp/ccCpBAv9.s:3408   .text.get_u32:000000000000012c .L550
     /tmp/ccCpBAv9.s:3374   .text.get_u32:00000000000000c4 .L544
     /tmp/ccCpBAv9.s:3412   .text.get_u32:0000000000000138 .L546
     /tmp/ccCpBAv9.s:3395   .text.get_u32:000000000000010c .L548
     /tmp/ccCpBAv9.s:3715   .text.get_tx_pow:0000000000000068 .L564
     /tmp/ccCpBAv9.s:3719   .text.get_tx_pow:000000000000006c .L568
     /tmp/ccCpBAv9.s:3711   .text.get_tx_pow:0000000000000060 .L569
     /tmp/ccCpBAv9.s:3777   .text.set_block:0000000000000070 .L584
     /tmp/ccCpBAv9.s:3780   .text.set_block:0000000000000076 .L585
     /tmp/ccCpBAv9.s:3783   .text.set_block:000000000000007c .L576
     /tmp/ccCpBAv9.s:3750   .text.set_block:0000000000000024 .L574
     /tmp/ccCpBAv9.s:3759   .text.set_block:0000000000000040 .L575
     /tmp/ccCpBAv9.s:3803   .text.set_block:00000000000000d0 .L578
     /tmp/ccCpBAv9.s:3795   .text.set_block:00000000000000ac .L579
     /tmp/ccCpBAv9.s:3800   .text.set_block:00000000000000c2 .L580
GAS LISTING /tmp/ccCpBAv9.s 			page 91


     /tmp/ccCpBAv9.s:3817   .text.set_block:00000000000000fc .L581
     /tmp/ccCpBAv9.s:3768   .text.set_block:000000000000005e .L582
     /tmp/ccCpBAv9.s:3848   .text.set_block:0000000000000160 .L583
     /tmp/ccCpBAv9.s:3772   .text.set_block:0000000000000068 .L573
     /tmp/ccCpBAv9.s:3888   .text.get_block:0000000000000044 .L590
     /tmp/ccCpBAv9.s:3892   .text.get_block:000000000000004c .L591
     /tmp/ccCpBAv9.s:3930   .text.get_block:00000000000000ce .L589
     /tmp/ccCpBAv9.s:3919   .text.get_block:00000000000000b2 .L593
     /tmp/ccCpBAv9.s:3907   .text.get_block:0000000000000082 .L594
     /tmp/ccCpBAv9.s:3916   .text.get_block:00000000000000a4 .L595
     /tmp/ccCpBAv9.s:3935   .text.get_block:00000000000000d6 .L596
     /tmp/ccCpBAv9.s:3956   .text.get_block:000000000000011e .L597
     /tmp/ccCpBAv9.s:3926   .text.get_block:00000000000000c6 .L598
     /tmp/ccCpBAv9.s:4041   .text.set_regs:00000000000000d0 .L600
     /tmp/ccCpBAv9.s:4045   .text.set_regs:00000000000000dc .L611
     /tmp/ccCpBAv9.s:4073   .text.set_regs:0000000000000134 .L608
     /tmp/ccCpBAv9.s:4048   .text.set_regs:00000000000000e2 .L609
     /tmp/ccCpBAv9.s:4088   .text.set_regs:000000000000015a .L610
     /tmp/ccCpBAv9.s:4077   .text.set_regs:000000000000013e .L599
     /tmp/ccCpBAv9.s:3988   .text.set_regs:000000000000002a .L601
     /tmp/ccCpBAv9.s:3991   .text.set_regs:0000000000000032 .L602
     /tmp/ccCpBAv9.s:4062   .text.set_regs:0000000000000114 .L606
     /tmp/ccCpBAv9.s:4082   .text.set_regs:0000000000000146 .L607
     /tmp/ccCpBAv9.s:4017   .text.set_regs:0000000000000084 .L604
     /tmp/ccCpBAv9.s:4126   .text.get_regs:0000000000000036 .L616
     /tmp/ccCpBAv9.s:4130   .text.get_regs:0000000000000042 .L617
     /tmp/ccCpBAv9.s:4177   .text.get_regs:00000000000000d4 .L615
     /tmp/ccCpBAv9.s:4182   .text.get_regs:00000000000000dc .L626
     /tmp/ccCpBAv9.s:4185   .text.get_regs:00000000000000e2 .L623
     /tmp/ccCpBAv9.s:4219   .text.get_regs:000000000000014a .L624
     /tmp/ccCpBAv9.s:4136   .text.get_regs:0000000000000052 .L619
     /tmp/ccCpBAv9.s:4203   .text.get_regs:000000000000011c .L621
     /tmp/ccCpBAv9.s:4214   .text.get_regs:000000000000013c .L622
     /tmp/ccCpBAv9.s:4124   .text.get_regs:0000000000000034 .L627
     /tmp/ccCpBAv9.s:4150   .text.get_regs:0000000000000078 .L620
     /tmp/ccCpBAv9.s:4173   .text.get_regs:00000000000000cc .L625
     /tmp/ccCpBAv9.s:4267   .text.get_active_bank:000000000000006a .L628
     /tmp/ccCpBAv9.s:4263   .text.get_active_bank:0000000000000062 .L632
     /tmp/ccCpBAv9.s:4316   .text.get_gpo:000000000000006a .L639
     /tmp/ccCpBAv9.s:4312   .text.get_gpo:0000000000000062 .L643
     /tmp/ccCpBAv9.s:4348   .text.CmdThd:0000000000000026 .L651
     /tmp/ccCpBAv9.s:4369   .text.CmdThd:0000000000000062 .L652
     /tmp/ccCpBAv9.s:4342   .text.CmdThd:0000000000000012 .L654
     /tmp/ccCpBAv9.s:4366   .text.CmdThd:0000000000000058 .L653

UNDEFINED SYMBOLS
elyNLFromFW
elyNLFreeBuffer
PMMCTL0
bank0p
crcGenX25
elyFWGetBuffer
memcpy
memset
elyTelemPostBufferS
elyFWFreeBufferI
crcStart
GAS LISTING /tmp/ccCpBAv9.s 			page 92


elyFramGetRequestTimeoutS
elyFramPostRequestS
chSemSignalI
chMBPost
chMBPostS
chMBPostI
elyErrorSignal
chSysHalt
crcCheckX25
elyNLSetHeader
elyNLGetDest
elyRFPostI
elyFWFreeBuffer
elyUARTPostI
crcStop
elyFWGetBufferI
elyTelemUpdateConfigS
__mspabi_slli
bootloader
chSemWaitTimeout
elyEventReset
elyChanReset
__mspabi_slll
bank0w
elyErrorSetLogLvlS
elyErrorSetRptLvlS
elyEventUnlog
elyEventLog
elyEventUnsubscribe
elyEventSubscribe
elyChanUnlog
__mspabi_divul
__mspabi_slll_5
elyChanLog
elyChanUnsubscribe
elyChanSubscribe
elyRegGetBlock
elyUARTCfgMarkDirty
elyRFCfgMarkDirty
elyEventSignal
elyChanGetValue
__mspabi_srll
__mspabi_srll_8
elyRegSetBlock
elyRegSet
elyRegGet
chMBFetch
elyNLToFW
__crt0_init_bss
__crt0_init_highbss
__crt0_move_highdata
