GAS LISTING /tmp/cclk7HOm.s 			page 1


   1               		.file	"crc_sdlp.c"
   2               		.section	.text.crcGenSDLP,"ax",@progbits
   3               		.balign 2
   4               		.global	crcGenSDLP
   5               		.type	crcGenSDLP, @function
   6               	crcGenSDLP:
   7               	; start of function
   8               	; framesize_regs:     12
   9               	; framesize_locals:   0
  10               	; framesize_outgoing: 0
  11               	; framesize:          12
  12               	; elim ap -> fp       16
  13               	; elim fp -> sp       0
  14               	; saved regs: R6 R8 R10
  15               		; start of prologue
  16 0000 0A14      		PUSHM.A	#1, R10
  17 0002 0814      		PUSHM.A	#1, R8
  18 0004 0614      		PUSHM.A	#1, R6
  19               		; end of prologue
  20 0006 CA0C      		MOVA	R12, R10
  21 0008 C80D      		MOVA	R13, R8
  22 000a 5C43      		MOV.B	#1, R12
  23 000c DC0D 0028 		CMPA	R13, R12 { JLO	.L2
  24 0010 8C00 0000 		MOVA	#__func__.3703, R12
  25 0014 B013 0000 		CALLA	#chSysHalt
  26               	.L2:
  27 0018 4018 B243 		MOVX.W	#-1, &CRCINIRES
  27      0000 
  28 001e CE0A      		MOVA	R10, R14
  29 0020 CC08      		MOVA	R8, R12
  30 0022 AC0F FEFF 		ADDA	#-2, R12
  31               	.L3:
  32 0026 0018 464E 		MOVX.A	R14, R6 { SUBX.A	R10, R6
  32      0018 468A 
  33 002e D60C 0028 		CMPA	R12, R6 { JLO	.L4
  34 0032 EC0A      		ADDA	R10, R12
  35 0034 4018 DC42 		MOVX.B	&CRCINIRES_H, @R12
  35      0000 0000 
  36 003c EA08      		ADDA	R8, R10
  37 003e 4F18 DA42 		MOVX.B	&CRCINIRES_L, -1(R10)
  37      0000 FFFF 
  38               		; start of epilogue
  39 0046 0616      		POPM.A	#1, r6
  40 0048 0816      		POPM.A	#1, r8
  41 004a 0A16      		POPM.A	#1, r10
  42 004c 1001      		RETA
  43               	.L4:
  44 004e 4018 E24E 		MOVX.B	@R14, &CRCDIRB_L
  44      0000 
  45 0054 AE00 0100 		ADDA	#1, R14
  46 0058 8000 0000 		BRA	#.L3
  47               		.size	crcGenSDLP, .-crcGenSDLP
  48               		.section	.text.crcCheckSDLP,"ax",@progbits
  49               		.balign 2
  50               		.global	crcCheckSDLP
  51               		.type	crcCheckSDLP, @function
  52               	crcCheckSDLP:
GAS LISTING /tmp/cclk7HOm.s 			page 2


  53               	; start of function
  54               	; framesize_regs:     8
  55               	; framesize_locals:   0
  56               	; framesize_outgoing: 0
  57               	; framesize:          8
  58               	; elim ap -> fp       12
  59               	; elim fp -> sp       0
  60               	; saved regs: R8 R10
  61               		; start of prologue
  62 0000 0A14      		PUSHM.A	#1, R10
  63 0002 0814      		PUSHM.A	#1, R8
  64               		; end of prologue
  65 0004 4018 B243 		MOVX.W	#-1, &CRCINIRES
  65      0000 
  66 000a CA0C      		MOVA	R12, R10
  67 000c CE0D      		MOVA	R13, R14
  68 000e AE0F FEFF 		ADDA	#-2, R14
  69               	.L6:
  70 0012 0018 484A 		MOVX.A	R10, R8 { SUBX.A	R12, R8
  70      0018 488C 
  71 001a D80E 0028 		CMPA	R14, R8 { JLO	.L7
  72 001e 4018 5F42 		MOVX.B	&CRCINIRES_H, R15
  72      0000 
  73 0024 EE0C      		ADDA	R12, R14
  74 0026 CE9F 0000 		CMP.B	R15, @R14 { JNE	.L9
  74      0020 
  75 002c EC0D      		ADDA	R13, R12
  76 002e 5C4C FFFF 		MOV.B	-1(R12), R12
  77 0032 4018 5CE2 		XORX.B	&CRCINIRES_L, R12
  77      0000 
  78 0038 3CF0 FF00 		AND	#0xff, R12
  79 003c 3C53      		ADD.W	#-1, R12
  80 003e 5C03 4D18 		rrum.w	#1, R12 { rpt	#14 { rrax.w	R12
  80      0C11 
  81               	.L8:
  82               		; start of epilogue
  83 0044 0816      		POPM.A	#1, r8
  84 0046 0A16      		POPM.A	#1, r10
  85 0048 1001      		RETA
  86               	.L7:
  87 004a 4018 E24A 		MOVX.B	@R10, &CRCDIRB_L
  87      0000 
  88 0050 AA00 0100 		ADDA	#1, R10
  89 0054 8000 0000 		BRA	#.L6
  90               	.L9:
  91 0058 4C43      		MOV.B	#0, R12
  92 005a 8000 0000 		BRA	#.L8
  93               		.size	crcCheckSDLP, .-crcCheckSDLP
  94               		.section	.upper.rodata,"a",@progbits
  95               		.type	__func__.3703, @object
  96               		.size	__func__.3703, 11
  97               	__func__.3703:
  98 0000 6372 6347 		.string	"crcGenSDLP"
  98      656E 5344 
  98      4C50 00
  99               		.ident	"GCC: (SOMNIUM Technologies Limited - msp430-gcc 6.2.1.16) 6.2.1 20161212"
GAS LISTING /tmp/cclk7HOm.s 			page 3


DEFINED SYMBOLS
                            *ABS*:0000000000000000 crc_sdlp.c
     /tmp/cclk7HOm.s:6      .text.crcGenSDLP:0000000000000000 crcGenSDLP
     /tmp/cclk7HOm.s:97     .upper.rodata:0000000000000000 __func__.3703
     /tmp/cclk7HOm.s:52     .text.crcCheckSDLP:0000000000000000 crcCheckSDLP
     /tmp/cclk7HOm.s:26     .text.crcGenSDLP:0000000000000018 .L2
     /tmp/cclk7HOm.s:43     .text.crcGenSDLP:000000000000004e .L4
     /tmp/cclk7HOm.s:31     .text.crcGenSDLP:0000000000000026 .L3
     /tmp/cclk7HOm.s:86     .text.crcCheckSDLP:000000000000004a .L7
     /tmp/cclk7HOm.s:90     .text.crcCheckSDLP:0000000000000058 .L9
     /tmp/cclk7HOm.s:69     .text.crcCheckSDLP:0000000000000012 .L6
     /tmp/cclk7HOm.s:81     .text.crcCheckSDLP:0000000000000044 .L8

UNDEFINED SYMBOLS
chSysHalt
CRCINIRES
CRCINIRES_H
CRCINIRES_L
CRCDIRB_L
