GAS LISTING /tmp/ccBWVlwB.s 			page 1


   1               		.file	"crc_x25.c"
   2               		.section	.text.crcGenX25,"ax",@progbits
   3               		.balign 2
   4               		.global	crcGenX25
   5               		.type	crcGenX25, @function
   6               	crcGenX25:
   7               	; start of function
   8               	; framesize_regs:     12
   9               	; framesize_locals:   0
  10               	; framesize_outgoing: 0
  11               	; framesize:          12
  12               	; elim ap -> fp       16
  13               	; elim fp -> sp       0
  14               	; saved regs: R6 R8 R10
  15               		; start of prologue
  16 0000 0A14      		PUSHM.A	#1, R10
  17 0002 0814      		PUSHM.A	#1, R8
  18 0004 0614      		PUSHM.A	#1, R6
  19               		; end of prologue
  20 0006 CA0C      		MOVA	R12, R10
  21 0008 C80D      		MOVA	R13, R8
  22 000a 4018 C293 		CMPX.B	#0, &crc_state { JEQ	.L2
  22      0000 0024 
  23 0012 8C00 0000 		MOVA	#__func__.3711, R12
  24 0016 B013 0000 		CALLA	#chSysHalt
  25               	.L2:
  26 001a 5C43      		MOV.B	#1, R12
  27 001c DC08 0028 		CMPA	R8, R12 { JLO	.L3
  28 0020 8C00 0000 		MOVA	#__func__.3711, R12
  29 0024 B013 0000 		CALLA	#chSysHalt
  30               	.L3:
  31 0028 4018 B243 		MOVX.W	#-1, &CRCINIRES
  31      0000 
  32 002e CE0A      		MOVA	R10, R14
  33 0030 CC08      		MOVA	R8, R12
  34 0032 AC0F FEFF 		ADDA	#-2, R12
  35               	.L4:
  36 0036 0018 464E 		MOVX.A	R14, R6 { SUBX.A	R10, R6
  36      0018 468A 
  37 003e D60C 0028 		CMPA	R12, R6 { JLO	.L5
  38 0042 EC0A      		ADDA	R10, R12
  39 0044 4018 5D42 		MOVX.B	&CRCRESR_H, R13
  39      0000 
  40 004a 7DE3      		INV.B	R13
  41 004c CC4D 0000 		MOV.B	R13, @R12
  42 0050 EA08      		ADDA	R8, R10
  43 0052 4018 5C42 		MOVX.B	&CRCRESR_L, R12
  43      0000 
  44 0058 7CE3      		INV.B	R12
  45 005a CA4C FFFF 		MOV.B	R12, -1(R10)
  46               		; start of epilogue
  47 005e 0616      		POPM.A	#1, r6
  48 0060 0816      		POPM.A	#1, r8
  49 0062 0A16      		POPM.A	#1, r10
  50 0064 1001      		RETA
  51               	.L5:
  52 0066 4018 E24E 		MOVX.B	@R14, &CRCDI_L
GAS LISTING /tmp/ccBWVlwB.s 			page 2


  52      0000 
  53 006c AE00 0100 		ADDA	#1, R14
  54 0070 8000 0000 		BRA	#.L4
  55               		.size	crcGenX25, .-crcGenX25
  56               		.section	.text.crcCheckX25,"ax",@progbits
  57               		.balign 2
  58               		.global	crcCheckX25
  59               		.type	crcCheckX25, @function
  60               	crcCheckX25:
  61               	; start of function
  62               	; framesize_regs:     12
  63               	; framesize_locals:   0
  64               	; framesize_outgoing: 0
  65               	; framesize:          12
  66               	; elim ap -> fp       16
  67               	; elim fp -> sp       0
  68               	; saved regs: R6 R8 R10
  69               		; start of prologue
  70 0000 0A14      		PUSHM.A	#1, R10
  71 0002 0814      		PUSHM.A	#1, R8
  72 0004 0614      		PUSHM.A	#1, R6
  73               		; end of prologue
  74 0006 CA0C      		MOVA	R12, R10
  75 0008 C80D      		MOVA	R13, R8
  76 000a 4018 C293 		CMPX.B	#0, &crc_state { JEQ	.L7
  76      0000 0024 
  77 0012 8C00 0000 		MOVA	#__func__.3720, R12
  78 0016 B013 0000 		CALLA	#chSysHalt
  79               	.L7:
  80 001a 4018 B243 		MOVX.W	#-1, &CRCINIRES
  80      0000 
  81 0020 CE0A      		MOVA	R10, R14
  82 0022 CC08      		MOVA	R8, R12
  83 0024 AC0F FEFF 		ADDA	#-2, R12
  84               	.L8:
  85 0028 0018 464E 		MOVX.A	R14, R6 { SUBX.A	R10, R6
  85      0018 468A 
  86 0030 D60C 0028 		CMPA	R12, R6 { JLO	.L9
  87 0034 EC0A      		ADDA	R10, R12
  88 0036 6D4C      		MOV.B	@R12, R13
  89 0038 4718 0D5D 		rpt	#8 { rlax.w	R13
  90 003c EA08      		ADDA	R8, R10
  91 003e 5A4A FFFF 		MOV.B	-1(R10), R10
  92 0042 0DDA      		BIS.W	R10, R13
  93 0044 4018 1E42 		MOVX.W	&CRCRESR, R14
  93      0000 
  94 004a 3EE3      		INV.W	R14
  95 004c 5C43      		MOV.B	#1, R12
  96 004e 0D9E 0024 		CMP.W	R14, R13 { JEQ	.L10
  97 0052 4C43      		MOV.B	#0, R12
  98               	.L10:
  99               		; start of epilogue
 100 0054 0616      		POPM.A	#1, r6
 101 0056 0816      		POPM.A	#1, r8
 102 0058 0A16      		POPM.A	#1, r10
 103 005a 1001      		RETA
 104               	.L9:
GAS LISTING /tmp/ccBWVlwB.s 			page 3


 105 005c 4018 E24E 		MOVX.B	@R14, &CRCDI_L
 105      0000 
 106 0062 AE00 0100 		ADDA	#1, R14
 107 0066 8000 0000 		BRA	#.L8
 108               		.size	crcCheckX25, .-crcCheckX25
 109               		.section	.text.crcStart,"ax",@progbits
 110               		.balign 2
 111               		.global	crcStart
 112               		.type	crcStart, @function
 113               	crcStart:
 114               	; start of function
 115               	; framesize_regs:     0
 116               	; framesize_locals:   0
 117               	; framesize_outgoing: 0
 118               	; framesize:          0
 119               	; elim ap -> fp       4
 120               	; elim fp -> sp       0
 121               	; saved regs:(none)
 122               		; start of prologue
 123               		; end of prologue
 124 0000 4018 C293 		CMPX.B	#0, &crc_state { JEQ	.L12
 124      0000 0024 
 125 0008 8C00 0000 		MOVA	#__func__.3727, R12
 126 000c B013 0000 		CALLA	#chSysHalt
 127               	.L12:
 128 0010 4018 B243 		MOVX.W	#-1, &CRCINIRES
 128      0000 
 129 0016 4018 D243 		MOVX.B	#1, &crc_state
 129      0000 
 130 001c 8C00 0000 		MOVA	#CRCDI_L, R12
 131               		; start of epilogue
 132 0020 1001      		RETA
 133               		.size	crcStart, .-crcStart
 134               		.section	.text.crcStop,"ax",@progbits
 135               		.balign 2
 136               		.global	crcStop
 137               		.type	crcStop, @function
 138               	crcStop:
 139               	; start of function
 140               	; framesize_regs:     0
 141               	; framesize_locals:   0
 142               	; framesize_outgoing: 0
 143               	; framesize:          0
 144               	; elim ap -> fp       4
 145               	; elim fp -> sp       0
 146               	; saved regs:(none)
 147               		; start of prologue
 148               		; end of prologue
 149 0000 4018 D293 		CMPX.B	#1, &crc_state { JEQ	.L14
 149      0000 0024 
 150 0008 8C00 0000 		MOVA	#__func__.3730, R12
 151 000c B013 0000 		CALLA	#chSysHalt
 152               	.L14:
 153 0010 4018 C243 		MOVX.B	#0, &crc_state
 153      0000 
 154 0016 4018 1C42 		MOVX.W	&CRCRESR, R12
 154      0000 
GAS LISTING /tmp/ccBWVlwB.s 			page 4


 155 001c 3CE3      		INV.W	R12
 156               		; start of epilogue
 157 001e 1001      		RETA
 158               		.size	crcStop, .-crcStop
 159               		.section	.upper.rodata,"a",@progbits
 160               		.type	__func__.3730, @object
 161               		.size	__func__.3730, 8
 162               	__func__.3730:
 163 0000 6372 6353 		.string	"crcStop"
 163      746F 7000 
 164               		.type	__func__.3727, @object
 165               		.size	__func__.3727, 9
 166               	__func__.3727:
 167 0008 6372 6353 		.string	"crcStart"
 167      7461 7274 
 167      00
 168               		.type	__func__.3720, @object
 169               		.size	__func__.3720, 12
 170               	__func__.3720:
 171 0011 6372 6343 		.string	"crcCheckX25"
 171      6865 636B 
 171      5832 3500 
 172               		.type	__func__.3711, @object
 173               		.size	__func__.3711, 10
 174               	__func__.3711:
 175 001d 6372 6347 		.string	"crcGenX25"
 175      656E 5832 
 175      3500 
 176               		.local	crc_state
 177               		.comm	crc_state,1,1
 178               		.ident	"GCC: (SOMNIUM Technologies Limited - msp430-gcc 6.2.1.16) 6.2.1 20161212"
GAS LISTING /tmp/ccBWVlwB.s 			page 5


DEFINED SYMBOLS
                            *ABS*:0000000000000000 crc_x25.c
     /tmp/ccBWVlwB.s:6      .text.crcGenX25:0000000000000000 crcGenX25
                             .bss:0000000000000000 crc_state
     /tmp/ccBWVlwB.s:174    .upper.rodata:000000000000001d __func__.3711
     /tmp/ccBWVlwB.s:60     .text.crcCheckX25:0000000000000000 crcCheckX25
     /tmp/ccBWVlwB.s:170    .upper.rodata:0000000000000011 __func__.3720
     /tmp/ccBWVlwB.s:113    .text.crcStart:0000000000000000 crcStart
     /tmp/ccBWVlwB.s:166    .upper.rodata:0000000000000008 __func__.3727
     /tmp/ccBWVlwB.s:138    .text.crcStop:0000000000000000 crcStop
     /tmp/ccBWVlwB.s:162    .upper.rodata:0000000000000000 __func__.3730
     /tmp/ccBWVlwB.s:25     .text.crcGenX25:000000000000001a .L2
     /tmp/ccBWVlwB.s:30     .text.crcGenX25:0000000000000028 .L3
     /tmp/ccBWVlwB.s:51     .text.crcGenX25:0000000000000066 .L5
     /tmp/ccBWVlwB.s:35     .text.crcGenX25:0000000000000036 .L4
     /tmp/ccBWVlwB.s:79     .text.crcCheckX25:000000000000001a .L7
     /tmp/ccBWVlwB.s:104    .text.crcCheckX25:000000000000005c .L9
     /tmp/ccBWVlwB.s:98     .text.crcCheckX25:0000000000000054 .L10
     /tmp/ccBWVlwB.s:84     .text.crcCheckX25:0000000000000028 .L8
     /tmp/ccBWVlwB.s:127    .text.crcStart:0000000000000010 .L12
     /tmp/ccBWVlwB.s:152    .text.crcStop:0000000000000010 .L14

UNDEFINED SYMBOLS
chSysHalt
CRCINIRES
CRCRESR_H
CRCRESR_L
CRCDI_L
CRCRESR
__crt0_init_bss
