GAS LISTING /tmp/ccKiKIAM.s 			page 1


   1               		.file	"hal_queues.c"
   2               		.section	.text.port_lock,"ax",@progbits
   3               		.balign 2
   4               		.type	port_lock, @function
   5               	port_lock:
   6               	; start of function
   7               	; framesize_regs:     0
   8               	; framesize_locals:   0
   9               	; framesize_outgoing: 0
  10               	; framesize:          0
  11               	; elim ap -> fp       4
  12               	; elim fp -> sp       0
  13               	; saved regs:(none)
  14               		; start of prologue
  15               		; end of prologue
  16               	 ; 347 "../ChibiOS-Contrib/os/common/ports/MSP430X/chcore.h" 1
  17 0000 32C2 0343 		dint { nop
  18               	 ; 0 "" 2
  19               	 ; 348 "../ChibiOS-Contrib/os/common/ports/MSP430X/chcore.h" 1
  20 0004 0343      		nop
  21               	 ; 0 "" 2
  22               		; start of epilogue
  23 0006 1001      		RETA
  24               		.size	port_lock, .-port_lock
  25               		.section	.text.port_unlock,"ax",@progbits
  26               		.balign 2
  27               		.type	port_unlock, @function
  28               	port_unlock:
  29               	; start of function
  30               	; framesize_regs:     0
  31               	; framesize_locals:   0
  32               	; framesize_outgoing: 0
  33               	; framesize:          0
  34               	; elim ap -> fp       4
  35               	; elim fp -> sp       0
  36               	; saved regs:(none)
  37               		; start of prologue
  38               		; end of prologue
  39               	 ; 355 "../ChibiOS-Contrib/os/common/ports/MSP430X/chcore.h" 1
  40 0000 0343      		nop
  41               	 ; 0 "" 2
  42               	 ; 356 "../ChibiOS-Contrib/os/common/ports/MSP430X/chcore.h" 1
  43 0002 0343 32D2 		nop { eint { nop
  43      0343 
  44               	 ; 0 "" 2
  45               		; start of epilogue
  46 0008 1001      		RETA
  47               		.size	port_unlock, .-port_unlock
  48               		.section	.text.iqObjectInit,"ax",@progbits
  49               		.balign 2
  50               		.global	iqObjectInit
  51               		.type	iqObjectInit, @function
  52               	iqObjectInit:
  53               	; start of function
  54               	; framesize_regs:     4
  55               	; framesize_locals:   0
  56               	; framesize_outgoing: 0
GAS LISTING /tmp/ccKiKIAM.s 			page 2


  57               	; framesize:          4
  58               	; elim ap -> fp       8
  59               	; elim fp -> sp       0
  60               	; saved regs: R10
  61               		; start of prologue
  62 0000 0A14      		PUSHM.A	#1, R10
  63               		; end of prologue
  64 0002 CA0D      		MOVA	R13, R10
  65 0004 8C43 0000 		MOV.W	#0, @R12
  66 0008 8C43 0200 		MOV.W	#0, 2(R12)
  67 000c BCF0 F0FF 		AND.W	#-16, 4(R12)
  67      0400 
  68 0012 7C0D 0600 		MOVA	R13, 6(R12)
  69 0016 7C0D 1200 		MOVA	R13, 18(R12)
  70 001a 7C0D 0E00 		MOVA	R13, 14(R12)
  71 001e EA0E      		ADDA	R14, R10
  72 0020 7C0A 0A00 		MOVA	R10, 10(R12)
  73 0024 7C0F 1600 		MOVA	R15, 22(R12)
  74 0028 0018 DC41 		MOVX.A	8(R1), 26(R12)
  74      0800 1A00 
  75               		; start of epilogue
  76 0030 0A16      		POPM.A	#1, r10
  77 0032 1001      		RETA
  78               		.size	iqObjectInit, .-iqObjectInit
  79               		.section	.text.iqResetI,"ax",@progbits
  80               		.balign 2
  81               		.global	iqResetI
  82               		.type	iqResetI, @function
  83               	iqResetI:
  84               	; start of function
  85               	; framesize_regs:     4
  86               	; framesize_locals:   0
  87               	; framesize_outgoing: 0
  88               	; framesize:          4
  89               	; elim ap -> fp       8
  90               	; elim fp -> sp       0
  91               	; saved regs: R10
  92               		; start of prologue
  93 0000 0A14      		PUSHM.A	#1, R10
  94               		; end of prologue
  95 0002 3A0C 0600 		MOVA	6(R12), R10
  96 0006 7C0A 1200 		MOVA	R10, 18(R12)
  97 000a 7C0A 0E00 		MOVA	R10, 14(R12)
  98 000e 8C43 0200 		MOV.W	#0, 2(R12)
  99 0012 BCF0 F0FF 		AND.W	#-16, 4(R12)
  99      0400 
 100 0018 8D0F FEFF 		MOVA	#-2, R13
 101 001c B013 0000 		CALLA	#osalThreadDequeueAllI
 102               		; start of epilogue
 103 0020 0A16      		POPM.A	#1, r10
 104 0022 1001      		RETA
 105               		.size	iqResetI, .-iqResetI
 106               		.section	.text.iqPutI,"ax",@progbits
 107               		.balign 2
 108               		.global	iqPutI
 109               		.type	iqPutI, @function
 110               	iqPutI:
GAS LISTING /tmp/ccKiKIAM.s 			page 3


 111               	; start of function
 112               	; framesize_regs:     4
 113               	; framesize_locals:   4
 114               	; framesize_outgoing: 0
 115               	; framesize:          8
 116               	; elim ap -> fp       8
 117               	; elim fp -> sp       4
 118               	; saved regs: R10
 119               		; start of prologue
 120 0000 0A14      		PUSHM.A	#1, R10
 121 0002 B100 0400 		SUBA	#4, R1
 122               		; end of prologue
 123 0006 3DF0 FF00 		AND	#0xff, R13
 124 000a 3E0C 0E00 		MOVA	14(R12), R14
 125 000e 0018 5E9C 		CMPX.A	18(R12), R14 { JNE	.L6
 125      1200 0020 
 126 0016 3A0C 0200 		MOVA	2(R12), R10
 127 001a 9A00 0000 		CMPA	#0, R10 { JNE	.L10
 127      0020 
 128               	.L6:
 129 0020 3F0C 0200 		MOVA	2(R12), R15
 130 0024 AF00 0100 		ADDA	#1, R15
 131 0028 710F 0000 		MOVA	R15, @R1
 132 002c 8C4F 0200 		MOV.W	R15, 2(R12)
 133 0030 1F41 0200 		MOV.W	2(R1), R15
 134 0034 7FF0 0F00 		AND.B	#15, R15
 135 0038 1B4C 0400 		MOV.W	4(R12), R11
 136 003c 3BF0 F0FF 		AND.W	#-16, R11
 137 0040 0BDF      		BIS.W	R15, R11
 138 0042 8C4B 0400 		MOV.W	R11, 4(R12)
 139 0046 CF0E      		MOVA	R14, R15
 140 0048 AF00 0100 		ADDA	#1, R15
 141 004c 7C0F 0E00 		MOVA	R15, 14(R12)
 142 0050 CE4D 0000 		MOV.B	R13, @R14
 143 0054 0018 DC9C 		CMPX.A	10(R12), 14(R12) { JLO	.L9
 143      0A00 0E00 
 143      0028 
 144 005e 0018 DC4C 		MOVX.A	6(R12), 14(R12)
 144      0600 0E00 
 145               	.L9:
 146 0066 4D43      		MOV.B	#0, R13
 147 0068 B013 0000 		CALLA	#osalThreadDequeueNextI
 148 006c 4C43      		MOV.B	#0, R12
 149               	.L5:
 150               		; start of epilogue
 151 006e A100 0400 		ADDA	#4, R1
 152 0072 0A16      		POPM.A	#1, r10
 153 0074 1001      		RETA
 154               	.L10:
 155 0076 8C0F FFFF 		MOVA	#-1, R12
 156 007a 8000 0000 		BRA	#.L5
 157               		.size	iqPutI, .-iqPutI
 158               		.section	.text.iqGetTimeout,"ax",@progbits
 159               		.balign 2
 160               		.global	iqGetTimeout
 161               		.type	iqGetTimeout, @function
 162               	iqGetTimeout:
GAS LISTING /tmp/ccKiKIAM.s 			page 4


 163               	; start of function
 164               	; framesize_regs:     12
 165               	; framesize_locals:   8
 166               	; framesize_outgoing: 0
 167               	; framesize:          20
 168               	; elim ap -> fp       16
 169               	; elim fp -> sp       8
 170               	; saved regs: R8 R9 R10
 171               		; start of prologue
 172 0000 2A14      		PUSHM.A	#3, R10
 173 0002 B100 0800 		SUBA	#8, R1
 174               		; end of prologue
 175 0006 CA0C      		MOVA	R12, R10
 176 0008 094D      		MOV.W	R13, R9
 177 000a B013 0000 		CALLA	#port_lock
 178 000e 8800 0000 		MOVA	#chSemWaitTimeoutS, R8
 179               	.L12:
 180 0012 3C0A 0200 		MOVA	2(R10), R12
 181 0016 9C00 0000 		CMPA	#0, R12 { JEQ	.L14
 181      0024 
 182 001c 3C0A 0200 		MOVA	2(R10), R12
 183 0020 AC0F FFFF 		ADDA	#-1, R12
 184 0024 710C 0400 		MOVA	R12, 4(R1)
 185 0028 8A4C 0200 		MOV.W	R12, 2(R10)
 186 002c 1C41 0600 		MOV.W	6(R1), R12
 187 0030 7CF0 0F00 		AND.B	#15, R12
 188 0034 1D4A 0400 		MOV.W	4(R10), R13
 189 0038 3DF0 F0FF 		AND.W	#-16, R13
 190 003c 0DDC      		BIS.W	R12, R13
 191 003e 8A4D 0400 		MOV.W	R13, 4(R10)
 192 0042 3E0A 1200 		MOVA	18(R10), R14
 193 0046 CC0E      		MOVA	R14, R12
 194 0048 AC00 0100 		ADDA	#1, R12
 195 004c 7A0C 1200 		MOVA	R12, 18(R10)
 196 0050 684E      		MOV.B	@R14, R8
 197 0052 0018 5C9A 		CMPX.A	10(R10), R12 { JLO	.L15
 197      0A00 0028 
 198 005a 0018 DA4A 		MOVX.A	6(R10), 18(R10)
 198      0600 1200 
 199               	.L15:
 200 0062 3E0A 1600 		MOVA	22(R10), R14
 201 0066 9E00 0000 		CMPA	#0, R14 { JEQ	.L16
 201      0024 
 202 006c CC0A      		MOVA	R10, R12
 203 006e 4E13      		CALLA	R14
 204               	.L16:
 205 0070 B013 0000 		CALLA	#port_unlock
 206 0074 4018 0C48 		MOVX	R8, R12
 207 0078 8000 0000 		BRA	#.L11
 208               	.L14:
 209 007c 0D49      		MOV.W	R9, R13
 210 007e CC0A      		MOVA	R10, R12
 211 0080 4813      		CALLA	R8
 212 0082 9C00 0000 		CMPA	#0, R12 { JGE	.L12
 212      0034 
 213 0088 710C 0000 		MOVA	R12, @R1
 214 008c B013 0000 		CALLA	#port_unlock
GAS LISTING /tmp/ccKiKIAM.s 			page 5


 215 0090 0C01      		MOVA	@R1, R12
 216               	.L11:
 217               		; start of epilogue
 218 0092 A100 0800 		ADDA	#8, R1
 219 0096 2816      		POPM.A	#3, r10
 220 0098 1001      		RETA
 221               		.size	iqGetTimeout, .-iqGetTimeout
 222               		.section	.text.iqReadTimeout,"ax",@progbits
 223               		.balign 2
 224               		.global	iqReadTimeout
 225               		.type	iqReadTimeout, @function
 226               	iqReadTimeout:
 227               	; start of function
 228               	; framesize_regs:     28
 229               	; framesize_locals:   6
 230               	; framesize_outgoing: 0
 231               	; framesize:          34
 232               	; elim ap -> fp       32
 233               	; elim fp -> sp       6
 234               	; saved regs: R4 R5 R6 R7 R8 R9 R10
 235               		; start of prologue
 236 0000 6A14      		PUSHM.A	#7, R10
 237 0002 B100 0600 		SUBA	#6, R1
 238               		; end of prologue
 239 0006 CA0C      		MOVA	R12, R10
 240 0008 C60D      		MOVA	R13, R6
 241 000a C50E      		MOVA	R14, R5
 242 000c 094F      		MOV.W	R15, R9
 243 000e 370C 1600 		MOVA	22(R12), R7
 244 0012 9E00 0000 		CMPA	#0, R14 { JNE	.L22
 244      0020 
 245 0018 8C00 0000 		MOVA	#__func__.3725, R12
 246 001c B013 0000 		CALLA	#chSysHalt
 247               	.L22:
 248 0020 8800 0000 		MOVA	#port_lock, R8
 249 0024 4813      		CALLA	R8
 250 0026 8C00 0000 		MOVA	#nil, R12
 251 002a 0D49      		MOV.W	R9, R13
 252 002c 1D5C 0800 		ADD.W	8(R12), R13
 253 0030 814D 0400 		MOV.W	R13, 4(R1)
 254 0034 4443      		MOV.B	#0, R4
 255               	.L23:
 256 0036 3C0A 0200 		MOVA	2(R10), R12
 257 003a 9C00 0000 		CMPA	#0, R12 { JEQ	.L29
 257      0024 
 258 0040 3C0A 0200 		MOVA	2(R10), R12
 259 0044 AC0F FFFF 		ADDA	#-1, R12
 260 0048 710C 0000 		MOVA	R12, @R1
 261 004c 8A4C 0200 		MOV.W	R12, 2(R10)
 262 0050 1C41 0200 		MOV.W	2(R1), R12
 263 0054 7CF0 0F00 		AND.B	#15, R12
 264 0058 1D4A 0400 		MOV.W	4(R10), R13
 265 005c 3DF0 F0FF 		AND.W	#-16, R13
 266 0060 0DDC      		BIS.W	R12, R13
 267 0062 8A4D 0400 		MOV.W	R13, 4(R10)
 268 0066 CD06      		MOVA	R6, R13
 269 0068 AD00 0100 		ADDA	#1, R13
GAS LISTING /tmp/ccKiKIAM.s 			page 6


 270 006c 710D 0000 		MOVA	R13, @R1
 271 0070 3C0A 1200 		MOVA	18(R10), R12
 272 0074 CD0C      		MOVA	R12, R13
 273 0076 AD00 0100 		ADDA	#1, R13
 274 007a 7A0D 1200 		MOVA	R13, 18(R10)
 275 007e E64C 0000 		MOV.B	@R12, @R6
 276 0082 0018 DA9A 		CMPX.A	10(R10), 18(R10) { JLO	.L30
 276      0A00 1200 
 276      0028 
 277 008c 0018 DA4A 		MOVX.A	6(R10), 18(R10)
 277      0600 1200 
 278               	.L30:
 279 0094 9700 0000 		CMPA	#0, R7 { JEQ	.L31
 279      0024 
 280 009a CC0A      		MOVA	R10, R12
 281 009c 4713      		CALLA	R7
 282               	.L31:
 283 009e B013 0000 		CALLA	#port_unlock
 284 00a2 A400 0100 		ADDA	#1, R4
 285 00a6 A50F FFFF 		ADDA	#-1, R5
 286 00aa 9500 0000 		CMPA	#0, R5 { JEQ	.L21
 286      0024 
 287 00b0 4813      		CALLA	R8
 288 00b2 0601      		MOVA	@R1, R6
 289 00b4 8000 0000 		BRA	#.L23
 290               	.L29:
 291 00b8 0C49      		MOV.W	R9, R12
 292 00ba 3C53      		ADD.W	#-1, R12
 293 00bc 3D40 FDFF 		MOV.W	#-3, R13
 294 00c0 0D9C 002C 		CMP.W	R12, R13 { JHS	.L24
 295 00c4 0D49      		MOV.W	R9, R13
 296               	.L26:
 297 00c6 CC0A      		MOVA	R10, R12
 298 00c8 B013 0000 		CALLA	#chSemWaitTimeoutS
 299 00cc 9C00 0000 		CMPA	#0, R12 { JEQ	.L23
 299      0024 
 300 00d2 8000 0000 		BRA	#.L41
 301               	.L24:
 302 00d6 4018 1C42 		MOVX.W	&nil+8, R12
 302      0000 
 303 00dc 1D41 0400 		MOV.W	4(R1), R13
 304 00e0 0D8C      		SUB.W	R12, R13
 305 00e2 099D 002C 		CMP.W	R13, R9 { JHS	.L26
 306               	.L41:
 307 00e6 B013 0000 		CALLA	#port_unlock
 308               	.L21:
 309 00ea CC04      		MOVA	R4, R12
 310               		; start of epilogue
 311 00ec A100 0600 		ADDA	#6, R1
 312 00f0 6416      		POPM.A	#7, r10
 313 00f2 1001      		RETA
 314               		.size	iqReadTimeout, .-iqReadTimeout
 315               		.section	.text.oqObjectInit,"ax",@progbits
 316               		.balign 2
 317               		.global	oqObjectInit
 318               		.type	oqObjectInit, @function
 319               	oqObjectInit:
GAS LISTING /tmp/ccKiKIAM.s 			page 7


 320               	; start of function
 321               	; framesize_regs:     4
 322               	; framesize_locals:   4
 323               	; framesize_outgoing: 0
 324               	; framesize:          8
 325               	; elim ap -> fp       8
 326               	; elim fp -> sp       4
 327               	; saved regs: R10
 328               		; start of prologue
 329 0000 0A14      		PUSHM.A	#1, R10
 330 0002 B100 0400 		SUBA	#4, R1
 331               		; end of prologue
 332 0006 CA0D      		MOVA	R13, R10
 333 0008 710E 0000 		MOVA	R14, @R1
 334 000c 8C43 0000 		MOV.W	#0, @R12
 335 0010 AC41 0200 		MOV.W	@R1, 2(R12)
 336 0014 1D41 0200 		MOV.W	2(R1), R13
 337 0018 7DF0 0F00 		AND.B	#15, R13
 338 001c 1E4C 0400 		MOV.W	4(R12), R14
 339 0020 3EF0 F0FF 		AND.W	#-16, R14
 340 0024 0EDD      		BIS.W	R13, R14
 341 0026 8C4E 0400 		MOV.W	R14, 4(R12)
 342 002a 7C0A 0600 		MOVA	R10, 6(R12)
 343 002e 7C0A 1200 		MOVA	R10, 18(R12)
 344 0032 7C0A 0E00 		MOVA	R10, 14(R12)
 345 0036 0018 6A51 		ADDX.A	@R1, R10
 346 003a 7C0A 0A00 		MOVA	R10, 10(R12)
 347 003e 7C0F 1600 		MOVA	R15, 22(R12)
 348 0042 0018 DC41 		MOVX.A	12(R1), 26(R12)
 348      0C00 1A00 
 349               		; start of epilogue
 350 004a A100 0400 		ADDA	#4, R1
 351 004e 0A16      		POPM.A	#1, r10
 352 0050 1001      		RETA
 353               		.size	oqObjectInit, .-oqObjectInit
 354               		.section	.text.oqResetI,"ax",@progbits
 355               		.balign 2
 356               		.global	oqResetI
 357               		.type	oqResetI, @function
 358               	oqResetI:
 359               	; start of function
 360               	; framesize_regs:     4
 361               	; framesize_locals:   4
 362               	; framesize_outgoing: 0
 363               	; framesize:          8
 364               	; elim ap -> fp       8
 365               	; elim fp -> sp       4
 366               	; saved regs: R10
 367               		; start of prologue
 368 0000 0A14      		PUSHM.A	#1, R10
 369 0002 B100 0400 		SUBA	#4, R1
 370               		; end of prologue
 371 0006 3A0C 0600 		MOVA	6(R12), R10
 372 000a 7C0A 1200 		MOVA	R10, 18(R12)
 373 000e 7C0A 0E00 		MOVA	R10, 14(R12)
 374 0012 3D0C 0A00 		MOVA	10(R12), R13
 375 0016 FD0A      		SUBA	R10, R13
GAS LISTING /tmp/ccKiKIAM.s 			page 8


 376 0018 710D 0000 		MOVA	R13, @R1
 377 001c 8C4D 0200 		MOV.W	R13, 2(R12)
 378 0020 1D41 0200 		MOV.W	2(R1), R13
 379 0024 7DF0 0F00 		AND.B	#15, R13
 380 0028 1F4C 0400 		MOV.W	4(R12), R15
 381 002c 3FF0 F0FF 		AND.W	#-16, R15
 382 0030 0FDD      		BIS.W	R13, R15
 383 0032 8C4F 0400 		MOV.W	R15, 4(R12)
 384 0036 8D0F FEFF 		MOVA	#-2, R13
 385 003a B013 0000 		CALLA	#osalThreadDequeueAllI
 386               		; start of epilogue
 387 003e A100 0400 		ADDA	#4, R1
 388 0042 0A16      		POPM.A	#1, r10
 389 0044 1001      		RETA
 390               		.size	oqResetI, .-oqResetI
 391               		.section	.text.oqPutTimeout,"ax",@progbits
 392               		.balign 2
 393               		.global	oqPutTimeout
 394               		.type	oqPutTimeout, @function
 395               	oqPutTimeout:
 396               	; start of function
 397               	; framesize_regs:     16
 398               	; framesize_locals:   8
 399               	; framesize_outgoing: 0
 400               	; framesize:          24
 401               	; elim ap -> fp       20
 402               	; elim fp -> sp       8
 403               	; saved regs: R7 R8 R9 R10
 404               		; start of prologue
 405 0000 3A14      		PUSHM.A	#4, R10
 406 0002 B100 0800 		SUBA	#8, R1
 407               		; end of prologue
 408 0006 CA0C      		MOVA	R12, R10
 409 0008 494D      		MOV.B	R13, R9
 410 000a 074E      		MOV.W	R14, R7
 411 000c B013 0000 		CALLA	#port_lock
 412 0010 8800 0000 		MOVA	#chSemWaitTimeoutS, R8
 413               	.L45:
 414 0014 3C0A 0200 		MOVA	2(R10), R12
 415 0018 9C00 0000 		CMPA	#0, R12 { JEQ	.L47
 415      0024 
 416 001e 3C0A 0200 		MOVA	2(R10), R12
 417 0022 AC0F FFFF 		ADDA	#-1, R12
 418 0026 710C 0400 		MOVA	R12, 4(R1)
 419 002a 8A4C 0200 		MOV.W	R12, 2(R10)
 420 002e 1C41 0600 		MOV.W	6(R1), R12
 421 0032 7CF0 0F00 		AND.B	#15, R12
 422 0036 1D4A 0400 		MOV.W	4(R10), R13
 423 003a 3DF0 F0FF 		AND.W	#-16, R13
 424 003e 0DDC      		BIS.W	R12, R13
 425 0040 8A4D 0400 		MOV.W	R13, 4(R10)
 426 0044 3C0A 0E00 		MOVA	14(R10), R12
 427 0048 CD0C      		MOVA	R12, R13
 428 004a AD00 0100 		ADDA	#1, R13
 429 004e 7A0D 0E00 		MOVA	R13, 14(R10)
 430 0052 CC49 0000 		MOV.B	R9, @R12
 431 0056 0018 DA9A 		CMPX.A	10(R10), 14(R10) { JLO	.L48
GAS LISTING /tmp/ccKiKIAM.s 			page 9


 431      0A00 0E00 
 431      0028 
 432 0060 0018 DA4A 		MOVX.A	6(R10), 14(R10)
 432      0600 0E00 
 433               	.L48:
 434 0068 3E0A 1600 		MOVA	22(R10), R14
 435 006c 9E00 0000 		CMPA	#0, R14 { JEQ	.L49
 435      0024 
 436 0072 CC0A      		MOVA	R10, R12
 437 0074 4E13      		CALLA	R14
 438               	.L49:
 439 0076 B013 0000 		CALLA	#port_unlock
 440 007a 4C43      		MOV.B	#0, R12
 441 007c 8000 0000 		BRA	#.L44
 442               	.L47:
 443 0080 0D47      		MOV.W	R7, R13
 444 0082 CC0A      		MOVA	R10, R12
 445 0084 4813      		CALLA	R8
 446 0086 9C00 0000 		CMPA	#0, R12 { JGE	.L45
 446      0034 
 447 008c 710C 0000 		MOVA	R12, @R1
 448 0090 B013 0000 		CALLA	#port_unlock
 449 0094 0C01      		MOVA	@R1, R12
 450               	.L44:
 451               		; start of epilogue
 452 0096 A100 0800 		ADDA	#8, R1
 453 009a 3716      		POPM.A	#4, r10
 454 009c 1001      		RETA
 455               		.size	oqPutTimeout, .-oqPutTimeout
 456               		.section	.text.oqGetI,"ax",@progbits
 457               		.balign 2
 458               		.global	oqGetI
 459               		.type	oqGetI, @function
 460               	oqGetI:
 461               	; start of function
 462               	; framesize_regs:     8
 463               	; framesize_locals:   4
 464               	; framesize_outgoing: 0
 465               	; framesize:          12
 466               	; elim ap -> fp       12
 467               	; elim fp -> sp       4
 468               	; saved regs: R8 R10
 469               		; start of prologue
 470 0000 0A14      		PUSHM.A	#1, R10
 471 0002 0814      		PUSHM.A	#1, R8
 472 0004 B100 0400 		SUBA	#4, R1
 473               		; end of prologue
 474 0008 3E0C 1200 		MOVA	18(R12), R14
 475 000c 0018 CC9E 		CMPX.A	R14, 14(R12) { JNE	.L55
 475      0E00 0020 
 476 0014 3A0C 0200 		MOVA	2(R12), R10
 477 0018 9A00 0000 		CMPA	#0, R10 { JNE	.L59
 477      0020 
 478               	.L55:
 479 001e 3D0C 0200 		MOVA	2(R12), R13
 480 0022 AD00 0100 		ADDA	#1, R13
 481 0026 710D 0000 		MOVA	R13, @R1
GAS LISTING /tmp/ccKiKIAM.s 			page 10


 482 002a 8C4D 0200 		MOV.W	R13, 2(R12)
 483 002e 1D41 0200 		MOV.W	2(R1), R13
 484 0032 7DF0 0F00 		AND.B	#15, R13
 485 0036 1F4C 0400 		MOV.W	4(R12), R15
 486 003a 3FF0 F0FF 		AND.W	#-16, R15
 487 003e 0FDD      		BIS.W	R13, R15
 488 0040 8C4F 0400 		MOV.W	R15, 4(R12)
 489 0044 C80E      		MOVA	R14, R8
 490 0046 A800 0100 		ADDA	#1, R8
 491 004a 7C08 1200 		MOVA	R8, 18(R12)
 492 004e 6A4E      		MOV.B	@R14, R10
 493 0050 0018 589C 		CMPX.A	10(R12), R8 { JLO	.L58
 493      0A00 0028 
 494 0058 0018 DC4C 		MOVX.A	6(R12), 18(R12)
 494      0600 1200 
 495               	.L58:
 496 0060 4D43      		MOV.B	#0, R13
 497 0062 B013 0000 		CALLA	#osalThreadDequeueNextI
 498 0066 4018 0C4A 		MOVX	R10, R12
 499               	.L54:
 500               		; start of epilogue
 501 006a A100 0400 		ADDA	#4, R1
 502 006e 0816      		POPM.A	#1, r8
 503 0070 0A16      		POPM.A	#1, r10
 504 0072 1001      		RETA
 505               	.L59:
 506 0074 8C0F FFFF 		MOVA	#-1, R12
 507 0078 8000 0000 		BRA	#.L54
 508               		.size	oqGetI, .-oqGetI
 509               		.section	.text.oqWriteTimeout,"ax",@progbits
 510               		.balign 2
 511               		.global	oqWriteTimeout
 512               		.type	oqWriteTimeout, @function
 513               	oqWriteTimeout:
 514               	; start of function
 515               	; framesize_regs:     28
 516               	; framesize_locals:   6
 517               	; framesize_outgoing: 0
 518               	; framesize:          34
 519               	; elim ap -> fp       32
 520               	; elim fp -> sp       6
 521               	; saved regs: R4 R5 R6 R7 R8 R9 R10
 522               		; start of prologue
 523 0000 6A14      		PUSHM.A	#7, R10
 524 0002 B100 0600 		SUBA	#6, R1
 525               		; end of prologue
 526 0006 CA0C      		MOVA	R12, R10
 527 0008 C60D      		MOVA	R13, R6
 528 000a C50E      		MOVA	R14, R5
 529 000c 094F      		MOV.W	R15, R9
 530 000e 370C 1600 		MOVA	22(R12), R7
 531 0012 9E00 0000 		CMPA	#0, R14 { JNE	.L61
 531      0020 
 532 0018 8C00 0000 		MOVA	#__func__.3764, R12
 533 001c B013 0000 		CALLA	#chSysHalt
 534               	.L61:
 535 0020 8800 0000 		MOVA	#port_lock, R8
GAS LISTING /tmp/ccKiKIAM.s 			page 11


 536 0024 4813      		CALLA	R8
 537 0026 8C00 0000 		MOVA	#nil, R12
 538 002a 0D49      		MOV.W	R9, R13
 539 002c 1D5C 0800 		ADD.W	8(R12), R13
 540 0030 814D 0400 		MOV.W	R13, 4(R1)
 541 0034 4443      		MOV.B	#0, R4
 542               	.L62:
 543 0036 3C0A 0200 		MOVA	2(R10), R12
 544 003a 9C00 0000 		CMPA	#0, R12 { JEQ	.L68
 544      0024 
 545 0040 3C0A 0200 		MOVA	2(R10), R12
 546 0044 AC0F FFFF 		ADDA	#-1, R12
 547 0048 710C 0000 		MOVA	R12, @R1
 548 004c 8A4C 0200 		MOV.W	R12, 2(R10)
 549 0050 1C41 0200 		MOV.W	2(R1), R12
 550 0054 7CF0 0F00 		AND.B	#15, R12
 551 0058 1D4A 0400 		MOV.W	4(R10), R13
 552 005c 3DF0 F0FF 		AND.W	#-16, R13
 553 0060 0DDC      		BIS.W	R12, R13
 554 0062 8A4D 0400 		MOV.W	R13, 4(R10)
 555 0066 3C0A 0E00 		MOVA	14(R10), R12
 556 006a CD0C      		MOVA	R12, R13
 557 006c AD00 0100 		ADDA	#1, R13
 558 0070 7A0D 0E00 		MOVA	R13, 14(R10)
 559 0074 CD06      		MOVA	R6, R13
 560 0076 AD00 0100 		ADDA	#1, R13
 561 007a 710D 0000 		MOVA	R13, @R1
 562 007e EC46 0000 		MOV.B	@R6, @R12
 563 0082 0018 DA9A 		CMPX.A	10(R10), 14(R10) { JLO	.L69
 563      0A00 0E00 
 563      0028 
 564 008c 0018 DA4A 		MOVX.A	6(R10), 14(R10)
 564      0600 0E00 
 565               	.L69:
 566 0094 9700 0000 		CMPA	#0, R7 { JEQ	.L70
 566      0024 
 567 009a CC0A      		MOVA	R10, R12
 568 009c 4713      		CALLA	R7
 569               	.L70:
 570 009e B013 0000 		CALLA	#port_unlock
 571 00a2 A400 0100 		ADDA	#1, R4
 572 00a6 A50F FFFF 		ADDA	#-1, R5
 573 00aa 9500 0000 		CMPA	#0, R5 { JEQ	.L60
 573      0024 
 574 00b0 4813      		CALLA	R8
 575 00b2 0601      		MOVA	@R1, R6
 576 00b4 8000 0000 		BRA	#.L62
 577               	.L68:
 578 00b8 0C49      		MOV.W	R9, R12
 579 00ba 3C53      		ADD.W	#-1, R12
 580 00bc 3D40 FDFF 		MOV.W	#-3, R13
 581 00c0 0D9C 002C 		CMP.W	R12, R13 { JHS	.L63
 582 00c4 0D49      		MOV.W	R9, R13
 583               	.L65:
 584 00c6 CC0A      		MOVA	R10, R12
 585 00c8 B013 0000 		CALLA	#chSemWaitTimeoutS
 586 00cc 9C00 0000 		CMPA	#0, R12 { JEQ	.L62
GAS LISTING /tmp/ccKiKIAM.s 			page 12


 586      0024 
 587 00d2 8000 0000 		BRA	#.L80
 588               	.L63:
 589 00d6 4018 1C42 		MOVX.W	&nil+8, R12
 589      0000 
 590 00dc 1D41 0400 		MOV.W	4(R1), R13
 591 00e0 0D8C      		SUB.W	R12, R13
 592 00e2 099D 002C 		CMP.W	R13, R9 { JHS	.L65
 593               	.L80:
 594 00e6 B013 0000 		CALLA	#port_unlock
 595               	.L60:
 596 00ea CC04      		MOVA	R4, R12
 597               		; start of epilogue
 598 00ec A100 0600 		ADDA	#6, R1
 599 00f0 6416      		POPM.A	#7, r10
 600 00f2 1001      		RETA
 601               		.size	oqWriteTimeout, .-oqWriteTimeout
 602               		.section	.upper.rodata,"a",@progbits
 603               		.type	__func__.3764, @object
 604               		.size	__func__.3764, 15
 605               	__func__.3764:
 606 0000 6F71 5772 		.string	"oqWriteTimeout"
 606      6974 6554 
 606      696D 656F 
 606      7574 00
 607               		.type	__func__.3725, @object
 608               		.size	__func__.3725, 14
 609               	__func__.3725:
 610 000f 6971 5265 		.string	"iqReadTimeout"
 610      6164 5469 
 610      6D65 6F75 
 610      7400 
 611               		.ident	"GCC: (SOMNIUM Technologies Limited - msp430-gcc 6.2.1.16) 6.2.1 20161212"
GAS LISTING /tmp/ccKiKIAM.s 			page 13


DEFINED SYMBOLS
                            *ABS*:0000000000000000 hal_queues.c
     /tmp/ccKiKIAM.s:5      .text.port_lock:0000000000000000 port_lock
     /tmp/ccKiKIAM.s:28     .text.port_unlock:0000000000000000 port_unlock
     /tmp/ccKiKIAM.s:52     .text.iqObjectInit:0000000000000000 iqObjectInit
     /tmp/ccKiKIAM.s:83     .text.iqResetI:0000000000000000 iqResetI
     /tmp/ccKiKIAM.s:110    .text.iqPutI:0000000000000000 iqPutI
     /tmp/ccKiKIAM.s:162    .text.iqGetTimeout:0000000000000000 iqGetTimeout
     /tmp/ccKiKIAM.s:226    .text.iqReadTimeout:0000000000000000 iqReadTimeout
     /tmp/ccKiKIAM.s:609    .upper.rodata:000000000000000f __func__.3725
     /tmp/ccKiKIAM.s:319    .text.oqObjectInit:0000000000000000 oqObjectInit
     /tmp/ccKiKIAM.s:358    .text.oqResetI:0000000000000000 oqResetI
     /tmp/ccKiKIAM.s:395    .text.oqPutTimeout:0000000000000000 oqPutTimeout
     /tmp/ccKiKIAM.s:460    .text.oqGetI:0000000000000000 oqGetI
     /tmp/ccKiKIAM.s:513    .text.oqWriteTimeout:0000000000000000 oqWriteTimeout
     /tmp/ccKiKIAM.s:605    .upper.rodata:0000000000000000 __func__.3764
     /tmp/ccKiKIAM.s:128    .text.iqPutI:0000000000000020 .L6
     /tmp/ccKiKIAM.s:154    .text.iqPutI:0000000000000076 .L10
     /tmp/ccKiKIAM.s:145    .text.iqPutI:0000000000000066 .L9
     /tmp/ccKiKIAM.s:149    .text.iqPutI:000000000000006e .L5
     /tmp/ccKiKIAM.s:208    .text.iqGetTimeout:000000000000007c .L14
     /tmp/ccKiKIAM.s:199    .text.iqGetTimeout:0000000000000062 .L15
     /tmp/ccKiKIAM.s:204    .text.iqGetTimeout:0000000000000070 .L16
     /tmp/ccKiKIAM.s:216    .text.iqGetTimeout:0000000000000092 .L11
     /tmp/ccKiKIAM.s:179    .text.iqGetTimeout:0000000000000012 .L12
     /tmp/ccKiKIAM.s:247    .text.iqReadTimeout:0000000000000020 .L22
     /tmp/ccKiKIAM.s:290    .text.iqReadTimeout:00000000000000b8 .L29
     /tmp/ccKiKIAM.s:278    .text.iqReadTimeout:0000000000000094 .L30
     /tmp/ccKiKIAM.s:282    .text.iqReadTimeout:000000000000009e .L31
     /tmp/ccKiKIAM.s:308    .text.iqReadTimeout:00000000000000ea .L21
     /tmp/ccKiKIAM.s:255    .text.iqReadTimeout:0000000000000036 .L23
     /tmp/ccKiKIAM.s:301    .text.iqReadTimeout:00000000000000d6 .L24
     /tmp/ccKiKIAM.s:306    .text.iqReadTimeout:00000000000000e6 .L41
     /tmp/ccKiKIAM.s:296    .text.iqReadTimeout:00000000000000c6 .L26
     /tmp/ccKiKIAM.s:442    .text.oqPutTimeout:0000000000000080 .L47
     /tmp/ccKiKIAM.s:433    .text.oqPutTimeout:0000000000000068 .L48
     /tmp/ccKiKIAM.s:438    .text.oqPutTimeout:0000000000000076 .L49
     /tmp/ccKiKIAM.s:450    .text.oqPutTimeout:0000000000000096 .L44
     /tmp/ccKiKIAM.s:413    .text.oqPutTimeout:0000000000000014 .L45
     /tmp/ccKiKIAM.s:478    .text.oqGetI:000000000000001e .L55
     /tmp/ccKiKIAM.s:505    .text.oqGetI:0000000000000074 .L59
     /tmp/ccKiKIAM.s:495    .text.oqGetI:0000000000000060 .L58
     /tmp/ccKiKIAM.s:499    .text.oqGetI:000000000000006a .L54
     /tmp/ccKiKIAM.s:534    .text.oqWriteTimeout:0000000000000020 .L61
     /tmp/ccKiKIAM.s:577    .text.oqWriteTimeout:00000000000000b8 .L68
     /tmp/ccKiKIAM.s:565    .text.oqWriteTimeout:0000000000000094 .L69
     /tmp/ccKiKIAM.s:569    .text.oqWriteTimeout:000000000000009e .L70
     /tmp/ccKiKIAM.s:595    .text.oqWriteTimeout:00000000000000ea .L60
     /tmp/ccKiKIAM.s:542    .text.oqWriteTimeout:0000000000000036 .L62
     /tmp/ccKiKIAM.s:588    .text.oqWriteTimeout:00000000000000d6 .L63
     /tmp/ccKiKIAM.s:593    .text.oqWriteTimeout:00000000000000e6 .L80
     /tmp/ccKiKIAM.s:583    .text.oqWriteTimeout:00000000000000c6 .L65

UNDEFINED SYMBOLS
osalThreadDequeueAllI
osalThreadDequeueNextI
chSemWaitTimeoutS
GAS LISTING /tmp/ccKiKIAM.s 			page 14


chSysHalt
nil
