GAS LISTING /tmp/ccFRuJws.s 			page 1


   1               		.file	"hal_uart_lld.c"
   2               		.section	.text.UCBRS,"ax",@progbits
   3               		.balign 2
   4               		.type	UCBRS, @function
   5               	UCBRS:
   6               	; start of function
   7               	; framesize_regs:     0
   8               	; framesize_locals:   0
   9               	; framesize_outgoing: 0
  10               	; framesize:          0
  11               	; elim ap -> fp       4
  12               	; elim fp -> sp       0
  13               	; saved regs:(none)
  14               		; start of prologue
  15               		; end of prologue
  16 0000 3D40 1002 		MOV.W	#528, R13
  17 0004 0D9C 002C 		CMP.W	R12, R13 { JHS	.L3
  18 0008 3D40 CA02 		MOV.W	#714, R13
  19 000c 0D9C 002C 		CMP.W	R12, R13 { JHS	.L4
  20 0010 3D40 4203 		MOV.W	#834, R13
  21 0014 0D9C 002C 		CMP.W	R12, R13 { JHS	.L5
  22 0018 3D40 E803 		MOV.W	#1000, R13
  23 001c 0D9C 002C 		CMP.W	R12, R13 { JHS	.L6
  24 0020 3D40 E304 		MOV.W	#1251, R13
  25 0024 0D9C 002C 		CMP.W	R12, R13 { JHS	.L7
  26 0028 3D40 9505 		MOV.W	#1429, R13
  27 002c 0D9C 002C 		CMP.W	R12, R13 { JHS	.L8
  28 0030 3D40 8506 		MOV.W	#1669, R13
  29 0034 0D9C 002C 		CMP.W	R12, R13 { JHS	.L9
  30 0038 3D40 6208 		MOV.W	#2146, R13
  31 003c 0D9C 002C 		CMP.W	R12, R13 { JHS	.L10
  32 0040 3D40 AF08 		MOV.W	#2223, R13
  33 0044 0D9C 002C 		CMP.W	R12, R13 { JHS	.L11
  34 0048 3D40 C609 		MOV.W	#2502, R13
  35 004c 0D9C 002C 		CMP.W	R12, R13 { JHS	.L12
  36 0050 3D40 B70B 		MOV.W	#2999, R13
  37 0054 0D9C 002C 		CMP.W	R12, R13 { JHS	.L13
  38 0058 3D40 060D 		MOV.W	#3334, R13
  39 005c 0D9C 002C 		CMP.W	R12, R13 { JHS	.L14
  40 0060 3D40 F60D 		MOV.W	#3574, R13
  41 0064 0D9C 002C 		CMP.W	R12, R13 { JHS	.L15
  42 0068 3D40 A80E 		MOV.W	#3752, R13
  43 006c 0D9C 002C 		CMP.W	R12, R13 { JHS	.L16
  44 0070 3D40 A20F 		MOV.W	#4002, R13
  45 0074 0D9C 002C 		CMP.W	R12, R13 { JHS	.L17
  46 0078 3D40 BD10 		MOV.W	#4285, R13
  47 007c 0D9C 002C 		CMP.W	R12, R13 { JHS	.L18
  48 0080 3D40 1911 		MOV.W	#4377, R13
  49 0084 0D9C 002C 		CMP.W	R12, R13 { JHS	.L19
  50 0088 3D40 8913 		MOV.W	#5001, R13
  51 008c 0D9C 002C 		CMP.W	R12, R13 { JHS	.L20
  52 0090 3D40 5216 		MOV.W	#5714, R13
  53 0094 0D9C 002C 		CMP.W	R12, R13 { JHS	.L21
  54 0098 3D40 7217 		MOV.W	#6002, R13
  55 009c 0D9C 002C 		CMP.W	R12, R13 { JHS	.L22
  56 00a0 3D40 6D18 		MOV.W	#6253, R13
  57 00a4 0D9C 002C 		CMP.W	R12, R13 { JHS	.L23
GAS LISTING /tmp/ccFRuJws.s 			page 2


  58 00a8 3D40 1F19 		MOV.W	#6431, R13
  59 00ac 0D9C 002C 		CMP.W	R12, R13 { JHS	.L24
  60 00b0 3D40 0A1A 		MOV.W	#6666, R13
  61 00b4 0D9C 002C 		CMP.W	R12, R13 { JHS	.L25
  62 00b8 3D40 581B 		MOV.W	#7000, R13
  63 00bc 0D9C 002C 		CMP.W	R12, R13 { JHS	.L26
  64 00c0 3D40 EA1B 		MOV.W	#7146, R13
  65 00c4 0D9C 002C 		CMP.W	R12, R13 { JHS	.L27
  66 00c8 3D40 4E1D 		MOV.W	#7502, R13
  67 00cc 0D9C 002C 		CMP.W	R12, R13 { JHS	.L28
  68 00d0 3D40 B41E 		MOV.W	#7860, R13
  69 00d4 0D9C 002C 		CMP.W	R12, R13 { JHS	.L29
  70 00d8 3D40 431F 		MOV.W	#8003, R13
  71 00dc 0D9C 002C 		CMP.W	R12, R13 { JHS	.L30
  72 00e0 3D40 8C20 		MOV.W	#8332, R13
  73 00e4 0D9C 002C 		CMP.W	R12, R13 { JHS	.L31
  74 00e8 3D40 0F21 		MOV.W	#8463, R13
  75 00ec 0D9C 002C 		CMP.W	R12, R13 { JHS	.L32
  76 00f0 3D40 7B21 		MOV.W	#8571, R13
  77 00f4 0D9C 002C 		CMP.W	R12, R13 { JHS	.L33
  78 00f8 3D40 2E22 		MOV.W	#8750, R13
  79 00fc 0D9C 002C 		CMP.W	R12, R13 { JHS	.L34
  80 0100 3D40 2B23 		MOV.W	#9003, R13
  81 0104 0D9C 002C 		CMP.W	R12, R13 { JHS	.L35
  82 0108 3D40 D123 		MOV.W	#9169, R13
  83 010c 0D9C 002C 		CMP.W	R12, R13 { JHS	.L36
  84 0110 3D40 4724 		MOV.W	#9287, R13
  85 0114 0D9C 002C 		CMP.W	R12, R13 { JHS	.L37
  86 0118 7C40 FE00 		MOV.B	#254, R12
  87               	.L2:
  88               		; start of epilogue
  89 011c 1001      		RETA
  90               	.L3:
  91 011e 4C43      		MOV.B	#0, R12
  92 0120 8000 0000 		BRA	#.L2
  93               	.L4:
  94 0124 5C43      		MOV.B	#1, R12
  95 0126 8000 0000 		BRA	#.L2
  96               	.L5:
  97 012a 6C43      		MOV.B	#2, R12
  98 012c 8000 0000 		BRA	#.L2
  99               	.L6:
 100 0130 6C42      		MOV.B	#4, R12
 101 0132 8000 0000 		BRA	#.L2
 102               	.L7:
 103 0136 7C42      		MOV.B	#8, R12
 104 0138 8000 0000 		BRA	#.L2
 105               	.L8:
 106 013c 7C40 1000 		MOV.B	#16, R12
 107 0140 8000 0000 		BRA	#.L2
 108               	.L9:
 109 0144 7C40 2000 		MOV.B	#32, R12
 110 0148 8000 0000 		BRA	#.L2
 111               	.L10:
 112 014c 7C40 1100 		MOV.B	#17, R12
 113 0150 8000 0000 		BRA	#.L2
 114               	.L11:
GAS LISTING /tmp/ccFRuJws.s 			page 3


 115 0154 7C40 2100 		MOV.B	#33, R12
 116 0158 8000 0000 		BRA	#.L2
 117               	.L12:
 118 015c 7C40 2200 		MOV.B	#34, R12
 119 0160 8000 0000 		BRA	#.L2
 120               	.L13:
 121 0164 7C40 4400 		MOV.B	#68, R12
 122 0168 8000 0000 		BRA	#.L2
 123               	.L14:
 124 016c 7C40 2500 		MOV.B	#37, R12
 125 0170 8000 0000 		BRA	#.L2
 126               	.L15:
 127 0174 7C40 4900 		MOV.B	#73, R12
 128 0178 8000 0000 		BRA	#.L2
 129               	.L16:
 130 017c 7C40 4A00 		MOV.B	#74, R12
 131 0180 8000 0000 		BRA	#.L2
 132               	.L17:
 133 0184 7C40 5200 		MOV.B	#82, R12
 134 0188 8000 0000 		BRA	#.L2
 135               	.L18:
 136 018c 7C40 9200 		MOV.B	#146, R12
 137 0190 8000 0000 		BRA	#.L2
 138               	.L19:
 139 0194 7C40 5300 		MOV.B	#83, R12
 140 0198 8000 0000 		BRA	#.L2
 141               	.L20:
 142 019c 7C40 5500 		MOV.B	#85, R12
 143 01a0 8000 0000 		BRA	#.L2
 144               	.L21:
 145 01a4 7C40 AA00 		MOV.B	#170, R12
 146 01a8 8000 0000 		BRA	#.L2
 147               	.L22:
 148 01ac 7C40 6B00 		MOV.B	#107, R12
 149 01b0 8000 0000 		BRA	#.L2
 150               	.L23:
 151 01b4 7C40 AD00 		MOV.B	#173, R12
 152 01b8 8000 0000 		BRA	#.L2
 153               	.L24:
 154 01bc 7C40 B500 		MOV.B	#181, R12
 155 01c0 8000 0000 		BRA	#.L2
 156               	.L25:
 157 01c4 7C40 B600 		MOV.B	#182, R12
 158 01c8 8000 0000 		BRA	#.L2
 159               	.L26:
 160 01cc 7C40 D600 		MOV.B	#214, R12
 161 01d0 8000 0000 		BRA	#.L2
 162               	.L27:
 163 01d4 7C40 B700 		MOV.B	#183, R12
 164 01d8 8000 0000 		BRA	#.L2
 165               	.L28:
 166 01dc 7C40 BB00 		MOV.B	#187, R12
 167 01e0 8000 0000 		BRA	#.L2
 168               	.L29:
 169 01e4 7C40 DD00 		MOV.B	#221, R12
 170 01e8 8000 0000 		BRA	#.L2
 171               	.L30:
GAS LISTING /tmp/ccFRuJws.s 			page 4


 172 01ec 7C40 ED00 		MOV.B	#237, R12
 173 01f0 8000 0000 		BRA	#.L2
 174               	.L31:
 175 01f4 7C40 EE00 		MOV.B	#238, R12
 176 01f8 8000 0000 		BRA	#.L2
 177               	.L32:
 178 01fc 7C40 BF00 		MOV.B	#191, R12
 179 0200 8000 0000 		BRA	#.L2
 180               	.L33:
 181 0204 7C40 DF00 		MOV.B	#223, R12
 182 0208 8000 0000 		BRA	#.L2
 183               	.L34:
 184 020c 7C40 EF00 		MOV.B	#239, R12
 185 0210 8000 0000 		BRA	#.L2
 186               	.L35:
 187 0214 7C40 F700 		MOV.B	#247, R12
 188 0218 8000 0000 		BRA	#.L2
 189               	.L36:
 190 021c 7C40 FB00 		MOV.B	#251, R12
 191 0220 8000 0000 		BRA	#.L2
 192               	.L37:
 193 0224 7C40 FD00 		MOV.B	#253, R12
 194 0228 8000 0000 		BRA	#.L2
 195               		.size	UCBRS, .-UCBRS
 196               		.section	.text.rx_cb,"ax",@progbits
 197               		.balign 2
 198               		.type	rx_cb, @function
 199               	rx_cb:
 200               	; start of function
 201               	; framesize_regs:     4
 202               	; framesize_locals:   0
 203               	; framesize_outgoing: 0
 204               	; framesize:          4
 205               	; elim ap -> fp       8
 206               	; elim fp -> sp       0
 207               	; saved regs: R10
 208               		; start of prologue
 209 0000 0A14      		PUSHM.A	#1, R10
 210               		; end of prologue
 211 0002 CA0C      		MOVA	R12, R10
 212 0004 EC43 0200 		MOV.B	#2, 2(R12)
 213 0008 3E0C 0400 		MOVA	4(R12), R14
 214 000c 3E0E 0800 		MOVA	8(R14), R14
 215 0010 9E00 0000 		CMPA	#0, R14 { JEQ	.L39
 215      0024 
 216 0016 4E13      		CALLA	R14
 217               	.L39:
 218 0018 EA93 0200 		CMP.B	#2, 2(R10) { JNE	.L40
 218      0020 
 219 001e CA43 0200 		MOV.B	#0, 2(R10)
 220 0022 3C0A 1600 		MOVA	22(R10), R12
 221 0026 9CD3 1A00 		BIS.W	#1, 26(R12)
 222               	.L40:
 223 002a 4D43      		MOV.B	#0, R13
 224 002c CC0A      		MOVA	R10, R12
 225 002e AC00 0A00 		ADDA	#10, R12
 226 0032 B013 0000 		CALLA	#chThdResumeI
GAS LISTING /tmp/ccFRuJws.s 			page 5


 227 0036 CA93 0200 		CMP.B	#0, 2(R10) { JNE	.L38
 227      0020 
 228 003c 3C0A 0400 		MOVA	4(R10), R12
 229 0040 7D40 2F00 		MOV.B	#47, R13
 230 0044 5D9C 1900 		CMP.B	25(R12), R13 { JHS	.L38
 230      002C 
 231 004a CC0A      		MOVA	R10, R12
 232 004c AC00 5800 		ADDA	#88, R12
 233 0050 B013 0000 		CALLA	#dmaReleaseX
 234 0054 CA43 6300 		MOV.B	#0, 99(R10)
 235               	.L38:
 236               		; start of epilogue
 237 0058 0A16      		POPM.A	#1, r10
 238 005a 1001      		RETA
 239               		.size	rx_cb, .-rx_cb
 240               		.section	.text.tx_cb,"ax",@progbits
 241               		.balign 2
 242               		.type	tx_cb, @function
 243               	tx_cb:
 244               	; start of function
 245               	; framesize_regs:     4
 246               	; framesize_locals:   0
 247               	; framesize_outgoing: 0
 248               	; framesize:          4
 249               	; elim ap -> fp       8
 250               	; elim fp -> sp       0
 251               	; saved regs: R10
 252               		; start of prologue
 253 0000 0A14      		PUSHM.A	#1, R10
 254               		; end of prologue
 255 0002 CA0C      		MOVA	R12, R10
 256 0004 EC43 0100 		MOV.B	#2, 1(R12)
 257 0008 3E0C 0400 		MOVA	4(R12), R14
 258 000c 0E0E      		MOVA	@R14, R14
 259 000e 9E00 0000 		CMPA	#0, R14 { JEQ	.L46
 259      0024 
 260 0014 4E13      		CALLA	R14
 261               	.L46:
 262 0016 EA93 0100 		CMP.B	#2, 1(R10) { JNE	.L47
 262      0020 
 263 001c CA43 0100 		MOV.B	#0, 1(R10)
 264               	.L47:
 265 0020 CA93 0800 		CMP.B	#0, 8(R10) { JEQ	.L48
 265      0024 
 266 0026 4D43      		MOV.B	#0, R13
 267 0028 CC0A      		MOVA	R10, R12
 268 002a AC00 0E00 		ADDA	#14, R12
 269 002e B013 0000 		CALLA	#chThdResumeI
 270               	.L48:
 271 0032 CA93 0100 		CMP.B	#0, 1(R10) { JNE	.L45
 271      0020 
 272 0038 3C0A 1600 		MOVA	22(R10), R12
 273               	.L51:
 274 003c 4018 BCB2 		BITX.W	#8, 28(R12) { JEQ	.L51
 274      1C00 0024 
 275 0044 BCC2 1C00 		BIC.W	#8, 28(R12)
 276 0048 BCD2 1A00 		BIS.W	#8, 26(R12)
GAS LISTING /tmp/ccFRuJws.s 			page 6


 277 004c 3C0A 0400 		MOVA	4(R10), R12
 278 0050 5C4C 1900 		MOV.B	25(R12), R12
 279 0054 7CF0 0F00 		AND.B	#15, R12
 280 0058 6D43      		MOV.B	#2, R13
 281 005a 0D9C 0034 		CMP.W	R12, R13 { JGE	.L45
 282 005e CC0A      		MOVA	R10, R12
 283 0060 AC00 4E00 		ADDA	#78, R12
 284 0064 B013 0000 		CALLA	#dmaReleaseX
 285 0068 CA43 6200 		MOV.B	#0, 98(R10)
 286               	.L45:
 287               		; start of epilogue
 288 006c 0A16      		POPM.A	#1, r10
 289 006e 1001      		RETA
 290               		.size	tx_cb, .-tx_cb
 291               		.section	.lower.lowtext,"ax",@progbits
 292               		.balign 2
 293               		.global	ISR_USCI_A1_VECTOR
 294               		.section	__interrupt_vector_44,"ax",@progbits
 295 0000 0000      		.word	ISR_USCI_A1_VECTOR
 296               			.section	.lower.lowtext
 297               		.type	ISR_USCI_A1_VECTOR, @function
 298               	ISR_USCI_A1_VECTOR:
 299               	; start of function
 300               	; attributes: interrupt 
 301               	; framesize_regs:     48
 302               	; framesize_locals:   0
 303               	; framesize_outgoing: 0
 304               	; framesize:          48
 305               	; elim ap -> fp       52
 306               	; elim fp -> sp       0
 307               	; saved regs: R4 R5 R6 R7 R8 R9 R10 R11 R12 R13 R14 R15
 308               		; start of prologue
 309 0000 BF14      		PUSHM.A	#12, R15
 310               		; end of prologue
 311 0002 4018 D243 		MOVX.B	#1, &__msp430x_in_isr
 311      0000 
 312 0008 4018 1C42 		MOVX.W	&UCA1IV, R12
 312      0000 
 313 000e 2C92 0024 		CMP.W	#4, R12 { JEQ	.L60
 314 0012 6D42      		MOV.B	#4, R13
 315 0014 0D9C 0028 		CMP.W	R12, R13 { JLO	.L61
 316 0018 2C93 0024 		CMP.W	#2, R12 { JEQ	.L62
 317               	.L59:
 318 001c 4018 C243 		MOVX.B	#0, &__msp430x_in_isr
 318      0000 
 319 0022 B013 0000 		CALLA	#chSchIsPreemptionRequired
 320 0026 4C93 0024 		CMP.B	#0, R12 { JEQ	.L58
 321 002a B013 0000 		CALLA	#chSchDoReschedule
 322               	.L58:
 323               		; start of epilogue
 324 002e B416      		POPM.A	#12, r15
 325 0030 0013      		RETI
 326               	.L61:
 327 0032 3C90 0600 		CMP.W	#6, R12 { JEQ	.L60
 327      0024 
 328 0038 3C92 0020 		CMP.W	#8, R12 { JNE	.L59
 329 003c 8C00 0000 		MOVA	#UARTDA1, R12
GAS LISTING /tmp/ccFRuJws.s 			page 7


 330 0040 3E0C 0400 		MOVA	4(R12), R14
 331 0044 3E0E 0400 		MOVA	4(R14), R14
 332 0048 9E00 0000 		CMPA	#0, R14 { JEQ	.L71
 332      0024 
 333 004e 4E13      		CALLA	R14
 334               	.L71:
 335 0050 4018 C293 		CMPX.B	#0, &UARTDA1+8 { JNE	.L72
 335      0000 0020 
 336 0058 4D43      		MOV.B	#0, R13
 337 005a 8C00 0000 		MOVA	#UARTDA1+14, R12
 338 005e B013 0000 		CALLA	#chThdResumeI
 339               	.L72:
 340 0062 4018 B2C2 		BICX.W	#8, &UCA1IE
 340      0000 
 341 0068 4018 B2C2 		BICX.W	#8, &UCA1IFG
 341      0000 
 342 006e 8000 0000 		BRA	#.L59
 343               	.L62:
 344 0072 8A00 0000 		MOVA	#UARTDA1, R10
 345 0076 4018 E2B2 		BITX.B	#4, &UCA1STATW { JEQ	.L64
 345      0000 0024 
 346 007e 4018 F2B2 		BITX.B	#8, &UCA1STATW { JEQ	.L74
 346      0000 0024 
 347 0086 7D40 4000 		MOV.B	#64, R13
 348 008a 4E43      		MOV.B	#0, R14
 349               	.L65:
 350 008c 4018 F2B0 		BITX.B	#32, &UCA1STATW { JEQ	.L66
 350      2000 0000 
 350      0024 
 351 0096 3DD0 1000 		BIS.W	#16, R13
 352               	.L66:
 353 009a 4018 F2B0 		BITX.B	#64, &UCA1STATW { JEQ	.L67
 353      4000 0000 
 353      0024 
 354 00a4 3DD2      		BIS.W	#8, R13
 355               	.L67:
 356 00a6 4018 F2B0 		BITX.B	#16, &UCA1STATW { JEQ	.L68
 356      1000 0000 
 356      0024 
 357 00b0 2DD2      		BIS.W	#4, R13
 358               	.L68:
 359 00b2 3C0A 0400 		MOVA	4(R10), R12
 360 00b6 380C 1000 		MOVA	16(R12), R8
 361 00ba 9800 0000 		CMPA	#0, R8 { JEQ	.L69
 361      0024 
 362 00c0 8C00 0000 		MOVA	#UARTDA1, R12
 363 00c4 4813      		CALLA	R8
 364               	.L69:
 365 00c6 8D0F FEFF 		MOVA	#-2, R13
 366 00ca 8C00 0000 		MOVA	#UARTDA1+10, R12
 367 00ce B013 0000 		CALLA	#chThdResumeI
 368               	.L64:
 369 00d2 3C0A 0400 		MOVA	4(R10), R12
 370 00d6 3E0C 0C00 		MOVA	12(R12), R14
 371 00da 9E00 0000 		CMPA	#0, R14 { JEQ	.L70
 371      0024 
 372 00e0 4018 1D42 		MOVX.W	&UCA1RXBUF, R13
GAS LISTING /tmp/ccFRuJws.s 			page 8


 372      0000 
 373 00e6 8C00 0000 		MOVA	#UARTDA1, R12
 374 00ea 4E13      		CALLA	R14
 375 00ec 8000 0000 		BRA	#.L59
 376               	.L74:
 377 00f0 4D43      		MOV.B	#0, R13
 378 00f2 0E4D      		MOV.W	R13, R14
 379 00f4 8000 0000 		BRA	#.L65
 380               	.L70:
 381 00f8 4018 92C3 		BICX.W	#1, &UCA1IFG
 381      0000 
 382 00fe 8000 0000 		BRA	#.L59
 383               	.L60:
 384 0102 8C00 0000 		MOVA	#__func__.3730, R12
 385 0106 B013 0000 		CALLA	#chSysHalt
 386 010a 8000 0000 		BRA	#.L59
 387               		.size	ISR_USCI_A1_VECTOR, .-ISR_USCI_A1_VECTOR
 388               		.section	.text.uart_lld_init,"ax",@progbits
 389               		.balign 2
 390               		.global	uart_lld_init
 391               		.type	uart_lld_init, @function
 392               	uart_lld_init:
 393               	; start of function
 394               	; framesize_regs:     4
 395               	; framesize_locals:   0
 396               	; framesize_outgoing: 0
 397               	; framesize:          4
 398               	; elim ap -> fp       8
 399               	; elim fp -> sp       0
 400               	; saved regs: R10
 401               		; start of prologue
 402 0000 0A14      		PUSHM.A	#1, R10
 403               		; end of prologue
 404 0002 8A00 0000 		MOVA	#UARTDA1, R10
 405 0006 CC0A      		MOVA	R10, R12
 406 0008 B013 0000 		CALLA	#uartObjectInit
 407 000c 0018 FA40 		MOVX.A	#UCA1CTLW0, 22(R10)
 407      0000 1600 
 408 0014 BA40 0024 		MOV.W	#9216, 18(R10)
 408      1200 
 409 001a BA40 F400 		MOV.W	#244, 20(R10)
 409      1400 
 410 0020 0018 FA40 		MOVX.A	#UCA1TXBUF, 30(R10)
 410      0000 1E00 
 411 0028 BA40 0003 		MOV.W	#768, 36(R10)
 411      2400 
 412 002e BA40 C000 		MOV.W	#192, 38(R10)
 412      2600 
 413 0034 8A43 2800 		MOV.W	#0, 40(R10)
 414 0038 BA40 1100 		MOV.W	#17, 42(R10)
 414      2A00 
 415 003e 0018 FA40 		MOVX.A	#UCA1RXBUF, 52(R10)
 415      0000 3400 
 416 0046 BA40 000C 		MOV.W	#3072, 62(R10)
 416      3E00 
 417 004c BA40 C000 		MOV.W	#192, 64(R10)
 417      4000 
GAS LISTING /tmp/ccFRuJws.s 			page 9


 418 0052 8A43 4200 		MOV.W	#0, 66(R10)
 419 0056 BA40 1000 		MOV.W	#16, 68(R10)
 419      4400 
 420               		; start of epilogue
 421 005c 0A16      		POPM.A	#1, r10
 422 005e 1001      		RETA
 423               		.size	uart_lld_init, .-uart_lld_init
 424               		.global	__mspabi_divul
 425               		.global	__mulsi2_f5
 426               		.section	.text.uart_lld_start,"ax",@progbits
 427               		.balign 2
 428               		.global	uart_lld_start
 429               		.type	uart_lld_start, @function
 430               	uart_lld_start:
 431               	; start of function
 432               	; framesize_regs:     28
 433               	; framesize_locals:   14
 434               	; framesize_outgoing: 0
 435               	; framesize:          42
 436               	; elim ap -> fp       32
 437               	; elim fp -> sp       14
 438               	; saved regs: R4 R5 R6 R7 R8 R9 R10
 439               		; start of prologue
 440 0000 6A14      		PUSHM.A	#7, R10
 441 0002 B100 0E00 		SUBA	#14, R1
 442               		; end of prologue
 443 0006 CA0C      		MOVA	R12, R10
 444 0008 DC93 0000 		CMP.B	#1, @R12 { JEQ	.L105
 444      0024 
 445 000e 3C0C 1600 		MOVA	22(R12), R12
 446               	.L106:
 447 0012 4018 ACB3 		BITX.W	#2, 28(R12) { JEQ	.L106
 447      1C00 0024 
 448 001a CA93 6200 		CMP.B	#0, 98(R10) { JEQ	.L107
 448      0024 
 449 0020 CC0A      		MOVA	R10, R12
 450 0022 AC00 4E00 		ADDA	#78, R12
 451 0026 B013 0000 		CALLA	#dmaReleaseX
 452               	.L107:
 453 002a CA93 6300 		CMP.B	#0, 99(R10) { JEQ	.L105
 453      0024 
 454 0030 CC0A      		MOVA	R10, R12
 455 0032 AC00 5800 		ADDA	#88, R12
 456 0036 B013 0000 		CALLA	#dmaReleaseX
 457               	.L105:
 458 003a 340A 1600 		MOVA	22(R10), R4
 459 003e 94D3 0000 		BIS.W	#1, @R4
 460 0042 914A 1200 		MOV.W	18(R10), 10(R1)
 460      0A00 
 461 0048 914A 1400 		MOV.W	20(R10), 12(R1)
 461      0C00 
 462 004e 350A 0400 		MOVA	4(R10), R5
 463 0052 9145 1400 		MOV.W	20(R5), 6(R1)
 463      0600 
 464 0058 9145 1600 		MOV.W	22(R5), 8(R1)
 464      0800 
 465 005e 8B00 0000 		MOVA	#__mspabi_divul, R11
GAS LISTING /tmp/ccFRuJws.s 			page 10


 466 0062 1E41 0600 		MOV.W	6(R1), R14
 467 0066 1F41 0800 		MOV.W	8(R1), R15
 468 006a 1C41 0A00 		MOV.W	10(R1), R12
 469 006e 1D41 0C00 		MOV.W	12(R1), R13
 470 0072 710B 0000 		MOVA	R11, @R1
 471 0076 4B13      		CALLA	R11
 472 0078 074C      		MOV.W	R12, R7
 473 007a 814C 0400 		MOV.W	R12, 4(R1)
 474 007e 8600 0000 		MOVA	#__mulsi2_f5, R6
 475 0082 1E41 0600 		MOV.W	6(R1), R14
 476 0086 1F41 0800 		MOV.W	8(R1), R15
 477 008a 4D43      		MOV.B	#0, R13
 478 008c 4613      		CALLA	R6
 479 008e 3E40 1027 		MOV.W	#10000, R14
 480 0092 4F43      		MOV.B	#0, R15
 481 0094 1841 0A00 		MOV.W	10(R1), R8
 482 0098 1941 0C00 		MOV.W	12(R1), R9
 483 009c 4018 088C 		SUBX	R12, R8 { SUBCX	R13, R9
 483      4018 097D 
 484 00a4 0C48      		MOV.W	R8, R12
 485 00a6 0D49      		MOV.W	R9, R13
 486 00a8 4613      		CALLA	R6
 487 00aa 1E41 0600 		MOV.W	6(R1), R14
 488 00ae 1F41 0800 		MOV.W	8(R1), R15
 489 00b2 0B01      		MOVA	@R1, R11
 490 00b4 4B13      		CALLA	R11
 491 00b6 8E00 0000 		MOVA	#UCBRS, R14
 492 00ba 7940 1000 		MOV.B	#16, R9
 493 00be 0997 002C 		CMP.W	R7, R9 { JHS	.L109
 494 00c2 0D47      		MOV.W	R7, R13
 495 00c4 5D0F      		rrum.w	#4, R13
 496 00c6 844D 0600 		MOV.W	R13, 6(R4)
 497 00ca 4E13      		CALLA	R14
 498 00cc 0947      		MOV.W	R7, R9
 499 00ce 4318 0959 		rpt	#4 { rlax.w	R9
 500 00d2 79F0 FF00 		AND.B	#255, R9
 501 00d6 19D3      		BIS.W	#1, R9
 502 00d8 4718 0C5C 		rpt	#8 { rlax.w	R12
 503 00dc 09DC      		BIS.W	R12, R9
 504 00de 8449 0800 		MOV.W	R9, 8(R4)
 505               	.L110:
 506 00e2 5C45 1800 		MOV.B	24(R5), R12
 507 00e6 5C0F 5C03 		rrum.w	#4, R12 { rrum.w	#1, R12 
 508 00ea 5CF3      		AND.B	#1, R12
 509 00ec 3CD0 3000 		BIS.W	#48, R12
 510 00f0 844C 1000 		MOV.W	R12, 16(R4)
 511 00f4 5D45 1900 		MOV.B	25(R5), R13
 512 00f8 7DF0 0F00 		AND.B	#15, R13
 513 00fc 6C43      		MOV.B	#2, R12
 514 00fe 0C9D 0038 		CMP.W	R13, R12 { JL	.L111
 515 0102 CC0A      		MOVA	R10, R12
 516 0104 AC00 4E00 		ADDA	#78, R12
 517 0108 B013 0000 		CALLA	#dmaClaimI
 518 010c C80C      		MOVA	R12, R8
 519 010e 9C00 0000 		CMPA	#0, R12 { JEQ	.L112
 519      0024 
 520 0114 8C00 0000 		MOVA	#__func__.3742, R12
GAS LISTING /tmp/ccFRuJws.s 			page 11


 521 0118 B013 0000 		CALLA	#chSysHalt
 522               	.L112:
 523 011c 5C43      		MOV.B	#1, R12
 524 011e 9800 0000 		CMPA	#0, R8 { JEQ	.L113
 524      0024 
 525 0124 4C43      		MOV.B	#0, R12
 526               	.L113:
 527 0126 CA4C 6200 		MOV.B	R12, 98(R10)
 528               	.L114:
 529 012a 3C0A 0400 		MOVA	4(R10), R12
 530 012e 5D4C 1900 		MOV.B	25(R12), R13
 531 0132 5D0F      		rrum.w	#4, R13
 532 0134 6843      		MOV.B	#2, R8
 533 0136 089D 0038 		CMP.W	R13, R8 { JL	.L115
 534 013a CC0A      		MOVA	R10, R12
 535 013c AC00 5800 		ADDA	#88, R12
 536 0140 B013 0000 		CALLA	#dmaClaimI
 537 0144 C80C      		MOVA	R12, R8
 538 0146 9C00 0000 		CMPA	#0, R12 { JEQ	.L116
 538      0024 
 539 014c 8C00 0000 		MOVA	#__func__.3742, R12
 540 0150 B013 0000 		CALLA	#chSysHalt
 541               	.L116:
 542 0154 5C43      		MOV.B	#1, R12
 543 0156 9800 0000 		CMPA	#0, R8 { JEQ	.L117
 543      0024 
 544 015c 4C43      		MOV.B	#0, R12
 545               	.L117:
 546 015e CA4C 6300 		MOV.B	R12, 99(R10)
 547               	.L118:
 548 0162 0018 FA40 		MOVX.A	#tx_cb, 44(R10)
 548      0000 2C00 
 549 016a 7A0A 3000 		MOVA	R10, 48(R10)
 550 016e 0018 FA40 		MOVX.A	#rx_cb, 70(R10)
 550      0000 4600 
 551 0176 7A0A 4A00 		MOVA	R10, 74(R10)
 552 017a 9A00 0000 		CMPA	#UARTDA1, R10 { JNE	.L119
 552      0020 
 553 0180 3C0A 1600 		MOVA	22(R10), R12
 554 0184 380A 0400 		MOVA	4(R10), R8
 555 0188 5E48 1800 		MOV.B	24(R8), R14
 556 018c 0F4E      		MOV.W	R14, R15
 557 018e 5F0F 5F03 		rrum.w	#4, R15 { rrum.w	#1, R15 
 558 0192 5FF3      		AND.B	#1, R15
 559 0194 0D4E      		MOV.W	R14, R13
 560 0196 4D18 0D5D 		rpt	#14 { rlax.w	R13
 561 019a 094E      		MOV.W	R14, R9
 562 019c 4A18 0959 		rpt	#11 { rlax.w	R9
 563 01a0 39F0 0020 		AND.W	#8192, R9
 564 01a4 0DD9      		BIS.W	R9, R13
 565 01a6 3DD0 B000 		BIS.W	#176, R13
 566 01aa 094E      		MOV.W	R14, R9
 567 01ac 4818 0959 		rpt	#9 { rlax.w	R9
 568 01b0 39F0 0010 		AND.W	#4096, R9
 569 01b4 0DD9      		BIS.W	R9, R13
 570 01b6 4618 0E5E 		rpt	#7 { rlax.w	R14
 571 01ba 3EF0 0008 		AND.W	#2048, R14
GAS LISTING /tmp/ccFRuJws.s 			page 12


 572 01be 0DDE      		BIS.W	R14, R13
 573 01c0 0E4F      		MOV.W	R15, R14
 574 01c2 4918 0E5E 		rpt	#10 { rlax.w	R14
 575 01c6 0DDE      		BIS.W	R14, R13
 576 01c8 4818 0F5F 		rpt	#9 { rlax.w	R15
 577 01cc 0DDF      		BIS.W	R15, R13
 578 01ce 8C4D 0000 		MOV.W	R13, @R12
 579               	.L119:
 580 01d2 3C0A 1600 		MOVA	22(R10), R12
 581 01d6 9CD3 1A00 		BIS.W	#1, 26(R12)
 582               		; start of epilogue
 583 01da A100 0E00 		ADDA	#14, R1
 584 01de 6416      		POPM.A	#7, r10
 585 01e0 1001      		RETA
 586               	.L109:
 587 01e2 8447 0600 		MOV.W	R7, 6(R4)
 588 01e6 4E13      		CALLA	R14
 589 01e8 4718 0C5C 		rpt	#8 { rlax.w	R12
 590 01ec 844C 0800 		MOV.W	R12, 8(R4)
 591 01f0 8000 0000 		BRA	#.L110
 592               	.L111:
 593 01f4 CA43 6200 		MOV.B	#0, 98(R10)
 594 01f8 8000 0000 		BRA	#.L114
 595               	.L115:
 596 01fc CA43 6300 		MOV.B	#0, 99(R10)
 597 0200 8000 0000 		BRA	#.L118
 598               		.size	uart_lld_start, .-uart_lld_start
 599               		.section	.text.uart_lld_stop,"ax",@progbits
 600               		.balign 2
 601               		.global	uart_lld_stop
 602               		.type	uart_lld_stop, @function
 603               	uart_lld_stop:
 604               	; start of function
 605               	; framesize_regs:     8
 606               	; framesize_locals:   0
 607               	; framesize_outgoing: 0
 608               	; framesize:          8
 609               	; elim ap -> fp       12
 610               	; elim fp -> sp       0
 611               	; saved regs: R8 R10
 612               		; start of prologue
 613 0000 0A14      		PUSHM.A	#1, R10
 614 0002 0814      		PUSHM.A	#1, R8
 615               		; end of prologue
 616 0004 CA0C      		MOVA	R12, R10
 617 0006 EC93 0000 		CMP.B	#2, @R12 { JNE	.L134
 617      0020 
 618 000c 8800 0000 		MOVA	#dmaCancelI, R8
 619 0010 AC00 4E00 		ADDA	#78, R12
 620 0014 4813      		CALLA	R8
 621 0016 CC0A      		MOVA	R10, R12
 622 0018 AC00 5800 		ADDA	#88, R12
 623 001c 4813      		CALLA	R8
 624 001e 3C0A 1600 		MOVA	22(R10), R12
 625 0022 9C43 0000 		MOV.W	#1, @R12
 626               	.L134:
 627               		; start of epilogue
GAS LISTING /tmp/ccFRuJws.s 			page 13


 628 0026 0816      		POPM.A	#1, r8
 629 0028 0A16      		POPM.A	#1, r10
 630 002a 1001      		RETA
 631               		.size	uart_lld_stop, .-uart_lld_stop
 632               		.section	.text.uart_lld_start_send,"ax",@progbits
 633               		.balign 2
 634               		.global	uart_lld_start_send
 635               		.type	uart_lld_start_send, @function
 636               	uart_lld_start_send:
 637               	; start of function
 638               	; framesize_regs:     12
 639               	; framesize_locals:   0
 640               	; framesize_outgoing: 0
 641               	; framesize:          12
 642               	; elim ap -> fp       16
 643               	; elim fp -> sp       0
 644               	; saved regs: R6 R8 R10
 645               		; start of prologue
 646 0000 0A14      		PUSHM.A	#1, R10
 647 0002 0814      		PUSHM.A	#1, R8
 648 0004 0614      		PUSHM.A	#1, R6
 649               		; end of prologue
 650 0006 CA0C      		MOVA	R12, R10
 651 0008 7C0E 1A00 		MOVA	R14, 26(R12)
 652 000c 8C4D 2200 		MOV.W	R13, 34(R12)
 653 0010 3C0C 1600 		MOVA	22(R12), R12
 654               	.L137:
 655 0014 4018 ACB3 		BITX.W	#2, 28(R12) { JEQ	.L137
 655      1C00 0024 
 656 001c ACC3 1C00 		BIC.W	#2, 28(R12)
 657 0020 C80A      		MOVA	R10, R8
 658 0022 A800 4E00 		ADDA	#78, R8
 659 0026 C60A      		MOVA	R10, R6
 660 0028 A600 1A00 		ADDA	#26, R6
 661 002c CA93 6200 		CMP.B	#0, 98(R10) { JNE	.L138
 661      0020 
 662 0032 CC08      		MOVA	R8, R12
 663 0034 B013 0000 		CALLA	#dmaAcquireI
 664 0038 DA43 6200 		MOV.B	#1, 98(R10)
 665               	.L138:
 666 003c CD06      		MOVA	R6, R13
 667 003e CC08      		MOVA	R8, R12
 668 0040 B013 0000 		CALLA	#dmaTransferI
 669 0044 3C0A 1600 		MOVA	22(R10), R12
 670 0048 ACD3 1C00 		BIS.W	#2, 28(R12)
 671               		; start of epilogue
 672 004c 0616      		POPM.A	#1, r6
 673 004e 0816      		POPM.A	#1, r8
 674 0050 0A16      		POPM.A	#1, r10
 675 0052 1001      		RETA
 676               		.size	uart_lld_start_send, .-uart_lld_start_send
 677               		.section	.text.uart_lld_stop_send,"ax",@progbits
 678               		.balign 2
 679               		.global	uart_lld_stop_send
 680               		.type	uart_lld_stop_send, @function
 681               	uart_lld_stop_send:
 682               	; start of function
GAS LISTING /tmp/ccFRuJws.s 			page 14


 683               	; framesize_regs:     8
 684               	; framesize_locals:   0
 685               	; framesize_outgoing: 0
 686               	; framesize:          8
 687               	; elim ap -> fp       12
 688               	; elim fp -> sp       0
 689               	; saved regs: R8 R10
 690               		; start of prologue
 691 0000 0A14      		PUSHM.A	#1, R10
 692 0002 0814      		PUSHM.A	#1, R8
 693               		; end of prologue
 694 0004 CA0C      		MOVA	R12, R10
 695 0006 C80C      		MOVA	R12, R8
 696 0008 A800 4E00 		ADDA	#78, R8
 697 000c CC08      		MOVA	R8, R12
 698 000e B013 0000 		CALLA	#dmaCancelI
 699 0012 3C0A 0400 		MOVA	4(R10), R12
 700 0016 5C4C 1900 		MOV.B	25(R12), R12
 701 001a 7CF0 0F00 		AND.B	#15, R12
 702 001e 6D43      		MOV.B	#2, R13
 703 0020 0D9C 0034 		CMP.W	R12, R13 { JGE	.L142
 704 0024 CC08      		MOVA	R8, R12
 705 0026 B013 0000 		CALLA	#dmaReleaseX
 706 002a CA43 6200 		MOV.B	#0, 98(R10)
 707               	.L142:
 708 002e 3C0A 1600 		MOVA	22(R10), R12
 709 0032 ACC3 1C00 		BIC.W	#2, 28(R12)
 710 0036 3C0A 4E00 		MOVA	78(R10), R12
 711 003a 1D4C 0A00 		MOV.W	10(R12), R13
 712 003e 1C4A 2200 		MOV.W	34(R10), R12
 713 0042 0C8D      		SUB.W	R13, R12
 714 0044 4018 0C4C 		MOVX	R12, R12
 715               		; start of epilogue
 716 0048 0816      		POPM.A	#1, r8
 717 004a 0A16      		POPM.A	#1, r10
 718 004c 1001      		RETA
 719               		.size	uart_lld_stop_send, .-uart_lld_stop_send
 720               		.section	.text.uart_lld_start_receive,"ax",@progbits
 721               		.balign 2
 722               		.global	uart_lld_start_receive
 723               		.type	uart_lld_start_receive, @function
 724               	uart_lld_start_receive:
 725               	; start of function
 726               	; framesize_regs:     12
 727               	; framesize_locals:   0
 728               	; framesize_outgoing: 0
 729               	; framesize:          12
 730               	; elim ap -> fp       16
 731               	; elim fp -> sp       0
 732               	; saved regs: R6 R8 R10
 733               		; start of prologue
 734 0000 0A14      		PUSHM.A	#1, R10
 735 0002 0814      		PUSHM.A	#1, R8
 736 0004 0614      		PUSHM.A	#1, R6
 737               		; end of prologue
 738 0006 CA0C      		MOVA	R12, R10
 739 0008 7C0E 3800 		MOVA	R14, 56(R12)
GAS LISTING /tmp/ccFRuJws.s 			page 15


 740 000c 8C4D 3C00 		MOV.W	R13, 60(R12)
 741 0010 3C0C 1600 		MOVA	22(R12), R12
 742 0014 9CC3 1A00 		BIC.W	#1, 26(R12)
 743 0018 C80A      		MOVA	R10, R8
 744 001a A800 5800 		ADDA	#88, R8
 745 001e C60A      		MOVA	R10, R6
 746 0020 A600 3400 		ADDA	#52, R6
 747 0024 CA93 6300 		CMP.B	#0, 99(R10) { JNE	.L144
 747      0020 
 748 002a CC08      		MOVA	R8, R12
 749 002c B013 0000 		CALLA	#dmaAcquireI
 750 0030 DA43 6300 		MOV.B	#1, 99(R10)
 751               	.L144:
 752 0034 CD06      		MOVA	R6, R13
 753 0036 CC08      		MOVA	R8, R12
 754 0038 B013 0000 		CALLA	#dmaTransferI
 755 003c 3C0A 1600 		MOVA	22(R10), R12
 756 0040 4018 9CB3 		BITX.W	#1, 28(R12) { JEQ	.L143
 756      1C00 0024 
 757 0048 9CC3 1C00 		BIC.W	#1, 28(R12)
 758 004c 9CD3 1C00 		BIS.W	#1, 28(R12)
 759               	.L143:
 760               		; start of epilogue
 761 0050 0616      		POPM.A	#1, r6
 762 0052 0816      		POPM.A	#1, r8
 763 0054 0A16      		POPM.A	#1, r10
 764 0056 1001      		RETA
 765               		.size	uart_lld_start_receive, .-uart_lld_start_receive
 766               		.section	.text.uart_lld_stop_receive,"ax",@progbits
 767               		.balign 2
 768               		.global	uart_lld_stop_receive
 769               		.type	uart_lld_stop_receive, @function
 770               	uart_lld_stop_receive:
 771               	; start of function
 772               	; framesize_regs:     12
 773               	; framesize_locals:   0
 774               	; framesize_outgoing: 0
 775               	; framesize:          12
 776               	; elim ap -> fp       16
 777               	; elim fp -> sp       0
 778               	; saved regs: R6 R8 R10
 779               		; start of prologue
 780 0000 0A14      		PUSHM.A	#1, R10
 781 0002 0814      		PUSHM.A	#1, R8
 782 0004 0614      		PUSHM.A	#1, R6
 783               		; end of prologue
 784 0006 C60C      		MOVA	R12, R6
 785 0008 3C0C 5800 		MOVA	88(R12), R12
 786 000c 4018 1A4C 		MOVX	10(R12), R10
 786      0A00 
 787 0012 C806      		MOVA	R6, R8
 788 0014 A800 5800 		ADDA	#88, R8
 789 0018 CC08      		MOVA	R8, R12
 790 001a B013 0000 		CALLA	#dmaCancelI
 791 001e 3C06 0400 		MOVA	4(R6), R12
 792 0022 7D40 2F00 		MOV.B	#47, R13
 793 0026 5D9C 1900 		CMP.B	25(R12), R13 { JHS	.L150
GAS LISTING /tmp/ccFRuJws.s 			page 16


 793      002C 
 794 002c CC08      		MOVA	R8, R12
 795 002e B013 0000 		CALLA	#dmaReleaseX
 796 0032 C643 6300 		MOV.B	#0, 99(R6)
 797               	.L150:
 798 0036 3C06 1600 		MOVA	22(R6), R12
 799 003a 9CC3 1C00 		BIC.W	#1, 28(R12)
 800 003e 9CD3 1A00 		BIS.W	#1, 26(R12)
 801 0042 CC0A      		MOVA	R10, R12
 802               		; start of epilogue
 803 0044 0616      		POPM.A	#1, r6
 804 0046 0816      		POPM.A	#1, r8
 805 0048 0A16      		POPM.A	#1, r10
 806 004a 1001      		RETA
 807               		.size	uart_lld_stop_receive, .-uart_lld_stop_receive
 808               		.section	.upper.rodata,"a",@progbits
 809               		.type	__func__.3742, @object
 810               		.size	__func__.3742, 15
 811               	__func__.3742:
 812 0000 7561 7274 		.string	"uart_lld_start"
 812      5F6C 6C64 
 812      5F73 7461 
 812      7274 00
 813               		.type	__func__.3730, @object
 814               		.size	__func__.3730, 19
 815               	__func__.3730:
 816 000f 4953 525F 		.string	"ISR_USCI_A1_VECTOR"
 816      5553 4349 
 816      5F41 315F 
 816      5645 4354 
 816      4F52 00
 817               		.global	UARTDA1
 818               		.section	.upper.bss,"aw",@nobits
 819               		.balign 2
 820               		.type	UARTDA1, @object
 821               		.size	UARTDA1, 100
 822               	UARTDA1:
 823 0000 0000 0000 		.zero	100
 823      0000 0000 
 823      0000 0000 
 823      0000 0000 
 823      0000 0000 
 824               		.ident	"GCC: (SOMNIUM Technologies Limited - msp430-gcc 6.2.1.16) 6.2.1 20161212"
GAS LISTING /tmp/ccFRuJws.s 			page 17


DEFINED SYMBOLS
                            *ABS*:0000000000000000 hal_uart_lld.c
     /tmp/ccFRuJws.s:5      .text.UCBRS:0000000000000000 UCBRS
     /tmp/ccFRuJws.s:199    .text.rx_cb:0000000000000000 rx_cb
     /tmp/ccFRuJws.s:243    .text.tx_cb:0000000000000000 tx_cb
     /tmp/ccFRuJws.s:298    .lower.lowtext:0000000000000000 ISR_USCI_A1_VECTOR
     /tmp/ccFRuJws.s:822    .upper.bss:0000000000000000 UARTDA1
     /tmp/ccFRuJws.s:815    .upper.rodata:000000000000000f __func__.3730
     /tmp/ccFRuJws.s:392    .text.uart_lld_init:0000000000000000 uart_lld_init
     /tmp/ccFRuJws.s:430    .text.uart_lld_start:0000000000000000 uart_lld_start
     /tmp/ccFRuJws.s:811    .upper.rodata:0000000000000000 __func__.3742
     /tmp/ccFRuJws.s:603    .text.uart_lld_stop:0000000000000000 uart_lld_stop
     /tmp/ccFRuJws.s:636    .text.uart_lld_start_send:0000000000000000 uart_lld_start_send
     /tmp/ccFRuJws.s:681    .text.uart_lld_stop_send:0000000000000000 uart_lld_stop_send
     /tmp/ccFRuJws.s:724    .text.uart_lld_start_receive:0000000000000000 uart_lld_start_receive
     /tmp/ccFRuJws.s:770    .text.uart_lld_stop_receive:0000000000000000 uart_lld_stop_receive
     /tmp/ccFRuJws.s:90     .text.UCBRS:000000000000011e .L3
     /tmp/ccFRuJws.s:93     .text.UCBRS:0000000000000124 .L4
     /tmp/ccFRuJws.s:96     .text.UCBRS:000000000000012a .L5
     /tmp/ccFRuJws.s:99     .text.UCBRS:0000000000000130 .L6
     /tmp/ccFRuJws.s:102    .text.UCBRS:0000000000000136 .L7
     /tmp/ccFRuJws.s:105    .text.UCBRS:000000000000013c .L8
     /tmp/ccFRuJws.s:108    .text.UCBRS:0000000000000144 .L9
     /tmp/ccFRuJws.s:111    .text.UCBRS:000000000000014c .L10
     /tmp/ccFRuJws.s:114    .text.UCBRS:0000000000000154 .L11
     /tmp/ccFRuJws.s:117    .text.UCBRS:000000000000015c .L12
     /tmp/ccFRuJws.s:120    .text.UCBRS:0000000000000164 .L13
     /tmp/ccFRuJws.s:123    .text.UCBRS:000000000000016c .L14
     /tmp/ccFRuJws.s:126    .text.UCBRS:0000000000000174 .L15
     /tmp/ccFRuJws.s:129    .text.UCBRS:000000000000017c .L16
     /tmp/ccFRuJws.s:132    .text.UCBRS:0000000000000184 .L17
     /tmp/ccFRuJws.s:135    .text.UCBRS:000000000000018c .L18
     /tmp/ccFRuJws.s:138    .text.UCBRS:0000000000000194 .L19
     /tmp/ccFRuJws.s:141    .text.UCBRS:000000000000019c .L20
     /tmp/ccFRuJws.s:144    .text.UCBRS:00000000000001a4 .L21
     /tmp/ccFRuJws.s:147    .text.UCBRS:00000000000001ac .L22
     /tmp/ccFRuJws.s:150    .text.UCBRS:00000000000001b4 .L23
     /tmp/ccFRuJws.s:153    .text.UCBRS:00000000000001bc .L24
     /tmp/ccFRuJws.s:156    .text.UCBRS:00000000000001c4 .L25
     /tmp/ccFRuJws.s:159    .text.UCBRS:00000000000001cc .L26
     /tmp/ccFRuJws.s:162    .text.UCBRS:00000000000001d4 .L27
     /tmp/ccFRuJws.s:165    .text.UCBRS:00000000000001dc .L28
     /tmp/ccFRuJws.s:168    .text.UCBRS:00000000000001e4 .L29
     /tmp/ccFRuJws.s:171    .text.UCBRS:00000000000001ec .L30
     /tmp/ccFRuJws.s:174    .text.UCBRS:00000000000001f4 .L31
     /tmp/ccFRuJws.s:177    .text.UCBRS:00000000000001fc .L32
     /tmp/ccFRuJws.s:180    .text.UCBRS:0000000000000204 .L33
     /tmp/ccFRuJws.s:183    .text.UCBRS:000000000000020c .L34
     /tmp/ccFRuJws.s:186    .text.UCBRS:0000000000000214 .L35
     /tmp/ccFRuJws.s:189    .text.UCBRS:000000000000021c .L36
     /tmp/ccFRuJws.s:192    .text.UCBRS:0000000000000224 .L37
     /tmp/ccFRuJws.s:87     .text.UCBRS:000000000000011c .L2
     /tmp/ccFRuJws.s:217    .text.rx_cb:0000000000000018 .L39
     /tmp/ccFRuJws.s:222    .text.rx_cb:000000000000002a .L40
     /tmp/ccFRuJws.s:235    .text.rx_cb:0000000000000058 .L38
     /tmp/ccFRuJws.s:261    .text.tx_cb:0000000000000016 .L46
     /tmp/ccFRuJws.s:264    .text.tx_cb:0000000000000020 .L47
GAS LISTING /tmp/ccFRuJws.s 			page 18


     /tmp/ccFRuJws.s:270    .text.tx_cb:0000000000000032 .L48
     /tmp/ccFRuJws.s:286    .text.tx_cb:000000000000006c .L45
     /tmp/ccFRuJws.s:273    .text.tx_cb:000000000000003c .L51
     /tmp/ccFRuJws.s:383    .lower.lowtext:0000000000000102 .L60
     /tmp/ccFRuJws.s:326    .lower.lowtext:0000000000000032 .L61
     /tmp/ccFRuJws.s:343    .lower.lowtext:0000000000000072 .L62
     /tmp/ccFRuJws.s:322    .lower.lowtext:000000000000002e .L58
     /tmp/ccFRuJws.s:317    .lower.lowtext:000000000000001c .L59
     /tmp/ccFRuJws.s:334    .lower.lowtext:0000000000000050 .L71
     /tmp/ccFRuJws.s:339    .lower.lowtext:0000000000000062 .L72
     /tmp/ccFRuJws.s:368    .lower.lowtext:00000000000000d2 .L64
     /tmp/ccFRuJws.s:376    .lower.lowtext:00000000000000f0 .L74
     /tmp/ccFRuJws.s:352    .lower.lowtext:000000000000009a .L66
     /tmp/ccFRuJws.s:355    .lower.lowtext:00000000000000a6 .L67
     /tmp/ccFRuJws.s:358    .lower.lowtext:00000000000000b2 .L68
     /tmp/ccFRuJws.s:364    .lower.lowtext:00000000000000c6 .L69
     /tmp/ccFRuJws.s:380    .lower.lowtext:00000000000000f8 .L70
     /tmp/ccFRuJws.s:349    .lower.lowtext:000000000000008c .L65
     /tmp/ccFRuJws.s:457    .text.uart_lld_start:000000000000003a .L105
     /tmp/ccFRuJws.s:446    .text.uart_lld_start:0000000000000012 .L106
     /tmp/ccFRuJws.s:452    .text.uart_lld_start:000000000000002a .L107
     /tmp/ccFRuJws.s:586    .text.uart_lld_start:00000000000001e2 .L109
     /tmp/ccFRuJws.s:592    .text.uart_lld_start:00000000000001f4 .L111
     /tmp/ccFRuJws.s:522    .text.uart_lld_start:000000000000011c .L112
     /tmp/ccFRuJws.s:526    .text.uart_lld_start:0000000000000126 .L113
     /tmp/ccFRuJws.s:595    .text.uart_lld_start:00000000000001fc .L115
     /tmp/ccFRuJws.s:541    .text.uart_lld_start:0000000000000154 .L116
     /tmp/ccFRuJws.s:545    .text.uart_lld_start:000000000000015e .L117
     /tmp/ccFRuJws.s:579    .text.uart_lld_start:00000000000001d2 .L119
     /tmp/ccFRuJws.s:505    .text.uart_lld_start:00000000000000e2 .L110
     /tmp/ccFRuJws.s:528    .text.uart_lld_start:000000000000012a .L114
     /tmp/ccFRuJws.s:547    .text.uart_lld_start:0000000000000162 .L118
     /tmp/ccFRuJws.s:626    .text.uart_lld_stop:0000000000000026 .L134
     /tmp/ccFRuJws.s:654    .text.uart_lld_start_send:0000000000000014 .L137
     /tmp/ccFRuJws.s:665    .text.uart_lld_start_send:000000000000003c .L138
     /tmp/ccFRuJws.s:707    .text.uart_lld_stop_send:000000000000002e .L142
     /tmp/ccFRuJws.s:751    .text.uart_lld_start_receive:0000000000000034 .L144
     /tmp/ccFRuJws.s:759    .text.uart_lld_start_receive:0000000000000050 .L143
     /tmp/ccFRuJws.s:797    .text.uart_lld_stop_receive:0000000000000036 .L150

UNDEFINED SYMBOLS
chThdResumeI
dmaReleaseX
__msp430x_in_isr
UCA1IV
chSchIsPreemptionRequired
chSchDoReschedule
UCA1IE
UCA1IFG
UCA1STATW
UCA1RXBUF
chSysHalt
uartObjectInit
UCA1CTLW0
UCA1TXBUF
__mspabi_divul
__mulsi2_f5
GAS LISTING /tmp/ccFRuJws.s 			page 19


dmaClaimI
dmaCancelI
dmaAcquireI
dmaTransferI
__crt0_init_highbss
