GAS LISTING /tmp/ccDhj3tg.s 			page 1


   1               		.file	"hal_pal_lld.c"
   2               		.section	.lower.lowtext,"ax",@progbits
   3               		.balign 2
   4               		.global	ISR_PORT1_VECTOR
   5               		.section	__interrupt_vector_40,"ax",@progbits
   6 0000 0000      		.word	ISR_PORT1_VECTOR
   7               			.section	.lower.lowtext
   8               		.type	ISR_PORT1_VECTOR, @function
   9               	ISR_PORT1_VECTOR:
  10               	; start of function
  11               	; attributes: interrupt 
  12               	; framesize_regs:     48
  13               	; framesize_locals:   4
  14               	; framesize_outgoing: 0
  15               	; framesize:          52
  16               	; elim ap -> fp       52
  17               	; elim fp -> sp       4
  18               	; saved regs: R4 R5 R6 R7 R8 R9 R10 R11 R12 R13 R14 R15
  19               		; start of prologue
  20 0000 BF14      		PUSHM.A	#12, R15
  21 0002 B100 0400 		SUBA	#4, R1
  22               		; end of prologue
  23 0006 4018 D243 		MOVX.B	#1, &__msp430x_in_isr
  23      0000 
  24 000c 4018 1C42 		MOVX.W	&P1IV, R12
  24      0000 
  25 0012 12C3 0C10 		CLRC { RRC.W	R12
  26 0016 7C53      		ADD.B	#-1, R12
  27 0018 3CF0 FF00 		AND	#0xff, R12
  28 001c 0D43      		MOV.W	#0,R13
  29 001e 0E4C      		MOV.W	R12, R14
  30 0020 0F4D      		MOV.W	R13, R15
  31 0022 0E5E 0F6F 		RLA.W	R14 { RLC.W	R15 { RLA.W	R14 { RLC.W	R15
  31      0E5E 0F6F 
  32 002a 814E 0000 		MOV.W	R14, @R1
  33 002e 814F 0200 		MOV.W	R15, 2(R1)
  34 0032 0D01      		MOVA	@R1, R13
  35 0034 0018 5C4D 		MOVX.A	port_callback_map(R13), R12
  35      0000 
  36 003a 9C00 0000 		CMPA	#0, R12 { JEQ	.L2
  36      0024 
  37 0040 4C13      		CALLA	R12
  38               	.L2:
  39 0042 4018 C243 		MOVX.B	#0, &__msp430x_in_isr
  39      0000 
  40 0048 B013 0000 		CALLA	#chSchIsPreemptionRequired
  41 004c 4C93 0024 		CMP.B	#0, R12 { JEQ	.L1
  42 0050 B013 0000 		CALLA	#chSchDoReschedule
  43               	.L1:
  44               		; start of epilogue
  45 0054 A100 0400 		ADDA	#4, R1
  46 0058 B416      		POPM.A	#12, r15
  47 005a 0013      		RETI
  48               		.size	ISR_PORT1_VECTOR, .-ISR_PORT1_VECTOR
  49               		.balign 2
  50               		.global	ISR_PORT2_VECTOR
  51               		.section	__interrupt_vector_37,"ax",@progbits
GAS LISTING /tmp/ccDhj3tg.s 			page 2


  52 0000 0000      		.word	ISR_PORT2_VECTOR
  53               			.section	.lower.lowtext
  54               		.type	ISR_PORT2_VECTOR, @function
  55               	ISR_PORT2_VECTOR:
  56               	; start of function
  57               	; attributes: interrupt 
  58               	; framesize_regs:     48
  59               	; framesize_locals:   4
  60               	; framesize_outgoing: 0
  61               	; framesize:          52
  62               	; elim ap -> fp       52
  63               	; elim fp -> sp       4
  64               	; saved regs: R4 R5 R6 R7 R8 R9 R10 R11 R12 R13 R14 R15
  65               		; start of prologue
  66 005c BF14      		PUSHM.A	#12, R15
  67 005e B100 0400 		SUBA	#4, R1
  68               		; end of prologue
  69 0062 4018 D243 		MOVX.B	#1, &__msp430x_in_isr
  69      0000 
  70 0068 4018 1C42 		MOVX.W	&P2IV, R12
  70      0000 
  71 006e 12C3 0C10 		CLRC { RRC.W	R12
  72 0072 7C53      		ADD.B	#-1, R12
  73 0074 3CF0 FF00 		AND	#0xff, R12
  74 0078 4C0E 4C0D 		RLAM.A #4, R12 { RRAM.A #4, R12
  75 007c AC00 0800 		ADDA	#8, R12
  76 0080 0C14 4018 		PUSHM.A	#1, R12 { POPX.W	R12 { POPX.W	R13 ; move pointer in R12 into reg-pair R12:R13
  76      3C41 4018 
  76      3D41 
  77 008a 0E4C      		MOV.W	R12, R14
  78 008c 0F4D      		MOV.W	R13, R15
  79 008e 0E5E 0F6F 		RLA.W	R14 { RLC.W	R15 { RLA.W	R14 { RLC.W	R15
  79      0E5E 0F6F 
  80 0096 814E 0000 		MOV.W	R14, @R1
  81 009a 814F 0200 		MOV.W	R15, 2(R1)
  82 009e 0D01      		MOVA	@R1, R13
  83 00a0 0018 5C4D 		MOVX.A	port_callback_map(R13), R12
  83      0000 
  84 00a6 9C00 0000 		CMPA	#0, R12 { JEQ	.L11
  84      0024 
  85 00ac 4C13      		CALLA	R12
  86               	.L11:
  87 00ae 4018 C243 		MOVX.B	#0, &__msp430x_in_isr
  87      0000 
  88 00b4 B013 0000 		CALLA	#chSchIsPreemptionRequired
  89 00b8 4C93 0024 		CMP.B	#0, R12 { JEQ	.L10
  90 00bc B013 0000 		CALLA	#chSchDoReschedule
  91               	.L10:
  92               		; start of epilogue
  93 00c0 A100 0400 		ADDA	#4, R1
  94 00c4 B416      		POPM.A	#12, r15
  95 00c6 0013      		RETI
  96               		.size	ISR_PORT2_VECTOR, .-ISR_PORT2_VECTOR
  97               		.balign 2
  98               		.global	ISR_PORT3_VECTOR
  99               		.section	__interrupt_vector_34,"ax",@progbits
 100 0000 0000      		.word	ISR_PORT3_VECTOR
GAS LISTING /tmp/ccDhj3tg.s 			page 3


 101               			.section	.lower.lowtext
 102               		.type	ISR_PORT3_VECTOR, @function
 103               	ISR_PORT3_VECTOR:
 104               	; start of function
 105               	; attributes: interrupt 
 106               	; framesize_regs:     48
 107               	; framesize_locals:   4
 108               	; framesize_outgoing: 0
 109               	; framesize:          52
 110               	; elim ap -> fp       52
 111               	; elim fp -> sp       4
 112               	; saved regs: R4 R5 R6 R7 R8 R9 R10 R11 R12 R13 R14 R15
 113               		; start of prologue
 114 00c8 BF14      		PUSHM.A	#12, R15
 115 00ca B100 0400 		SUBA	#4, R1
 116               		; end of prologue
 117 00ce 4018 D243 		MOVX.B	#1, &__msp430x_in_isr
 117      0000 
 118 00d4 4018 1C42 		MOVX.W	&P3IV, R12
 118      0000 
 119 00da 12C3 0C10 		CLRC { RRC.W	R12
 120 00de 7C53      		ADD.B	#-1, R12
 121 00e0 3CF0 FF00 		AND	#0xff, R12
 122 00e4 4C0E 4C0D 		RLAM.A #4, R12 { RRAM.A #4, R12
 123 00e8 AC00 1000 		ADDA	#16, R12
 124 00ec 0C14 4018 		PUSHM.A	#1, R12 { POPX.W	R12 { POPX.W	R13 ; move pointer in R12 into reg-pair R12:R13
 124      3C41 4018 
 124      3D41 
 125 00f6 0E4C      		MOV.W	R12, R14
 126 00f8 0F4D      		MOV.W	R13, R15
 127 00fa 0E5E 0F6F 		RLA.W	R14 { RLC.W	R15 { RLA.W	R14 { RLC.W	R15
 127      0E5E 0F6F 
 128 0102 814E 0000 		MOV.W	R14, @R1
 129 0106 814F 0200 		MOV.W	R15, 2(R1)
 130 010a 0D01      		MOVA	@R1, R13
 131 010c 0018 5C4D 		MOVX.A	port_callback_map(R13), R12
 131      0000 
 132 0112 9C00 0000 		CMPA	#0, R12 { JEQ	.L20
 132      0024 
 133 0118 4C13      		CALLA	R12
 134               	.L20:
 135 011a 4018 C243 		MOVX.B	#0, &__msp430x_in_isr
 135      0000 
 136 0120 B013 0000 		CALLA	#chSchIsPreemptionRequired
 137 0124 4C93 0024 		CMP.B	#0, R12 { JEQ	.L19
 138 0128 B013 0000 		CALLA	#chSchDoReschedule
 139               	.L19:
 140               		; start of epilogue
 141 012c A100 0400 		ADDA	#4, R1
 142 0130 B416      		POPM.A	#12, r15
 143 0132 0013      		RETI
 144               		.size	ISR_PORT3_VECTOR, .-ISR_PORT3_VECTOR
 145               		.balign 2
 146               		.global	ISR_PORT4_VECTOR
 147               		.section	__interrupt_vector_33,"ax",@progbits
 148 0000 0000      		.word	ISR_PORT4_VECTOR
 149               			.section	.lower.lowtext
GAS LISTING /tmp/ccDhj3tg.s 			page 4


 150               		.type	ISR_PORT4_VECTOR, @function
 151               	ISR_PORT4_VECTOR:
 152               	; start of function
 153               	; attributes: interrupt 
 154               	; framesize_regs:     48
 155               	; framesize_locals:   4
 156               	; framesize_outgoing: 0
 157               	; framesize:          52
 158               	; elim ap -> fp       52
 159               	; elim fp -> sp       4
 160               	; saved regs: R4 R5 R6 R7 R8 R9 R10 R11 R12 R13 R14 R15
 161               		; start of prologue
 162 0134 BF14      		PUSHM.A	#12, R15
 163 0136 B100 0400 		SUBA	#4, R1
 164               		; end of prologue
 165 013a 4018 D243 		MOVX.B	#1, &__msp430x_in_isr
 165      0000 
 166 0140 4018 1C42 		MOVX.W	&P4IV, R12
 166      0000 
 167 0146 12C3 0C10 		CLRC { RRC.W	R12
 168 014a 7C53      		ADD.B	#-1, R12
 169 014c 3CF0 FF00 		AND	#0xff, R12
 170 0150 4C0E 4C0D 		RLAM.A #4, R12 { RRAM.A #4, R12
 171 0154 AC00 1800 		ADDA	#24, R12
 172 0158 0C14 4018 		PUSHM.A	#1, R12 { POPX.W	R12 { POPX.W	R13 ; move pointer in R12 into reg-pair R12:R13
 172      3C41 4018 
 172      3D41 
 173 0162 0E4C      		MOV.W	R12, R14
 174 0164 0F4D      		MOV.W	R13, R15
 175 0166 0E5E 0F6F 		RLA.W	R14 { RLC.W	R15 { RLA.W	R14 { RLC.W	R15
 175      0E5E 0F6F 
 176 016e 814E 0000 		MOV.W	R14, @R1
 177 0172 814F 0200 		MOV.W	R15, 2(R1)
 178 0176 0D01      		MOVA	@R1, R13
 179 0178 0018 5C4D 		MOVX.A	port_callback_map(R13), R12
 179      0000 
 180 017e 9C00 0000 		CMPA	#0, R12 { JEQ	.L29
 180      0024 
 181 0184 4C13      		CALLA	R12
 182               	.L29:
 183 0186 4018 C243 		MOVX.B	#0, &__msp430x_in_isr
 183      0000 
 184 018c B013 0000 		CALLA	#chSchIsPreemptionRequired
 185 0190 4C93 0024 		CMP.B	#0, R12 { JEQ	.L28
 186 0194 B013 0000 		CALLA	#chSchDoReschedule
 187               	.L28:
 188               		; start of epilogue
 189 0198 A100 0400 		ADDA	#4, R1
 190 019c B416      		POPM.A	#12, r15
 191 019e 0013      		RETI
 192               		.size	ISR_PORT4_VECTOR, .-ISR_PORT4_VECTOR
 193               		.section	.text._pal_lld_init,"ax",@progbits
 194               		.balign 2
 195               		.global	_pal_lld_init
 196               		.type	_pal_lld_init, @function
 197               	_pal_lld_init:
 198               	; start of function
GAS LISTING /tmp/ccDhj3tg.s 			page 5


 199               	; framesize_regs:     0
 200               	; framesize_locals:   0
 201               	; framesize_outgoing: 0
 202               	; framesize:          0
 203               	; elim ap -> fp       4
 204               	; elim fp -> sp       0
 205               	; saved regs:(none)
 206               		; start of prologue
 207               		; end of prologue
 208 0000 4018 A24C 		MOVX.W	@R12, &PAOUT
 208      0000 
 209 0006 4018 924C 		MOVX.W	2(R12), &PADIR
 209      0200 0000 
 210 000e 4018 924C 		MOVX.W	4(R12), &PAREN
 210      0400 0000 
 211 0016 4018 924C 		MOVX.W	6(R12), &PASEL0
 211      0600 0000 
 212 001e 4018 924C 		MOVX.W	8(R12), &PASEL1
 212      0800 0000 
 213 0026 4018 924C 		MOVX.W	10(R12), &PBOUT
 213      0A00 0000 
 214 002e 4018 924C 		MOVX.W	12(R12), &PBDIR
 214      0C00 0000 
 215 0036 4018 924C 		MOVX.W	14(R12), &PBREN
 215      0E00 0000 
 216 003e 4018 924C 		MOVX.W	16(R12), &PBSEL0
 216      1000 0000 
 217 0046 4018 924C 		MOVX.W	18(R12), &PBSEL1
 217      1200 0000 
 218 004e 4018 924C 		MOVX.W	20(R12), &PJOUT
 218      1400 0000 
 219 0056 4018 924C 		MOVX.W	22(R12), &PJDIR
 219      1600 0000 
 220 005e 4018 924C 		MOVX.W	24(R12), &PJREN
 220      1800 0000 
 221 0066 4018 924C 		MOVX.W	26(R12), &PJSEL0
 221      1A00 0000 
 222 006e 4018 924C 		MOVX.W	28(R12), &PJSEL1
 222      1C00 0000 
 223 0076 4018 92C3 		BICX.W	#1, &PM5CTL0
 223      0000 
 224               		; start of epilogue
 225 007c 1001      		RETA
 226               		.size	_pal_lld_init, .-_pal_lld_init
 227               		.section	.text._pal_lld_setgroupmode,"ax",@progbits
 228               		.balign 2
 229               		.global	_pal_lld_setgroupmode
 230               		.type	_pal_lld_setgroupmode, @function
 231               	_pal_lld_setgroupmode:
 232               	; start of function
 233               	; framesize_regs:     0
 234               	; framesize_locals:   0
 235               	; framesize_outgoing: 0
 236               	; framesize:          0
 237               	; elim ap -> fp       4
 238               	; elim fp -> sp       0
 239               	; saved regs:(none)
GAS LISTING /tmp/ccDhj3tg.s 			page 6


 240               		; start of prologue
 241               		; end of prologue
 242 0000 2E92 0024 		CMP.W	#4, R14 { JEQ	.L40
 243 0004 6F42      		MOV.B	#4, R15
 244 0006 0F9E 0028 		CMP.W	R14, R15 { JLO	.L41
 245 000a 1E93 0024 		CMP.W	#1, R14 { JEQ	.L42
 246 000e 0E93 0024 		CMP.W	#0, R14 { JEQ	.L43
 247 0012 2E93 0024 		CMP.W	#2, R14 { JEQ	.L43
 248 0016 3E90 0300 		CMP.W	#3, R14 { JEQ	.L42
 248      0024 
 249               	.L38:
 250               		; start of epilogue
 251 001c 1001      		RETA
 252               	.L41:
 253 001e 3E92 0024 		CMP.W	#8, R14 { JEQ	.L44
 254 0022 7F42      		MOV.B	#8, R15
 255 0024 0F9E 0028 		CMP.W	R14, R15 { JLO	.L45
 256 0028 3E90 0600 		CMP.W	#6, R14 { JNE	.L38
 256      0020 
 257 002e 8CDD 0400 		BIS.W	R13, 4(R12)
 258 0032 1DBC 0A00 		BIT.W	10(R12), R13 { JEQ	.L52
 258      0024 
 259 0038 1DBC 0C00 		BIT.W	12(R12), R13 { JNE	.L99
 259      0020 
 260               	.L52:
 261 003e 3DE3      		INV.W	R13
 262 0040 8CFD 0A00 		AND.W	R13, 10(R12)
 263 0044 8CFD 0C00 		AND.W	R13, 12(R12)
 264 0048 8000 0000 		BRA	#.L38
 265               	.L45:
 266 004c 3E90 0900 		CMP.W	#9, R14 { JEQ	.L47
 266      0024 
 267 0052 3E90 0A00 		CMP.W	#10, R14 { JNE	.L38
 267      0020 
 268 0058 1DBC 0A00 		BIT.W	10(R12), R13 { JNE	.L55
 268      0020 
 269 005e 1DBC 0C00 		BIT.W	12(R12), R13 { JEQ	.L99
 269      0024 
 270               	.L55:
 271 0064 8CDD 0A00 		BIS.W	R13, 10(R12)
 272 0068 8000 0000 		BRA	#.L98
 273               	.L43:
 274 006c 0E4D      		MOV.W	R13, R14
 275 006e 3EE3      		INV.W	R14
 276 0070 8CFE 0400 		AND.W	R14, 4(R12)
 277 0074 8CFE 0800 		AND.W	R14, 8(R12)
 278               	.L105:
 279 0078 1DBC 0A00 		BIT.W	10(R12), R13 { JEQ	.L51
 279      0024 
 280 007e 1DBC 0C00 		BIT.W	12(R12), R13 { JEQ	.L51
 280      0024 
 281               	.L99:
 282 0084 8C4D 1600 		MOV.W	R13, 22(R12)
 283 0088 8000 0000 		BRA	#.L38
 284               	.L42:
 285 008c 0E4D      		MOV.W	R13, R14
 286 008e 3EE3      		INV.W	R14
GAS LISTING /tmp/ccDhj3tg.s 			page 7


 287 0090 8CFE 0400 		AND.W	R14, 4(R12)
 288 0094 8CDD 0800 		BIS.W	R13, 8(R12)
 289 0098 8CDD 0200 		BIS.W	R13, 2(R12)
 290 009c 8000 0000 		BRA	#.L105
 291               	.L40:
 292 00a0 0E4D      		MOV.W	R13, R14
 293 00a2 3EE3      		INV.W	R14
 294 00a4 8CFE 0400 		AND.W	R14, 4(R12)
 295 00a8 8CDD 0800 		BIS.W	R13, 8(R12)
 296 00ac 8CFE 0200 		AND.W	R14, 2(R12)
 297 00b0 8000 0000 		BRA	#.L105
 298               	.L51:
 299 00b4 8CFE 0A00 		AND.W	R14, 10(R12)
 300 00b8 8CFE 0C00 		AND.W	R14, 12(R12)
 301 00bc 8000 0000 		BRA	#.L38
 302               	.L44:
 303 00c0 1DBC 0A00 		BIT.W	10(R12), R13 { JNE	.L53
 303      0020 
 304 00c6 1DBC 0C00 		BIT.W	12(R12), R13 { JNE	.L99
 304      0020 
 305               	.L53:
 306 00cc 8CDD 0A00 		BIS.W	R13, 10(R12)
 307 00d0 8CCD 0C00 		BIC.W	R13, 12(R12)
 308 00d4 8000 0000 		BRA	#.L38
 309               	.L47:
 310 00d8 1DBC 0A00 		BIT.W	10(R12), R13 { JEQ	.L54
 310      0024 
 311 00de 1DBC 0C00 		BIT.W	12(R12), R13 { JEQ	.L99
 311      0024 
 312               	.L54:
 313 00e4 8CCD 0A00 		BIC.W	R13, 10(R12)
 314               	.L98:
 315 00e8 8CDD 0C00 		BIS.W	R13, 12(R12)
 316 00ec 8000 0000 		BRA	#.L38
 317               		.size	_pal_lld_setgroupmode, .-_pal_lld_setgroupmode
 318               		.section	.text._pal_lld_enablepadevent,"ax",@progbits
 319               		.balign 2
 320               		.global	_pal_lld_enablepadevent
 321               		.type	_pal_lld_enablepadevent, @function
 322               	_pal_lld_enablepadevent:
 323               	; start of function
 324               	; framesize_regs:     20
 325               	; framesize_locals:   4
 326               	; framesize_outgoing: 0
 327               	; framesize:          24
 328               	; elim ap -> fp       24
 329               	; elim fp -> sp       4
 330               	; saved regs: R6 R7 R8 R9 R10
 331               		; start of prologue
 332 0000 4A14      		PUSHM.A	#5, R10
 333 0002 B100 0400 		SUBA	#4, R1
 334               		; end of prologue
 335 0006 CA0C      		MOVA	R12, R10
 336 0008 494D      		MOV.B	R13, R9
 337 000a 474E      		MOV.B	R14, R7
 338 000c C60F      		MOVA	R15, R6
 339 000e 0018 4D4C 		MOVX.A	R12, R13 { MOV.W	R12, R12 { RPT	#16 { RRAX.A	R13 ; sign extend pointer in R12 into R12:R13
GAS LISTING /tmp/ccDhj3tg.s 			page 8


 339      0C4C 0F18 
 339      4D11 
 340 0018 B013 0000 		CALLA	#__mspabi_sral_4
 341 001c 0D12 0C12 		PUSH.W	R13 { PUSH.W	R12 { POPM.A	#1, R12
 341      0C16 
 342 0022 7CF0 0F00 		AND.B	#15, R12
 343 0026 7D40 0700 		MOV.B	#7, R13
 344 002a 4D99 0028 		CMP.B	R9, R13 { JLO	.L113
 345 002e 5D43      		MOV.B	#1, R13
 346               	.L108:
 347 0030 0849      		MOV.W	R9, R8
 348 0032 78F0 0700 		AND.B	#7, R8
 349 0036 480E 480D 		RLAM.A #4, R8 { RRAM.A #4, R8
 350 003a 4D5C      		ADD.B	R12, R13
 351 003c 4C4D      		MOV.B	R13, R12
 352 003e 3C53      		ADD.W	#-1, R12
 353 0040 4C0E 4C0D 		RLAM.A #4, R12 { RRAM.A #4, R12
 354 0044 0C14 4018 		PUSHM.A	#1, R12 { POPX.W	R12 { POPX.W	R13 ; move pointer in R12 into reg-pair R12:R13
 354      3C41 4018 
 354      3D41 
 355 004e B013 0000 		CALLA	#__mspabi_slll_3
 356 0052 0D12 0C12 		PUSH.W	R13 { PUSH.W	R12 { POPM.A	#1, R12
 356      0C16 
 357 0058 E80C      		ADDA	R12, R8
 358 005a 0814 4018 		PUSHM.A	#1, R8 { POPX.W	R12 { POPX.W	R13 ; move pointer in R8 into reg-pair R12:R13
 358      3C41 4018 
 358      3D41 
 359 0064 0E4C      		MOV.W	R12, R14
 360 0066 0F4D      		MOV.W	R13, R15
 361 0068 0E5E 0F6F 		RLA.W	R14 { RLC.W	R15 { RLA.W	R14 { RLC.W	R15
 361      0E5E 0F6F 
 362 0070 814E 0000 		MOV.W	R14, @R1
 363 0074 814F 0200 		MOV.W	R15, 2(R1)
 364 0078 0C01      		MOVA	@R1, R12
 365 007a 0018 CC46 		MOVX.A	R6, port_callback_map(R12)
 365      0000 
 366 0080 5793 0020 		CMP.B	#1, R7 { JNE	.L109
 367 0084 184A 1800 		MOV.W	24(R10), R8
 368 0088 5C43      		MOV.B	#1, R12
 369 008a 0D49      		MOV.W	R9, R13
 370 008c B013 0000 		CALLA	#__mspabi_slli
 371 0090 08CC      		BIC.W	R12, R8
 372 0092 8A48 1800 		MOV.W	R8, 24(R10)
 373               	.L110:
 374 0096 184A 1C00 		MOV.W	28(R10), R8
 375 009a 5C43      		MOV.B	#1, R12
 376 009c 0D49      		MOV.W	R9, R13
 377 009e B013 0000 		CALLA	#__mspabi_slli
 378 00a2 08CC      		BIC.W	R12, R8
 379 00a4 8A48 1C00 		MOV.W	R8, 28(R10)
 380 00a8 8ADC 1A00 		BIS.W	R12, 26(R10)
 381 00ac 8000 0000 		BRA	#.L107
 382               	.L113:
 383 00b0 6D43      		MOV.B	#2, R13
 384 00b2 8000 0000 		BRA	#.L108
 385               	.L109:
 386 00b6 6793 0020 		CMP.B	#2, R7 { JNE	.L111
GAS LISTING /tmp/ccDhj3tg.s 			page 9


 387 00ba 184A 1800 		MOV.W	24(R10), R8
 388 00be 5C43      		MOV.B	#1, R12
 389 00c0 0D49      		MOV.W	R9, R13
 390 00c2 B013 0000 		CALLA	#__mspabi_slli
 391 00c6 0CD8      		BIS.W	R8, R12
 392 00c8 8A4C 1800 		MOV.W	R12, 24(R10)
 393 00cc 8000 0000 		BRA	#.L110
 394               	.L111:
 395 00d0 0793 0020 		CMP.W	#0, R7 { JNE	.L110
 396 00d4 184A 1A00 		MOV.W	26(R10), R8
 397 00d8 5C43      		MOV.B	#1, R12
 398 00da 0D49      		MOV.W	R9, R13
 399 00dc B013 0000 		CALLA	#__mspabi_slli
 400 00e0 08CC      		BIC.W	R12, R8
 401 00e2 8A48 1A00 		MOV.W	R8, 26(R10)
 402               	.L107:
 403               		; start of epilogue
 404 00e6 A100 0400 		ADDA	#4, R1
 405 00ea 4616      		POPM.A	#5, r10
 406 00ec 1001      		RETA
 407               		.size	_pal_lld_enablepadevent, .-_pal_lld_enablepadevent
 408               		.section	.text._pal_lld_disablepadevent,"ax",@progbits
 409               		.balign 2
 410               		.global	_pal_lld_disablepadevent
 411               		.type	_pal_lld_disablepadevent, @function
 412               	_pal_lld_disablepadevent:
 413               	; start of function
 414               	; framesize_regs:     8
 415               	; framesize_locals:   0
 416               	; framesize_outgoing: 0
 417               	; framesize:          8
 418               	; elim ap -> fp       12
 419               	; elim fp -> sp       0
 420               	; saved regs: R9 R10
 421               		; start of prologue
 422 0000 1A14      		PUSHM.A	#2, R10
 423               		; end of prologue
 424 0002 CA0C      		MOVA	R12, R10
 425 0004 194C 1A00 		MOV.W	26(R12), R9
 426 0008 5C43      		MOV.B	#1, R12
 427 000a 3DF0 FF00 		AND	#0xff, R13
 428 000e B013 0000 		CALLA	#__mspabi_slli
 429 0012 09CC      		BIC.W	R12, R9
 430 0014 8A49 1A00 		MOV.W	R9, 26(R10)
 431               		; start of epilogue
 432 0018 1916      		POPM.A	#2, r10
 433 001a 1001      		RETA
 434               		.size	_pal_lld_disablepadevent, .-_pal_lld_disablepadevent
 435               		.global	port_callback_map
 436               		.section	.upper.bss,"aw",@nobits
 437               		.balign 2
 438               		.type	port_callback_map, @object
 439               		.size	port_callback_map, 128
 440               	port_callback_map:
 441 0000 0000 0000 		.zero	128
 441      0000 0000 
 441      0000 0000 
GAS LISTING /tmp/ccDhj3tg.s 			page 10


 441      0000 0000 
 441      0000 0000 
 442               		.ident	"GCC: (SOMNIUM Technologies Limited - msp430-gcc 6.2.1.16) 6.2.1 20161212"
GAS LISTING /tmp/ccDhj3tg.s 			page 11


DEFINED SYMBOLS
                            *ABS*:0000000000000000 hal_pal_lld.c
     /tmp/ccDhj3tg.s:9      .lower.lowtext:0000000000000000 ISR_PORT1_VECTOR
     /tmp/ccDhj3tg.s:440    .upper.bss:0000000000000000 port_callback_map
     /tmp/ccDhj3tg.s:55     .lower.lowtext:000000000000005c ISR_PORT2_VECTOR
     /tmp/ccDhj3tg.s:103    .lower.lowtext:00000000000000c8 ISR_PORT3_VECTOR
     /tmp/ccDhj3tg.s:151    .lower.lowtext:0000000000000134 ISR_PORT4_VECTOR
     /tmp/ccDhj3tg.s:197    .text._pal_lld_init:0000000000000000 _pal_lld_init
     /tmp/ccDhj3tg.s:231    .text._pal_lld_setgroupmode:0000000000000000 _pal_lld_setgroupmode
     /tmp/ccDhj3tg.s:322    .text._pal_lld_enablepadevent:0000000000000000 _pal_lld_enablepadevent
     /tmp/ccDhj3tg.s:412    .text._pal_lld_disablepadevent:0000000000000000 _pal_lld_disablepadevent
     /tmp/ccDhj3tg.s:38     .lower.lowtext:0000000000000042 .L2
     /tmp/ccDhj3tg.s:43     .lower.lowtext:0000000000000054 .L1
     /tmp/ccDhj3tg.s:86     .lower.lowtext:00000000000000ae .L11
     /tmp/ccDhj3tg.s:91     .lower.lowtext:00000000000000c0 .L10
     /tmp/ccDhj3tg.s:134    .lower.lowtext:000000000000011a .L20
     /tmp/ccDhj3tg.s:139    .lower.lowtext:000000000000012c .L19
     /tmp/ccDhj3tg.s:182    .lower.lowtext:0000000000000186 .L29
     /tmp/ccDhj3tg.s:187    .lower.lowtext:0000000000000198 .L28
     /tmp/ccDhj3tg.s:291    .text._pal_lld_setgroupmode:00000000000000a0 .L40
     /tmp/ccDhj3tg.s:252    .text._pal_lld_setgroupmode:000000000000001e .L41
     /tmp/ccDhj3tg.s:284    .text._pal_lld_setgroupmode:000000000000008c .L42
     /tmp/ccDhj3tg.s:273    .text._pal_lld_setgroupmode:000000000000006c .L43
     /tmp/ccDhj3tg.s:302    .text._pal_lld_setgroupmode:00000000000000c0 .L44
     /tmp/ccDhj3tg.s:265    .text._pal_lld_setgroupmode:000000000000004c .L45
     /tmp/ccDhj3tg.s:249    .text._pal_lld_setgroupmode:000000000000001c .L38
     /tmp/ccDhj3tg.s:260    .text._pal_lld_setgroupmode:000000000000003e .L52
     /tmp/ccDhj3tg.s:281    .text._pal_lld_setgroupmode:0000000000000084 .L99
     /tmp/ccDhj3tg.s:309    .text._pal_lld_setgroupmode:00000000000000d8 .L47
     /tmp/ccDhj3tg.s:270    .text._pal_lld_setgroupmode:0000000000000064 .L55
     /tmp/ccDhj3tg.s:314    .text._pal_lld_setgroupmode:00000000000000e8 .L98
     /tmp/ccDhj3tg.s:298    .text._pal_lld_setgroupmode:00000000000000b4 .L51
     /tmp/ccDhj3tg.s:278    .text._pal_lld_setgroupmode:0000000000000078 .L105
     /tmp/ccDhj3tg.s:305    .text._pal_lld_setgroupmode:00000000000000cc .L53
     /tmp/ccDhj3tg.s:312    .text._pal_lld_setgroupmode:00000000000000e4 .L54
     /tmp/ccDhj3tg.s:382    .text._pal_lld_enablepadevent:00000000000000b0 .L113
     /tmp/ccDhj3tg.s:385    .text._pal_lld_enablepadevent:00000000000000b6 .L109
     /tmp/ccDhj3tg.s:402    .text._pal_lld_enablepadevent:00000000000000e6 .L107
     /tmp/ccDhj3tg.s:346    .text._pal_lld_enablepadevent:0000000000000030 .L108
     /tmp/ccDhj3tg.s:394    .text._pal_lld_enablepadevent:00000000000000d0 .L111
     /tmp/ccDhj3tg.s:373    .text._pal_lld_enablepadevent:0000000000000096 .L110

UNDEFINED SYMBOLS
__msp430x_in_isr
P1IV
chSchIsPreemptionRequired
chSchDoReschedule
P2IV
P3IV
P4IV
PAOUT
PADIR
PAREN
PASEL0
PASEL1
PBOUT
PBDIR
GAS LISTING /tmp/ccDhj3tg.s 			page 12


PBREN
PBSEL0
PBSEL1
PJOUT
PJDIR
PJREN
PJSEL0
PJSEL1
PM5CTL0
__mspabi_sral_4
__mspabi_slll_3
__mspabi_slli
__crt0_init_highbss
