GAS LISTING /tmp/ccBNIznk.s 			page 1


   1               		.file	"hal_i2c.c"
   2               		.section	.text.i2cInit,"ax",@progbits
   3               		.balign 2
   4               		.global	i2cInit
   5               		.type	i2cInit, @function
   6               	i2cInit:
   7               	; start of function
   8               	; framesize_regs:     0
   9               	; framesize_locals:   0
  10               	; framesize_outgoing: 0
  11               	; framesize:          0
  12               	; elim ap -> fp       4
  13               	; elim fp -> sp       0
  14               	; saved regs:(none)
  15               		; start of prologue
  16               		; end of prologue
  17 0000 B013 0000 		CALLA	#i2c_lld_init
  18               		; start of epilogue
  19 0004 1001      		RETA
  20               		.size	i2cInit, .-i2cInit
  21               		.section	.text.i2cObjectInit,"ax",@progbits
  22               		.balign 2
  23               		.global	i2cObjectInit
  24               		.type	i2cObjectInit, @function
  25               	i2cObjectInit:
  26               	; start of function
  27               	; framesize_regs:     0
  28               	; framesize_locals:   0
  29               	; framesize_outgoing: 0
  30               	; framesize:          0
  31               	; elim ap -> fp       4
  32               	; elim fp -> sp       0
  33               	; saved regs:(none)
  34               		; start of prologue
  35               		; end of prologue
  36 0000 DC43 0000 		MOV.B	#1, @R12
  37 0004 0018 CC43 		MOVX.A	#0, 2(R12)
  37      0200 
  38               		; start of epilogue
  39 000a 1001      		RETA
  40               		.size	i2cObjectInit, .-i2cObjectInit
  41               		.section	.text.i2cStart,"ax",@progbits
  42               		.balign 2
  43               		.global	i2cStart
  44               		.type	i2cStart, @function
  45               	i2cStart:
  46               	; start of function
  47               	; framesize_regs:     8
  48               	; framesize_locals:   0
  49               	; framesize_outgoing: 0
  50               	; framesize:          8
  51               	; elim ap -> fp       12
  52               	; elim fp -> sp       0
  53               	; saved regs: R8 R10
  54               		; start of prologue
  55 0000 0A14      		PUSHM.A	#1, R10
  56 0002 0814      		PUSHM.A	#1, R8
GAS LISTING /tmp/ccBNIznk.s 			page 2


  57               		; end of prologue
  58 0004 CA0C      		MOVA	R12, R10
  59 0006 C80D      		MOVA	R13, R8
  60 0008 9C00 0000 		CMPA	#0, R12 { JEQ	.L4
  60      0024 
  61 000e 9D00 0000 		CMPA	#0, R13 { JNE	.L5
  61      0020 
  62               	.L4:
  63 0014 8C00 0000 		MOVA	#__func__.3703, R12
  64 0018 B013 0000 		CALLA	#chSysHalt
  65               	.L5:
  66 001c 6C4A      		MOV.B	@R10, R12
  67 001e 4D4C      		MOV.B	R12, R13
  68 0020 7D53      		ADD.B	#-1, R13
  69 0022 5E43      		MOV.B	#1, R14
  70 0024 4E9D 002C 		CMP.B	R13, R14 { JHS	.L6
  71 0028 3C90 0500 		CMP.W	#5, R12 { JEQ	.L6
  71      0024 
  72 002e 8C00 0000 		MOVA	#__func__.3703, R12
  73 0032 B013 0000 		CALLA	#chSysHalt
  74               	.L6:
  75               	 ; 347 "../ChibiOS-Contrib/os/common/ports/MSP430X/chcore.h" 1
  76 0036 32C2 0343 		dint { nop
  77               	 ; 0 "" 2
  78               	 ; 348 "../ChibiOS-Contrib/os/common/ports/MSP430X/chcore.h" 1
  79 003a 0343      		nop
  80               	 ; 0 "" 2
  81 003c 7A08 0200 		MOVA	R8, 2(R10)
  82 0040 CC0A      		MOVA	R10, R12
  83 0042 B013 0000 		CALLA	#i2c_lld_start
  84 0046 EA43 0000 		MOV.B	#2, @R10
  85               	 ; 355 "../ChibiOS-Contrib/os/common/ports/MSP430X/chcore.h" 1
  86 004a 0343      		nop
  87               	 ; 0 "" 2
  88               	 ; 356 "../ChibiOS-Contrib/os/common/ports/MSP430X/chcore.h" 1
  89 004c 0343 32D2 		nop { eint { nop
  89      0343 
  90               	 ; 0 "" 2
  91               		; start of epilogue
  92 0052 0816      		POPM.A	#1, r8
  93 0054 0A16      		POPM.A	#1, r10
  94 0056 1001      		RETA
  95               		.size	i2cStart, .-i2cStart
  96               		.section	.text.i2cStop,"ax",@progbits
  97               		.balign 2
  98               		.global	i2cStop
  99               		.type	i2cStop, @function
 100               	i2cStop:
 101               	; start of function
 102               	; framesize_regs:     4
 103               	; framesize_locals:   0
 104               	; framesize_outgoing: 0
 105               	; framesize:          4
 106               	; elim ap -> fp       8
 107               	; elim fp -> sp       0
 108               	; saved regs: R10
 109               		; start of prologue
GAS LISTING /tmp/ccBNIznk.s 			page 3


 110 0000 0A14      		PUSHM.A	#1, R10
 111               		; end of prologue
 112 0002 CA0C      		MOVA	R12, R10
 113 0004 9C00 0000 		CMPA	#0, R12 { JNE	.L14
 113      0020 
 114 000a 8C00 0000 		MOVA	#__func__.3707, R12
 115 000e B013 0000 		CALLA	#chSysHalt
 116               	.L14:
 117               	 ; 347 "../ChibiOS-Contrib/os/common/ports/MSP430X/chcore.h" 1
 118 0012 32C2 0343 		dint { nop
 119               	 ; 0 "" 2
 120               	 ; 348 "../ChibiOS-Contrib/os/common/ports/MSP430X/chcore.h" 1
 121 0016 0343      		nop
 122               	 ; 0 "" 2
 123 0018 6C4A      		MOV.B	@R10, R12
 124 001a 4D4C      		MOV.B	R12, R13
 125 001c 7D53      		ADD.B	#-1, R13
 126 001e 5E43      		MOV.B	#1, R14
 127 0020 4E9D 002C 		CMP.B	R13, R14 { JHS	.L15
 128 0024 3C90 0500 		CMP.W	#5, R12 { JEQ	.L15
 128      0024 
 129 002a 8C00 0000 		MOVA	#__func__.3707, R12
 130 002e B013 0000 		CALLA	#chSysHalt
 131               	.L15:
 132 0032 CC0A      		MOVA	R10, R12
 133 0034 B013 0000 		CALLA	#i2c_lld_stop
 134 0038 0018 CA43 		MOVX.A	#0, 2(R10)
 134      0200 
 135 003e DA43 0000 		MOV.B	#1, @R10
 136               	 ; 355 "../ChibiOS-Contrib/os/common/ports/MSP430X/chcore.h" 1
 137 0042 0343      		nop
 138               	 ; 0 "" 2
 139               	 ; 356 "../ChibiOS-Contrib/os/common/ports/MSP430X/chcore.h" 1
 140 0044 0343 32D2 		nop { eint { nop
 140      0343 
 141               	 ; 0 "" 2
 142               		; start of epilogue
 143 004a 0A16      		POPM.A	#1, r10
 144 004c 1001      		RETA
 145               		.size	i2cStop, .-i2cStop
 146               		.section	.text.i2cGetErrors,"ax",@progbits
 147               		.balign 2
 148               		.global	i2cGetErrors
 149               		.type	i2cGetErrors, @function
 150               	i2cGetErrors:
 151               	; start of function
 152               	; framesize_regs:     4
 153               	; framesize_locals:   0
 154               	; framesize_outgoing: 0
 155               	; framesize:          4
 156               	; elim ap -> fp       8
 157               	; elim fp -> sp       0
 158               	; saved regs: R10
 159               		; start of prologue
 160 0000 0A14      		PUSHM.A	#1, R10
 161               		; end of prologue
 162 0002 CA0C      		MOVA	R12, R10
GAS LISTING /tmp/ccBNIznk.s 			page 4


 163 0004 9C00 0000 		CMPA	#0, R12 { JNE	.L20
 163      0020 
 164 000a 8C00 0000 		MOVA	#__func__.3711, R12
 165 000e B013 0000 		CALLA	#chSysHalt
 166               	.L20:
 167 0012 1C4A 0600 		MOV.W	6(R10), R12
 168               		; start of epilogue
 169 0016 0A16      		POPM.A	#1, r10
 170 0018 1001      		RETA
 171               		.size	i2cGetErrors, .-i2cGetErrors
 172               		.section	.text.i2cMasterTransmitTimeout,"ax",@progbits
 173               		.balign 2
 174               		.global	i2cMasterTransmitTimeout
 175               		.type	i2cMasterTransmitTimeout, @function
 176               	i2cMasterTransmitTimeout:
 177               	; start of function
 178               	; framesize_regs:     24
 179               	; framesize_locals:   0
 180               	; framesize_outgoing: 10
 181               	; framesize:          34
 182               	; elim ap -> fp       28
 183               	; elim fp -> sp       10
 184               	; saved regs: R4 R6 R7 R8 R9 R10
 185               		; start of prologue
 186 0000 4A14      		PUSHM.A	#5, R10
 187 0002 0414      		PUSHM.A	#1, R4
 188 0004 B100 0A00 		SUBA	#10, R1
 189               		; end of prologue
 190 0008 CA0C      		MOVA	R12, R10
 191 000a 494D      		MOV.B	R13, R9
 192 000c C60E      		MOVA	R14, R6
 193 000e C80F      		MOVA	R15, R8
 194 0010 3401 2A00 		MOVA	42(R1), R4
 195 0014 1741 2E00 		MOV.W	46(R1), R7
 196 0018 9C00 0000 		CMPA	#0, R12 { JEQ	.L22
 196      0024 
 197 001e 0993 0024 		CMP.W	#0, R9 { JEQ	.L22
 198 0022 9F00 0000 		CMPA	#0, R15 { JEQ	.L22
 198      0024 
 199 0028 9E00 0000 		CMPA	#0, R14 { JEQ	.L22
 199      0024 
 200 002e 9400 0000 		CMPA	#0, R4 { JEQ	.L23
 200      0024 
 201 0034 0018 C193 		CMPX.A	#0, 38(R1) { JEQ	.L22
 201      2600 0024 
 202               	.L23:
 203 003c 3793 0020 		CMP.W	#-1, R7 { JNE	.L24
 204               	.L22:
 205 0040 8C00 0000 		MOVA	#__func__.3722, R12
 206 0044 B013 0000 		CALLA	#chSysHalt
 207               	.L24:
 208 0048 EA93 0000 		CMP.B	#2, @R10 { JEQ	.L25
 208      0024 
 209 004e 8C00 0000 		MOVA	#__func__.3722, R12
 210 0052 B013 0000 		CALLA	#chSysHalt
 211               	.L25:
 212               	 ; 347 "../ChibiOS-Contrib/os/common/ports/MSP430X/chcore.h" 1
GAS LISTING /tmp/ccBNIznk.s 			page 5


 213 0056 32C2 0343 		dint { nop
 214               	 ; 0 "" 2
 215               	 ; 348 "../ChibiOS-Contrib/os/common/ports/MSP430X/chcore.h" 1
 216 005a 0343      		nop
 217               	 ; 0 "" 2
 218 005c 8A43 0600 		MOV.W	#0, 6(R10)
 219 0060 FA40 0300 		MOV.B	#3, @R10
 219      0000 
 220 0066 8147 0800 		MOV.W	R7, 8(R1)
 221 006a 7104 0400 		MOVA	R4, 4(R1)
 222 006e 0018 D141 		MOVX.A	38(R1), @R1
 222      2600 0000 
 223 0076 CF08      		MOVA	R8, R15
 224 0078 CE06      		MOVA	R6, R14
 225 007a 4D49      		MOV.B	R9, R13
 226 007c CC0A      		MOVA	R10, R12
 227 007e B013 0000 		CALLA	#i2c_lld_master_transmit_timeout
 228 0082 9C0F FFFF 		CMPA	#-1, R12 { JNE	.L26
 228      0020 
 229 0088 FA40 0500 		MOV.B	#5, @R10
 229      0000 
 230               	.L27:
 231               	 ; 355 "../ChibiOS-Contrib/os/common/ports/MSP430X/chcore.h" 1
 232 008e 0343      		nop
 233               	 ; 0 "" 2
 234               	 ; 356 "../ChibiOS-Contrib/os/common/ports/MSP430X/chcore.h" 1
 235 0090 0343 32D2 		nop { eint { nop
 235      0343 
 236               	 ; 0 "" 2
 237               		; start of epilogue
 238 0096 A100 0A00 		ADDA	#10, R1
 239 009a 0416      		POPM.A	#1, r4
 240 009c 4616      		POPM.A	#5, r10
 241 009e 1001      		RETA
 242               	.L26:
 243 00a0 EA43 0000 		MOV.B	#2, @R10
 244 00a4 8000 0000 		BRA	#.L27
 245               		.size	i2cMasterTransmitTimeout, .-i2cMasterTransmitTimeout
 246               		.section	.text.i2cMasterReceiveTimeout,"ax",@progbits
 247               		.balign 2
 248               		.global	i2cMasterReceiveTimeout
 249               		.type	i2cMasterReceiveTimeout, @function
 250               	i2cMasterReceiveTimeout:
 251               	; start of function
 252               	; framesize_regs:     20
 253               	; framesize_locals:   0
 254               	; framesize_outgoing: 2
 255               	; framesize:          22
 256               	; elim ap -> fp       24
 257               	; elim fp -> sp       2
 258               	; saved regs: R6 R7 R8 R9 R10
 259               		; start of prologue
 260 0000 4A14      		PUSHM.A	#5, R10
 261 0002 B100 0200 		SUBA	#2, R1
 262               		; end of prologue
 263 0006 CA0C      		MOVA	R12, R10
 264 0008 494D      		MOV.B	R13, R9
GAS LISTING /tmp/ccBNIznk.s 			page 6


 265 000a C60E      		MOVA	R14, R6
 266 000c C80F      		MOVA	R15, R8
 267 000e 1741 1A00 		MOV.W	26(R1), R7
 268 0012 9C00 0000 		CMPA	#0, R12 { JEQ	.L43
 268      0024 
 269 0018 0993 0024 		CMP.W	#0, R9 { JEQ	.L43
 270 001c 9F00 0000 		CMPA	#0, R15 { JEQ	.L43
 270      0024 
 271 0022 9E00 0000 		CMPA	#0, R14 { JEQ	.L43
 271      0024 
 272 0028 3793 0020 		CMP.W	#-1, R7 { JNE	.L44
 273               	.L43:
 274 002c 8C00 0000 		MOVA	#__func__.3731, R12
 275 0030 B013 0000 		CALLA	#chSysHalt
 276               	.L44:
 277 0034 EA93 0000 		CMP.B	#2, @R10 { JEQ	.L45
 277      0024 
 278 003a 8C00 0000 		MOVA	#__func__.3731, R12
 279 003e B013 0000 		CALLA	#chSysHalt
 280               	.L45:
 281               	 ; 347 "../ChibiOS-Contrib/os/common/ports/MSP430X/chcore.h" 1
 282 0042 32C2 0343 		dint { nop
 283               	 ; 0 "" 2
 284               	 ; 348 "../ChibiOS-Contrib/os/common/ports/MSP430X/chcore.h" 1
 285 0046 0343      		nop
 286               	 ; 0 "" 2
 287 0048 8A43 0600 		MOV.W	#0, 6(R10)
 288 004c EA42 0000 		MOV.B	#4, @R10
 289 0050 8147 0000 		MOV.W	R7, @R1
 290 0054 CF08      		MOVA	R8, R15
 291 0056 CE06      		MOVA	R6, R14
 292 0058 4D49      		MOV.B	R9, R13
 293 005a CC0A      		MOVA	R10, R12
 294 005c B013 0000 		CALLA	#i2c_lld_master_receive_timeout
 295 0060 9C0F FFFF 		CMPA	#-1, R12 { JNE	.L46
 295      0020 
 296 0066 FA40 0500 		MOV.B	#5, @R10
 296      0000 
 297               	.L47:
 298               	 ; 355 "../ChibiOS-Contrib/os/common/ports/MSP430X/chcore.h" 1
 299 006c 0343      		nop
 300               	 ; 0 "" 2
 301               	 ; 356 "../ChibiOS-Contrib/os/common/ports/MSP430X/chcore.h" 1
 302 006e 0343 32D2 		nop { eint { nop
 302      0343 
 303               	 ; 0 "" 2
 304               		; start of epilogue
 305 0074 A100 0200 		ADDA	#2, R1
 306 0078 4616      		POPM.A	#5, r10
 307 007a 1001      		RETA
 308               	.L46:
 309 007c EA43 0000 		MOV.B	#2, @R10
 310 0080 8000 0000 		BRA	#.L47
 311               		.size	i2cMasterReceiveTimeout, .-i2cMasterReceiveTimeout
 312               		.section	.upper.rodata,"a",@progbits
 313               		.type	__func__.3731, @object
 314               		.size	__func__.3731, 24
GAS LISTING /tmp/ccBNIznk.s 			page 7


 315               	__func__.3731:
 316 0000 6932 634D 		.string	"i2cMasterReceiveTimeout"
 316      6173 7465 
 316      7252 6563 
 316      6569 7665 
 316      5469 6D65 
 317               		.type	__func__.3722, @object
 318               		.size	__func__.3722, 25
 319               	__func__.3722:
 320 0018 6932 634D 		.string	"i2cMasterTransmitTimeout"
 320      6173 7465 
 320      7254 7261 
 320      6E73 6D69 
 320      7454 696D 
 321               		.type	__func__.3711, @object
 322               		.size	__func__.3711, 13
 323               	__func__.3711:
 324 0031 6932 6347 		.string	"i2cGetErrors"
 324      6574 4572 
 324      726F 7273 
 324      00
 325               		.type	__func__.3707, @object
 326               		.size	__func__.3707, 8
 327               	__func__.3707:
 328 003e 6932 6353 		.string	"i2cStop"
 328      746F 7000 
 329               		.type	__func__.3703, @object
 330               		.size	__func__.3703, 9
 331               	__func__.3703:
 332 0046 6932 6353 		.string	"i2cStart"
 332      7461 7274 
 332      00
 333               		.ident	"GCC: (SOMNIUM Technologies Limited - msp430-gcc 6.2.1.16) 6.2.1 20161212"
GAS LISTING /tmp/ccBNIznk.s 			page 8


DEFINED SYMBOLS
                            *ABS*:0000000000000000 hal_i2c.c
     /tmp/ccBNIznk.s:6      .text.i2cInit:0000000000000000 i2cInit
     /tmp/ccBNIznk.s:25     .text.i2cObjectInit:0000000000000000 i2cObjectInit
     /tmp/ccBNIznk.s:45     .text.i2cStart:0000000000000000 i2cStart
     /tmp/ccBNIznk.s:331    .upper.rodata:0000000000000046 __func__.3703
     /tmp/ccBNIznk.s:100    .text.i2cStop:0000000000000000 i2cStop
     /tmp/ccBNIznk.s:327    .upper.rodata:000000000000003e __func__.3707
     /tmp/ccBNIznk.s:150    .text.i2cGetErrors:0000000000000000 i2cGetErrors
     /tmp/ccBNIznk.s:323    .upper.rodata:0000000000000031 __func__.3711
     /tmp/ccBNIznk.s:176    .text.i2cMasterTransmitTimeout:0000000000000000 i2cMasterTransmitTimeout
     /tmp/ccBNIznk.s:319    .upper.rodata:0000000000000018 __func__.3722
     /tmp/ccBNIznk.s:250    .text.i2cMasterReceiveTimeout:0000000000000000 i2cMasterReceiveTimeout
     /tmp/ccBNIznk.s:315    .upper.rodata:0000000000000000 __func__.3731
     /tmp/ccBNIznk.s:62     .text.i2cStart:0000000000000014 .L4
     /tmp/ccBNIznk.s:65     .text.i2cStart:000000000000001c .L5
     /tmp/ccBNIznk.s:74     .text.i2cStart:0000000000000036 .L6
     /tmp/ccBNIznk.s:116    .text.i2cStop:0000000000000012 .L14
     /tmp/ccBNIznk.s:131    .text.i2cStop:0000000000000032 .L15
     /tmp/ccBNIznk.s:166    .text.i2cGetErrors:0000000000000012 .L20
     /tmp/ccBNIznk.s:204    .text.i2cMasterTransmitTimeout:0000000000000040 .L22
     /tmp/ccBNIznk.s:202    .text.i2cMasterTransmitTimeout:000000000000003c .L23
     /tmp/ccBNIznk.s:207    .text.i2cMasterTransmitTimeout:0000000000000048 .L24
     /tmp/ccBNIznk.s:211    .text.i2cMasterTransmitTimeout:0000000000000056 .L25
     /tmp/ccBNIznk.s:242    .text.i2cMasterTransmitTimeout:00000000000000a0 .L26
     /tmp/ccBNIznk.s:230    .text.i2cMasterTransmitTimeout:000000000000008e .L27
     /tmp/ccBNIznk.s:273    .text.i2cMasterReceiveTimeout:000000000000002c .L43
     /tmp/ccBNIznk.s:276    .text.i2cMasterReceiveTimeout:0000000000000034 .L44
     /tmp/ccBNIznk.s:280    .text.i2cMasterReceiveTimeout:0000000000000042 .L45
     /tmp/ccBNIznk.s:308    .text.i2cMasterReceiveTimeout:000000000000007c .L46
     /tmp/ccBNIznk.s:297    .text.i2cMasterReceiveTimeout:000000000000006c .L47

UNDEFINED SYMBOLS
i2c_lld_init
chSysHalt
i2c_lld_start
i2c_lld_stop
i2c_lld_master_transmit_timeout
i2c_lld_master_receive_timeout
