GAS LISTING /tmp/ccfVKgim.s 			page 1


   1               		.file	"hal_i2c_lld.c"
   2               		.section	.text.tx_complete,"ax",@progbits
   3               		.balign 2
   4               		.global	tx_complete
   5               		.type	tx_complete, @function
   6               	tx_complete:
   7               	; start of function
   8               	; framesize_regs:     0
   9               	; framesize_locals:   0
  10               	; framesize_outgoing: 0
  11               	; framesize:          0
  12               	; elim ap -> fp       4
  13               	; elim fp -> sp       0
  14               	; saved regs:(none)
  15               		; start of prologue
  16               		; end of prologue
  17 0000 3C0C 1000 		MOVA	16(R12), R12
  18 0004 ACD3 2A00 		BIS.W	#2, 42(R12)
  19               		; start of epilogue
  20 0008 1001      		RETA
  21               		.size	tx_complete, .-tx_complete
  22               		.section	.text.rx_complete,"ax",@progbits
  23               		.balign 2
  24               		.global	rx_complete
  25               		.type	rx_complete, @function
  26               	rx_complete:
  27               	; start of function
  28               	; framesize_regs:     0
  29               	; framesize_locals:   0
  30               	; framesize_outgoing: 0
  31               	; framesize:          0
  32               	; elim ap -> fp       4
  33               	; elim fp -> sp       0
  34               	; saved regs:(none)
  35               		; start of prologue
  36               		; end of prologue
  37 0000 3C0C 1000 		MOVA	16(R12), R12
  38 0004 ACD2 0000 		BIS.W	#4, @R12
  39 0008 9CD3 2A00 		BIS.W	#1, 42(R12)
  40               		; start of epilogue
  41 000c 1001      		RETA
  42               		.size	rx_complete, .-rx_complete
  43               		.section	.text.i2c_lld_init,"ax",@progbits
  44               		.balign 2
  45               		.global	i2c_lld_init
  46               		.type	i2c_lld_init, @function
  47               	i2c_lld_init:
  48               	; start of function
  49               	; framesize_regs:     4
  50               	; framesize_locals:   0
  51               	; framesize_outgoing: 0
  52               	; framesize:          4
  53               	; elim ap -> fp       8
  54               	; elim fp -> sp       0
  55               	; saved regs: R10
  56               		; start of prologue
  57 0000 0A14      		PUSHM.A	#1, R10
GAS LISTING /tmp/ccfVKgim.s 			page 2


  58               		; end of prologue
  59 0002 8A00 0000 		MOVA	#I2CDB0, R10
  60 0006 CC0A      		MOVA	R10, R12
  61 0008 B013 0000 		CALLA	#i2cObjectInit
  62 000c 0018 FA40 		MOVX.A	#UCB0CTLW0, 16(R10)
  62      0000 1000 
  63 0014 BA40 C000 		MOV.W	#192, 32(R10)
  63      2000 
  64 001a 8A43 2200 		MOV.W	#0, 34(R10)
  65 001e FA40 1300 		MOV.B	#19, 50(R10)
  65      3200 
  66 0024 FA40 1200 		MOV.B	#18, 51(R10)
  66      3300 
  67 002a 0018 CA43 		MOVX.A	#0, 38(R10)
  67      2600 
  68 0030 7A0A 2A00 		MOVA	R10, 42(R10)
  69               		; start of epilogue
  70 0034 0A16      		POPM.A	#1, r10
  71 0036 1001      		RETA
  72               		.size	i2c_lld_init, .-i2c_lld_init
  73               		.global	__mspabi_divul
  74               		.section	.text.i2c_lld_start,"ax",@progbits
  75               		.balign 2
  76               		.global	i2c_lld_start
  77               		.type	i2c_lld_start, @function
  78               	i2c_lld_start:
  79               	; start of function
  80               	; framesize_regs:     4
  81               	; framesize_locals:   0
  82               	; framesize_outgoing: 0
  83               	; framesize:          4
  84               	; elim ap -> fp       8
  85               	; elim fp -> sp       0
  86               	; saved regs: R10
  87               		; start of prologue
  88 0000 0A14      		PUSHM.A	#1, R10
  89               		; end of prologue
  90 0002 CA0C      		MOVA	R12, R10
  91 0004 9C00 0000 		CMPA	#I2CDB0, R12 { JNE	.L4
  91      0020 
  92 000a 4018 92D3 		BISX.W	#1, &UCB0CTLW0
  92      0000 
  93 0010 3C0C 0200 		MOVA	2(R12), R12
  94 0014 2E4C      		MOV.W	@R12, R14
  95 0016 1F4C 0200 		MOV.W	2(R12), R15
  96 001a 3C40 0024 		MOV.W	#9216, R12
  97 001e 7D40 F400 		MOV.B	#244, R13
  98 0022 B013 0000 		CALLA	#__mspabi_divul
  99 0026 4018 824C 		MOVX.W	R12, &UCB0BRW
  99      0000 
 100 002c 4018 B240 		MOVX.W	#192, &UCB0CTLW1
 100      C000 0000 
 101 0034 4018 B240 		MOVX.W	#3968, &UCB0CTLW0
 101      800F 0000 
 102 003c 3C0A 1000 		MOVA	16(R10), R12
 103 0040 4018 BCB0 		BITX.W	#16, 8(R12) { JEQ	.L6
 103      1000 0800 
GAS LISTING /tmp/ccfVKgim.s 			page 3


 103      0024 
 104 004a 4018 92D3 		BISX.W	#1, &UCB0CTLW0
 104      0000 
 105 0050 4018 F2F0 		ANDX.B	#127, &PASEL1_L
 105      7F00 0000 
 106 0058 C01F F2D0 		BISX.B	#-128, &PADIR_L
 106      80FF 0000 
 107 0060 4018 F2F0 		ANDX.B	#127, &PAREN_L
 107      7F00 0000 
 108 0068 7C40 0A00 		MOV.B	#10, R12
 109               	.L7:
 110 006c 4018 F2F0 		ANDX.B	#127, &PAOUT_L
 110      7F00 0000 
 111 0074 C01F F2D0 		BISX.B	#-128, &PAOUT_L
 111      80FF 0000 
 112 007c 3C53      		ADD.W	#-1, R12
 113 007e 0C93 0020 		CMP.W	#0, R12 { JNE	.L7
 114 0082 4018 F2F0 		ANDX.B	#127, &PADIR_L
 114      7F00 0000 
 115 008a C01F F2D0 		BISX.B	#-128, &PASEL1_L
 115      80FF 0000 
 116 0092 C01F F2D0 		BISX.B	#-128, &PAREN_L
 116      80FF 0000 
 117 009a 4018 92C3 		BICX.W	#1, &UCB0CTLW0
 117      0000 
 118               	.L6:
 119 00a0 4018 B240 		MOVX.W	#184, &UCB0IE
 119      B800 0000 
 120 00a8 4018 8243 		MOVX.W	#0, &UCB0IFG
 120      0000 
 121               	.L4:
 122               		; start of epilogue
 123 00ae 0A16      		POPM.A	#1, r10
 124 00b0 1001      		RETA
 125               		.size	i2c_lld_start, .-i2c_lld_start
 126               		.section	.text.i2c_lld_stop,"ax",@progbits
 127               		.balign 2
 128               		.global	i2c_lld_stop
 129               		.type	i2c_lld_stop, @function
 130               	i2c_lld_stop:
 131               	; start of function
 132               	; framesize_regs:     4
 133               	; framesize_locals:   0
 134               	; framesize_outgoing: 0
 135               	; framesize:          4
 136               	; elim ap -> fp       8
 137               	; elim fp -> sp       0
 138               	; saved regs: R10
 139               		; start of prologue
 140 0000 0A14      		PUSHM.A	#1, R10
 141               		; end of prologue
 142 0002 CA0C      		MOVA	R12, R10
 143 0004 CC93 0000 		CMP.B	#0, @R12 { JNE	.L13
 143      0020 
 144 000a 8C00 0000 		MOVA	#__func__.3740, R12
 145 000e B013 0000 		CALLA	#chSysHalt
 146               	.L13:
GAS LISTING /tmp/ccfVKgim.s 			page 4


 147 0012 DA93 0000 		CMP.B	#1, @R10 { JEQ	.L12
 147      0024 
 148 0018 9A00 0000 		CMPA	#I2CDB0, R10 { JNE	.L12
 148      0020 
 149               	 ; 347 "../ChibiOS-Contrib/os/common/ports/MSP430X/chcore.h" 1
 150 001e 32C2 0343 		dint { nop
 151               	 ; 0 "" 2
 152               	 ; 348 "../ChibiOS-Contrib/os/common/ports/MSP430X/chcore.h" 1
 153 0022 0343      		nop
 154               	 ; 0 "" 2
 155 0024 CC0A      		MOVA	R10, R12
 156 0026 AC00 3400 		ADDA	#52, R12
 157 002a B013 0000 		CALLA	#dmaCancelI
 158               	 ; 355 "../ChibiOS-Contrib/os/common/ports/MSP430X/chcore.h" 1
 159 002e 0343      		nop
 160               	 ; 0 "" 2
 161               	 ; 356 "../ChibiOS-Contrib/os/common/ports/MSP430X/chcore.h" 1
 162 0030 0343 32D2 		nop { eint { nop
 162      0343 
 163               	 ; 0 "" 2
 164 0036 4018 92D3 		BISX.W	#1, &UCB0CTLW0
 164      0000 
 165               	.L12:
 166               		; start of epilogue
 167 003c 0A16      		POPM.A	#1, r10
 168 003e 1001      		RETA
 169               		.size	i2c_lld_stop, .-i2c_lld_stop
 170               		.section	.text.i2cMSP430XStartReceiveToRegI,"ax",@progbits
 171               		.balign 2
 172               		.global	i2cMSP430XStartReceiveToRegI
 173               		.type	i2cMSP430XStartReceiveToRegI, @function
 174               	i2cMSP430XStartReceiveToRegI:
 175               	; start of function
 176               	; framesize_regs:     20
 177               	; framesize_locals:   0
 178               	; framesize_outgoing: 0
 179               	; framesize:          20
 180               	; elim ap -> fp       24
 181               	; elim fp -> sp       0
 182               	; saved regs: R4 R6 R8 R9 R10
 183               		; start of prologue
 184 0000 2A14      		PUSHM.A	#3, R10
 185 0002 0614      		PUSHM.A	#1, R6
 186 0004 0414      		PUSHM.A	#1, R4
 187               		; end of prologue
 188 0006 CA0C      		MOVA	R12, R10
 189 0008 494D      		MOV.B	R13, R9
 190 000a C60E      		MOVA	R14, R6
 191 000c C80F      		MOVA	R15, R8
 192 000e 3401 1800 		MOVA	24(R1), R4
 193 0012 9E00 0000 		CMPA	#0, R14 { JNE	.L16
 193      0020 
 194 0018 8C00 0000 		MOVA	#__func__.3748, R12
 195 001c B013 0000 		CALLA	#chSysHalt
 196               	.L16:
 197 0020 4993 0034 		CMP.B	#0, R9 { JGE	.L17
 198 0024 8C00 0000 		MOVA	#__func__.3748, R12
GAS LISTING /tmp/ccfVKgim.s 			page 5


 199 0028 B013 0000 		CALLA	#chSysHalt
 200               	.L17:
 201 002c 8A43 0600 		MOV.W	#0, 6(R10)
 202 0030 EA42 0000 		MOV.B	#4, @R10
 203 0034 7A08 0800 		MOVA	R8, 8(R10)
 204 0038 9600 0100 		CMPA	#1, R6 { JNE	.L18
 204      0020 
 205 003e 7A08 1800 		MOVA	R8, 24(R10)
 206 0042 8A43 1C00 		MOV.W	#0, 28(R10)
 207 0046 3C0A 1000 		MOVA	16(R10), R12
 208 004a BCF0 EFFF 		AND.W	#-17, @R12
 208      0000 
 209 0050 ACD3 0000 		BIS.W	#2, @R12
 210               	.L19:
 211 0054 ACB3 0000 		BIT.W	#2, @R12 { JNE	.L19
 211      0020 
 212 005a 9400 0000 		CMPA	#0, R4 { JEQ	.L15
 212      0024 
 213 0060 5E43      		MOV.B	#1, R14
 214 0062 CD08      		MOVA	R8, R13
 215 0064 CC0A      		MOVA	R10, R12
 216 0066 4413      		CALLA	R4
 217               	.L15:
 218               		; start of epilogue
 219 0068 0416      		POPM.A	#1, r4
 220 006a 0616      		POPM.A	#1, r6
 221 006c 2816      		POPM.A	#3, r10
 222 006e 1001      		RETA
 223               	.L18:
 224 0070 3C0A 1000 		MOVA	16(R10), R12
 225 0074 AC00 0C00 		ADDA	#12, R12
 226 0078 7A0C 1400 		MOVA	R12, 20(R10)
 227 007c 7A08 1800 		MOVA	R8, 24(R10)
 228 0080 4018 0646 		MOVX	R6, R6
 229 0084 3653      		ADD.W	#-1, R6
 230 0086 8A46 1C00 		MOV.W	R6, 28(R10)
 231 008a 8A43 1E00 		MOV.W	#0, 30(R10)
 232 008e 5C4A 3300 		MOV.B	51(R10), R12
 233 0092 8A4C 2400 		MOV.W	R12, 36(R10)
 234 0096 7A04 0C00 		MOVA	R4, 12(R10)
 235 009a 0018 FA40 		MOVX.A	#rx_async_callback, 38(R10)
 235      0000 2600 
 236 00a2 7A0A 2A00 		MOVA	R10, 42(R10)
 237 00a6 C80A      		MOVA	R10, R8
 238 00a8 A800 3400 		ADDA	#52, R8
 239 00ac 3C0A 3400 		MOVA	52(R10), R12
 240 00b0 9C00 0000 		CMPA	#0, R12 { JEQ	.L21
 240      0024 
 241 00b6 BCB0 1000 		BIT.W	#16, @R12 { JNE	.L22
 241      0000 0020 
 242               	.L21:
 243 00be CC08      		MOVA	R8, R12
 244 00c0 B013 0000 		CALLA	#dmaAcquireI
 245               	.L22:
 246 00c4 CD0A      		MOVA	R10, R13
 247 00c6 AD00 1400 		ADDA	#20, R13
 248 00ca CC08      		MOVA	R8, R12
GAS LISTING /tmp/ccfVKgim.s 			page 6


 249 00cc B013 0000 		CALLA	#dmaTransferI
 250 00d0 3C0A 1000 		MOVA	16(R10), R12
 251 00d4 8C49 2000 		MOV.W	R9, 32(R12)
 252 00d8 BCF0 EFFF 		AND.W	#-17, @R12
 252      0000 
 253 00de ACD3 0000 		BIS.W	#2, @R12
 254 00e2 8000 0000 		BRA	#.L15
 255               		.size	i2cMSP430XStartReceiveToRegI, .-i2cMSP430XStartReceiveToRegI
 256               		.section	.text.i2cMSP430XStartReceiveI,"ax",@progbits
 257               		.balign 2
 258               		.global	i2cMSP430XStartReceiveI
 259               		.type	i2cMSP430XStartReceiveI, @function
 260               	i2cMSP430XStartReceiveI:
 261               	; start of function
 262               	; framesize_regs:     20
 263               	; framesize_locals:   0
 264               	; framesize_outgoing: 0
 265               	; framesize:          20
 266               	; elim ap -> fp       24
 267               	; elim fp -> sp       0
 268               	; saved regs: R4 R6 R8 R9 R10
 269               		; start of prologue
 270 0000 2A14      		PUSHM.A	#3, R10
 271 0002 0614      		PUSHM.A	#1, R6
 272 0004 0414      		PUSHM.A	#1, R4
 273               		; end of prologue
 274 0006 CA0C      		MOVA	R12, R10
 275 0008 494D      		MOV.B	R13, R9
 276 000a C60E      		MOVA	R14, R6
 277 000c C80F      		MOVA	R15, R8
 278 000e 3401 1800 		MOVA	24(R1), R4
 279 0012 9E00 0000 		CMPA	#0, R14 { JNE	.L31
 279      0020 
 280 0018 8C00 0000 		MOVA	#__func__.3759, R12
 281 001c B013 0000 		CALLA	#chSysHalt
 282               	.L31:
 283 0020 4993 0034 		CMP.B	#0, R9 { JGE	.L32
 284 0024 8C00 0000 		MOVA	#__func__.3759, R12
 285 0028 B013 0000 		CALLA	#chSysHalt
 286               	.L32:
 287 002c 8A43 0600 		MOV.W	#0, 6(R10)
 288 0030 EA42 0000 		MOV.B	#4, @R10
 289 0034 7A08 0800 		MOVA	R8, 8(R10)
 290 0038 9600 0100 		CMPA	#1, R6 { JNE	.L33
 290      0020 
 291 003e 7A08 1800 		MOVA	R8, 24(R10)
 292 0042 8A43 1C00 		MOV.W	#0, 28(R10)
 293 0046 3C0A 1000 		MOVA	16(R10), R12
 294 004a BCF0 EFFF 		AND.W	#-17, @R12
 294      0000 
 295 0050 ACD3 0000 		BIS.W	#2, @R12
 296               	.L34:
 297 0054 ACB3 0000 		BIT.W	#2, @R12 { JNE	.L34
 297      0020 
 298 005a 9400 0000 		CMPA	#0, R4 { JEQ	.L30
 298      0024 
 299 0060 5E43      		MOV.B	#1, R14
GAS LISTING /tmp/ccfVKgim.s 			page 7


 300 0062 CD08      		MOVA	R8, R13
 301 0064 CC0A      		MOVA	R10, R12
 302 0066 4413      		CALLA	R4
 303               	.L30:
 304               		; start of epilogue
 305 0068 0416      		POPM.A	#1, r4
 306 006a 0616      		POPM.A	#1, r6
 307 006c 2816      		POPM.A	#3, r10
 308 006e 1001      		RETA
 309               	.L33:
 310 0070 3C0A 1000 		MOVA	16(R10), R12
 311 0074 AC00 0C00 		ADDA	#12, R12
 312 0078 7A0C 1400 		MOVA	R12, 20(R10)
 313 007c 7A08 1800 		MOVA	R8, 24(R10)
 314 0080 4018 0646 		MOVX	R6, R6
 315 0084 3653      		ADD.W	#-1, R6
 316 0086 8A46 1C00 		MOV.W	R6, 28(R10)
 317 008a BA40 000C 		MOV.W	#3072, 30(R10)
 317      1E00 
 318 0090 5C4A 3300 		MOV.B	51(R10), R12
 319 0094 8A4C 2400 		MOV.W	R12, 36(R10)
 320 0098 7A04 0C00 		MOVA	R4, 12(R10)
 321 009c 0018 FA40 		MOVX.A	#rx_async_callback, 38(R10)
 321      0000 2600 
 322 00a4 7A0A 2A00 		MOVA	R10, 42(R10)
 323 00a8 C80A      		MOVA	R10, R8
 324 00aa A800 3400 		ADDA	#52, R8
 325 00ae 3C0A 3400 		MOVA	52(R10), R12
 326 00b2 9C00 0000 		CMPA	#0, R12 { JEQ	.L36
 326      0024 
 327 00b8 BCB0 1000 		BIT.W	#16, @R12 { JNE	.L37
 327      0000 0020 
 328               	.L36:
 329 00c0 CC08      		MOVA	R8, R12
 330 00c2 B013 0000 		CALLA	#dmaAcquireI
 331               	.L37:
 332 00c6 CD0A      		MOVA	R10, R13
 333 00c8 AD00 1400 		ADDA	#20, R13
 334 00cc CC08      		MOVA	R8, R12
 335 00ce B013 0000 		CALLA	#dmaTransferI
 336 00d2 3C0A 1000 		MOVA	16(R10), R12
 337 00d6 8C49 2000 		MOV.W	R9, 32(R12)
 338 00da BCF0 EFFF 		AND.W	#-17, @R12
 338      0000 
 339 00e0 ACD3 0000 		BIS.W	#2, @R12
 340 00e4 8000 0000 		BRA	#.L30
 341               		.size	i2cMSP430XStartReceiveI, .-i2cMSP430XStartReceiveI
 342               		.section	.text.i2cMSP430XStartTransmitMSBI,"ax",@progbits
 343               		.balign 2
 344               		.global	i2cMSP430XStartTransmitMSBI
 345               		.type	i2cMSP430XStartTransmitMSBI, @function
 346               	i2cMSP430XStartTransmitMSBI:
 347               	; start of function
 348               	; framesize_regs:     16
 349               	; framesize_locals:   0
 350               	; framesize_outgoing: 0
 351               	; framesize:          16
GAS LISTING /tmp/ccfVKgim.s 			page 8


 352               	; elim ap -> fp       20
 353               	; elim fp -> sp       0
 354               	; saved regs: R6 R8 R9 R10
 355               		; start of prologue
 356 0000 2A14      		PUSHM.A	#3, R10
 357 0002 0614      		PUSHM.A	#1, R6
 358               		; end of prologue
 359 0004 C60C      		MOVA	R12, R6
 360 0006 494D      		MOV.B	R13, R9
 361 0008 CA0E      		MOVA	R14, R10
 362 000a C80F      		MOVA	R15, R8
 363 000c EC93 0000 		CMP.B	#2, @R12 { JEQ	.L46
 363      0024 
 364 0012 8C00 0000 		MOVA	#__func__.3770, R12
 365 0016 B013 0000 		CALLA	#chSysHalt
 366               	.L46:
 367 001a 9A00 0000 		CMPA	#0, R10 { JNE	.L47
 367      0020 
 368 0020 8C00 0000 		MOVA	#__func__.3770, R12
 369 0024 B013 0000 		CALLA	#chSysHalt
 370               	.L47:
 371 0028 4993 0034 		CMP.B	#0, R9 { JGE	.L48
 372 002c 8C00 0000 		MOVA	#__func__.3770, R12
 373 0030 B013 0000 		CALLA	#chSysHalt
 374               	.L48:
 375 0034 3C06 1000 		MOVA	16(R6), R12
 376 0038 ACC3 2C00 		BIC.W	#2, 44(R12)
 377 003c ACC3 2A00 		BIC.W	#2, 42(R12)
 378 0040 8643 0600 		MOV.W	#0, 6(R6)
 379 0044 F640 0300 		MOV.B	#3, @R6
 379      0000 
 380 004a 7608 0800 		MOVA	R8, 8(R6)
 381 004e CE0A      		MOVA	R10, R14
 382 0050 AE0F FFFF 		ADDA	#-1, R14
 383 0054 E80E      		ADDA	R14, R8
 384 0056 7608 1400 		MOVA	R8, 20(R6)
 385 005a AC00 0E00 		ADDA	#14, R12
 386 005e 760C 1800 		MOVA	R12, 24(R6)
 387 0062 4018 864A 		MOVX	R10, 28(R6)
 387      1C00 
 388 0068 B640 0002 		MOV.W	#512, 30(R6)
 388      1E00 
 389 006e 5C46 3200 		MOV.B	50(R6), R12
 390 0072 864C 2400 		MOV.W	R12, 36(R6)
 391 0076 0018 D641 		MOVX.A	20(R1), 12(R6)
 391      1400 0C00 
 392 007e 0018 F640 		MOVX.A	#tx_complete, 38(R6)
 392      0000 2600 
 393 0086 CA06      		MOVA	R6, R10
 394 0088 AA00 3400 		ADDA	#52, R10
 395 008c 3C06 3400 		MOVA	52(R6), R12
 396 0090 9C00 0000 		CMPA	#0, R12 { JEQ	.L49
 396      0024 
 397 0096 BCB0 1000 		BIT.W	#16, @R12 { JNE	.L50
 397      0000 0020 
 398               	.L49:
 399 009e CC0A      		MOVA	R10, R12
GAS LISTING /tmp/ccfVKgim.s 			page 9


 400 00a0 B013 0000 		CALLA	#dmaAcquireI
 401               	.L50:
 402 00a4 CD06      		MOVA	R6, R13
 403 00a6 AD00 1400 		ADDA	#20, R13
 404 00aa CC0A      		MOVA	R10, R12
 405 00ac B013 0000 		CALLA	#dmaTransferI
 406 00b0 3C06 1000 		MOVA	16(R6), R12
 407 00b4 8C49 2000 		MOV.W	R9, 32(R12)
 408 00b8 BCD0 1200 		BIS.W	#18, @R12
 408      0000 
 409               		; start of epilogue
 410 00be 0616      		POPM.A	#1, r6
 411 00c0 2816      		POPM.A	#3, r10
 412 00c2 1001      		RETA
 413               		.size	i2cMSP430XStartTransmitMSBI, .-i2cMSP430XStartTransmitMSBI
 414               		.section	.text.i2cMSP430XStartTransmitI,"ax",@progbits
 415               		.balign 2
 416               		.global	i2cMSP430XStartTransmitI
 417               		.type	i2cMSP430XStartTransmitI, @function
 418               	i2cMSP430XStartTransmitI:
 419               	; start of function
 420               	; framesize_regs:     16
 421               	; framesize_locals:   0
 422               	; framesize_outgoing: 0
 423               	; framesize:          16
 424               	; elim ap -> fp       20
 425               	; elim fp -> sp       0
 426               	; saved regs: R6 R8 R9 R10
 427               		; start of prologue
 428 0000 2A14      		PUSHM.A	#3, R10
 429 0002 0614      		PUSHM.A	#1, R6
 430               		; end of prologue
 431 0004 C60C      		MOVA	R12, R6
 432 0006 494D      		MOV.B	R13, R9
 433 0008 CA0E      		MOVA	R14, R10
 434 000a C80F      		MOVA	R15, R8
 435 000c EC93 0000 		CMP.B	#2, @R12 { JEQ	.L55
 435      0024 
 436 0012 8C00 0000 		MOVA	#__func__.3778, R12
 437 0016 B013 0000 		CALLA	#chSysHalt
 438               	.L55:
 439 001a 9A00 0000 		CMPA	#0, R10 { JNE	.L56
 439      0020 
 440 0020 8C00 0000 		MOVA	#__func__.3778, R12
 441 0024 B013 0000 		CALLA	#chSysHalt
 442               	.L56:
 443 0028 39B0 7F00 		BIT.W	#127, R9 { JEQ	.L57
 443      0024 
 444 002e 8C00 0000 		MOVA	#__func__.3778, R12
 445 0032 B013 0000 		CALLA	#chSysHalt
 446               	.L57:
 447 0036 8643 0600 		MOV.W	#0, 6(R6)
 448 003a F640 0300 		MOV.B	#3, @R6
 448      0000 
 449 0040 7608 0800 		MOVA	R8, 8(R6)
 450 0044 7608 1400 		MOVA	R8, 20(R6)
 451 0048 3C06 1000 		MOVA	16(R6), R12
GAS LISTING /tmp/ccfVKgim.s 			page 10


 452 004c AC00 0E00 		ADDA	#14, R12
 453 0050 760C 1800 		MOVA	R12, 24(R6)
 454 0054 4018 864A 		MOVX	R10, 28(R6)
 454      1C00 
 455 005a B640 0003 		MOV.W	#768, 30(R6)
 455      1E00 
 456 0060 5C46 3200 		MOV.B	50(R6), R12
 457 0064 864C 2400 		MOV.W	R12, 36(R6)
 458 0068 0018 D641 		MOVX.A	20(R1), 12(R6)
 458      1400 0C00 
 459 0070 0018 F640 		MOVX.A	#tx_complete, 38(R6)
 459      0000 2600 
 460 0078 CA06      		MOVA	R6, R10
 461 007a AA00 3400 		ADDA	#52, R10
 462 007e 3C06 3400 		MOVA	52(R6), R12
 463 0082 9C00 0000 		CMPA	#0, R12 { JEQ	.L58
 463      0024 
 464 0088 BCB0 1000 		BIT.W	#16, @R12 { JNE	.L59
 464      0000 0020 
 465               	.L58:
 466 0090 CC0A      		MOVA	R10, R12
 467 0092 B013 0000 		CALLA	#dmaAcquireI
 468               	.L59:
 469 0096 CD06      		MOVA	R6, R13
 470 0098 AD00 1400 		ADDA	#20, R13
 471 009c CC0A      		MOVA	R10, R12
 472 009e B013 0000 		CALLA	#dmaTransferI
 473 00a2 3C06 1000 		MOVA	16(R6), R12
 474 00a6 8C49 2000 		MOV.W	R9, 32(R12)
 475 00aa BCD0 1200 		BIS.W	#18, @R12
 475      0000 
 476               		; start of epilogue
 477 00b0 0616      		POPM.A	#1, r6
 478 00b2 2816      		POPM.A	#3, r10
 479 00b4 1001      		RETA
 480               		.size	i2cMSP430XStartTransmitI, .-i2cMSP430XStartTransmitI
 481               		.section	.text.i2cMSP430XContinueTransmitMSBI,"ax",@progbits
 482               		.balign 2
 483               		.global	i2cMSP430XContinueTransmitMSBI
 484               		.type	i2cMSP430XContinueTransmitMSBI, @function
 485               	i2cMSP430XContinueTransmitMSBI:
 486               	; start of function
 487               	; framesize_regs:     16
 488               	; framesize_locals:   0
 489               	; framesize_outgoing: 0
 490               	; framesize:          16
 491               	; elim ap -> fp       20
 492               	; elim fp -> sp       0
 493               	; saved regs: R6 R8 R9 R10
 494               		; start of prologue
 495 0000 2A14      		PUSHM.A	#3, R10
 496 0002 0614      		PUSHM.A	#1, R6
 497               		; end of prologue
 498 0004 C60C      		MOVA	R12, R6
 499 0006 494D      		MOV.B	R13, R9
 500 0008 CA0E      		MOVA	R14, R10
 501 000a C80F      		MOVA	R15, R8
GAS LISTING /tmp/ccfVKgim.s 			page 11


 502 000c FC90 0300 		CMP.B	#3, @R12 { JEQ	.L67
 502      0000 0024 
 503 0014 8C00 0000 		MOVA	#__func__.3786, R12
 504 0018 B013 0000 		CALLA	#chSysHalt
 505               	.L67:
 506 001c 9A00 0000 		CMPA	#0, R10 { JNE	.L68
 506      0020 
 507 0022 8C00 0000 		MOVA	#__func__.3786, R12
 508 0026 B013 0000 		CALLA	#chSysHalt
 509               	.L68:
 510 002a 39B0 7F00 		BIT.W	#127, R9 { JEQ	.L69
 510      0024 
 511 0030 8C00 0000 		MOVA	#__func__.3786, R12
 512 0034 B013 0000 		CALLA	#chSysHalt
 513               	.L69:
 514 0038 7608 0800 		MOVA	R8, 8(R6)
 515 003c CC0A      		MOVA	R10, R12
 516 003e AC0F FFFF 		ADDA	#-1, R12
 517 0042 E80C      		ADDA	R12, R8
 518 0044 7608 1400 		MOVA	R8, 20(R6)
 519 0048 3C06 1000 		MOVA	16(R6), R12
 520 004c AC00 0E00 		ADDA	#14, R12
 521 0050 760C 1800 		MOVA	R12, 24(R6)
 522 0054 4018 864A 		MOVX	R10, 28(R6)
 522      1C00 
 523 005a B640 0002 		MOV.W	#512, 30(R6)
 523      1E00 
 524 0060 5C46 3200 		MOV.B	50(R6), R12
 525 0064 864C 2400 		MOV.W	R12, 36(R6)
 526 0068 0018 D641 		MOVX.A	20(R1), 12(R6)
 526      1400 0C00 
 527 0070 0018 F640 		MOVX.A	#tx_complete, 38(R6)
 527      0000 2600 
 528 0078 CA06      		MOVA	R6, R10
 529 007a AA00 3400 		ADDA	#52, R10
 530 007e 3C06 3400 		MOVA	52(R6), R12
 531 0082 9C00 0000 		CMPA	#0, R12 { JEQ	.L70
 531      0024 
 532 0088 BCB0 1000 		BIT.W	#16, @R12 { JNE	.L71
 532      0000 0020 
 533               	.L70:
 534 0090 8C00 0000 		MOVA	#__func__.3786, R12
 535 0094 B013 0000 		CALLA	#chSysHalt
 536               	.L71:
 537 0098 CD06      		MOVA	R6, R13
 538 009a AD00 1400 		ADDA	#20, R13
 539 009e CC0A      		MOVA	R10, R12
 540 00a0 B013 0000 		CALLA	#dmaTransferI
 541 00a4 3C06 1000 		MOVA	16(R6), R12
 542 00a8 ACD3 2C00 		BIS.W	#2, 44(R12)
 543               		; start of epilogue
 544 00ac 0616      		POPM.A	#1, r6
 545 00ae 2816      		POPM.A	#3, r10
 546 00b0 1001      		RETA
 547               		.size	i2cMSP430XContinueTransmitMSBI, .-i2cMSP430XContinueTransmitMSBI
 548               		.section	.text.i2cMSP430XContinueTransmitMemsetI,"ax",@progbits
 549               		.balign 2
GAS LISTING /tmp/ccfVKgim.s 			page 12


 550               		.global	i2cMSP430XContinueTransmitMemsetI
 551               		.type	i2cMSP430XContinueTransmitMemsetI, @function
 552               	i2cMSP430XContinueTransmitMemsetI:
 553               	; start of function
 554               	; framesize_regs:     16
 555               	; framesize_locals:   0
 556               	; framesize_outgoing: 0
 557               	; framesize:          16
 558               	; elim ap -> fp       20
 559               	; elim fp -> sp       0
 560               	; saved regs: R6 R8 R9 R10
 561               		; start of prologue
 562 0000 2A14      		PUSHM.A	#3, R10
 563 0002 0614      		PUSHM.A	#1, R6
 564               		; end of prologue
 565 0004 C60C      		MOVA	R12, R6
 566 0006 494D      		MOV.B	R13, R9
 567 0008 CA0E      		MOVA	R14, R10
 568 000a C80F      		MOVA	R15, R8
 569 000c FC90 0300 		CMP.B	#3, @R12 { JEQ	.L79
 569      0000 0024 
 570 0014 8C00 0000 		MOVA	#__func__.3794, R12
 571 0018 B013 0000 		CALLA	#chSysHalt
 572               	.L79:
 573 001c 9A00 0000 		CMPA	#0, R10 { JNE	.L80
 573      0020 
 574 0022 8C00 0000 		MOVA	#__func__.3794, R12
 575 0026 B013 0000 		CALLA	#chSysHalt
 576               	.L80:
 577 002a 4993 0034 		CMP.B	#0, R9 { JGE	.L81
 578 002e 8C00 0000 		MOVA	#__func__.3794, R12
 579 0032 B013 0000 		CALLA	#chSysHalt
 580               	.L81:
 581 0036 7608 0800 		MOVA	R8, 8(R6)
 582 003a 7608 1400 		MOVA	R8, 20(R6)
 583 003e 3C06 1000 		MOVA	16(R6), R12
 584 0042 AC00 0E00 		ADDA	#14, R12
 585 0046 760C 1800 		MOVA	R12, 24(R6)
 586 004a 4018 864A 		MOVX	R10, 28(R6)
 586      1C00 
 587 0050 8643 1E00 		MOV.W	#0, 30(R6)
 588 0054 5C46 3200 		MOV.B	50(R6), R12
 589 0058 864C 2400 		MOV.W	R12, 36(R6)
 590 005c 0018 D641 		MOVX.A	20(R1), 12(R6)
 590      1400 0C00 
 591 0064 0018 F640 		MOVX.A	#tx_complete, 38(R6)
 591      0000 2600 
 592 006c CA06      		MOVA	R6, R10
 593 006e AA00 3400 		ADDA	#52, R10
 594 0072 3C06 3400 		MOVA	52(R6), R12
 595 0076 9C00 0000 		CMPA	#0, R12 { JEQ	.L82
 595      0024 
 596 007c BCB0 1000 		BIT.W	#16, @R12 { JNE	.L83
 596      0000 0020 
 597               	.L82:
 598 0084 8C00 0000 		MOVA	#__func__.3794, R12
 599 0088 B013 0000 		CALLA	#chSysHalt
GAS LISTING /tmp/ccfVKgim.s 			page 13


 600               	.L83:
 601 008c CD06      		MOVA	R6, R13
 602 008e AD00 1400 		ADDA	#20, R13
 603 0092 CC0A      		MOVA	R10, R12
 604 0094 B013 0000 		CALLA	#dmaTransferI
 605 0098 3C06 1000 		MOVA	16(R6), R12
 606 009c ACD3 2C00 		BIS.W	#2, 44(R12)
 607               		; start of epilogue
 608 00a0 0616      		POPM.A	#1, r6
 609 00a2 2816      		POPM.A	#3, r10
 610 00a4 1001      		RETA
 611               		.size	i2cMSP430XContinueTransmitMemsetI, .-i2cMSP430XContinueTransmitMemsetI
 612               		.section	.text.i2cMSP430XContinueTransmitI,"ax",@progbits
 613               		.balign 2
 614               		.global	i2cMSP430XContinueTransmitI
 615               		.type	i2cMSP430XContinueTransmitI, @function
 616               	i2cMSP430XContinueTransmitI:
 617               	; start of function
 618               	; framesize_regs:     16
 619               	; framesize_locals:   0
 620               	; framesize_outgoing: 0
 621               	; framesize:          16
 622               	; elim ap -> fp       20
 623               	; elim fp -> sp       0
 624               	; saved regs: R6 R8 R9 R10
 625               		; start of prologue
 626 0000 2A14      		PUSHM.A	#3, R10
 627 0002 0614      		PUSHM.A	#1, R6
 628               		; end of prologue
 629 0004 C60C      		MOVA	R12, R6
 630 0006 494D      		MOV.B	R13, R9
 631 0008 CA0E      		MOVA	R14, R10
 632 000a C80F      		MOVA	R15, R8
 633 000c FC90 0300 		CMP.B	#3, @R12 { JEQ	.L88
 633      0000 0024 
 634 0014 8C00 0000 		MOVA	#__func__.3802, R12
 635 0018 B013 0000 		CALLA	#chSysHalt
 636               	.L88:
 637 001c 9A00 0000 		CMPA	#0, R10 { JNE	.L89
 637      0020 
 638 0022 8C00 0000 		MOVA	#__func__.3802, R12
 639 0026 B013 0000 		CALLA	#chSysHalt
 640               	.L89:
 641 002a 4993 0034 		CMP.B	#0, R9 { JGE	.L90
 642 002e 8C00 0000 		MOVA	#__func__.3802, R12
 643 0032 B013 0000 		CALLA	#chSysHalt
 644               	.L90:
 645 0036 7608 0800 		MOVA	R8, 8(R6)
 646 003a 7608 1400 		MOVA	R8, 20(R6)
 647 003e 3C06 1000 		MOVA	16(R6), R12
 648 0042 AC00 0E00 		ADDA	#14, R12
 649 0046 760C 1800 		MOVA	R12, 24(R6)
 650 004a 4018 864A 		MOVX	R10, 28(R6)
 650      1C00 
 651 0050 B640 0003 		MOV.W	#768, 30(R6)
 651      1E00 
 652 0056 5C46 3200 		MOV.B	50(R6), R12
GAS LISTING /tmp/ccfVKgim.s 			page 14


 653 005a 864C 2400 		MOV.W	R12, 36(R6)
 654 005e 0018 D641 		MOVX.A	20(R1), 12(R6)
 654      1400 0C00 
 655 0066 0018 F640 		MOVX.A	#tx_complete, 38(R6)
 655      0000 2600 
 656 006e CA06      		MOVA	R6, R10
 657 0070 AA00 3400 		ADDA	#52, R10
 658 0074 3C06 3400 		MOVA	52(R6), R12
 659 0078 9C00 0000 		CMPA	#0, R12 { JEQ	.L91
 659      0024 
 660 007e BCB0 1000 		BIT.W	#16, @R12 { JNE	.L92
 660      0000 0020 
 661               	.L91:
 662 0086 8C00 0000 		MOVA	#__func__.3802, R12
 663 008a B013 0000 		CALLA	#chSysHalt
 664               	.L92:
 665 008e CD06      		MOVA	R6, R13
 666 0090 AD00 1400 		ADDA	#20, R13
 667 0094 CC0A      		MOVA	R10, R12
 668 0096 B013 0000 		CALLA	#dmaTransferI
 669 009a 3C06 1000 		MOVA	16(R6), R12
 670 009e ACD3 2C00 		BIS.W	#2, 44(R12)
 671               		; start of epilogue
 672 00a2 0616      		POPM.A	#1, r6
 673 00a4 2816      		POPM.A	#3, r10
 674 00a6 1001      		RETA
 675               		.size	i2cMSP430XContinueTransmitI, .-i2cMSP430XContinueTransmitI
 676               		.section	.text.i2cMSP430XEndTransferI,"ax",@progbits
 677               		.balign 2
 678               		.global	i2cMSP430XEndTransferI
 679               		.type	i2cMSP430XEndTransferI, @function
 680               	i2cMSP430XEndTransferI:
 681               	; start of function
 682               	; framesize_regs:     4
 683               	; framesize_locals:   2
 684               	; framesize_outgoing: 0
 685               	; framesize:          6
 686               	; elim ap -> fp       8
 687               	; elim fp -> sp       2
 688               	; saved regs: R10
 689               		; start of prologue
 690 0000 0A14      		PUSHM.A	#1, R10
 691 0002 B100 0200 		SUBA	#2, R1
 692               		; end of prologue
 693 0006 CA0C      		MOVA	R12, R10
 694 0008 6C4C      		MOV.B	@R12, R12
 695 000a 7C50 FDFF 		ADD.B	#-3, R12
 696 000e 5D43      		MOV.B	#1, R13
 697 0010 4D9C 002C 		CMP.B	R12, R13 { JHS	.L97
 698 0014 8C00 0000 		MOVA	#__func__.3806, R12
 699 0018 B013 0000 		CALLA	#chSysHalt
 700               	.L97:
 701 001c 3C0A 1000 		MOVA	16(R10), R12
 702 0020 ACD2 0000 		BIS.W	#4, @R12
 703 0024 EA92 0000 		CMP.B	#4, @R10 { JNE	.L107
 703      0020 
 704               	.L110:
GAS LISTING /tmp/ccfVKgim.s 			page 15


 705 002a 4018 9CB3 		BITX.W	#1, 44(R12) { JEQ	.L110
 705      2C00 0024 
 706 0032 3E0A 1800 		MOVA	24(R10), R14
 707 0036 8A93 1E00 		CMP.W	#0, 30(R10) { JEQ	.L100
 707      0024 
 708 003c 1D4C 0C00 		MOV.W	12(R12), R13
 709 0040 4018 1C4A 		MOVX	28(R10), R12
 709      1C00 
 710 0046 EC0E      		ADDA	R14, R12
 711 0048 CC4D 0000 		MOV.B	R13, @R12
 712               	.L101:
 713 004c 3C0A 1000 		MOVA	16(R10), R12
 714               	.L102:
 715 0050 ACB2 0000 		BIT.W	#4, @R12 { JNE	.L102
 715      0020 
 716 0056 BCC2 2C00 		BIC.W	#8, 44(R12)
 717 005a 4018 9CB3 		BITX.W	#1, 44(R12) { JEQ	.L103
 717      2C00 0024 
 718 0062 1C4C 0C00 		MOV.W	12(R12), R12
 719 0066 C14C 0100 		MOV.B	R12, 1(R1)
 720 006a 5C41 0100 		MOV.B	1(R1), R12
 721               	.L103:
 722 006e EA43 0000 		MOV.B	#2, @R10
 723               		; start of epilogue
 724 0072 A100 0200 		ADDA	#2, R1
 725 0076 0A16      		POPM.A	#1, r10
 726 0078 1001      		RETA
 727               	.L100:
 728 007a 1C4C 0C00 		MOV.W	12(R12), R12
 729 007e CE4C 0000 		MOV.B	R12, @R14
 730 0082 8000 0000 		BRA	#.L101
 731               	.L107:
 732 0086 ACB2 0000 		BIT.W	#4, @R12 { JNE	.L107
 732      0020 
 733 008c BCC2 2C00 		BIC.W	#8, 44(R12)
 734 0090 8000 0000 		BRA	#.L103
 735               		.size	i2cMSP430XEndTransferI, .-i2cMSP430XEndTransferI
 736               		.section	.text.rx_async_callback,"ax",@progbits
 737               		.balign 2
 738               		.global	rx_async_callback
 739               		.type	rx_async_callback, @function
 740               	rx_async_callback:
 741               	; start of function
 742               	; framesize_regs:     8
 743               	; framesize_locals:   0
 744               	; framesize_outgoing: 0
 745               	; framesize:          8
 746               	; elim ap -> fp       12
 747               	; elim fp -> sp       0
 748               	; saved regs: R8 R10
 749               		; start of prologue
 750 0000 0A14      		PUSHM.A	#1, R10
 751 0002 0814      		PUSHM.A	#1, R8
 752               		; end of prologue
 753 0004 CA0C      		MOVA	R12, R10
 754 0006 380C 0C00 		MOVA	12(R12), R8
 755 000a 9800 0000 		CMPA	#0, R8 { JEQ	.L114
GAS LISTING /tmp/ccfVKgim.s 			page 16


 755      0024 
 756 0010 1E4C 1C00 		MOV.W	28(R12), R14
 757 0014 3D0C 0800 		MOVA	8(R12), R13
 758 0018 4813      		CALLA	R8
 759               	.L113:
 760               		; start of epilogue
 761 001a 0816      		POPM.A	#1, r8
 762 001c 0A16      		POPM.A	#1, r10
 763 001e 1001      		RETA
 764               	.L114:
 765 0020 B013 0000 		CALLA	#i2cMSP430XEndTransferI
 766 0024 8000 0000 		BRA	#.L113
 767               		.size	rx_async_callback, .-rx_async_callback
 768               		.section	.lower.lowtext,"ax",@progbits
 769               		.balign 2
 770               		.global	ISR_USCI_B0_VECTOR
 771               		.section	__interrupt_vector_48,"ax",@progbits
 772 0000 0000      		.word	ISR_USCI_B0_VECTOR
 773               			.section	.lower.lowtext
 774               		.type	ISR_USCI_B0_VECTOR, @function
 775               	ISR_USCI_B0_VECTOR:
 776               	; start of function
 777               	; attributes: interrupt 
 778               	; framesize_regs:     48
 779               	; framesize_locals:   0
 780               	; framesize_outgoing: 0
 781               	; framesize:          48
 782               	; elim ap -> fp       52
 783               	; elim fp -> sp       0
 784               	; saved regs: R4 R5 R6 R7 R8 R9 R10 R11 R12 R13 R14 R15
 785               		; start of prologue
 786 0000 BF14      		PUSHM.A	#12, R15
 787               		; end of prologue
 788 0002 4018 D243 		MOVX.B	#1, &__msp430x_in_isr
 788      0000 
 789 0008 4018 1C42 		MOVX.W	&UCB0IV, R12
 789      0000 
 790 000e 8A00 0000 		MOVA	#I2CDB0, R10
 791 0012 3C90 0E00 		CMP.W	#14, R12 { JEQ	.L127
 791      0024 
 792 0018 7D40 0E00 		MOV.B	#14, R13
 793 001c 0D9C 0028 		CMP.W	R12, R13 { JLO	.L119
 794 0020 3C90 0600 		CMP.W	#6, R12 { JEQ	.L127
 794      0024 
 795 0026 7D40 0600 		MOV.B	#6, R13
 796 002a 0D9C 0028 		CMP.W	R12, R13 { JLO	.L121
 797 002e 2C93 0024 		CMP.W	#2, R12 { JEQ	.L122
 798 0032 2C92 0024 		CMP.W	#4, R12 { JEQ	.L123
 799               	.L117:
 800 0036 4018 8293 		CMPX.W	#0, &I2CDB0+6 { JEQ	.L134
 800      0000 0024 
 801 003e 174A 1C00 		MOV.W	28(R10), R7
 802 0042 3C0A 3400 		MOVA	52(R10), R12
 803 0046 194C 0A00 		MOV.W	10(R12), R9
 804 004a 8C00 0000 		MOVA	#I2CDB0+52, R12
 805 004e B013 0000 		CALLA	#dmaCancelI
 806 0052 4018 FAB0 		BITX.B	#32, 6(R10) { JEQ	.L135
GAS LISTING /tmp/ccfVKgim.s 			page 17


 806      2000 0600 
 806      0024 
 807 005c 4018 F240 		MOVX.B	#5, &I2CDB0
 807      0500 0000 
 808               	.L135:
 809 0064 380A 0C00 		MOVA	12(R10), R8
 810 0068 9800 0000 		CMPA	#0, R8 { JEQ	.L136
 810      0024 
 811 006e 4018 0E47 		MOVX.W	R7, R14 { SUBX.W	R9, R14
 811      4018 0E89 
 812 0076 3D0A 0800 		MOVA	8(R10), R13
 813 007a 8C00 0000 		MOVA	#I2CDB0, R12
 814 007e 4813      		CALLA	R8
 815               	.L136:
 816 0080 0018 C293 		CMPX.A	#0, &I2CDB0+46 { JEQ	.L134
 816      0000 0024 
 817 0088 8D0F FEFF 		MOVA	#-2, R13
 818 008c 8C00 0000 		MOVA	#I2CDB0+46, R12
 819 0090 B013 0000 		CALLA	#chThdResumeI
 820               	.L134:
 821 0094 4018 C243 		MOVX.B	#0, &__msp430x_in_isr
 821      0000 
 822 009a B013 0000 		CALLA	#chSchIsPreemptionRequired
 823 009e 4C93 0024 		CMP.B	#0, R12 { JEQ	.L116
 824 00a2 B013 0000 		CALLA	#chSchDoReschedule
 825               	.L116:
 826               		; start of epilogue
 827 00a6 B416      		POPM.A	#12, r15
 828 00a8 0013      		RETI
 829               	.L121:
 830 00aa 3C90 0A00 		CMP.W	#10, R12 { JEQ	.L127
 830      0024 
 831 00b0 3C90 0C00 		CMP.W	#12, R12 { JEQ	.L127
 831      0024 
 832 00b6 3C92 0020 		CMP.W	#8, R12 { JNE	.L117
 833 00ba 4018 E243 		MOVX.B	#2, &I2CDB0
 833      0000 
 834 00c0 0018 C293 		CMPX.A	#0, &I2CDB0+46 { JEQ	.L130
 834      0000 0024 
 835 00c8 4D43      		MOV.B	#0, R13
 836 00ca CC0A      		MOVA	R10, R12
 837 00cc AC00 2E00 		ADDA	#46, R12
 838 00d0 B013 0000 		CALLA	#chThdResumeI
 839               	.L130:
 840 00d4 8C00 0000 		MOVA	#I2CDB0+52, R12
 841 00d8 B013 0000 		CALLA	#dmaReleaseX
 842 00dc 8000 0000 		BRA	#.L117
 843               	.L119:
 844 00e0 3C90 1600 		CMP.W	#22, R12 { JEQ	.L125
 844      0024 
 845 00e6 7D40 1600 		MOV.B	#22, R13
 846 00ea 0D9C 0028 		CMP.W	R12, R13 { JLO	.L126
 847 00ee 3C90 1200 		CMP.W	#18, R12 { JEQ	.L127
 847      0024 
 848 00f4 3C90 1400 		CMP.W	#20, R12 { JEQ	.L127
 848      0024 
 849 00fa 3C90 1000 		CMP.W	#16, R12 { JNE	.L117
GAS LISTING /tmp/ccfVKgim.s 			page 18


 849      0020 
 850               	.L127:
 851 0100 8C00 0000 		MOVA	#__func__.3714, R12
 852 0104 B013 0000 		CALLA	#chSysHalt
 853 0108 8000 0000 		BRA	#.L117
 854               	.L126:
 855 010c 3C90 1A00 		CMP.W	#26, R12 { JEQ	.L127
 855      0024 
 856 0112 3C90 1C00 		CMP.W	#28, R12 { JEQ	.L128
 856      0024 
 857 0118 3C90 1800 		CMP.W	#24, R12 { JNE	.L117
 857      0020 
 858 011e 4018 A2C3 		BICX.W	#2, &UCB0IE
 858      0000 
 859 0124 0018 C293 		CMPX.A	#0, &I2CDB0+46 { JNE	.L131
 859      0000 0020 
 860 012c 380A 0C00 		MOVA	12(R10), R8
 861 0130 9800 0000 		CMPA	#0, R8 { JEQ	.L132
 861      0024 
 862 0136 1E4A 1C00 		MOV.W	28(R10), R14
 863 013a 3D0A 0800 		MOVA	8(R10), R13
 864 013e CC0A      		MOVA	R10, R12
 865 0140 4813      		CALLA	R8
 866 0142 8000 0000 		BRA	#.L117
 867               	.L122:
 868 0146 AAD3 0600 		BIS.W	#2, 6(R10)
 869 014a 8000 0000 		BRA	#.L117
 870               	.L123:
 871 014e AAD2 0600 		BIS.W	#4, 6(R10)
 872 0152 8000 0000 		BRA	#.L117
 873               	.L125:
 874 0156 4018 1D42 		MOVX.W	&UCB0RXBUF, R13
 874      0000 
 875 015c 4018 1C4A 		MOVX	28(R10), R12
 875      1C00 
 876 0162 0018 5C5A 		ADDX.A	24(R10), R12
 876      1800 
 877 0168 CC4D 0000 		MOV.B	R13, @R12
 878 016c 4018 92C3 		BICX.W	#1, &UCB0IE
 878      0000 
 879 0172 8000 0000 		BRA	#.L117
 880               	.L132:
 881 0176 CC0A      		MOVA	R10, R12
 882 0178 B013 0000 		CALLA	#i2cMSP430XEndTransferI
 883 017c 8000 0000 		BRA	#.L117
 884               	.L131:
 885 0180 4D43      		MOV.B	#0, R13
 886 0182 CC0A      		MOVA	R10, R12
 887 0184 AC00 2E00 		ADDA	#46, R12
 888 0188 B013 0000 		CALLA	#chThdResumeI
 889 018c 8000 0000 		BRA	#.L117
 890               	.L128:
 891 0190 BAD0 2000 		BIS.W	#32, 6(R10)
 891      0600 
 892 0196 8000 0000 		BRA	#.L117
 893               		.size	ISR_USCI_B0_VECTOR, .-ISR_USCI_B0_VECTOR
 894               		.section	.text.i2c_lld_master_receive_timeout,"ax",@progbits
GAS LISTING /tmp/ccfVKgim.s 			page 19


 895               		.balign 2
 896               		.global	i2c_lld_master_receive_timeout
 897               		.type	i2c_lld_master_receive_timeout, @function
 898               	i2c_lld_master_receive_timeout:
 899               	; start of function
 900               	; framesize_regs:     24
 901               	; framesize_locals:   0
 902               	; framesize_outgoing: 0
 903               	; framesize:          24
 904               	; elim ap -> fp       28
 905               	; elim fp -> sp       0
 906               	; saved regs: R4 R6 R7 R8 R9 R10
 907               		; start of prologue
 908 0000 4A14      		PUSHM.A	#5, R10
 909 0002 0414      		PUSHM.A	#1, R4
 910               		; end of prologue
 911 0004 CA0C      		MOVA	R12, R10
 912 0006 494D      		MOV.B	R13, R9
 913 0008 C60E      		MOVA	R14, R6
 914 000a C80F      		MOVA	R15, R8
 915 000c 39B0 7F00 		BIT.W	#127, R9 { JEQ	.L167
 915      0024 
 916 0012 8C00 0000 		MOVA	#__func__.3825, R12
 917 0016 B013 0000 		CALLA	#chSysHalt
 918               	.L167:
 919 001a 8400 0000 		MOVA	#nil, R4
 920 001e 1744 0800 		MOV.W	8(R4), R7
 921 0022 8A43 0600 		MOV.W	#0, 6(R10)
 922 0026 9800 0100 		CMPA	#1, R8 { JNE	.L168
 922      0020 
 923 002c 7A06 1800 		MOVA	R6, 24(R10)
 924 0030 8A43 1C00 		MOV.W	#0, 28(R10)
 925 0034 3C0A 1000 		MOVA	16(R10), R12
 926 0038 BCF0 EFFF 		AND.W	#-17, @R12
 926      0000 
 927 003e ACD3 0000 		BIS.W	#2, @R12
 928               	.L169:
 929 0042 ACB3 0000 		BIT.W	#2, @R12 { JNE	.L169
 929      0020 
 930 0048 ACD2 0000 		BIS.W	#4, @R12
 931 004c 9CD3 2A00 		BIS.W	#1, 42(R12)
 932               	.L170:
 933 0050 1C44 0800 		MOV.W	8(R4), R12
 934 0054 4018 0D47 		MOVX.W	R7, R13 { SUBX.W	R12, R13
 934      4018 0D8C 
 935 005c 1D51 1C00 		ADD.W	28(R1), R13
 936 0060 CC0A      		MOVA	R10, R12
 937 0062 AC00 2E00 		ADDA	#46, R12
 938 0066 B013 0000 		CALLA	#chThdSuspendTimeoutS
 939 006a C80C      		MOVA	R12, R8
 940 006c CC0A      		MOVA	R10, R12
 941 006e AC00 3400 		ADDA	#52, R12
 942 0072 B013 0000 		CALLA	#dmaReleaseX
 943 0076 CC08      		MOVA	R8, R12
 944               		; start of epilogue
 945 0078 0416      		POPM.A	#1, r4
 946 007a 4616      		POPM.A	#5, r10
GAS LISTING /tmp/ccfVKgim.s 			page 20


 947 007c 1001      		RETA
 948               	.L168:
 949 007e 3C0A 1000 		MOVA	16(R10), R12
 950 0082 AC00 0C00 		ADDA	#12, R12
 951 0086 7A0C 1400 		MOVA	R12, 20(R10)
 952 008a 7A06 1800 		MOVA	R6, 24(R10)
 953 008e 4018 0848 		MOVX	R8, R8
 954 0092 3853      		ADD.W	#-1, R8
 955 0094 8A48 1C00 		MOV.W	R8, 28(R10)
 956 0098 BA40 000C 		MOV.W	#3072, 30(R10)
 956      1E00 
 957 009e 5C4A 3300 		MOV.B	51(R10), R12
 958 00a2 8A4C 2400 		MOV.W	R12, 36(R10)
 959 00a6 0018 FA40 		MOVX.A	#rx_complete, 38(R10)
 959      0000 2600 
 960 00ae 3C0A 3400 		MOVA	52(R10), R12
 961 00b2 9C00 0000 		CMPA	#0, R12 { JEQ	.L171
 961      0024 
 962 00b8 BCB0 1000 		BIT.W	#16, @R12 { JNE	.L172
 962      0000 0020 
 963               	.L171:
 964 00c0 CC0A      		MOVA	R10, R12
 965 00c2 AC00 3400 		ADDA	#52, R12
 966 00c6 B013 0000 		CALLA	#dmaAcquireI
 967               	.L172:
 968 00ca 3C0A 1000 		MOVA	16(R10), R12
 969 00ce 8C49 2000 		MOV.W	R9, 32(R12)
 970 00d2 BCF0 EFFF 		AND.W	#-17, @R12
 970      0000 
 971 00d8 ACD3 0000 		BIS.W	#2, @R12
 972 00dc 8000 0000 		BRA	#.L170
 973               		.size	i2c_lld_master_receive_timeout, .-i2c_lld_master_receive_timeout
 974               		.section	.text.i2c_lld_master_transmit_timeout,"ax",@progbits
 975               		.balign 2
 976               		.global	i2c_lld_master_transmit_timeout
 977               		.type	i2c_lld_master_transmit_timeout, @function
 978               	i2c_lld_master_transmit_timeout:
 979               	; start of function
 980               	; framesize_regs:     28
 981               	; framesize_locals:   4
 982               	; framesize_outgoing: 0
 983               	; framesize:          32
 984               	; elim ap -> fp       32
 985               	; elim fp -> sp       4
 986               	; saved regs: R4 R5 R6 R7 R8 R9 R10
 987               		; start of prologue
 988 0000 6A14      		PUSHM.A	#7, R10
 989 0002 B100 0400 		SUBA	#4, R1
 990               		; end of prologue
 991 0006 CA0C      		MOVA	R12, R10
 992 0008 494D      		MOV.B	R13, R9
 993 000a C60E      		MOVA	R14, R6
 994 000c C80F      		MOVA	R15, R8
 995 000e 4993 0034 		CMP.B	#0, R9 { JGE	.L181
 996 0012 8C00 0000 		MOVA	#__func__.3841, R12
 997 0016 B013 0000 		CALLA	#chSysHalt
 998               	.L181:
GAS LISTING /tmp/ccfVKgim.s 			page 21


 999 001a 4018 1742 		MOVX.W	&nil+8, R7
 999      0000 
 1000 0020 8A43 0600 		MOV.W	#0, 6(R10)
 1001 0024 7A06 1400 		MOVA	R6, 20(R10)
 1002 0028 3C0A 1000 		MOVA	16(R10), R12
 1003 002c AC00 0E00 		ADDA	#14, R12
 1004 0030 7A0C 1800 		MOVA	R12, 24(R10)
 1005 0034 4018 8A48 		MOVX	R8, 28(R10)
 1005      1C00 
 1006 003a BA40 0003 		MOV.W	#768, 30(R10)
 1006      1E00 
 1007 0040 5D4A 3200 		MOV.B	50(R10), R13
 1008 0044 8A4D 2400 		MOV.W	R13, 36(R10)
 1009 0048 0018 FA40 		MOVX.A	#tx_complete, 38(R10)
 1009      0000 2600 
 1010 0050 C40A      		MOVA	R10, R4
 1011 0052 A400 3400 		ADDA	#52, R4
 1012 0056 3C0A 3400 		MOVA	52(R10), R12
 1013 005a 9C00 0000 		CMPA	#0, R12 { JEQ	.L182
 1013      0024 
 1014 0060 BCB0 1000 		BIT.W	#16, @R12 { JNE	.L183
 1014      0000 0020 
 1015               	.L182:
 1016 0068 CC04      		MOVA	R4, R12
 1017 006a B013 0000 		CALLA	#dmaAcquireI
 1018               	.L183:
 1019 006e CE0A      		MOVA	R10, R14
 1020 0070 AE00 1400 		ADDA	#20, R14
 1021 0074 8500 0000 		MOVA	#dmaTransferI, R5
 1022 0078 CD0E      		MOVA	R14, R13
 1023 007a CC04      		MOVA	R4, R12
 1024 007c 710E 0000 		MOVA	R14, @R1
 1025 0080 4513      		CALLA	R5
 1026 0082 3C0A 1000 		MOVA	16(R10), R12
 1027 0086 8C49 2000 		MOV.W	R9, 32(R12)
 1028 008a BCD0 1200 		BIS.W	#18, @R12
 1028      0000 
 1029 0090 C90A      		MOVA	R10, R9
 1030 0092 A900 2E00 		ADDA	#46, R9
 1031 0096 8800 0000 		MOVA	#nil, R8
 1032 009a 1C48 0800 		MOV.W	8(R8), R12
 1033 009e 4018 0D47 		MOVX.W	R7, R13 { SUBX.W	R12, R13
 1033      4018 0D8C 
 1034 00a6 1D51 2C00 		ADD.W	44(R1), R13
 1035 00aa CC09      		MOVA	R9, R12
 1036 00ac B013 0000 		CALLA	#chThdSuspendTimeoutS
 1037 00b0 C60C      		MOVA	R12, R6
 1038 00b2 0E01      		MOVA	@R1, R14
 1039 00b4 9C00 0000 		CMPA	#0, R12 { JNE	.L180
 1039      0020 
 1040 00ba 0018 C193 		CMPX.A	#0, 40(R1) { JNE	.L185
 1040      2800 0020 
 1041 00c2 3C0A 1000 		MOVA	16(R10), R12
 1042 00c6 ACD2 0000 		BIS.W	#4, @R12
 1043               	.L186:
 1044 00ca 1C48 0800 		MOV.W	8(R8), R12
 1045 00ce 4018 0D47 		MOVX.W	R7, R13 { SUBX.W	R12, R13
GAS LISTING /tmp/ccfVKgim.s 			page 22


 1045      4018 0D8C 
 1046 00d6 1D51 2C00 		ADD.W	44(R1), R13
 1047 00da CC09      		MOVA	R9, R12
 1048 00dc B013 0000 		CALLA	#chThdSuspendTimeoutS
 1049 00e0 C60C      		MOVA	R12, R6
 1050 00e2 CC04      		MOVA	R4, R12
 1051 00e4 B013 0000 		CALLA	#dmaReleaseX
 1052               	.L180:
 1053 00e8 CC06      		MOVA	R6, R12
 1054               		; start of epilogue
 1055 00ea A100 0400 		ADDA	#4, R1
 1056 00ee 6416      		POPM.A	#7, r10
 1057 00f0 1001      		RETA
 1058               	.L185:
 1059 00f2 0018 D193 		CMPX.A	#1, 40(R1) { JNE	.L187
 1059      2800 0020 
 1060 00fa 0018 DA41 		MOVX.A	36(R1), 24(R10)
 1060      2400 1800 
 1061 0102 8A43 1C00 		MOV.W	#0, 28(R10)
 1062 0106 3C0A 1000 		MOVA	16(R10), R12
 1063 010a BCF0 EFFF 		AND.W	#-17, @R12
 1063      0000 
 1064 0110 ACD3 0000 		BIS.W	#2, @R12
 1065               	.L188:
 1066 0114 ACB3 0000 		BIT.W	#2, @R12 { JNE	.L188
 1066      0020 
 1067 011a ACD2 0000 		BIS.W	#4, @R12
 1068 011e 9CD3 2A00 		BIS.W	#1, 42(R12)
 1069 0122 8000 0000 		BRA	#.L186
 1070               	.L187:
 1071 0126 3C0A 1000 		MOVA	16(R10), R12
 1072 012a AC00 0C00 		ADDA	#12, R12
 1073 012e 7A0C 1400 		MOVA	R12, 20(R10)
 1074 0132 0018 DA41 		MOVX.A	36(R1), 24(R10)
 1074      2400 1800 
 1075 013a 3D01 2800 		MOVA	40(R1), R13
 1076 013e 4018 0C4D 		MOVX	R13, R12
 1077 0142 3C53      		ADD.W	#-1, R12
 1078 0144 8A4C 1C00 		MOV.W	R12, 28(R10)
 1079 0148 BA40 000C 		MOV.W	#3072, 30(R10)
 1079      1E00 
 1080 014e 5C4A 3300 		MOV.B	51(R10), R12
 1081 0152 8A4C 2400 		MOV.W	R12, 36(R10)
 1082 0156 0018 FA40 		MOVX.A	#rx_complete, 38(R10)
 1082      0000 2600 
 1083 015e CD0E      		MOVA	R14, R13
 1084 0160 CC04      		MOVA	R4, R12
 1085 0162 4513      		CALLA	R5
 1086 0164 3C0A 1000 		MOVA	16(R10), R12
 1087 0168 BCF0 EFFF 		AND.W	#-17, @R12
 1087      0000 
 1088 016e ACD3 0000 		BIS.W	#2, @R12
 1089 0172 8000 0000 		BRA	#.L186
 1090               		.size	i2c_lld_master_transmit_timeout, .-i2c_lld_master_transmit_timeout
 1091               		.section	.upper.rodata,"a",@progbits
 1092               		.type	__func__.3841, @object
 1093               		.size	__func__.3841, 32
GAS LISTING /tmp/ccfVKgim.s 			page 23


 1094               	__func__.3841:
 1095 0000 6932 635F 		.string	"i2c_lld_master_transmit_timeout"
 1095      6C6C 645F 
 1095      6D61 7374 
 1095      6572 5F74 
 1095      7261 6E73 
 1096               		.type	__func__.3825, @object
 1097               		.size	__func__.3825, 31
 1098               	__func__.3825:
 1099 0020 6932 635F 		.string	"i2c_lld_master_receive_timeout"
 1099      6C6C 645F 
 1099      6D61 7374 
 1099      6572 5F72 
 1099      6563 6569 
 1100               		.type	__func__.3806, @object
 1101               		.size	__func__.3806, 23
 1102               	__func__.3806:
 1103 003f 6932 634D 		.string	"i2cMSP430XEndTransferI"
 1103      5350 3433 
 1103      3058 456E 
 1103      6454 7261 
 1103      6E73 6665 
 1104               		.type	__func__.3802, @object
 1105               		.size	__func__.3802, 28
 1106               	__func__.3802:
 1107 0056 6932 634D 		.string	"i2cMSP430XContinueTransmitI"
 1107      5350 3433 
 1107      3058 436F 
 1107      6E74 696E 
 1107      7565 5472 
 1108               		.type	__func__.3794, @object
 1109               		.size	__func__.3794, 34
 1110               	__func__.3794:
 1111 0072 6932 634D 		.string	"i2cMSP430XContinueTransmitMemsetI"
 1111      5350 3433 
 1111      3058 436F 
 1111      6E74 696E 
 1111      7565 5472 
 1112               		.type	__func__.3786, @object
 1113               		.size	__func__.3786, 31
 1114               	__func__.3786:
 1115 0094 6932 634D 		.string	"i2cMSP430XContinueTransmitMSBI"
 1115      5350 3433 
 1115      3058 436F 
 1115      6E74 696E 
 1115      7565 5472 
 1116               		.type	__func__.3778, @object
 1117               		.size	__func__.3778, 25
 1118               	__func__.3778:
 1119 00b3 6932 634D 		.string	"i2cMSP430XStartTransmitI"
 1119      5350 3433 
 1119      3058 5374 
 1119      6172 7454 
 1119      7261 6E73 
 1120               		.type	__func__.3770, @object
 1121               		.size	__func__.3770, 28
 1122               	__func__.3770:
GAS LISTING /tmp/ccfVKgim.s 			page 24


 1123 00cc 6932 634D 		.string	"i2cMSP430XStartTransmitMSBI"
 1123      5350 3433 
 1123      3058 5374 
 1123      6172 7454 
 1123      7261 6E73 
 1124               		.type	__func__.3759, @object
 1125               		.size	__func__.3759, 24
 1126               	__func__.3759:
 1127 00e8 6932 634D 		.string	"i2cMSP430XStartReceiveI"
 1127      5350 3433 
 1127      3058 5374 
 1127      6172 7452 
 1127      6563 6569 
 1128               		.type	__func__.3748, @object
 1129               		.size	__func__.3748, 29
 1130               	__func__.3748:
 1131 0100 6932 634D 		.string	"i2cMSP430XStartReceiveToRegI"
 1131      5350 3433 
 1131      3058 5374 
 1131      6172 7452 
 1131      6563 6569 
 1132               		.type	__func__.3740, @object
 1133               		.size	__func__.3740, 13
 1134               	__func__.3740:
 1135 011d 6932 635F 		.string	"i2c_lld_stop"
 1135      6C6C 645F 
 1135      7374 6F70 
 1135      00
 1136               		.type	__func__.3714, @object
 1137               		.size	__func__.3714, 19
 1138               	__func__.3714:
 1139 012a 4953 525F 		.string	"ISR_USCI_B0_VECTOR"
 1139      5553 4349 
 1139      5F42 305F 
 1139      5645 4354 
 1139      4F52 00
 1140               		.global	I2CDB0
 1141               		.section	.upper.bss,"aw",@nobits
 1142               		.balign 2
 1143               		.type	I2CDB0, @object
 1144               		.size	I2CDB0, 62
 1145               	I2CDB0:
 1146 0000 0000 0000 		.zero	62
 1146      0000 0000 
 1146      0000 0000 
 1146      0000 0000 
 1146      0000 0000 
 1147               		.ident	"GCC: (SOMNIUM Technologies Limited - msp430-gcc 6.2.1.16) 6.2.1 20161212"
GAS LISTING /tmp/ccfVKgim.s 			page 25


DEFINED SYMBOLS
                            *ABS*:0000000000000000 hal_i2c_lld.c
     /tmp/ccfVKgim.s:6      .text.tx_complete:0000000000000000 tx_complete
     /tmp/ccfVKgim.s:26     .text.rx_complete:0000000000000000 rx_complete
     /tmp/ccfVKgim.s:47     .text.i2c_lld_init:0000000000000000 i2c_lld_init
     /tmp/ccfVKgim.s:1145   .upper.bss:0000000000000000 I2CDB0
     /tmp/ccfVKgim.s:78     .text.i2c_lld_start:0000000000000000 i2c_lld_start
     /tmp/ccfVKgim.s:130    .text.i2c_lld_stop:0000000000000000 i2c_lld_stop
     /tmp/ccfVKgim.s:1134   .upper.rodata:000000000000011d __func__.3740
     /tmp/ccfVKgim.s:174    .text.i2cMSP430XStartReceiveToRegI:0000000000000000 i2cMSP430XStartReceiveToRegI
     /tmp/ccfVKgim.s:1130   .upper.rodata:0000000000000100 __func__.3748
     /tmp/ccfVKgim.s:740    .text.rx_async_callback:0000000000000000 rx_async_callback
     /tmp/ccfVKgim.s:260    .text.i2cMSP430XStartReceiveI:0000000000000000 i2cMSP430XStartReceiveI
     /tmp/ccfVKgim.s:1126   .upper.rodata:00000000000000e8 __func__.3759
     /tmp/ccfVKgim.s:346    .text.i2cMSP430XStartTransmitMSBI:0000000000000000 i2cMSP430XStartTransmitMSBI
     /tmp/ccfVKgim.s:1122   .upper.rodata:00000000000000cc __func__.3770
     /tmp/ccfVKgim.s:418    .text.i2cMSP430XStartTransmitI:0000000000000000 i2cMSP430XStartTransmitI
     /tmp/ccfVKgim.s:1118   .upper.rodata:00000000000000b3 __func__.3778
     /tmp/ccfVKgim.s:485    .text.i2cMSP430XContinueTransmitMSBI:0000000000000000 i2cMSP430XContinueTransmitMSBI
     /tmp/ccfVKgim.s:1114   .upper.rodata:0000000000000094 __func__.3786
     /tmp/ccfVKgim.s:552    .text.i2cMSP430XContinueTransmitMemsetI:0000000000000000 i2cMSP430XContinueTransmitMemsetI
     /tmp/ccfVKgim.s:1110   .upper.rodata:0000000000000072 __func__.3794
     /tmp/ccfVKgim.s:616    .text.i2cMSP430XContinueTransmitI:0000000000000000 i2cMSP430XContinueTransmitI
     /tmp/ccfVKgim.s:1106   .upper.rodata:0000000000000056 __func__.3802
     /tmp/ccfVKgim.s:680    .text.i2cMSP430XEndTransferI:0000000000000000 i2cMSP430XEndTransferI
     /tmp/ccfVKgim.s:1102   .upper.rodata:000000000000003f __func__.3806
     /tmp/ccfVKgim.s:775    .lower.lowtext:0000000000000000 ISR_USCI_B0_VECTOR
     /tmp/ccfVKgim.s:1138   .upper.rodata:000000000000012a __func__.3714
     /tmp/ccfVKgim.s:898    .text.i2c_lld_master_receive_timeout:0000000000000000 i2c_lld_master_receive_timeout
     /tmp/ccfVKgim.s:1098   .upper.rodata:0000000000000020 __func__.3825
     /tmp/ccfVKgim.s:978    .text.i2c_lld_master_transmit_timeout:0000000000000000 i2c_lld_master_transmit_timeout
     /tmp/ccfVKgim.s:1094   .upper.rodata:0000000000000000 __func__.3841
     /tmp/ccfVKgim.s:121    .text.i2c_lld_start:00000000000000ae .L4
     /tmp/ccfVKgim.s:118    .text.i2c_lld_start:00000000000000a0 .L6
     /tmp/ccfVKgim.s:109    .text.i2c_lld_start:000000000000006c .L7
     /tmp/ccfVKgim.s:146    .text.i2c_lld_stop:0000000000000012 .L13
     /tmp/ccfVKgim.s:165    .text.i2c_lld_stop:000000000000003c .L12
     /tmp/ccfVKgim.s:196    .text.i2cMSP430XStartReceiveToRegI:0000000000000020 .L16
     /tmp/ccfVKgim.s:200    .text.i2cMSP430XStartReceiveToRegI:000000000000002c .L17
     /tmp/ccfVKgim.s:223    .text.i2cMSP430XStartReceiveToRegI:0000000000000070 .L18
     /tmp/ccfVKgim.s:210    .text.i2cMSP430XStartReceiveToRegI:0000000000000054 .L19
     /tmp/ccfVKgim.s:217    .text.i2cMSP430XStartReceiveToRegI:0000000000000068 .L15
     /tmp/ccfVKgim.s:242    .text.i2cMSP430XStartReceiveToRegI:00000000000000be .L21
     /tmp/ccfVKgim.s:245    .text.i2cMSP430XStartReceiveToRegI:00000000000000c4 .L22
     /tmp/ccfVKgim.s:282    .text.i2cMSP430XStartReceiveI:0000000000000020 .L31
     /tmp/ccfVKgim.s:286    .text.i2cMSP430XStartReceiveI:000000000000002c .L32
     /tmp/ccfVKgim.s:309    .text.i2cMSP430XStartReceiveI:0000000000000070 .L33
     /tmp/ccfVKgim.s:296    .text.i2cMSP430XStartReceiveI:0000000000000054 .L34
     /tmp/ccfVKgim.s:303    .text.i2cMSP430XStartReceiveI:0000000000000068 .L30
     /tmp/ccfVKgim.s:328    .text.i2cMSP430XStartReceiveI:00000000000000c0 .L36
     /tmp/ccfVKgim.s:331    .text.i2cMSP430XStartReceiveI:00000000000000c6 .L37
     /tmp/ccfVKgim.s:366    .text.i2cMSP430XStartTransmitMSBI:000000000000001a .L46
     /tmp/ccfVKgim.s:370    .text.i2cMSP430XStartTransmitMSBI:0000000000000028 .L47
     /tmp/ccfVKgim.s:374    .text.i2cMSP430XStartTransmitMSBI:0000000000000034 .L48
     /tmp/ccfVKgim.s:398    .text.i2cMSP430XStartTransmitMSBI:000000000000009e .L49
     /tmp/ccfVKgim.s:401    .text.i2cMSP430XStartTransmitMSBI:00000000000000a4 .L50
     /tmp/ccfVKgim.s:438    .text.i2cMSP430XStartTransmitI:000000000000001a .L55
GAS LISTING /tmp/ccfVKgim.s 			page 26


     /tmp/ccfVKgim.s:442    .text.i2cMSP430XStartTransmitI:0000000000000028 .L56
     /tmp/ccfVKgim.s:446    .text.i2cMSP430XStartTransmitI:0000000000000036 .L57
     /tmp/ccfVKgim.s:465    .text.i2cMSP430XStartTransmitI:0000000000000090 .L58
     /tmp/ccfVKgim.s:468    .text.i2cMSP430XStartTransmitI:0000000000000096 .L59
     /tmp/ccfVKgim.s:505    .text.i2cMSP430XContinueTransmitMSBI:000000000000001c .L67
     /tmp/ccfVKgim.s:509    .text.i2cMSP430XContinueTransmitMSBI:000000000000002a .L68
     /tmp/ccfVKgim.s:513    .text.i2cMSP430XContinueTransmitMSBI:0000000000000038 .L69
     /tmp/ccfVKgim.s:533    .text.i2cMSP430XContinueTransmitMSBI:0000000000000090 .L70
     /tmp/ccfVKgim.s:536    .text.i2cMSP430XContinueTransmitMSBI:0000000000000098 .L71
     /tmp/ccfVKgim.s:572    .text.i2cMSP430XContinueTransmitMemsetI:000000000000001c .L79
     /tmp/ccfVKgim.s:576    .text.i2cMSP430XContinueTransmitMemsetI:000000000000002a .L80
     /tmp/ccfVKgim.s:580    .text.i2cMSP430XContinueTransmitMemsetI:0000000000000036 .L81
     /tmp/ccfVKgim.s:597    .text.i2cMSP430XContinueTransmitMemsetI:0000000000000084 .L82
     /tmp/ccfVKgim.s:600    .text.i2cMSP430XContinueTransmitMemsetI:000000000000008c .L83
     /tmp/ccfVKgim.s:636    .text.i2cMSP430XContinueTransmitI:000000000000001c .L88
     /tmp/ccfVKgim.s:640    .text.i2cMSP430XContinueTransmitI:000000000000002a .L89
     /tmp/ccfVKgim.s:644    .text.i2cMSP430XContinueTransmitI:0000000000000036 .L90
     /tmp/ccfVKgim.s:661    .text.i2cMSP430XContinueTransmitI:0000000000000086 .L91
     /tmp/ccfVKgim.s:664    .text.i2cMSP430XContinueTransmitI:000000000000008e .L92
     /tmp/ccfVKgim.s:700    .text.i2cMSP430XEndTransferI:000000000000001c .L97
     /tmp/ccfVKgim.s:731    .text.i2cMSP430XEndTransferI:0000000000000086 .L107
     /tmp/ccfVKgim.s:704    .text.i2cMSP430XEndTransferI:000000000000002a .L110
     /tmp/ccfVKgim.s:727    .text.i2cMSP430XEndTransferI:000000000000007a .L100
     /tmp/ccfVKgim.s:714    .text.i2cMSP430XEndTransferI:0000000000000050 .L102
     /tmp/ccfVKgim.s:721    .text.i2cMSP430XEndTransferI:000000000000006e .L103
     /tmp/ccfVKgim.s:712    .text.i2cMSP430XEndTransferI:000000000000004c .L101
     /tmp/ccfVKgim.s:764    .text.rx_async_callback:0000000000000020 .L114
     /tmp/ccfVKgim.s:759    .text.rx_async_callback:000000000000001a .L113
     /tmp/ccfVKgim.s:850    .lower.lowtext:0000000000000100 .L127
     /tmp/ccfVKgim.s:843    .lower.lowtext:00000000000000e0 .L119
     /tmp/ccfVKgim.s:829    .lower.lowtext:00000000000000aa .L121
     /tmp/ccfVKgim.s:867    .lower.lowtext:0000000000000146 .L122
     /tmp/ccfVKgim.s:870    .lower.lowtext:000000000000014e .L123
     /tmp/ccfVKgim.s:820    .lower.lowtext:0000000000000094 .L134
     /tmp/ccfVKgim.s:808    .lower.lowtext:0000000000000064 .L135
     /tmp/ccfVKgim.s:815    .lower.lowtext:0000000000000080 .L136
     /tmp/ccfVKgim.s:825    .lower.lowtext:00000000000000a6 .L116
     /tmp/ccfVKgim.s:799    .lower.lowtext:0000000000000036 .L117
     /tmp/ccfVKgim.s:839    .lower.lowtext:00000000000000d4 .L130
     /tmp/ccfVKgim.s:873    .lower.lowtext:0000000000000156 .L125
     /tmp/ccfVKgim.s:854    .lower.lowtext:000000000000010c .L126
     /tmp/ccfVKgim.s:890    .lower.lowtext:0000000000000190 .L128
     /tmp/ccfVKgim.s:884    .lower.lowtext:0000000000000180 .L131
     /tmp/ccfVKgim.s:880    .lower.lowtext:0000000000000176 .L132
     /tmp/ccfVKgim.s:918    .text.i2c_lld_master_receive_timeout:000000000000001a .L167
     /tmp/ccfVKgim.s:948    .text.i2c_lld_master_receive_timeout:000000000000007e .L168
     /tmp/ccfVKgim.s:928    .text.i2c_lld_master_receive_timeout:0000000000000042 .L169
     /tmp/ccfVKgim.s:963    .text.i2c_lld_master_receive_timeout:00000000000000c0 .L171
     /tmp/ccfVKgim.s:967    .text.i2c_lld_master_receive_timeout:00000000000000ca .L172
     /tmp/ccfVKgim.s:932    .text.i2c_lld_master_receive_timeout:0000000000000050 .L170
     /tmp/ccfVKgim.s:998    .text.i2c_lld_master_transmit_timeout:000000000000001a .L181
     /tmp/ccfVKgim.s:1015   .text.i2c_lld_master_transmit_timeout:0000000000000068 .L182
     /tmp/ccfVKgim.s:1018   .text.i2c_lld_master_transmit_timeout:000000000000006e .L183
     /tmp/ccfVKgim.s:1052   .text.i2c_lld_master_transmit_timeout:00000000000000e8 .L180
     /tmp/ccfVKgim.s:1058   .text.i2c_lld_master_transmit_timeout:00000000000000f2 .L185
     /tmp/ccfVKgim.s:1070   .text.i2c_lld_master_transmit_timeout:0000000000000126 .L187
     /tmp/ccfVKgim.s:1065   .text.i2c_lld_master_transmit_timeout:0000000000000114 .L188
GAS LISTING /tmp/ccfVKgim.s 			page 27


     /tmp/ccfVKgim.s:1043   .text.i2c_lld_master_transmit_timeout:00000000000000ca .L186

UNDEFINED SYMBOLS
i2cObjectInit
UCB0CTLW0
__mspabi_divul
UCB0BRW
UCB0CTLW1
PASEL1_L
PADIR_L
PAREN_L
PAOUT_L
UCB0IE
UCB0IFG
chSysHalt
dmaCancelI
dmaAcquireI
dmaTransferI
__msp430x_in_isr
UCB0IV
chThdResumeI
chSchIsPreemptionRequired
chSchDoReschedule
dmaReleaseX
UCB0RXBUF
nil
chThdSuspendTimeoutS
__crt0_init_highbss
