GAS LISTING /tmp/cc0AG7Pp.s 			page 1


   1               		.file	"hal_buffers.c"
   2               		.section	.text.port_lock,"ax",@progbits
   3               		.balign 2
   4               		.type	port_lock, @function
   5               	port_lock:
   6               	; start of function
   7               	; framesize_regs:     0
   8               	; framesize_locals:   0
   9               	; framesize_outgoing: 0
  10               	; framesize:          0
  11               	; elim ap -> fp       4
  12               	; elim fp -> sp       0
  13               	; saved regs:(none)
  14               		; start of prologue
  15               		; end of prologue
  16               	 ; 347 "../ChibiOS-Contrib/os/common/ports/MSP430X/chcore.h" 1
  17 0000 32C2 0343 		dint { nop
  18               	 ; 0 "" 2
  19               	 ; 348 "../ChibiOS-Contrib/os/common/ports/MSP430X/chcore.h" 1
  20 0004 0343      		nop
  21               	 ; 0 "" 2
  22               		; start of epilogue
  23 0006 1001      		RETA
  24               		.size	port_lock, .-port_lock
  25               		.section	.text.port_unlock,"ax",@progbits
  26               		.balign 2
  27               		.type	port_unlock, @function
  28               	port_unlock:
  29               	; start of function
  30               	; framesize_regs:     0
  31               	; framesize_locals:   0
  32               	; framesize_outgoing: 0
  33               	; framesize:          0
  34               	; elim ap -> fp       4
  35               	; elim fp -> sp       0
  36               	; saved regs:(none)
  37               		; start of prologue
  38               		; end of prologue
  39               	 ; 355 "../ChibiOS-Contrib/os/common/ports/MSP430X/chcore.h" 1
  40 0000 0343      		nop
  41               	 ; 0 "" 2
  42               	 ; 356 "../ChibiOS-Contrib/os/common/ports/MSP430X/chcore.h" 1
  43 0002 0343 32D2 		nop { eint { nop
  43      0343 
  44               	 ; 0 "" 2
  45               		; start of epilogue
  46 0008 1001      		RETA
  47               		.size	port_unlock, .-port_unlock
  48               		.global	__mulsi2_f5
  49               		.section	.text.ibqObjectInit,"ax",@progbits
  50               		.balign 2
  51               		.global	ibqObjectInit
  52               		.type	ibqObjectInit, @function
  53               	ibqObjectInit:
  54               	; start of function
  55               	; framesize_regs:     16
  56               	; framesize_locals:   4
GAS LISTING /tmp/cc0AG7Pp.s 			page 2


  57               	; framesize_outgoing: 0
  58               	; framesize:          20
  59               	; elim ap -> fp       20
  60               	; elim fp -> sp       4
  61               	; saved regs: R6 R8 R9 R10
  62               		; start of prologue
  63 0000 2A14      		PUSHM.A	#3, R10
  64 0002 0614      		PUSHM.A	#1, R6
  65 0004 B100 0400 		SUBA	#4, R1
  66               		; end of prologue
  67 0008 CA0C      		MOVA	R12, R10
  68 000a 494D      		MOV.B	R13, R9
  69 000c C80E      		MOVA	R14, R8
  70 000e C60F      		MOVA	R15, R6
  71 0010 9C00 0000 		CMPA	#0, R12 { JEQ	.L4
  71      0024 
  72 0016 9E00 0000 		CMPA	#0, R14 { JEQ	.L4
  72      0024 
  73 001c 5C43      		MOV.B	#1, R12
  74 001e DC0F 0028 		CMPA	R15, R12 { JLO	.L5
  75               	.L4:
  76 0022 8C00 0000 		MOVA	#__func__.4031, R12
  77 0026 B013 0000 		CALLA	#chSysHalt
  78               	.L5:
  79 002a 8A43 0000 		MOV.W	#0, @R10
  80 002e CA49 0200 		MOV.B	R9, 2(R10)
  81 0032 8A43 0400 		MOV.W	#0, 4(R10)
  82 0036 BAF0 F0FF 		AND.W	#-16, 6(R10)
  82      0600 
  83 003c 7A08 0C00 		MOVA	R8, 12(R10)
  84 0040 7A08 0800 		MOVA	R8, 8(R10)
  85 0044 A600 0400 		ADDA	#4, R6
  86 0048 7106 0000 		MOVA	R6, @R1
  87 004c 3D01 1800 		MOVA	24(R1), R13
  88 0050 0D14 4018 		PUSHM.A	#1, R13 { POPX.W	R14 { POPX.W	R15 ; move pointer in R13 into reg-pair R14:R15
  88      3E41 4018 
  88      3F41 
  89 005a 0614 4018 		PUSHM.A	#1, R6 { POPX.W	R12 { POPX.W	R13 ; move pointer in R6 into reg-pair R12:R13
  89      3C41 4018 
  89      3D41 
  90 0064 B013 0000 		CALLA	#__mulsi2_f5
  91 0068 0D12 0C12 		PUSH.W	R13 { PUSH.W	R12 { POPM.A	#1, R12
  91      0C16 
  92 006e EC08      		ADDA	R8, R12
  93 0070 7A0C 1000 		MOVA	R12, 16(R10)
  94 0074 AA41 1400 		MOV.W	@R1, 20(R10)
  95 0078 C906      		MOVA	R6, R9
  96 007a 0614 0C17 		PUSHM.A	#1,R6 { POPM.W	#1,R12 { POPM.W	#1,R12
  96      0C17 
  97 0080 7CF0 0F00 		AND.B	#15, R12
  98 0084 5D4A 1600 		MOV.B	22(R10), R13
  99 0088 7DF0 F0FF 		AND.B	#-16, R13
 100 008c 4DDC      		BIS.B	R12, R13
 101 008e CA4D 1600 		MOV.B	R13, 22(R10)
 102 0092 9A41 1800 		MOV.W	24(R1), 24(R10)
 102      1800 
 103 0098 3D01 1800 		MOVA	24(R1), R13
GAS LISTING /tmp/cc0AG7Pp.s 			page 3


 104 009c 0D14 0C17 		PUSHM.A	#1,R13 { POPM.W	#1,R12 { POPM.W	#1,R12
 104      0C17 
 105 00a2 7CF0 0F00 		AND.B	#15, R12
 106 00a6 5D4A 1A00 		MOV.B	26(R10), R13
 107 00aa 7DF0 F0FF 		AND.B	#-16, R13
 108 00ae 4DDC      		BIS.B	R12, R13
 109 00b0 CA4D 1A00 		MOV.B	R13, 26(R10)
 110 00b4 7A08 1C00 		MOVA	R8, 28(R10)
 111 00b8 0018 CA43 		MOVX.A	#0, 32(R10)
 111      2000 
 112 00be 0018 CA43 		MOVX.A	#0, 36(R10)
 112      2400 
 113 00c4 0018 DA41 		MOVX.A	28(R1), 40(R10)
 113      1C00 2800 
 114 00cc 0018 DA41 		MOVX.A	32(R1), 44(R10)
 114      2000 2C00 
 115               		; start of epilogue
 116 00d4 A100 0400 		ADDA	#4, R1
 117 00d8 0616      		POPM.A	#1, r6
 118 00da 2816      		POPM.A	#3, r10
 119 00dc 1001      		RETA
 120               		.size	ibqObjectInit, .-ibqObjectInit
 121               		.section	.text.ibqResetI,"ax",@progbits
 122               		.balign 2
 123               		.global	ibqResetI
 124               		.type	ibqResetI, @function
 125               	ibqResetI:
 126               	; start of function
 127               	; framesize_regs:     4
 128               	; framesize_locals:   0
 129               	; framesize_outgoing: 0
 130               	; framesize:          4
 131               	; elim ap -> fp       8
 132               	; elim fp -> sp       0
 133               	; saved regs: R10
 134               		; start of prologue
 135 0000 0A14      		PUSHM.A	#1, R10
 136               		; end of prologue
 137 0002 8C43 0400 		MOV.W	#0, 4(R12)
 138 0006 BCF0 F0FF 		AND.W	#-16, 6(R12)
 138      0600 
 139 000c 3A0C 1C00 		MOVA	28(R12), R10
 140 0010 7C0A 0C00 		MOVA	R10, 12(R12)
 141 0014 7C0A 0800 		MOVA	R10, 8(R12)
 142 0018 0018 CC43 		MOVX.A	#0, 32(R12)
 142      2000 
 143 001e 0018 CC43 		MOVX.A	#0, 36(R12)
 143      2400 
 144 0024 8D0F FEFF 		MOVA	#-2, R13
 145 0028 B013 0000 		CALLA	#osalThreadDequeueAllI
 146               		; start of epilogue
 147 002c 0A16      		POPM.A	#1, r10
 148 002e 1001      		RETA
 149               		.size	ibqResetI, .-ibqResetI
 150               		.section	.text.ibqGetEmptyBufferI,"ax",@progbits
 151               		.balign 2
 152               		.global	ibqGetEmptyBufferI
GAS LISTING /tmp/cc0AG7Pp.s 			page 4


 153               		.type	ibqGetEmptyBufferI, @function
 154               	ibqGetEmptyBufferI:
 155               	; start of function
 156               	; framesize_regs:     0
 157               	; framesize_locals:   0
 158               	; framesize_outgoing: 0
 159               	; framesize:          0
 160               	; elim ap -> fp       4
 161               	; elim fp -> sp       0
 162               	; saved regs:(none)
 163               		; start of prologue
 164               		; end of prologue
 165 0000 3E0C 0800 		MOVA	8(R12), R14
 166 0004 0018 5E9C 		CMPX.A	12(R12), R14 { JNE	.L13
 166      0C00 0020 
 167 000c 3C0C 0400 		MOVA	4(R12), R12
 168 0010 9C00 0000 		CMPA	#0, R12 { JEQ	.L13
 168      0024 
 169 0016 4C43      		MOV.B	#0, R12
 170               	.L12:
 171               		; start of epilogue
 172 0018 1001      		RETA
 173               	.L13:
 174 001a CC0E      		MOVA	R14, R12
 175 001c AC00 0400 		ADDA	#4, R12
 176 0020 8000 0000 		BRA	#.L12
 177               		.size	ibqGetEmptyBufferI, .-ibqGetEmptyBufferI
 178               		.section	.text.ibqPostFullBufferI,"ax",@progbits
 179               		.balign 2
 180               		.global	ibqPostFullBufferI
 181               		.type	ibqPostFullBufferI, @function
 182               	ibqPostFullBufferI:
 183               	; start of function
 184               	; framesize_regs:     8
 185               	; framesize_locals:   4
 186               	; framesize_outgoing: 0
 187               	; framesize:          12
 188               	; elim ap -> fp       12
 189               	; elim fp -> sp       4
 190               	; saved regs: R8 R10
 191               		; start of prologue
 192 0000 0A14      		PUSHM.A	#1, R10
 193 0002 0814      		PUSHM.A	#1, R8
 194 0004 B100 0400 		SUBA	#4, R1
 195               		; end of prologue
 196 0008 CA0C      		MOVA	R12, R10
 197 000a C80D      		MOVA	R13, R8
 198 000c 9D00 0000 		CMPA	#0, R13 { JEQ	.L19
 198      0024 
 199 0012 3C0C 1400 		MOVA	20(R12), R12
 200 0016 AC0F FCFF 		ADDA	#-4, R12
 201 001a DC0D 002C 		CMPA	R13, R12 { JHS	.L20
 202               	.L19:
 203 001e 8C00 0000 		MOVA	#__func__.4042, R12
 204 0022 B013 0000 		CALLA	#chSysHalt
 205               	.L20:
 206 0026 0018 DA9A 		CMPX.A	12(R10), 8(R10) { JNE	.L21
GAS LISTING /tmp/cc0AG7Pp.s 			page 5


 206      0C00 0800 
 206      0020 
 207 0030 3C0A 0400 		MOVA	4(R10), R12
 208 0034 9C00 0000 		CMPA	#0, R12 { JNE	.L22
 208      0020 
 209               	.L21:
 210 003a 3C0A 0800 		MOVA	8(R10), R12
 211 003e 7C08 0000 		MOVA	R8, @R12
 212 0042 3D0A 0400 		MOVA	4(R10), R13
 213 0046 AD00 0100 		ADDA	#1, R13
 214 004a 710D 0000 		MOVA	R13, @R1
 215 004e 8A4D 0400 		MOV.W	R13, 4(R10)
 216 0052 1D41 0200 		MOV.W	2(R1), R13
 217 0056 7DF0 0F00 		AND.B	#15, R13
 218 005a 1E4A 0600 		MOV.W	6(R10), R14
 219 005e 3EF0 F0FF 		AND.W	#-16, R14
 220 0062 0EDD      		BIS.W	R13, R14
 221 0064 8A4E 0600 		MOV.W	R14, 6(R10)
 222 0068 0018 5C5A 		ADDX.A	20(R10), R12
 222      1400 
 223 006e 7A0C 0800 		MOVA	R12, 8(R10)
 224 0072 0018 5C9A 		CMPX.A	16(R10), R12 { JLO	.L23
 224      1000 0028 
 225 007a 0018 DA4A 		MOVX.A	28(R10), 8(R10)
 225      1C00 0800 
 226               	.L23:
 227 0082 4D43      		MOV.B	#0, R13
 228 0084 CC0A      		MOVA	R10, R12
 229 0086 B013 0000 		CALLA	#osalThreadDequeueNextI
 230               		; start of epilogue
 231 008a A100 0400 		ADDA	#4, R1
 232 008e 0816      		POPM.A	#1, r8
 233 0090 0A16      		POPM.A	#1, r10
 234 0092 1001      		RETA
 235               	.L22:
 236 0094 8C00 0000 		MOVA	#__func__.4042, R12
 237 0098 B013 0000 		CALLA	#chSysHalt
 238 009c 8000 0000 		BRA	#.L21
 239               		.size	ibqPostFullBufferI, .-ibqPostFullBufferI
 240               		.section	.text.ibqGetFullBufferTimeoutS,"ax",@progbits
 241               		.balign 2
 242               		.global	ibqGetFullBufferTimeoutS
 243               		.type	ibqGetFullBufferTimeoutS, @function
 244               	ibqGetFullBufferTimeoutS:
 245               	; start of function
 246               	; framesize_regs:     12
 247               	; framesize_locals:   0
 248               	; framesize_outgoing: 0
 249               	; framesize:          12
 250               	; elim ap -> fp       16
 251               	; elim fp -> sp       0
 252               	; saved regs: R8 R9 R10
 253               		; start of prologue
 254 0000 2A14      		PUSHM.A	#3, R10
 255               		; end of prologue
 256 0002 CA0C      		MOVA	R12, R10
 257 0004 094D      		MOV.W	R13, R9
GAS LISTING /tmp/cc0AG7Pp.s 			page 6


 258 0006 8800 0000 		MOVA	#chSemWaitTimeoutS, R8
 259               	.L29:
 260 000a 3C0A 0400 		MOVA	4(R10), R12
 261 000e 9C00 0000 		CMPA	#0, R12 { JEQ	.L31
 261      0024 
 262 0014 3C0A 0400 		MOVA	4(R10), R12
 263 0018 9C00 0000 		CMPA	#0, R12 { JNE	.L32
 263      0020 
 264 001e 8C00 0000 		MOVA	#__func__.4056, R12
 265 0022 B013 0000 		CALLA	#chSysHalt
 266               	.L32:
 267 0026 3C0A 0C00 		MOVA	12(R10), R12
 268 002a CE0C      		MOVA	R12, R14
 269 002c AE00 0400 		ADDA	#4, R14
 270 0030 7A0E 2000 		MOVA	R14, 32(R10)
 271 0034 0018 6E5C 		ADDX.A	@R12, R14
 272 0038 7A0E 2400 		MOVA	R14, 36(R10)
 273 003c 4C43      		MOV.B	#0, R12
 274 003e 8000 0000 		BRA	#.L28
 275               	.L31:
 276 0042 CA93 0200 		CMP.B	#0, 2(R10) { JNE	.L33
 276      0020 
 277 0048 0D49      		MOV.W	R9, R13
 278 004a CC0A      		MOVA	R10, R12
 279 004c 4813      		CALLA	R8
 280 004e 9C00 0000 		CMPA	#0, R12 { JGE	.L29
 280      0034 
 281               	.L28:
 282               		; start of epilogue
 283 0054 2816      		POPM.A	#3, r10
 284 0056 1001      		RETA
 285               	.L33:
 286 0058 8C0F FEFF 		MOVA	#-2, R12
 287 005c 8000 0000 		BRA	#.L28
 288               		.size	ibqGetFullBufferTimeoutS, .-ibqGetFullBufferTimeoutS
 289               		.section	.text.ibqGetFullBufferTimeout,"ax",@progbits
 290               		.balign 2
 291               		.global	ibqGetFullBufferTimeout
 292               		.type	ibqGetFullBufferTimeout, @function
 293               	ibqGetFullBufferTimeout:
 294               	; start of function
 295               	; framesize_regs:     0
 296               	; framesize_locals:   8
 297               	; framesize_outgoing: 0
 298               	; framesize:          8
 299               	; elim ap -> fp       4
 300               	; elim fp -> sp       8
 301               	; saved regs:(none)
 302               		; start of prologue
 303 0000 B100 0800 		SUBA	#8, R1
 304               		; end of prologue
 305 0004 710C 0000 		MOVA	R12, @R1
 306 0008 710D 0400 		MOVA	R13, 4(R1)
 307 000c B013 0000 		CALLA	#port_lock
 308 0010 3D01 0400 		MOVA	4(R1), R13
 309 0014 0C01      		MOVA	@R1, R12
 310 0016 B013 0000 		CALLA	#ibqGetFullBufferTimeoutS
GAS LISTING /tmp/cc0AG7Pp.s 			page 7


 311 001a 710C 0000 		MOVA	R12, @R1
 312 001e B013 0000 		CALLA	#port_unlock
 313 0022 0C01      		MOVA	@R1, R12
 314               		; start of epilogue
 315 0024 A100 0800 		ADDA	#8, R1
 316 0028 1001      		RETA
 317               		.size	ibqGetFullBufferTimeout, .-ibqGetFullBufferTimeout
 318               		.section	.text.ibqReleaseEmptyBufferS,"ax",@progbits
 319               		.balign 2
 320               		.global	ibqReleaseEmptyBufferS
 321               		.type	ibqReleaseEmptyBufferS, @function
 322               	ibqReleaseEmptyBufferS:
 323               	; start of function
 324               	; framesize_regs:     4
 325               	; framesize_locals:   4
 326               	; framesize_outgoing: 0
 327               	; framesize:          8
 328               	; elim ap -> fp       8
 329               	; elim fp -> sp       4
 330               	; saved regs: R10
 331               		; start of prologue
 332 0000 0A14      		PUSHM.A	#1, R10
 333 0002 B100 0400 		SUBA	#4, R1
 334               		; end of prologue
 335 0006 CA0C      		MOVA	R12, R10
 336 0008 3C0C 0400 		MOVA	4(R12), R12
 337 000c 9C00 0000 		CMPA	#0, R12 { JNE	.L36
 337      0020 
 338 0012 8C00 0000 		MOVA	#__func__.4063, R12
 339 0016 B013 0000 		CALLA	#chSysHalt
 340               	.L36:
 341 001a 3C0A 0400 		MOVA	4(R10), R12
 342 001e AC0F FFFF 		ADDA	#-1, R12
 343 0022 710C 0000 		MOVA	R12, @R1
 344 0026 8A4C 0400 		MOV.W	R12, 4(R10)
 345 002a 1C41 0200 		MOV.W	2(R1), R12
 346 002e 7CF0 0F00 		AND.B	#15, R12
 347 0032 1D4A 0600 		MOV.W	6(R10), R13
 348 0036 3DF0 F0FF 		AND.W	#-16, R13
 349 003a 0DDC      		BIS.W	R12, R13
 350 003c 8A4D 0600 		MOV.W	R13, 6(R10)
 351 0040 3C0A 0C00 		MOVA	12(R10), R12
 352 0044 0018 5C5A 		ADDX.A	20(R10), R12
 352      1400 
 353 004a 7A0C 0C00 		MOVA	R12, 12(R10)
 354 004e 0018 5C9A 		CMPX.A	16(R10), R12 { JLO	.L37
 354      1000 0028 
 355 0056 0018 DA4A 		MOVX.A	28(R10), 12(R10)
 355      1C00 0C00 
 356               	.L37:
 357 005e 0018 CA43 		MOVX.A	#0, 32(R10)
 357      2000 
 358 0064 3E0A 2800 		MOVA	40(R10), R14
 359 0068 9E00 0000 		CMPA	#0, R14 { JEQ	.L35
 359      0024 
 360 006e CC0A      		MOVA	R10, R12
 361 0070 4E13      		CALLA	R14
GAS LISTING /tmp/cc0AG7Pp.s 			page 8


 362               	.L35:
 363               		; start of epilogue
 364 0072 A100 0400 		ADDA	#4, R1
 365 0076 0A16      		POPM.A	#1, r10
 366 0078 1001      		RETA
 367               		.size	ibqReleaseEmptyBufferS, .-ibqReleaseEmptyBufferS
 368               		.section	.text.ibqReleaseEmptyBuffer,"ax",@progbits
 369               		.balign 2
 370               		.global	ibqReleaseEmptyBuffer
 371               		.type	ibqReleaseEmptyBuffer, @function
 372               	ibqReleaseEmptyBuffer:
 373               	; start of function
 374               	; framesize_regs:     0
 375               	; framesize_locals:   4
 376               	; framesize_outgoing: 0
 377               	; framesize:          4
 378               	; elim ap -> fp       4
 379               	; elim fp -> sp       4
 380               	; saved regs:(none)
 381               		; start of prologue
 382 0000 B100 0400 		SUBA	#4, R1
 383               		; end of prologue
 384 0004 710C 0000 		MOVA	R12, @R1
 385 0008 B013 0000 		CALLA	#port_lock
 386 000c 0C01      		MOVA	@R1, R12
 387 000e B013 0000 		CALLA	#ibqReleaseEmptyBufferS
 388 0012 B013 0000 		CALLA	#port_unlock
 389               		; start of epilogue
 390 0016 A100 0400 		ADDA	#4, R1
 391 001a 1001      		RETA
 392               		.size	ibqReleaseEmptyBuffer, .-ibqReleaseEmptyBuffer
 393               		.section	.text.ibqGetTimeout,"ax",@progbits
 394               		.balign 2
 395               		.global	ibqGetTimeout
 396               		.type	ibqGetTimeout, @function
 397               	ibqGetTimeout:
 398               	; start of function
 399               	; framesize_regs:     12
 400               	; framesize_locals:   4
 401               	; framesize_outgoing: 0
 402               	; framesize:          16
 403               	; elim ap -> fp       16
 404               	; elim fp -> sp       4
 405               	; saved regs: R6 R8 R10
 406               		; start of prologue
 407 0000 0A14      		PUSHM.A	#1, R10
 408 0002 0814      		PUSHM.A	#1, R8
 409 0004 0614      		PUSHM.A	#1, R6
 410 0006 B100 0400 		SUBA	#4, R1
 411               		; end of prologue
 412 000a C60C      		MOVA	R12, R6
 413 000c 710D 0000 		MOVA	R13, @R1
 414 0010 B013 0000 		CALLA	#port_lock
 415 0014 8800 0000 		MOVA	#port_unlock, R8
 416 0018 0D01      		MOVA	@R1, R13
 417 001a 0018 C693 		CMPX.A	#0, 32(R6) { JNE	.L44
 417      2000 0020 
GAS LISTING /tmp/cc0AG7Pp.s 			page 9


 418 0022 CC06      		MOVA	R6, R12
 419 0024 B013 0000 		CALLA	#ibqGetFullBufferTimeoutS
 420 0028 CA0C      		MOVA	R12, R10
 421 002a 9C00 0000 		CMPA	#0, R12 { JEQ	.L44
 421      0024 
 422               	.L46:
 423 0030 4813      		CALLA	R8
 424 0032 CC0A      		MOVA	R10, R12
 425               		; start of epilogue
 426 0034 A100 0400 		ADDA	#4, R1
 427 0038 0616      		POPM.A	#1, r6
 428 003a 0816      		POPM.A	#1, r8
 429 003c 0A16      		POPM.A	#1, r10
 430 003e 1001      		RETA
 431               	.L44:
 432 0040 3C06 2000 		MOVA	32(R6), R12
 433 0044 6D4C      		MOV.B	@R12, R13
 434 0046 4018 0A4D 		MOVX	R13, R10
 435 004a AC00 0100 		ADDA	#1, R12
 436 004e 760C 2000 		MOVA	R12, 32(R6)
 437 0052 0018 5C96 		CMPX.A	36(R6), R12 { JLO	.L46
 437      2400 0028 
 438 005a CC06      		MOVA	R6, R12
 439 005c B013 0000 		CALLA	#ibqReleaseEmptyBufferS
 440 0060 8000 0000 		BRA	#.L46
 441               		.size	ibqGetTimeout, .-ibqGetTimeout
 442               		.section	.text.ibqReadTimeout,"ax",@progbits
 443               		.balign 2
 444               		.global	ibqReadTimeout
 445               		.type	ibqReadTimeout, @function
 446               	ibqReadTimeout:
 447               	; start of function
 448               	; framesize_regs:     28
 449               	; framesize_locals:   2
 450               	; framesize_outgoing: 0
 451               	; framesize:          30
 452               	; elim ap -> fp       32
 453               	; elim fp -> sp       2
 454               	; saved regs: R4 R5 R6 R7 R8 R9 R10
 455               		; start of prologue
 456 0000 6A14      		PUSHM.A	#7, R10
 457 0002 B100 0200 		SUBA	#2, R1
 458               		; end of prologue
 459 0006 CA0C      		MOVA	R12, R10
 460 0008 C40D      		MOVA	R13, R4
 461 000a C50E      		MOVA	R14, R5
 462 000c 094F      		MOV.W	R15, R9
 463 000e 9E00 0000 		CMPA	#0, R14 { JNE	.L50
 463      0020 
 464 0014 8C00 0000 		MOVA	#__func__.4077, R12
 465 0018 B013 0000 		CALLA	#chSysHalt
 466               	.L50:
 467 001c B013 0000 		CALLA	#port_lock
 468 0020 8C00 0000 		MOVA	#nil, R12
 469 0024 0D49      		MOV.W	R9, R13
 470 0026 1D5C 0800 		ADD.W	8(R12), R13
 471 002a 814D 0000 		MOV.W	R13, @R1
GAS LISTING /tmp/cc0AG7Pp.s 			page 10


 472 002e 4643      		MOV.B	#0, R6
 473 0030 8700 0000 		MOVA	#ibqGetFullBufferTimeoutS, R7
 474               	.L60:
 475 0034 0018 CA93 		CMPX.A	#0, 32(R10) { JNE	.L51
 475      2000 0020 
 476 003c 0C49      		MOV.W	R9, R12
 477 003e 3C53      		ADD.W	#-1, R12
 478 0040 3D40 FDFF 		MOV.W	#-3, R13
 479 0044 0D9C 002C 		CMP.W	R12, R13 { JHS	.L52
 480 0048 0D49      		MOV.W	R9, R13
 481               	.L54:
 482 004a CC0A      		MOVA	R10, R12
 483 004c 4713      		CALLA	R7
 484 004e 9C00 0000 		CMPA	#0, R12 { JNE	.L64
 484      0020 
 485               	.L51:
 486 0054 3D0A 2000 		MOVA	32(R10), R13
 487 0058 3C0A 2400 		MOVA	36(R10), R12
 488 005c FC0D      		SUBA	R13, R12
 489 005e 0018 4845 		MOVX.A	R5, R8 { SUBX.A	R6, R8
 489      0018 4886 
 490 0066 DC08 002C 		CMPA	R8, R12 { JHS	.L56
 491 006a C80C      		MOVA	R12, R8
 492               	.L56:
 493 006c 7C40 4000 		MOV.B	#64, R12
 494 0070 DC08 002C 		CMPA	R8, R12 { JHS	.L57
 495 0074 CE0C      		MOVA	R12, R14
 496 0076 CC04      		MOVA	R4, R12
 497 0078 B013 0000 		CALLA	#memcpy
 498 007c A400 4000 		ADDA	#64, R4
 499 0080 0018 FA50 		ADDX.A	#64, 32(R10)
 499      4000 2000 
 500 0088 A600 4000 		ADDA	#64, R6
 501               	.L58:
 502 008c 0018 DA9A 		CMPX.A	36(R10), 32(R10) { JLO	.L59
 502      2400 2000 
 502      0028 
 503 0096 CC0A      		MOVA	R10, R12
 504 0098 B013 0000 		CALLA	#ibqReleaseEmptyBufferS
 505               	.L59:
 506 009c B013 0000 		CALLA	#port_unlock
 507 00a0 D605 002C 		CMPA	R5, R6 { JHS	.L49
 508 00a4 B013 0000 		CALLA	#port_lock
 509 00a8 8000 0000 		BRA	#.L60
 510               	.L52:
 511 00ac 4018 1C42 		MOVX.W	&nil+8, R12
 511      0000 
 512 00b2 2D41      		MOV.W	@R1, R13
 513 00b4 0D8C      		SUB.W	R12, R13
 514 00b6 099D 002C 		CMP.W	R13, R9 { JHS	.L54
 515               	.L64:
 516 00ba B013 0000 		CALLA	#port_unlock
 517               	.L49:
 518 00be CC06      		MOVA	R6, R12
 519               		; start of epilogue
 520 00c0 A100 0200 		ADDA	#2, R1
 521 00c4 6416      		POPM.A	#7, r10
GAS LISTING /tmp/cc0AG7Pp.s 			page 11


 522 00c6 1001      		RETA
 523               	.L57:
 524 00c8 CE08      		MOVA	R8, R14
 525 00ca CC04      		MOVA	R4, R12
 526 00cc B013 0000 		CALLA	#memcpy
 527 00d0 E408      		ADDA	R8, R4
 528 00d2 0018 CA58 		ADDX.A	R8, 32(R10)
 528      2000 
 529 00d8 E608      		ADDA	R8, R6
 530 00da 8000 0000 		BRA	#.L58
 531               		.size	ibqReadTimeout, .-ibqReadTimeout
 532               		.section	.text.obqObjectInit,"ax",@progbits
 533               		.balign 2
 534               		.global	obqObjectInit
 535               		.type	obqObjectInit, @function
 536               	obqObjectInit:
 537               	; start of function
 538               	; framesize_regs:     16
 539               	; framesize_locals:   4
 540               	; framesize_outgoing: 0
 541               	; framesize:          20
 542               	; elim ap -> fp       20
 543               	; elim fp -> sp       4
 544               	; saved regs: R6 R8 R9 R10
 545               		; start of prologue
 546 0000 2A14      		PUSHM.A	#3, R10
 547 0002 0614      		PUSHM.A	#1, R6
 548 0004 B100 0400 		SUBA	#4, R1
 549               		; end of prologue
 550 0008 CA0C      		MOVA	R12, R10
 551 000a 494D      		MOV.B	R13, R9
 552 000c C80E      		MOVA	R14, R8
 553 000e C60F      		MOVA	R15, R6
 554 0010 9C00 0000 		CMPA	#0, R12 { JEQ	.L66
 554      0024 
 555 0016 9E00 0000 		CMPA	#0, R14 { JEQ	.L66
 555      0024 
 556 001c 5C43      		MOV.B	#1, R12
 557 001e DC0F 0028 		CMPA	R15, R12 { JLO	.L67
 558               	.L66:
 559 0022 8C00 0000 		MOVA	#__func__.4091, R12
 560 0026 B013 0000 		CALLA	#chSysHalt
 561               	.L67:
 562 002a 8A43 0000 		MOV.W	#0, @R10
 563 002e CA49 0200 		MOV.B	R9, 2(R10)
 564 0032 9A41 1800 		MOV.W	24(R1), 4(R10)
 564      0400 
 565 0038 1C41 1A00 		MOV.W	26(R1), R12
 566 003c 7CF0 0F00 		AND.B	#15, R12
 567 0040 1D4A 0600 		MOV.W	6(R10), R13
 568 0044 3DF0 F0FF 		AND.W	#-16, R13
 569 0048 0DDC      		BIS.W	R12, R13
 570 004a 8A4D 0600 		MOV.W	R13, 6(R10)
 571 004e 7A08 0C00 		MOVA	R8, 12(R10)
 572 0052 7A08 0800 		MOVA	R8, 8(R10)
 573 0056 A600 0400 		ADDA	#4, R6
 574 005a 7106 0000 		MOVA	R6, @R1
GAS LISTING /tmp/cc0AG7Pp.s 			page 12


 575 005e 0614 4018 		PUSHM.A	#1, R6 { POPX.W	R14 { POPX.W	R15 ; move pointer in R6 into reg-pair R14:R15
 575      3E41 4018 
 575      3F41 
 576 0068 3901 1800 		MOVA	24(R1), R9
 577 006c 0914 4018 		PUSHM.A	#1, R9 { POPX.W	R12 { POPX.W	R13 ; move pointer in R9 into reg-pair R12:R13
 577      3C41 4018 
 577      3D41 
 578 0076 B013 0000 		CALLA	#__mulsi2_f5
 579 007a 0D12 0C12 		PUSH.W	R13 { PUSH.W	R12 { POPM.A	#1, R12
 579      0C16 
 580 0080 EC08      		ADDA	R8, R12
 581 0082 7A0C 1000 		MOVA	R12, 16(R10)
 582 0086 AA41 1400 		MOV.W	@R1, 20(R10)
 583 008a 0614 0C17 		PUSHM.A	#1,R6 { POPM.W	#1,R12 { POPM.W	#1,R12
 583      0C17 
 584 0090 7CF0 0F00 		AND.B	#15, R12
 585 0094 5D4A 1600 		MOV.B	22(R10), R13
 586 0098 7DF0 F0FF 		AND.B	#-16, R13
 587 009c 4DDC      		BIS.B	R12, R13
 588 009e CA4D 1600 		MOV.B	R13, 22(R10)
 589 00a2 8A49 1800 		MOV.W	R9, 24(R10)
 590 00a6 0914 0C17 		PUSHM.A	#1,R9 { POPM.W	#1,R12 { POPM.W	#1,R12
 590      0C17 
 591 00ac 7CF0 0F00 		AND.B	#15, R12
 592 00b0 5D4A 1A00 		MOV.B	26(R10), R13
 593 00b4 7DF0 F0FF 		AND.B	#-16, R13
 594 00b8 4DDC      		BIS.B	R12, R13
 595 00ba CA4D 1A00 		MOV.B	R13, 26(R10)
 596 00be 7A08 1C00 		MOVA	R8, 28(R10)
 597 00c2 0018 CA43 		MOVX.A	#0, 32(R10)
 597      2000 
 598 00c8 0018 CA43 		MOVX.A	#0, 36(R10)
 598      2400 
 599 00ce 0018 DA41 		MOVX.A	28(R1), 40(R10)
 599      1C00 2800 
 600 00d6 0018 DA41 		MOVX.A	32(R1), 44(R10)
 600      2000 2C00 
 601               		; start of epilogue
 602 00de A100 0400 		ADDA	#4, R1
 603 00e2 0616      		POPM.A	#1, r6
 604 00e4 2816      		POPM.A	#3, r10
 605 00e6 1001      		RETA
 606               		.size	obqObjectInit, .-obqObjectInit
 607               		.section	.text.obqResetI,"ax",@progbits
 608               		.balign 2
 609               		.global	obqResetI
 610               		.type	obqResetI, @function
 611               	obqResetI:
 612               	; start of function
 613               	; framesize_regs:     4
 614               	; framesize_locals:   0
 615               	; framesize_outgoing: 0
 616               	; framesize:          4
 617               	; elim ap -> fp       8
 618               	; elim fp -> sp       0
 619               	; saved regs: R10
 620               		; start of prologue
GAS LISTING /tmp/cc0AG7Pp.s 			page 13


 621 0000 0A14      		PUSHM.A	#1, R10
 622               		; end of prologue
 623 0002 9C4C 1800 		MOV.W	24(R12), 4(R12)
 623      0400 
 624 0008 1D4C 1A00 		MOV.W	26(R12), R13
 625 000c 7DF0 0F00 		AND.B	#15, R13
 626 0010 1F4C 0600 		MOV.W	6(R12), R15
 627 0014 3FF0 F0FF 		AND.W	#-16, R15
 628 0018 0FDD      		BIS.W	R13, R15
 629 001a 8C4F 0600 		MOV.W	R15, 6(R12)
 630 001e 3A0C 1C00 		MOVA	28(R12), R10
 631 0022 7C0A 0C00 		MOVA	R10, 12(R12)
 632 0026 7C0A 0800 		MOVA	R10, 8(R12)
 633 002a 0018 CC43 		MOVX.A	#0, 32(R12)
 633      2000 
 634 0030 0018 CC43 		MOVX.A	#0, 36(R12)
 634      2400 
 635 0036 8D0F FEFF 		MOVA	#-2, R13
 636 003a B013 0000 		CALLA	#osalThreadDequeueAllI
 637               		; start of epilogue
 638 003e 0A16      		POPM.A	#1, r10
 639 0040 1001      		RETA
 640               		.size	obqResetI, .-obqResetI
 641               		.section	.text.obqGetFullBufferI,"ax",@progbits
 642               		.balign 2
 643               		.global	obqGetFullBufferI
 644               		.type	obqGetFullBufferI, @function
 645               	obqGetFullBufferI:
 646               	; start of function
 647               	; framesize_regs:     0
 648               	; framesize_locals:   0
 649               	; framesize_outgoing: 0
 650               	; framesize:          0
 651               	; elim ap -> fp       4
 652               	; elim fp -> sp       0
 653               	; saved regs:(none)
 654               		; start of prologue
 655               		; end of prologue
 656 0000 3E0C 0C00 		MOVA	12(R12), R14
 657 0004 0018 CC9E 		CMPX.A	R14, 8(R12) { JNE	.L75
 657      0800 0020 
 658 000c 3C0C 0400 		MOVA	4(R12), R12
 659 0010 9C00 0000 		CMPA	#0, R12 { JEQ	.L75
 659      0024 
 660 0016 4C43      		MOV.B	#0, R12
 661               	.L74:
 662               		; start of epilogue
 663 0018 1001      		RETA
 664               	.L75:
 665 001a 0018 ED4E 		MOVX.A	@R14, @R13
 665      0000 
 666 0020 CC0E      		MOVA	R14, R12
 667 0022 AC00 0400 		ADDA	#4, R12
 668 0026 8000 0000 		BRA	#.L74
 669               		.size	obqGetFullBufferI, .-obqGetFullBufferI
 670               		.section	.text.obqReleaseEmptyBufferI,"ax",@progbits
 671               		.balign 2
GAS LISTING /tmp/cc0AG7Pp.s 			page 14


 672               		.global	obqReleaseEmptyBufferI
 673               		.type	obqReleaseEmptyBufferI, @function
 674               	obqReleaseEmptyBufferI:
 675               	; start of function
 676               	; framesize_regs:     4
 677               	; framesize_locals:   4
 678               	; framesize_outgoing: 0
 679               	; framesize:          8
 680               	; elim ap -> fp       8
 681               	; elim fp -> sp       4
 682               	; saved regs: R10
 683               		; start of prologue
 684 0000 0A14      		PUSHM.A	#1, R10
 685 0002 B100 0400 		SUBA	#4, R1
 686               		; end of prologue
 687 0006 CA0C      		MOVA	R12, R10
 688 0008 0018 DC9C 		CMPX.A	12(R12), 8(R12) { JNE	.L81
 688      0C00 0800 
 688      0020 
 689 0012 3C0C 0400 		MOVA	4(R12), R12
 690 0016 9C00 0000 		CMPA	#0, R12 { JNE	.L82
 690      0020 
 691               	.L81:
 692 001c 3C0A 0400 		MOVA	4(R10), R12
 693 0020 AC00 0100 		ADDA	#1, R12
 694 0024 710C 0000 		MOVA	R12, @R1
 695 0028 8A4C 0400 		MOV.W	R12, 4(R10)
 696 002c 1C41 0200 		MOV.W	2(R1), R12
 697 0030 7CF0 0F00 		AND.B	#15, R12
 698 0034 1D4A 0600 		MOV.W	6(R10), R13
 699 0038 3DF0 F0FF 		AND.W	#-16, R13
 700 003c 0DDC      		BIS.W	R12, R13
 701 003e 8A4D 0600 		MOV.W	R13, 6(R10)
 702 0042 3C0A 0C00 		MOVA	12(R10), R12
 703 0046 0018 5C5A 		ADDX.A	20(R10), R12
 703      1400 
 704 004c 7A0C 0C00 		MOVA	R12, 12(R10)
 705 0050 0018 5C9A 		CMPX.A	16(R10), R12 { JLO	.L83
 705      1000 0028 
 706 0058 0018 DA4A 		MOVX.A	28(R10), 12(R10)
 706      1C00 0C00 
 707               	.L83:
 708 0060 4D43      		MOV.B	#0, R13
 709 0062 CC0A      		MOVA	R10, R12
 710 0064 B013 0000 		CALLA	#osalThreadDequeueNextI
 711               		; start of epilogue
 712 0068 A100 0400 		ADDA	#4, R1
 713 006c 0A16      		POPM.A	#1, r10
 714 006e 1001      		RETA
 715               	.L82:
 716 0070 8C00 0000 		MOVA	#__func__.4102, R12
 717 0074 B013 0000 		CALLA	#chSysHalt
 718 0078 8000 0000 		BRA	#.L81
 719               		.size	obqReleaseEmptyBufferI, .-obqReleaseEmptyBufferI
 720               		.section	.text.obqGetEmptyBufferTimeoutS,"ax",@progbits
 721               		.balign 2
 722               		.global	obqGetEmptyBufferTimeoutS
GAS LISTING /tmp/cc0AG7Pp.s 			page 15


 723               		.type	obqGetEmptyBufferTimeoutS, @function
 724               	obqGetEmptyBufferTimeoutS:
 725               	; start of function
 726               	; framesize_regs:     12
 727               	; framesize_locals:   0
 728               	; framesize_outgoing: 0
 729               	; framesize:          12
 730               	; elim ap -> fp       16
 731               	; elim fp -> sp       0
 732               	; saved regs: R8 R9 R10
 733               		; start of prologue
 734 0000 2A14      		PUSHM.A	#3, R10
 735               		; end of prologue
 736 0002 CA0C      		MOVA	R12, R10
 737 0004 094D      		MOV.W	R13, R9
 738 0006 8800 0000 		MOVA	#chSemWaitTimeoutS, R8
 739               	.L86:
 740 000a 3C0A 0400 		MOVA	4(R10), R12
 741 000e 9C00 0000 		CMPA	#0, R12 { JEQ	.L88
 741      0024 
 742 0014 3C0A 0400 		MOVA	4(R10), R12
 743 0018 9C00 0000 		CMPA	#0, R12 { JNE	.L89
 743      0020 
 744 001e 8C00 0000 		MOVA	#__func__.4116, R12
 745 0022 B013 0000 		CALLA	#chSysHalt
 746               	.L89:
 747 0026 3C0A 0800 		MOVA	8(R10), R12
 748 002a CD0C      		MOVA	R12, R13
 749 002c AD00 0400 		ADDA	#4, R13
 750 0030 7A0D 2000 		MOVA	R13, 32(R10)
 751 0034 0018 5C5A 		ADDX.A	20(R10), R12
 751      1400 
 752 003a 7A0C 2400 		MOVA	R12, 36(R10)
 753 003e 4C43      		MOV.B	#0, R12
 754 0040 8000 0000 		BRA	#.L85
 755               	.L88:
 756 0044 CA93 0200 		CMP.B	#0, 2(R10) { JNE	.L90
 756      0020 
 757 004a 0D49      		MOV.W	R9, R13
 758 004c CC0A      		MOVA	R10, R12
 759 004e 4813      		CALLA	R8
 760 0050 9C00 0000 		CMPA	#0, R12 { JGE	.L86
 760      0034 
 761               	.L85:
 762               		; start of epilogue
 763 0056 2816      		POPM.A	#3, r10
 764 0058 1001      		RETA
 765               	.L90:
 766 005a 8C0F FEFF 		MOVA	#-2, R12
 767 005e 8000 0000 		BRA	#.L85
 768               		.size	obqGetEmptyBufferTimeoutS, .-obqGetEmptyBufferTimeoutS
 769               		.section	.text.obqGetEmptyBufferTimeout,"ax",@progbits
 770               		.balign 2
 771               		.global	obqGetEmptyBufferTimeout
 772               		.type	obqGetEmptyBufferTimeout, @function
 773               	obqGetEmptyBufferTimeout:
 774               	; start of function
GAS LISTING /tmp/cc0AG7Pp.s 			page 16


 775               	; framesize_regs:     0
 776               	; framesize_locals:   8
 777               	; framesize_outgoing: 0
 778               	; framesize:          8
 779               	; elim ap -> fp       4
 780               	; elim fp -> sp       8
 781               	; saved regs:(none)
 782               		; start of prologue
 783 0000 B100 0800 		SUBA	#8, R1
 784               		; end of prologue
 785 0004 710C 0000 		MOVA	R12, @R1
 786 0008 710D 0400 		MOVA	R13, 4(R1)
 787 000c B013 0000 		CALLA	#port_lock
 788 0010 3D01 0400 		MOVA	4(R1), R13
 789 0014 0C01      		MOVA	@R1, R12
 790 0016 B013 0000 		CALLA	#obqGetEmptyBufferTimeoutS
 791 001a 710C 0000 		MOVA	R12, @R1
 792 001e B013 0000 		CALLA	#port_unlock
 793 0022 0C01      		MOVA	@R1, R12
 794               		; start of epilogue
 795 0024 A100 0800 		ADDA	#8, R1
 796 0028 1001      		RETA
 797               		.size	obqGetEmptyBufferTimeout, .-obqGetEmptyBufferTimeout
 798               		.section	.text.obqPostFullBufferS,"ax",@progbits
 799               		.balign 2
 800               		.global	obqPostFullBufferS
 801               		.type	obqPostFullBufferS, @function
 802               	obqPostFullBufferS:
 803               	; start of function
 804               	; framesize_regs:     8
 805               	; framesize_locals:   4
 806               	; framesize_outgoing: 0
 807               	; framesize:          12
 808               	; elim ap -> fp       12
 809               	; elim fp -> sp       4
 810               	; saved regs: R8 R10
 811               		; start of prologue
 812 0000 0A14      		PUSHM.A	#1, R10
 813 0002 0814      		PUSHM.A	#1, R8
 814 0004 B100 0400 		SUBA	#4, R1
 815               		; end of prologue
 816 0008 CA0C      		MOVA	R12, R10
 817 000a C80D      		MOVA	R13, R8
 818 000c 9D00 0000 		CMPA	#0, R13 { JEQ	.L93
 818      0024 
 819 0012 3C0C 1400 		MOVA	20(R12), R12
 820 0016 AC0F FCFF 		ADDA	#-4, R12
 821 001a DC0D 002C 		CMPA	R13, R12 { JHS	.L94
 822               	.L93:
 823 001e 8C00 0000 		MOVA	#__func__.4125, R12
 824 0022 B013 0000 		CALLA	#chSysHalt
 825               	.L94:
 826 0026 3C0A 0400 		MOVA	4(R10), R12
 827 002a 9C00 0000 		CMPA	#0, R12 { JNE	.L95
 827      0020 
 828 0030 8C00 0000 		MOVA	#__func__.4125, R12
 829 0034 B013 0000 		CALLA	#chSysHalt
GAS LISTING /tmp/cc0AG7Pp.s 			page 17


 830               	.L95:
 831 0038 3C0A 0800 		MOVA	8(R10), R12
 832 003c 7C08 0000 		MOVA	R8, @R12
 833 0040 3D0A 0400 		MOVA	4(R10), R13
 834 0044 AD0F FFFF 		ADDA	#-1, R13
 835 0048 710D 0000 		MOVA	R13, @R1
 836 004c 8A4D 0400 		MOV.W	R13, 4(R10)
 837 0050 1D41 0200 		MOV.W	2(R1), R13
 838 0054 7DF0 0F00 		AND.B	#15, R13
 839 0058 1E4A 0600 		MOV.W	6(R10), R14
 840 005c 3EF0 F0FF 		AND.W	#-16, R14
 841 0060 0EDD      		BIS.W	R13, R14
 842 0062 8A4E 0600 		MOV.W	R14, 6(R10)
 843 0066 0018 5C5A 		ADDX.A	20(R10), R12
 843      1400 
 844 006c 7A0C 0800 		MOVA	R12, 8(R10)
 845 0070 0018 5C9A 		CMPX.A	16(R10), R12 { JLO	.L96
 845      1000 0028 
 846 0078 0018 DA4A 		MOVX.A	28(R10), 8(R10)
 846      1C00 0800 
 847               	.L96:
 848 0080 0018 CA43 		MOVX.A	#0, 32(R10)
 848      2000 
 849 0086 3E0A 2800 		MOVA	40(R10), R14
 850 008a 9E00 0000 		CMPA	#0, R14 { JEQ	.L92
 850      0024 
 851 0090 CC0A      		MOVA	R10, R12
 852 0092 4E13      		CALLA	R14
 853               	.L92:
 854               		; start of epilogue
 855 0094 A100 0400 		ADDA	#4, R1
 856 0098 0816      		POPM.A	#1, r8
 857 009a 0A16      		POPM.A	#1, r10
 858 009c 1001      		RETA
 859               		.size	obqPostFullBufferS, .-obqPostFullBufferS
 860               		.section	.text.obqPostFullBuffer,"ax",@progbits
 861               		.balign 2
 862               		.global	obqPostFullBuffer
 863               		.type	obqPostFullBuffer, @function
 864               	obqPostFullBuffer:
 865               	; start of function
 866               	; framesize_regs:     4
 867               	; framesize_locals:   4
 868               	; framesize_outgoing: 0
 869               	; framesize:          8
 870               	; elim ap -> fp       8
 871               	; elim fp -> sp       4
 872               	; saved regs: R10
 873               		; start of prologue
 874 0000 0A14      		PUSHM.A	#1, R10
 875 0002 B100 0400 		SUBA	#4, R1
 876               		; end of prologue
 877 0006 CA0D      		MOVA	R13, R10
 878 0008 710C 0000 		MOVA	R12, @R1
 879 000c B013 0000 		CALLA	#port_lock
 880 0010 CD0A      		MOVA	R10, R13
 881 0012 0C01      		MOVA	@R1, R12
GAS LISTING /tmp/cc0AG7Pp.s 			page 18


 882 0014 B013 0000 		CALLA	#obqPostFullBufferS
 883 0018 B013 0000 		CALLA	#port_unlock
 884               		; start of epilogue
 885 001c A100 0400 		ADDA	#4, R1
 886 0020 0A16      		POPM.A	#1, r10
 887 0022 1001      		RETA
 888               		.size	obqPostFullBuffer, .-obqPostFullBuffer
 889               		.section	.text.obqPutTimeout,"ax",@progbits
 890               		.balign 2
 891               		.global	obqPutTimeout
 892               		.type	obqPutTimeout, @function
 893               	obqPutTimeout:
 894               	; start of function
 895               	; framesize_regs:     16
 896               	; framesize_locals:   4
 897               	; framesize_outgoing: 0
 898               	; framesize:          20
 899               	; elim ap -> fp       20
 900               	; elim fp -> sp       4
 901               	; saved regs: R7 R8 R9 R10
 902               		; start of prologue
 903 0000 3A14      		PUSHM.A	#4, R10
 904 0002 B100 0400 		SUBA	#4, R1
 905               		; end of prologue
 906 0006 CA0C      		MOVA	R12, R10
 907 0008 494D      		MOV.B	R13, R9
 908 000a 074E      		MOV.W	R14, R7
 909 000c B013 0000 		CALLA	#port_lock
 910 0010 8800 0000 		MOVA	#port_unlock, R8
 911 0014 0018 CA93 		CMPX.A	#0, 32(R10) { JNE	.L106
 911      2000 0020 
 912 001c 0D47      		MOV.W	R7, R13
 913 001e CC0A      		MOVA	R10, R12
 914 0020 B013 0000 		CALLA	#obqGetEmptyBufferTimeoutS
 915 0024 9C00 0000 		CMPA	#0, R12 { JEQ	.L106
 915      0024 
 916 002a 710C 0000 		MOVA	R12, @R1
 917 002e 4813      		CALLA	R8
 918 0030 0C01      		MOVA	@R1, R12
 919               	.L105:
 920               		; start of epilogue
 921 0032 A100 0400 		ADDA	#4, R1
 922 0036 3716      		POPM.A	#4, r10
 923 0038 1001      		RETA
 924               	.L106:
 925 003a 3C0A 2000 		MOVA	32(R10), R12
 926 003e CC49 0000 		MOV.B	R9, @R12
 927 0042 3C0A 2000 		MOVA	32(R10), R12
 928 0046 AC00 0100 		ADDA	#1, R12
 929 004a 7A0C 2000 		MOVA	R12, 32(R10)
 930 004e 0018 5C9A 		CMPX.A	36(R10), R12 { JLO	.L108
 930      2400 0028 
 931 0056 3D0A 1400 		MOVA	20(R10), R13
 932 005a AD0F FCFF 		ADDA	#-4, R13
 933 005e CC0A      		MOVA	R10, R12
 934 0060 B013 0000 		CALLA	#obqPostFullBufferS
 935               	.L108:
GAS LISTING /tmp/cc0AG7Pp.s 			page 19


 936 0064 4813      		CALLA	R8
 937 0066 4C43      		MOV.B	#0, R12
 938 0068 8000 0000 		BRA	#.L105
 939               		.size	obqPutTimeout, .-obqPutTimeout
 940               		.section	.text.obqWriteTimeout,"ax",@progbits
 941               		.balign 2
 942               		.global	obqWriteTimeout
 943               		.type	obqWriteTimeout, @function
 944               	obqWriteTimeout:
 945               	; start of function
 946               	; framesize_regs:     28
 947               	; framesize_locals:   2
 948               	; framesize_outgoing: 0
 949               	; framesize:          30
 950               	; elim ap -> fp       32
 951               	; elim fp -> sp       2
 952               	; saved regs: R4 R5 R6 R7 R8 R9 R10
 953               		; start of prologue
 954 0000 6A14      		PUSHM.A	#7, R10
 955 0002 B100 0200 		SUBA	#2, R1
 956               		; end of prologue
 957 0006 CA0C      		MOVA	R12, R10
 958 0008 C40D      		MOVA	R13, R4
 959 000a C50E      		MOVA	R14, R5
 960 000c 094F      		MOV.W	R15, R9
 961 000e 9E00 0000 		CMPA	#0, R14 { JNE	.L112
 961      0020 
 962 0014 8C00 0000 		MOVA	#__func__.4140, R12
 963 0018 B013 0000 		CALLA	#chSysHalt
 964               	.L112:
 965 001c B013 0000 		CALLA	#port_lock
 966 0020 8C00 0000 		MOVA	#nil, R12
 967 0024 0D49      		MOV.W	R9, R13
 968 0026 1D5C 0800 		ADD.W	8(R12), R13
 969 002a 814D 0000 		MOV.W	R13, @R1
 970 002e 4643      		MOV.B	#0, R6
 971 0030 8700 0000 		MOVA	#obqGetEmptyBufferTimeoutS, R7
 972               	.L122:
 973 0034 0018 CA93 		CMPX.A	#0, 32(R10) { JNE	.L113
 973      2000 0020 
 974 003c 0C49      		MOV.W	R9, R12
 975 003e 3C53      		ADD.W	#-1, R12
 976 0040 3D40 FDFF 		MOV.W	#-3, R13
 977 0044 0D9C 002C 		CMP.W	R12, R13 { JHS	.L114
 978 0048 0D49      		MOV.W	R9, R13
 979               	.L116:
 980 004a CC0A      		MOVA	R10, R12
 981 004c 4713      		CALLA	R7
 982 004e 9C00 0000 		CMPA	#0, R12 { JNE	.L126
 982      0020 
 983               	.L113:
 984 0054 3C0A 2000 		MOVA	32(R10), R12
 985 0058 3E0A 2400 		MOVA	36(R10), R14
 986 005c FE0C      		SUBA	R12, R14
 987 005e 0018 4845 		MOVX.A	R5, R8 { SUBX.A	R6, R8
 987      0018 4886 
 988 0066 DE08 002C 		CMPA	R8, R14 { JHS	.L118
GAS LISTING /tmp/cc0AG7Pp.s 			page 20


 989 006a C80E      		MOVA	R14, R8
 990               	.L118:
 991 006c 7D40 4000 		MOV.B	#64, R13
 992 0070 DD08 002C 		CMPA	R8, R13 { JHS	.L119
 993 0074 CE0D      		MOVA	R13, R14
 994 0076 CD04      		MOVA	R4, R13
 995 0078 B013 0000 		CALLA	#memcpy
 996 007c A400 4000 		ADDA	#64, R4
 997 0080 0018 FA50 		ADDX.A	#64, 32(R10)
 997      4000 2000 
 998 0088 A600 4000 		ADDA	#64, R6
 999               	.L120:
 1000 008c 0018 DA9A 		CMPX.A	36(R10), 32(R10) { JLO	.L121
 1000      2400 2000 
 1000      0028 
 1001 0096 3D0A 1400 		MOVA	20(R10), R13
 1002 009a AD0F FCFF 		ADDA	#-4, R13
 1003 009e CC0A      		MOVA	R10, R12
 1004 00a0 B013 0000 		CALLA	#obqPostFullBufferS
 1005               	.L121:
 1006 00a4 B013 0000 		CALLA	#port_unlock
 1007 00a8 D605 002C 		CMPA	R5, R6 { JHS	.L111
 1008 00ac B013 0000 		CALLA	#port_lock
 1009 00b0 8000 0000 		BRA	#.L122
 1010               	.L114:
 1011 00b4 4018 1C42 		MOVX.W	&nil+8, R12
 1011      0000 
 1012 00ba 2D41      		MOV.W	@R1, R13
 1013 00bc 0D8C      		SUB.W	R12, R13
 1014 00be 099D 002C 		CMP.W	R13, R9 { JHS	.L116
 1015               	.L126:
 1016 00c2 B013 0000 		CALLA	#port_unlock
 1017               	.L111:
 1018 00c6 CC06      		MOVA	R6, R12
 1019               		; start of epilogue
 1020 00c8 A100 0200 		ADDA	#2, R1
 1021 00cc 6416      		POPM.A	#7, r10
 1022 00ce 1001      		RETA
 1023               	.L119:
 1024 00d0 CE08      		MOVA	R8, R14
 1025 00d2 CD04      		MOVA	R4, R13
 1026 00d4 B013 0000 		CALLA	#memcpy
 1027 00d8 E408      		ADDA	R8, R4
 1028 00da 0018 CA58 		ADDX.A	R8, 32(R10)
 1028      2000 
 1029 00e0 E608      		ADDA	R8, R6
 1030 00e2 8000 0000 		BRA	#.L120
 1031               		.size	obqWriteTimeout, .-obqWriteTimeout
 1032               		.section	.text.obqTryFlushI,"ax",@progbits
 1033               		.balign 2
 1034               		.global	obqTryFlushI
 1035               		.type	obqTryFlushI, @function
 1036               	obqTryFlushI:
 1037               	; start of function
 1038               	; framesize_regs:     4
 1039               	; framesize_locals:   4
 1040               	; framesize_outgoing: 0
GAS LISTING /tmp/cc0AG7Pp.s 			page 21


 1041               	; framesize:          8
 1042               	; elim ap -> fp       8
 1043               	; elim fp -> sp       4
 1044               	; saved regs: R10
 1045               		; start of prologue
 1046 0000 0A14      		PUSHM.A	#1, R10
 1047 0002 B100 0400 		SUBA	#4, R1
 1048               		; end of prologue
 1049 0006 3E0C 0800 		MOVA	8(R12), R14
 1050 000a 0018 5E9C 		CMPX.A	12(R12), R14 { JNE	.L135
 1050      0C00 0020 
 1051 0012 3A0C 0400 		MOVA	4(R12), R10
 1052 0016 9A00 0000 		CMPA	#0, R10 { JNE	.L129
 1052      0020 
 1053               	.L135:
 1054 001c 4C43      		MOV.B	#0, R12
 1055 001e 8000 0000 		BRA	#.L134
 1056               	.L129:
 1057 0022 3A0C 2000 		MOVA	32(R12), R10
 1058 0026 9A00 0000 		CMPA	#0, R10 { JEQ	.L135
 1058      0024 
 1059 002c AA0F FCFF 		ADDA	#-4, R10
 1060 0030 FA0E      		SUBA	R14, R10
 1061 0032 9A00 0000 		CMPA	#0, R10 { JEQ	.L135
 1061      0024 
 1062 0038 7E0A 0000 		MOVA	R10, @R14
 1063 003c 3D0C 0400 		MOVA	4(R12), R13
 1064 0040 AD0F FFFF 		ADDA	#-1, R13
 1065 0044 710D 0000 		MOVA	R13, @R1
 1066 0048 8C4D 0400 		MOV.W	R13, 4(R12)
 1067 004c 1D41 0200 		MOV.W	2(R1), R13
 1068 0050 7DF0 0F00 		AND.B	#15, R13
 1069 0054 1F4C 0600 		MOV.W	6(R12), R15
 1070 0058 3FF0 F0FF 		AND.W	#-16, R15
 1071 005c 0FDD      		BIS.W	R13, R15
 1072 005e 8C4F 0600 		MOV.W	R15, 6(R12)
 1073 0062 0018 5E5C 		ADDX.A	20(R12), R14
 1073      1400 
 1074 0068 7C0E 0800 		MOVA	R14, 8(R12)
 1075 006c 0018 5E9C 		CMPX.A	16(R12), R14 { JLO	.L130
 1075      1000 0028 
 1076 0074 0018 DC4C 		MOVX.A	28(R12), 8(R12)
 1076      1C00 0800 
 1077               	.L130:
 1078 007c 0018 CC43 		MOVX.A	#0, 32(R12)
 1078      2000 
 1079 0082 5C43      		MOV.B	#1, R12
 1080               	.L134:
 1081               		; start of epilogue
 1082 0084 A100 0400 		ADDA	#4, R1
 1083 0088 0A16      		POPM.A	#1, r10
 1084 008a 1001      		RETA
 1085               		.size	obqTryFlushI, .-obqTryFlushI
 1086               		.section	.text.obqFlush,"ax",@progbits
 1087               		.balign 2
 1088               		.global	obqFlush
 1089               		.type	obqFlush, @function
GAS LISTING /tmp/cc0AG7Pp.s 			page 22


 1090               	obqFlush:
 1091               	; start of function
 1092               	; framesize_regs:     0
 1093               	; framesize_locals:   4
 1094               	; framesize_outgoing: 0
 1095               	; framesize:          4
 1096               	; elim ap -> fp       4
 1097               	; elim fp -> sp       4
 1098               	; saved regs:(none)
 1099               		; start of prologue
 1100 0000 B100 0400 		SUBA	#4, R1
 1101               		; end of prologue
 1102 0004 710C 0000 		MOVA	R12, @R1
 1103 0008 B013 0000 		CALLA	#port_lock
 1104 000c 0C01      		MOVA	@R1, R12
 1105 000e 3E0C 2000 		MOVA	32(R12), R14
 1106 0012 9E00 0000 		CMPA	#0, R14 { JEQ	.L137
 1106      0024 
 1107 0018 AE0F FCFF 		ADDA	#-4, R14
 1108 001c 0018 4D4E 		MOVX.A	R14, R13 { SUBX.A	8(R12), R13
 1108      0018 5D8C 
 1108      0800 
 1109 0026 9D00 0000 		CMPA	#0, R13 { JEQ	.L137
 1109      0024 
 1110 002c B013 0000 		CALLA	#obqPostFullBufferS
 1111               	.L137:
 1112 0030 B013 0000 		CALLA	#port_unlock
 1113               		; start of epilogue
 1114 0034 A100 0400 		ADDA	#4, R1
 1115 0038 1001      		RETA
 1116               		.size	obqFlush, .-obqFlush
 1117               		.section	.upper.rodata,"a",@progbits
 1118               		.type	__func__.4140, @object
 1119               		.size	__func__.4140, 16
 1120               	__func__.4140:
 1121 0000 6F62 7157 		.string	"obqWriteTimeout"
 1121      7269 7465 
 1121      5469 6D65 
 1121      6F75 7400 
 1122               		.type	__func__.4125, @object
 1123               		.size	__func__.4125, 19
 1124               	__func__.4125:
 1125 0010 6F62 7150 		.string	"obqPostFullBufferS"
 1125      6F73 7446 
 1125      756C 6C42 
 1125      7566 6665 
 1125      7253 00
 1126               		.type	__func__.4116, @object
 1127               		.size	__func__.4116, 26
 1128               	__func__.4116:
 1129 0023 6F62 7147 		.string	"obqGetEmptyBufferTimeoutS"
 1129      6574 456D 
 1129      7074 7942 
 1129      7566 6665 
 1129      7254 696D 
 1130               		.type	__func__.4102, @object
 1131               		.size	__func__.4102, 23
GAS LISTING /tmp/cc0AG7Pp.s 			page 23


 1132               	__func__.4102:
 1133 003d 6F62 7152 		.string	"obqReleaseEmptyBufferI"
 1133      656C 6561 
 1133      7365 456D 
 1133      7074 7942 
 1133      7566 6665 
 1134               		.type	__func__.4091, @object
 1135               		.size	__func__.4091, 14
 1136               	__func__.4091:
 1137 0054 6F62 714F 		.string	"obqObjectInit"
 1137      626A 6563 
 1137      7449 6E69 
 1137      7400 
 1138               		.type	__func__.4077, @object
 1139               		.size	__func__.4077, 15
 1140               	__func__.4077:
 1141 0062 6962 7152 		.string	"ibqReadTimeout"
 1141      6561 6454 
 1141      696D 656F 
 1141      7574 00
 1142               		.type	__func__.4063, @object
 1143               		.size	__func__.4063, 23
 1144               	__func__.4063:
 1145 0071 6962 7152 		.string	"ibqReleaseEmptyBufferS"
 1145      656C 6561 
 1145      7365 456D 
 1145      7074 7942 
 1145      7566 6665 
 1146               		.type	__func__.4056, @object
 1147               		.size	__func__.4056, 25
 1148               	__func__.4056:
 1149 0088 6962 7147 		.string	"ibqGetFullBufferTimeoutS"
 1149      6574 4675 
 1149      6C6C 4275 
 1149      6666 6572 
 1149      5469 6D65 
 1150               		.type	__func__.4042, @object
 1151               		.size	__func__.4042, 19
 1152               	__func__.4042:
 1153 00a1 6962 7150 		.string	"ibqPostFullBufferI"
 1153      6F73 7446 
 1153      756C 6C42 
 1153      7566 6665 
 1153      7249 00
 1154               		.type	__func__.4031, @object
 1155               		.size	__func__.4031, 14
 1156               	__func__.4031:
 1157 00b4 6962 714F 		.string	"ibqObjectInit"
 1157      626A 6563 
 1157      7449 6E69 
 1157      7400 
 1158               		.ident	"GCC: (SOMNIUM Technologies Limited - msp430-gcc 6.2.1.16) 6.2.1 20161212"
GAS LISTING /tmp/cc0AG7Pp.s 			page 24


DEFINED SYMBOLS
                            *ABS*:0000000000000000 hal_buffers.c
     /tmp/cc0AG7Pp.s:5      .text.port_lock:0000000000000000 port_lock
     /tmp/cc0AG7Pp.s:28     .text.port_unlock:0000000000000000 port_unlock
     /tmp/cc0AG7Pp.s:53     .text.ibqObjectInit:0000000000000000 ibqObjectInit
     /tmp/cc0AG7Pp.s:1156   .upper.rodata:00000000000000b4 __func__.4031
     /tmp/cc0AG7Pp.s:125    .text.ibqResetI:0000000000000000 ibqResetI
     /tmp/cc0AG7Pp.s:154    .text.ibqGetEmptyBufferI:0000000000000000 ibqGetEmptyBufferI
     /tmp/cc0AG7Pp.s:182    .text.ibqPostFullBufferI:0000000000000000 ibqPostFullBufferI
     /tmp/cc0AG7Pp.s:1152   .upper.rodata:00000000000000a1 __func__.4042
     /tmp/cc0AG7Pp.s:244    .text.ibqGetFullBufferTimeoutS:0000000000000000 ibqGetFullBufferTimeoutS
     /tmp/cc0AG7Pp.s:1148   .upper.rodata:0000000000000088 __func__.4056
     /tmp/cc0AG7Pp.s:293    .text.ibqGetFullBufferTimeout:0000000000000000 ibqGetFullBufferTimeout
     /tmp/cc0AG7Pp.s:322    .text.ibqReleaseEmptyBufferS:0000000000000000 ibqReleaseEmptyBufferS
     /tmp/cc0AG7Pp.s:1144   .upper.rodata:0000000000000071 __func__.4063
     /tmp/cc0AG7Pp.s:372    .text.ibqReleaseEmptyBuffer:0000000000000000 ibqReleaseEmptyBuffer
     /tmp/cc0AG7Pp.s:397    .text.ibqGetTimeout:0000000000000000 ibqGetTimeout
     /tmp/cc0AG7Pp.s:446    .text.ibqReadTimeout:0000000000000000 ibqReadTimeout
     /tmp/cc0AG7Pp.s:1140   .upper.rodata:0000000000000062 __func__.4077
     /tmp/cc0AG7Pp.s:536    .text.obqObjectInit:0000000000000000 obqObjectInit
     /tmp/cc0AG7Pp.s:1136   .upper.rodata:0000000000000054 __func__.4091
     /tmp/cc0AG7Pp.s:611    .text.obqResetI:0000000000000000 obqResetI
     /tmp/cc0AG7Pp.s:645    .text.obqGetFullBufferI:0000000000000000 obqGetFullBufferI
     /tmp/cc0AG7Pp.s:674    .text.obqReleaseEmptyBufferI:0000000000000000 obqReleaseEmptyBufferI
     /tmp/cc0AG7Pp.s:1132   .upper.rodata:000000000000003d __func__.4102
     /tmp/cc0AG7Pp.s:724    .text.obqGetEmptyBufferTimeoutS:0000000000000000 obqGetEmptyBufferTimeoutS
     /tmp/cc0AG7Pp.s:1128   .upper.rodata:0000000000000023 __func__.4116
     /tmp/cc0AG7Pp.s:773    .text.obqGetEmptyBufferTimeout:0000000000000000 obqGetEmptyBufferTimeout
     /tmp/cc0AG7Pp.s:802    .text.obqPostFullBufferS:0000000000000000 obqPostFullBufferS
     /tmp/cc0AG7Pp.s:1124   .upper.rodata:0000000000000010 __func__.4125
     /tmp/cc0AG7Pp.s:864    .text.obqPostFullBuffer:0000000000000000 obqPostFullBuffer
     /tmp/cc0AG7Pp.s:893    .text.obqPutTimeout:0000000000000000 obqPutTimeout
     /tmp/cc0AG7Pp.s:944    .text.obqWriteTimeout:0000000000000000 obqWriteTimeout
     /tmp/cc0AG7Pp.s:1120   .upper.rodata:0000000000000000 __func__.4140
     /tmp/cc0AG7Pp.s:1036   .text.obqTryFlushI:0000000000000000 obqTryFlushI
     /tmp/cc0AG7Pp.s:1090   .text.obqFlush:0000000000000000 obqFlush
     /tmp/cc0AG7Pp.s:75     .text.ibqObjectInit:0000000000000022 .L4
     /tmp/cc0AG7Pp.s:78     .text.ibqObjectInit:000000000000002a .L5
     /tmp/cc0AG7Pp.s:173    .text.ibqGetEmptyBufferI:000000000000001a .L13
     /tmp/cc0AG7Pp.s:170    .text.ibqGetEmptyBufferI:0000000000000018 .L12
     /tmp/cc0AG7Pp.s:202    .text.ibqPostFullBufferI:000000000000001e .L19
     /tmp/cc0AG7Pp.s:205    .text.ibqPostFullBufferI:0000000000000026 .L20
     /tmp/cc0AG7Pp.s:209    .text.ibqPostFullBufferI:000000000000003a .L21
     /tmp/cc0AG7Pp.s:235    .text.ibqPostFullBufferI:0000000000000094 .L22
     /tmp/cc0AG7Pp.s:226    .text.ibqPostFullBufferI:0000000000000082 .L23
     /tmp/cc0AG7Pp.s:275    .text.ibqGetFullBufferTimeoutS:0000000000000042 .L31
     /tmp/cc0AG7Pp.s:266    .text.ibqGetFullBufferTimeoutS:0000000000000026 .L32
     /tmp/cc0AG7Pp.s:281    .text.ibqGetFullBufferTimeoutS:0000000000000054 .L28
     /tmp/cc0AG7Pp.s:285    .text.ibqGetFullBufferTimeoutS:0000000000000058 .L33
     /tmp/cc0AG7Pp.s:259    .text.ibqGetFullBufferTimeoutS:000000000000000a .L29
     /tmp/cc0AG7Pp.s:340    .text.ibqReleaseEmptyBufferS:000000000000001a .L36
     /tmp/cc0AG7Pp.s:356    .text.ibqReleaseEmptyBufferS:000000000000005e .L37
     /tmp/cc0AG7Pp.s:362    .text.ibqReleaseEmptyBufferS:0000000000000072 .L35
     /tmp/cc0AG7Pp.s:431    .text.ibqGetTimeout:0000000000000040 .L44
     /tmp/cc0AG7Pp.s:422    .text.ibqGetTimeout:0000000000000030 .L46
     /tmp/cc0AG7Pp.s:466    .text.ibqReadTimeout:000000000000001c .L50
     /tmp/cc0AG7Pp.s:485    .text.ibqReadTimeout:0000000000000054 .L51
GAS LISTING /tmp/cc0AG7Pp.s 			page 25


     /tmp/cc0AG7Pp.s:510    .text.ibqReadTimeout:00000000000000ac .L52
     /tmp/cc0AG7Pp.s:515    .text.ibqReadTimeout:00000000000000ba .L64
     /tmp/cc0AG7Pp.s:492    .text.ibqReadTimeout:000000000000006c .L56
     /tmp/cc0AG7Pp.s:523    .text.ibqReadTimeout:00000000000000c8 .L57
     /tmp/cc0AG7Pp.s:505    .text.ibqReadTimeout:000000000000009c .L59
     /tmp/cc0AG7Pp.s:517    .text.ibqReadTimeout:00000000000000be .L49
     /tmp/cc0AG7Pp.s:474    .text.ibqReadTimeout:0000000000000034 .L60
     /tmp/cc0AG7Pp.s:481    .text.ibqReadTimeout:000000000000004a .L54
     /tmp/cc0AG7Pp.s:501    .text.ibqReadTimeout:000000000000008c .L58
     /tmp/cc0AG7Pp.s:558    .text.obqObjectInit:0000000000000022 .L66
     /tmp/cc0AG7Pp.s:561    .text.obqObjectInit:000000000000002a .L67
     /tmp/cc0AG7Pp.s:664    .text.obqGetFullBufferI:000000000000001a .L75
     /tmp/cc0AG7Pp.s:661    .text.obqGetFullBufferI:0000000000000018 .L74
     /tmp/cc0AG7Pp.s:691    .text.obqReleaseEmptyBufferI:000000000000001c .L81
     /tmp/cc0AG7Pp.s:715    .text.obqReleaseEmptyBufferI:0000000000000070 .L82
     /tmp/cc0AG7Pp.s:707    .text.obqReleaseEmptyBufferI:0000000000000060 .L83
     /tmp/cc0AG7Pp.s:755    .text.obqGetEmptyBufferTimeoutS:0000000000000044 .L88
     /tmp/cc0AG7Pp.s:746    .text.obqGetEmptyBufferTimeoutS:0000000000000026 .L89
     /tmp/cc0AG7Pp.s:761    .text.obqGetEmptyBufferTimeoutS:0000000000000056 .L85
     /tmp/cc0AG7Pp.s:765    .text.obqGetEmptyBufferTimeoutS:000000000000005a .L90
     /tmp/cc0AG7Pp.s:739    .text.obqGetEmptyBufferTimeoutS:000000000000000a .L86
     /tmp/cc0AG7Pp.s:822    .text.obqPostFullBufferS:000000000000001e .L93
     /tmp/cc0AG7Pp.s:825    .text.obqPostFullBufferS:0000000000000026 .L94
     /tmp/cc0AG7Pp.s:830    .text.obqPostFullBufferS:0000000000000038 .L95
     /tmp/cc0AG7Pp.s:847    .text.obqPostFullBufferS:0000000000000080 .L96
     /tmp/cc0AG7Pp.s:853    .text.obqPostFullBufferS:0000000000000094 .L92
     /tmp/cc0AG7Pp.s:924    .text.obqPutTimeout:000000000000003a .L106
     /tmp/cc0AG7Pp.s:935    .text.obqPutTimeout:0000000000000064 .L108
     /tmp/cc0AG7Pp.s:919    .text.obqPutTimeout:0000000000000032 .L105
     /tmp/cc0AG7Pp.s:964    .text.obqWriteTimeout:000000000000001c .L112
     /tmp/cc0AG7Pp.s:983    .text.obqWriteTimeout:0000000000000054 .L113
     /tmp/cc0AG7Pp.s:1010   .text.obqWriteTimeout:00000000000000b4 .L114
     /tmp/cc0AG7Pp.s:1015   .text.obqWriteTimeout:00000000000000c2 .L126
     /tmp/cc0AG7Pp.s:990    .text.obqWriteTimeout:000000000000006c .L118
     /tmp/cc0AG7Pp.s:1023   .text.obqWriteTimeout:00000000000000d0 .L119
     /tmp/cc0AG7Pp.s:1005   .text.obqWriteTimeout:00000000000000a4 .L121
     /tmp/cc0AG7Pp.s:1017   .text.obqWriteTimeout:00000000000000c6 .L111
     /tmp/cc0AG7Pp.s:972    .text.obqWriteTimeout:0000000000000034 .L122
     /tmp/cc0AG7Pp.s:979    .text.obqWriteTimeout:000000000000004a .L116
     /tmp/cc0AG7Pp.s:999    .text.obqWriteTimeout:000000000000008c .L120
     /tmp/cc0AG7Pp.s:1053   .text.obqTryFlushI:000000000000001c .L135
     /tmp/cc0AG7Pp.s:1056   .text.obqTryFlushI:0000000000000022 .L129
     /tmp/cc0AG7Pp.s:1080   .text.obqTryFlushI:0000000000000084 .L134
     /tmp/cc0AG7Pp.s:1077   .text.obqTryFlushI:000000000000007c .L130
     /tmp/cc0AG7Pp.s:1111   .text.obqFlush:0000000000000030 .L137

UNDEFINED SYMBOLS
__mulsi2_f5
chSysHalt
osalThreadDequeueAllI
osalThreadDequeueNextI
chSemWaitTimeoutS
nil
memcpy
