GAS LISTING /tmp/ccq33cex.s 			page 1


   1               		.file	"hal_uart.c"
   2               		.section	.text.port_lock,"ax",@progbits
   3               		.balign 2
   4               		.type	port_lock, @function
   5               	port_lock:
   6               	; start of function
   7               	; framesize_regs:     0
   8               	; framesize_locals:   0
   9               	; framesize_outgoing: 0
  10               	; framesize:          0
  11               	; elim ap -> fp       4
  12               	; elim fp -> sp       0
  13               	; saved regs:(none)
  14               		; start of prologue
  15               		; end of prologue
  16               	 ; 347 "../ChibiOS-Contrib/os/common/ports/MSP430X/chcore.h" 1
  17 0000 32C2 0343 		dint { nop
  18               	 ; 0 "" 2
  19               	 ; 348 "../ChibiOS-Contrib/os/common/ports/MSP430X/chcore.h" 1
  20 0004 0343      		nop
  21               	 ; 0 "" 2
  22               		; start of epilogue
  23 0006 1001      		RETA
  24               		.size	port_lock, .-port_lock
  25               		.section	.text.port_unlock,"ax",@progbits
  26               		.balign 2
  27               		.type	port_unlock, @function
  28               	port_unlock:
  29               	; start of function
  30               	; framesize_regs:     0
  31               	; framesize_locals:   0
  32               	; framesize_outgoing: 0
  33               	; framesize:          0
  34               	; elim ap -> fp       4
  35               	; elim fp -> sp       0
  36               	; saved regs:(none)
  37               		; start of prologue
  38               		; end of prologue
  39               	 ; 355 "../ChibiOS-Contrib/os/common/ports/MSP430X/chcore.h" 1
  40 0000 0343      		nop
  41               	 ; 0 "" 2
  42               	 ; 356 "../ChibiOS-Contrib/os/common/ports/MSP430X/chcore.h" 1
  43 0002 0343 32D2 		nop { eint { nop
  43      0343 
  44               	 ; 0 "" 2
  45               		; start of epilogue
  46 0008 1001      		RETA
  47               		.size	port_unlock, .-port_unlock
  48               		.section	.text.uartInit,"ax",@progbits
  49               		.balign 2
  50               		.global	uartInit
  51               		.type	uartInit, @function
  52               	uartInit:
  53               	; start of function
  54               	; framesize_regs:     0
  55               	; framesize_locals:   0
  56               	; framesize_outgoing: 0
GAS LISTING /tmp/ccq33cex.s 			page 2


  57               	; framesize:          0
  58               	; elim ap -> fp       4
  59               	; elim fp -> sp       0
  60               	; saved regs:(none)
  61               		; start of prologue
  62               		; end of prologue
  63 0000 B013 0000 		CALLA	#uart_lld_init
  64               		; start of epilogue
  65 0004 1001      		RETA
  66               		.size	uartInit, .-uartInit
  67               		.section	.text.uartObjectInit,"ax",@progbits
  68               		.balign 2
  69               		.global	uartObjectInit
  70               		.type	uartObjectInit, @function
  71               	uartObjectInit:
  72               	; start of function
  73               	; framesize_regs:     0
  74               	; framesize_locals:   0
  75               	; framesize_outgoing: 0
  76               	; framesize:          0
  77               	; elim ap -> fp       4
  78               	; elim fp -> sp       0
  79               	; saved regs:(none)
  80               		; start of prologue
  81               		; end of prologue
  82 0000 DC43 0000 		MOV.B	#1, @R12
  83 0004 CC43 0100 		MOV.B	#0, 1(R12)
  84 0008 CC43 0200 		MOV.B	#0, 2(R12)
  85 000c 0018 CC43 		MOVX.A	#0, 4(R12)
  85      0400 
  86 0012 CC43 0800 		MOV.B	#0, 8(R12)
  87 0016 0018 CC43 		MOVX.A	#0, 10(R12)
  87      0A00 
  88 001c 0018 CC43 		MOVX.A	#0, 14(R12)
  88      0E00 
  89               		; start of epilogue
  90 0022 1001      		RETA
  91               		.size	uartObjectInit, .-uartObjectInit
  92               		.section	.text.uartStart,"ax",@progbits
  93               		.balign 2
  94               		.global	uartStart
  95               		.type	uartStart, @function
  96               	uartStart:
  97               	; start of function
  98               	; framesize_regs:     8
  99               	; framesize_locals:   0
 100               	; framesize_outgoing: 0
 101               	; framesize:          8
 102               	; elim ap -> fp       12
 103               	; elim fp -> sp       0
 104               	; saved regs: R8 R10
 105               		; start of prologue
 106 0000 0A14      		PUSHM.A	#1, R10
 107 0002 0814      		PUSHM.A	#1, R8
 108               		; end of prologue
 109 0004 CA0C      		MOVA	R12, R10
 110 0006 C80D      		MOVA	R13, R8
GAS LISTING /tmp/ccq33cex.s 			page 3


 111 0008 9C00 0000 		CMPA	#0, R12 { JEQ	.L6
 111      0024 
 112 000e 9D00 0000 		CMPA	#0, R13 { JNE	.L7
 112      0020 
 113               	.L6:
 114 0014 8C00 0000 		MOVA	#__func__.3703, R12
 115 0018 B013 0000 		CALLA	#chSysHalt
 116               	.L7:
 117 001c B013 0000 		CALLA	#port_lock
 118 0020 6C4A      		MOV.B	@R10, R12
 119 0022 7C53      		ADD.B	#-1, R12
 120 0024 5D43      		MOV.B	#1, R13
 121 0026 4D9C 002C 		CMP.B	R12, R13 { JHS	.L8
 122 002a 8C00 0000 		MOVA	#__func__.3703, R12
 123 002e B013 0000 		CALLA	#chSysHalt
 124               	.L8:
 125 0032 7A08 0400 		MOVA	R8, 4(R10)
 126 0036 CC0A      		MOVA	R10, R12
 127 0038 B013 0000 		CALLA	#uart_lld_start
 128 003c EA43 0000 		MOV.B	#2, @R10
 129 0040 B013 0000 		CALLA	#port_unlock
 130               		; start of epilogue
 131 0044 0816      		POPM.A	#1, r8
 132 0046 0A16      		POPM.A	#1, r10
 133 0048 1001      		RETA
 134               		.size	uartStart, .-uartStart
 135               		.section	.text.uartStop,"ax",@progbits
 136               		.balign 2
 137               		.global	uartStop
 138               		.type	uartStop, @function
 139               	uartStop:
 140               	; start of function
 141               	; framesize_regs:     4
 142               	; framesize_locals:   0
 143               	; framesize_outgoing: 0
 144               	; framesize:          4
 145               	; elim ap -> fp       8
 146               	; elim fp -> sp       0
 147               	; saved regs: R10
 148               		; start of prologue
 149 0000 0A14      		PUSHM.A	#1, R10
 150               		; end of prologue
 151 0002 CA0C      		MOVA	R12, R10
 152 0004 9C00 0000 		CMPA	#0, R12 { JNE	.L13
 152      0020 
 153 000a 8C00 0000 		MOVA	#__func__.3707, R12
 154 000e B013 0000 		CALLA	#chSysHalt
 155               	.L13:
 156 0012 B013 0000 		CALLA	#port_lock
 157 0016 6C4A      		MOV.B	@R10, R12
 158 0018 7C53      		ADD.B	#-1, R12
 159 001a 5D43      		MOV.B	#1, R13
 160 001c 4D9C 002C 		CMP.B	R12, R13 { JHS	.L14
 161 0020 8C00 0000 		MOVA	#__func__.3707, R12
 162 0024 B013 0000 		CALLA	#chSysHalt
 163               	.L14:
 164 0028 CC0A      		MOVA	R10, R12
GAS LISTING /tmp/ccq33cex.s 			page 4


 165 002a B013 0000 		CALLA	#uart_lld_stop
 166 002e 0018 CA43 		MOVX.A	#0, 4(R10)
 166      0400 
 167 0034 DA43 0000 		MOV.B	#1, @R10
 168 0038 CA43 0100 		MOV.B	#0, 1(R10)
 169 003c CA43 0200 		MOV.B	#0, 2(R10)
 170 0040 B013 0000 		CALLA	#port_unlock
 171               		; start of epilogue
 172 0044 0A16      		POPM.A	#1, r10
 173 0046 1001      		RETA
 174               		.size	uartStop, .-uartStop
 175               		.section	.text.uartStartSend,"ax",@progbits
 176               		.balign 2
 177               		.global	uartStartSend
 178               		.type	uartStartSend, @function
 179               	uartStartSend:
 180               	; start of function
 181               	; framesize_regs:     12
 182               	; framesize_locals:   0
 183               	; framesize_outgoing: 0
 184               	; framesize:          12
 185               	; elim ap -> fp       16
 186               	; elim fp -> sp       0
 187               	; saved regs: R6 R8 R10
 188               		; start of prologue
 189 0000 0A14      		PUSHM.A	#1, R10
 190 0002 0814      		PUSHM.A	#1, R8
 191 0004 0614      		PUSHM.A	#1, R6
 192               		; end of prologue
 193 0006 CA0C      		MOVA	R12, R10
 194 0008 C60D      		MOVA	R13, R6
 195 000a C80E      		MOVA	R14, R8
 196 000c 9C00 0000 		CMPA	#0, R12 { JEQ	.L16
 196      0024 
 197 0012 9D00 0000 		CMPA	#0, R13 { JEQ	.L16
 197      0024 
 198 0018 9E00 0000 		CMPA	#0, R14 { JNE	.L17
 198      0020 
 199               	.L16:
 200 001e 8C00 0000 		MOVA	#__func__.3713, R12
 201 0022 B013 0000 		CALLA	#chSysHalt
 202               	.L17:
 203 0026 B013 0000 		CALLA	#port_lock
 204 002a EA93 0000 		CMP.B	#2, @R10 { JEQ	.L18
 204      0024 
 205 0030 8C00 0000 		MOVA	#__func__.3713, R12
 206 0034 B013 0000 		CALLA	#chSysHalt
 207               	.L18:
 208 0038 DA93 0100 		CMP.B	#1, 1(R10) { JNE	.L19
 208      0020 
 209 003e 8C00 0000 		MOVA	#__func__.3713, R12
 210 0042 B013 0000 		CALLA	#chSysHalt
 211               	.L19:
 212 0046 CE08      		MOVA	R8, R14
 213 0048 CD06      		MOVA	R6, R13
 214 004a CC0A      		MOVA	R10, R12
 215 004c B013 0000 		CALLA	#uart_lld_start_send
GAS LISTING /tmp/ccq33cex.s 			page 5


 216 0050 DA43 0100 		MOV.B	#1, 1(R10)
 217 0054 B013 0000 		CALLA	#port_unlock
 218               		; start of epilogue
 219 0058 0616      		POPM.A	#1, r6
 220 005a 0816      		POPM.A	#1, r8
 221 005c 0A16      		POPM.A	#1, r10
 222 005e 1001      		RETA
 223               		.size	uartStartSend, .-uartStartSend
 224               		.section	.text.uartStartSendI,"ax",@progbits
 225               		.balign 2
 226               		.global	uartStartSendI
 227               		.type	uartStartSendI, @function
 228               	uartStartSendI:
 229               	; start of function
 230               	; framesize_regs:     12
 231               	; framesize_locals:   0
 232               	; framesize_outgoing: 0
 233               	; framesize:          12
 234               	; elim ap -> fp       16
 235               	; elim fp -> sp       0
 236               	; saved regs: R6 R8 R10
 237               		; start of prologue
 238 0000 0A14      		PUSHM.A	#1, R10
 239 0002 0814      		PUSHM.A	#1, R8
 240 0004 0614      		PUSHM.A	#1, R6
 241               		; end of prologue
 242 0006 CA0C      		MOVA	R12, R10
 243 0008 C60D      		MOVA	R13, R6
 244 000a C80E      		MOVA	R14, R8
 245 000c 9C00 0000 		CMPA	#0, R12 { JEQ	.L26
 245      0024 
 246 0012 9D00 0000 		CMPA	#0, R13 { JEQ	.L26
 246      0024 
 247 0018 9E00 0000 		CMPA	#0, R14 { JNE	.L27
 247      0020 
 248               	.L26:
 249 001e 8C00 0000 		MOVA	#__func__.3719, R12
 250 0022 B013 0000 		CALLA	#chSysHalt
 251               	.L27:
 252 0026 EA93 0000 		CMP.B	#2, @R10 { JEQ	.L28
 252      0024 
 253 002c 8C00 0000 		MOVA	#__func__.3719, R12
 254 0030 B013 0000 		CALLA	#chSysHalt
 255               	.L28:
 256 0034 DA93 0100 		CMP.B	#1, 1(R10) { JNE	.L29
 256      0020 
 257 003a 8C00 0000 		MOVA	#__func__.3719, R12
 258 003e B013 0000 		CALLA	#chSysHalt
 259               	.L29:
 260 0042 CE08      		MOVA	R8, R14
 261 0044 CD06      		MOVA	R6, R13
 262 0046 CC0A      		MOVA	R10, R12
 263 0048 B013 0000 		CALLA	#uart_lld_start_send
 264 004c DA43 0100 		MOV.B	#1, 1(R10)
 265               		; start of epilogue
 266 0050 0616      		POPM.A	#1, r6
 267 0052 0816      		POPM.A	#1, r8
GAS LISTING /tmp/ccq33cex.s 			page 6


 268 0054 0A16      		POPM.A	#1, r10
 269 0056 1001      		RETA
 270               		.size	uartStartSendI, .-uartStartSendI
 271               		.section	.text.uartStopSend,"ax",@progbits
 272               		.balign 2
 273               		.global	uartStopSend
 274               		.type	uartStopSend, @function
 275               	uartStopSend:
 276               	; start of function
 277               	; framesize_regs:     4
 278               	; framesize_locals:   4
 279               	; framesize_outgoing: 0
 280               	; framesize:          8
 281               	; elim ap -> fp       8
 282               	; elim fp -> sp       4
 283               	; saved regs: R10
 284               		; start of prologue
 285 0000 0A14      		PUSHM.A	#1, R10
 286 0002 B100 0400 		SUBA	#4, R1
 287               		; end of prologue
 288 0006 CA0C      		MOVA	R12, R10
 289 0008 9C00 0000 		CMPA	#0, R12 { JNE	.L36
 289      0020 
 290 000e 8C00 0000 		MOVA	#__func__.3724, R12
 291 0012 B013 0000 		CALLA	#chSysHalt
 292               	.L36:
 293 0016 B013 0000 		CALLA	#port_lock
 294 001a EA93 0000 		CMP.B	#2, @R10 { JEQ	.L37
 294      0024 
 295 0020 8C00 0000 		MOVA	#__func__.3724, R12
 296 0024 B013 0000 		CALLA	#chSysHalt
 297               	.L37:
 298 0028 DA93 0100 		CMP.B	#1, 1(R10) { JNE	.L39
 298      0020 
 299 002e CC0A      		MOVA	R10, R12
 300 0030 B013 0000 		CALLA	#uart_lld_stop_send
 301 0034 CA43 0100 		MOV.B	#0, 1(R10)
 302               	.L38:
 303 0038 710C 0000 		MOVA	R12, @R1
 304 003c B013 0000 		CALLA	#port_unlock
 305 0040 0C01      		MOVA	@R1, R12
 306               		; start of epilogue
 307 0042 A100 0400 		ADDA	#4, R1
 308 0046 0A16      		POPM.A	#1, r10
 309 0048 1001      		RETA
 310               	.L39:
 311 004a 4C43      		MOV.B	#0, R12
 312 004c 8000 0000 		BRA	#.L38
 313               		.size	uartStopSend, .-uartStopSend
 314               		.section	.text.uartStopSendI,"ax",@progbits
 315               		.balign 2
 316               		.global	uartStopSendI
 317               		.type	uartStopSendI, @function
 318               	uartStopSendI:
 319               	; start of function
 320               	; framesize_regs:     4
 321               	; framesize_locals:   0
GAS LISTING /tmp/ccq33cex.s 			page 7


 322               	; framesize_outgoing: 0
 323               	; framesize:          4
 324               	; elim ap -> fp       8
 325               	; elim fp -> sp       0
 326               	; saved regs: R10
 327               		; start of prologue
 328 0000 0A14      		PUSHM.A	#1, R10
 329               		; end of prologue
 330 0002 CA0C      		MOVA	R12, R10
 331 0004 9C00 0000 		CMPA	#0, R12 { JNE	.L41
 331      0020 
 332 000a 8C00 0000 		MOVA	#__func__.3728, R12
 333 000e B013 0000 		CALLA	#chSysHalt
 334               	.L41:
 335 0012 EA93 0000 		CMP.B	#2, @R10 { JEQ	.L42
 335      0024 
 336 0018 8C00 0000 		MOVA	#__func__.3728, R12
 337 001c B013 0000 		CALLA	#chSysHalt
 338               	.L42:
 339 0020 DA93 0100 		CMP.B	#1, 1(R10) { JNE	.L44
 339      0020 
 340 0026 CC0A      		MOVA	R10, R12
 341 0028 B013 0000 		CALLA	#uart_lld_stop_send
 342 002c CA43 0100 		MOV.B	#0, 1(R10)
 343               	.L40:
 344               		; start of epilogue
 345 0030 0A16      		POPM.A	#1, r10
 346 0032 1001      		RETA
 347               	.L44:
 348 0034 4C43      		MOV.B	#0, R12
 349 0036 8000 0000 		BRA	#.L40
 350               		.size	uartStopSendI, .-uartStopSendI
 351               		.section	.text.uartStartReceive,"ax",@progbits
 352               		.balign 2
 353               		.global	uartStartReceive
 354               		.type	uartStartReceive, @function
 355               	uartStartReceive:
 356               	; start of function
 357               	; framesize_regs:     12
 358               	; framesize_locals:   0
 359               	; framesize_outgoing: 0
 360               	; framesize:          12
 361               	; elim ap -> fp       16
 362               	; elim fp -> sp       0
 363               	; saved regs: R6 R8 R10
 364               		; start of prologue
 365 0000 0A14      		PUSHM.A	#1, R10
 366 0002 0814      		PUSHM.A	#1, R8
 367 0004 0614      		PUSHM.A	#1, R6
 368               		; end of prologue
 369 0006 CA0C      		MOVA	R12, R10
 370 0008 C60D      		MOVA	R13, R6
 371 000a C80E      		MOVA	R14, R8
 372 000c 9C00 0000 		CMPA	#0, R12 { JEQ	.L46
 372      0024 
 373 0012 9D00 0000 		CMPA	#0, R13 { JEQ	.L46
 373      0024 
GAS LISTING /tmp/ccq33cex.s 			page 8


 374 0018 9E00 0000 		CMPA	#0, R14 { JNE	.L47
 374      0020 
 375               	.L46:
 376 001e 8C00 0000 		MOVA	#__func__.3735, R12
 377 0022 B013 0000 		CALLA	#chSysHalt
 378               	.L47:
 379 0026 B013 0000 		CALLA	#port_lock
 380 002a EA93 0000 		CMP.B	#2, @R10 { JEQ	.L48
 380      0024 
 381 0030 8C00 0000 		MOVA	#__func__.3735, R12
 382 0034 B013 0000 		CALLA	#chSysHalt
 383               	.L48:
 384 0038 DA93 0200 		CMP.B	#1, 2(R10) { JNE	.L49
 384      0020 
 385 003e 8C00 0000 		MOVA	#__func__.3735, R12
 386 0042 B013 0000 		CALLA	#chSysHalt
 387               	.L49:
 388 0046 CE08      		MOVA	R8, R14
 389 0048 CD06      		MOVA	R6, R13
 390 004a CC0A      		MOVA	R10, R12
 391 004c B013 0000 		CALLA	#uart_lld_start_receive
 392 0050 DA43 0200 		MOV.B	#1, 2(R10)
 393 0054 B013 0000 		CALLA	#port_unlock
 394               		; start of epilogue
 395 0058 0616      		POPM.A	#1, r6
 396 005a 0816      		POPM.A	#1, r8
 397 005c 0A16      		POPM.A	#1, r10
 398 005e 1001      		RETA
 399               		.size	uartStartReceive, .-uartStartReceive
 400               		.section	.text.uartStartReceiveI,"ax",@progbits
 401               		.balign 2
 402               		.global	uartStartReceiveI
 403               		.type	uartStartReceiveI, @function
 404               	uartStartReceiveI:
 405               	; start of function
 406               	; framesize_regs:     12
 407               	; framesize_locals:   0
 408               	; framesize_outgoing: 0
 409               	; framesize:          12
 410               	; elim ap -> fp       16
 411               	; elim fp -> sp       0
 412               	; saved regs: R6 R8 R10
 413               		; start of prologue
 414 0000 0A14      		PUSHM.A	#1, R10
 415 0002 0814      		PUSHM.A	#1, R8
 416 0004 0614      		PUSHM.A	#1, R6
 417               		; end of prologue
 418 0006 CA0C      		MOVA	R12, R10
 419 0008 C60D      		MOVA	R13, R6
 420 000a C80E      		MOVA	R14, R8
 421 000c 9C00 0000 		CMPA	#0, R12 { JEQ	.L56
 421      0024 
 422 0012 9D00 0000 		CMPA	#0, R13 { JEQ	.L56
 422      0024 
 423 0018 9E00 0000 		CMPA	#0, R14 { JNE	.L57
 423      0020 
 424               	.L56:
GAS LISTING /tmp/ccq33cex.s 			page 9


 425 001e 8C00 0000 		MOVA	#__func__.3741, R12
 426 0022 B013 0000 		CALLA	#chSysHalt
 427               	.L57:
 428 0026 EA93 0000 		CMP.B	#2, @R10 { JEQ	.L58
 428      0024 
 429 002c 8C00 0000 		MOVA	#__func__.3741, R12
 430 0030 B013 0000 		CALLA	#chSysHalt
 431               	.L58:
 432 0034 DA93 0200 		CMP.B	#1, 2(R10) { JNE	.L59
 432      0020 
 433 003a 8C00 0000 		MOVA	#__func__.3741, R12
 434 003e B013 0000 		CALLA	#chSysHalt
 435               	.L59:
 436 0042 CE08      		MOVA	R8, R14
 437 0044 CD06      		MOVA	R6, R13
 438 0046 CC0A      		MOVA	R10, R12
 439 0048 B013 0000 		CALLA	#uart_lld_start_receive
 440 004c DA43 0200 		MOV.B	#1, 2(R10)
 441               		; start of epilogue
 442 0050 0616      		POPM.A	#1, r6
 443 0052 0816      		POPM.A	#1, r8
 444 0054 0A16      		POPM.A	#1, r10
 445 0056 1001      		RETA
 446               		.size	uartStartReceiveI, .-uartStartReceiveI
 447               		.section	.text.uartStopReceive,"ax",@progbits
 448               		.balign 2
 449               		.global	uartStopReceive
 450               		.type	uartStopReceive, @function
 451               	uartStopReceive:
 452               	; start of function
 453               	; framesize_regs:     4
 454               	; framesize_locals:   4
 455               	; framesize_outgoing: 0
 456               	; framesize:          8
 457               	; elim ap -> fp       8
 458               	; elim fp -> sp       4
 459               	; saved regs: R10
 460               		; start of prologue
 461 0000 0A14      		PUSHM.A	#1, R10
 462 0002 B100 0400 		SUBA	#4, R1
 463               		; end of prologue
 464 0006 CA0C      		MOVA	R12, R10
 465 0008 9C00 0000 		CMPA	#0, R12 { JNE	.L66
 465      0020 
 466 000e 8C00 0000 		MOVA	#__func__.3746, R12
 467 0012 B013 0000 		CALLA	#chSysHalt
 468               	.L66:
 469 0016 B013 0000 		CALLA	#port_lock
 470 001a EA93 0000 		CMP.B	#2, @R10 { JEQ	.L67
 470      0024 
 471 0020 8C00 0000 		MOVA	#__func__.3746, R12
 472 0024 B013 0000 		CALLA	#chSysHalt
 473               	.L67:
 474 0028 DA93 0200 		CMP.B	#1, 2(R10) { JNE	.L69
 474      0020 
 475 002e CC0A      		MOVA	R10, R12
 476 0030 B013 0000 		CALLA	#uart_lld_stop_receive
GAS LISTING /tmp/ccq33cex.s 			page 10


 477 0034 CA43 0200 		MOV.B	#0, 2(R10)
 478               	.L68:
 479 0038 710C 0000 		MOVA	R12, @R1
 480 003c B013 0000 		CALLA	#port_unlock
 481 0040 0C01      		MOVA	@R1, R12
 482               		; start of epilogue
 483 0042 A100 0400 		ADDA	#4, R1
 484 0046 0A16      		POPM.A	#1, r10
 485 0048 1001      		RETA
 486               	.L69:
 487 004a 4C43      		MOV.B	#0, R12
 488 004c 8000 0000 		BRA	#.L68
 489               		.size	uartStopReceive, .-uartStopReceive
 490               		.section	.text.uartStopReceiveI,"ax",@progbits
 491               		.balign 2
 492               		.global	uartStopReceiveI
 493               		.type	uartStopReceiveI, @function
 494               	uartStopReceiveI:
 495               	; start of function
 496               	; framesize_regs:     4
 497               	; framesize_locals:   0
 498               	; framesize_outgoing: 0
 499               	; framesize:          4
 500               	; elim ap -> fp       8
 501               	; elim fp -> sp       0
 502               	; saved regs: R10
 503               		; start of prologue
 504 0000 0A14      		PUSHM.A	#1, R10
 505               		; end of prologue
 506 0002 CA0C      		MOVA	R12, R10
 507 0004 9C00 0000 		CMPA	#0, R12 { JNE	.L71
 507      0020 
 508 000a 8C00 0000 		MOVA	#__func__.3750, R12
 509 000e B013 0000 		CALLA	#chSysHalt
 510               	.L71:
 511 0012 EA93 0000 		CMP.B	#2, @R10 { JEQ	.L72
 511      0024 
 512 0018 8C00 0000 		MOVA	#__func__.3750, R12
 513 001c B013 0000 		CALLA	#chSysHalt
 514               	.L72:
 515 0020 DA93 0200 		CMP.B	#1, 2(R10) { JNE	.L74
 515      0020 
 516 0026 CC0A      		MOVA	R10, R12
 517 0028 B013 0000 		CALLA	#uart_lld_stop_receive
 518 002c CA43 0200 		MOV.B	#0, 2(R10)
 519               	.L70:
 520               		; start of epilogue
 521 0030 0A16      		POPM.A	#1, r10
 522 0032 1001      		RETA
 523               	.L74:
 524 0034 4C43      		MOV.B	#0, R12
 525 0036 8000 0000 		BRA	#.L70
 526               		.size	uartStopReceiveI, .-uartStopReceiveI
 527               		.section	.text.uartSendTimeout,"ax",@progbits
 528               		.balign 2
 529               		.global	uartSendTimeout
 530               		.type	uartSendTimeout, @function
GAS LISTING /tmp/ccq33cex.s 			page 11


 531               	uartSendTimeout:
 532               	; start of function
 533               	; framesize_regs:     16
 534               	; framesize_locals:   0
 535               	; framesize_outgoing: 0
 536               	; framesize:          16
 537               	; elim ap -> fp       20
 538               	; elim fp -> sp       0
 539               	; saved regs: R6 R8 R9 R10
 540               		; start of prologue
 541 0000 2A14      		PUSHM.A	#3, R10
 542 0002 0614      		PUSHM.A	#1, R6
 543               		; end of prologue
 544 0004 CA0C      		MOVA	R12, R10
 545 0006 C60D      		MOVA	R13, R6
 546 0008 C80E      		MOVA	R14, R8
 547 000a 094F      		MOV.W	R15, R9
 548 000c 9C00 0000 		CMPA	#0, R12 { JEQ	.L76
 548      0024 
 549 0012 0018 CD93 		CMPX.A	#0, @R13 { JEQ	.L76
 549      0000 0024 
 550 001a 9E00 0000 		CMPA	#0, R14 { JNE	.L77
 550      0020 
 551               	.L76:
 552 0020 8C00 0000 		MOVA	#__func__.3759, R12
 553 0024 B013 0000 		CALLA	#chSysHalt
 554               	.L77:
 555 0028 B013 0000 		CALLA	#port_lock
 556 002c EA93 0000 		CMP.B	#2, @R10 { JEQ	.L78
 556      0024 
 557 0032 8C00 0000 		MOVA	#__func__.3759, R12
 558 0036 B013 0000 		CALLA	#chSysHalt
 559               	.L78:
 560 003a DA93 0100 		CMP.B	#1, 1(R10) { JNE	.L79
 560      0020 
 561 0040 8C00 0000 		MOVA	#__func__.3759, R12
 562 0044 B013 0000 		CALLA	#chSysHalt
 563               	.L79:
 564 0048 DA43 0800 		MOV.B	#1, 8(R10)
 565 004c CE08      		MOVA	R8, R14
 566 004e 0D06      		MOVA	@R6, R13
 567 0050 CC0A      		MOVA	R10, R12
 568 0052 B013 0000 		CALLA	#uart_lld_start_send
 569 0056 DA43 0100 		MOV.B	#1, 1(R10)
 570 005a 0D49      		MOV.W	R9, R13
 571 005c CC0A      		MOVA	R10, R12
 572 005e AC00 0E00 		ADDA	#14, R12
 573 0062 B013 0000 		CALLA	#chThdSuspendTimeoutS
 574 0066 C80C      		MOVA	R12, R8
 575 0068 9C00 0000 		CMPA	#0, R12 { JEQ	.L80
 575      0024 
 576 006e CC0A      		MOVA	R10, R12
 577 0070 B013 0000 		CALLA	#uartStopSendI
 578 0074 760C 0000 		MOVA	R12, @R6
 579               	.L80:
 580 0078 B013 0000 		CALLA	#port_unlock
 581 007c CC08      		MOVA	R8, R12
GAS LISTING /tmp/ccq33cex.s 			page 12


 582               		; start of epilogue
 583 007e 0616      		POPM.A	#1, r6
 584 0080 2816      		POPM.A	#3, r10
 585 0082 1001      		RETA
 586               		.size	uartSendTimeout, .-uartSendTimeout
 587               		.section	.text.uartSendFullTimeout,"ax",@progbits
 588               		.balign 2
 589               		.global	uartSendFullTimeout
 590               		.type	uartSendFullTimeout, @function
 591               	uartSendFullTimeout:
 592               	; start of function
 593               	; framesize_regs:     16
 594               	; framesize_locals:   0
 595               	; framesize_outgoing: 0
 596               	; framesize:          16
 597               	; elim ap -> fp       20
 598               	; elim fp -> sp       0
 599               	; saved regs: R6 R8 R9 R10
 600               		; start of prologue
 601 0000 2A14      		PUSHM.A	#3, R10
 602 0002 0614      		PUSHM.A	#1, R6
 603               		; end of prologue
 604 0004 CA0C      		MOVA	R12, R10
 605 0006 C60D      		MOVA	R13, R6
 606 0008 C80E      		MOVA	R14, R8
 607 000a 094F      		MOV.W	R15, R9
 608 000c 9C00 0000 		CMPA	#0, R12 { JEQ	.L88
 608      0024 
 609 0012 0018 CD93 		CMPX.A	#0, @R13 { JEQ	.L88
 609      0000 0024 
 610 001a 9E00 0000 		CMPA	#0, R14 { JNE	.L89
 610      0020 
 611               	.L88:
 612 0020 8C00 0000 		MOVA	#__func__.3767, R12
 613 0024 B013 0000 		CALLA	#chSysHalt
 614               	.L89:
 615 0028 B013 0000 		CALLA	#port_lock
 616 002c EA93 0000 		CMP.B	#2, @R10 { JEQ	.L90
 616      0024 
 617 0032 8C00 0000 		MOVA	#__func__.3767, R12
 618 0036 B013 0000 		CALLA	#chSysHalt
 619               	.L90:
 620 003a DA93 0100 		CMP.B	#1, 1(R10) { JNE	.L91
 620      0020 
 621 0040 8C00 0000 		MOVA	#__func__.3767, R12
 622 0044 B013 0000 		CALLA	#chSysHalt
 623               	.L91:
 624 0048 CA43 0800 		MOV.B	#0, 8(R10)
 625 004c CE08      		MOVA	R8, R14
 626 004e 0D06      		MOVA	@R6, R13
 627 0050 CC0A      		MOVA	R10, R12
 628 0052 B013 0000 		CALLA	#uart_lld_start_send
 629 0056 DA43 0100 		MOV.B	#1, 1(R10)
 630 005a 0D49      		MOV.W	R9, R13
 631 005c CC0A      		MOVA	R10, R12
 632 005e AC00 0E00 		ADDA	#14, R12
 633 0062 B013 0000 		CALLA	#chThdSuspendTimeoutS
GAS LISTING /tmp/ccq33cex.s 			page 13


 634 0066 C80C      		MOVA	R12, R8
 635 0068 9C00 0000 		CMPA	#0, R12 { JEQ	.L92
 635      0024 
 636 006e CC0A      		MOVA	R10, R12
 637 0070 B013 0000 		CALLA	#uartStopSendI
 638 0074 760C 0000 		MOVA	R12, @R6
 639               	.L92:
 640 0078 B013 0000 		CALLA	#port_unlock
 641 007c CC08      		MOVA	R8, R12
 642               		; start of epilogue
 643 007e 0616      		POPM.A	#1, r6
 644 0080 2816      		POPM.A	#3, r10
 645 0082 1001      		RETA
 646               		.size	uartSendFullTimeout, .-uartSendFullTimeout
 647               		.section	.text.uartReceiveTimeout,"ax",@progbits
 648               		.balign 2
 649               		.global	uartReceiveTimeout
 650               		.type	uartReceiveTimeout, @function
 651               	uartReceiveTimeout:
 652               	; start of function
 653               	; framesize_regs:     16
 654               	; framesize_locals:   0
 655               	; framesize_outgoing: 0
 656               	; framesize:          16
 657               	; elim ap -> fp       20
 658               	; elim fp -> sp       0
 659               	; saved regs: R6 R8 R9 R10
 660               		; start of prologue
 661 0000 2A14      		PUSHM.A	#3, R10
 662 0002 0614      		PUSHM.A	#1, R6
 663               		; end of prologue
 664 0004 CA0C      		MOVA	R12, R10
 665 0006 C60D      		MOVA	R13, R6
 666 0008 C80E      		MOVA	R14, R8
 667 000a 094F      		MOV.W	R15, R9
 668 000c 9C00 0000 		CMPA	#0, R12 { JEQ	.L100
 668      0024 
 669 0012 0018 CD93 		CMPX.A	#0, @R13 { JEQ	.L100
 669      0000 0024 
 670 001a 9E00 0000 		CMPA	#0, R14 { JNE	.L101
 670      0020 
 671               	.L100:
 672 0020 8C00 0000 		MOVA	#__func__.3775, R12
 673 0024 B013 0000 		CALLA	#chSysHalt
 674               	.L101:
 675 0028 B013 0000 		CALLA	#port_lock
 676 002c EA93 0000 		CMP.B	#2, @R10 { JEQ	.L102
 676      0024 
 677 0032 8C00 0000 		MOVA	#__func__.3775, R12
 678 0036 B013 0000 		CALLA	#chSysHalt
 679               	.L102:
 680 003a DA93 0200 		CMP.B	#1, 2(R10) { JNE	.L103
 680      0020 
 681 0040 8C00 0000 		MOVA	#__func__.3775, R12
 682 0044 B013 0000 		CALLA	#chSysHalt
 683               	.L103:
 684 0048 CE08      		MOVA	R8, R14
GAS LISTING /tmp/ccq33cex.s 			page 14


 685 004a 0D06      		MOVA	@R6, R13
 686 004c CC0A      		MOVA	R10, R12
 687 004e B013 0000 		CALLA	#uart_lld_start_receive
 688 0052 DA43 0200 		MOV.B	#1, 2(R10)
 689 0056 0D49      		MOV.W	R9, R13
 690 0058 CC0A      		MOVA	R10, R12
 691 005a AC00 0A00 		ADDA	#10, R12
 692 005e B013 0000 		CALLA	#chThdSuspendTimeoutS
 693 0062 C80C      		MOVA	R12, R8
 694 0064 9C00 0000 		CMPA	#0, R12 { JEQ	.L104
 694      0024 
 695 006a CC0A      		MOVA	R10, R12
 696 006c B013 0000 		CALLA	#uartStopReceiveI
 697 0070 760C 0000 		MOVA	R12, @R6
 698               	.L104:
 699 0074 B013 0000 		CALLA	#port_unlock
 700 0078 CC08      		MOVA	R8, R12
 701               		; start of epilogue
 702 007a 0616      		POPM.A	#1, r6
 703 007c 2816      		POPM.A	#3, r10
 704 007e 1001      		RETA
 705               		.size	uartReceiveTimeout, .-uartReceiveTimeout
 706               		.section	.upper.rodata,"a",@progbits
 707               		.type	__func__.3775, @object
 708               		.size	__func__.3775, 19
 709               	__func__.3775:
 710 0000 7561 7274 		.string	"uartReceiveTimeout"
 710      5265 6365 
 710      6976 6554 
 710      696D 656F 
 710      7574 00
 711               		.type	__func__.3767, @object
 712               		.size	__func__.3767, 20
 713               	__func__.3767:
 714 0013 7561 7274 		.string	"uartSendFullTimeout"
 714      5365 6E64 
 714      4675 6C6C 
 714      5469 6D65 
 714      6F75 7400 
 715               		.type	__func__.3759, @object
 716               		.size	__func__.3759, 16
 717               	__func__.3759:
 718 0027 7561 7274 		.string	"uartSendTimeout"
 718      5365 6E64 
 718      5469 6D65 
 718      6F75 7400 
 719               		.type	__func__.3750, @object
 720               		.size	__func__.3750, 17
 721               	__func__.3750:
 722 0037 7561 7274 		.string	"uartStopReceiveI"
 722      5374 6F70 
 722      5265 6365 
 722      6976 6549 
 722      00
 723               		.type	__func__.3746, @object
 724               		.size	__func__.3746, 16
 725               	__func__.3746:
GAS LISTING /tmp/ccq33cex.s 			page 15


 726 0048 7561 7274 		.string	"uartStopReceive"
 726      5374 6F70 
 726      5265 6365 
 726      6976 6500 
 727               		.type	__func__.3741, @object
 728               		.size	__func__.3741, 18
 729               	__func__.3741:
 730 0058 7561 7274 		.string	"uartStartReceiveI"
 730      5374 6172 
 730      7452 6563 
 730      6569 7665 
 730      4900 
 731               		.type	__func__.3735, @object
 732               		.size	__func__.3735, 17
 733               	__func__.3735:
 734 006a 7561 7274 		.string	"uartStartReceive"
 734      5374 6172 
 734      7452 6563 
 734      6569 7665 
 734      00
 735               		.type	__func__.3728, @object
 736               		.size	__func__.3728, 14
 737               	__func__.3728:
 738 007b 7561 7274 		.string	"uartStopSendI"
 738      5374 6F70 
 738      5365 6E64 
 738      4900 
 739               		.type	__func__.3724, @object
 740               		.size	__func__.3724, 13
 741               	__func__.3724:
 742 0089 7561 7274 		.string	"uartStopSend"
 742      5374 6F70 
 742      5365 6E64 
 742      00
 743               		.type	__func__.3719, @object
 744               		.size	__func__.3719, 15
 745               	__func__.3719:
 746 0096 7561 7274 		.string	"uartStartSendI"
 746      5374 6172 
 746      7453 656E 
 746      6449 00
 747               		.type	__func__.3713, @object
 748               		.size	__func__.3713, 14
 749               	__func__.3713:
 750 00a5 7561 7274 		.string	"uartStartSend"
 750      5374 6172 
 750      7453 656E 
 750      6400 
 751               		.type	__func__.3707, @object
 752               		.size	__func__.3707, 9
 753               	__func__.3707:
 754 00b3 7561 7274 		.string	"uartStop"
 754      5374 6F70 
 754      00
 755               		.type	__func__.3703, @object
 756               		.size	__func__.3703, 10
 757               	__func__.3703:
GAS LISTING /tmp/ccq33cex.s 			page 16


 758 00bc 7561 7274 		.string	"uartStart"
 758      5374 6172 
 758      7400 
 759               		.ident	"GCC: (SOMNIUM Technologies Limited - msp430-gcc 6.2.1.16) 6.2.1 20161212"
GAS LISTING /tmp/ccq33cex.s 			page 17


DEFINED SYMBOLS
                            *ABS*:0000000000000000 hal_uart.c
     /tmp/ccq33cex.s:5      .text.port_lock:0000000000000000 port_lock
     /tmp/ccq33cex.s:28     .text.port_unlock:0000000000000000 port_unlock
     /tmp/ccq33cex.s:52     .text.uartInit:0000000000000000 uartInit
     /tmp/ccq33cex.s:71     .text.uartObjectInit:0000000000000000 uartObjectInit
     /tmp/ccq33cex.s:96     .text.uartStart:0000000000000000 uartStart
     /tmp/ccq33cex.s:757    .upper.rodata:00000000000000bc __func__.3703
     /tmp/ccq33cex.s:139    .text.uartStop:0000000000000000 uartStop
     /tmp/ccq33cex.s:753    .upper.rodata:00000000000000b3 __func__.3707
     /tmp/ccq33cex.s:179    .text.uartStartSend:0000000000000000 uartStartSend
     /tmp/ccq33cex.s:749    .upper.rodata:00000000000000a5 __func__.3713
     /tmp/ccq33cex.s:228    .text.uartStartSendI:0000000000000000 uartStartSendI
     /tmp/ccq33cex.s:745    .upper.rodata:0000000000000096 __func__.3719
     /tmp/ccq33cex.s:275    .text.uartStopSend:0000000000000000 uartStopSend
     /tmp/ccq33cex.s:741    .upper.rodata:0000000000000089 __func__.3724
     /tmp/ccq33cex.s:318    .text.uartStopSendI:0000000000000000 uartStopSendI
     /tmp/ccq33cex.s:737    .upper.rodata:000000000000007b __func__.3728
     /tmp/ccq33cex.s:355    .text.uartStartReceive:0000000000000000 uartStartReceive
     /tmp/ccq33cex.s:733    .upper.rodata:000000000000006a __func__.3735
     /tmp/ccq33cex.s:404    .text.uartStartReceiveI:0000000000000000 uartStartReceiveI
     /tmp/ccq33cex.s:729    .upper.rodata:0000000000000058 __func__.3741
     /tmp/ccq33cex.s:451    .text.uartStopReceive:0000000000000000 uartStopReceive
     /tmp/ccq33cex.s:725    .upper.rodata:0000000000000048 __func__.3746
     /tmp/ccq33cex.s:494    .text.uartStopReceiveI:0000000000000000 uartStopReceiveI
     /tmp/ccq33cex.s:721    .upper.rodata:0000000000000037 __func__.3750
     /tmp/ccq33cex.s:531    .text.uartSendTimeout:0000000000000000 uartSendTimeout
     /tmp/ccq33cex.s:717    .upper.rodata:0000000000000027 __func__.3759
     /tmp/ccq33cex.s:591    .text.uartSendFullTimeout:0000000000000000 uartSendFullTimeout
     /tmp/ccq33cex.s:713    .upper.rodata:0000000000000013 __func__.3767
     /tmp/ccq33cex.s:651    .text.uartReceiveTimeout:0000000000000000 uartReceiveTimeout
     /tmp/ccq33cex.s:709    .upper.rodata:0000000000000000 __func__.3775
     /tmp/ccq33cex.s:113    .text.uartStart:0000000000000014 .L6
     /tmp/ccq33cex.s:116    .text.uartStart:000000000000001c .L7
     /tmp/ccq33cex.s:124    .text.uartStart:0000000000000032 .L8
     /tmp/ccq33cex.s:155    .text.uartStop:0000000000000012 .L13
     /tmp/ccq33cex.s:163    .text.uartStop:0000000000000028 .L14
     /tmp/ccq33cex.s:199    .text.uartStartSend:000000000000001e .L16
     /tmp/ccq33cex.s:202    .text.uartStartSend:0000000000000026 .L17
     /tmp/ccq33cex.s:207    .text.uartStartSend:0000000000000038 .L18
     /tmp/ccq33cex.s:211    .text.uartStartSend:0000000000000046 .L19
     /tmp/ccq33cex.s:248    .text.uartStartSendI:000000000000001e .L26
     /tmp/ccq33cex.s:251    .text.uartStartSendI:0000000000000026 .L27
     /tmp/ccq33cex.s:255    .text.uartStartSendI:0000000000000034 .L28
     /tmp/ccq33cex.s:259    .text.uartStartSendI:0000000000000042 .L29
     /tmp/ccq33cex.s:292    .text.uartStopSend:0000000000000016 .L36
     /tmp/ccq33cex.s:297    .text.uartStopSend:0000000000000028 .L37
     /tmp/ccq33cex.s:310    .text.uartStopSend:000000000000004a .L39
     /tmp/ccq33cex.s:302    .text.uartStopSend:0000000000000038 .L38
     /tmp/ccq33cex.s:334    .text.uartStopSendI:0000000000000012 .L41
     /tmp/ccq33cex.s:338    .text.uartStopSendI:0000000000000020 .L42
     /tmp/ccq33cex.s:347    .text.uartStopSendI:0000000000000034 .L44
     /tmp/ccq33cex.s:343    .text.uartStopSendI:0000000000000030 .L40
     /tmp/ccq33cex.s:375    .text.uartStartReceive:000000000000001e .L46
     /tmp/ccq33cex.s:378    .text.uartStartReceive:0000000000000026 .L47
     /tmp/ccq33cex.s:383    .text.uartStartReceive:0000000000000038 .L48
     /tmp/ccq33cex.s:387    .text.uartStartReceive:0000000000000046 .L49
GAS LISTING /tmp/ccq33cex.s 			page 18


     /tmp/ccq33cex.s:424    .text.uartStartReceiveI:000000000000001e .L56
     /tmp/ccq33cex.s:427    .text.uartStartReceiveI:0000000000000026 .L57
     /tmp/ccq33cex.s:431    .text.uartStartReceiveI:0000000000000034 .L58
     /tmp/ccq33cex.s:435    .text.uartStartReceiveI:0000000000000042 .L59
     /tmp/ccq33cex.s:468    .text.uartStopReceive:0000000000000016 .L66
     /tmp/ccq33cex.s:473    .text.uartStopReceive:0000000000000028 .L67
     /tmp/ccq33cex.s:486    .text.uartStopReceive:000000000000004a .L69
     /tmp/ccq33cex.s:478    .text.uartStopReceive:0000000000000038 .L68
     /tmp/ccq33cex.s:510    .text.uartStopReceiveI:0000000000000012 .L71
     /tmp/ccq33cex.s:514    .text.uartStopReceiveI:0000000000000020 .L72
     /tmp/ccq33cex.s:523    .text.uartStopReceiveI:0000000000000034 .L74
     /tmp/ccq33cex.s:519    .text.uartStopReceiveI:0000000000000030 .L70
     /tmp/ccq33cex.s:551    .text.uartSendTimeout:0000000000000020 .L76
     /tmp/ccq33cex.s:554    .text.uartSendTimeout:0000000000000028 .L77
     /tmp/ccq33cex.s:559    .text.uartSendTimeout:000000000000003a .L78
     /tmp/ccq33cex.s:563    .text.uartSendTimeout:0000000000000048 .L79
     /tmp/ccq33cex.s:579    .text.uartSendTimeout:0000000000000078 .L80
     /tmp/ccq33cex.s:611    .text.uartSendFullTimeout:0000000000000020 .L88
     /tmp/ccq33cex.s:614    .text.uartSendFullTimeout:0000000000000028 .L89
     /tmp/ccq33cex.s:619    .text.uartSendFullTimeout:000000000000003a .L90
     /tmp/ccq33cex.s:623    .text.uartSendFullTimeout:0000000000000048 .L91
     /tmp/ccq33cex.s:639    .text.uartSendFullTimeout:0000000000000078 .L92
     /tmp/ccq33cex.s:671    .text.uartReceiveTimeout:0000000000000020 .L100
     /tmp/ccq33cex.s:674    .text.uartReceiveTimeout:0000000000000028 .L101
     /tmp/ccq33cex.s:679    .text.uartReceiveTimeout:000000000000003a .L102
     /tmp/ccq33cex.s:683    .text.uartReceiveTimeout:0000000000000048 .L103
     /tmp/ccq33cex.s:698    .text.uartReceiveTimeout:0000000000000074 .L104

UNDEFINED SYMBOLS
uart_lld_init
chSysHalt
uart_lld_start
uart_lld_stop
uart_lld_start_send
uart_lld_stop_send
uart_lld_start_receive
uart_lld_stop_receive
chThdSuspendTimeoutS
