GAS LISTING /tmp/cc0lIVtH.s 			page 1


   1               		.file	"hal_gpt.c"
   2               		.section	.text.port_lock,"ax",@progbits
   3               		.balign 2
   4               		.type	port_lock, @function
   5               	port_lock:
   6               	; start of function
   7               	; framesize_regs:     0
   8               	; framesize_locals:   0
   9               	; framesize_outgoing: 0
  10               	; framesize:          0
  11               	; elim ap -> fp       4
  12               	; elim fp -> sp       0
  13               	; saved regs:(none)
  14               		; start of prologue
  15               		; end of prologue
  16               	 ; 347 "../ChibiOS-Contrib/os/common/ports/MSP430X/chcore.h" 1
  17 0000 32C2 0343 		dint { nop
  18               	 ; 0 "" 2
  19               	 ; 348 "../ChibiOS-Contrib/os/common/ports/MSP430X/chcore.h" 1
  20 0004 0343      		nop
  21               	 ; 0 "" 2
  22               		; start of epilogue
  23 0006 1001      		RETA
  24               		.size	port_lock, .-port_lock
  25               		.section	.text.port_unlock,"ax",@progbits
  26               		.balign 2
  27               		.type	port_unlock, @function
  28               	port_unlock:
  29               	; start of function
  30               	; framesize_regs:     0
  31               	; framesize_locals:   0
  32               	; framesize_outgoing: 0
  33               	; framesize:          0
  34               	; elim ap -> fp       4
  35               	; elim fp -> sp       0
  36               	; saved regs:(none)
  37               		; start of prologue
  38               		; end of prologue
  39               	 ; 355 "../ChibiOS-Contrib/os/common/ports/MSP430X/chcore.h" 1
  40 0000 0343      		nop
  41               	 ; 0 "" 2
  42               	 ; 356 "../ChibiOS-Contrib/os/common/ports/MSP430X/chcore.h" 1
  43 0002 0343 32D2 		nop { eint { nop
  43      0343 
  44               	 ; 0 "" 2
  45               		; start of epilogue
  46 0008 1001      		RETA
  47               		.size	port_unlock, .-port_unlock
  48               		.section	.text.gptInit,"ax",@progbits
  49               		.balign 2
  50               		.global	gptInit
  51               		.type	gptInit, @function
  52               	gptInit:
  53               	; start of function
  54               	; framesize_regs:     0
  55               	; framesize_locals:   0
  56               	; framesize_outgoing: 0
GAS LISTING /tmp/cc0lIVtH.s 			page 2


  57               	; framesize:          0
  58               	; elim ap -> fp       4
  59               	; elim fp -> sp       0
  60               	; saved regs:(none)
  61               		; start of prologue
  62               		; end of prologue
  63 0000 B013 0000 		CALLA	#gpt_lld_init
  64               		; start of epilogue
  65 0004 1001      		RETA
  66               		.size	gptInit, .-gptInit
  67               		.section	.text.gptObjectInit,"ax",@progbits
  68               		.balign 2
  69               		.global	gptObjectInit
  70               		.type	gptObjectInit, @function
  71               	gptObjectInit:
  72               	; start of function
  73               	; framesize_regs:     0
  74               	; framesize_locals:   0
  75               	; framesize_outgoing: 0
  76               	; framesize:          0
  77               	; elim ap -> fp       4
  78               	; elim fp -> sp       0
  79               	; saved regs:(none)
  80               		; start of prologue
  81               		; end of prologue
  82 0000 DC43 0000 		MOV.B	#1, @R12
  83 0004 0018 CC43 		MOVX.A	#0, 2(R12)
  83      0200 
  84               		; start of epilogue
  85 000a 1001      		RETA
  86               		.size	gptObjectInit, .-gptObjectInit
  87               		.section	.text.gptStart,"ax",@progbits
  88               		.balign 2
  89               		.global	gptStart
  90               		.type	gptStart, @function
  91               	gptStart:
  92               	; start of function
  93               	; framesize_regs:     8
  94               	; framesize_locals:   0
  95               	; framesize_outgoing: 0
  96               	; framesize:          8
  97               	; elim ap -> fp       12
  98               	; elim fp -> sp       0
  99               	; saved regs: R8 R10
 100               		; start of prologue
 101 0000 0A14      		PUSHM.A	#1, R10
 102 0002 0814      		PUSHM.A	#1, R8
 103               		; end of prologue
 104 0004 CA0C      		MOVA	R12, R10
 105 0006 C80D      		MOVA	R13, R8
 106 0008 9C00 0000 		CMPA	#0, R12 { JEQ	.L6
 106      0024 
 107 000e 9D00 0000 		CMPA	#0, R13 { JNE	.L7
 107      0020 
 108               	.L6:
 109 0014 8C00 0000 		MOVA	#__func__.3703, R12
 110 0018 B013 0000 		CALLA	#chSysHalt
GAS LISTING /tmp/cc0lIVtH.s 			page 3


 111               	.L7:
 112 001c B013 0000 		CALLA	#port_lock
 113 0020 6C4A      		MOV.B	@R10, R12
 114 0022 7C53      		ADD.B	#-1, R12
 115 0024 5D43      		MOV.B	#1, R13
 116 0026 4D9C 002C 		CMP.B	R12, R13 { JHS	.L8
 117 002a 8C00 0000 		MOVA	#__func__.3703, R12
 118 002e B013 0000 		CALLA	#chSysHalt
 119               	.L8:
 120 0032 7A08 0200 		MOVA	R8, 2(R10)
 121 0036 CC0A      		MOVA	R10, R12
 122 0038 B013 0000 		CALLA	#gpt_lld_start
 123 003c EA43 0000 		MOV.B	#2, @R10
 124 0040 B013 0000 		CALLA	#port_unlock
 125               		; start of epilogue
 126 0044 0816      		POPM.A	#1, r8
 127 0046 0A16      		POPM.A	#1, r10
 128 0048 1001      		RETA
 129               		.size	gptStart, .-gptStart
 130               		.section	.text.gptStop,"ax",@progbits
 131               		.balign 2
 132               		.global	gptStop
 133               		.type	gptStop, @function
 134               	gptStop:
 135               	; start of function
 136               	; framesize_regs:     4
 137               	; framesize_locals:   0
 138               	; framesize_outgoing: 0
 139               	; framesize:          4
 140               	; elim ap -> fp       8
 141               	; elim fp -> sp       0
 142               	; saved regs: R10
 143               		; start of prologue
 144 0000 0A14      		PUSHM.A	#1, R10
 145               		; end of prologue
 146 0002 CA0C      		MOVA	R12, R10
 147 0004 9C00 0000 		CMPA	#0, R12 { JNE	.L13
 147      0020 
 148 000a 8C00 0000 		MOVA	#__func__.3707, R12
 149 000e B013 0000 		CALLA	#chSysHalt
 150               	.L13:
 151 0012 B013 0000 		CALLA	#port_lock
 152 0016 6C4A      		MOV.B	@R10, R12
 153 0018 7C53      		ADD.B	#-1, R12
 154 001a 5D43      		MOV.B	#1, R13
 155 001c 4D9C 002C 		CMP.B	R12, R13 { JHS	.L14
 156 0020 8C00 0000 		MOVA	#__func__.3707, R12
 157 0024 B013 0000 		CALLA	#chSysHalt
 158               	.L14:
 159 0028 CC0A      		MOVA	R10, R12
 160 002a B013 0000 		CALLA	#gpt_lld_stop
 161 002e 0018 CA43 		MOVX.A	#0, 2(R10)
 161      0200 
 162 0034 DA43 0000 		MOV.B	#1, @R10
 163 0038 B013 0000 		CALLA	#port_unlock
 164               		; start of epilogue
 165 003c 0A16      		POPM.A	#1, r10
GAS LISTING /tmp/cc0lIVtH.s 			page 4


 166 003e 1001      		RETA
 167               		.size	gptStop, .-gptStop
 168               		.section	.text.gptChangeInterval,"ax",@progbits
 169               		.balign 2
 170               		.global	gptChangeInterval
 171               		.type	gptChangeInterval, @function
 172               	gptChangeInterval:
 173               	; start of function
 174               	; framesize_regs:     4
 175               	; framesize_locals:   0
 176               	; framesize_outgoing: 0
 177               	; framesize:          4
 178               	; elim ap -> fp       8
 179               	; elim fp -> sp       0
 180               	; saved regs: R10
 181               		; start of prologue
 182 0000 0A14      		PUSHM.A	#1, R10
 183               		; end of prologue
 184 0002 CA0C      		MOVA	R12, R10
 185 0004 9C00 0000 		CMPA	#0, R12 { JNE	.L16
 185      0020 
 186 000a 8C00 0000 		MOVA	#__func__.3712, R12
 187 000e B013 0000 		CALLA	#chSysHalt
 188               	.L16:
 189 0012 B013 0000 		CALLA	#port_lock
 190 0016 FA90 0300 		CMP.B	#3, @R10 { JEQ	.L17
 190      0000 0024 
 191 001e 8C00 0000 		MOVA	#__func__.3712, R12
 192 0022 B013 0000 		CALLA	#chSysHalt
 193               	.L17:
 194 0026 B013 0000 		CALLA	#port_unlock
 195               		; start of epilogue
 196 002a 0A16      		POPM.A	#1, r10
 197 002c 1001      		RETA
 198               		.size	gptChangeInterval, .-gptChangeInterval
 199               		.section	.text.gptStartContinuousI,"ax",@progbits
 200               		.balign 2
 201               		.global	gptStartContinuousI
 202               		.type	gptStartContinuousI, @function
 203               	gptStartContinuousI:
 204               	; start of function
 205               	; framesize_regs:     8
 206               	; framesize_locals:   0
 207               	; framesize_outgoing: 0
 208               	; framesize:          8
 209               	; elim ap -> fp       12
 210               	; elim fp -> sp       0
 211               	; saved regs: R9 R10
 212               		; start of prologue
 213 0000 1A14      		PUSHM.A	#2, R10
 214               		; end of prologue
 215 0002 CA0C      		MOVA	R12, R10
 216 0004 094D      		MOV.W	R13, R9
 217 0006 9C00 0000 		CMPA	#0, R12 { JNE	.L19
 217      0020 
 218 000c 8C00 0000 		MOVA	#__func__.3721, R12
 219 0010 B013 0000 		CALLA	#chSysHalt
GAS LISTING /tmp/cc0lIVtH.s 			page 5


 220               	.L19:
 221 0014 EA93 0000 		CMP.B	#2, @R10 { JEQ	.L20
 221      0024 
 222 001a 8C00 0000 		MOVA	#__func__.3721, R12
 223 001e B013 0000 		CALLA	#chSysHalt
 224               	.L20:
 225 0022 FA40 0300 		MOV.B	#3, @R10
 225      0000 
 226 0028 0D49      		MOV.W	R9, R13
 227 002a CC0A      		MOVA	R10, R12
 228 002c B013 0000 		CALLA	#gpt_lld_start_timer
 229               		; start of epilogue
 230 0030 1916      		POPM.A	#2, r10
 231 0032 1001      		RETA
 232               		.size	gptStartContinuousI, .-gptStartContinuousI
 233               		.section	.text.gptStartContinuous,"ax",@progbits
 234               		.balign 2
 235               		.global	gptStartContinuous
 236               		.type	gptStartContinuous, @function
 237               	gptStartContinuous:
 238               	; start of function
 239               	; framesize_regs:     0
 240               	; framesize_locals:   8
 241               	; framesize_outgoing: 0
 242               	; framesize:          8
 243               	; elim ap -> fp       4
 244               	; elim fp -> sp       8
 245               	; saved regs:(none)
 246               		; start of prologue
 247 0000 B100 0800 		SUBA	#8, R1
 248               		; end of prologue
 249 0004 710C 0400 		MOVA	R12, 4(R1)
 250 0008 710D 0000 		MOVA	R13, @R1
 251 000c B013 0000 		CALLA	#port_lock
 252 0010 0D01      		MOVA	@R1, R13
 253 0012 3C01 0400 		MOVA	4(R1), R12
 254 0016 B013 0000 		CALLA	#gptStartContinuousI
 255 001a B013 0000 		CALLA	#port_unlock
 256               		; start of epilogue
 257 001e A100 0800 		ADDA	#8, R1
 258 0022 1001      		RETA
 259               		.size	gptStartContinuous, .-gptStartContinuous
 260               		.section	.text.gptStartOneShotI,"ax",@progbits
 261               		.balign 2
 262               		.global	gptStartOneShotI
 263               		.type	gptStartOneShotI, @function
 264               	gptStartOneShotI:
 265               	; start of function
 266               	; framesize_regs:     8
 267               	; framesize_locals:   0
 268               	; framesize_outgoing: 0
 269               	; framesize:          8
 270               	; elim ap -> fp       12
 271               	; elim fp -> sp       0
 272               	; saved regs: R9 R10
 273               		; start of prologue
 274 0000 1A14      		PUSHM.A	#2, R10
GAS LISTING /tmp/cc0lIVtH.s 			page 6


 275               		; end of prologue
 276 0002 CA0C      		MOVA	R12, R10
 277 0004 094D      		MOV.W	R13, R9
 278 0006 9C00 0000 		CMPA	#0, R12 { JNE	.L23
 278      0020 
 279 000c 8C00 0000 		MOVA	#__func__.3730, R12
 280 0010 B013 0000 		CALLA	#chSysHalt
 281               	.L23:
 282 0014 3C0A 0200 		MOVA	2(R10), R12
 283 0018 0018 CC93 		CMPX.A	#0, 4(R12) { JNE	.L24
 283      0400 0020 
 284 0020 8C00 0000 		MOVA	#__func__.3730, R12
 285 0024 B013 0000 		CALLA	#chSysHalt
 286               	.L24:
 287 0028 EA93 0000 		CMP.B	#2, @R10 { JEQ	.L25
 287      0024 
 288 002e 8C00 0000 		MOVA	#__func__.3730, R12
 289 0032 B013 0000 		CALLA	#chSysHalt
 290               	.L25:
 291 0036 EA42 0000 		MOV.B	#4, @R10
 292 003a 0D49      		MOV.W	R9, R13
 293 003c CC0A      		MOVA	R10, R12
 294 003e B013 0000 		CALLA	#gpt_lld_start_timer
 295               		; start of epilogue
 296 0042 1916      		POPM.A	#2, r10
 297 0044 1001      		RETA
 298               		.size	gptStartOneShotI, .-gptStartOneShotI
 299               		.section	.text.gptStartOneShot,"ax",@progbits
 300               		.balign 2
 301               		.global	gptStartOneShot
 302               		.type	gptStartOneShot, @function
 303               	gptStartOneShot:
 304               	; start of function
 305               	; framesize_regs:     0
 306               	; framesize_locals:   8
 307               	; framesize_outgoing: 0
 308               	; framesize:          8
 309               	; elim ap -> fp       4
 310               	; elim fp -> sp       8
 311               	; saved regs:(none)
 312               		; start of prologue
 313 0000 B100 0800 		SUBA	#8, R1
 314               		; end of prologue
 315 0004 710C 0400 		MOVA	R12, 4(R1)
 316 0008 710D 0000 		MOVA	R13, @R1
 317 000c B013 0000 		CALLA	#port_lock
 318 0010 0D01      		MOVA	@R1, R13
 319 0012 3C01 0400 		MOVA	4(R1), R12
 320 0016 B013 0000 		CALLA	#gptStartOneShotI
 321 001a B013 0000 		CALLA	#port_unlock
 322               		; start of epilogue
 323 001e A100 0800 		ADDA	#8, R1
 324 0022 1001      		RETA
 325               		.size	gptStartOneShot, .-gptStartOneShot
 326               		.section	.text.gptStopTimerI,"ax",@progbits
 327               		.balign 2
 328               		.global	gptStopTimerI
GAS LISTING /tmp/cc0lIVtH.s 			page 7


 329               		.type	gptStopTimerI, @function
 330               	gptStopTimerI:
 331               	; start of function
 332               	; framesize_regs:     4
 333               	; framesize_locals:   0
 334               	; framesize_outgoing: 0
 335               	; framesize:          4
 336               	; elim ap -> fp       8
 337               	; elim fp -> sp       0
 338               	; saved regs: R10
 339               		; start of prologue
 340 0000 0A14      		PUSHM.A	#1, R10
 341               		; end of prologue
 342 0002 CA0C      		MOVA	R12, R10
 343 0004 9C00 0000 		CMPA	#0, R12 { JNE	.L28
 343      0020 
 344 000a 8C00 0000 		MOVA	#__func__.3737, R12
 345 000e B013 0000 		CALLA	#chSysHalt
 346               	.L28:
 347 0012 6C4A      		MOV.B	@R10, R12
 348 0014 7C50 FEFF 		ADD.B	#-2, R12
 349 0018 6D43      		MOV.B	#2, R13
 350 001a 4D9C 002C 		CMP.B	R12, R13 { JHS	.L29
 351 001e 8C00 0000 		MOVA	#__func__.3737, R12
 352 0022 B013 0000 		CALLA	#chSysHalt
 353               	.L29:
 354 0026 EA43 0000 		MOV.B	#2, @R10
 355 002a CC0A      		MOVA	R10, R12
 356 002c B013 0000 		CALLA	#gpt_lld_stop_timer
 357               		; start of epilogue
 358 0030 0A16      		POPM.A	#1, r10
 359 0032 1001      		RETA
 360               		.size	gptStopTimerI, .-gptStopTimerI
 361               		.section	.text.gptStopTimer,"ax",@progbits
 362               		.balign 2
 363               		.global	gptStopTimer
 364               		.type	gptStopTimer, @function
 365               	gptStopTimer:
 366               	; start of function
 367               	; framesize_regs:     0
 368               	; framesize_locals:   4
 369               	; framesize_outgoing: 0
 370               	; framesize:          4
 371               	; elim ap -> fp       4
 372               	; elim fp -> sp       4
 373               	; saved regs:(none)
 374               		; start of prologue
 375 0000 B100 0400 		SUBA	#4, R1
 376               		; end of prologue
 377 0004 710C 0000 		MOVA	R12, @R1
 378 0008 B013 0000 		CALLA	#port_lock
 379 000c 0C01      		MOVA	@R1, R12
 380 000e B013 0000 		CALLA	#gptStopTimerI
 381 0012 B013 0000 		CALLA	#port_unlock
 382               		; start of epilogue
 383 0016 A100 0400 		ADDA	#4, R1
 384 001a 1001      		RETA
GAS LISTING /tmp/cc0lIVtH.s 			page 8


 385               		.size	gptStopTimer, .-gptStopTimer
 386               		.section	.text.gptPolledDelay,"ax",@progbits
 387               		.balign 2
 388               		.global	gptPolledDelay
 389               		.type	gptPolledDelay, @function
 390               	gptPolledDelay:
 391               	; start of function
 392               	; framesize_regs:     4
 393               	; framesize_locals:   4
 394               	; framesize_outgoing: 0
 395               	; framesize:          8
 396               	; elim ap -> fp       8
 397               	; elim fp -> sp       4
 398               	; saved regs: R10
 399               		; start of prologue
 400 0000 0A14      		PUSHM.A	#1, R10
 401 0002 B100 0400 		SUBA	#4, R1
 402               		; end of prologue
 403 0006 CA0C      		MOVA	R12, R10
 404 0008 EC93 0000 		CMP.B	#2, @R12 { JEQ	.L32
 404      0024 
 405 000e 8C00 0000 		MOVA	#__func__.3742, R12
 406 0012 710D 0000 		MOVA	R13, @R1
 407 0016 B013 0000 		CALLA	#chSysHalt
 408 001a 0D01      		MOVA	@R1, R13
 409               	.L32:
 410 001c EA42 0000 		MOV.B	#4, @R10
 411 0020 CC0A      		MOVA	R10, R12
 412 0022 B013 0000 		CALLA	#gpt_lld_polled_delay
 413 0026 EA43 0000 		MOV.B	#2, @R10
 414               		; start of epilogue
 415 002a A100 0400 		ADDA	#4, R1
 416 002e 0A16      		POPM.A	#1, r10
 417 0030 1001      		RETA
 418               		.size	gptPolledDelay, .-gptPolledDelay
 419               		.section	.upper.rodata,"a",@progbits
 420               		.type	__func__.3742, @object
 421               		.size	__func__.3742, 15
 422               	__func__.3742:
 423 0000 6770 7450 		.string	"gptPolledDelay"
 423      6F6C 6C65 
 423      6444 656C 
 423      6179 00
 424               		.type	__func__.3737, @object
 425               		.size	__func__.3737, 14
 426               	__func__.3737:
 427 000f 6770 7453 		.string	"gptStopTimerI"
 427      746F 7054 
 427      696D 6572 
 427      4900 
 428               		.type	__func__.3730, @object
 429               		.size	__func__.3730, 17
 430               	__func__.3730:
 431 001d 6770 7453 		.string	"gptStartOneShotI"
 431      7461 7274 
 431      4F6E 6553 
 431      686F 7449 
GAS LISTING /tmp/cc0lIVtH.s 			page 9


 431      00
 432               		.type	__func__.3721, @object
 433               		.size	__func__.3721, 20
 434               	__func__.3721:
 435 002e 6770 7453 		.string	"gptStartContinuousI"
 435      7461 7274 
 435      436F 6E74 
 435      696E 756F 
 435      7573 4900 
 436               		.type	__func__.3712, @object
 437               		.size	__func__.3712, 18
 438               	__func__.3712:
 439 0042 6770 7443 		.string	"gptChangeInterval"
 439      6861 6E67 
 439      6549 6E74 
 439      6572 7661 
 439      6C00 
 440               		.type	__func__.3707, @object
 441               		.size	__func__.3707, 8
 442               	__func__.3707:
 443 0054 6770 7453 		.string	"gptStop"
 443      746F 7000 
 444               		.type	__func__.3703, @object
 445               		.size	__func__.3703, 9
 446               	__func__.3703:
 447 005c 6770 7453 		.string	"gptStart"
 447      7461 7274 
 447      00
 448               		.ident	"GCC: (SOMNIUM Technologies Limited - msp430-gcc 6.2.1.16) 6.2.1 20161212"
GAS LISTING /tmp/cc0lIVtH.s 			page 10


DEFINED SYMBOLS
                            *ABS*:0000000000000000 hal_gpt.c
     /tmp/cc0lIVtH.s:5      .text.port_lock:0000000000000000 port_lock
     /tmp/cc0lIVtH.s:28     .text.port_unlock:0000000000000000 port_unlock
     /tmp/cc0lIVtH.s:52     .text.gptInit:0000000000000000 gptInit
     /tmp/cc0lIVtH.s:71     .text.gptObjectInit:0000000000000000 gptObjectInit
     /tmp/cc0lIVtH.s:91     .text.gptStart:0000000000000000 gptStart
     /tmp/cc0lIVtH.s:446    .upper.rodata:000000000000005c __func__.3703
     /tmp/cc0lIVtH.s:134    .text.gptStop:0000000000000000 gptStop
     /tmp/cc0lIVtH.s:442    .upper.rodata:0000000000000054 __func__.3707
     /tmp/cc0lIVtH.s:172    .text.gptChangeInterval:0000000000000000 gptChangeInterval
     /tmp/cc0lIVtH.s:438    .upper.rodata:0000000000000042 __func__.3712
     /tmp/cc0lIVtH.s:203    .text.gptStartContinuousI:0000000000000000 gptStartContinuousI
     /tmp/cc0lIVtH.s:434    .upper.rodata:000000000000002e __func__.3721
     /tmp/cc0lIVtH.s:237    .text.gptStartContinuous:0000000000000000 gptStartContinuous
     /tmp/cc0lIVtH.s:264    .text.gptStartOneShotI:0000000000000000 gptStartOneShotI
     /tmp/cc0lIVtH.s:430    .upper.rodata:000000000000001d __func__.3730
     /tmp/cc0lIVtH.s:303    .text.gptStartOneShot:0000000000000000 gptStartOneShot
     /tmp/cc0lIVtH.s:330    .text.gptStopTimerI:0000000000000000 gptStopTimerI
     /tmp/cc0lIVtH.s:426    .upper.rodata:000000000000000f __func__.3737
     /tmp/cc0lIVtH.s:365    .text.gptStopTimer:0000000000000000 gptStopTimer
     /tmp/cc0lIVtH.s:390    .text.gptPolledDelay:0000000000000000 gptPolledDelay
     /tmp/cc0lIVtH.s:422    .upper.rodata:0000000000000000 __func__.3742
     /tmp/cc0lIVtH.s:108    .text.gptStart:0000000000000014 .L6
     /tmp/cc0lIVtH.s:111    .text.gptStart:000000000000001c .L7
     /tmp/cc0lIVtH.s:119    .text.gptStart:0000000000000032 .L8
     /tmp/cc0lIVtH.s:150    .text.gptStop:0000000000000012 .L13
     /tmp/cc0lIVtH.s:158    .text.gptStop:0000000000000028 .L14
     /tmp/cc0lIVtH.s:188    .text.gptChangeInterval:0000000000000012 .L16
     /tmp/cc0lIVtH.s:193    .text.gptChangeInterval:0000000000000026 .L17
     /tmp/cc0lIVtH.s:220    .text.gptStartContinuousI:0000000000000014 .L19
     /tmp/cc0lIVtH.s:224    .text.gptStartContinuousI:0000000000000022 .L20
     /tmp/cc0lIVtH.s:281    .text.gptStartOneShotI:0000000000000014 .L23
     /tmp/cc0lIVtH.s:286    .text.gptStartOneShotI:0000000000000028 .L24
     /tmp/cc0lIVtH.s:290    .text.gptStartOneShotI:0000000000000036 .L25
     /tmp/cc0lIVtH.s:346    .text.gptStopTimerI:0000000000000012 .L28
     /tmp/cc0lIVtH.s:353    .text.gptStopTimerI:0000000000000026 .L29
     /tmp/cc0lIVtH.s:409    .text.gptPolledDelay:000000000000001c .L32

UNDEFINED SYMBOLS
gpt_lld_init
chSysHalt
gpt_lld_start
gpt_lld_stop
gpt_lld_start_timer
gpt_lld_stop_timer
gpt_lld_polled_delay
