GAS LISTING /tmp/ccFvHfkn.s 			page 1


   1               		.file	"hal_st.c"
   2               		.section	.text.stInit,"ax",@progbits
   3               		.balign 2
   4               		.global	stInit
   5               		.type	stInit, @function
   6               	stInit:
   7               	; start of function
   8               	; framesize_regs:     0
   9               	; framesize_locals:   0
  10               	; framesize_outgoing: 0
  11               	; framesize:          0
  12               	; elim ap -> fp       4
  13               	; elim fp -> sp       0
  14               	; saved regs:(none)
  15               		; start of prologue
  16               		; end of prologue
  17 0000 B013 0000 		CALLA	#st_lld_init
  18               		; start of epilogue
  19 0004 1001      		RETA
  20               		.size	stInit, .-stInit
  21               		.section	.text.stStartAlarm,"ax",@progbits
  22               		.balign 2
  23               		.global	stStartAlarm
  24               		.type	stStartAlarm, @function
  25               	stStartAlarm:
  26               	; start of function
  27               	; framesize_regs:     4
  28               	; framesize_locals:   0
  29               	; framesize_outgoing: 0
  30               	; framesize:          4
  31               	; elim ap -> fp       8
  32               	; elim fp -> sp       0
  33               	; saved regs: R10
  34               		; start of prologue
  35 0000 0A14      		PUSHM.A	#1, R10
  36               		; end of prologue
  37 0002 0A4C      		MOV.W	R12, R10
  38 0004 4018 B2B0 		BITX.W	#16, &TB0CCTL0 { JEQ	.L3
  38      1000 0000 
  38      0024 
  39 000e 8C00 0000 		MOVA	#__func__.3699, R12
  40 0012 B013 0000 		CALLA	#chSysHalt
  41               	.L3:
  42 0016 4018 824A 		MOVX.W	R10, &TB0CCR0
  42      0000 
  43 001c 4018 92C3 		BICX.W	#1, &TB0CCTL0
  43      0000 
  44 0022 4018 B2D0 		BISX.W	#16, &TB0CCTL0
  44      1000 0000 
  45               		; start of epilogue
  46 002a 0A16      		POPM.A	#1, r10
  47 002c 1001      		RETA
  48               		.size	stStartAlarm, .-stStartAlarm
  49               		.section	.text.stStopAlarm,"ax",@progbits
  50               		.balign 2
  51               		.global	stStopAlarm
  52               		.type	stStopAlarm, @function
GAS LISTING /tmp/ccFvHfkn.s 			page 2


  53               	stStopAlarm:
  54               	; start of function
  55               	; framesize_regs:     0
  56               	; framesize_locals:   0
  57               	; framesize_outgoing: 0
  58               	; framesize:          0
  59               	; elim ap -> fp       4
  60               	; elim fp -> sp       0
  61               	; saved regs:(none)
  62               		; start of prologue
  63               		; end of prologue
  64 0000 C01F B2F0 		ANDX.W	#-17, &TB0CCTL0
  64      EFFF 0000 
  65               		; start of epilogue
  66 0008 1001      		RETA
  67               		.size	stStopAlarm, .-stStopAlarm
  68               		.section	.text.stSetAlarm,"ax",@progbits
  69               		.balign 2
  70               		.global	stSetAlarm
  71               		.type	stSetAlarm, @function
  72               	stSetAlarm:
  73               	; start of function
  74               	; framesize_regs:     4
  75               	; framesize_locals:   0
  76               	; framesize_outgoing: 0
  77               	; framesize:          4
  78               	; elim ap -> fp       8
  79               	; elim fp -> sp       0
  80               	; saved regs: R10
  81               		; start of prologue
  82 0000 0A14      		PUSHM.A	#1, R10
  83               		; end of prologue
  84 0002 0A4C      		MOV.W	R12, R10
  85 0004 4018 B2B0 		BITX.W	#16, &TB0CCTL0 { JNE	.L9
  85      1000 0000 
  85      0020 
  86 000e 8C00 0000 		MOVA	#__func__.3706, R12
  87 0012 B013 0000 		CALLA	#chSysHalt
  88               	.L9:
  89 0016 4018 824A 		MOVX.W	R10, &TB0CCR0
  89      0000 
  90               		; start of epilogue
  91 001c 0A16      		POPM.A	#1, r10
  92 001e 1001      		RETA
  93               		.size	stSetAlarm, .-stSetAlarm
  94               		.section	.text.stGetAlarm,"ax",@progbits
  95               		.balign 2
  96               		.global	stGetAlarm
  97               		.type	stGetAlarm, @function
  98               	stGetAlarm:
  99               	; start of function
 100               	; framesize_regs:     0
 101               	; framesize_locals:   0
 102               	; framesize_outgoing: 0
 103               	; framesize:          0
 104               	; elim ap -> fp       4
 105               	; elim fp -> sp       0
GAS LISTING /tmp/ccFvHfkn.s 			page 3


 106               	; saved regs:(none)
 107               		; start of prologue
 108               		; end of prologue
 109 0000 4018 B2B0 		BITX.W	#16, &TB0CCTL0 { JNE	.L11
 109      1000 0000 
 109      0020 
 110 000a 8C00 0000 		MOVA	#__func__.3710, R12
 111 000e B013 0000 		CALLA	#chSysHalt
 112               	.L11:
 113 0012 4018 1C42 		MOVX.W	&TB0CCR0, R12
 113      0000 
 114               		; start of epilogue
 115 0018 1001      		RETA
 116               		.size	stGetAlarm, .-stGetAlarm
 117               		.section	.upper.rodata,"a",@progbits
 118               		.type	__func__.3710, @object
 119               		.size	__func__.3710, 11
 120               	__func__.3710:
 121 0000 7374 4765 		.string	"stGetAlarm"
 121      7441 6C61 
 121      726D 00
 122               		.type	__func__.3706, @object
 123               		.size	__func__.3706, 11
 124               	__func__.3706:
 125 000b 7374 5365 		.string	"stSetAlarm"
 125      7441 6C61 
 125      726D 00
 126               		.type	__func__.3699, @object
 127               		.size	__func__.3699, 13
 128               	__func__.3699:
 129 0016 7374 5374 		.string	"stStartAlarm"
 129      6172 7441 
 129      6C61 726D 
 129      00
 130               		.ident	"GCC: (SOMNIUM Technologies Limited - msp430-gcc 6.2.1.16) 6.2.1 20161212"
GAS LISTING /tmp/ccFvHfkn.s 			page 4


DEFINED SYMBOLS
                            *ABS*:0000000000000000 hal_st.c
     /tmp/ccFvHfkn.s:6      .text.stInit:0000000000000000 stInit
     /tmp/ccFvHfkn.s:25     .text.stStartAlarm:0000000000000000 stStartAlarm
     /tmp/ccFvHfkn.s:128    .upper.rodata:0000000000000016 __func__.3699
     /tmp/ccFvHfkn.s:53     .text.stStopAlarm:0000000000000000 stStopAlarm
     /tmp/ccFvHfkn.s:72     .text.stSetAlarm:0000000000000000 stSetAlarm
     /tmp/ccFvHfkn.s:124    .upper.rodata:000000000000000b __func__.3706
     /tmp/ccFvHfkn.s:98     .text.stGetAlarm:0000000000000000 stGetAlarm
     /tmp/ccFvHfkn.s:120    .upper.rodata:0000000000000000 __func__.3710
     /tmp/ccFvHfkn.s:41     .text.stStartAlarm:0000000000000016 .L3
     /tmp/ccFvHfkn.s:88     .text.stSetAlarm:0000000000000016 .L9
     /tmp/ccFvHfkn.s:112    .text.stGetAlarm:0000000000000012 .L11

UNDEFINED SYMBOLS
st_lld_init
TB0CCTL0
chSysHalt
TB0CCR0
