GAS LISTING /tmp/ccV2w7Ev.s 			page 1


   1               		.file	"main.c"
   2               		.section	.text.fw_allocator,"ax",@progbits
   3               		.balign 2
   4               		.global	fw_allocator
   5               		.type	fw_allocator, @function
   6               	fw_allocator:
   7               	; start of function
   8               	; framesize_regs:     4
   9               	; framesize_locals:   0
  10               	; framesize_outgoing: 0
  11               	; framesize:          4
  12               	; elim ap -> fp       8
  13               	; elim fp -> sp       0
  14               	; saved regs: R10
  15               		; start of prologue
  16 0000 0A14      		PUSHM.A	#1, R10
  17               		; end of prologue
  18 0002 2E00 0000 		MOVA	&curr_index.4765, R14
  19 0006 CA0E      		MOVA	R14, R10
  20 0008 EA0C      		ADDA	R12, R10
  21 000a 3C40 2404 		MOV.W	#1060, R12
  22 000e DC0A 0028 		CMPA	R10, R12 { JLO	.L3
  23 0012 CC0E      		MOVA	R14, R12
  24 0014 AC00 0000 		ADDA	#fw_storage, R12
  25 0018 600A 0000 		MOVA	R10, &curr_index.4765
  26               	.L1:
  27               		; start of epilogue
  28 001c 0A16      		POPM.A	#1, r10
  29 001e 1001      		RETA
  30               	.L3:
  31 0020 4C43      		MOV.B	#0, R12
  32 0022 8000 0000 		BRA	#.L1
  33               		.size	fw_allocator, .-fw_allocator
  34               		.section	.text.elyFWGetBufferI,"ax",@progbits
  35               		.balign 2
  36               		.global	elyFWGetBufferI
  37               		.type	elyFWGetBufferI, @function
  38               	elyFWGetBufferI:
  39               	; start of function
  40               	; framesize_regs:     0
  41               	; framesize_locals:   0
  42               	; framesize_outgoing: 0
  43               	; framesize:          0
  44               	; elim ap -> fp       4
  45               	; elim fp -> sp       0
  46               	; saved regs:(none)
  47               		; start of prologue
  48               		; end of prologue
  49 0000 8C00 0000 		MOVA	#fw_mpool, R12
  50 0004 B013 0000 		CALLA	#chPoolAllocI
  51 0008 CE0C      		MOVA	R12, R14
  52 000a 9C00 0000 		CMPA	#0, R12 { JEQ	.L4
  52      0024 
  53 0010 4018 B253 		ADDX.W	#-1, &fw_sem
  53      0000 
  54 0016 B013 0000 		CALLA	#elyNLToFW
  55 001a CE0C      		MOVA	R12, R14
GAS LISTING /tmp/ccV2w7Ev.s 			page 2


  56               	.L4:
  57 001c CC0E      		MOVA	R14, R12
  58               		; start of epilogue
  59 001e 1001      		RETA
  60               		.size	elyFWGetBufferI, .-elyFWGetBufferI
  61               		.section	.text.elyFWGetBuffer,"ax",@progbits
  62               		.balign 2
  63               		.global	elyFWGetBuffer
  64               		.type	elyFWGetBuffer, @function
  65               	elyFWGetBuffer:
  66               	; start of function
  67               	; framesize_regs:     0
  68               	; framesize_locals:   0
  69               	; framesize_outgoing: 0
  70               	; framesize:          0
  71               	; elim ap -> fp       4
  72               	; elim fp -> sp       0
  73               	; saved regs:(none)
  74               		; start of prologue
  75               		; end of prologue
  76               	 ; 347 "../ChibiOS-Contrib/os/common/ports/MSP430X/chcore.h" 1
  77 0000 32C2 0343 		dint { nop
  78               	 ; 0 "" 2
  79               	 ; 348 "../ChibiOS-Contrib/os/common/ports/MSP430X/chcore.h" 1
  80 0004 0343      		nop
  81               	 ; 0 "" 2
  82 0006 B013 0000 		CALLA	#elyFWGetBufferI
  83               	 ; 355 "../ChibiOS-Contrib/os/common/ports/MSP430X/chcore.h" 1
  84 000a 0343      		nop
  85               	 ; 0 "" 2
  86               	 ; 356 "../ChibiOS-Contrib/os/common/ports/MSP430X/chcore.h" 1
  87 000c 0343 32D2 		nop { eint { nop
  87      0343 
  88               	 ; 0 "" 2
  89               		; start of epilogue
  90 0012 1001      		RETA
  91               		.size	elyFWGetBuffer, .-elyFWGetBuffer
  92               		.section	.text.elyFWGetBufferTimeoutS,"ax",@progbits
  93               		.balign 2
  94               		.global	elyFWGetBufferTimeoutS
  95               		.type	elyFWGetBufferTimeoutS, @function
  96               	elyFWGetBufferTimeoutS:
  97               	; start of function
  98               	; framesize_regs:     4
  99               	; framesize_locals:   0
 100               	; framesize_outgoing: 0
 101               	; framesize:          4
 102               	; elim ap -> fp       8
 103               	; elim fp -> sp       0
 104               	; saved regs: R10
 105               		; start of prologue
 106 0000 0A14      		PUSHM.A	#1, R10
 107               		; end of prologue
 108 0002 0D4C      		MOV.W	R12, R13
 109 0004 8C00 0000 		MOVA	#fw_sem, R12
 110 0008 B013 0000 		CALLA	#chSemWaitTimeoutS
 111 000c 9C00 0000 		CMPA	#0, R12 { JNE	.L13
GAS LISTING /tmp/ccV2w7Ev.s 			page 3


 111      0020 
 112 0012 8C00 0000 		MOVA	#fw_mpool, R12
 113 0016 B013 0000 		CALLA	#chPoolAllocI
 114 001a CA0C      		MOVA	R12, R10
 115 001c 9C00 0000 		CMPA	#0, R12 { JNE	.L12
 115      0020 
 116 0022 8C00 0000 		MOVA	#__func__.4780, R12
 117 0026 B013 0000 		CALLA	#chSysHalt
 118               	.L12:
 119 002a CC0A      		MOVA	R10, R12
 120 002c B013 0000 		CALLA	#elyNLToFW
 121               	.L10:
 122               		; start of epilogue
 123 0030 0A16      		POPM.A	#1, r10
 124 0032 1001      		RETA
 125               	.L13:
 126 0034 4C43      		MOV.B	#0, R12
 127 0036 8000 0000 		BRA	#.L10
 128               		.size	elyFWGetBufferTimeoutS, .-elyFWGetBufferTimeoutS
 129               		.section	.text.elyFWFreeBufferI,"ax",@progbits
 130               		.balign 2
 131               		.global	elyFWFreeBufferI
 132               		.type	elyFWFreeBufferI, @function
 133               	elyFWFreeBufferI:
 134               	; start of function
 135               	; framesize_regs:     0
 136               	; framesize_locals:   0
 137               	; framesize_outgoing: 0
 138               	; framesize:          0
 139               	; elim ap -> fp       4
 140               	; elim fp -> sp       0
 141               	; saved regs:(none)
 142               		; start of prologue
 143               		; end of prologue
 144 0000 CD0C      		MOVA	R12, R13
 145 0002 8C00 0000 		MOVA	#fw_mpool, R12
 146 0006 B013 0000 		CALLA	#chPoolFreeI
 147 000a 8C00 0000 		MOVA	#fw_sem, R12
 148 000e B013 0000 		CALLA	#chSemSignalI
 149               		; start of epilogue
 150 0012 1001      		RETA
 151               		.size	elyFWFreeBufferI, .-elyFWFreeBufferI
 152               		.section	.text.elyFWFreeBuffer,"ax",@progbits
 153               		.balign 2
 154               		.global	elyFWFreeBuffer
 155               		.type	elyFWFreeBuffer, @function
 156               	elyFWFreeBuffer:
 157               	; start of function
 158               	; framesize_regs:     0
 159               	; framesize_locals:   0
 160               	; framesize_outgoing: 0
 161               	; framesize:          0
 162               	; elim ap -> fp       4
 163               	; elim fp -> sp       0
 164               	; saved regs:(none)
 165               		; start of prologue
 166               		; end of prologue
GAS LISTING /tmp/ccV2w7Ev.s 			page 4


 167               	 ; 347 "../ChibiOS-Contrib/os/common/ports/MSP430X/chcore.h" 1
 168 0000 32C2 0343 		dint { nop
 169               	 ; 0 "" 2
 170               	 ; 348 "../ChibiOS-Contrib/os/common/ports/MSP430X/chcore.h" 1
 171 0004 0343      		nop
 172               	 ; 0 "" 2
 173 0006 B013 0000 		CALLA	#elyFWFreeBufferI
 174 000a B013 0000 		CALLA	#chSchRescheduleS
 175               	 ; 355 "../ChibiOS-Contrib/os/common/ports/MSP430X/chcore.h" 1
 176 000e 0343      		nop
 177               	 ; 0 "" 2
 178               	 ; 356 "../ChibiOS-Contrib/os/common/ports/MSP430X/chcore.h" 1
 179 0010 0343 32D2 		nop { eint { nop
 179      0343 
 180               	 ; 0 "" 2
 181               		; start of epilogue
 182 0016 1001      		RETA
 183               		.size	elyFWFreeBuffer, .-elyFWFreeBuffer
 184               		.section	.upper.rodata,"a",@progbits
 185               		.type	__func__.4780, @object
 186               		.size	__func__.4780, 23
 187               	__func__.4780:
 188 0000 656C 7946 		.string	"elyFWGetBufferTimeoutS"
 188      5747 6574 
 188      4275 6666 
 188      6572 5469 
 188      6D65 6F75 
 189               		.section	.upper.data,"aw",@progbits
 190               		.balign 2
 191               		.type	fw_sem, @object
 192               		.size	fw_sem, 2
 193               	fw_sem:
 194 0000 0400      		.short	4
 195               		.section	.persistent,"aw"
 196               		.balign 2
 197               		.type	fw_mpool, @object
 198               		.size	fw_mpool, 12
 199               	fw_mpool:
 200 0000 0000 0000 		.long	0
 201 0004 0901 0000 		.long	265
 202 0008 0000 0000 		.long	fw_allocator
 203               		.balign 2
 204               		.type	curr_index.4765, @object
 205               		.size	curr_index.4765, 4
 206               	curr_index.4765:
 207 000c 0000 0000 		.zero	4
 208               		.type	fw_storage, @object
 209               		.size	fw_storage, 1060
 210               	fw_storage:
 211 0010 0000 0000 		.zero	1060
 211      0000 0000 
 211      0000 0000 
 211      0000 0000 
 211      0000 0000 
 212               		.ident	"GCC: (SOMNIUM Technologies Limited - msp430-gcc 6.2.1.16) 6.2.1 20161212"
GAS LISTING /tmp/ccV2w7Ev.s 			page 5


DEFINED SYMBOLS
                            *ABS*:0000000000000000 main.c
     /tmp/ccV2w7Ev.s:6      .text.fw_allocator:0000000000000000 fw_allocator
     /tmp/ccV2w7Ev.s:206    .persistent:000000000000000c curr_index.4765
     /tmp/ccV2w7Ev.s:210    .persistent:0000000000000010 fw_storage
     /tmp/ccV2w7Ev.s:38     .text.elyFWGetBufferI:0000000000000000 elyFWGetBufferI
     /tmp/ccV2w7Ev.s:199    .persistent:0000000000000000 fw_mpool
     /tmp/ccV2w7Ev.s:193    .upper.data:0000000000000000 fw_sem
     /tmp/ccV2w7Ev.s:65     .text.elyFWGetBuffer:0000000000000000 elyFWGetBuffer
     /tmp/ccV2w7Ev.s:96     .text.elyFWGetBufferTimeoutS:0000000000000000 elyFWGetBufferTimeoutS
     /tmp/ccV2w7Ev.s:187    .upper.rodata:0000000000000000 __func__.4780
     /tmp/ccV2w7Ev.s:133    .text.elyFWFreeBufferI:0000000000000000 elyFWFreeBufferI
     /tmp/ccV2w7Ev.s:156    .text.elyFWFreeBuffer:0000000000000000 elyFWFreeBuffer
     /tmp/ccV2w7Ev.s:30     .text.fw_allocator:0000000000000020 .L3
     /tmp/ccV2w7Ev.s:26     .text.fw_allocator:000000000000001c .L1
     /tmp/ccV2w7Ev.s:56     .text.elyFWGetBufferI:000000000000001c .L4
     /tmp/ccV2w7Ev.s:125    .text.elyFWGetBufferTimeoutS:0000000000000034 .L13
     /tmp/ccV2w7Ev.s:118    .text.elyFWGetBufferTimeoutS:000000000000002a .L12
     /tmp/ccV2w7Ev.s:121    .text.elyFWGetBufferTimeoutS:0000000000000030 .L10

UNDEFINED SYMBOLS
chPoolAllocI
elyNLToFW
chSemWaitTimeoutS
chSysHalt
chPoolFreeI
chSemSignalI
chSchRescheduleS
__crt0_move_highdata
