GAS LISTING /tmp/cc4YfaFR.s 			page 1


   1               		.file	"osal.c"
   2               		.section	.text.osalThreadDequeueNextI,"ax",@progbits
   3               		.balign 2
   4               		.global	osalThreadDequeueNextI
   5               		.type	osalThreadDequeueNextI, @function
   6               	osalThreadDequeueNextI:
   7               	; start of function
   8               	; framesize_regs:     20
   9               	; framesize_locals:   0
  10               	; framesize_outgoing: 0
  11               	; framesize:          20
  12               	; elim ap -> fp       24
  13               	; elim fp -> sp       0
  14               	; saved regs: R4 R6 R8 R9 R10
  15               		; start of prologue
  16 0000 2A14      		PUSHM.A	#3, R10
  17 0002 0614      		PUSHM.A	#1, R6
  18 0004 0414      		PUSHM.A	#1, R4
  19               		; end of prologue
  20 0006 C60C      		MOVA	R12, R6
  21 0008 C40D      		MOVA	R13, R4
  22 000a 2C4C      		MOV.W	@R12, R12
  23 000c 0C93 0034 		CMP.W	#0, R12 { JGE	.L1
  24 0010 8A00 0000 		MOVA	#nil+14, R10
  25 0014 8800 0000 		MOVA	#chSysHalt, R8
  26 0018 8900 0000 		MOVA	#__func__.2715, R9
  27               	.L3:
  28 001c 0018 569A 		CMPX.A	6(R10), R6 { JNE	.L4
  28      0600 0020 
  29 0024 9653 0000 		ADD.W	#1, @R6
  30 0028 FA90 0300 		CMP.B	#3, 4(R10) { JEQ	.L5
  30      0400 0024 
  31 0030 8C00 0000 		MOVA	#__func__.2715, R12
  32 0034 B013 0000 		CALLA	#chSysHalt
  33               	.L5:
  34 0038 CD04      		MOVA	R4, R13
  35 003a CC0A      		MOVA	R10, R12
  36 003c B013 0000 		CALLA	#chSchReadyI
  37               	.L1:
  38               		; start of epilogue
  39 0040 0416      		POPM.A	#1, r4
  40 0042 0616      		POPM.A	#1, r6
  41 0044 2816      		POPM.A	#3, r10
  42 0046 1001      		RETA
  43               	.L4:
  44 0048 AA00 1000 		ADDA	#16, R10
  45 004c 9A00 0000 		CMPA	#nil+62, R10 { JLO	.L3
  45      0028 
  46 0052 CC09      		MOVA	R9, R12
  47 0054 4813      		CALLA	R8
  48 0056 8000 0000 		BRA	#.L3
  49               		.size	osalThreadDequeueNextI, .-osalThreadDequeueNextI
  50               		.section	.text.osalThreadDequeueAllI,"ax",@progbits
  51               		.balign 2
  52               		.global	osalThreadDequeueAllI
  53               		.type	osalThreadDequeueAllI, @function
  54               	osalThreadDequeueAllI:
GAS LISTING /tmp/cc4YfaFR.s 			page 2


  55               	; start of function
  56               	; framesize_regs:     28
  57               	; framesize_locals:   0
  58               	; framesize_outgoing: 0
  59               	; framesize:          28
  60               	; elim ap -> fp       32
  61               	; elim fp -> sp       0
  62               	; saved regs: R4 R5 R6 R7 R8 R9 R10
  63               		; start of prologue
  64 0000 6A14      		PUSHM.A	#7, R10
  65               		; end of prologue
  66 0002 C80C      		MOVA	R12, R8
  67 0004 C70D      		MOVA	R13, R7
  68 0006 294C      		MOV.W	@R12, R9
  69 0008 8C43 0000 		MOV.W	#0, @R12
  70 000c 8A00 0000 		MOVA	#nil+14, R10
  71 0010 8600 0000 		MOVA	#chSysHalt, R6
  72 0014 8500 0000 		MOVA	#__func__.2724, R5
  73 0018 8400 0000 		MOVA	#chSchReadyI, R4
  74               	.L8:
  75 001c 0993 0038 		CMP.W	#0, R9 { JL	.L12
  76               		; start of epilogue
  77 0020 6416      		POPM.A	#7, r10
  78 0022 1001      		RETA
  79               	.L12:
  80 0024 9A00 0000 		CMPA	#nil+62, R10 { JLO	.L9
  80      0028 
  81 002a CC05      		MOVA	R5, R12
  82 002c 4613      		CALLA	R6
  83               	.L9:
  84 002e 0018 589A 		CMPX.A	6(R10), R8 { JNE	.L10
  84      0600 0020 
  85 0036 FA90 0300 		CMP.B	#3, 4(R10) { JEQ	.L11
  85      0400 0024 
  86 003e CC05      		MOVA	R5, R12
  87 0040 4613      		CALLA	R6
  88               	.L11:
  89 0042 1953      		ADD.W	#1, R9
  90 0044 CD07      		MOVA	R7, R13
  91 0046 CC0A      		MOVA	R10, R12
  92 0048 4413      		CALLA	R4
  93               	.L10:
  94 004a AA00 1000 		ADDA	#16, R10
  95 004e 8000 0000 		BRA	#.L8
  96               		.size	osalThreadDequeueAllI, .-osalThreadDequeueAllI
  97               		.section	.upper.rodata,"a",@progbits
  98               		.type	__func__.2724, @object
  99               		.size	__func__.2724, 22
 100               	__func__.2724:
 101 0000 6F73 616C 		.string	"osalThreadDequeueAllI"
 101      5468 7265 
 101      6164 4465 
 101      7175 6575 
 101      6541 6C6C 
 102               		.type	__func__.2715, @object
 103               		.size	__func__.2715, 23
 104               	__func__.2715:
GAS LISTING /tmp/cc4YfaFR.s 			page 3


 105 0016 6F73 616C 		.string	"osalThreadDequeueNextI"
 105      5468 7265 
 105      6164 4465 
 105      7175 6575 
 105      654E 6578 
 106               		.ident	"GCC: (SOMNIUM Technologies Limited - msp430-gcc 6.2.1.16) 6.2.1 20161212"
GAS LISTING /tmp/cc4YfaFR.s 			page 4


DEFINED SYMBOLS
                            *ABS*:0000000000000000 osal.c
     /tmp/cc4YfaFR.s:6      .text.osalThreadDequeueNextI:0000000000000000 osalThreadDequeueNextI
     /tmp/cc4YfaFR.s:104    .upper.rodata:0000000000000016 __func__.2715
     /tmp/cc4YfaFR.s:54     .text.osalThreadDequeueAllI:0000000000000000 osalThreadDequeueAllI
     /tmp/cc4YfaFR.s:100    .upper.rodata:0000000000000000 __func__.2724
     /tmp/cc4YfaFR.s:37     .text.osalThreadDequeueNextI:0000000000000040 .L1
     /tmp/cc4YfaFR.s:43     .text.osalThreadDequeueNextI:0000000000000048 .L4
     /tmp/cc4YfaFR.s:33     .text.osalThreadDequeueNextI:0000000000000038 .L5
     /tmp/cc4YfaFR.s:27     .text.osalThreadDequeueNextI:000000000000001c .L3
     /tmp/cc4YfaFR.s:79     .text.osalThreadDequeueAllI:0000000000000024 .L12
     /tmp/cc4YfaFR.s:83     .text.osalThreadDequeueAllI:000000000000002e .L9
     /tmp/cc4YfaFR.s:93     .text.osalThreadDequeueAllI:000000000000004a .L10
     /tmp/cc4YfaFR.s:88     .text.osalThreadDequeueAllI:0000000000000042 .L11
     /tmp/cc4YfaFR.s:74     .text.osalThreadDequeueAllI:000000000000001c .L8

UNDEFINED SYMBOLS
nil
chSysHalt
chSchReadyI
