GAS LISTING /tmp/cc1Rywi5.s 			page 1


   1               		.file	"spp.c"
   2               		.section	.text.nl_allocator,"ax",@progbits
   3               		.balign 2
   4               		.global	nl_allocator
   5               		.type	nl_allocator, @function
   6               	nl_allocator:
   7               	; start of function
   8               	; framesize_regs:     4
   9               	; framesize_locals:   0
  10               	; framesize_outgoing: 0
  11               	; framesize:          4
  12               	; elim ap -> fp       8
  13               	; elim fp -> sp       0
  14               	; saved regs: R10
  15               		; start of prologue
  16 0000 0A14      		PUSHM.A	#1, R10
  17               		; end of prologue
  18 0002 2E00 0000 		MOVA	&curr_index.4801, R14
  19 0006 CA0E      		MOVA	R14, R10
  20 0008 EA0C      		ADDA	R12, R10
  21 000a 3C40 0020 		MOV.W	#8192, R12
  22 000e DC0A 0028 		CMPA	R10, R12 { JLO	.L3
  23 0012 CC0E      		MOVA	R14, R12
  24 0014 AC00 0000 		ADDA	#mpool_storage, R12
  25 0018 600A 0000 		MOVA	R10, &curr_index.4801
  26               	.L1:
  27               		; start of epilogue
  28 001c 0A16      		POPM.A	#1, r10
  29 001e 1001      		RETA
  30               	.L3:
  31 0020 4C43      		MOV.B	#0, R12
  32 0022 8000 0000 		BRA	#.L1
  33               		.size	nl_allocator, .-nl_allocator
  34               		.section	.text.clamp,"ax",@progbits
  35               		.balign 2
  36               		.type	clamp, @function
  37               	clamp:
  38               	; start of function
  39               	; framesize_regs:     8
  40               	; framesize_locals:   0
  41               	; framesize_outgoing: 0
  42               	; framesize:          8
  43               	; elim ap -> fp       12
  44               	; elim fp -> sp       0
  45               	; saved regs: R9 R10
  46               		; start of prologue
  47 0000 1A14      		PUSHM.A	#2, R10
  48               		; end of prologue
  49 0002 3CF0 FF00 		AND	#0xff, R12
  50 0006 494D      		MOV.B	R13, R9
  51 0008 4A4E      		MOV.B	R14, R10
  52 000a 4C99 002C 		CMP.B	R9, R12 { JHS	.L5
  53 000e 7C40 88FF 		MOV.B	#-120, R12
  54 0012 B013 0000 		CALLA	#elyErrorSignal
  55 0016 0C49      		MOV.W	R9, R12
  56               	.L6:
  57               		; start of epilogue
GAS LISTING /tmp/cc1Rywi5.s 			page 2


  58 0018 1916      		POPM.A	#2, r10
  59 001a 1001      		RETA
  60               	.L5:
  61 001c 4A9C 002C 		CMP.B	R12, R10 { JHS	.L6
  62 0020 7C40 88FF 		MOV.B	#-120, R12
  63 0024 B013 0000 		CALLA	#elyErrorSignal
  64 0028 0C4A      		MOV.W	R10, R12
  65 002a 8000 0000 		BRA	#.L6
  66               		.size	clamp, .-clamp
  67               		.section	.text.uart_pass,"ax",@progbits
  68               		.balign 2
  69               		.type	uart_pass, @function
  70               	uart_pass:
  71               	; start of function
  72               	; framesize_regs:     0
  73               	; framesize_locals:   0
  74               	; framesize_outgoing: 0
  75               	; framesize:          0
  76               	; elim ap -> fp       4
  77               	; elim fp -> sp       0
  78               	; saved regs:(none)
  79               		; start of prologue
  80               		; end of prologue
  81 0000 4D43      		MOV.B	#0, R13
  82 0002 B013 0000 		CALLA	#elyUARTPost
  83               		; start of epilogue
  84 0006 1001      		RETA
  85               		.size	uart_pass, .-uart_pass
  86               		.section	.text.fw,"ax",@progbits
  87               		.balign 2
  88               		.type	fw, @function
  89               	fw:
  90               	; start of function
  91               	; framesize_regs:     0
  92               	; framesize_locals:   0
  93               	; framesize_outgoing: 0
  94               	; framesize:          0
  95               	; elim ap -> fp       4
  96               	; elim fp -> sp       0
  97               	; saved regs:(none)
  98               		; start of prologue
  99               		; end of prologue
 100 0000 4D43      		MOV.B	#0, R13
 101 0002 B013 0000 		CALLA	#elyMainMBPost
 102               		; start of epilogue
 103 0006 1001      		RETA
 104               		.size	fw, .-fw
 105               		.section	.text.rf_pass,"ax",@progbits
 106               		.balign 2
 107               		.type	rf_pass, @function
 108               	rf_pass:
 109               	; start of function
 110               	; framesize_regs:     0
 111               	; framesize_locals:   0
 112               	; framesize_outgoing: 0
 113               	; framesize:          0
 114               	; elim ap -> fp       4
GAS LISTING /tmp/cc1Rywi5.s 			page 3


 115               	; elim fp -> sp       0
 116               	; saved regs:(none)
 117               		; start of prologue
 118               		; end of prologue
 119 0000 4D43      		MOV.B	#0, R13
 120 0002 B013 0000 		CALLA	#elyRFPost
 121               		; start of epilogue
 122 0006 1001      		RETA
 123               		.size	rf_pass, .-rf_pass
 124               		.section	.text.rf_pass_i,"ax",@progbits
 125               		.balign 2
 126               		.type	rf_pass_i, @function
 127               	rf_pass_i:
 128               	; start of function
 129               	; framesize_regs:     0
 130               	; framesize_locals:   0
 131               	; framesize_outgoing: 0
 132               	; framesize:          0
 133               	; elim ap -> fp       4
 134               	; elim fp -> sp       0
 135               	; saved regs:(none)
 136               		; start of prologue
 137               		; end of prologue
 138 0000 B013 0000 		CALLA	#elyRFPostI
 139               		; start of epilogue
 140 0004 1001      		RETA
 141               		.size	rf_pass_i, .-rf_pass_i
 142               		.section	.text.fw_i,"ax",@progbits
 143               		.balign 2
 144               		.type	fw_i, @function
 145               	fw_i:
 146               	; start of function
 147               	; framesize_regs:     0
 148               	; framesize_locals:   0
 149               	; framesize_outgoing: 0
 150               	; framesize:          0
 151               	; elim ap -> fp       4
 152               	; elim fp -> sp       0
 153               	; saved regs:(none)
 154               		; start of prologue
 155               		; end of prologue
 156 0000 B013 0000 		CALLA	#elyMainMBPostI
 157               		; start of epilogue
 158 0004 1001      		RETA
 159               		.size	fw_i, .-fw_i
 160               		.section	.text.uart_pass_i,"ax",@progbits
 161               		.balign 2
 162               		.type	uart_pass_i, @function
 163               	uart_pass_i:
 164               	; start of function
 165               	; framesize_regs:     0
 166               	; framesize_locals:   0
 167               	; framesize_outgoing: 0
 168               	; framesize:          0
 169               	; elim ap -> fp       4
 170               	; elim fp -> sp       0
 171               	; saved regs:(none)
GAS LISTING /tmp/cc1Rywi5.s 			page 4


 172               		; start of prologue
 173               		; end of prologue
 174 0000 B013 0000 		CALLA	#elyUARTPostI
 175               		; start of epilogue
 176 0004 1001      		RETA
 177               		.size	uart_pass_i, .-uart_pass_i
 178               		.section	.text.elyNLClampReg,"ax",@progbits
 179               		.balign 2
 180               		.global	elyNLClampReg
 181               		.type	elyNLClampReg, @function
 182               	elyNLClampReg:
 183               	; start of function
 184               	; framesize_regs:     8
 185               	; framesize_locals:   0
 186               	; framesize_outgoing: 0
 187               	; framesize:          8
 188               	; elim ap -> fp       12
 189               	; elim fp -> sp       0
 190               	; saved regs: R9 R10
 191               		; start of prologue
 192 0000 1A14      		PUSHM.A	#2, R10
 193               		; end of prologue
 194 0002 494C      		MOV.B	R12, R9
 195 0004 4A4D      		MOV.B	R13, R10
 196 0006 4C49      		MOV.B	R9, R12
 197 0008 7C50 80FF 		ADD.B	#-128, R12
 198 000c 7D40 0900 		MOV.B	#9, R13
 199 0010 4D9C 002C 		CMP.B	R12, R13 { JHS	.L14
 200 0014 8C00 0000 		MOVA	#__func__.4816, R12
 201 0018 B013 0000 		CALLA	#chSysHalt
 202               	.L14:
 203 001c 7990 83FF 		CMP.B	#-125, R9 { JEQ	.L16
 203      0024 
 204 0022 7D40 83FF 		MOV.B	#-125, R13
 205 0026 4D99 0028 		CMP.B	R9, R13 { JLO	.L17
 206 002a 7990 80FF 		CMP.B	#-128, R9 { JEQ	.L18
 206      0024 
 207 0030 7990 81FF 		CMP.B	#-127, R9 { JEQ	.L19
 207      0024 
 208               	.L15:
 209 0036 4C4A      		MOV.B	R10, R12
 210               		; start of epilogue
 211 0038 1916      		POPM.A	#2, r10
 212 003a 1001      		RETA
 213               	.L17:
 214 003c 7990 85FF 		CMP.B	#-123, R9 { JEQ	.L20
 214      0024 
 215 0042 7990 85FF 		CMP.B	#-123, R9 { JLO	.L15
 215      0028 
 216 0048 7950 7900 		ADD.B	#121, R9
 217 004c 5C43      		MOV.B	#1, R12
 218 004e 4C99 0028 		CMP.B	R9, R12 { JLO	.L15
 219 0052 4018 3AB0 		BITX.W	#16, R10 { JEQ	.L22
 219      1000 0024 
 220 005a 3A90 1000 		CMP.W	#16, R10 { JEQ	.L22
 220      0024 
 221 0060 7C40 88FF 		MOV.B	#-120, R12
GAS LISTING /tmp/cc1Rywi5.s 			page 5


 222 0064 B013 0000 		CALLA	#elyErrorSignal
 223 0068 7A40 1000 		MOV.B	#16, R10
 224 006c 8000 0000 		BRA	#.L15
 225               	.L18:
 226 0070 7E43      		MOV.B	#-1, R14
 227 0072 7D40 0700 		MOV.B	#7, R13
 228               	.L61:
 229 0076 4C4A      		MOV.B	R10, R12
 230 0078 B013 0000 		CALLA	#clamp
 231 007c 4A4C      		MOV.B	R12, R10
 232 007e 8000 0000 		BRA	#.L15
 233               	.L19:
 234 0082 7E40 1000 		MOV.B	#16, R14
 235               	.L62:
 236 0086 4D43      		MOV.B	#0, R13
 237 0088 8000 0000 		BRA	#.L61
 238               	.L16:
 239 008c 7E40 0700 		MOV.B	#7, R14
 240 0090 8000 0000 		BRA	#.L62
 241               	.L20:
 242 0094 7E40 3F00 		MOV.B	#63, R14
 243 0098 8000 0000 		BRA	#.L62
 244               	.L22:
 245 009c 4018 3AB2 		BITX.W	#8, R10 { JEQ	.L23
 245      0024 
 246 00a2 3A92 0024 		CMP.W	#8, R10 { JEQ	.L23
 247 00a6 7C40 88FF 		MOV.B	#-120, R12
 248 00aa B013 0000 		CALLA	#elyErrorSignal
 249 00ae 7A42      		MOV.B	#8, R10
 250 00b0 8000 0000 		BRA	#.L15
 251               	.L23:
 252 00b4 4018 2AB2 		BITX.W	#4, R10 { JEQ	.L24
 252      0024 
 253 00ba 2A92 0024 		CMP.W	#4, R10 { JEQ	.L24
 254 00be 7C40 88FF 		MOV.B	#-120, R12
 255 00c2 B013 0000 		CALLA	#elyErrorSignal
 256 00c6 6A42      		MOV.B	#4, R10
 257 00c8 8000 0000 		BRA	#.L15
 258               	.L24:
 259 00cc 4018 2AB3 		BITX.W	#2, R10 { JEQ	.L25
 259      0024 
 260 00d2 2A93 0024 		CMP.W	#2, R10 { JEQ	.L25
 261 00d6 7C40 88FF 		MOV.B	#-120, R12
 262 00da B013 0000 		CALLA	#elyErrorSignal
 263 00de 6A43      		MOV.B	#2, R10
 264 00e0 8000 0000 		BRA	#.L15
 265               	.L25:
 266 00e4 4018 1AB3 		BITX.W	#1, R10 { JEQ	.L26
 266      0024 
 267 00ea 1A93 0024 		CMP.W	#1, R10 { JEQ	.L26
 268 00ee 7C40 88FF 		MOV.B	#-120, R12
 269 00f2 B013 0000 		CALLA	#elyErrorSignal
 270 00f6 5A43      		MOV.B	#1, R10
 271 00f8 8000 0000 		BRA	#.L15
 272               	.L26:
 273 00fc 7AB0 D0FF 		BIT.B	#-48, R10 { JEQ	.L15
 273      0024 
GAS LISTING /tmp/cc1Rywi5.s 			page 6


 274 0102 7C40 88FF 		MOV.B	#-120, R12
 275 0106 B013 0000 		CALLA	#elyErrorSignal
 276 010a 4A43      		MOV.B	#0, R10
 277 010c 8000 0000 		BRA	#.L15
 278               		.size	elyNLClampReg, .-elyNLClampReg
 279               		.section	.text.elyNLChangeMaxLengthS,"ax",@progbits
 280               		.balign 2
 281               		.global	elyNLChangeMaxLengthS
 282               		.type	elyNLChangeMaxLengthS, @function
 283               	elyNLChangeMaxLengthS:
 284               	; start of function
 285               	; framesize_regs:     12
 286               	; framesize_locals:   4
 287               	; framesize_outgoing: 0
 288               	; framesize:          16
 289               	; elim ap -> fp       16
 290               	; elim fp -> sp       4
 291               	; saved regs: R6 R8 R10
 292               		; start of prologue
 293 0000 0A14      		PUSHM.A	#1, R10
 294 0002 0814      		PUSHM.A	#1, R8
 295 0004 0614      		PUSHM.A	#1, R6
 296 0006 B100 0400 		SUBA	#4, R1
 297               		; end of prologue
 298 000a 710C 0000 		MOVA	R12, @R1
 299 000e 8800 0000 		MOVA	#chPoolAllocI, R8
 300 0012 8600 0000 		MOVA	#main_mpool, R6
 301               	.L64:
 302 0016 CC06      		MOVA	R6, R12
 303 0018 4813      		CALLA	R8
 304 001a 9C00 0000 		CMPA	#0, R12 { JNE	.L64
 304      0020 
 305 0020 CA0C      		MOVA	R12, R10
 306 0022 8600 0000 		MOVA	#main_mpool, R6
 307 0026 8800 0000 		MOVA	#chPoolFreeI, R8
 308               	.L65:
 309 002a CD0A      		MOVA	R10, R13
 310 002c AD00 0000 		ADDA	#mpool_storage, R13
 311 0030 8C00 0000 		MOVA	#main_mpool, R12
 312 0034 4813      		CALLA	R8
 313 0036 0018 5A52 		ADDX.A	&elyNLMaxLen, R10
 313      0000 
 314 003c 3C40 FF1F 		MOV.W	#8191, R12
 315 0040 DC0A 002C 		CMPA	R10, R12 { JHS	.L65
 316 0044 0018 E241 		MOVX.A	@R1, &elyNLMaxLen
 316      0000 
 317 004a A641 0400 		MOV.W	@R1, 4(R6)
 318 004e 0D01      		MOVA	@R1, R13
 319 0050 0D14 0C17 		PUSHM.A	#1,R13 { POPM.W	#1,R12 { POPM.W	#1,R12
 319      0C17 
 320 0056 7CF0 0F00 		AND.B	#15, R12
 321 005a 5D46 0600 		MOV.B	6(R6), R13
 322 005e 7DF0 F0FF 		AND.B	#-16, R13
 323 0062 4DDC      		BIS.B	R12, R13
 324 0064 C64D 0600 		MOV.B	R13, 6(R6)
 325               		; start of epilogue
 326 0068 A100 0400 		ADDA	#4, R1
GAS LISTING /tmp/cc1Rywi5.s 			page 7


 327 006c 0616      		POPM.A	#1, r6
 328 006e 0816      		POPM.A	#1, r8
 329 0070 0A16      		POPM.A	#1, r10
 330 0072 1001      		RETA
 331               		.size	elyNLChangeMaxLengthS, .-elyNLChangeMaxLengthS
 332               		.section	.text.elyNLGetBuffer,"ax",@progbits
 333               		.balign 2
 334               		.global	elyNLGetBuffer
 335               		.type	elyNLGetBuffer, @function
 336               	elyNLGetBuffer:
 337               	; start of function
 338               	; framesize_regs:     0
 339               	; framesize_locals:   0
 340               	; framesize_outgoing: 0
 341               	; framesize:          0
 342               	; elim ap -> fp       4
 343               	; elim fp -> sp       0
 344               	; saved regs:(none)
 345               		; start of prologue
 346               		; end of prologue
 347 0000 8C00 0000 		MOVA	#main_mpool, R12
 348 0004 B013 0000 		CALLA	#chPoolAlloc
 349               		; start of epilogue
 350 0008 1001      		RETA
 351               		.size	elyNLGetBuffer, .-elyNLGetBuffer
 352               		.section	.text.elyNLFreeBuffer,"ax",@progbits
 353               		.balign 2
 354               		.global	elyNLFreeBuffer
 355               		.type	elyNLFreeBuffer, @function
 356               	elyNLFreeBuffer:
 357               	; start of function
 358               	; framesize_regs:     0
 359               	; framesize_locals:   0
 360               	; framesize_outgoing: 0
 361               	; framesize:          0
 362               	; elim ap -> fp       4
 363               	; elim fp -> sp       0
 364               	; saved regs:(none)
 365               		; start of prologue
 366               		; end of prologue
 367 0000 CD0C      		MOVA	R12, R13
 368 0002 8C00 0000 		MOVA	#main_mpool, R12
 369 0006 B013 0000 		CALLA	#chPoolFree
 370               		; start of epilogue
 371 000a 1001      		RETA
 372               		.size	elyNLFreeBuffer, .-elyNLFreeBuffer
 373               		.section	.text.elyNLGetBufferI,"ax",@progbits
 374               		.balign 2
 375               		.global	elyNLGetBufferI
 376               		.type	elyNLGetBufferI, @function
 377               	elyNLGetBufferI:
 378               	; start of function
 379               	; framesize_regs:     0
 380               	; framesize_locals:   0
 381               	; framesize_outgoing: 0
 382               	; framesize:          0
 383               	; elim ap -> fp       4
GAS LISTING /tmp/cc1Rywi5.s 			page 8


 384               	; elim fp -> sp       0
 385               	; saved regs:(none)
 386               		; start of prologue
 387               		; end of prologue
 388 0000 8C00 0000 		MOVA	#main_mpool, R12
 389 0004 B013 0000 		CALLA	#chPoolAllocI
 390               		; start of epilogue
 391 0008 1001      		RETA
 392               		.size	elyNLGetBufferI, .-elyNLGetBufferI
 393               		.section	.text.elyNLFreeBufferI,"ax",@progbits
 394               		.balign 2
 395               		.global	elyNLFreeBufferI
 396               		.type	elyNLFreeBufferI, @function
 397               	elyNLFreeBufferI:
 398               	; start of function
 399               	; framesize_regs:     0
 400               	; framesize_locals:   0
 401               	; framesize_outgoing: 0
 402               	; framesize:          0
 403               	; elim ap -> fp       4
 404               	; elim fp -> sp       0
 405               	; saved regs:(none)
 406               		; start of prologue
 407               		; end of prologue
 408 0000 CD0C      		MOVA	R12, R13
 409 0002 8C00 0000 		MOVA	#main_mpool, R12
 410 0006 B013 0000 		CALLA	#chPoolFreeI
 411               		; start of epilogue
 412 000a 1001      		RETA
 413               		.size	elyNLFreeBufferI, .-elyNLFreeBufferI
 414               		.section	.text.elyNLGetDest,"ax",@progbits
 415               		.balign 2
 416               		.global	elyNLGetDest
 417               		.type	elyNLGetDest, @function
 418               	elyNLGetDest:
 419               	; start of function
 420               	; framesize_regs:     0
 421               	; framesize_locals:   0
 422               	; framesize_outgoing: 0
 423               	; framesize:          0
 424               	; elim ap -> fp       4
 425               	; elim fp -> sp       0
 426               	; saved regs:(none)
 427               		; start of prologue
 428               		; end of prologue
 429 0000 2C00 0000 		MOVA	&bank0p, R12
 430 0004 5E4C 8300 		MOV.B	131(R12), R14
 431 0008 4718 0E5E 		rpt	#8 { rlax.w	R14
 432 000c 5C4C 8200 		MOV.B	130(R12), R12
 433 0010 0EDC      		BIS.W	R12, R14
 434 0012 5C43      		MOV.B	#1, R12
 435 0014 0E9D 0024 		CMP.W	R13, R14 { JEQ	.L73
 436 0018 4C43      		MOV.B	#0, R12
 437               	.L73:
 438               		; start of epilogue
 439 001a 1001      		RETA
 440               		.size	elyNLGetDest, .-elyNLGetDest
GAS LISTING /tmp/cc1Rywi5.s 			page 9


 441               		.section	.text.is_fw_buf,"ax",@progbits
 442               		.balign 2
 443               		.global	is_fw_buf
 444               		.type	is_fw_buf, @function
 445               	is_fw_buf:
 446               	; start of function
 447               	; framesize_regs:     4
 448               	; framesize_locals:   0
 449               	; framesize_outgoing: 0
 450               	; framesize:          4
 451               	; elim ap -> fp       8
 452               	; elim fp -> sp       0
 453               	; saved regs: R10
 454               		; start of prologue
 455 0000 0A14      		PUSHM.A	#1, R10
 456               		; end of prologue
 457 0002 6D4C      		MOV.B	@R12, R13
 458 0004 0E4D      		MOV.W	R13, R14
 459 0006 4718 0E5E 		rpt	#8 { rlax.w	R14
 460 000a 3EF0 0007 		AND.W	#1792, R14
 461 000e 5C4C 0100 		MOV.B	1(R12), R12
 462 0012 0CDE      		BIS.W	R14, R12
 463 0014 2A00 0000 		MOVA	&bank0p, R10
 464 0018 5E4A 5100 		MOV.B	81(R10), R14
 465 001c 4718 0E5E 		rpt	#8 { rlax.w	R14
 466 0020 5A4A 5000 		MOV.B	80(R10), R10
 467 0024 0EDA      		BIS.W	R10, R14
 468 0026 0C9E 0020 		CMP.W	R14, R12 { JNE	.L76
 469 002a 0C4D      		MOV.W	R13, R12
 470 002c 5C0F      		rrum.w	#4, R12
 471 002e 5CE3      		XOR.B	#1, R12
 472 0030 5CF3      		AND.B	#1, R12
 473               	.L75:
 474               		; start of epilogue
 475 0032 0A16      		POPM.A	#1, r10
 476 0034 1001      		RETA
 477               	.L76:
 478 0036 4C43      		MOV.B	#0, R12
 479 0038 8000 0000 		BRA	#.L75
 480               		.size	is_fw_buf, .-is_fw_buf
 481               		.section	.text.elyNLFreeBufferChecked,"ax",@progbits
 482               		.balign 2
 483               		.global	elyNLFreeBufferChecked
 484               		.type	elyNLFreeBufferChecked, @function
 485               	elyNLFreeBufferChecked:
 486               	; start of function
 487               	; framesize_regs:     4
 488               	; framesize_locals:   0
 489               	; framesize_outgoing: 0
 490               	; framesize:          4
 491               	; elim ap -> fp       8
 492               	; elim fp -> sp       0
 493               	; saved regs: R10
 494               		; start of prologue
 495 0000 0A14      		PUSHM.A	#1, R10
 496               		; end of prologue
 497 0002 CA0C      		MOVA	R12, R10
GAS LISTING /tmp/cc1Rywi5.s 			page 10


 498 0004 B013 0000 		CALLA	#is_fw_buf
 499 0008 4C93 0024 		CMP.B	#0, R12 { JEQ	.L78
 500 000c CC0A      		MOVA	R10, R12
 501 000e B013 0000 		CALLA	#elyFWFreeBuffer
 502               	.L77:
 503               		; start of epilogue
 504 0012 0A16      		POPM.A	#1, r10
 505 0014 1001      		RETA
 506               	.L78:
 507 0016 CC0A      		MOVA	R10, R12
 508 0018 B013 0000 		CALLA	#elyNLFreeBuffer
 509 001c 8000 0000 		BRA	#.L77
 510               		.size	elyNLFreeBufferChecked, .-elyNLFreeBufferChecked
 511               		.section	.text.elyNLFreeBufferCheckedI,"ax",@progbits
 512               		.balign 2
 513               		.global	elyNLFreeBufferCheckedI
 514               		.type	elyNLFreeBufferCheckedI, @function
 515               	elyNLFreeBufferCheckedI:
 516               	; start of function
 517               	; framesize_regs:     4
 518               	; framesize_locals:   0
 519               	; framesize_outgoing: 0
 520               	; framesize:          4
 521               	; elim ap -> fp       8
 522               	; elim fp -> sp       0
 523               	; saved regs: R10
 524               		; start of prologue
 525 0000 0A14      		PUSHM.A	#1, R10
 526               		; end of prologue
 527 0002 CA0C      		MOVA	R12, R10
 528 0004 B013 0000 		CALLA	#is_fw_buf
 529 0008 4C93 0024 		CMP.B	#0, R12 { JEQ	.L81
 530 000c CC0A      		MOVA	R10, R12
 531 000e B013 0000 		CALLA	#elyFWFreeBufferI
 532               	.L80:
 533               		; start of epilogue
 534 0012 0A16      		POPM.A	#1, r10
 535 0014 1001      		RETA
 536               	.L81:
 537 0016 CC0A      		MOVA	R10, R12
 538 0018 B013 0000 		CALLA	#elyNLFreeBufferI
 539 001c 8000 0000 		BRA	#.L80
 540               		.size	elyNLFreeBufferCheckedI, .-elyNLFreeBufferCheckedI
 541               		.section	.text.elyNLInit,"ax",@progbits
 542               		.balign 2
 543               		.global	elyNLInit
 544               		.type	elyNLInit, @function
 545               	elyNLInit:
 546               	; start of function
 547               	; framesize_regs:     0
 548               	; framesize_locals:   0
 549               	; framesize_outgoing: 0
 550               	; framesize:          0
 551               	; elim ap -> fp       4
 552               	; elim fp -> sp       0
 553               	; saved regs:(none)
 554               		; start of prologue
GAS LISTING /tmp/cc1Rywi5.s 			page 11


 555               		; end of prologue
 556 0000 0018 C243 		MOVX.A	#0, &sh_len
 556      0000 
 557               		; start of epilogue
 558 0006 1001      		RETA
 559               		.size	elyNLInit, .-elyNLInit
 560               		.section	.text.elyNLSetHeader,"ax",@progbits
 561               		.balign 2
 562               		.global	elyNLSetHeader
 563               		.type	elyNLSetHeader, @function
 564               	elyNLSetHeader:
 565               	; start of function
 566               	; framesize_regs:     4
 567               	; framesize_locals:   0
 568               	; framesize_outgoing: 0
 569               	; framesize:          4
 570               	; elim ap -> fp       8
 571               	; elim fp -> sp       0
 572               	; saved regs: R10
 573               		; start of prologue
 574 0000 0A14      		PUSHM.A	#1, R10
 575               		; end of prologue
 576 0002 2E00 0000 		MOVA	&bank0p, R14
 577 0006 5F4E 5100 		MOV.B	81(R14), R15
 578 000a 4718 0F5F 		rpt	#8 { rlax.w	R15
 579 000e 5A4E 5000 		MOV.B	80(R14), R10
 580 0012 0FDA      		BIS.W	R10, R15
 581 0014 0B4F      		MOV.W	R15, R11
 582 0016 5B0F 5B0F 		rrum.w	#4, R11 { rrum.w	#4, R11 
 583 001a CC4B 0000 		MOV.B	R11, @R12
 584 001e CC4F 0100 		MOV.B	R15, 1(R12)
 585 0022 4018 1F42 		MOVX.W	&sh_len, R15
 585      0000 
 586 0028 3F53      		ADD.W	#-1, R15
 587 002a 0D5F      		ADD.W	R15, R13
 588 002c 0F4D      		MOV.W	R13, R15
 589 002e 5F0F 5F0F 		rrum.w	#4, R15 { rrum.w	#4, R15 
 590 0032 CC4F 0400 		MOV.B	R15, 4(R12)
 591 0036 CC4D 0500 		MOV.B	R13, 5(R12)
 592 003a 5D4E 8600 		MOV.B	134(R14), R13
 593 003e 4018 2DB2 		BITX.W	#4, R13 { JEQ	.L85
 593      0024 
 594               	 ; 347 "../ChibiOS-Contrib/os/common/ports/MSP430X/chcore.h" 1
 595 0044 32C2 0343 		dint { nop
 596               	 ; 0 "" 2
 597               	 ; 348 "../ChibiOS-Contrib/os/common/ports/MSP430X/chcore.h" 1
 598 0048 0343      		nop
 599               	 ; 0 "" 2
 600 004a DC4E 8500 		MOV.B	133(R14), 2(R12)
 600      0200 
 601 0050 DC4E 8400 		MOV.B	132(R14), 3(R12)
 601      0300 
 602               	 ; 355 "../ChibiOS-Contrib/os/common/ports/MSP430X/chcore.h" 1
 603 0056 0343      		nop
 604               	 ; 0 "" 2
 605               	 ; 356 "../ChibiOS-Contrib/os/common/ports/MSP430X/chcore.h" 1
 606 0058 0343 32D2 		nop { eint { nop
GAS LISTING /tmp/cc1Rywi5.s 			page 12


 606      0343 
 607               	 ; 0 "" 2
 608               	.L86:
 609 005e 4018 1F42 		MOVX.W	&packets_sent, R15
 609      0000 
 610 0064 1F53      		ADD.W	#1, R15
 611 0066 3FF0 FF3F 		AND.W	#16383, R15
 612 006a 4018 824F 		MOVX.W	R15, &packets_sent
 612      0000 
 613 0070 4018 2DB3 		BITX.W	#2, R13 { JEQ	.L84
 613      0024 
 614 0076 FCD2 0000 		BIS.B	#8, @R12
 615 007a 4018 1DB3 		BITX.W	#1, R13 { JEQ	.L88
 615      0024 
 616 0080 FC40 2C00 		MOV.B	#44, 6(R12)
 616      0600 
 617               	 ; 347 "../ChibiOS-Contrib/os/common/ports/MSP430X/chcore.h" 1
 618 0086 32C2 0343 		dint { nop
 619               	 ; 0 "" 2
 620               	 ; 348 "../ChibiOS-Contrib/os/common/ports/MSP430X/chcore.h" 1
 621 008a 0343      		nop
 622               	 ; 0 "" 2
 623 008c DC4E 7600 		MOV.B	118(R14), 7(R12)
 623      0700 
 624 0092 DC4E 7500 		MOV.B	117(R14), 8(R12)
 624      0800 
 625 0098 DC4E 7400 		MOV.B	116(R14), 9(R12)
 625      0900 
 626 009e DC4E 7300 		MOV.B	115(R14), 10(R12)
 626      0A00 
 627               	.L92:
 628               	 ; 355 "../ChibiOS-Contrib/os/common/ports/MSP430X/chcore.h" 1
 629 00a4 0343      		nop
 630               	 ; 0 "" 2
 631               	 ; 356 "../ChibiOS-Contrib/os/common/ports/MSP430X/chcore.h" 1
 632 00a6 0343 32D2 		nop { eint { nop
 632      0343 
 633               	 ; 0 "" 2
 634               	.L84:
 635               		; start of epilogue
 636 00ac 0A16      		POPM.A	#1, r10
 637 00ae 1001      		RETA
 638               	.L85:
 639 00b0 4018 1F42 		MOVX.W	&packets_sent, R15
 639      0000 
 640 00b6 0B4F      		MOV.W	R15, R11
 641 00b8 5B0F 5B0F 		rrum.w	#4, R11 { rrum.w	#4, R11 
 642 00bc 7BD0 C0FF 		BIS.B	#-64, R11
 643 00c0 CC4B 0200 		MOV.B	R11, 2(R12)
 644 00c4 CC4F 0300 		MOV.B	R15, 3(R12)
 645 00c8 8000 0000 		BRA	#.L86
 646               	.L88:
 647               	 ; 347 "../ChibiOS-Contrib/os/common/ports/MSP430X/chcore.h" 1
 648 00cc 32C2 0343 		dint { nop
 649               	 ; 0 "" 2
 650               	 ; 348 "../ChibiOS-Contrib/os/common/ports/MSP430X/chcore.h" 1
 651 00d0 0343      		nop
GAS LISTING /tmp/cc1Rywi5.s 			page 13


 652               	 ; 0 "" 2
 653 00d2 DC4E 7600 		MOV.B	118(R14), 6(R12)
 653      0600 
 654 00d8 DC4E 7500 		MOV.B	117(R14), 7(R12)
 654      0700 
 655 00de DC4E 7400 		MOV.B	116(R14), 8(R12)
 655      0800 
 656 00e4 DC4E 7300 		MOV.B	115(R14), 9(R12)
 656      0900 
 657 00ea 8000 0000 		BRA	#.L92
 658               		.size	elyNLSetHeader, .-elyNLSetHeader
 659               		.section	.text.elyNLGetLength,"ax",@progbits
 660               		.balign 2
 661               		.global	elyNLGetLength
 662               		.type	elyNLGetLength, @function
 663               	elyNLGetLength:
 664               	; start of function
 665               	; framesize_regs:     0
 666               	; framesize_locals:   0
 667               	; framesize_outgoing: 0
 668               	; framesize:          0
 669               	; elim ap -> fp       4
 670               	; elim fp -> sp       0
 671               	; saved regs:(none)
 672               		; start of prologue
 673               		; end of prologue
 674 0000 5D4C 0400 		MOV.B	4(R12), R13
 675 0004 4718 0D5D 		rpt	#8 { rlax.w	R13
 676 0008 5C4C 0500 		MOV.B	5(R12), R12
 677 000c 0CDD      		BIS.W	R13, R12
 678 000e 3C50 0700 		ADD.W	#7, R12
 679 0012 4C0E 4C0D 		RLAM.A #4, R12 { RRAM.A #4, R12
 680               		; start of epilogue
 681 0016 1001      		RETA
 682               		.size	elyNLGetLength, .-elyNLGetLength
 683               		.section	.text.elyNLValidate,"ax",@progbits
 684               		.balign 2
 685               		.global	elyNLValidate
 686               		.type	elyNLValidate, @function
 687               	elyNLValidate:
 688               	; start of function
 689               	; framesize_regs:     4
 690               	; framesize_locals:   0
 691               	; framesize_outgoing: 0
 692               	; framesize:          4
 693               	; elim ap -> fp       8
 694               	; elim fp -> sp       0
 695               	; saved regs: R10
 696               		; start of prologue
 697 0000 0A14      		PUSHM.A	#1, R10
 698               		; end of prologue
 699 0002 FCB0 E0FF 		BIT.B	#-32, @R12 { JEQ	.L95
 699      0000 0024 
 700 000a 7C40 A0FF 		MOV.B	#-96, R12
 701               	.L98:
 702 000e B013 0000 		CALLA	#elyErrorSignal
 703 0012 4C43      		MOV.B	#0, R12
GAS LISTING /tmp/cc1Rywi5.s 			page 14


 704               	.L96:
 705               		; start of epilogue
 706 0014 0A16      		POPM.A	#1, r10
 707 0016 1001      		RETA
 708               	.L95:
 709               	 ; 347 "../ChibiOS-Contrib/os/common/ports/MSP430X/chcore.h" 1
 710 0018 32C2 0343 		dint { nop
 711               	 ; 0 "" 2
 712               	 ; 348 "../ChibiOS-Contrib/os/common/ports/MSP430X/chcore.h" 1
 713 001c 0343      		nop
 714               	 ; 0 "" 2
 715 001e B013 0000 		CALLA	#elyNLGetLength
 716 0022 2A00 0000 		MOVA	&bank0p, R10
 717 0026 5E4A 8100 		MOV.B	129(R10), R14
 718 002a 4718 0E5E 		rpt	#8 { rlax.w	R14
 719 002e 5A4A 8000 		MOV.B	128(R10), R10
 720 0032 0EDA      		BIS.W	R10, R14
 721 0034 4018 0E4E 		MOVX	R14, R14
 722 0038 DE0C 002C 		CMPA	R12, R14 { JHS	.L97
 723               	 ; 355 "../ChibiOS-Contrib/os/common/ports/MSP430X/chcore.h" 1
 724 003c 0343      		nop
 725               	 ; 0 "" 2
 726               	 ; 356 "../ChibiOS-Contrib/os/common/ports/MSP430X/chcore.h" 1
 727 003e 0343 32D2 		nop { eint { nop
 727      0343 
 728               	 ; 0 "" 2
 729 0044 7C40 A1FF 		MOV.B	#-95, R12
 730 0048 8000 0000 		BRA	#.L98
 731               	.L97:
 732               	 ; 355 "../ChibiOS-Contrib/os/common/ports/MSP430X/chcore.h" 1
 733 004c 0343      		nop
 734               	 ; 0 "" 2
 735               	 ; 356 "../ChibiOS-Contrib/os/common/ports/MSP430X/chcore.h" 1
 736 004e 0343 32D2 		nop { eint { nop
 736      0343 
 737               	 ; 0 "" 2
 738 0054 5C43      		MOV.B	#1, R12
 739 0056 8000 0000 		BRA	#.L96
 740               		.size	elyNLValidate, .-elyNLValidate
 741               		.section	.text.nl_route,"ax",@progbits
 742               		.balign 2
 743               		.type	nl_route, @function
 744               	nl_route:
 745               	; start of function
 746               	; framesize_regs:     16
 747               	; framesize_locals:   0
 748               	; framesize_outgoing: 0
 749               	; framesize:          16
 750               	; elim ap -> fp       20
 751               	; elim fp -> sp       0
 752               	; saved regs: R4 R6 R8 R10
 753               		; start of prologue
 754 0000 0A14      		PUSHM.A	#1, R10
 755 0002 0814      		PUSHM.A	#1, R8
 756 0004 0614      		PUSHM.A	#1, R6
 757 0006 0414      		PUSHM.A	#1, R4
 758               		; end of prologue
GAS LISTING /tmp/cc1Rywi5.s 			page 15


 759 0008 CA0C      		MOVA	R12, R10
 760 000a C40D      		MOVA	R13, R4
 761 000c C60E      		MOVA	R14, R6
 762 000e C80F      		MOVA	R15, R8
 763 0010 B013 0000 		CALLA	#elyNLValidate
 764 0014 4C93 0020 		CMP.B	#0, R12 { JNE	.L100
 765               	.L108:
 766 0018 CC0A      		MOVA	R10, R12
 767 001a B013 0000 		CALLA	#elyNLFreeBuffer
 768               	.L99:
 769               		; start of epilogue
 770 001e 0416      		POPM.A	#1, r4
 771 0020 0616      		POPM.A	#1, r6
 772 0022 0816      		POPM.A	#1, r8
 773 0024 0A16      		POPM.A	#1, r10
 774 0026 1001      		RETA
 775               	.L100:
 776 0028 6E4A      		MOV.B	@R10, R14
 777 002a 0D4E      		MOV.W	R14, R13
 778 002c 4718 0D5D 		rpt	#8 { rlax.w	R13
 779 0030 3DF0 0007 		AND.W	#1792, R13
 780 0034 5C4A 0100 		MOV.B	1(R10), R12
 781 0038 0DDC      		BIS.W	R12, R13
 782 003a 2C00 0000 		MOVA	&bank0p, R12
 783 003e 5F4C 5100 		MOV.B	81(R12), R15
 784 0042 4718 0F5F 		rpt	#8 { rlax.w	R15
 785 0046 5C4C 5000 		MOV.B	80(R12), R12
 786 004a 0FDC      		BIS.W	R12, R15
 787 004c 0D9F 0020 		CMP.W	R15, R13 { JNE	.L102
 788 0050 4018 3EB0 		BITX.W	#16, R14 { JEQ	.L103
 788      1000 0024 
 789 0058 CC0A      		MOVA	R10, R12
 790 005a 4613      		CALLA	R6
 791               	.L106:
 792 005c 9C00 0000 		CMPA	#0, R12 { JEQ	.L99
 792      0024 
 793 0062 8C00 0000 		MOVA	#__func__.4860, R12
 794 0066 B013 0000 		CALLA	#chSysHalt
 795 006a 8000 0000 		BRA	#.L108
 796               	.L103:
 797 006e 7ED0 1000 		BIS.B	#16, R14
 798 0072 CA4E 0000 		MOV.B	R14, @R10
 799 0076 CC0A      		MOVA	R10, R12
 800 0078 4813      		CALLA	R8
 801 007a 8000 0000 		BRA	#.L106
 802               	.L102:
 803 007e CC0A      		MOVA	R10, R12
 804 0080 4413      		CALLA	R4
 805 0082 8000 0000 		BRA	#.L106
 806               		.size	nl_route, .-nl_route
 807               		.section	.text.elyNLRouteUART,"ax",@progbits
 808               		.balign 2
 809               		.global	elyNLRouteUART
 810               		.type	elyNLRouteUART, @function
 811               	elyNLRouteUART:
 812               	; start of function
 813               	; framesize_regs:     0
GAS LISTING /tmp/cc1Rywi5.s 			page 16


 814               	; framesize_locals:   0
 815               	; framesize_outgoing: 0
 816               	; framesize:          0
 817               	; elim ap -> fp       4
 818               	; elim fp -> sp       0
 819               	; saved regs:(none)
 820               		; start of prologue
 821               		; end of prologue
 822 0000 8F00 0000 		MOVA	#uart_pass, R15
 823 0004 8E00 0000 		MOVA	#fw, R14
 824 0008 8D00 0000 		MOVA	#rf_pass, R13
 825 000c B013 0000 		CALLA	#nl_route
 826               		; start of epilogue
 827 0010 1001      		RETA
 828               		.size	elyNLRouteUART, .-elyNLRouteUART
 829               		.section	.text.elyNLRouteRF,"ax",@progbits
 830               		.balign 2
 831               		.global	elyNLRouteRF
 832               		.type	elyNLRouteRF, @function
 833               	elyNLRouteRF:
 834               	; start of function
 835               	; framesize_regs:     0
 836               	; framesize_locals:   0
 837               	; framesize_outgoing: 0
 838               	; framesize:          0
 839               	; elim ap -> fp       4
 840               	; elim fp -> sp       0
 841               	; saved regs:(none)
 842               		; start of prologue
 843               		; end of prologue
 844 0000 8F00 0000 		MOVA	#rf_pass, R15
 845 0004 8E00 0000 		MOVA	#fw, R14
 846 0008 8D00 0000 		MOVA	#uart_pass, R13
 847 000c B013 0000 		CALLA	#nl_route
 848               		; start of epilogue
 849 0010 1001      		RETA
 850               		.size	elyNLRouteRF, .-elyNLRouteRF
 851               		.section	.text.elyNLRouteRFI,"ax",@progbits
 852               		.balign 2
 853               		.global	elyNLRouteRFI
 854               		.type	elyNLRouteRFI, @function
 855               	elyNLRouteRFI:
 856               	; start of function
 857               	; framesize_regs:     0
 858               	; framesize_locals:   0
 859               	; framesize_outgoing: 0
 860               	; framesize:          0
 861               	; elim ap -> fp       4
 862               	; elim fp -> sp       0
 863               	; saved regs:(none)
 864               		; start of prologue
 865               		; end of prologue
 866 0000 8F00 0000 		MOVA	#rf_pass_i, R15
 867 0004 8E00 0000 		MOVA	#fw_i, R14
 868 0008 8D00 0000 		MOVA	#uart_pass_i, R13
 869 000c B013 0000 		CALLA	#nl_route
 870               		; start of epilogue
GAS LISTING /tmp/cc1Rywi5.s 			page 17


 871 0010 1001      		RETA
 872               		.size	elyNLRouteRFI, .-elyNLRouteRFI
 873               		.section	.text.elyNLGetPayloadLength,"ax",@progbits
 874               		.balign 2
 875               		.global	elyNLGetPayloadLength
 876               		.type	elyNLGetPayloadLength, @function
 877               	elyNLGetPayloadLength:
 878               	; start of function
 879               	; framesize_regs:     0
 880               	; framesize_locals:   0
 881               	; framesize_outgoing: 0
 882               	; framesize:          0
 883               	; elim ap -> fp       4
 884               	; elim fp -> sp       0
 885               	; saved regs:(none)
 886               		; start of prologue
 887               		; end of prologue
 888 0000 5D4C 0400 		MOV.B	4(R12), R13
 889 0004 4718 0D5D 		rpt	#8 { rlax.w	R13
 890 0008 5C4C 0500 		MOV.B	5(R12), R12
 891 000c 0CDD      		BIS.W	R13, R12
 892 000e 4C0E 4C0D 		RLAM.A #4, R12 { RRAM.A #4, R12
 893 0012 5E43      		MOV.B	#1, R14
 894 0014 0018 5E82 		SUBX.A	&sh_len, R14
 894      0000 
 895 001a EC0E      		ADDA	R14, R12
 896               		; start of epilogue
 897 001c 1001      		RETA
 898               		.size	elyNLGetPayloadLength, .-elyNLGetPayloadLength
 899               		.section	.text.elyNLToFW,"ax",@progbits
 900               		.balign 2
 901               		.global	elyNLToFW
 902               		.type	elyNLToFW, @function
 903               	elyNLToFW:
 904               	; start of function
 905               	; framesize_regs:     0
 906               	; framesize_locals:   0
 907               	; framesize_outgoing: 0
 908               	; framesize:          0
 909               	; elim ap -> fp       4
 910               	; elim fp -> sp       0
 911               	; saved regs:(none)
 912               		; start of prologue
 913               		; end of prologue
 914 0000 2E00 0000 		MOVA	&sh_len, R14
 915 0004 AE00 0600 		ADDA	#6, R14
 916 0008 EC0E      		ADDA	R14, R12
 917               		; start of epilogue
 918 000a 1001      		RETA
 919               		.size	elyNLToFW, .-elyNLToFW
 920               		.section	.text.elyNLFromFW,"ax",@progbits
 921               		.balign 2
 922               		.global	elyNLFromFW
 923               		.type	elyNLFromFW, @function
 924               	elyNLFromFW:
 925               	; start of function
 926               	; framesize_regs:     0
GAS LISTING /tmp/cc1Rywi5.s 			page 18


 927               	; framesize_locals:   0
 928               	; framesize_outgoing: 0
 929               	; framesize:          0
 930               	; elim ap -> fp       4
 931               	; elim fp -> sp       0
 932               	; saved regs:(none)
 933               		; start of prologue
 934               		; end of prologue
 935 0000 8E0F FAFF 		MOVA	#-6, R14
 936 0004 0018 5E82 		SUBX.A	&sh_len, R14
 936      0000 
 937 000a EC0E      		ADDA	R14, R12
 938               		; start of epilogue
 939 000c 1001      		RETA
 940               		.size	elyNLFromFW, .-elyNLFromFW
 941               		.section	.upper.rodata,"a",@progbits
 942               		.type	__func__.4860, @object
 943               		.size	__func__.4860, 9
 944               	__func__.4860:
 945 0000 6E6C 5F72 		.string	"nl_route"
 945      6F75 7465 
 945      00
 946               		.type	__func__.4816, @object
 947               		.size	__func__.4816, 14
 948               	__func__.4816:
 949 0009 656C 794E 		.string	"elyNLClampReg"
 949      4C43 6C61 
 949      6D70 5265 
 949      6700 
 950               		.section	.persistent,"aw"
 951               		.balign 2
 952               		.type	main_mpool, @object
 953               		.size	main_mpool, 12
 954               	main_mpool:
 955 0000 0000 0000 		.long	0
 956 0004 0008 0000 		.long	2048
 957 0008 0000 0000 		.long	nl_allocator
 958               		.balign 2
 959               		.type	curr_index.4801, @object
 960               		.size	curr_index.4801, 4
 961               	curr_index.4801:
 962 000c 0000 0000 		.zero	4
 963               		.local	sh_len
 964               		.comm	sh_len,4,2
 965               		.global	packets_relayed
 966               		.type	packets_relayed, @object
 967               		.size	packets_relayed, 1
 968               	packets_relayed:
 969 0010 00        		.zero	1
 970               		.global	packets_sent
 971 0011 00        		.balign 2
 972               		.type	packets_sent, @object
 973               		.size	packets_sent, 2
 974               	packets_sent:
 975 0012 0100      		.short	1
 976               		.global	packets_received
 977               		.type	packets_received, @object
GAS LISTING /tmp/cc1Rywi5.s 			page 19


 978               		.size	packets_received, 1
 979               	packets_received:
 980 0014 00        		.zero	1
 981               		.type	mpool_storage, @object
 982               		.size	mpool_storage, 8192
 983               	mpool_storage:
 984 0015 0000 0000 		.zero	8192
 984      0000 0000 
 984      0000 0000 
 984      0000 0000 
 984      0000 0000 
 985               		.global	elyNLMaxLen
 986 2015 00        		.balign 2
 987               		.type	elyNLMaxLen, @object
 988               		.size	elyNLMaxLen, 4
 989               	elyNLMaxLen:
 990 2016 0008 0000 		.long	2048
 991               		.ident	"GCC: (SOMNIUM Technologies Limited - msp430-gcc 6.2.1.16) 6.2.1 20161212"
GAS LISTING /tmp/cc1Rywi5.s 			page 20


DEFINED SYMBOLS
                            *ABS*:0000000000000000 spp.c
     /tmp/cc1Rywi5.s:6      .text.nl_allocator:0000000000000000 nl_allocator
     /tmp/cc1Rywi5.s:961    .persistent:000000000000000c curr_index.4801
     /tmp/cc1Rywi5.s:983    .persistent:0000000000000015 mpool_storage
     /tmp/cc1Rywi5.s:37     .text.clamp:0000000000000000 clamp
     /tmp/cc1Rywi5.s:70     .text.uart_pass:0000000000000000 uart_pass
     /tmp/cc1Rywi5.s:89     .text.fw:0000000000000000 fw
     /tmp/cc1Rywi5.s:108    .text.rf_pass:0000000000000000 rf_pass
     /tmp/cc1Rywi5.s:127    .text.rf_pass_i:0000000000000000 rf_pass_i
     /tmp/cc1Rywi5.s:145    .text.fw_i:0000000000000000 fw_i
     /tmp/cc1Rywi5.s:163    .text.uart_pass_i:0000000000000000 uart_pass_i
     /tmp/cc1Rywi5.s:182    .text.elyNLClampReg:0000000000000000 elyNLClampReg
     /tmp/cc1Rywi5.s:948    .upper.rodata:0000000000000009 __func__.4816
     /tmp/cc1Rywi5.s:283    .text.elyNLChangeMaxLengthS:0000000000000000 elyNLChangeMaxLengthS
     /tmp/cc1Rywi5.s:954    .persistent:0000000000000000 main_mpool
     /tmp/cc1Rywi5.s:989    .persistent:0000000000002016 elyNLMaxLen
     /tmp/cc1Rywi5.s:336    .text.elyNLGetBuffer:0000000000000000 elyNLGetBuffer
     /tmp/cc1Rywi5.s:356    .text.elyNLFreeBuffer:0000000000000000 elyNLFreeBuffer
     /tmp/cc1Rywi5.s:377    .text.elyNLGetBufferI:0000000000000000 elyNLGetBufferI
     /tmp/cc1Rywi5.s:397    .text.elyNLFreeBufferI:0000000000000000 elyNLFreeBufferI
     /tmp/cc1Rywi5.s:418    .text.elyNLGetDest:0000000000000000 elyNLGetDest
     /tmp/cc1Rywi5.s:445    .text.is_fw_buf:0000000000000000 is_fw_buf
     /tmp/cc1Rywi5.s:485    .text.elyNLFreeBufferChecked:0000000000000000 elyNLFreeBufferChecked
     /tmp/cc1Rywi5.s:515    .text.elyNLFreeBufferCheckedI:0000000000000000 elyNLFreeBufferCheckedI
     /tmp/cc1Rywi5.s:545    .text.elyNLInit:0000000000000000 elyNLInit
     /tmp/cc1Rywi5.s:964    .bss:0000000000000000 sh_len
     /tmp/cc1Rywi5.s:564    .text.elyNLSetHeader:0000000000000000 elyNLSetHeader
     /tmp/cc1Rywi5.s:974    .persistent:0000000000000012 packets_sent
     /tmp/cc1Rywi5.s:663    .text.elyNLGetLength:0000000000000000 elyNLGetLength
     /tmp/cc1Rywi5.s:687    .text.elyNLValidate:0000000000000000 elyNLValidate
     /tmp/cc1Rywi5.s:744    .text.nl_route:0000000000000000 nl_route
     /tmp/cc1Rywi5.s:944    .upper.rodata:0000000000000000 __func__.4860
     /tmp/cc1Rywi5.s:811    .text.elyNLRouteUART:0000000000000000 elyNLRouteUART
     /tmp/cc1Rywi5.s:833    .text.elyNLRouteRF:0000000000000000 elyNLRouteRF
     /tmp/cc1Rywi5.s:855    .text.elyNLRouteRFI:0000000000000000 elyNLRouteRFI
     /tmp/cc1Rywi5.s:877    .text.elyNLGetPayloadLength:0000000000000000 elyNLGetPayloadLength
     /tmp/cc1Rywi5.s:903    .text.elyNLToFW:0000000000000000 elyNLToFW
     /tmp/cc1Rywi5.s:924    .text.elyNLFromFW:0000000000000000 elyNLFromFW
     /tmp/cc1Rywi5.s:968    .persistent:0000000000000010 packets_relayed
     /tmp/cc1Rywi5.s:979    .persistent:0000000000000014 packets_received
     /tmp/cc1Rywi5.s:30     .text.nl_allocator:0000000000000020 .L3
     /tmp/cc1Rywi5.s:26     .text.nl_allocator:000000000000001c .L1
     /tmp/cc1Rywi5.s:60     .text.clamp:000000000000001c .L5
     /tmp/cc1Rywi5.s:56     .text.clamp:0000000000000018 .L6
     /tmp/cc1Rywi5.s:202    .text.elyNLClampReg:000000000000001c .L14
     /tmp/cc1Rywi5.s:238    .text.elyNLClampReg:000000000000008c .L16
     /tmp/cc1Rywi5.s:213    .text.elyNLClampReg:000000000000003c .L17
     /tmp/cc1Rywi5.s:225    .text.elyNLClampReg:0000000000000070 .L18
     /tmp/cc1Rywi5.s:233    .text.elyNLClampReg:0000000000000082 .L19
     /tmp/cc1Rywi5.s:241    .text.elyNLClampReg:0000000000000094 .L20
     /tmp/cc1Rywi5.s:208    .text.elyNLClampReg:0000000000000036 .L15
     /tmp/cc1Rywi5.s:244    .text.elyNLClampReg:000000000000009c .L22
     /tmp/cc1Rywi5.s:228    .text.elyNLClampReg:0000000000000076 .L61
     /tmp/cc1Rywi5.s:235    .text.elyNLClampReg:0000000000000086 .L62
     /tmp/cc1Rywi5.s:251    .text.elyNLClampReg:00000000000000b4 .L23
     /tmp/cc1Rywi5.s:258    .text.elyNLClampReg:00000000000000cc .L24
GAS LISTING /tmp/cc1Rywi5.s 			page 21


     /tmp/cc1Rywi5.s:265    .text.elyNLClampReg:00000000000000e4 .L25
     /tmp/cc1Rywi5.s:272    .text.elyNLClampReg:00000000000000fc .L26
     /tmp/cc1Rywi5.s:301    .text.elyNLChangeMaxLengthS:0000000000000016 .L64
     /tmp/cc1Rywi5.s:308    .text.elyNLChangeMaxLengthS:000000000000002a .L65
     /tmp/cc1Rywi5.s:437    .text.elyNLGetDest:000000000000001a .L73
     /tmp/cc1Rywi5.s:477    .text.is_fw_buf:0000000000000036 .L76
     /tmp/cc1Rywi5.s:473    .text.is_fw_buf:0000000000000032 .L75
     /tmp/cc1Rywi5.s:506    .text.elyNLFreeBufferChecked:0000000000000016 .L78
     /tmp/cc1Rywi5.s:502    .text.elyNLFreeBufferChecked:0000000000000012 .L77
     /tmp/cc1Rywi5.s:536    .text.elyNLFreeBufferCheckedI:0000000000000016 .L81
     /tmp/cc1Rywi5.s:532    .text.elyNLFreeBufferCheckedI:0000000000000012 .L80
     /tmp/cc1Rywi5.s:638    .text.elyNLSetHeader:00000000000000b0 .L85
     /tmp/cc1Rywi5.s:634    .text.elyNLSetHeader:00000000000000ac .L84
     /tmp/cc1Rywi5.s:646    .text.elyNLSetHeader:00000000000000cc .L88
     /tmp/cc1Rywi5.s:608    .text.elyNLSetHeader:000000000000005e .L86
     /tmp/cc1Rywi5.s:627    .text.elyNLSetHeader:00000000000000a4 .L92
     /tmp/cc1Rywi5.s:708    .text.elyNLValidate:0000000000000018 .L95
     /tmp/cc1Rywi5.s:731    .text.elyNLValidate:000000000000004c .L97
     /tmp/cc1Rywi5.s:701    .text.elyNLValidate:000000000000000e .L98
     /tmp/cc1Rywi5.s:704    .text.elyNLValidate:0000000000000014 .L96
     /tmp/cc1Rywi5.s:775    .text.nl_route:0000000000000028 .L100
     /tmp/cc1Rywi5.s:802    .text.nl_route:000000000000007e .L102
     /tmp/cc1Rywi5.s:796    .text.nl_route:000000000000006e .L103
     /tmp/cc1Rywi5.s:768    .text.nl_route:000000000000001e .L99
     /tmp/cc1Rywi5.s:765    .text.nl_route:0000000000000018 .L108
     /tmp/cc1Rywi5.s:791    .text.nl_route:000000000000005c .L106

UNDEFINED SYMBOLS
elyErrorSignal
elyUARTPost
elyMainMBPost
elyRFPost
elyRFPostI
elyMainMBPostI
elyUARTPostI
chSysHalt
chPoolAllocI
chPoolFreeI
chPoolAlloc
chPoolFree
bank0p
elyFWFreeBuffer
elyFWFreeBufferI
__crt0_init_bss
