GAS LISTING /tmp/ccy5xk8N.s 			page 1


   1               		.file	"sx1212.c"
   2               		.section	.text.spi_end_cb,"ax",@progbits
   3               		.balign 2
   4               		.type	spi_end_cb, @function
   5               	spi_end_cb:
   6               	; start of function
   7               	; framesize_regs:     4
   8               	; framesize_locals:   0
   9               	; framesize_outgoing: 0
  10               	; framesize:          4
  11               	; elim ap -> fp       8
  12               	; elim fp -> sp       0
  13               	; saved regs: R10
  14               		; start of prologue
  15 0000 0A14      		PUSHM.A	#1, R10
  16               		; end of prologue
  17 0002 8A00 0000 		MOVA	#SX1212D1, R10
  18 0006 3E0A 1800 		MOVA	24(R10), R14
  19 000a 3D0A 1400 		MOVA	20(R10), R13
  20 000e CC0A      		MOVA	R10, R12
  21 0010 3A0A 0C00 		MOVA	12(R10), R10
  22 0014 4A13      		CALLA	R10
  23               		; start of epilogue
  24 0016 0A16      		POPM.A	#1, r10
  25 0018 1001      		RETA
  26               		.size	spi_end_cb, .-spi_end_cb
  27               		.section	.text.blockuntil_callback,"ax",@progbits
  28               		.balign 2
  29               		.type	blockuntil_callback, @function
  30               	blockuntil_callback:
  31               	; start of function
  32               	; framesize_regs:     0
  33               	; framesize_locals:   0
  34               	; framesize_outgoing: 0
  35               	; framesize:          0
  36               	; elim ap -> fp       4
  37               	; elim fp -> sp       0
  38               	; saved regs:(none)
  39               		; start of prologue
  40               		; end of prologue
  41 0000 4D43      		MOV.B	#0, R13
  42 0002 8C00 0000 		MOVA	#tr, R12
  43 0006 B013 0000 		CALLA	#chThdResumeI
  44               		; start of epilogue
  45 000a 1001      		RETA
  46               		.size	blockuntil_callback, .-blockuntil_callback
  47               		.section	.text.sx1212SetRegister.isra.0,"ax",@progbits
  48               		.balign 2
  49               		.type	sx1212SetRegister.isra.0, @function
  50               	sx1212SetRegister.isra.0:
  51               	; start of function
  52               	; framesize_regs:     16
  53               	; framesize_locals:   0
  54               	; framesize_outgoing: 0
  55               	; framesize:          16
  56               	; elim ap -> fp       20
  57               	; elim fp -> sp       0
GAS LISTING /tmp/ccy5xk8N.s 			page 2


  58               	; saved regs: R7 R8 R9 R10
  59               		; start of prologue
  60 0000 3A14      		PUSHM.A	#4, R10
  61               		; end of prologue
  62 0002 CA0C      		MOVA	R12, R10
  63 0004 494D      		MOV.B	R13, R9
  64 0006 474E      		MOV.B	R14, R7
  65 0008 7C40 1E00 		MOV.B	#30, R12
  66 000c 4C99 002C 		CMP.B	R9, R12 { JHS	.L4
  67               	.L6:
  68 0010 8C00 0000 		MOVA	#__func__.4971, R12
  69 0014 B013 0000 		CALLA	#chSysHalt
  70               	.L5:
  71 0018 0C0A      		MOVA	@R10, R12
  72 001a 0C0C      		MOVA	@R12, R12
  73 001c B013 0000 		CALLA	#spi_lld_select
  74 0020 0C0A      		MOVA	@R10, R12
  75 0022 8800 0000 		MOVA	#spi_lld_polled_exchange, R8
  76 0026 0D49      		MOV.W	R9, R13
  77 0028 0D5D      		RLA.W	R13
  78 002a 0C0C      		MOVA	@R12, R12
  79 002c 4813      		CALLA	R8
  80 002e 0C0A      		MOVA	@R10, R12
  81 0030 4D47      		MOV.B	R7, R13
  82 0032 0C0C      		MOVA	@R12, R12
  83 0034 4813      		CALLA	R8
  84 0036 494C      		MOV.B	R12, R9
  85 0038 0C0A      		MOVA	@R10, R12
  86 003a 0C0C      		MOVA	@R12, R12
  87 003c B013 0000 		CALLA	#spi_lld_unselect
  88 0040 4C49      		MOV.B	R9, R12
  89               		; start of epilogue
  90 0042 3716      		POPM.A	#4, r10
  91 0044 1001      		RETA
  92               	.L4:
  93 0046 3990 1400 		CMP.W	#20, R9 { JNE	.L5
  93      0020 
  94 004c 8000 0000 		BRA	#.L6
  95               		.size	sx1212SetRegister.isra.0, .-sx1212SetRegister.isra.0
  96               		.section	.text.sx1212SetMode,"ax",@progbits
  97               		.balign 2
  98               		.type	sx1212SetMode, @function
  99               	sx1212SetMode:
 100               	; start of function
 101               	; framesize_regs:     4
 102               	; framesize_locals:   0
 103               	; framesize_outgoing: 0
 104               	; framesize:          4
 105               	; elim ap -> fp       8
 106               	; elim fp -> sp       0
 107               	; saved regs: R10
 108               		; start of prologue
 109 0000 0A14      		PUSHM.A	#1, R10
 110               		; end of prologue
 111 0002 CA0C      		MOVA	R12, R10
 112 0004 5E4C 0400 		MOV.B	4(R12), R14
 113 0008 7EF0 1F00 		AND.B	#31, R14
GAS LISTING /tmp/ccy5xk8N.s 			page 3


 114 000c 4EDD      		BIS.B	R13, R14
 115 000e CC4E 0400 		MOV.B	R14, 4(R12)
 116 0012 4D43      		MOV.B	#0, R13
 117 0014 B013 0000 		CALLA	#sx1212SetRegister.isra.0
 118               		; start of epilogue
 119 0018 0A16      		POPM.A	#1, r10
 120 001a 1001      		RETA
 121               		.size	sx1212SetMode, .-sx1212SetMode
 122               		.section	.text.sx1212SetFifoThreshold,"ax",@progbits
 123               		.balign 2
 124               		.type	sx1212SetFifoThreshold, @function
 125               	sx1212SetFifoThreshold:
 126               	; start of function
 127               	; framesize_regs:     8
 128               	; framesize_locals:   0
 129               	; framesize_outgoing: 0
 130               	; framesize:          8
 131               	; elim ap -> fp       12
 132               	; elim fp -> sp       0
 133               	; saved regs: R8 R10
 134               		; start of prologue
 135 0000 0A14      		PUSHM.A	#1, R10
 136 0002 0814      		PUSHM.A	#1, R8
 137               		; end of prologue
 138 0004 C80C      		MOVA	R12, R8
 139 0006 4A4D      		MOV.B	R13, R10
 140 0008 7C40 3F00 		MOV.B	#63, R12
 141 000c 4C9A 002C 		CMP.B	R10, R12 { JHS	.L12
 142 0010 8C00 0000 		MOVA	#__func__.5099, R12
 143 0014 B013 0000 		CALLA	#chSysHalt
 144               	.L12:
 145 0018 7AD0 C0FF 		BIS.B	#-64, R10
 146 001c 4E4A      		MOV.B	R10, R14
 147 001e 7D40 0C00 		MOV.B	#12, R13
 148 0022 CC08      		MOVA	R8, R12
 149 0024 B013 0000 		CALLA	#sx1212SetRegister.isra.0
 150 0028 C84A 0500 		MOV.B	R10, 5(R8)
 151               		; start of epilogue
 152 002c 0816      		POPM.A	#1, r8
 153 002e 0A16      		POPM.A	#1, r10
 154 0030 1001      		RETA
 155               		.size	sx1212SetFifoThreshold, .-sx1212SetFifoThreshold
 156               		.section	.text.sx1212Reset.isra.2,"ax",@progbits
 157               		.balign 2
 158               		.type	sx1212Reset.isra.2, @function
 159               	sx1212Reset.isra.2:
 160               	; start of function
 161               	; framesize_regs:     20
 162               	; framesize_locals:   0
 163               	; framesize_outgoing: 0
 164               	; framesize:          20
 165               	; elim ap -> fp       24
 166               	; elim fp -> sp       0
 167               	; saved regs: R6 R7 R8 R9 R10
 168               		; start of prologue
 169 0000 4A14      		PUSHM.A	#5, R10
 170               		; end of prologue
GAS LISTING /tmp/ccy5xk8N.s 			page 4


 171 0002 CA0C      		MOVA	R12, R10
 172 0004 0C0C      		MOVA	@R12, R12
 173 0006 0018 CC93 		CMPX.A	#0, 34(R12) { JNE	.L14
 173      2200 0020 
 174 000e 8C00 0000 		MOVA	#__func__.5081, R12
 175 0012 B013 0000 		CALLA	#chSysHalt
 176               	.L14:
 177 0016 0C0A      		MOVA	@R10, R12
 178 0018 380C 2200 		MOVA	34(R12), R8
 179 001c 0814 4018 		PUSHM.A	#1, R8 { POPX.W	R12 { POPX.W	R13 ; move pointer in R8 into reg-pair R12:R13
 179      3C41 4018 
 179      3D41 
 180 0026 B013 0000 		CALLA	#__mspabi_srll_12
 181 002a 0D12 0C12 		PUSH.W	R13 { PUSH.W	R12 { POPM.A	#1, R12
 181      0C16 
 182 0030 4018 0D4C 		MOVX	R12, R13
 183 0034 5C43      		MOV.B	#1, R12
 184 0036 B013 0000 		CALLA	#__mspabi_slli
 185 003a 8600 0000 		MOVA	#_pal_lld_setgroupmode, R6
 186 003e 7E40 0600 		MOV.B	#6, R14
 187 0042 0D4C      		MOV.W	R12, R13
 188 0044 CC08      		MOVA	R8, R12
 189 0046 0018 7CF0 		ANDX.A	#4095, R12
 189      FF0F 
 190 004c 4613      		CALLA	R6
 191 004e 0C0A      		MOVA	@R10, R12
 192 0050 3C0C 2200 		MOVA	34(R12), R12
 193 0054 C80C      		MOVA	R12, R8
 194 0056 0018 78F0 		ANDX.A	#4095, R8
 194      FF0F 
 195 005c 1948 0200 		MOV.W	2(R8), R9
 196 0060 0C14 4018 		PUSHM.A	#1, R12 { POPX.W	R12 { POPX.W	R13 ; move pointer in R12 into reg-pair R12:R13
 196      3C41 4018 
 196      3D41 
 197 006a B013 0000 		CALLA	#__mspabi_srll_12
 198 006e 0D12 0C12 		PUSH.W	R13 { PUSH.W	R12 { POPM.A	#1, R12
 198      0C16 
 199 0074 4018 0D4C 		MOVX	R12, R13
 200 0078 5C43      		MOV.B	#1, R12
 201 007a B013 0000 		CALLA	#__mspabi_slli
 202 007e 0CD9      		BIS.W	R9, R12
 203 0080 884C 0200 		MOV.W	R12, 2(R8)
 204 0084 8800 0000 		MOVA	#chThdSleep, R8
 205 0088 5C43      		MOV.B	#1, R12
 206 008a 4813      		CALLA	R8
 207 008c 0C0A      		MOVA	@R10, R12
 208 008e 3C0C 2200 		MOVA	34(R12), R12
 209 0092 CA0C      		MOVA	R12, R10
 210 0094 0018 7AF0 		ANDX.A	#4095, R10
 210      FF0F 
 211 009a 194A 0200 		MOV.W	2(R10), R9
 212 009e 0C14 4018 		PUSHM.A	#1, R12 { POPX.W	R12 { POPX.W	R13 ; move pointer in R12 into reg-pair R12:R13
 212      3C41 4018 
 212      3D41 
 213 00a8 B013 0000 		CALLA	#__mspabi_srll_12
 214 00ac 0D12 0C12 		PUSH.W	R13 { PUSH.W	R12 { POPM.A	#1, R12
 214      0C16 
GAS LISTING /tmp/ccy5xk8N.s 			page 5


 215 00b2 4018 074C 		MOVX	R12, R7
 216 00b6 5C43      		MOV.B	#1, R12
 217 00b8 0D47      		MOV.W	R7, R13
 218 00ba B013 0000 		CALLA	#__mspabi_slli
 219 00be 09CC      		BIC.W	R12, R9
 220 00c0 8A49 0200 		MOV.W	R9, 2(R10)
 221 00c4 5C43      		MOV.B	#1, R12
 222 00c6 0D47      		MOV.W	R7, R13
 223 00c8 B013 0000 		CALLA	#__mspabi_slli
 224 00cc 6E42      		MOV.B	#4, R14
 225 00ce 0D4C      		MOV.W	R12, R13
 226 00d0 CC0A      		MOVA	R10, R12
 227 00d2 4613      		CALLA	R6
 228 00d4 7C40 0500 		MOV.B	#5, R12
 229 00d8 4813      		CALLA	R8
 230               		; start of epilogue
 231 00da 4616      		POPM.A	#5, r10
 232 00dc 1001      		RETA
 233               		.size	sx1212Reset.isra.2, .-sx1212Reset.isra.2
 234               		.section	.text.irq_block_with_timeout.isra.3,"ax",@progbits
 235               		.balign 2
 236               		.type	irq_block_with_timeout.isra.3, @function
 237               	irq_block_with_timeout.isra.3:
 238               	; start of function
 239               	; framesize_regs:     16
 240               	; framesize_locals:   0
 241               	; framesize_outgoing: 0
 242               	; framesize:          16
 243               	; elim ap -> fp       20
 244               	; elim fp -> sp       0
 245               	; saved regs: R7 R8 R9 R10
 246               		; start of prologue
 247 0000 3A14      		PUSHM.A	#4, R10
 248               		; end of prologue
 249 0002 074D      		MOV.W	R13, R7
 250               	 ; 347 "../ChibiOS-Contrib/os/common/ports/MSP430X/chcore.h" 1
 251 0004 32C2 0343 		dint { nop
 252               	 ; 0 "" 2
 253               	 ; 348 "../ChibiOS-Contrib/os/common/ports/MSP430X/chcore.h" 1
 254 0008 0343      		nop
 255               	 ; 0 "" 2
 256 000a C80C      		MOVA	R12, R8
 257 000c 0018 78F0 		ANDX.A	#4095, R8
 257      FF0F 
 258 0012 0C14 4018 		PUSHM.A	#1, R12 { POPX.W	R12 { POPX.W	R13 ; move pointer in R12 into reg-pair R12:R13
 258      3C41 4018 
 258      3D41 
 259 001c B013 0000 		CALLA	#__mspabi_srll_12
 260 0020 0D12 0C12 		PUSH.W	R13 { PUSH.W	R12 { POPM.A	#1, R10
 260      0A16 
 261 0026 0A14 4018 		PUSHM.A	#1, R10 { POPX.W	R12 { POPX.W	R13 ; move pointer in R10 into reg-pair R12:R13
 261      3C41 4018 
 261      3D41 
 262 0030 494C      		MOV.B	R12, R9
 263 0032 8F00 0000 		MOVA	#blockuntil_callback, R15
 264 0036 5E43      		MOV.B	#1, R14
 265 0038 4D4C      		MOV.B	R12, R13
GAS LISTING /tmp/ccy5xk8N.s 			page 6


 266 003a CC08      		MOVA	R8, R12
 267 003c B013 0000 		CALLA	#_pal_lld_enablepadevent
 268 0040 4018 0D4A 		MOVX	R10, R13
 269 0044 2C48      		MOV.W	@R8, R12
 270 0046 B013 0000 		CALLA	#__mspabi_srli
 271 004a 4018 1CB3 		BITX.W	#1, R12 { JEQ	.L16
 271      0024 
 272 0050 0018 C243 		MOVX.A	#0, &suspend_result
 272      0000 
 273               	.L17:
 274 0056 4D49      		MOV.B	R9, R13
 275 0058 CC08      		MOVA	R8, R12
 276 005a B013 0000 		CALLA	#_pal_lld_disablepadevent
 277               	 ; 355 "../ChibiOS-Contrib/os/common/ports/MSP430X/chcore.h" 1
 278 005e 0343      		nop
 279               	 ; 0 "" 2
 280               	 ; 356 "../ChibiOS-Contrib/os/common/ports/MSP430X/chcore.h" 1
 281 0060 0343 32D2 		nop { eint { nop
 281      0343 
 282               	 ; 0 "" 2
 283 0066 2C00 0000 		MOVA	&suspend_result, R12
 284               		; start of epilogue
 285 006a 3716      		POPM.A	#4, r10
 286 006c 1001      		RETA
 287               	.L16:
 288 006e 0D47      		MOV.W	R7, R13
 289 0070 8C00 0000 		MOVA	#tr, R12
 290 0074 B013 0000 		CALLA	#chThdSuspendTimeoutS
 291 0078 600C 0000 		MOVA	R12, &suspend_result
 292 007c 8000 0000 		BRA	#.L17
 293               		.size	irq_block_with_timeout.isra.3, .-irq_block_with_timeout.isra.3
 294               		.section	.text.spi_mode_config,"ax",@progbits
 295               		.balign 2
 296               		.global	spi_mode_config
 297               		.type	spi_mode_config, @function
 298               	spi_mode_config:
 299               	; start of function
 300               	; framesize_regs:     0
 301               	; framesize_locals:   0
 302               	; framesize_outgoing: 0
 303               	; framesize:          0
 304               	; elim ap -> fp       4
 305               	; elim fp -> sp       0
 306               	; saved regs:(none)
 307               		; start of prologue
 308               		; end of prologue
 309 0000 0C0C      		MOVA	@R12, R12
 310 0002 3E0C 0400 		MOVA	4(R12), R14
 311 0006 0018 CE43 		MOVX.A	#0, @R14
 311      0000 
 312 000c 0C0C      		MOVA	@R12, R12
 313 000e 3C0C 0C00 		MOVA	12(R12), R12
 314 0012 BCF0 FFFB 		AND.W	#-1025, @R12
 314      0000 
 315               		; start of epilogue
 316 0018 1001      		RETA
 317               		.size	spi_mode_config, .-spi_mode_config
GAS LISTING /tmp/ccy5xk8N.s 			page 7


 318               		.section	.text.spi_mode_data,"ax",@progbits
 319               		.balign 2
 320               		.global	spi_mode_data
 321               		.type	spi_mode_data, @function
 322               	spi_mode_data:
 323               	; start of function
 324               	; framesize_regs:     0
 325               	; framesize_locals:   0
 326               	; framesize_outgoing: 0
 327               	; framesize:          0
 328               	; elim ap -> fp       4
 329               	; elim fp -> sp       0
 330               	; saved regs:(none)
 331               		; start of prologue
 332               		; end of prologue
 333 0000 0C0C      		MOVA	@R12, R12
 334 0002 3E0C 0400 		MOVA	4(R12), R14
 335 0006 0018 FE40 		MOVX.A	#spi_end_cb, @R14
 335      0000 0000 
 336 000e 0C0C      		MOVA	@R12, R12
 337 0010 3C0C 0C00 		MOVA	12(R12), R12
 338 0014 BCD0 0004 		BIS.W	#1024, @R12
 338      0000 
 339               		; start of epilogue
 340 001a 1001      		RETA
 341               		.size	spi_mode_data, .-spi_mode_data
 342               		.section	.text.fifo_read_safe,"ax",@progbits
 343               		.balign 2
 344               		.type	fifo_read_safe, @function
 345               	fifo_read_safe:
 346               	; start of function
 347               	; framesize_regs:     28
 348               	; framesize_locals:   0
 349               	; framesize_outgoing: 0
 350               	; framesize:          28
 351               	; elim ap -> fp       32
 352               	; elim fp -> sp       0
 353               	; saved regs: R4 R5 R6 R7 R8 R9 R10
 354               		; start of prologue
 355 0000 6A14      		PUSHM.A	#7, R10
 356               		; end of prologue
 357 0002 C80C      		MOVA	R12, R8
 358 0004 C60D      		MOVA	R13, R6
 359 0006 C70E      		MOVA	R14, R7
 360 0008 B013 0000 		CALLA	#spi_mode_data
 361 000c 4543      		MOV.B	#0, R5
 362 000e 8400 0000 		MOVA	#spi_lld_polled_exchange, R4
 363 0012 7943      		MOV.B	#-1, R9
 364               	.L21:
 365 0014 4018 0A45 		MOVX	R5, R10
 366 0018 DA06 0028 		CMPA	R6, R10 { JLO	.L22
 367 001c CC08      		MOVA	R8, R12
 368 001e B013 0000 		CALLA	#spi_mode_config
 369               		; start of epilogue
 370 0022 6416      		POPM.A	#7, r10
 371 0024 1001      		RETA
 372               	.L22:
GAS LISTING /tmp/ccy5xk8N.s 			page 8


 373 0026 EA07      		ADDA	R7, R10
 374 0028 0C08      		MOVA	@R8, R12
 375 002a 4D49      		MOV.B	R9, R13
 376 002c 0C0C      		MOVA	@R12, R12
 377 002e 4413      		CALLA	R4
 378 0030 CA4C 0000 		MOV.B	R12, @R10
 379 0034 1553      		ADD.W	#1, R5
 380 0036 8000 0000 		BRA	#.L21
 381               		.size	fifo_read_safe, .-fifo_read_safe
 382               		.global	__mspabi_divul
 383               		.global	__mulhi2_f5
 384               		.section	.text.sx1212SetBitrate,"ax",@progbits
 385               		.balign 2
 386               		.global	sx1212SetBitrate
 387               		.type	sx1212SetBitrate, @function
 388               	sx1212SetBitrate:
 389               	; start of function
 390               	; framesize_regs:     28
 391               	; framesize_locals:   10
 392               	; framesize_outgoing: 0
 393               	; framesize:          38
 394               	; elim ap -> fp       32
 395               	; elim fp -> sp       10
 396               	; saved regs: R4 R5 R6 R7 R8 R9 R10
 397               		; start of prologue
 398 0000 6A14      		PUSHM.A	#7, R10
 399 0002 B100 0A00 		SUBA	#10, R1
 400               		; end of prologue
 401 0006 C60C      		MOVA	R12, R6
 402 0008 094D      		MOV.W	R13, R9
 403 000a 0A4E      		MOV.W	R14, R10
 404 000c 6C43      		MOV.B	#2, R12
 405 000e 0C9E 0028 		CMP.W	R14, R12 { JLO	.L34
 406 0012 0E9C 0020 		CMP.W	R12, R14 { JNE	.L24
 407 0016 3D40 EF49 		MOV.W	#18927, R13
 408 001a 0D99 002C 		CMP.W	R9, R13 { JHS	.L24
 409               	.L34:
 410 001e 8C00 0000 		MOVA	#__func__.5034, R12
 411 0022 B013 0000 		CALLA	#chSysHalt
 412               	.L24:
 413 0026 8800 0000 		MOVA	#__mspabi_divul, R8
 414 002a 0E49      		MOV.W	R9, R14
 415 002c 0F4A      		MOV.W	R10, R15
 416 002e 3C40 00A8 		MOV.W	#-22528, R12
 417 0032 7D40 6100 		MOV.B	#97, R13
 418 0036 4813      		CALLA	R8
 419 0038 0A4C      		MOV.W	R12, R10
 420 003a 094D      		MOV.W	R13, R9
 421 003c 3C53      		ADD	#-1, R12 ; cy
 422 003e 074D      		MOV.W	R13, R7
 423 0040 3763      		ADDC	#-1, R7
 424 0042 0793 0020 		CMP.W	#0, R7 { JNE	.L26
 425 0046 7D40 FF00 		MOV.B	#255, R13
 426 004a 0D9C 0028 		CMP.W	R12, R13 { JLO	.L26
 427 004e 8800 0000 		MOVA	#sx1212SetRegister.isra.0, R8
 428 0052 4E4A      		MOV.B	R10, R14
 429 0054 7D40 0300 		MOV.B	#3, R13
GAS LISTING /tmp/ccy5xk8N.s 			page 9


 430 0058 CC06      		MOVA	R6, R12
 431 005a 4813      		CALLA	R8
 432 005c 4E47      		MOV.B	R7, R14
 433 005e 6D42      		MOV.B	#4, R13
 434 0060 CC06      		MOVA	R6, R12
 435 0062 4813      		CALLA	R8
 436               	.L23:
 437               		; start of epilogue
 438 0064 A100 0A00 		ADDA	#10, R1
 439 0068 6416      		POPM.A	#7, r10
 440 006a 1001      		RETA
 441               	.L26:
 442 006c 7E40 FF00 		MOV.B	#255, R14
 443 0070 4F43      		MOV.B	#0, R15
 444 0072 0C4A      		MOV.W	R10, R12
 445 0074 0D49      		MOV.W	R9, R13
 446 0076 4813      		CALLA	R8
 447 0078 054C      		MOV.W	R12, R5
 448 007a 1553      		ADD.W	#1, R5
 449 007c 4843      		MOV.B	#0, R8
 450 007e 0748      		MOV.W	R8, R7
 451 0080 8400 0000 		MOVA	#__mulhi2_f5, R4
 452 0084 814A 0800 		MOV.W	R10, 8(R1)
 453               	.L29:
 454 0088 7C40 5C00 		MOV.B	#92, R12
 455 008c 0C95 002C 		CMP.W	R5, R12 { JHS	.L33
 456               	.L31:
 457 0090 8A00 0000 		MOVA	#sx1212SetRegister.isra.0, R10
 458 0094 4E47      		MOV.B	R7, R14
 459 0096 7D40 0300 		MOV.B	#3, R13
 460 009a CC06      		MOVA	R6, R12
 461 009c 4A13      		CALLA	R10
 462 009e 4E48      		MOV.B	R8, R14
 463 00a0 6D42      		MOV.B	#4, R13
 464 00a2 CC06      		MOVA	R6, R12
 465 00a4 4A13      		CALLA	R10
 466 00a6 8000 0000 		BRA	#.L23
 467               	.L33:
 468 00aa 0E45 0F43 		MOV.W	R5,R14 { MOV.W	#0,R15
 469 00ae 0C4A      		MOV.W	R10, R12
 470 00b0 0D49      		MOV.W	R9, R13
 471 00b2 B013 0000 		CALLA	#__mspabi_divul
 472 00b6 4E4C      		MOV.B	R12, R14
 473 00b8 4F45      		MOV.B	R5, R15
 474 00ba 0D4F      		MOV.W	R15, R13
 475 00bc 0C4E      		MOV.W	R14, R12
 476 00be 710E 0400 		MOVA	R14, 4(R1)
 477 00c2 710F 0000 		MOVA	R15, @R1
 478 00c6 4413      		CALLA	R4
 479 00c8 4D4A      		MOV.B	R10, R13
 480 00ca 4D8C      		SUB.B	R12, R13
 481 00cc 4C4D      		MOV.B	R13, R12
 482 00ce 3DF0 FF00 		AND	#0xff, R13
 483 00d2 3E01 0400 		MOVA	4(R1), R14
 484 00d6 0F01      		MOVA	@R1, R15
 485 00d8 7C93 0024 		CMP.B	#-1, R12 { JEQ	.L30
 486 00dc 7F53      		ADD.B	#-1, R15
GAS LISTING /tmp/ccy5xk8N.s 			page 10


 487 00de 474F      		MOV.B	R15, R7
 488 00e0 7E53      		ADD.B	#-1, R14
 489 00e2 484E      		MOV.B	R14, R8
 490 00e4 0D93 0024 		CMP.W	#0, R13 { JEQ	.L31
 491               	.L30:
 492 00e8 0D45      		MOV.W	R5, R13
 493 00ea 0C45      		MOV.W	R5, R12
 494 00ec 4413      		CALLA	R4
 495 00ee 4D43      		MOV.B	#0, R13
 496 00f0 0D99 0020 		CMP.W	R9, R13 { JNE	.L36
 497 00f4 819C 0800 		CMP.W	R12, 8(R1) { JLO	.L31
 497      0028 
 498               	.L36:
 499 00fa 1553      		ADD.W	#1, R5
 500 00fc 8000 0000 		BRA	#.L29
 501               		.size	sx1212SetBitrate, .-sx1212SetBitrate
 502               		.section	.text.sx1212SetDeviation,"ax",@progbits
 503               		.balign 2
 504               		.global	sx1212SetDeviation
 505               		.type	sx1212SetDeviation, @function
 506               	sx1212SetDeviation:
 507               	; start of function
 508               	; framesize_regs:     20
 509               	; framesize_locals:   0
 510               	; framesize_outgoing: 0
 511               	; framesize:          20
 512               	; elim ap -> fp       24
 513               	; elim fp -> sp       0
 514               	; saved regs: R6 R7 R8 R9 R10
 515               		; start of prologue
 516 0000 4A14      		PUSHM.A	#5, R10
 517               		; end of prologue
 518 0002 CA0C      		MOVA	R12, R10
 519 0004 084D      		MOV.W	R13, R8
 520 0006 094E      		MOV.W	R14, R9
 521 0008 064D      		MOV.W	R13, R6
 522 000a 074E      		MOV.W	R14, R7
 523 000c 12C3 0710 		CLRC { RRC.W	R7 { RRC.W	R6
 523      0610 
 524 0012 0E4D      		MOV.W	R13, R14
 525 0014 0F49      		MOV.W	R9, R15
 526 0016 0C46      		MOV.W	R6, R12
 527 0018 3C50 801A 		ADD	#6784, R12 ; cy
 528 001c 0D47      		MOV.W	R7, R13
 529 001e 3D60 0600 		ADDC	#6, R13
 530 0022 B013 0000 		CALLA	#__mspabi_divul
 531 0026 074C      		MOV.W	R12, R7
 532 0028 7C40 0300 		MOV.B	#3, R12
 533 002c 0C99 0028 		CMP.W	R9, R12 { JLO	.L46
 534 0030 3990 0300 		CMP.W	#3, R9 { JNE	.L44
 534      0020 
 535 0036 3C40 3F0D 		MOV.W	#3391, R12
 536 003a 0C98 002C 		CMP.W	R8, R12 { JHS	.L44
 537               	.L46:
 538 003e 8C00 0000 		MOVA	#__func__.5048, R12
 539 0042 B013 0000 		CALLA	#chSysHalt
 540               	.L44:
GAS LISTING /tmp/ccy5xk8N.s 			page 11


 541 0046 4E47      		MOV.B	R7, R14
 542 0048 7E53      		ADD.B	#-1, R14
 543 004a 6D43      		MOV.B	#2, R13
 544 004c CC0A      		MOVA	R10, R12
 545 004e B013 0000 		CALLA	#sx1212SetRegister.isra.0
 546               		; start of epilogue
 547 0052 4616      		POPM.A	#5, r10
 548 0054 1001      		RETA
 549               		.size	sx1212SetDeviation, .-sx1212SetDeviation
 550               		.global	__mulsi2_f5
 551               		.section	.text.sx1212SetFrequency,"ax",@progbits
 552               		.balign 2
 553               		.global	sx1212SetFrequency
 554               		.type	sx1212SetFrequency, @function
 555               	sx1212SetFrequency:
 556               	; start of function
 557               	; framesize_regs:     28
 558               	; framesize_locals:   18
 559               	; framesize_outgoing: 0
 560               	; framesize:          46
 561               	; elim ap -> fp       32
 562               	; elim fp -> sp       18
 563               	; saved regs: R4 R5 R6 R7 R8 R9 R10
 564               		; start of prologue
 565 0000 6A14      		PUSHM.A	#7, R10
 566 0002 B100 1200 		SUBA	#18, R1
 567               		; end of prologue
 568 0006 C40C      		MOVA	R12, R4
 569 0008 0A4D      		MOV.W	R13, R10
 570 000a 054E      		MOV.W	R14, R5
 571 000c 0C4D      		MOV.W	R13, R12
 572 000e 3C50 005D 		ADD	#23808, R12 ; cy
 573 0012 814C 0600 		MOV.W	R12, 6(R1)
 574 0016 0D4E      		MOV.W	R14, R13
 575 0018 3D60 1EEE 		ADDC	#-4578, R13
 576 001c 814D 0000 		MOV.W	R13, @R1
 577 0020 3E40 840C 		MOV.W	#3204, R14
 578 0024 0E9D 0028 		CMP.W	R13, R14 { JLO	.L82
 579 0028 0D9E 0020 		CMP.W	R14, R13 { JNE	.L48
 580 002c 3C40 8058 		MOV.W	#22656, R12
 581 0030 1C91 0600 		CMP.W	6(R1), R12 { JHS	.L48
 581      002C 
 582               	.L82:
 583 0036 8C00 0000 		MOVA	#__func__.5053, R12
 584 003a B013 0000 		CALLA	#chSysHalt
 585               	.L48:
 586 003e 0C4A      		MOV.W	R10, R12
 587 0040 0D45      		MOV.W	R5, R13
 588 0042 B013 0000 		CALLA	#__mspabi_slll_3
 589 0046 814C 0200 		MOV.W	R12, 2(R1)
 590 004a 814D 0400 		MOV.W	R13, 4(R1)
 591 004e 0CDD      		BIS.W	R13, R12
 592 0050 0C93 0020 		CMP.W	#0, R12 { JNE	.L50
 593 0054 8C00 0000 		MOVA	#__func__.5016, R12
 594 0058 B013 0000 		CALLA	#chSysHalt
 595               	.L50:
 596 005c 1841 0200 		MOV.W	2(R1), R8
GAS LISTING /tmp/ccy5xk8N.s 			page 12


 597 0060 1941 0400 		MOV.W	4(R1), R9
 598 0064 4E43      		MOV.B	#0, R14
 599 0066 3C40 00D0 		MOV.W	#-12288, R12
 600 006a 3D40 DD06 		MOV.W	#1757, R13
 601               	.L51:
 602 006e 0F48      		MOV.W	R8, R15
 603 0070 0FDC      		BIS.W	R12, R15
 604 0072 4018 1FB3 		BITX.W	#1, R15 { JEQ	.L52
 604      0024 
 605               	.L54:
 606 0078 0F48      		MOV.W	R8, R15
 607 007a 5FF3      		AND.B	#1, R15
 608 007c 0F93 0024 		CMP.W	#0, R15 { JEQ	.L55
 609               	.L57:
 610 0080 0F4C      		MOV.W	R12, R15
 611 0082 5FF3      		AND.B	#1, R15
 612 0084 0F93 0024 		CMP.W	#0, R15 { JEQ	.L58
 613 0088 0D99 0028 		CMP.W	R9, R13 { JLO	.L60
 614 008c 099D 0020 		CMP.W	R13, R9 { JNE	.L83
 615 0090 0C98 0028 		CMP.W	R8, R12 { JLO	.L60
 616               	.L83:
 617 0094 064C      		MOV.W	R12, R6
 618 0096 074D      		MOV.W	R13, R7
 619 0098 0C48      		MOV.W	R8, R12
 620 009a 0D49      		MOV.W	R9, R13
 621 009c 0846      		MOV.W	R6, R8
 622 009e 0947      		MOV.W	R7, R9
 623               	.L60:
 624 00a0 0648      		MOV.W	R8, R6
 625 00a2 0749      		MOV.W	R9, R7
 626 00a4 4018 068C 		SUBX	R12, R6 { SUBCX	R13, R7
 626      4018 077D 
 627 00ac 0F46      		MOV.W	R6, R15
 628 00ae 0FD7      		BIS.W	R7, R15
 629 00b0 0F93 0020 		CMP.W	#0, R15 { JNE	.L62
 630 00b4 0F43      		MOV.W	#0,R15
 631 00b6 B013 0000 		CALLA	#__mspabi_slll
 632 00ba 814C 0C00 		MOV.W	R12, 12(R1)
 633 00be 814D 0E00 		MOV.W	R13, 14(R1)
 634 00c2 0E4C      		MOV.W	R12, R14
 635 00c4 0F4D      		MOV.W	R13, R15
 636 00c6 3C40 00D0 		MOV.W	#-12288, R12
 637 00ca 3D40 DD06 		MOV.W	#1757, R13
 638 00ce B013 0000 		CALLA	#__mspabi_divul
 639 00d2 814C 0800 		MOV.W	R12, 8(R1)
 640 00d6 814D 0A00 		MOV.W	R13, 10(R1)
 641               	.L63:
 642 00da 0D93 0020 		CMP.W	#0, R13 { JNE	.L64
 643 00de 7E40 A900 		MOV.B	#169, R14
 644 00e2 0E9C 0028 		CMP.W	R12, R14 { JLO	.L64
 645 00e6 474C      		MOV.B	R12, R7
 646 00e8 4947      		MOV.B	R7, R9
 647 00ea 7953      		ADD.B	#-1, R9
 648               	.L91:
 649 00ec 39F0 FF00 		AND	#0xff, R9
 650 00f0 4C49      		MOV.B	R9, R12
 651 00f2 7C50 C0FF 		ADD.B	#-64, R12
GAS LISTING /tmp/ccy5xk8N.s 			page 13


 652 00f6 7D40 6900 		MOV.B	#105, R13
 653 00fa 4D9C 0028 		CMP.B	R12, R13 { JLO	.L67
 654 00fe 4987      		SUB.B	R7, R9
 655 0100 39F0 FF00 		AND	#0xff, R9
 656 0104 8600 0000 		MOVA	#__mspabi_divul, R6
 657               	.L68:
 658 0108 4C49      		MOV.B	R9, R12
 659 010a 4C57      		ADD.B	R7, R12
 660 010c 494C      		MOV.B	R12, R9
 661 010e 7C50 C0FF 		ADD.B	#-64, R12
 662 0112 7E40 6900 		MOV.B	#105, R14
 663 0116 4E9C 0028 		CMP.B	R12, R14 { JLO	.L68
 664 011a 1E41 0C00 		MOV.W	12(R1), R14
 665 011e 1F41 0E00 		MOV.W	14(R1), R15
 666 0122 1C41 0200 		MOV.W	2(R1), R12
 667 0126 1D41 0400 		MOV.W	4(R1), R13
 668 012a 4613      		CALLA	R6
 669 012c 0E49      		MOV.W	R9, R14
 670 012e 1E53      		ADD.W	#1, R14
 671 0130 3EB0 0080 		BIT.W	#0x8000, R14 { SUBC.W	R15, R15 { INV.W	R15, R15
 671      0F7F 3FE3 
 672 0138 B013 0000 		CALLA	#__mulsi2_f5
 673 013c 1E41 0800 		MOV.W	8(R1), R14
 674 0140 1F41 0A00 		MOV.W	10(R1), R15
 675 0144 4613      		CALLA	R6
 676 0146 814C 1000 		MOV.W	R12, 16(R1)
 677 014a 7E40 4B00 		MOV.B	#75, R14
 678 014e 4F43      		MOV.B	#0, R15
 679 0150 4613      		CALLA	R6
 680 0152 484C      		MOV.B	R12, R8
 681 0154 7853      		ADD.B	#-1, R8
 682 0156 4C48      		MOV.B	R8, R12
 683 0158 7D40 4B00 		MOV.B	#75, R13
 684 015c 1C53      		ADD.W	#1, R12
 685 015e B013 0000 		CALLA	#__mulhi2_f5
 686 0162 1D41 1000 		MOV.W	16(R1), R13
 687 0166 4D8C      		SUB.B	R12, R13
 688 0168 489D 0028 		CMP.B	R13, R8 { JLO	.L68
 689 016c 8800 0000 		MOVA	#sx1212SetRegister.isra.0, R8
 690 0170 7E40 7400 		MOV.B	#116, R14
 691 0174 7D40 0600 		MOV.B	#6, R13
 692 0178 CC04      		MOVA	R4, R12
 693 017a 4813      		CALLA	R8
 694 017c 7E40 3100 		MOV.B	#49, R14
 695 0180 7D40 0700 		MOV.B	#7, R13
 696 0184 CC04      		MOVA	R4, R12
 697 0186 4813      		CALLA	R8
 698 0188 7E40 1400 		MOV.B	#20, R14
 699 018c 7D42      		MOV.B	#8, R13
 700 018e CC04      		MOVA	R4, R12
 701 0190 4813      		CALLA	R8
 702 0192 3E40 C901 		MOV.W	#457, R14
 703 0196 2E91 0028 		CMP.W	@R1, R14 { JLO	.L70
 704 019a 2C41      		MOV.W	@R1, R12
 705 019c 0C9E 0020 		CMP.W	R14, R12 { JNE	.L85
 706 01a0 3C40 80C3 		MOV.W	#-15488, R12
 707 01a4 1C91 0600 		CMP.W	6(R1), R12 { JLO	.L70
GAS LISTING /tmp/ccy5xk8N.s 			page 14


 707      0028 
 708               	.L85:
 709 01aa 5A44 0400 		MOV.B	4(R4), R10
 710 01ae 7AF0 E0FF 		AND.B	#-32, R10
 711 01b2 3E40 E070 		MOV.W	#28896, R14
 712 01b6 7F40 7200 		MOV.B	#114, R15
 713 01ba 1C41 0600 		MOV.W	6(R1), R12
 714 01be 2D41      		MOV.W	@R1, R13
 715               	.L93:
 716 01c0 4613      		CALLA	R6
 717 01c2 4E4A      		MOV.B	R10, R14
 718               	.L92:
 719 01c4 4EDC      		BIS.B	R12, R14
 720 01c6 C44E 0400 		MOV.B	R14, 4(R4)
 721 01ca 4D43      		MOV.B	#0, R13
 722 01cc CC04      		MOVA	R4, R12
 723 01ce 4813      		CALLA	R8
 724               	.L47:
 725               		; start of epilogue
 726 01d0 A100 1200 		ADDA	#18, R1
 727 01d4 6416      		POPM.A	#7, r10
 728 01d6 1001      		RETA
 729               	.L52:
 730 01d8 12C3 0910 		CLRC { RRC.W	R9 { RRC.W	R8
 730      0810 
 731 01de 12C3 0D10 		CLRC { RRC.W	R13 { RRC.W	R12
 731      0C10 
 732 01e4 1E53      		ADD.W	#1, R14
 733 01e6 8000 0000 		BRA	#.L51
 734               	.L55:
 735 01ea 12C3 0910 		CLRC { RRC.W	R9 { RRC.W	R8
 735      0810 
 736 01f0 8000 0000 		BRA	#.L54
 737               	.L58:
 738 01f4 064C      		MOV.W	R12, R6
 739 01f6 074D      		MOV.W	R13, R7
 740 01f8 12C3 0710 		CLRC { RRC.W	R7 { RRC.W	R6
 740      0610 
 741 01fe 0C48      		MOV.W	R8, R12
 742 0200 0D49      		MOV.W	R9, R13
 743               	.L62:
 744 0202 084C      		MOV.W	R12, R8
 745 0204 094D      		MOV.W	R13, R9
 746 0206 0C46      		MOV.W	R6, R12
 747 0208 0D47      		MOV.W	R7, R13
 748 020a 8000 0000 		BRA	#.L57
 749               	.L64:
 750 020e 3C50 B5FF 		ADD	#-75, R12 ; cy
 751 0212 3D63      		ADDC	#-1, R13
 752 0214 8000 0000 		BRA	#.L63
 753               	.L67:
 754 0218 4957      		ADD.B	R7, R9
 755 021a 8000 0000 		BRA	#.L91
 756               	.L70:
 757 021e 0C4A      		MOV.W	R10, R12
 758 0220 3C50 0030 		ADD	#12288, R12 ; cy
 759 0224 0D45      		MOV.W	R5, R13
GAS LISTING /tmp/ccy5xk8N.s 			page 15


 760 0226 3D60 EDEC 		ADDC	#-4883, R13
 761 022a 3E40 C901 		MOV.W	#457, R14
 762 022e 0E9D 0028 		CMP.W	R13, R14 { JLO	.L73
 763 0232 3D90 C901 		CMP.W	#457, R13 { JNE	.L86
 763      0020 
 764 0238 3E40 80C3 		MOV.W	#-15488, R14
 765 023c 0E9C 0028 		CMP.W	R12, R14 { JLO	.L73
 766               	.L86:
 767 0240 5E44 0400 		MOV.B	4(R4), R14
 768 0244 7EF0 E0FF 		AND.B	#-32, R14
 769 0248 4A4E      		MOV.B	R14, R10
 770 024a 6AD2      		BIS.B	#4, R10
 771 024c 3E40 E070 		MOV.W	#28896, R14
 772 0250 7F40 7200 		MOV.B	#114, R15
 773 0254 8000 0000 		BRA	#.L93
 774               	.L73:
 775 0258 0C4A      		MOV.W	R10, R12
 776 025a 3C50 806C 		ADD	#27776, R12 ; cy
 777 025e 0D45      		MOV.W	R5, R13
 778 0260 3D60 23EB 		ADDC	#-5341, R13
 779 0264 3E40 6202 		MOV.W	#610, R14
 780 0268 0E9D 0028 		CMP.W	R13, R14 { JLO	.L75
 781 026c 3D90 6202 		CMP.W	#610, R13 { JNE	.L87
 781      0020 
 782 0272 3E40 005A 		MOV.W	#23040, R14
 783 0276 0E9C 0028 		CMP.W	R12, R14 { JLO	.L75
 784               	.L87:
 785 027a 5E44 0400 		MOV.B	4(R4), R14
 786 027e 7EF0 E0FF 		AND.B	#-32, R14
 787 0282 4A4E      		MOV.B	R14, R10
 788 0284 7AD2      		BIS.B	#8, R10
 789               	.L94:
 790 0286 3E40 8096 		MOV.W	#-27008, R14
 791 028a 7F40 9800 		MOV.B	#152, R15
 792 028e 8000 0000 		BRA	#.L93
 793               	.L75:
 794 0292 0C4A      		MOV.W	R10, R12
 795 0294 3C50 8012 		ADD	#4736, R12 ; cy
 796 0298 0D45      		MOV.W	R5, R13
 797 029a 3D60 C1E8 		ADDC	#-5951, R13
 798 029e 3E40 6202 		MOV.W	#610, R14
 799 02a2 0E9D 0028 		CMP.W	R13, R14 { JLO	.L77
 800 02a6 3D90 6202 		CMP.W	#610, R13 { JNE	.L88
 800      0020 
 801 02ac 3E40 005A 		MOV.W	#23040, R14
 802 02b0 0E9C 0028 		CMP.W	R12, R14 { JLO	.L77
 803               	.L88:
 804 02b4 5E44 0400 		MOV.B	4(R4), R14
 805 02b8 7EF0 E0FF 		AND.B	#-32, R14
 806 02bc 4A4E      		MOV.B	R14, R10
 807 02be 7AD0 0C00 		BIS.B	#12, R10
 808 02c2 8000 0000 		BRA	#.L94
 809               	.L77:
 810 02c6 0C4A      		MOV.W	R10, R12
 811 02c8 3C50 80B8 		ADD	#-18304, R12 ; cy
 812 02cc 0D45      		MOV.W	R5, R13
 813 02ce 3D60 5EE6 		ADDC	#-6562, R13
GAS LISTING /tmp/ccy5xk8N.s 			page 16


 814 02d2 3E40 6202 		MOV.W	#610, R14
 815 02d6 0E9D 0028 		CMP.W	R13, R14 { JLO	.L79
 816 02da 3D90 6202 		CMP.W	#610, R13 { JNE	.L89
 816      0020 
 817 02e0 3E40 005A 		MOV.W	#23040, R14
 818 02e4 0E9C 0028 		CMP.W	R12, R14 { JLO	.L79
 819               	.L89:
 820 02e8 5E44 0400 		MOV.B	4(R4), R14
 821 02ec 7EF0 E0FF 		AND.B	#-32, R14
 822 02f0 4A4E      		MOV.B	R14, R10
 823 02f2 7AD0 1000 		BIS.B	#16, R10
 824 02f6 8000 0000 		BRA	#.L94
 825               	.L79:
 826 02fa 0C4A      		MOV.W	R10, R12
 827 02fc 3C50 805E 		ADD	#24192, R12 ; cy
 828 0300 0D45      		MOV.W	R5, R13
 829 0302 3D60 FCE3 		ADDC	#-7172, R13
 830 0306 3E40 6202 		MOV.W	#610, R14
 831 030a 0E9D 0028 		CMP.W	R13, R14 { JLO	.L47
 832 030e 3D90 6202 		CMP.W	#610, R13 { JNE	.L90
 832      0020 
 833 0314 3E40 005A 		MOV.W	#23040, R14
 834 0318 0E9C 0028 		CMP.W	R12, R14 { JLO	.L47
 835               	.L90:
 836 031c 5E44 0400 		MOV.B	4(R4), R14
 837 0320 7EF0 E0FF 		AND.B	#-32, R14
 838 0324 494E      		MOV.B	R14, R9
 839 0326 79D0 1400 		BIS.B	#20, R9
 840 032a 3E40 8096 		MOV.W	#-27008, R14
 841 032e 7F40 9800 		MOV.B	#152, R15
 842 0332 4613      		CALLA	R6
 843 0334 4E49      		MOV.B	R9, R14
 844 0336 8000 0000 		BRA	#.L92
 845               		.size	sx1212SetFrequency, .-sx1212SetFrequency
 846               		.section	.text.sx1212SetSync,"ax",@progbits
 847               		.balign 2
 848               		.global	sx1212SetSync
 849               		.type	sx1212SetSync, @function
 850               	sx1212SetSync:
 851               	; start of function
 852               	; framesize_regs:     24
 853               	; framesize_locals:   0
 854               	; framesize_outgoing: 0
 855               	; framesize:          24
 856               	; elim ap -> fp       28
 857               	; elim fp -> sp       0
 858               	; saved regs: R5 R6 R7 R8 R9 R10
 859               		; start of prologue
 860 0000 5A14      		PUSHM.A	#6, R10
 861               		; end of prologue
 862 0002 CA0C      		MOVA	R12, R10
 863 0004 084D      		MOV.W	R13, R8
 864 0006 094E      		MOV.W	R14, R9
 865 0008 7740 1600 		MOV.B	#22, R7
 866 000c 7540 1800 		MOV.B	#24, R5
 867 0010 8600 0000 		MOVA	#sx1212SetRegister.isra.0, R6
 868               	.L96:
GAS LISTING /tmp/ccy5xk8N.s 			page 17


 869 0014 0C48      		MOV.W	R8, R12
 870 0016 0D49      		MOV.W	R9, R13
 871 0018 0E45 0F43 		MOV.W	R5,R14 { MOV.W	#0,R15
 872 001c B013 0000 		CALLA	#__mspabi_srll
 873 0020 4E4C      		MOV.B	R12, R14
 874 0022 4D47      		MOV.B	R7, R13
 875 0024 CC0A      		MOVA	R10, R12
 876 0026 4613      		CALLA	R6
 877 0028 3550 F8FF 		ADD.W	#-8, R5
 878 002c 4C47      		MOV.B	R7, R12
 879 002e 5C53      		ADD.B	#1, R12
 880 0030 474C      		MOV.B	R12, R7
 881 0032 7C90 1A00 		CMP.B	#26, R12 { JNE	.L96
 881      0020 
 882               		; start of epilogue
 883 0038 5516      		POPM.A	#6, r10
 884 003a 1001      		RETA
 885               		.size	sx1212SetSync, .-sx1212SetSync
 886               		.section	.text.sx1212SetRxBw,"ax",@progbits
 887               		.balign 2
 888               		.global	sx1212SetRxBw
 889               		.type	sx1212SetRxBw, @function
 890               	sx1212SetRxBw:
 891               	; start of function
 892               	; framesize_regs:     8
 893               	; framesize_locals:   0
 894               	; framesize_outgoing: 0
 895               	; framesize:          8
 896               	; elim ap -> fp       12
 897               	; elim fp -> sp       0
 898               	; saved regs: R8 R10
 899               		; start of prologue
 900 0000 0A14      		PUSHM.A	#1, R10
 901 0002 0814      		PUSHM.A	#1, R8
 902               		; end of prologue
 903 0004 C80C      		MOVA	R12, R8
 904 0006 4A4D      		MOV.B	R13, R10
 905 0008 7C40 0F00 		MOV.B	#15, R12
 906 000c 4C9A 002C 		CMP.B	R10, R12 { JHS	.L99
 907 0010 8C00 0000 		MOVA	#__func__.5105, R12
 908 0014 B013 0000 		CALLA	#chSysHalt
 909               	.L99:
 910 0018 0D4A      		MOV.W	R10, R13
 911 001a 4D0E 4D0D 		RLAM.A #4, R13 { RRAM.A #4, R13
 912 001e 4018 5E4D 		MOVX.B	passive.5104(R13), R14
 912      0000 
 913 0024 4318 0E5E 		rpt	#4 { rlax.w	R14
 914 0028 4EDA      		BIS.B	R10, R14
 915 002a 7D40 1000 		MOV.B	#16, R13
 916 002e CC08      		MOVA	R8, R12
 917 0030 B013 0000 		CALLA	#sx1212SetRegister.isra.0
 918               		; start of epilogue
 919 0034 0816      		POPM.A	#1, r8
 920 0036 0A16      		POPM.A	#1, r10
 921 0038 1001      		RETA
 922               		.size	sx1212SetRxBw, .-sx1212SetRxBw
 923               		.section	.text.sx1212Start,"ax",@progbits
GAS LISTING /tmp/ccy5xk8N.s 			page 18


 924               		.balign 2
 925               		.global	sx1212Start
 926               		.type	sx1212Start, @function
 927               	sx1212Start:
 928               	; start of function
 929               	; framesize_regs:     16
 930               	; framesize_locals:   0
 931               	; framesize_outgoing: 0
 932               	; framesize:          16
 933               	; elim ap -> fp       20
 934               	; elim fp -> sp       0
 935               	; saved regs: R4 R6 R8 R10
 936               		; start of prologue
 937 0000 0A14      		PUSHM.A	#1, R10
 938 0002 0814      		PUSHM.A	#1, R8
 939 0004 0614      		PUSHM.A	#1, R6
 940 0006 0414      		PUSHM.A	#1, R4
 941               		; end of prologue
 942 0008 CA0C      		MOVA	R12, R10
 943 000a C80D      		MOVA	R13, R8
 944 000c 7A0D 0000 		MOVA	R13, @R10
 945 0010 B013 0000 		CALLA	#sx1212Reset.isra.2
 946 0014 FA40 3000 		MOV.B	#48, 4(R10)
 946      0400 
 947 001a FA40 0F00 		MOV.B	#15, 5(R10)
 947      0500 
 948 0020 3D08 0400 		MOVA	4(R8), R13
 949 0024 0C08      		MOVA	@R8, R12
 950 0026 B013 0000 		CALLA	#spiStart
 951 002a CC0A      		MOVA	R10, R12
 952 002c B013 0000 		CALLA	#spi_mode_config
 953 0030 4D43      		MOV.B	#0, R13
 954 0032 CC0A      		MOVA	R10, R12
 955 0034 B013 0000 		CALLA	#sx1212SetMode
 956 0038 1D48 1000 		MOV.W	16(R8), R13
 957 003c 1E48 1200 		MOV.W	18(R8), R14
 958 0040 CC0A      		MOVA	R10, R12
 959 0042 B013 0000 		CALLA	#sx1212SetFrequency
 960 0046 1D48 1400 		MOV.W	20(R8), R13
 961 004a 1E48 1600 		MOV.W	22(R8), R14
 962 004e CC0A      		MOVA	R10, R12
 963 0050 B013 0000 		CALLA	#sx1212SetDeviation
 964 0054 1D48 0C00 		MOV.W	12(R8), R13
 965 0058 1E48 0E00 		MOV.W	14(R8), R14
 966 005c CC0A      		MOVA	R10, R12
 967 005e B013 0000 		CALLA	#sx1212SetBitrate
 968 0062 5D48 1800 		MOV.B	24(R8), R13
 969 0066 CC0A      		MOVA	R10, R12
 970 0068 B013 0000 		CALLA	#sx1212SetRxBw
 971 006c 1D48 1C00 		MOV.W	28(R8), R13
 972 0070 1E48 1E00 		MOV.W	30(R8), R14
 973 0074 CC0A      		MOVA	R10, R12
 974 0076 B013 0000 		CALLA	#sx1212SetSync
 975 007a 8600 0000 		MOVA	#sx1212SetRegister.isra.0, R6
 976 007e 0018 C893 		CMPX.A	#0, 38(R8) { JEQ	.L101
 976      2600 0024 
 977 0086 0C0A      		MOVA	@R10, R12
GAS LISTING /tmp/ccy5xk8N.s 			page 19


 978 0088 340C 2600 		MOVA	38(R12), R4
 979 008c 7E40 A4FF 		MOV.B	#-92, R14
 980 0090 5D43      		MOV.B	#1, R13
 981 0092 CC0A      		MOVA	R10, R12
 982 0094 4613      		CALLA	R6
 983 0096 6C44      		MOV.B	@R4, R12
 984 0098 7CF0 0600 		AND.B	#6, R12
 985 009c 7C90 0600 		CMP.B	#6, R12 { JNE	.L102
 985      0020 
 986 00a2 8C00 0000 		MOVA	#__func__.5110, R12
 987 00a6 B013 0000 		CALLA	#chSysHalt
 988               	.L102:
 989 00aa 0C0A      		MOVA	@R10, R12
 990 00ac CC93 2B00 		CMP.B	#0, 43(R12) { JGE	.L103
 990      0034 
 991 00b2 8C00 0000 		MOVA	#__func__.5110, R12
 992 00b6 B013 0000 		CALLA	#chSysHalt
 993               	.L103:
 994 00ba 6E44      		MOV.B	@R4, R14
 995 00bc 4418 0E5E 		rpt	#5 { rlax.w	R14
 996 00c0 7EF0 8000 		AND.B	#128, R14
 997 00c4 0C0A      		MOVA	@R10, R12
 998 00c6 5EDC 2B00 		BIS.B	43(R12), R14
 999 00ca 7D40 1C00 		MOV.B	#28, R13
 1000 00ce CC0A      		MOVA	R10, R12
 1001 00d0 4613      		CALLA	R6
 1002 00d2 F4B0 6000 		BIT.B	#96, @R4 { JNE	.L104
 1002      0000 0020 
 1003 00da 6D44      		MOV.B	@R4, R13
 1004 00dc 0C4D      		MOV.W	R13, R12
 1005 00de 5C0F      		rrum.w	#4, R12
 1006 00e0 5CF3      		AND.B	#1, R12
 1007 00e2 4418 0C5C 		rpt	#5 { rlax.w	R12
 1008 00e6 7DF0 9FFF 		AND.B	#-97, R13
 1009 00ea 4DDC      		BIS.B	R12, R13
 1010 00ec C44D 0000 		MOV.B	R13, @R4
 1011               	.L104:
 1012 00f0 F4B0 6000 		BIT.B	#96, @R4 { JEQ	.L105
 1012      0000 0024 
 1013 00f8 0C0A      		MOVA	@R10, R12
 1014 00fa 5E4C 2A00 		MOV.B	42(R12), R14
 1015 00fe 7D40 1D00 		MOV.B	#29, R13
 1016 0102 CC0A      		MOVA	R10, R12
 1017 0104 4613      		CALLA	R6
 1018               	.L105:
 1019 0106 D4B3 0000 		BIT.B	#1, @R4 { JNE	.L110
 1019      0020 
 1020 010c 4D43      		MOV.B	#0, R13
 1021               	.L106:
 1022 010e 6F44      		MOV.B	@R4, R15
 1023 0110 0C4F      		MOV.W	R15, R12
 1024 0112 4218 0C5C 		rpt	#3 { rlax.w	R12
 1025 0116 7CF0 1000 		AND.B	#16, R12
 1026 011a 0E4F      		MOV.W	R15, R14
 1027 011c 7EF2      		AND.B	#8, R14
 1028 011e 4CDE      		BIS.B	R14, R12
 1029 0120 0E4F      		MOV.W	R15, R14
GAS LISTING /tmp/ccy5xk8N.s 			page 20


 1030 0122 5E0F      		rrum.w	#4, R14
 1031 0124 7EF0 0600 		AND.B	#6, R14
 1032 0128 4EDC      		BIS.B	R12, R14
 1033 012a 4EDD      		BIS.B	R13, R14
 1034 012c 7D40 1E00 		MOV.B	#30, R13
 1035 0130 CC0A      		MOVA	R10, R12
 1036 0132 4613      		CALLA	R6
 1037 0134 6E44      		MOV.B	@R4, R14
 1038 0136 3EE0 8000 		XOR.W	#128, R14
 1039 013a 7EF0 80FF 		AND.B	#-128, R14
 1040 013e 7D40 1F00 		MOV.B	#31, R13
 1041               	.L115:
 1042 0142 CC0A      		MOVA	R10, R12
 1043 0144 4613      		CALLA	R6
 1044 0146 7C40 0300 		MOV.B	#3, R12
 1045 014a 5C98 2000 		CMP.B	32(R8), R12 { JHS	.L109
 1045      002C 
 1046 0150 8C00 0000 		MOVA	#__func__.5138, R12
 1047 0154 B013 0000 		CALLA	#chSysHalt
 1048               	.L109:
 1049 0158 5E48 2000 		MOV.B	32(R8), R14
 1050 015c 0E5E      		RLA.W	R14
 1051 015e 7ED0 3800 		BIS.B	#56, R14
 1052 0162 7D40 1200 		MOV.B	#18, R13
 1053 0166 CC0A      		MOVA	R10, R12
 1054 0168 4613      		CALLA	R6
 1055 016a 7E40 5100 		MOV.B	#81, R14
 1056 016e 7D40 0E00 		MOV.B	#14, R13
 1057 0172 CC0A      		MOVA	R10, R12
 1058 0174 4613      		CALLA	R6
 1059 0176 7E40 C0FF 		MOV.B	#-64, R14
 1060 017a 7D40 0C00 		MOV.B	#12, R13
 1061 017e CC0A      		MOVA	R10, R12
 1062 0180 4613      		CALLA	R6
 1063 0182 FA40 C0FF 		MOV.B	#-64, 5(R10)
 1063      0500 
 1064               		; start of epilogue
 1065 0188 0416      		POPM.A	#1, r4
 1066 018a 0616      		POPM.A	#1, r6
 1067 018c 0816      		POPM.A	#1, r8
 1068 018e 0A16      		POPM.A	#1, r10
 1069 0190 1001      		RETA
 1070               	.L110:
 1071 0192 3D40 80FF 		MOV.W	#-128, R13
 1072 0196 8000 0000 		BRA	#.L106
 1073               	.L101:
 1074 019a 7E40 6400 		MOV.B	#100, R14
 1075 019e 5D43      		MOV.B	#1, R13
 1076 01a0 8000 0000 		BRA	#.L115
 1077               		.size	sx1212Start, .-sx1212Start
 1078               		.section	.text.sx1212Stop,"ax",@progbits
 1079               		.balign 2
 1080               		.global	sx1212Stop
 1081               		.type	sx1212Stop, @function
 1082               	sx1212Stop:
 1083               	; start of function
 1084               	; framesize_regs:     4
GAS LISTING /tmp/ccy5xk8N.s 			page 21


 1085               	; framesize_locals:   0
 1086               	; framesize_outgoing: 0
 1087               	; framesize:          4
 1088               	; elim ap -> fp       8
 1089               	; elim fp -> sp       0
 1090               	; saved regs: R10
 1091               		; start of prologue
 1092 0000 0A14      		PUSHM.A	#1, R10
 1093               		; end of prologue
 1094 0002 CA0C      		MOVA	R12, R10
 1095 0004 B013 0000 		CALLA	#sx1212Reset.isra.2
 1096 0008 0C0A      		MOVA	@R10, R12
 1097 000a 3D0C 0400 		MOVA	4(R12), R13
 1098 000e 0C0C      		MOVA	@R12, R12
 1099 0010 B013 0000 		CALLA	#spiStart
 1100 0014 4D43      		MOV.B	#0, R13
 1101 0016 CC0A      		MOVA	R10, R12
 1102 0018 B013 0000 		CALLA	#sx1212SetMode
 1103 001c FA40 3000 		MOV.B	#48, 4(R10)
 1103      0400 
 1104 0022 0C0A      		MOVA	@R10, R12
 1105 0024 0C0C      		MOVA	@R12, R12
 1106 0026 B013 0000 		CALLA	#spiStop
 1107               		; start of epilogue
 1108 002a 0A16      		POPM.A	#1, r10
 1109 002c 1001      		RETA
 1110               		.size	sx1212Stop, .-sx1212Stop
 1111               		.section	.text.sx1212ReceiveI,"ax",@progbits
 1112               		.balign 2
 1113               		.global	sx1212ReceiveI
 1114               		.type	sx1212ReceiveI, @function
 1115               	sx1212ReceiveI:
 1116               	; start of function
 1117               	; framesize_regs:     12
 1118               	; framesize_locals:   0
 1119               	; framesize_outgoing: 0
 1120               	; framesize:          12
 1121               	; elim ap -> fp       16
 1122               	; elim fp -> sp       0
 1123               	; saved regs: R6 R8 R10
 1124               		; start of prologue
 1125 0000 0A14      		PUSHM.A	#1, R10
 1126 0002 0814      		PUSHM.A	#1, R8
 1127 0004 0614      		PUSHM.A	#1, R6
 1128               		; end of prologue
 1129 0006 C80C      		MOVA	R12, R8
 1130 0008 CA0D      		MOVA	R13, R10
 1131 000a C60E      		MOVA	R14, R6
 1132 000c 7C40 3F00 		MOV.B	#63, R12
 1133 0010 DC0D 002C 		CMPA	R13, R12 { JHS	.L118
 1134 0014 8C00 0000 		MOVA	#__func__.5152, R12
 1135 0018 B013 0000 		CALLA	#chSysHalt
 1136               	.L118:
 1137 001c CF06      		MOVA	R6, R15
 1138 001e 5E43      		MOV.B	#1, R14
 1139 0020 7D40 0A00 		MOV.B	#10, R13
 1140 0024 3C40 2002 		MOV.W	#544, R12
GAS LISTING /tmp/ccy5xk8N.s 			page 22


 1141 0028 B013 0000 		CALLA	#_pal_lld_enablepadevent
 1142 002c 4D4A      		MOV.B	R10, R13
 1143 002e CC08      		MOVA	R8, R12
 1144 0030 B013 0000 		CALLA	#sx1212SetFifoThreshold
 1145               		; start of epilogue
 1146 0034 0616      		POPM.A	#1, r6
 1147 0036 0816      		POPM.A	#1, r8
 1148 0038 0A16      		POPM.A	#1, r10
 1149 003a 1001      		RETA
 1150               		.size	sx1212ReceiveI, .-sx1212ReceiveI
 1151               		.section	.text.sx1212StartReceive,"ax",@progbits
 1152               		.balign 2
 1153               		.global	sx1212StartReceive
 1154               		.type	sx1212StartReceive, @function
 1155               	sx1212StartReceive:
 1156               	; start of function
 1157               	; framesize_regs:     16
 1158               	; framesize_locals:   0
 1159               	; framesize_outgoing: 0
 1160               	; framesize:          16
 1161               	; elim ap -> fp       20
 1162               	; elim fp -> sp       0
 1163               	; saved regs: R4 R6 R8 R10
 1164               		; start of prologue
 1165 0000 0A14      		PUSHM.A	#1, R10
 1166 0002 0814      		PUSHM.A	#1, R8
 1167 0004 0614      		PUSHM.A	#1, R6
 1168 0006 0414      		PUSHM.A	#1, R4
 1169               		; end of prologue
 1170 0008 CA0C      		MOVA	R12, R10
 1171 000a C60D      		MOVA	R13, R6
 1172 000c C80E      		MOVA	R14, R8
 1173 000e FC40 80FF 		MOV.B	#-128, 6(R12)
 1173      0600 
 1174 0014 FC40 3000 		MOV.B	#48, 7(R12)
 1174      0700 
 1175 001a 8400 0000 		MOVA	#sx1212SetRegister.isra.0, R4
 1176 001e 7E40 B0FF 		MOV.B	#-80, R14
 1177 0022 7D40 0D00 		MOV.B	#13, R13
 1178 0026 4413      		CALLA	R4
 1179               	 ; 347 "../ChibiOS-Contrib/os/common/ports/MSP430X/chcore.h" 1
 1180 0028 32C2 0343 		dint { nop
 1181               	 ; 0 "" 2
 1182               	 ; 348 "../ChibiOS-Contrib/os/common/ports/MSP430X/chcore.h" 1
 1183 002c 0343      		nop
 1184               	 ; 0 "" 2
 1185 002e CE08      		MOVA	R8, R14
 1186 0030 CD06      		MOVA	R6, R13
 1187 0032 CC0A      		MOVA	R10, R12
 1188 0034 B013 0000 		CALLA	#sx1212ReceiveI
 1189               	 ; 355 "../ChibiOS-Contrib/os/common/ports/MSP430X/chcore.h" 1
 1190 0038 0343      		nop
 1191               	 ; 0 "" 2
 1192               	 ; 356 "../ChibiOS-Contrib/os/common/ports/MSP430X/chcore.h" 1
 1193 003a 0343 32D2 		nop { eint { nop
 1193      0343 
 1194               	 ; 0 "" 2
GAS LISTING /tmp/ccy5xk8N.s 			page 23


 1195 0040 8800 0000 		MOVA	#sx1212SetMode, R8
 1196 0044 7D40 2000 		MOV.B	#32, R13
 1197 0048 CC0A      		MOVA	R10, R12
 1198 004a 4813      		CALLA	R8
 1199 004c 7C40 0500 		MOV.B	#5, R12
 1200 0050 B013 0000 		CALLA	#chThdSleep
 1201 0054 7D40 4000 		MOV.B	#64, R13
 1202 0058 CC0A      		MOVA	R10, R12
 1203 005a 4813      		CALLA	R8
 1204 005c 4D43      		MOV.B	#0, R13
 1205 005e 3C40 20B2 		MOV.W	#45600, R12
 1206 0062 B013 0000 		CALLA	#irq_block_with_timeout.isra.3
 1207 0066 C60C      		MOVA	R12, R6
 1208 0068 600C 0000 		MOVA	R12, &suspend_result
 1209 006c 9C00 0000 		CMPA	#0, R12 { JNE	.L120
 1209      0020 
 1210 0072 7D40 6000 		MOV.B	#96, R13
 1211 0076 CC0A      		MOVA	R10, R12
 1212 0078 4813      		CALLA	R8
 1213 007a 7E40 5100 		MOV.B	#81, R14
 1214 007e 7D40 0E00 		MOV.B	#14, R13
 1215 0082 CC0A      		MOVA	R10, R12
 1216 0084 4413      		CALLA	R4
 1217               	.L120:
 1218 0086 6006 0000 		MOVA	R6, &suspend_result
 1219 008a CC06      		MOVA	R6, R12
 1220               		; start of epilogue
 1221 008c 0416      		POPM.A	#1, r4
 1222 008e 0616      		POPM.A	#1, r6
 1223 0090 0816      		POPM.A	#1, r8
 1224 0092 0A16      		POPM.A	#1, r10
 1225 0094 1001      		RETA
 1226               		.size	sx1212StartReceive, .-sx1212StartReceive
 1227               		.section	.text.sx1212FifoReadAsync,"ax",@progbits
 1228               		.balign 2
 1229               		.global	sx1212FifoReadAsync
 1230               		.type	sx1212FifoReadAsync, @function
 1231               	sx1212FifoReadAsync:
 1232               	; start of function
 1233               	; framesize_regs:     16
 1234               	; framesize_locals:   0
 1235               	; framesize_outgoing: 0
 1236               	; framesize:          16
 1237               	; elim ap -> fp       20
 1238               	; elim fp -> sp       0
 1239               	; saved regs: R4 R6 R8 R10
 1240               		; start of prologue
 1241 0000 0A14      		PUSHM.A	#1, R10
 1242 0002 0814      		PUSHM.A	#1, R8
 1243 0004 0614      		PUSHM.A	#1, R6
 1244 0006 0414      		PUSHM.A	#1, R4
 1245               		; end of prologue
 1246 0008 C60C      		MOVA	R12, R6
 1247 000a C40D      		MOVA	R13, R4
 1248 000c CA0E      		MOVA	R14, R10
 1249 000e C80F      		MOVA	R15, R8
 1250 0010 0C0C      		MOVA	@R12, R12
GAS LISTING /tmp/ccy5xk8N.s 			page 24


 1251 0012 0018 CC93 		CMPX.A	#0, 8(R12) { JEQ	.L122
 1251      0800 0024 
 1252 001a 8C00 0000 		MOVA	#__func__.5159, R12
 1253 001e B013 0000 		CALLA	#chSysHalt
 1254               	.L122:
 1255 0022 CC06      		MOVA	R6, R12
 1256 0024 B013 0000 		CALLA	#spi_mode_data
 1257 0028 7608 0C00 		MOVA	R8, 12(R6)
 1258 002c 0C06      		MOVA	@R6, R12
 1259 002e CE0A      		MOVA	R10, R14
 1260 0030 CD04      		MOVA	R4, R13
 1261 0032 0C0C      		MOVA	@R12, R12
 1262 0034 B013 0000 		CALLA	#spiStartReceive
 1263               		; start of epilogue
 1264 0038 0416      		POPM.A	#1, r4
 1265 003a 0616      		POPM.A	#1, r6
 1266 003c 0816      		POPM.A	#1, r8
 1267 003e 0A16      		POPM.A	#1, r10
 1268 0040 1001      		RETA
 1269               		.size	sx1212FifoReadAsync, .-sx1212FifoReadAsync
 1270               		.section	.text.sx1212FifoRead,"ax",@progbits
 1271               		.balign 2
 1272               		.global	sx1212FifoRead
 1273               		.type	sx1212FifoRead, @function
 1274               	sx1212FifoRead:
 1275               	; start of function
 1276               	; framesize_regs:     28
 1277               	; framesize_locals:   4
 1278               	; framesize_outgoing: 0
 1279               	; framesize:          32
 1280               	; elim ap -> fp       32
 1281               	; elim fp -> sp       4
 1282               	; saved regs: R4 R5 R6 R7 R8 R9 R10
 1283               		; start of prologue
 1284 0000 6A14      		PUSHM.A	#7, R10
 1285 0002 B100 0400 		SUBA	#4, R1
 1286               		; end of prologue
 1287 0006 C40C      		MOVA	R12, R4
 1288 0008 C50E      		MOVA	R14, R5
 1289 000a ED0E      		ADDA	R14, R13
 1290 000c 710D 0000 		MOVA	R13, @R1
 1291 0010 5A43      		MOV.B	#1, R10
 1292 0012 7943      		MOV.B	#-1, R9
 1293               	.L124:
 1294 0014 0018 C195 		CMPX.A	R5, @R1 { JNE	.L125
 1294      0000 0020 
 1295               		; start of epilogue
 1296 001c A100 0400 		ADDA	#4, R1
 1297 0020 6416      		POPM.A	#7, r10
 1298 0022 1001      		RETA
 1299               	.L125:
 1300 0024 0804      		MOVA	@R4, R8
 1301 0026 3C08 0800 		MOVA	8(R8), R12
 1302 002a C60C      		MOVA	R12, R6
 1303 002c 0018 76F0 		ANDX.A	#4095, R6
 1303      FF0F 
 1304 0032 1746 0200 		MOV.W	2(R6), R7
GAS LISTING /tmp/ccy5xk8N.s 			page 25


 1305 0036 0C14 4018 		PUSHM.A	#1, R12 { POPX.W	R12 { POPX.W	R13 ; move pointer in R12 into reg-pair R12:R13
 1305      3C41 4018 
 1305      3D41 
 1306 0040 B013 0000 		CALLA	#__mspabi_srll_12
 1307 0044 0D12 0C12 		PUSH.W	R13 { PUSH.W	R12 { POPM.A	#1, R12
 1307      0C16 
 1308 004a 4018 0D4C 		MOVX	R12, R13
 1309 004e 0C4A      		MOV.W	R10, R12
 1310 0050 B013 0000 		CALLA	#__mspabi_slli
 1311 0054 07CC      		BIC.W	R12, R7
 1312 0056 8647 0200 		MOV.W	R7, 2(R6)
 1313 005a 4D49      		MOV.B	R9, R13
 1314 005c 0C08      		MOVA	@R8, R12
 1315 005e B013 0000 		CALLA	#spi_lld_polled_exchange
 1316 0062 C54C 0000 		MOV.B	R12, @R5
 1317 0066 0C04      		MOVA	@R4, R12
 1318 0068 3C0C 0800 		MOVA	8(R12), R12
 1319 006c C60C      		MOVA	R12, R6
 1320 006e 0018 76F0 		ANDX.A	#4095, R6
 1320      FF0F 
 1321 0074 1846 0200 		MOV.W	2(R6), R8
 1322 0078 0C14 4018 		PUSHM.A	#1, R12 { POPX.W	R12 { POPX.W	R13 ; move pointer in R12 into reg-pair R12:R13
 1322      3C41 4018 
 1322      3D41 
 1323 0082 B013 0000 		CALLA	#__mspabi_srll_12
 1324 0086 0D12 0C12 		PUSH.W	R13 { PUSH.W	R12 { POPM.A	#1, R12
 1324      0C16 
 1325 008c 4018 0D4C 		MOVX	R12, R13
 1326 0090 0C4A      		MOV.W	R10, R12
 1327 0092 B013 0000 		CALLA	#__mspabi_slli
 1328 0096 0CD8      		BIS.W	R8, R12
 1329 0098 864C 0200 		MOV.W	R12, 2(R6)
 1330 009c A500 0100 		ADDA	#1, R5
 1331 00a0 8000 0000 		BRA	#.L124
 1332               		.size	sx1212FifoRead, .-sx1212FifoRead
 1333               		.section	.text.sx1212StopReceive,"ax",@progbits
 1334               		.balign 2
 1335               		.global	sx1212StopReceive
 1336               		.type	sx1212StopReceive, @function
 1337               	sx1212StopReceive:
 1338               	; start of function
 1339               	; framesize_regs:     4
 1340               	; framesize_locals:   0
 1341               	; framesize_outgoing: 0
 1342               	; framesize:          4
 1343               	; elim ap -> fp       8
 1344               	; elim fp -> sp       0
 1345               	; saved regs: R10
 1346               		; start of prologue
 1347 0000 0A14      		PUSHM.A	#1, R10
 1348               		; end of prologue
 1349 0002 CA0C      		MOVA	R12, R10
 1350 0004 7E40 5100 		MOV.B	#81, R14
 1351 0008 7D40 0E00 		MOV.B	#14, R13
 1352 000c B013 0000 		CALLA	#sx1212SetRegister.isra.0
 1353 0010 4D43      		MOV.B	#0, R13
 1354 0012 CC0A      		MOVA	R10, R12
GAS LISTING /tmp/ccy5xk8N.s 			page 26


 1355 0014 B013 0000 		CALLA	#sx1212SetMode
 1356               		; start of epilogue
 1357 0018 0A16      		POPM.A	#1, r10
 1358 001a 1001      		RETA
 1359               		.size	sx1212StopReceive, .-sx1212StopReceive
 1360               		.section	.text.sx1212StopReceiveI,"ax",@progbits
 1361               		.balign 2
 1362               		.global	sx1212StopReceiveI
 1363               		.type	sx1212StopReceiveI, @function
 1364               	sx1212StopReceiveI:
 1365               	; start of function
 1366               	; framesize_regs:     0
 1367               	; framesize_locals:   0
 1368               	; framesize_outgoing: 0
 1369               	; framesize:          0
 1370               	; elim ap -> fp       4
 1371               	; elim fp -> sp       0
 1372               	; saved regs:(none)
 1373               		; start of prologue
 1374               		; end of prologue
 1375 0000 B013 0000 		CALLA	#sx1212StopReceive
 1376               		; start of epilogue
 1377 0004 1001      		RETA
 1378               		.size	sx1212StopReceiveI, .-sx1212StopReceiveI
 1379               		.section	.text.sx1212ReceiveTimeout,"ax",@progbits
 1380               		.balign 2
 1381               		.global	sx1212ReceiveTimeout
 1382               		.type	sx1212ReceiveTimeout, @function
 1383               	sx1212ReceiveTimeout:
 1384               	; start of function
 1385               	; framesize_regs:     28
 1386               	; framesize_locals:   4
 1387               	; framesize_outgoing: 0
 1388               	; framesize:          32
 1389               	; elim ap -> fp       32
 1390               	; elim fp -> sp       4
 1391               	; saved regs: R4 R5 R6 R7 R8 R9 R10
 1392               		; start of prologue
 1393 0000 6A14      		PUSHM.A	#7, R10
 1394 0002 B100 0400 		SUBA	#4, R1
 1395               		; end of prologue
 1396 0006 CA0C      		MOVA	R12, R10
 1397 0008 C50D      		MOVA	R13, R5
 1398 000a C60E      		MOVA	R14, R6
 1399 000c 094F      		MOV.W	R15, R9
 1400 000e 0E0C      		MOVA	@R12, R14
 1401 0010 8800 0000 		MOVA	#sx1212SetRegister.isra.0, R8
 1402 0014 0018 CE93 		CMPX.A	#0, 38(R14) { JEQ	.L129
 1402      2600 0024 
 1403 001c 5E4E 2B00 		MOV.B	43(R14), R14
 1404 0020 4018 0C4E 		MOVX	R14, R12
 1405 0024 DC0D 002C 		CMPA	R13, R12 { JHS	.L130
 1406 0028 8C00 0000 		MOVA	#__func__.5117, R12
 1407 002c B013 0000 		CALLA	#chSysHalt
 1408               	.L130:
 1409 0030 CA43 0600 		MOV.B	#0, 6(R10)
 1410 0034 CA43 0700 		MOV.B	#0, 7(R10)
GAS LISTING /tmp/ccy5xk8N.s 			page 27


 1411 0038 4E43      		MOV.B	#0, R14
 1412 003a 7D40 0D00 		MOV.B	#13, R13
 1413 003e CC0A      		MOVA	R10, R12
 1414 0040 4813      		CALLA	R8
 1415 0042 0C0A      		MOVA	@R10, R12
 1416 0044 3C0C 2600 		MOVA	38(R12), R12
 1417 0048 6C4C      		MOV.B	@R12, R12
 1418 004a 7CF0 88FF 		AND.B	#-120, R12
 1419 004e 8E00 0000 		MOVA	#irq_block_with_timeout.isra.3, R14
 1420 0052 0D49      		MOV.W	R9, R13
 1421 0054 7C90 88FF 		CMP.B	#-120, R12 { JNE	.L131
 1421      0020 
 1422 005a 3C40 20A2 		MOV.W	#41504, R12
 1423 005e 4E13      		CALLA	R14
 1424 0060 C80C      		MOVA	R12, R8
 1425 0062 600C 0000 		MOVA	R12, &suspend_result
 1426 0066 9C00 0000 		CMPA	#0, R12 { JNE	.L132
 1426      0020 
 1427               	.L153:
 1428 006c 0C0A      		MOVA	@R10, R12
 1429 006e 3C0C 2600 		MOVA	38(R12), R12
 1430 0072 8400 0000 		MOVA	#fifo_read_safe, R4
 1431 0076 4018 DCB3 		BITX.B	#1, @R12 { JEQ	.L134
 1431      0000 0024 
 1432 007e CE06      		MOVA	R6, R14
 1433 0080 5D43      		MOV.B	#1, R13
 1434 0082 CC0A      		MOVA	R10, R12
 1435 0084 4413      		CALLA	R4
 1436 0086 6C46      		MOV.B	@R6, R12
 1437 0088 4018 054C 		MOVX	R12, R5
 1438 008c A600 0100 		ADDA	#1, R6
 1439               	.L134:
 1440 0090 CE06      		MOVA	R6, R14
 1441 0092 CD05      		MOVA	R5, R13
 1442 0094 CC0A      		MOVA	R10, R12
 1443 0096 4413      		CALLA	R4
 1444               	.L132:
 1445 0098 6008 0000 		MOVA	R8, &suspend_result
 1446 009c CC08      		MOVA	R8, R12
 1447               		; start of epilogue
 1448 009e A100 0400 		ADDA	#4, R1
 1449 00a2 6416      		POPM.A	#7, r10
 1450 00a4 1001      		RETA
 1451               	.L131:
 1452 00a6 3C40 2092 		MOV.W	#37408, R12
 1453 00aa 4E13      		CALLA	R14
 1454 00ac C80C      		MOVA	R12, R8
 1455 00ae 600C 0000 		MOVA	R12, &suspend_result
 1456 00b2 9C00 0000 		CMPA	#0, R12 { JNE	.L132
 1456      0020 
 1457 00b8 7D40 2000 		MOV.B	#32, R13
 1458 00bc CC0A      		MOVA	R10, R12
 1459 00be B013 0000 		CALLA	#sx1212SetMode
 1460 00c2 8000 0000 		BRA	#.L153
 1461               	.L129:
 1462 00c6 FC40 80FF 		MOV.B	#-128, 6(R12)
 1462      0600 
GAS LISTING /tmp/ccy5xk8N.s 			page 28


 1463 00cc FC40 3000 		MOV.B	#48, 7(R12)
 1463      0700 
 1464 00d2 7E40 B0FF 		MOV.B	#-80, R14
 1465 00d6 7D40 0D00 		MOV.B	#13, R13
 1466 00da 4813      		CALLA	R8
 1467 00dc 0C0A      		MOVA	@R10, R12
 1468 00de 5C4C 2B00 		MOV.B	43(R12), R12
 1469 00e2 4018 0C4C 		MOVX	R12, R12
 1470 00e6 AC00 0200 		ADDA	#2, R12
 1471 00ea 710C 0000 		MOVA	R12, @R1
 1472 00ee CC0A      		MOVA	R10, R12
 1473 00f0 B013 0000 		CALLA	#spi_mode_data
 1474 00f4 4743      		MOV.B	#0, R7
 1475 00f6 8400 0000 		MOVA	#spi_lld_polled_exchange, R4
 1476               	.L135:
 1477 00fa 4018 0847 		MOVX	R7, R8
 1478 00fe 0018 6891 		CMPX.A	@R1, R8 { JHS	.L140
 1478      002C 
 1479 0104 FA90 80FF 		CMP.B	#-128, 6(R10) { JEQ	.L136
 1479      0600 0024 
 1480 010c 8C00 0000 		MOVA	#__func__.4991, R12
 1481 0110 B013 0000 		CALLA	#chSysHalt
 1482               	.L136:
 1483 0114 0D49      		MOV.W	R9, R13
 1484 0116 3C40 2092 		MOV.W	#37408, R12
 1485 011a B013 0000 		CALLA	#irq_block_with_timeout.isra.3
 1486 011e 600C 0000 		MOVA	R12, &suspend_result
 1487 0122 9C00 0000 		CMPA	#0, R12 { JEQ	.L137
 1487      0024 
 1488               	.L140:
 1489 0128 CC0A      		MOVA	R10, R12
 1490 012a B013 0000 		CALLA	#spi_mode_config
 1491 012e 0018 C243 		MOVX.A	#0, &suspend_result
 1491      0000 
 1492 0134 0C0A      		MOVA	@R10, R12
 1493 0136 5C4C 2B00 		MOV.B	43(R12), R12
 1494 013a 4018 0E4C 		MOVX	R12, R14
 1495 013e C70E      		MOVA	R14, R7
 1496 0140 A700 0200 		ADDA	#2, R7
 1497 0144 EE06      		ADDA	R6, R14
 1498 0146 6C4E      		MOV.B	@R14, R12
 1499 0148 0C5C      		RLA.W	R12
 1500 014a 5E4E 0100 		MOV.B	1(R14), R14
 1501 014e 0CDE      		BIS.W	R14, R12
 1502 0150 4018 0C4C 		MOVX	R12, R12
 1503 0154 D50C 0028 		CMPA	R12, R5 { JLO	.L143
 1504               	.L138:
 1505 0158 D705 0028 		CMPA	R5, R7 { JLO	.L142
 1506 015c 7E40 5100 		MOV.B	#81, R14
 1507 0160 7D40 0E00 		MOV.B	#14, R13
 1508 0164 CC0A      		MOVA	R10, R12
 1509 0166 B013 0000 		CALLA	#sx1212SetRegister.isra.0
 1510 016a 4843      		MOV.B	#0, R8
 1511 016c 8000 0000 		BRA	#.L132
 1512               	.L137:
 1513 0170 E806      		ADDA	R6, R8
 1514 0172 0C0A      		MOVA	@R10, R12
GAS LISTING /tmp/ccy5xk8N.s 			page 29


 1515 0174 7D43      		MOV.B	#-1, R13
 1516 0176 0C0C      		MOVA	@R12, R12
 1517 0178 4413      		CALLA	R4
 1518 017a C84C 0000 		MOV.B	R12, @R8
 1519 017e 1753      		ADD.W	#1, R7
 1520 0180 8000 0000 		BRA	#.L135
 1521               	.L142:
 1522 0184 0018 4445 		MOVX.A	R5, R4 { SUBX.A	R7, R4
 1522      0018 4487 
 1523 018c 7C40 3F00 		MOV.B	#63, R12
 1524 0190 DC04 0028 		CMPA	R4, R12 { JLO	.L144
 1525 0194 7D40 2000 		MOV.B	#32, R13
 1526 0198 CC0A      		MOVA	R10, R12
 1527 019a B013 0000 		CALLA	#sx1212SetMode
 1528               	.L141:
 1529 019e 4D44      		MOV.B	R4, R13
 1530 01a0 7D53      		ADD.B	#-1, R13
 1531 01a2 CC0A      		MOVA	R10, R12
 1532 01a4 B013 0000 		CALLA	#sx1212SetFifoThreshold
 1533 01a8 0D49      		MOV.W	R9, R13
 1534 01aa 3C40 20A2 		MOV.W	#41504, R12
 1535 01ae B013 0000 		CALLA	#irq_block_with_timeout.isra.3
 1536 01b2 C80C      		MOVA	R12, R8
 1537 01b4 600C 0000 		MOVA	R12, &suspend_result
 1538 01b8 9C00 0000 		CMPA	#0, R12 { JNE	.L132
 1538      0020 
 1539 01be CE06      		MOVA	R6, R14
 1540 01c0 EE07      		ADDA	R7, R14
 1541 01c2 CD04      		MOVA	R4, R13
 1542 01c4 CC0A      		MOVA	R10, R12
 1543 01c6 B013 0000 		CALLA	#fifo_read_safe
 1544 01ca E704      		ADDA	R4, R7
 1545 01cc 8000 0000 		BRA	#.L138
 1546               	.L144:
 1547 01d0 7440 3000 		MOV.B	#48, R4
 1548 01d4 8000 0000 		BRA	#.L141
 1549               	.L143:
 1550 01d8 880F FEFF 		MOVA	#-2, R8
 1551 01dc 8000 0000 		BRA	#.L132
 1552               		.size	sx1212ReceiveTimeout, .-sx1212ReceiveTimeout
 1553               		.section	.text.sx1212RSSI,"ax",@progbits
 1554               		.balign 2
 1555               		.global	sx1212RSSI
 1556               		.type	sx1212RSSI, @function
 1557               	sx1212RSSI:
 1558               	; start of function
 1559               	; framesize_regs:     8
 1560               	; framesize_locals:   0
 1561               	; framesize_outgoing: 0
 1562               	; framesize:          8
 1563               	; elim ap -> fp       12
 1564               	; elim fp -> sp       0
 1565               	; saved regs: R8 R10
 1566               		; start of prologue
 1567 0000 0A14      		PUSHM.A	#1, R10
 1568 0002 0814      		PUSHM.A	#1, R8
 1569               		; end of prologue
GAS LISTING /tmp/ccy5xk8N.s 			page 30


 1570 0004 CA0C      		MOVA	R12, R10
 1571 0006 0C0C      		MOVA	@R12, R12
 1572 0008 0C0C      		MOVA	@R12, R12
 1573 000a B013 0000 		CALLA	#spi_lld_select
 1574 000e 0C0A      		MOVA	@R10, R12
 1575 0010 8800 0000 		MOVA	#spi_lld_polled_exchange, R8
 1576 0014 7D40 6800 		MOV.B	#104, R13
 1577 0018 0C0C      		MOVA	@R12, R12
 1578 001a 4813      		CALLA	R8
 1579 001c 0C0A      		MOVA	@R10, R12
 1580 001e 7D43      		MOV.B	#-1, R13
 1581 0020 0C0C      		MOVA	@R12, R12
 1582 0022 4813      		CALLA	R8
 1583 0024 484C      		MOV.B	R12, R8
 1584 0026 0C0A      		MOVA	@R10, R12
 1585 0028 0C0C      		MOVA	@R12, R12
 1586 002a B013 0000 		CALLA	#spi_lld_unselect
 1587 002e 0C48      		MOV.W	R8, R12
 1588 0030 12C3 0C10 		CLRC { RRC.W	R12
 1589 0034 7C50 8DFF 		ADD.B	#-115, R12
 1590               		; start of epilogue
 1591 0038 0816      		POPM.A	#1, r8
 1592 003a 0A16      		POPM.A	#1, r10
 1593 003c 1001      		RETA
 1594               		.size	sx1212RSSI, .-sx1212RSSI
 1595               		.section	.text.sx1212CLKOUT,"ax",@progbits
 1596               		.balign 2
 1597               		.global	sx1212CLKOUT
 1598               		.type	sx1212CLKOUT, @function
 1599               	sx1212CLKOUT:
 1600               	; start of function
 1601               	; framesize_regs:     0
 1602               	; framesize_locals:   0
 1603               	; framesize_outgoing: 0
 1604               	; framesize:          0
 1605               	; elim ap -> fp       4
 1606               	; elim fp -> sp       0
 1607               	; saved regs:(none)
 1608               		; start of prologue
 1609               		; end of prologue
 1610 0000 4118 0D5D 		rpt	#2 { rlax.w	R13
 1611 0004 4E4D      		MOV.B	R13, R14
 1612 0006 7ED0 80FF 		BIS.B	#-128, R14
 1613 000a 7D40 1B00 		MOV.B	#27, R13
 1614 000e B013 0000 		CALLA	#sx1212SetRegister.isra.0
 1615               		; start of epilogue
 1616 0012 1001      		RETA
 1617               		.size	sx1212CLKOUT, .-sx1212CLKOUT
 1618               		.section	.text.sx1212TUNE,"ax",@progbits
 1619               		.balign 2
 1620               		.global	sx1212TUNE
 1621               		.type	sx1212TUNE, @function
 1622               	sx1212TUNE:
 1623               	; start of function
 1624               	; framesize_regs:     0
 1625               	; framesize_locals:   0
 1626               	; framesize_outgoing: 0
GAS LISTING /tmp/ccy5xk8N.s 			page 31


 1627               	; framesize:          0
 1628               	; elim ap -> fp       4
 1629               	; elim fp -> sp       0
 1630               	; saved regs:(none)
 1631               		; start of prologue
 1632               		; end of prologue
 1633 0000 7D40 80FF 		MOV.B	#-128, R13
 1634 0004 B013 0000 		CALLA	#sx1212SetMode
 1635               		; start of epilogue
 1636 0008 1001      		RETA
 1637               		.size	sx1212TUNE, .-sx1212TUNE
 1638               		.section	.upper.rodata,"a",@progbits
 1639               		.type	__func__.4991, @object
 1640               		.size	__func__.4991, 17
 1641               	__func__.4991:
 1642 0000 626C 6F63 		.string	"block_fifo_empty"
 1642      6B5F 6669 
 1642      666F 5F65 
 1642      6D70 7479 
 1642      00
 1643               		.type	__func__.5117, @object
 1644               		.size	__func__.5117, 15
 1645               	__func__.5117:
 1646 0011 7061 636B 		.string	"packet_handler"
 1646      6574 5F68 
 1646      616E 646C 
 1646      6572 00
 1647               		.type	__func__.5159, @object
 1648               		.size	__func__.5159, 20
 1649               	__func__.5159:
 1650 0020 7378 3132 		.string	"sx1212FifoReadAsync"
 1650      3132 4669 
 1650      666F 5265 
 1650      6164 4173 
 1650      796E 6300 
 1651               		.type	__func__.5099, @object
 1652               		.size	__func__.5099, 23
 1653               	__func__.5099:
 1654 0034 7378 3132 		.string	"sx1212SetFifoThreshold"
 1654      3132 5365 
 1654      7446 6966 
 1654      6F54 6872 
 1654      6573 686F 
 1655               		.type	__func__.5152, @object
 1656               		.size	__func__.5152, 15
 1657               	__func__.5152:
 1658 004b 7378 3132 		.string	"sx1212ReceiveI"
 1658      3132 5265 
 1658      6365 6976 
 1658      6549 00
 1659               		.type	__func__.5110, @object
 1660               		.size	__func__.5110, 23
 1661               	__func__.5110:
 1662 005a 7378 3132 		.string	"sx1212ConfigurePackets"
 1662      3132 436F 
 1662      6E66 6967 
 1662      7572 6550 
GAS LISTING /tmp/ccy5xk8N.s 			page 32


 1662      6163 6B65 
 1663               		.type	__func__.5081, @object
 1664               		.size	__func__.5081, 12
 1665               	__func__.5081:
 1666 0071 7378 3132 		.string	"sx1212Reset"
 1666      3132 5265 
 1666      7365 7400 
 1667               		.type	__func__.5138, @object
 1668               		.size	__func__.5138, 12
 1669               	__func__.5138:
 1670 007d 7378 3132 		.string	"sx1212Start"
 1670      3132 5374 
 1670      6172 7400 
 1671               		.type	passive.5104, @object
 1672               		.size	passive.5104, 16
 1673               	passive.5104:
 1674 0089 01        		.byte	1
 1675 008a 04        		.byte	4
 1676 008b 07        		.byte	7
 1677 008c 09        		.byte	9
 1678 008d 0A        		.byte	10
 1679 008e 0C        		.byte	12
 1680 008f 0E        		.byte	14
 1681 0090 0E        		.byte	14
 1682 0091 0E        		.byte	14
 1683 0092 0F        		.byte	15
 1684 0093 0F        		.byte	15
 1685 0094 0F        		.byte	15
 1686 0095 0F        		.byte	15
 1687 0096 0F        		.byte	15
 1688 0097 0F        		.byte	15
 1689 0098 0F        		.byte	15
 1690               		.type	__func__.5105, @object
 1691               		.size	__func__.5105, 14
 1692               	__func__.5105:
 1693 0099 7378 3132 		.string	"sx1212SetRxBw"
 1693      3132 5365 
 1693      7452 7842 
 1693      7700 
 1694               		.type	__func__.5016, @object
 1695               		.size	__func__.5016, 4
 1696               	__func__.5016:
 1697 00a7 6763 6400 		.string	"gcd"
 1698               		.type	__func__.5053, @object
 1699               		.size	__func__.5053, 19
 1700               	__func__.5053:
 1701 00ab 7378 3132 		.string	"sx1212SetFrequency"
 1701      3132 5365 
 1701      7446 7265 
 1701      7175 656E 
 1701      6379 00
 1702               		.type	__func__.5048, @object
 1703               		.size	__func__.5048, 19
 1704               	__func__.5048:
 1705 00be 7378 3132 		.string	"sx1212SetDeviation"
 1705      3132 5365 
 1705      7444 6576 
GAS LISTING /tmp/ccy5xk8N.s 			page 33


 1705      6961 7469 
 1705      6F6E 00
 1706               		.type	__func__.4971, @object
 1707               		.size	__func__.4971, 18
 1708               	__func__.4971:
 1709 00d1 7378 3132 		.string	"sx1212SetRegister"
 1709      3132 5365 
 1709      7452 6567 
 1709      6973 7465 
 1709      7200 
 1710               		.type	__func__.5034, @object
 1711               		.size	__func__.5034, 17
 1712               	__func__.5034:
 1713 00e3 7378 3132 		.string	"sx1212SetBitrate"
 1713      3132 5365 
 1713      7442 6974 
 1713      7261 7465 
 1713      00
 1714               		.local	suspend_result
 1715               		.comm	suspend_result,4,2
 1716               		.global	sending
 1717               		.section	.upper.bss,"aw",@nobits
 1718               		.type	sending, @object
 1719               		.size	sending, 1
 1720               	sending:
 1721 0000 00        		.zero	1
 1722               		.global	tr
 1723 0001 00        		.balign 2
 1724               		.type	tr, @object
 1725               		.size	tr, 4
 1726               	tr:
 1727 0002 0000 0000 		.zero	4
 1728               		.global	SX1212D1
 1729               		.balign 2
 1730               		.type	SX1212D1, @object
 1731               		.size	SX1212D1, 28
 1732               	SX1212D1:
 1733 0006 0000 0000 		.zero	28
 1733      0000 0000 
 1733      0000 0000 
 1733      0000 0000 
 1733      0000 0000 
 1734               		.ident	"GCC: (SOMNIUM Technologies Limited - msp430-gcc 6.2.1.16) 6.2.1 20161212"
GAS LISTING /tmp/ccy5xk8N.s 			page 34


DEFINED SYMBOLS
                            *ABS*:0000000000000000 sx1212.c
     /tmp/ccy5xk8N.s:5      .text.spi_end_cb:0000000000000000 spi_end_cb
     /tmp/ccy5xk8N.s:1732   .upper.bss:0000000000000006 SX1212D1
     /tmp/ccy5xk8N.s:30     .text.blockuntil_callback:0000000000000000 blockuntil_callback
     /tmp/ccy5xk8N.s:1726   .upper.bss:0000000000000002 tr
     /tmp/ccy5xk8N.s:50     .text.sx1212SetRegister.isra.0:0000000000000000 sx1212SetRegister.isra.0
     /tmp/ccy5xk8N.s:1708   .upper.rodata:00000000000000d1 __func__.4971
     /tmp/ccy5xk8N.s:99     .text.sx1212SetMode:0000000000000000 sx1212SetMode
     /tmp/ccy5xk8N.s:125    .text.sx1212SetFifoThreshold:0000000000000000 sx1212SetFifoThreshold
     /tmp/ccy5xk8N.s:1653   .upper.rodata:0000000000000034 __func__.5099
     /tmp/ccy5xk8N.s:159    .text.sx1212Reset.isra.2:0000000000000000 sx1212Reset.isra.2
     /tmp/ccy5xk8N.s:1665   .upper.rodata:0000000000000071 __func__.5081
     /tmp/ccy5xk8N.s:237    .text.irq_block_with_timeout.isra.3:0000000000000000 irq_block_with_timeout.isra.3
     /tmp/ccy5xk8N.s:1715   .bss:0000000000000000 suspend_result
     /tmp/ccy5xk8N.s:298    .text.spi_mode_config:0000000000000000 spi_mode_config
     /tmp/ccy5xk8N.s:322    .text.spi_mode_data:0000000000000000 spi_mode_data
     /tmp/ccy5xk8N.s:345    .text.fifo_read_safe:0000000000000000 fifo_read_safe
     /tmp/ccy5xk8N.s:388    .text.sx1212SetBitrate:0000000000000000 sx1212SetBitrate
     /tmp/ccy5xk8N.s:1712   .upper.rodata:00000000000000e3 __func__.5034
     /tmp/ccy5xk8N.s:506    .text.sx1212SetDeviation:0000000000000000 sx1212SetDeviation
     /tmp/ccy5xk8N.s:1704   .upper.rodata:00000000000000be __func__.5048
     /tmp/ccy5xk8N.s:555    .text.sx1212SetFrequency:0000000000000000 sx1212SetFrequency
     /tmp/ccy5xk8N.s:1700   .upper.rodata:00000000000000ab __func__.5053
     /tmp/ccy5xk8N.s:1696   .upper.rodata:00000000000000a7 __func__.5016
     /tmp/ccy5xk8N.s:850    .text.sx1212SetSync:0000000000000000 sx1212SetSync
     /tmp/ccy5xk8N.s:890    .text.sx1212SetRxBw:0000000000000000 sx1212SetRxBw
     /tmp/ccy5xk8N.s:1692   .upper.rodata:0000000000000099 __func__.5105
     /tmp/ccy5xk8N.s:1673   .upper.rodata:0000000000000089 passive.5104
     /tmp/ccy5xk8N.s:927    .text.sx1212Start:0000000000000000 sx1212Start
     /tmp/ccy5xk8N.s:1661   .upper.rodata:000000000000005a __func__.5110
     /tmp/ccy5xk8N.s:1669   .upper.rodata:000000000000007d __func__.5138
     /tmp/ccy5xk8N.s:1082   .text.sx1212Stop:0000000000000000 sx1212Stop
     /tmp/ccy5xk8N.s:1115   .text.sx1212ReceiveI:0000000000000000 sx1212ReceiveI
     /tmp/ccy5xk8N.s:1657   .upper.rodata:000000000000004b __func__.5152
     /tmp/ccy5xk8N.s:1155   .text.sx1212StartReceive:0000000000000000 sx1212StartReceive
     /tmp/ccy5xk8N.s:1231   .text.sx1212FifoReadAsync:0000000000000000 sx1212FifoReadAsync
     /tmp/ccy5xk8N.s:1649   .upper.rodata:0000000000000020 __func__.5159
     /tmp/ccy5xk8N.s:1274   .text.sx1212FifoRead:0000000000000000 sx1212FifoRead
     /tmp/ccy5xk8N.s:1337   .text.sx1212StopReceive:0000000000000000 sx1212StopReceive
     /tmp/ccy5xk8N.s:1364   .text.sx1212StopReceiveI:0000000000000000 sx1212StopReceiveI
     /tmp/ccy5xk8N.s:1383   .text.sx1212ReceiveTimeout:0000000000000000 sx1212ReceiveTimeout
     /tmp/ccy5xk8N.s:1645   .upper.rodata:0000000000000011 __func__.5117
     /tmp/ccy5xk8N.s:1641   .upper.rodata:0000000000000000 __func__.4991
     /tmp/ccy5xk8N.s:1557   .text.sx1212RSSI:0000000000000000 sx1212RSSI
     /tmp/ccy5xk8N.s:1599   .text.sx1212CLKOUT:0000000000000000 sx1212CLKOUT
     /tmp/ccy5xk8N.s:1622   .text.sx1212TUNE:0000000000000000 sx1212TUNE
     /tmp/ccy5xk8N.s:1720   .upper.bss:0000000000000000 sending
     /tmp/ccy5xk8N.s:92     .text.sx1212SetRegister.isra.0:0000000000000046 .L4
     /tmp/ccy5xk8N.s:70     .text.sx1212SetRegister.isra.0:0000000000000018 .L5
     /tmp/ccy5xk8N.s:67     .text.sx1212SetRegister.isra.0:0000000000000010 .L6
     /tmp/ccy5xk8N.s:144    .text.sx1212SetFifoThreshold:0000000000000018 .L12
     /tmp/ccy5xk8N.s:176    .text.sx1212Reset.isra.2:0000000000000016 .L14
     /tmp/ccy5xk8N.s:287    .text.irq_block_with_timeout.isra.3:000000000000006e .L16
     /tmp/ccy5xk8N.s:273    .text.irq_block_with_timeout.isra.3:0000000000000056 .L17
     /tmp/ccy5xk8N.s:372    .text.fifo_read_safe:0000000000000026 .L22
     /tmp/ccy5xk8N.s:364    .text.fifo_read_safe:0000000000000014 .L21
GAS LISTING /tmp/ccy5xk8N.s 			page 35


     /tmp/ccy5xk8N.s:409    .text.sx1212SetBitrate:000000000000001e .L34
     /tmp/ccy5xk8N.s:412    .text.sx1212SetBitrate:0000000000000026 .L24
     /tmp/ccy5xk8N.s:441    .text.sx1212SetBitrate:000000000000006c .L26
     /tmp/ccy5xk8N.s:467    .text.sx1212SetBitrate:00000000000000aa .L33
     /tmp/ccy5xk8N.s:436    .text.sx1212SetBitrate:0000000000000064 .L23
     /tmp/ccy5xk8N.s:491    .text.sx1212SetBitrate:00000000000000e8 .L30
     /tmp/ccy5xk8N.s:456    .text.sx1212SetBitrate:0000000000000090 .L31
     /tmp/ccy5xk8N.s:498    .text.sx1212SetBitrate:00000000000000fa .L36
     /tmp/ccy5xk8N.s:453    .text.sx1212SetBitrate:0000000000000088 .L29
     /tmp/ccy5xk8N.s:537    .text.sx1212SetDeviation:000000000000003e .L46
     /tmp/ccy5xk8N.s:540    .text.sx1212SetDeviation:0000000000000046 .L44
     /tmp/ccy5xk8N.s:582    .text.sx1212SetFrequency:0000000000000036 .L82
     /tmp/ccy5xk8N.s:585    .text.sx1212SetFrequency:000000000000003e .L48
     /tmp/ccy5xk8N.s:595    .text.sx1212SetFrequency:000000000000005c .L50
     /tmp/ccy5xk8N.s:729    .text.sx1212SetFrequency:00000000000001d8 .L52
     /tmp/ccy5xk8N.s:734    .text.sx1212SetFrequency:00000000000001ea .L55
     /tmp/ccy5xk8N.s:737    .text.sx1212SetFrequency:00000000000001f4 .L58
     /tmp/ccy5xk8N.s:623    .text.sx1212SetFrequency:00000000000000a0 .L60
     /tmp/ccy5xk8N.s:616    .text.sx1212SetFrequency:0000000000000094 .L83
     /tmp/ccy5xk8N.s:743    .text.sx1212SetFrequency:0000000000000202 .L62
     /tmp/ccy5xk8N.s:749    .text.sx1212SetFrequency:000000000000020e .L64
     /tmp/ccy5xk8N.s:753    .text.sx1212SetFrequency:0000000000000218 .L67
     /tmp/ccy5xk8N.s:657    .text.sx1212SetFrequency:0000000000000108 .L68
     /tmp/ccy5xk8N.s:756    .text.sx1212SetFrequency:000000000000021e .L70
     /tmp/ccy5xk8N.s:708    .text.sx1212SetFrequency:00000000000001aa .L85
     /tmp/ccy5xk8N.s:601    .text.sx1212SetFrequency:000000000000006e .L51
     /tmp/ccy5xk8N.s:605    .text.sx1212SetFrequency:0000000000000078 .L54
     /tmp/ccy5xk8N.s:609    .text.sx1212SetFrequency:0000000000000080 .L57
     /tmp/ccy5xk8N.s:641    .text.sx1212SetFrequency:00000000000000da .L63
     /tmp/ccy5xk8N.s:648    .text.sx1212SetFrequency:00000000000000ec .L91
     /tmp/ccy5xk8N.s:774    .text.sx1212SetFrequency:0000000000000258 .L73
     /tmp/ccy5xk8N.s:766    .text.sx1212SetFrequency:0000000000000240 .L86
     /tmp/ccy5xk8N.s:715    .text.sx1212SetFrequency:00000000000001c0 .L93
     /tmp/ccy5xk8N.s:793    .text.sx1212SetFrequency:0000000000000292 .L75
     /tmp/ccy5xk8N.s:784    .text.sx1212SetFrequency:000000000000027a .L87
     /tmp/ccy5xk8N.s:809    .text.sx1212SetFrequency:00000000000002c6 .L77
     /tmp/ccy5xk8N.s:803    .text.sx1212SetFrequency:00000000000002b4 .L88
     /tmp/ccy5xk8N.s:789    .text.sx1212SetFrequency:0000000000000286 .L94
     /tmp/ccy5xk8N.s:825    .text.sx1212SetFrequency:00000000000002fa .L79
     /tmp/ccy5xk8N.s:819    .text.sx1212SetFrequency:00000000000002e8 .L89
     /tmp/ccy5xk8N.s:724    .text.sx1212SetFrequency:00000000000001d0 .L47
     /tmp/ccy5xk8N.s:835    .text.sx1212SetFrequency:000000000000031c .L90
     /tmp/ccy5xk8N.s:718    .text.sx1212SetFrequency:00000000000001c4 .L92
     /tmp/ccy5xk8N.s:868    .text.sx1212SetSync:0000000000000014 .L96
     /tmp/ccy5xk8N.s:909    .text.sx1212SetRxBw:0000000000000018 .L99
     /tmp/ccy5xk8N.s:1073   .text.sx1212Start:000000000000019a .L101
     /tmp/ccy5xk8N.s:988    .text.sx1212Start:00000000000000aa .L102
     /tmp/ccy5xk8N.s:993    .text.sx1212Start:00000000000000ba .L103
     /tmp/ccy5xk8N.s:1011   .text.sx1212Start:00000000000000f0 .L104
     /tmp/ccy5xk8N.s:1018   .text.sx1212Start:0000000000000106 .L105
     /tmp/ccy5xk8N.s:1070   .text.sx1212Start:0000000000000192 .L110
     /tmp/ccy5xk8N.s:1048   .text.sx1212Start:0000000000000158 .L109
     /tmp/ccy5xk8N.s:1021   .text.sx1212Start:000000000000010e .L106
     /tmp/ccy5xk8N.s:1041   .text.sx1212Start:0000000000000142 .L115
     /tmp/ccy5xk8N.s:1136   .text.sx1212ReceiveI:000000000000001c .L118
     /tmp/ccy5xk8N.s:1217   .text.sx1212StartReceive:0000000000000086 .L120
     /tmp/ccy5xk8N.s:1254   .text.sx1212FifoReadAsync:0000000000000022 .L122
GAS LISTING /tmp/ccy5xk8N.s 			page 36


     /tmp/ccy5xk8N.s:1299   .text.sx1212FifoRead:0000000000000024 .L125
     /tmp/ccy5xk8N.s:1293   .text.sx1212FifoRead:0000000000000014 .L124
     /tmp/ccy5xk8N.s:1461   .text.sx1212ReceiveTimeout:00000000000000c6 .L129
     /tmp/ccy5xk8N.s:1408   .text.sx1212ReceiveTimeout:0000000000000030 .L130
     /tmp/ccy5xk8N.s:1451   .text.sx1212ReceiveTimeout:00000000000000a6 .L131
     /tmp/ccy5xk8N.s:1444   .text.sx1212ReceiveTimeout:0000000000000098 .L132
     /tmp/ccy5xk8N.s:1439   .text.sx1212ReceiveTimeout:0000000000000090 .L134
     /tmp/ccy5xk8N.s:1427   .text.sx1212ReceiveTimeout:000000000000006c .L153
     /tmp/ccy5xk8N.s:1488   .text.sx1212ReceiveTimeout:0000000000000128 .L140
     /tmp/ccy5xk8N.s:1482   .text.sx1212ReceiveTimeout:0000000000000114 .L136
     /tmp/ccy5xk8N.s:1512   .text.sx1212ReceiveTimeout:0000000000000170 .L137
     /tmp/ccy5xk8N.s:1549   .text.sx1212ReceiveTimeout:00000000000001d8 .L143
     /tmp/ccy5xk8N.s:1521   .text.sx1212ReceiveTimeout:0000000000000184 .L142
     /tmp/ccy5xk8N.s:1476   .text.sx1212ReceiveTimeout:00000000000000fa .L135
     /tmp/ccy5xk8N.s:1546   .text.sx1212ReceiveTimeout:00000000000001d0 .L144
     /tmp/ccy5xk8N.s:1504   .text.sx1212ReceiveTimeout:0000000000000158 .L138
     /tmp/ccy5xk8N.s:1528   .text.sx1212ReceiveTimeout:000000000000019e .L141

UNDEFINED SYMBOLS
chThdResumeI
chSysHalt
spi_lld_select
spi_lld_polled_exchange
spi_lld_unselect
__mspabi_srll_12
__mspabi_slli
_pal_lld_setgroupmode
chThdSleep
_pal_lld_enablepadevent
__mspabi_srli
_pal_lld_disablepadevent
chThdSuspendTimeoutS
__mspabi_divul
__mulhi2_f5
__mulsi2_f5
__mspabi_slll_3
__mspabi_slll
__mspabi_srll
spiStart
spiStop
spiStartReceive
__crt0_init_bss
__crt0_init_highbss
