GAS LISTING /tmp/ccKFr5Gw.s 			page 1


   1               		.file	"sx1278.c"
   2               		.section	.text.spi_callback,"ax",@progbits
   3               		.balign 2
   4               		.global	spi_callback
   5               		.type	spi_callback, @function
   6               	spi_callback:
   7               	; start of function
   8               	; framesize_regs:     16
   9               	; framesize_locals:   0
  10               	; framesize_outgoing: 0
  11               	; framesize:          16
  12               	; elim ap -> fp       20
  13               	; elim fp -> sp       0
  14               	; saved regs: R6 R8 R9 R10
  15               		; start of prologue
  16 0000 2A14      		PUSHM.A	#3, R10
  17 0002 0614      		PUSHM.A	#1, R6
  18               		; end of prologue
  19 0004 CA0C      		MOVA	R12, R10
  20 0006 8800 0000 		MOVA	#SX1278D1, R8
  21 000a 0C08      		MOVA	@R8, R12
  22 000c 3C0C 2200 		MOVA	34(R12), R12
  23 0010 C60C      		MOVA	R12, R6
  24 0012 0018 76F0 		ANDX.A	#4095, R6
  24      FF0F 
  25 0018 1946 0200 		MOV.W	2(R6), R9
  26 001c 0C14 4018 		PUSHM.A	#1, R12 { POPX.W	R12 { POPX.W	R13 ; move pointer in R12 into reg-pair R12:R13
  26      3C41 4018 
  26      3D41 
  27 0026 B013 0000 		CALLA	#__mspabi_srll_12
  28 002a 0D12 0C12 		PUSH.W	R13 { PUSH.W	R12 { POPM.A	#1, R12
  28      0C16 
  29 0030 4018 0D4C 		MOVX	R12, R13
  30 0034 5C43      		MOV.B	#1, R12
  31 0036 B013 0000 		CALLA	#__mspabi_slli
  32 003a 0CD9      		BIS.W	R9, R12
  33 003c 864C 0200 		MOV.W	R12, 2(R6)
  34 0040 3E08 0800 		MOVA	8(R8), R14
  35 0044 9E00 0000 		CMPA	#0, R14 { JEQ	.L1
  35      0024 
  36 004a CC0A      		MOVA	R10, R12
  37 004c 4E13      		CALLA	R14
  38               	.L1:
  39               		; start of epilogue
  40 004e 0616      		POPM.A	#1, r6
  41 0050 2816      		POPM.A	#3, r10
  42 0052 1001      		RETA
  43               		.size	spi_callback, .-spi_callback
  44               		.section	.text.blocking_callback,"ax",@progbits
  45               		.balign 2
  46               		.type	blocking_callback, @function
  47               	blocking_callback:
  48               	; start of function
  49               	; framesize_regs:     0
  50               	; framesize_locals:   0
  51               	; framesize_outgoing: 0
  52               	; framesize:          0
GAS LISTING /tmp/ccKFr5Gw.s 			page 2


  53               	; elim ap -> fp       4
  54               	; elim fp -> sp       0
  55               	; saved regs:(none)
  56               		; start of prologue
  57               		; end of prologue
  58 0000 4D43      		MOV.B	#0, R13
  59 0002 8C00 0000 		MOVA	#tr, R12
  60 0006 B013 0000 		CALLA	#chThdResumeI
  61               		; start of epilogue
  62 000a 1001      		RETA
  63               		.size	blocking_callback, .-blocking_callback
  64               		.section	.text.sx1278Reset.isra.0,"ax",@progbits
  65               		.balign 2
  66               		.type	sx1278Reset.isra.0, @function
  67               	sx1278Reset.isra.0:
  68               	; start of function
  69               	; framesize_regs:     12
  70               	; framesize_locals:   0
  71               	; framesize_outgoing: 0
  72               	; framesize:          12
  73               	; elim ap -> fp       16
  74               	; elim fp -> sp       0
  75               	; saved regs: R8 R9 R10
  76               		; start of prologue
  77 0000 2A14      		PUSHM.A	#3, R10
  78               		; end of prologue
  79 0002 C80C      		MOVA	R12, R8
  80 0004 0C0C      		MOVA	@R12, R12
  81 0006 0018 CC93 		CMPX.A	#0, 30(R12) { JNE	.L8
  81      1E00 0020 
  82 000e 8C00 0000 		MOVA	#__func__.5053, R12
  83 0012 B013 0000 		CALLA	#chSysHalt
  84               	.L8:
  85 0016 0C08      		MOVA	@R8, R12
  86 0018 3A0C 1E00 		MOVA	30(R12), R10
  87 001c 0A14 4018 		PUSHM.A	#1, R10 { POPX.W	R12 { POPX.W	R13 ; move pointer in R10 into reg-pair R12:R13
  87      3C41 4018 
  87      3D41 
  88 0026 B013 0000 		CALLA	#__mspabi_srll_12
  89 002a 0D12 0C12 		PUSH.W	R13 { PUSH.W	R12 { POPM.A	#1, R12
  89      0C16 
  90 0030 4018 0D4C 		MOVX	R12, R13
  91 0034 5C43      		MOV.B	#1, R12
  92 0036 B013 0000 		CALLA	#__mspabi_slli
  93 003a 7E40 0600 		MOV.B	#6, R14
  94 003e 0D4C      		MOV.W	R12, R13
  95 0040 CC0A      		MOVA	R10, R12
  96 0042 0018 7CF0 		ANDX.A	#4095, R12
  96      FF0F 
  97 0048 B013 0000 		CALLA	#_pal_lld_setgroupmode
  98 004c 0C08      		MOVA	@R8, R12
  99 004e 3C0C 1E00 		MOVA	30(R12), R12
 100 0052 CA0C      		MOVA	R12, R10
 101 0054 0018 7AF0 		ANDX.A	#4095, R10
 101      FF0F 
 102 005a 194A 0200 		MOV.W	2(R10), R9
 103 005e 0C14 4018 		PUSHM.A	#1, R12 { POPX.W	R12 { POPX.W	R13 ; move pointer in R12 into reg-pair R12:R13
GAS LISTING /tmp/ccKFr5Gw.s 			page 3


 103      3C41 4018 
 103      3D41 
 104 0068 B013 0000 		CALLA	#__mspabi_srll_12
 105 006c 0D12 0C12 		PUSH.W	R13 { PUSH.W	R12 { POPM.A	#1, R12
 105      0C16 
 106 0072 4018 0D4C 		MOVX	R12, R13
 107 0076 5C43      		MOV.B	#1, R12
 108 0078 B013 0000 		CALLA	#__mspabi_slli
 109 007c 09CC      		BIC.W	R12, R9
 110 007e 8A49 0200 		MOV.W	R9, 2(R10)
 111 0082 8A00 0000 		MOVA	#chThdSleep, R10
 112 0086 5C43      		MOV.B	#1, R12
 113 0088 4A13      		CALLA	R10
 114 008a 0C08      		MOVA	@R8, R12
 115 008c 3C0C 1E00 		MOVA	30(R12), R12
 116 0090 C80C      		MOVA	R12, R8
 117 0092 0018 78F0 		ANDX.A	#4095, R8
 117      FF0F 
 118 0098 1948 0200 		MOV.W	2(R8), R9
 119 009c 0C14 4018 		PUSHM.A	#1, R12 { POPX.W	R12 { POPX.W	R13 ; move pointer in R12 into reg-pair R12:R13
 119      3C41 4018 
 119      3D41 
 120 00a6 B013 0000 		CALLA	#__mspabi_srll_12
 121 00aa 0D12 0C12 		PUSH.W	R13 { PUSH.W	R12 { POPM.A	#1, R12
 121      0C16 
 122 00b0 4018 0D4C 		MOVX	R12, R13
 123 00b4 5C43      		MOV.B	#1, R12
 124 00b6 B013 0000 		CALLA	#__mspabi_slli
 125 00ba 0CD9      		BIS.W	R9, R12
 126 00bc 884C 0200 		MOV.W	R12, 2(R8)
 127 00c0 7C40 0500 		MOV.B	#5, R12
 128 00c4 4A13      		CALLA	R10
 129               		; start of epilogue
 130 00c6 2816      		POPM.A	#3, r10
 131 00c8 1001      		RETA
 132               		.size	sx1278Reset.isra.0, .-sx1278Reset.isra.0
 133               		.section	.text.sx1278ReadRegister,"ax",@progbits
 134               		.balign 2
 135               		.global	sx1278ReadRegister
 136               		.type	sx1278ReadRegister, @function
 137               	sx1278ReadRegister:
 138               	; start of function
 139               	; framesize_regs:     20
 140               	; framesize_locals:   0
 141               	; framesize_outgoing: 0
 142               	; framesize:          20
 143               	; elim ap -> fp       24
 144               	; elim fp -> sp       0
 145               	; saved regs: R6 R7 R8 R9 R10
 146               		; start of prologue
 147 0000 4A14      		PUSHM.A	#5, R10
 148               		; end of prologue
 149 0002 CA0C      		MOVA	R12, R10
 150 0004 494D      		MOV.B	R13, R9
 151 0006 39B0 7F00 		BIT.W	#127, R9 { JNE	.L10
 151      0020 
 152 000c 8C00 0000 		MOVA	#__func__.4986, R12
GAS LISTING /tmp/ccKFr5Gw.s 			page 4


 153 0010 B013 0000 		CALLA	#chSysHalt
 154               	.L10:
 155 0014 060A      		MOVA	@R10, R6
 156 0016 3C06 2200 		MOVA	34(R6), R12
 157 001a C80C      		MOVA	R12, R8
 158 001c 0018 78F0 		ANDX.A	#4095, R8
 158      FF0F 
 159 0022 1748 0200 		MOV.W	2(R8), R7
 160 0026 0C14 4018 		PUSHM.A	#1, R12 { POPX.W	R12 { POPX.W	R13 ; move pointer in R12 into reg-pair R12:R13
 160      3C41 4018 
 160      3D41 
 161 0030 B013 0000 		CALLA	#__mspabi_srll_12
 162 0034 0D12 0C12 		PUSH.W	R13 { PUSH.W	R12 { POPM.A	#1, R12
 162      0C16 
 163 003a 4018 0D4C 		MOVX	R12, R13
 164 003e 5C43      		MOV.B	#1, R12
 165 0040 B013 0000 		CALLA	#__mspabi_slli
 166 0044 07CC      		BIC.W	R12, R7
 167 0046 8847 0200 		MOV.W	R7, 2(R8)
 168 004a 8800 0000 		MOVA	#spi_lld_polled_exchange, R8
 169 004e 4D49      		MOV.B	R9, R13
 170 0050 0C06      		MOVA	@R6, R12
 171 0052 4813      		CALLA	R8
 172 0054 0C0A      		MOVA	@R10, R12
 173 0056 7D43      		MOV.B	#-1, R13
 174 0058 0C0C      		MOVA	@R12, R12
 175 005a 4813      		CALLA	R8
 176 005c 494C      		MOV.B	R12, R9
 177 005e 0C0A      		MOVA	@R10, R12
 178 0060 3C0C 2200 		MOVA	34(R12), R12
 179 0064 CA0C      		MOVA	R12, R10
 180 0066 0018 7AF0 		ANDX.A	#4095, R10
 180      FF0F 
 181 006c 184A 0200 		MOV.W	2(R10), R8
 182 0070 0C14 4018 		PUSHM.A	#1, R12 { POPX.W	R12 { POPX.W	R13 ; move pointer in R12 into reg-pair R12:R13
 182      3C41 4018 
 182      3D41 
 183 007a B013 0000 		CALLA	#__mspabi_srll_12
 184 007e 0D12 0C12 		PUSH.W	R13 { PUSH.W	R12 { POPM.A	#1, R12
 184      0C16 
 185 0084 4018 0D4C 		MOVX	R12, R13
 186 0088 5C43      		MOV.B	#1, R12
 187 008a B013 0000 		CALLA	#__mspabi_slli
 188 008e 0CD8      		BIS.W	R8, R12
 189 0090 8A4C 0200 		MOV.W	R12, 2(R10)
 190 0094 4C49      		MOV.B	R9, R12
 191               		; start of epilogue
 192 0096 4616      		POPM.A	#5, r10
 193 0098 1001      		RETA
 194               		.size	sx1278ReadRegister, .-sx1278ReadRegister
 195               		.section	.text.sx1278BlockTimeout,"ax",@progbits
 196               		.balign 2
 197               		.type	sx1278BlockTimeout, @function
 198               	sx1278BlockTimeout:
 199               	; start of function
 200               	; framesize_regs:     28
 201               	; framesize_locals:   4
GAS LISTING /tmp/ccKFr5Gw.s 			page 5


 202               	; framesize_outgoing: 0
 203               	; framesize:          32
 204               	; elim ap -> fp       32
 205               	; elim fp -> sp       4
 206               	; saved regs: R4 R5 R6 R7 R8 R9 R10
 207               		; start of prologue
 208 0000 6A14      		PUSHM.A	#7, R10
 209 0002 B100 0400 		SUBA	#4, R1
 210               		; end of prologue
 211 0006 C40C      		MOVA	R12, R4
 212 0008 494D      		MOV.B	R13, R9
 213 000a 4A4E      		MOV.B	R14, R10
 214 000c 084F      		MOV.W	R15, R8
 215 000e 5643      		MOV.B	#1, R6
 216 0010 4699 002C 		CMP.B	R9, R6 { JHS	.L12
 217 0014 8C00 0000 		MOVA	#__func__.5088, R12
 218 0018 B013 0000 		CALLA	#chSysHalt
 219               	.L12:
 220 001c 0E04      		MOVA	@R4, R14
 221 001e 0F49      		MOV.W	R9, R15
 222 0020 0749      		MOV.W	R9, R7
 223 0022 470E 470D 		RLAM.A #4, R7 { RRAM.A #4, R7
 224 0026 CC07      		MOVA	R7, R12
 225 0028 EC0E      		ADDA	R14, R12
 226 002a 594C 1C00 		MOV.B	28(R12), R9
 227 002e 7C40 0500 		MOV.B	#5, R12
 228 0032 4C99 0028 		CMP.B	R9, R12 { JLO	.L13
 229 0036 0C49 0D43 		MOV.W	R9,R12 { MOV.W	#0,R13
 230 003a 064C      		MOV.W	R12, R6
 231 003c 074D      		MOV.W	R13, R7
 232 003e 0656 0767 		RLA.W	R6 { RLC.W	R7 { RLA.W	R6 { RLC.W	R7
 232      0656 0767 
 233 0046 8146 0000 		MOV.W	R6, @R1
 234 004a 8147 0200 		MOV.W	R7, 2(R1)
 235 004e 0018 6E51 		ADDX.A	@R1, R14
 236 0052 360E 2E00 		MOVA	46(R14), R6
 237 0056 9600 0000 		CMPA	#0, R6 { JNE	.L14
 237      0020 
 238               	.L13:
 239 005c 074F      		MOV.W	R15, R7
 240 005e 470E 470D 		RLAM.A #4, R7 { RRAM.A #4, R7
 241 0062 4018 5D47 		MOVX.B	irqbits(R7), R13
 241      0000 
 242 0068 7C40 0700 		MOV.B	#7, R12
 243 006c 4C9D 0028 		CMP.B	R13, R12 { JLO	.L21
 244 0070 5C43      		MOV.B	#1, R12
 245 0072 B013 0000 		CALLA	#__mspabi_slli
 246 0076 454C      		MOV.B	R12, R5
 247 0078 7740 3E00 		MOV.B	#62, R7
 248               	.L15:
 249 007c 8600 0000 		MOVA	#nil, R6
 250 0080 1946 0800 		MOV.W	8(R6), R9
 251 0084 5AE3      		XOR.B	#1, R10
 252 0086 3AF0 FF00 		AND	#0xff, R10
 253 008a 3A53      		ADD.W	#-1, R10
 254 008c 5A03 4D18 		rrum.w	#1, R10 { rpt	#14 { rrax.w	R10
 254      0A11 
GAS LISTING /tmp/ccKFr5Gw.s 			page 6


 255               	.L25:
 256 0092 4D47      		MOV.B	R7, R13
 257 0094 CC04      		MOVA	R4, R12
 258 0096 B013 0000 		CALLA	#sx1278ReadRegister
 259 009a 4CF5      		AND.B	R5, R12
 260 009c 4D4C      		MOV.B	R12, R13
 261 009e 4018 0C43 		MOVX.W	#0, R12 { SUBX.W	R13, R12
 261      4018 0C8D 
 262 00a6 5C03 4D18 		rrum.w	#1, R12 { rpt	#14 { rrax.w	R12
 262      0C11 
 263 00ac 4C9A 0020 		CMP.B	R10, R12 { JNE	.L18
 264 00b0 4C43      		MOV.B	#0, R12
 265               	.L11:
 266               		; start of epilogue
 267 00b2 A100 0400 		ADDA	#4, R1
 268 00b6 6416      		POPM.A	#7, r10
 269 00b8 1001      		RETA
 270               	.L21:
 271 00ba 5543      		MOV.B	#1, R5
 272 00bc 7740 3F00 		MOV.B	#63, R7
 273 00c0 8000 0000 		BRA	#.L15
 274               	.L18:
 275 00c4 3893 0024 		CMP.W	#-1, R8 { JEQ	.L23
 276 00c8 0893 0024 		CMP.W	#0, R8 { JEQ	.L25
 277 00cc 1C46 0800 		MOV.W	8(R6), R12
 278 00d0 0C89      		SUB.W	R9, R12
 279 00d2 0C98 0028 		CMP.W	R8, R12 { JLO	.L25
 280               	.L23:
 281 00d6 8C0F FFFF 		MOVA	#-1, R12
 282 00da 8000 0000 		BRA	#.L11
 283               	.L14:
 284               	 ; 347 "../ChibiOS-Contrib/os/common/ports/MSP430X/chcore.h" 1
 285 00de 32C2 0343 		dint { nop
 286               	 ; 0 "" 2
 287               	 ; 348 "../ChibiOS-Contrib/os/common/ports/MSP430X/chcore.h" 1
 288 00e2 0343      		nop
 289               	 ; 0 "" 2
 290 00e4 0614 4018 		PUSHM.A	#1, R6 { POPX.W	R12 { POPX.W	R13 ; move pointer in R6 into reg-pair R12:R13
 290      3C41 4018 
 290      3D41 
 291 00ee B013 0000 		CALLA	#__mspabi_srll_12
 292 00f2 0D12 0C12 		PUSH.W	R13 { PUSH.W	R12 { POPM.A	#1, R12
 292      0C16 
 293 00f8 8F00 0000 		MOVA	#blocking_callback, R15
 294 00fc 4E4A      		MOV.B	R10, R14
 295 00fe 4D4C      		MOV.B	R12, R13
 296 0100 CC06      		MOVA	R6, R12
 297 0102 0018 7CF0 		ANDX.A	#4095, R12
 297      FF0F 
 298 0108 B013 0000 		CALLA	#_pal_lld_enablepadevent
 299 010c 0C01      		MOVA	@R1, R12
 300 010e 0018 6C54 		ADDX.A	@R4, R12
 301 0112 3C0C 2E00 		MOVA	46(R12), R12
 302 0116 CE0C      		MOVA	R12, R14
 303 0118 0018 7EF0 		ANDX.A	#4095, R14
 303      FF0F 
 304 011e 2A4E      		MOV.W	@R14, R10
GAS LISTING /tmp/ccKFr5Gw.s 			page 7


 305 0120 0C14 4018 		PUSHM.A	#1, R12 { POPX.W	R12 { POPX.W	R13 ; move pointer in R12 into reg-pair R12:R13
 305      3C41 4018 
 305      3D41 
 306 012a B013 0000 		CALLA	#__mspabi_srll_12
 307 012e 0D12 0C12 		PUSH.W	R13 { PUSH.W	R12 { POPM.A	#1, R12
 307      0C16 
 308 0134 4018 0D4C 		MOVX	R12, R13
 309 0138 0C4A      		MOV.W	R10, R12
 310 013a B013 0000 		CALLA	#__mspabi_srli
 311 013e 4018 1CB3 		BITX.W	#1, R12 { JEQ	.L19
 311      0024 
 312 0144 0018 C243 		MOVX.A	#0, &suspend_result
 312      0000 
 313               	.L20:
 314 014a 0C49 0D43 		MOV.W	R9,R12 { MOV.W	#0,R13
 315 014e 0E4C      		MOV.W	R12, R14
 316 0150 0F4D      		MOV.W	R13, R15
 317 0152 0E5E 0F6F 		RLA.W	R14 { RLC.W	R15 { RLA.W	R14 { RLC.W	R15
 317      0E5E 0F6F 
 318 015a 814E 0000 		MOV.W	R14, @R1
 319 015e 814F 0200 		MOV.W	R15, 2(R1)
 320 0162 0C01      		MOVA	@R1, R12
 321 0164 0018 6C54 		ADDX.A	@R4, R12
 322 0168 3A0C 2E00 		MOVA	46(R12), R10
 323 016c 0A14 4018 		PUSHM.A	#1, R10 { POPX.W	R12 { POPX.W	R13 ; move pointer in R10 into reg-pair R12:R13
 323      3C41 4018 
 323      3D41 
 324 0176 B013 0000 		CALLA	#__mspabi_srll_12
 325 017a 0D12 0C12 		PUSH.W	R13 { PUSH.W	R12 { POPM.A	#1, R12
 325      0C16 
 326 0180 4D4C      		MOV.B	R12, R13
 327 0182 CC0A      		MOVA	R10, R12
 328 0184 0018 7CF0 		ANDX.A	#4095, R12
 328      FF0F 
 329 018a B013 0000 		CALLA	#_pal_lld_disablepadevent
 330               	 ; 355 "../ChibiOS-Contrib/os/common/ports/MSP430X/chcore.h" 1
 331 018e 0343      		nop
 332               	 ; 0 "" 2
 333               	 ; 356 "../ChibiOS-Contrib/os/common/ports/MSP430X/chcore.h" 1
 334 0190 0343 32D2 		nop { eint { nop
 334      0343 
 335               	 ; 0 "" 2
 336 0196 2C00 0000 		MOVA	&suspend_result, R12
 337 019a 8000 0000 		BRA	#.L11
 338               	.L19:
 339 019e 0D48      		MOV.W	R8, R13
 340 01a0 8C00 0000 		MOVA	#tr, R12
 341 01a4 B013 0000 		CALLA	#chThdSuspendTimeoutS
 342 01a8 600C 0000 		MOVA	R12, &suspend_result
 343 01ac 8000 0000 		BRA	#.L20
 344               		.size	sx1278BlockTimeout, .-sx1278BlockTimeout
 345               		.section	.text.sx1278SetRegister,"ax",@progbits
 346               		.balign 2
 347               		.global	sx1278SetRegister
 348               		.type	sx1278SetRegister, @function
 349               	sx1278SetRegister:
 350               	; start of function
GAS LISTING /tmp/ccKFr5Gw.s 			page 8


 351               	; framesize_regs:     24
 352               	; framesize_locals:   0
 353               	; framesize_outgoing: 0
 354               	; framesize:          24
 355               	; elim ap -> fp       28
 356               	; elim fp -> sp       0
 357               	; saved regs: R5 R6 R7 R8 R9 R10
 358               		; start of prologue
 359 0000 5A14      		PUSHM.A	#6, R10
 360               		; end of prologue
 361 0002 CA0C      		MOVA	R12, R10
 362 0004 494D      		MOV.B	R13, R9
 363 0006 474E      		MOV.B	R14, R7
 364 0008 39B0 7F00 		BIT.W	#127, R9 { JNE	.L28
 364      0020 
 365 000e 8C00 0000 		MOVA	#__func__.4992, R12
 366 0012 B013 0000 		CALLA	#chSysHalt
 367               	.L28:
 368 0016 7990 1100 		CMP.B	#17, R9 { JEQ	.L29
 368      0024 
 369 001c 7990 3C00 		CMP.B	#60, R9 { JEQ	.L29
 369      0024 
 370 0022 7990 4200 		CMP.B	#66, R9 { JNE	.L30
 370      0020 
 371               	.L29:
 372 0028 8C00 0000 		MOVA	#__func__.4992, R12
 373 002c B013 0000 		CALLA	#chSysHalt
 374               	.L30:
 375 0030 060A      		MOVA	@R10, R6
 376 0032 3C06 2200 		MOVA	34(R6), R12
 377 0036 C80C      		MOVA	R12, R8
 378 0038 0018 78F0 		ANDX.A	#4095, R8
 378      FF0F 
 379 003e 1548 0200 		MOV.W	2(R8), R5
 380 0042 0C14 4018 		PUSHM.A	#1, R12 { POPX.W	R12 { POPX.W	R13 ; move pointer in R12 into reg-pair R12:R13
 380      3C41 4018 
 380      3D41 
 381 004c B013 0000 		CALLA	#__mspabi_srll_12
 382 0050 0D12 0C12 		PUSH.W	R13 { PUSH.W	R12 { POPM.A	#1, R12
 382      0C16 
 383 0056 4018 0D4C 		MOVX	R12, R13
 384 005a 5C43      		MOV.B	#1, R12
 385 005c B013 0000 		CALLA	#__mspabi_slli
 386 0060 05CC      		BIC.W	R12, R5
 387 0062 8845 0200 		MOV.W	R5, 2(R8)
 388 0066 8800 0000 		MOVA	#spi_lld_polled_exchange, R8
 389 006a 4D49      		MOV.B	R9, R13
 390 006c 7DD0 80FF 		BIS.B	#-128, R13
 391 0070 0C06      		MOVA	@R6, R12
 392 0072 4813      		CALLA	R8
 393 0074 0C0A      		MOVA	@R10, R12
 394 0076 4D47      		MOV.B	R7, R13
 395 0078 0C0C      		MOVA	@R12, R12
 396 007a 4813      		CALLA	R8
 397 007c 494C      		MOV.B	R12, R9
 398 007e 0C0A      		MOVA	@R10, R12
 399 0080 3C0C 2200 		MOVA	34(R12), R12
GAS LISTING /tmp/ccKFr5Gw.s 			page 9


 400 0084 CA0C      		MOVA	R12, R10
 401 0086 0018 7AF0 		ANDX.A	#4095, R10
 401      FF0F 
 402 008c 184A 0200 		MOV.W	2(R10), R8
 403 0090 0C14 4018 		PUSHM.A	#1, R12 { POPX.W	R12 { POPX.W	R13 ; move pointer in R12 into reg-pair R12:R13
 403      3C41 4018 
 403      3D41 
 404 009a B013 0000 		CALLA	#__mspabi_srll_12
 405 009e 0D12 0C12 		PUSH.W	R13 { PUSH.W	R12 { POPM.A	#1, R12
 405      0C16 
 406 00a4 4018 0D4C 		MOVX	R12, R13
 407 00a8 5C43      		MOV.B	#1, R12
 408 00aa B013 0000 		CALLA	#__mspabi_slli
 409 00ae 0CD8      		BIS.W	R8, R12
 410 00b0 8A4C 0200 		MOV.W	R12, 2(R10)
 411 00b4 4C49      		MOV.B	R9, R12
 412               		; start of epilogue
 413 00b6 5516      		POPM.A	#6, r10
 414 00b8 1001      		RETA
 415               		.size	sx1278SetRegister, .-sx1278SetRegister
 416               		.section	.text.sx1278SetMode.constprop.3,"ax",@progbits
 417               		.balign 2
 418               		.type	sx1278SetMode.constprop.3, @function
 419               	sx1278SetMode.constprop.3:
 420               	; start of function
 421               	; framesize_regs:     4
 422               	; framesize_locals:   0
 423               	; framesize_outgoing: 0
 424               	; framesize:          4
 425               	; elim ap -> fp       8
 426               	; elim fp -> sp       0
 427               	; saved regs: R10
 428               		; start of prologue
 429 0000 0A14      		PUSHM.A	#1, R10
 430               		; end of prologue
 431 0002 CA0C      		MOVA	R12, R10
 432 0004 5E4C 0500 		MOV.B	5(R12), R14
 433 0008 7EF0 F8FF 		AND.B	#-8, R14
 434 000c CC4E 0500 		MOV.B	R14, 5(R12)
 435 0010 5D43      		MOV.B	#1, R13
 436 0012 B013 0000 		CALLA	#sx1278SetRegister
 437               		; start of epilogue
 438 0016 0A16      		POPM.A	#1, r10
 439 0018 1001      		RETA
 440               		.size	sx1278SetMode.constprop.3, .-sx1278SetMode.constprop.3
 441               		.global	__mspabi_divul
 442               		.section	.text.sx1278SetBitrate,"ax",@progbits
 443               		.balign 2
 444               		.global	sx1278SetBitrate
 445               		.type	sx1278SetBitrate, @function
 446               	sx1278SetBitrate:
 447               	; start of function
 448               	; framesize_regs:     20
 449               	; framesize_locals:   0
 450               	; framesize_outgoing: 0
 451               	; framesize:          20
 452               	; elim ap -> fp       24
GAS LISTING /tmp/ccKFr5Gw.s 			page 10


 453               	; elim fp -> sp       0
 454               	; saved regs: R6 R7 R8 R9 R10
 455               		; start of prologue
 456 0000 4A14      		PUSHM.A	#5, R10
 457               		; end of prologue
 458 0002 C80C      		MOVA	R12, R8
 459 0004 064D      		MOV.W	R13, R6
 460 0006 0A4E      		MOV.W	R14, R10
 461 0008 0E4D      		MOV.W	R13, R14
 462 000a 0F4A      		MOV.W	R10, R15
 463 000c 3C40 0080 		MOV.W	#-32768, R12
 464 0010 3D40 841E 		MOV.W	#7812, R13
 465 0014 B013 0000 		CALLA	#__mspabi_divul
 466 0018 094C      		MOV.W	R12, R9
 467 001a B013 0000 		CALLA	#__mspabi_srll_4
 468 001e 074C      		MOV.W	R12, R7
 469 0020 79F0 0F00 		AND.B	#15, R9
 470 0024 6C42      		MOV.B	#4, R12
 471 0026 0C9A 0028 		CMP.W	R10, R12 { JLO	.L41
 472 002a 0A9C 0020 		CMP.W	R12, R10 { JNE	.L39
 473 002e 3C40 DF93 		MOV.W	#-27681, R12
 474 0032 0C96 002C 		CMP.W	R6, R12 { JHS	.L39
 475               	.L41:
 476 0036 8C00 0000 		MOVA	#__func__.5014, R12
 477 003a B013 0000 		CALLA	#chSysHalt
 478               	.L39:
 479 003e 8A00 0000 		MOVA	#sx1278SetRegister, R10
 480 0042 0E47      		MOV.W	R7, R14
 481 0044 5E0F 5E0F 		rrum.w	#4, R14 { rrum.w	#4, R14 
 482 0048 6D43      		MOV.B	#2, R13
 483 004a CC08      		MOVA	R8, R12
 484 004c 4A13      		CALLA	R10
 485 004e 4E47      		MOV.B	R7, R14
 486 0050 7D40 0300 		MOV.B	#3, R13
 487 0054 CC08      		MOVA	R8, R12
 488 0056 4A13      		CALLA	R10
 489 0058 4E49      		MOV.B	R9, R14
 490 005a 7D40 5D00 		MOV.B	#93, R13
 491 005e CC08      		MOVA	R8, R12
 492 0060 4A13      		CALLA	R10
 493               		; start of epilogue
 494 0062 4616      		POPM.A	#5, r10
 495 0064 1001      		RETA
 496               		.size	sx1278SetBitrate, .-sx1278SetBitrate
 497               		.section	.text.sx1278SetDeviation,"ax",@progbits
 498               		.balign 2
 499               		.global	sx1278SetDeviation
 500               		.type	sx1278SetDeviation, @function
 501               	sx1278SetDeviation:
 502               	; start of function
 503               	; framesize_regs:     20
 504               	; framesize_locals:   0
 505               	; framesize_outgoing: 0
 506               	; framesize:          20
 507               	; elim ap -> fp       24
 508               	; elim fp -> sp       0
 509               	; saved regs: R6 R7 R8 R9 R10
GAS LISTING /tmp/ccKFr5Gw.s 			page 11


 510               		; start of prologue
 511 0000 4A14      		PUSHM.A	#5, R10
 512               		; end of prologue
 513 0002 C80C      		MOVA	R12, R8
 514 0004 064D      		MOV.W	R13, R6
 515 0006 094E      		MOV.W	R14, R9
 516 0008 0C4D      		MOV.W	R13, R12
 517 000a 0D4E      		MOV.W	R14, R13
 518 000c B013 0000 		CALLA	#__mspabi_slll_11
 519 0010 3E40 48E8 		MOV.W	#-6072, R14
 520 0014 5F43      		MOV.B	#1, R15
 521 0016 3C50 24F4 		ADD	#-3036, R12 ; cy
 522 001a 0D63      		ADDC	#0, R13
 523 001c B013 0000 		CALLA	#__mspabi_divul
 524 0020 074C      		MOV.W	R12, R7
 525 0022 0A4C      		MOV.W	R12, R10
 526 0024 7C40 0300 		MOV.B	#3, R12
 527 0028 0C99 0028 		CMP.W	R9, R12 { JLO	.L45
 528 002c 099C 0020 		CMP.W	R12, R9 { JNE	.L43
 529 0030 3C40 3F0D 		MOV.W	#3391, R12
 530 0034 0C96 002C 		CMP.W	R6, R12 { JHS	.L43
 531               	.L45:
 532 0038 8C00 0000 		MOVA	#__func__.5020, R12
 533 003c B013 0000 		CALLA	#chSysHalt
 534               	.L43:
 535 0040 8600 0000 		MOVA	#sx1278SetRegister, R6
 536 0044 0E4A      		MOV.W	R10, R14
 537 0046 5E0F 5E0F 		rrum.w	#4, R14 { rrum.w	#4, R14 
 538 004a 6D42      		MOV.B	#4, R13
 539 004c CC08      		MOVA	R8, R12
 540 004e 4613      		CALLA	R6
 541 0050 4E47      		MOV.B	R7, R14
 542 0052 7D40 0500 		MOV.B	#5, R13
 543 0056 CC08      		MOVA	R8, R12
 544 0058 4613      		CALLA	R6
 545               		; start of epilogue
 546 005a 4616      		POPM.A	#5, r10
 547 005c 1001      		RETA
 548               		.size	sx1278SetDeviation, .-sx1278SetDeviation
 549               		.section	.text.sx1278SetFrequency,"ax",@progbits
 550               		.balign 2
 551               		.global	sx1278SetFrequency
 552               		.type	sx1278SetFrequency, @function
 553               	sx1278SetFrequency:
 554               	; start of function
 555               	; framesize_regs:     24
 556               	; framesize_locals:   0
 557               	; framesize_outgoing: 0
 558               	; framesize:          24
 559               	; elim ap -> fp       28
 560               	; elim fp -> sp       0
 561               	; saved regs: R5 R6 R7 R8 R9 R10
 562               		; start of prologue
 563 0000 5A14      		PUSHM.A	#6, R10
 564               		; end of prologue
 565 0002 CA0C      		MOVA	R12, R10
 566 0004 084D      		MOV.W	R13, R8
GAS LISTING /tmp/ccKFr5Gw.s 			page 12


 567 0006 054E      		MOV.W	R14, R5
 568 0008 3E40 093D 		MOV.W	#15625, R14
 569 000c 4F43      		MOV.B	#0, R15
 570 000e 0C4D      		MOV.W	R13, R12
 571 0010 3C50 841E 		ADD	#7812, R12 ; cy
 572 0014 0D45      		MOV.W	R5, R13
 573 0016 0D63      		ADDC	#0, R13
 574 0018 B013 0000 		CALLA	#__mspabi_divul
 575 001c 074C      		MOV.W	R12, R7
 576 001e B013 0000 		CALLA	#__mspabi_slll_8
 577 0022 064C      		MOV.W	R12, R6
 578 0024 094D      		MOV.W	R13, R9
 579 0026 0D48      		MOV.W	R8, R13
 580 0028 3D50 C08B 		ADD	#-29760, R13 ; cy
 581 002c 0C45      		MOV.W	R5, R12
 582 002e 3C60 D5F7 		ADDC	#-2091, R12
 583 0032 3E40 4302 		MOV.W	#579, R14
 584 0036 0E9C 0028 		CMP.W	R12, R14 { JLO	.L56
 585 003a 0C9E 0020 		CMP.W	R14, R12 { JNE	.L47
 586 003e 3C40 80D5 		MOV.W	#-10880, R12
 587 0042 0C9D 002C 		CMP.W	R13, R12 { JHS	.L47
 588               	.L56:
 589 0046 0D48      		MOV.W	R8, R13
 590 0048 3D50 80E5 		ADD	#-6784, R13 ; cy
 591 004c 0C45      		MOV.W	R5, R12
 592 004e 3C60 8FE7 		ADDC	#-6257, R12
 593 0052 3E40 DA06 		MOV.W	#1754, R14
 594 0056 0E9C 0028 		CMP.W	R12, R14 { JLO	.L49
 595 005a 0C9E 0020 		CMP.W	R14, R12 { JNE	.L47
 596 005e 3C40 C0C2 		MOV.W	#-15680, R12
 597 0062 0C9D 0028 		CMP.W	R13, R12 { JLO	.L49
 598               	.L47:
 599 0066 FAD2 0500 		BIS.B	#8, 5(R10)
 600               	.L51:
 601 006a 39B0 00FF 		BIT.W	#-256, R9 { JEQ	.L54
 601      0024 
 602 0070 8C00 0000 		MOVA	#__func__.5026, R12
 603 0074 B013 0000 		CALLA	#chSysHalt
 604               	.L54:
 605 0078 8800 0000 		MOVA	#sx1278SetRegister, R8
 606 007c 5E4A 0500 		MOV.B	5(R10), R14
 607 0080 5D43      		MOV.B	#1, R13
 608 0082 CC0A      		MOVA	R10, R12
 609 0084 4813      		CALLA	R8
 610 0086 0C46      		MOV.W	R6, R12
 611 0088 0D49      		MOV.W	R9, R13
 612 008a 7E40 1000 		MOV.B	#16, R14
 613 008e B013 0000 		CALLA	#__mspabi_srll
 614 0092 4E4C      		MOV.B	R12, R14
 615 0094 7D40 0600 		MOV.B	#6, R13
 616 0098 CC0A      		MOVA	R10, R12
 617 009a 4813      		CALLA	R8
 618 009c 4E47      		MOV.B	R7, R14
 619 009e 7D40 0700 		MOV.B	#7, R13
 620 00a2 CC0A      		MOVA	R10, R12
 621 00a4 4813      		CALLA	R8
 622 00a6 4E43      		MOV.B	#0, R14
GAS LISTING /tmp/ccKFr5Gw.s 			page 13


 623 00a8 7D42      		MOV.B	#8, R13
 624 00aa CC0A      		MOVA	R10, R12
 625 00ac 4813      		CALLA	R8
 626               		; start of epilogue
 627 00ae 5516      		POPM.A	#6, r10
 628 00b0 1001      		RETA
 629               	.L49:
 630 00b2 3850 80EC 		ADD	#-4992, R8 ; cy
 631 00b6 3560 9ECC 		ADDC	#-13154, R5
 632 00ba 3E40 6A09 		MOV.W	#2410, R14
 633 00be 0E95 0028 		CMP.W	R5, R14 { JLO	.L52
 634 00c2 059E 0020 		CMP.W	R14, R5 { JNE	.L57
 635 00c6 3C40 80E3 		MOV.W	#-7296, R12
 636 00ca 0C98 0028 		CMP.W	R8, R12 { JLO	.L52
 637               	.L57:
 638 00ce FAC2 0500 		BIC.B	#8, 5(R10)
 639 00d2 8000 0000 		BRA	#.L51
 640               	.L52:
 641 00d6 8C00 0000 		MOVA	#__func__.5026, R12
 642 00da B013 0000 		CALLA	#chSysHalt
 643 00de 8000 0000 		BRA	#.L51
 644               		.size	sx1278SetFrequency, .-sx1278SetFrequency
 645               		.section	.text.sx1278SetPower,"ax",@progbits
 646               		.balign 2
 647               		.global	sx1278SetPower
 648               		.type	sx1278SetPower, @function
 649               	sx1278SetPower:
 650               	; start of function
 651               	; framesize_regs:     0
 652               	; framesize_locals:   0
 653               	; framesize_outgoing: 0
 654               	; framesize:          0
 655               	; elim ap -> fp       4
 656               	; elim fp -> sp       0
 657               	; saved regs:(none)
 658               		; start of prologue
 659               		; end of prologue
 660 0000 4E4D      		MOV.B	R13, R14
 661 0002 7D40 0900 		MOV.B	#9, R13
 662 0006 B013 0000 		CALLA	#sx1278SetRegister
 663               		; start of epilogue
 664 000a 1001      		RETA
 665               		.size	sx1278SetPower, .-sx1278SetPower
 666               		.section	.text.sx1278SetFilterParams,"ax",@progbits
 667               		.balign 2
 668               		.global	sx1278SetFilterParams
 669               		.type	sx1278SetFilterParams, @function
 670               	sx1278SetFilterParams:
 671               	; start of function
 672               	; framesize_regs:     8
 673               	; framesize_locals:   0
 674               	; framesize_outgoing: 0
 675               	; framesize:          8
 676               	; elim ap -> fp       12
 677               	; elim fp -> sp       0
 678               	; saved regs: R8 R10
 679               		; start of prologue
GAS LISTING /tmp/ccKFr5Gw.s 			page 14


 680 0000 0A14      		PUSHM.A	#1, R10
 681 0002 0814      		PUSHM.A	#1, R8
 682               		; end of prologue
 683 0004 C80C      		MOVA	R12, R8
 684 0006 4A4D      		MOV.B	R13, R10
 685 0008 7C40 0300 		MOV.B	#3, R12
 686 000c 4C9A 002C 		CMP.B	R10, R12 { JHS	.L63
 687 0010 8C00 0000 		MOVA	#__func__.5035, R12
 688 0014 B013 0000 		CALLA	#chSysHalt
 689               	.L63:
 690 0018 0E4A      		MOV.W	R10, R14
 691 001a 4418 0E5E 		rpt	#5 { rlax.w	R14
 692 001e 7D40 0A00 		MOV.B	#10, R13
 693 0022 CC08      		MOVA	R8, R12
 694 0024 B013 0000 		CALLA	#sx1278SetRegister
 695               		; start of epilogue
 696 0028 0816      		POPM.A	#1, r8
 697 002a 0A16      		POPM.A	#1, r10
 698 002c 1001      		RETA
 699               		.size	sx1278SetFilterParams, .-sx1278SetFilterParams
 700               		.section	.text.sx1278SetSync,"ax",@progbits
 701               		.balign 2
 702               		.global	sx1278SetSync
 703               		.type	sx1278SetSync, @function
 704               	sx1278SetSync:
 705               	; start of function
 706               	; framesize_regs:     28
 707               	; framesize_locals:   0
 708               	; framesize_outgoing: 0
 709               	; framesize:          28
 710               	; elim ap -> fp       32
 711               	; elim fp -> sp       0
 712               	; saved regs: R4 R5 R6 R7 R8 R9 R10
 713               		; start of prologue
 714 0000 6A14      		PUSHM.A	#7, R10
 715               		; end of prologue
 716 0002 C40C      		MOVA	R12, R4
 717 0004 094D      		MOV.W	R13, R9
 718 0006 074E      		MOV.W	R14, R7
 719 0008 0DDE      		BIS.W	R14, R13
 720 000a 0D93 0024 		CMP.W	#0, R13 { JEQ	.L64
 721 000e 0E0C      		MOVA	@R12, R14
 722 0010 3E0E 2600 		MOVA	38(R14), R14
 723 0014 6E4E      		MOV.B	@R14, R14
 724 0016 7EF0 2000 		AND.B	#32, R14
 725 001a 8800 0000 		MOVA	#sx1278SetRegister, R8
 726 001e 7ED0 93FF 		BIS.B	#-109, R14
 727 0022 7D40 2700 		MOV.B	#39, R13
 728 0026 4813      		CALLA	R8
 729 0028 7A40 2800 		MOV.B	#40, R10
 730 002c 7640 1800 		MOV.B	#24, R6
 731 0030 8800 0000 		MOVA	#chSysHalt, R8
 732               	.L67:
 733 0034 0C49      		MOV.W	R9, R12
 734 0036 0D47      		MOV.W	R7, R13
 735 0038 0E46 0F43 		MOV.W	R6,R14 { MOV.W	#0,R15
 736 003c B013 0000 		CALLA	#__mspabi_srll
GAS LISTING /tmp/ccKFr5Gw.s 			page 15


 737 0040 054C      		MOV.W	R12, R5
 738 0042 4C93 0020 		CMP.B	#0, R12 { JNE	.L66
 739 0046 8C00 0000 		MOVA	#__func__.5045, R12
 740 004a 4813      		CALLA	R8
 741               	.L66:
 742 004c 4E45      		MOV.B	R5, R14
 743 004e 4D4A      		MOV.B	R10, R13
 744 0050 CC04      		MOVA	R4, R12
 745 0052 B013 0000 		CALLA	#sx1278SetRegister
 746 0056 3650 F8FF 		ADD.W	#-8, R6
 747 005a 4C4A      		MOV.B	R10, R12
 748 005c 5C53      		ADD.B	#1, R12
 749 005e 4A4C      		MOV.B	R12, R10
 750 0060 7C90 2C00 		CMP.B	#44, R12 { JNE	.L67
 750      0020 
 751               	.L64:
 752               		; start of epilogue
 753 0066 6416      		POPM.A	#7, r10
 754 0068 1001      		RETA
 755               		.size	sx1278SetSync, .-sx1278SetSync
 756               		.section	.text.sx1278ObjectInit,"ax",@progbits
 757               		.balign 2
 758               		.global	sx1278ObjectInit
 759               		.type	sx1278ObjectInit, @function
 760               	sx1278ObjectInit:
 761               	; start of function
 762               	; framesize_regs:     0
 763               	; framesize_locals:   0
 764               	; framesize_outgoing: 0
 765               	; framesize:          0
 766               	; elim ap -> fp       4
 767               	; elim fp -> sp       0
 768               	; saved regs:(none)
 769               		; start of prologue
 770               		; end of prologue
 771 0000 FC40 0900 		MOV.B	#9, 5(R12)
 771      0500 
 772 0006 CC43 0600 		MOV.B	#0, 6(R12)
 773 000a DC43 0400 		MOV.B	#1, 4(R12)
 774               		; start of epilogue
 775 000e 1001      		RETA
 776               		.size	sx1278ObjectInit, .-sx1278ObjectInit
 777               		.section	.text.sx1278Start,"ax",@progbits
 778               		.balign 2
 779               		.global	sx1278Start
 780               		.type	sx1278Start, @function
 781               	sx1278Start:
 782               	; start of function
 783               	; framesize_regs:     16
 784               	; framesize_locals:   0
 785               	; framesize_outgoing: 0
 786               	; framesize:          16
 787               	; elim ap -> fp       20
 788               	; elim fp -> sp       0
 789               	; saved regs: R6 R8 R9 R10
 790               		; start of prologue
 791 0000 2A14      		PUSHM.A	#3, R10
GAS LISTING /tmp/ccKFr5Gw.s 			page 16


 792 0002 0614      		PUSHM.A	#1, R6
 793               		; end of prologue
 794 0004 CA0C      		MOVA	R12, R10
 795 0006 C80D      		MOVA	R13, R8
 796 0008 7A0D 0000 		MOVA	R13, @R10
 797 000c B013 0000 		CALLA	#sx1278Reset.isra.0
 798 0010 3D08 0400 		MOVA	4(R8), R13
 799 0014 0018 FD40 		MOVX.A	#spi_callback, @R13
 799      0000 0000 
 800 001c 0C08      		MOVA	@R8, R12
 801 001e B013 0000 		CALLA	#spiStart
 802 0022 CC0A      		MOVA	R10, R12
 803 0024 B013 0000 		CALLA	#sx1278SetMode.constprop.3
 804 0028 1D48 0C00 		MOV.W	12(R8), R13
 805 002c 1E48 0E00 		MOV.W	14(R8), R14
 806 0030 CC0A      		MOVA	R10, R12
 807 0032 B013 0000 		CALLA	#sx1278SetFrequency
 808 0036 1D48 1000 		MOV.W	16(R8), R13
 809 003a 1E48 1200 		MOV.W	18(R8), R14
 810 003e CC0A      		MOVA	R10, R12
 811 0040 B013 0000 		CALLA	#sx1278SetDeviation
 812 0044 1D48 0800 		MOV.W	8(R8), R13
 813 0048 1E48 0A00 		MOV.W	10(R8), R14
 814 004c CC0A      		MOVA	R10, R12
 815 004e B013 0000 		CALLA	#sx1278SetBitrate
 816 0052 5D48 1500 		MOV.B	21(R8), R13
 817 0056 CC0A      		MOVA	R10, R12
 818 0058 B013 0000 		CALLA	#sx1278SetPower
 819 005c 1948 1600 		MOV.W	22(R8), R9
 820 0060 8600 0000 		MOVA	#sx1278SetRegister, R6
 821 0064 0E49      		MOV.W	R9, R14
 822 0066 5E0F 5E0F 		rrum.w	#4, R14 { rrum.w	#4, R14 
 823 006a 7D40 2500 		MOV.B	#37, R13
 824 006e CC0A      		MOVA	R10, R12
 825 0070 4613      		CALLA	R6
 826 0072 4E49      		MOV.B	R9, R14
 827 0074 7D40 2600 		MOV.B	#38, R13
 828 0078 CC0A      		MOVA	R10, R12
 829 007a 4613      		CALLA	R6
 830 007c 1D48 1800 		MOV.W	24(R8), R13
 831 0080 1E48 1A00 		MOV.W	26(R8), R14
 832 0084 CC0A      		MOVA	R10, R12
 833 0086 B013 0000 		CALLA	#sx1278SetSync
 834 008a FA40 1800 		MOV.B	#24, 6(R10)
 834      0600 
 835 0090 7E40 1800 		MOV.B	#24, R14
 836 0094 7D40 3600 		MOV.B	#54, R13
 837 0098 CC0A      		MOVA	R10, R12
 838 009a 4613      		CALLA	R6
 839 009c 0C0A      		MOVA	@R10, R12
 840 009e 380C 2600 		MOVA	38(R12), R8
 841 00a2 6C48      		MOV.B	@R8, R12
 842 00a4 4D4C      		MOV.B	R12, R13
 843 00a6 7DF0 0300 		AND.B	#3, R13
 844 00aa 5D93 0024 		CMP.B	#1, R13 { JEQ	.L82
 845 00ae 4943      		MOV.B	#0, R9
 846               	.L72:
GAS LISTING /tmp/ccKFr5Gw.s 			page 17


 847 00b0 7CF0 0C00 		AND.B	#12, R12
 848 00b4 7C90 0C00 		CMP.B	#12, R12 { JNE	.L73
 848      0020 
 849 00ba 8C00 0000 		MOVA	#__func__.5078, R12
 850 00be B013 0000 		CALLA	#chSysHalt
 851               	.L73:
 852 00c2 6D48      		MOV.B	@R8, R13
 853 00c4 0C4D      		MOV.W	R13, R12
 854 00c6 4318 0C5C 		rpt	#4 { rlax.w	R12
 855 00ca 7CF0 4000 		AND.B	#64, R12
 856 00ce 0E4D      		MOV.W	R13, R14
 857 00d0 4118 0E5E 		rpt	#2 { rlax.w	R14
 858 00d4 7EF0 2000 		AND.B	#32, R14
 859 00d8 4CDE      		BIS.B	R14, R12
 860 00da 0E4D      		MOV.W	R13, R14
 861 00dc 7EF0 1000 		AND.B	#16, R14
 862 00e0 4EDC      		BIS.B	R12, R14
 863 00e2 4ED9      		BIS.B	R9, R14
 864 00e4 7D40 3000 		MOV.B	#48, R13
 865 00e8 CC0A      		MOVA	R10, R12
 866 00ea 4613      		CALLA	R6
 867 00ec 6C48      		MOV.B	@R8, R12
 868 00ee 7CF0 0300 		AND.B	#3, R12
 869 00f2 4C93 0020 		CMP.B	#0, R12 { JNE	.L74
 870 00f6 0C0A      		MOVA	@R10, R12
 871 00f8 1C4C 2C00 		MOV.W	44(R12), R12
 872 00fc B013 0000 		CALLA	#__mspabi_srli_8
 873 0100 4E4C      		MOV.B	R12, R14
 874 0102 7ED0 4000 		BIS.B	#64, R14
 875 0106 7D40 3100 		MOV.B	#49, R13
 876 010a CC0A      		MOVA	R10, R12
 877 010c 4613      		CALLA	R6
 878 010e 0C0A      		MOVA	@R10, R12
 879 0110 5E4C 2C00 		MOV.B	44(R12), R14
 880               	.L85:
 881 0114 7D40 3200 		MOV.B	#50, R13
 882 0118 CC0A      		MOVA	R10, R12
 883 011a 4613      		CALLA	R6
 884 011c 080A      		MOVA	@R10, R8
 885 011e 5C48 1C00 		MOV.B	28(R8), R12
 886 0122 7D40 0500 		MOV.B	#5, R13
 887 0126 4D9C 0028 		CMP.B	R12, R13 { JLO	.L76
 888 012a 0C93 0024 		CMP.W	#0, R12 { JEQ	.L76
 889 012e 8C00 0000 		MOVA	#__func__.5066, R12
 890 0132 B013 0000 		CALLA	#chSysHalt
 891               	.L76:
 892 0136 5C48 1D00 		MOV.B	29(R8), R12
 893 013a 7D40 0500 		MOV.B	#5, R13
 894 013e 4D9C 0028 		CMP.B	R12, R13 { JLO	.L79
 895 0142 1C93 0024 		CMP.W	#1, R12 { JEQ	.L79
 896 0146 8C00 0000 		MOVA	#__func__.5066, R12
 897 014a B013 0000 		CALLA	#chSysHalt
 898               	.L79:
 899 014e 4E43      		MOV.B	#0, R14
 900 0150 7D40 4000 		MOV.B	#64, R13
 901 0154 CC0A      		MOVA	R10, R12
 902 0156 4613      		CALLA	R6
GAS LISTING /tmp/ccKFr5Gw.s 			page 18


 903 0158 7E40 4000 		MOV.B	#64, R14
 904 015c 7D40 4100 		MOV.B	#65, R13
 905 0160 CC0A      		MOVA	R10, R12
 906 0162 4613      		CALLA	R6
 907 0164 EA43 0400 		MOV.B	#2, 4(R10)
 908               		; start of epilogue
 909 0168 0616      		POPM.A	#1, r6
 910 016a 2816      		POPM.A	#3, r10
 911 016c 1001      		RETA
 912               	.L82:
 913 016e 7940 8000 		MOV.B	#128, R9
 914 0172 8000 0000 		BRA	#.L72
 915               	.L74:
 916 0176 7E40 4000 		MOV.B	#64, R14
 917 017a 7D40 3100 		MOV.B	#49, R13
 918 017e CC0A      		MOVA	R10, R12
 919 0180 4613      		CALLA	R6
 920 0182 4E43      		MOV.B	#0, R14
 921 0184 8000 0000 		BRA	#.L85
 922               		.size	sx1278Start, .-sx1278Start
 923               		.section	.text.sx1278Stop,"ax",@progbits
 924               		.balign 2
 925               		.global	sx1278Stop
 926               		.type	sx1278Stop, @function
 927               	sx1278Stop:
 928               	; start of function
 929               	; framesize_regs:     4
 930               	; framesize_locals:   0
 931               	; framesize_outgoing: 0
 932               	; framesize:          4
 933               	; elim ap -> fp       8
 934               	; elim fp -> sp       0
 935               	; saved regs: R10
 936               		; start of prologue
 937 0000 0A14      		PUSHM.A	#1, R10
 938               		; end of prologue
 939 0002 CA0C      		MOVA	R12, R10
 940 0004 B013 0000 		CALLA	#sx1278Reset.isra.0
 941 0008 0C0A      		MOVA	@R10, R12
 942 000a 3D0C 0400 		MOVA	4(R12), R13
 943 000e 0C0C      		MOVA	@R12, R12
 944 0010 B013 0000 		CALLA	#spiStart
 945 0014 CC0A      		MOVA	R10, R12
 946 0016 B013 0000 		CALLA	#sx1278SetMode.constprop.3
 947 001a FA40 0900 		MOV.B	#9, 5(R10)
 947      0500 
 948 0020 0C0A      		MOVA	@R10, R12
 949 0022 0C0C      		MOVA	@R12, R12
 950 0024 B013 0000 		CALLA	#spiStop
 951 0028 DA43 0400 		MOV.B	#1, 4(R10)
 952               		; start of epilogue
 953 002c 0A16      		POPM.A	#1, r10
 954 002e 1001      		RETA
 955               		.size	sx1278Stop, .-sx1278Stop
 956               		.section	.text.sx1278Sleep,"ax",@progbits
 957               		.balign 2
 958               		.global	sx1278Sleep
GAS LISTING /tmp/ccKFr5Gw.s 			page 19


 959               		.type	sx1278Sleep, @function
 960               	sx1278Sleep:
 961               	; start of function
 962               	; framesize_regs:     4
 963               	; framesize_locals:   0
 964               	; framesize_outgoing: 0
 965               	; framesize:          4
 966               	; elim ap -> fp       8
 967               	; elim fp -> sp       0
 968               	; saved regs: R10
 969               		; start of prologue
 970 0000 0A14      		PUSHM.A	#1, R10
 971               		; end of prologue
 972 0002 CA0C      		MOVA	R12, R10
 973 0004 B013 0000 		CALLA	#sx1278SetMode.constprop.3
 974 0008 EA42 0400 		MOV.B	#4, 4(R10)
 975               		; start of epilogue
 976 000c 0A16      		POPM.A	#1, r10
 977 000e 1001      		RETA
 978               		.size	sx1278Sleep, .-sx1278Sleep
 979               		.section	.text.sx1278FifoWriteAsync,"ax",@progbits
 980               		.balign 2
 981               		.global	sx1278FifoWriteAsync
 982               		.type	sx1278FifoWriteAsync, @function
 983               	sx1278FifoWriteAsync:
 984               	; start of function
 985               	; framesize_regs:     20
 986               	; framesize_locals:   4
 987               	; framesize_outgoing: 0
 988               	; framesize:          24
 989               	; elim ap -> fp       24
 990               	; elim fp -> sp       4
 991               	; saved regs: R4 R6 R8 R9 R10
 992               		; start of prologue
 993 0000 2A14      		PUSHM.A	#3, R10
 994 0002 0614      		PUSHM.A	#1, R6
 995 0004 0414      		PUSHM.A	#1, R4
 996 0006 B100 0400 		SUBA	#4, R1
 997               		; end of prologue
 998 000a CA0C      		MOVA	R12, R10
 999 000c C80D      		MOVA	R13, R8
 1000 000e 7C0F 0800 		MOVA	R15, 8(R12)
 1001 0012 060C      		MOVA	@R12, R6
 1002 0014 3C06 2200 		MOVA	34(R6), R12
 1003 0018 C40C      		MOVA	R12, R4
 1004 001a 0018 74F0 		ANDX.A	#4095, R4
 1004      FF0F 
 1005 0020 1944 0200 		MOV.W	2(R4), R9
 1006 0024 0C14 4018 		PUSHM.A	#1, R12 { POPX.W	R12 { POPX.W	R13 ; move pointer in R12 into reg-pair R12:R13
 1006      3C41 4018 
 1006      3D41 
 1007 002e 710E 0000 		MOVA	R14, @R1
 1008 0032 B013 0000 		CALLA	#__mspabi_srll_12
 1009 0036 0D12 0C12 		PUSH.W	R13 { PUSH.W	R12 { POPM.A	#1, R12
 1009      0C16 
 1010 003c 4018 0D4C 		MOVX	R12, R13
 1011 0040 5C43      		MOV.B	#1, R12
GAS LISTING /tmp/ccKFr5Gw.s 			page 20


 1012 0042 B013 0000 		CALLA	#__mspabi_slli
 1013 0046 09CC      		BIC.W	R12, R9
 1014 0048 8449 0200 		MOV.W	R9, 2(R4)
 1015 004c 7D40 80FF 		MOV.B	#-128, R13
 1016 0050 0C06      		MOVA	@R6, R12
 1017 0052 B013 0000 		CALLA	#spi_lld_polled_exchange
 1018 0056 0A0A      		MOVA	@R10, R10
 1019 0058 3C0A 0400 		MOVA	4(R10), R12
 1020 005c 0018 FC40 		MOVX.A	#spi_callback, @R12
 1020      0000 0000 
 1021 0064 0E01      		MOVA	@R1, R14
 1022 0066 CD08      		MOVA	R8, R13
 1023 0068 0C0A      		MOVA	@R10, R12
 1024 006a B013 0000 		CALLA	#spiStartSend
 1025               		; start of epilogue
 1026 006e A100 0400 		ADDA	#4, R1
 1027 0072 0416      		POPM.A	#1, r4
 1028 0074 0616      		POPM.A	#1, r6
 1029 0076 2816      		POPM.A	#3, r10
 1030 0078 1001      		RETA
 1031               		.size	sx1278FifoWriteAsync, .-sx1278FifoWriteAsync
 1032               		.section	.text.sx1278FifoWriteAsyncS,"ax",@progbits
 1033               		.balign 2
 1034               		.global	sx1278FifoWriteAsyncS
 1035               		.type	sx1278FifoWriteAsyncS, @function
 1036               	sx1278FifoWriteAsyncS:
 1037               	; start of function
 1038               	; framesize_regs:     20
 1039               	; framesize_locals:   4
 1040               	; framesize_outgoing: 0
 1041               	; framesize:          24
 1042               	; elim ap -> fp       24
 1043               	; elim fp -> sp       4
 1044               	; saved regs: R4 R6 R8 R9 R10
 1045               		; start of prologue
 1046 0000 2A14      		PUSHM.A	#3, R10
 1047 0002 0614      		PUSHM.A	#1, R6
 1048 0004 0414      		PUSHM.A	#1, R4
 1049 0006 B100 0400 		SUBA	#4, R1
 1050               		; end of prologue
 1051 000a CA0C      		MOVA	R12, R10
 1052 000c C80D      		MOVA	R13, R8
 1053 000e 7C0F 0800 		MOVA	R15, 8(R12)
 1054 0012 060C      		MOVA	@R12, R6
 1055 0014 3C06 2200 		MOVA	34(R6), R12
 1056 0018 C40C      		MOVA	R12, R4
 1057 001a 0018 74F0 		ANDX.A	#4095, R4
 1057      FF0F 
 1058 0020 1944 0200 		MOV.W	2(R4), R9
 1059 0024 0C14 4018 		PUSHM.A	#1, R12 { POPX.W	R12 { POPX.W	R13 ; move pointer in R12 into reg-pair R12:R13
 1059      3C41 4018 
 1059      3D41 
 1060 002e 710E 0000 		MOVA	R14, @R1
 1061 0032 B013 0000 		CALLA	#__mspabi_srll_12
 1062 0036 0D12 0C12 		PUSH.W	R13 { PUSH.W	R12 { POPM.A	#1, R12
 1062      0C16 
 1063 003c 4018 0D4C 		MOVX	R12, R13
GAS LISTING /tmp/ccKFr5Gw.s 			page 21


 1064 0040 5C43      		MOV.B	#1, R12
 1065 0042 B013 0000 		CALLA	#__mspabi_slli
 1066 0046 09CC      		BIC.W	R12, R9
 1067 0048 8449 0200 		MOV.W	R9, 2(R4)
 1068 004c 7D40 80FF 		MOV.B	#-128, R13
 1069 0050 0C06      		MOVA	@R6, R12
 1070 0052 B013 0000 		CALLA	#spi_lld_polled_exchange
 1071 0056 0A0A      		MOVA	@R10, R10
 1072 0058 3C0A 0400 		MOVA	4(R10), R12
 1073 005c 0018 FC40 		MOVX.A	#spi_callback, @R12
 1073      0000 0000 
 1074 0064 0C0A      		MOVA	@R10, R12
 1075 0066 FC40 0300 		MOV.B	#3, @R12
 1075      0000 
 1076 006c 0E01      		MOVA	@R1, R14
 1077 006e CD08      		MOVA	R8, R13
 1078 0070 B013 0000 		CALLA	#spi_lld_send
 1079               		; start of epilogue
 1080 0074 A100 0400 		ADDA	#4, R1
 1081 0078 0416      		POPM.A	#1, r4
 1082 007a 0616      		POPM.A	#1, r6
 1083 007c 2816      		POPM.A	#3, r10
 1084 007e 1001      		RETA
 1085               		.size	sx1278FifoWriteAsyncS, .-sx1278FifoWriteAsyncS
 1086               		.section	.text.sx1278StartTransmit,"ax",@progbits
 1087               		.balign 2
 1088               		.global	sx1278StartTransmit
 1089               		.type	sx1278StartTransmit, @function
 1090               	sx1278StartTransmit:
 1091               	; start of function
 1092               	; framesize_regs:     20
 1093               	; framesize_locals:   8
 1094               	; framesize_outgoing: 0
 1095               	; framesize:          28
 1096               	; elim ap -> fp       24
 1097               	; elim fp -> sp       8
 1098               	; saved regs: R4 R6 R8 R9 R10
 1099               		; start of prologue
 1100 0000 2A14      		PUSHM.A	#3, R10
 1101 0002 0614      		PUSHM.A	#1, R6
 1102 0004 0414      		PUSHM.A	#1, R4
 1103 0006 B100 0800 		SUBA	#8, R1
 1104               		; end of prologue
 1105 000a CA0C      		MOVA	R12, R10
 1106 000c C40D      		MOVA	R13, R4
 1107 000e C60E      		MOVA	R14, R6
 1108 0010 7840 1800 		MOV.B	#24, R8
 1109 0014 D80D 0028 		CMPA	R13, R8 { JLO	.L93
 1110 0018 4E4D      		MOV.B	R13, R14
 1111 001a 7E53      		ADD.B	#-1, R14
 1112 001c 3EF0 FF00 		AND	#0xff, R14
 1113               	.L91:
 1114 0020 8800 0000 		MOVA	#sx1278SetRegister, R8
 1115 0024 7D40 3500 		MOV.B	#53, R13
 1116 0028 CC0A      		MOVA	R10, R12
 1117 002a 710F 0000 		MOVA	R15, @R1
 1118 002e 4813      		CALLA	R8
GAS LISTING /tmp/ccKFr5Gw.s 			page 22


 1119 0030 5E4A 0600 		MOV.B	6(R10), R14
 1120 0034 7EF0 7F00 		AND.B	#127, R14
 1121 0038 CA4E 0600 		MOV.B	R14, 6(R10)
 1122 003c 7ED0 4000 		BIS.B	#64, R14
 1123 0040 7D40 3600 		MOV.B	#54, R13
 1124 0044 CC0A      		MOVA	R10, R12
 1125 0046 4813      		CALLA	R8
 1126 0048 5E4A 0600 		MOV.B	6(R10), R14
 1127 004c 7ED0 80FF 		BIS.B	#-128, R14
 1128 0050 CA4E 0600 		MOV.B	R14, 6(R10)
 1129 0054 7D40 3600 		MOV.B	#54, R13
 1130 0058 CC0A      		MOVA	R10, R12
 1131 005a 4813      		CALLA	R8
 1132               	 ; 347 "../ChibiOS-Contrib/os/common/ports/MSP430X/chcore.h" 1
 1133 005c 32C2 0343 		dint { nop
 1134               	 ; 0 "" 2
 1135               	 ; 348 "../ChibiOS-Contrib/os/common/ports/MSP430X/chcore.h" 1
 1136 0060 0343      		nop
 1137               	 ; 0 "" 2
 1138 0062 0E0A      		MOVA	@R10, R14
 1139 0064 5C4E 1D00 		MOV.B	29(R14),R12 { CLR	R13
 1139      0D43 
 1140 006a 084C      		MOV.W	R12, R8
 1141 006c 094D      		MOV.W	R13, R9
 1142 006e 0858 0969 		RLA.W	R8 { RLC.W	R9 { RLA.W	R8 { RLC.W	R9
 1142      0858 0969 
 1143 0076 8148 0400 		MOV.W	R8, 4(R1)
 1144 007a 8149 0600 		MOV.W	R9, 6(R1)
 1145 007e 0018 5E51 		ADDX.A	4(R1), R14
 1145      0400 
 1146 0084 380E 2E00 		MOVA	46(R14), R8
 1147 0088 0814 4018 		PUSHM.A	#1, R8 { POPX.W	R12 { POPX.W	R13 ; move pointer in R8 into reg-pair R12:R13
 1147      3C41 4018 
 1147      3D41 
 1148 0092 B013 0000 		CALLA	#__mspabi_srll_12
 1149 0096 0D12 0C12 		PUSH.W	R13 { PUSH.W	R12 { POPM.A	#1, R12
 1149      0C16 
 1150 009c 0F01      		MOVA	@R1, R15
 1151 009e 6E43      		MOV.B	#2, R14
 1152 00a0 4D4C      		MOV.B	R12, R13
 1153 00a2 CC08      		MOVA	R8, R12
 1154 00a4 0018 7CF0 		ANDX.A	#4095, R12
 1154      FF0F 
 1155 00aa B013 0000 		CALLA	#_pal_lld_enablepadevent
 1156               	 ; 355 "../ChibiOS-Contrib/os/common/ports/MSP430X/chcore.h" 1
 1157 00ae 0343      		nop
 1158               	 ; 0 "" 2
 1159               	 ; 356 "../ChibiOS-Contrib/os/common/ports/MSP430X/chcore.h" 1
 1160 00b0 0343 32D2 		nop { eint { nop
 1160      0343 
 1161               	 ; 0 "" 2
 1162 00b6 7940 2F00 		MOV.B	#47, R9
 1163 00ba D904 002C 		CMPA	R4, R9 { JHS	.L92
 1164 00be C409      		MOVA	R9, R4
 1165               	.L92:
 1166 00c0 3F01 2000 		MOVA	32(R1), R15
 1167 00c4 CE06      		MOVA	R6, R14
GAS LISTING /tmp/ccKFr5Gw.s 			page 23


 1168 00c6 CD04      		MOVA	R4, R13
 1169 00c8 CC0A      		MOVA	R10, R12
 1170 00ca B013 0000 		CALLA	#sx1278FifoWriteAsync
 1171 00ce CC04      		MOVA	R4, R12
 1172               		; start of epilogue
 1173 00d0 A100 0800 		ADDA	#8, R1
 1174 00d4 0416      		POPM.A	#1, r4
 1175 00d6 0616      		POPM.A	#1, r6
 1176 00d8 2816      		POPM.A	#3, r10
 1177 00da 1001      		RETA
 1178               	.L93:
 1179 00dc 7E40 1700 		MOV.B	#23, R14
 1180 00e0 8000 0000 		BRA	#.L91
 1181               		.size	sx1278StartTransmit, .-sx1278StartTransmit
 1182               		.section	.text.sx1278Send,"ax",@progbits
 1183               		.balign 2
 1184               		.global	sx1278Send
 1185               		.type	sx1278Send, @function
 1186               	sx1278Send:
 1187               	; start of function
 1188               	; framesize_regs:     28
 1189               	; framesize_locals:   10
 1190               	; framesize_outgoing: 0
 1191               	; framesize:          38
 1192               	; elim ap -> fp       32
 1193               	; elim fp -> sp       10
 1194               	; saved regs: R4 R5 R6 R7 R8 R9 R10
 1195               		; start of prologue
 1196 0000 6A14      		PUSHM.A	#7, R10
 1197 0002 B100 0A00 		SUBA	#10, R1
 1198               		; end of prologue
 1199 0006 CA0C      		MOVA	R12, R10
 1200 0008 C70D      		MOVA	R13, R7
 1201 000a 094E      		MOV.W	R14, R9
 1202 000c 814F 0400 		MOV.W	R15, 4(R1)
 1203 0010 5C4C 0400 		MOV.B	4(R12), R12
 1204 0014 6C93 0024 		CMP.B	#2, R12 { JEQ	.L95
 1205 0018 6C92 0024 		CMP.B	#4, R12 { JEQ	.L95
 1206 001c 8C00 0000 		MOVA	#__func__.5145, R12
 1207 0020 B013 0000 		CALLA	#chSysHalt
 1208               	.L95:
 1209 0024 FA40 0300 		MOV.B	#3, 4(R10)
 1209      0400 
 1210 002a 0E0A      		MOVA	@R10, R14
 1211 002c 3C0E 2600 		MOVA	38(R14), R12
 1212 0030 6C4C      		MOV.B	@R12, R12
 1213 0032 4D4C      		MOV.B	R12, R13
 1214 0034 7DF0 0300 		AND.B	#3, R13
 1215 0038 4D93 0020 		CMP.B	#0, R13 { JNE	.L96
 1216 003c 8E99 2C00 		CMP.W	R9, 44(R14) { JEQ	.L103
 1216      0024 
 1217 0042 8C00 0000 		MOVA	#__func__.5145, R12
 1218 0046 B013 0000 		CALLA	#chSysHalt
 1219               	.L103:
 1220 004a 0E0A      		MOVA	@R10, R14
 1221 004c 3C0E 2600 		MOVA	38(R14), R12
 1222 0050 4018 FCB0 		BITX.B	#64, @R12 { JEQ	.L99
GAS LISTING /tmp/ccKFr5Gw.s 			page 24


 1222      4000 0000 
 1222      0024 
 1223 005a D74E 2A00 		MOV.B	42(R14), @R7
 1223      0000 
 1224 0060 8000 0000 		BRA	#.L99
 1225               	.L96:
 1226 0064 5D93 0020 		CMP.B	#1, R13 { JNE	.L100
 1227 0068 3C40 0001 		MOV.W	#256, R12
 1228 006c 0C99 002C 		CMP.W	R9, R12 { JHS	.L101
 1229 0070 8C00 0000 		MOVA	#__func__.5145, R12
 1230 0074 B013 0000 		CALLA	#chSysHalt
 1231               	.L101:
 1232 0078 4D49      		MOV.B	R9, R13
 1233 007a 7D53      		ADD.B	#-1, R13
 1234 007c C74D 0000 		MOV.B	R13, @R7
 1235 0080 0E0A      		MOVA	@R10, R14
 1236 0082 3C0E 2600 		MOVA	38(R14), R12
 1237 0086 4018 FCB0 		BITX.B	#64, @R12 { JEQ	.L99
 1237      4000 0000 
 1237      0024 
 1238 0090 D74E 2A00 		MOV.B	42(R14), 1(R7)
 1238      0100 
 1239               	.L99:
 1240 0096 7C40 1000 		MOV.B	#16, R12
 1241 009a 0C99 0028 		CMP.W	R9, R12 { JLO	.L110
 1242 009e 4E49      		MOV.B	R9, R14
 1243 00a0 7E53      		ADD.B	#-1, R14
 1244 00a2 3EF0 FF00 		AND	#0xff, R14
 1245               	.L105:
 1246 00a6 8800 0000 		MOVA	#sx1278SetRegister, R8
 1247 00aa 7D40 3500 		MOV.B	#53, R13
 1248 00ae CC0A      		MOVA	R10, R12
 1249 00b0 4813      		CALLA	R8
 1250 00b2 5E4A 0600 		MOV.B	6(R10), R14
 1251 00b6 7EF0 BFFF 		AND.B	#-65, R14
 1252 00ba 7ED0 80FF 		BIS.B	#-128, R14
 1253 00be CA4E 0600 		MOV.B	R14, 6(R10)
 1254 00c2 7D40 3600 		MOV.B	#54, R13
 1255 00c6 CC0A      		MOVA	R10, R12
 1256 00c8 4813      		CALLA	R8
 1257 00ca 4643      		MOV.B	#0, R6
 1258               	.L109:
 1259 00cc 4018 0C49 		MOVX.W	R9, R12 { SUBX.W	R6, R12
 1259      4018 0C86 
 1260 00d4 7D40 4000 		MOV.B	#64, R13
 1261 00d8 0D9C 0028 		CMP.W	R12, R13 { JLO	.L111
 1262 00dc 4018 4849 		MOVX.B	R9, R8 { SUBX.B	R6, R8
 1262      4018 4886 
 1263 00e4 38F0 FF00 		AND	#0xff, R8
 1264               	.L106:
 1265 00e8 4018 0E46 		MOVX	R6, R14
 1266 00ec EE07      		ADDA	R7, R14
 1267 00ee 710E 0600 		MOVA	R14, 6(R1)
 1268 00f2 0E0A      		MOVA	@R10, R14
 1269 00f4 3C0E 2200 		MOVA	34(R14), R12
 1270 00f8 C40C      		MOVA	R12, R4
 1271 00fa 0018 74F0 		ANDX.A	#4095, R4
GAS LISTING /tmp/ccKFr5Gw.s 			page 25


 1271      FF0F 
 1272 0100 1544 0200 		MOV.W	2(R4), R5
 1273 0104 0C14 4018 		PUSHM.A	#1, R12 { POPX.W	R12 { POPX.W	R13 ; move pointer in R12 into reg-pair R12:R13
 1273      3C41 4018 
 1273      3D41 
 1274 010e 710E 0000 		MOVA	R14, @R1
 1275 0112 B013 0000 		CALLA	#__mspabi_srll_12
 1276 0116 0D12 0C12 		PUSH.W	R13 { PUSH.W	R12 { POPM.A	#1, R12
 1276      0C16 
 1277 011c 4018 0D4C 		MOVX	R12, R13
 1278 0120 5C43      		MOV.B	#1, R12
 1279 0122 B013 0000 		CALLA	#__mspabi_slli
 1280 0126 05CC      		BIC.W	R12, R5
 1281 0128 8445 0200 		MOV.W	R5, 2(R4)
 1282 012c 7D40 80FF 		MOV.B	#-128, R13
 1283 0130 0E01      		MOVA	@R1, R14
 1284 0132 0C0E      		MOVA	@R14, R12
 1285 0134 B013 0000 		CALLA	#spi_lld_polled_exchange
 1286 0138 0C0A      		MOVA	@R10, R12
 1287 013a 3E01 0600 		MOVA	6(R1), R14
 1288 013e 4018 0D48 		MOVX	R8, R13
 1289 0142 0C0C      		MOVA	@R12, R12
 1290 0144 B013 0000 		CALLA	#spiSend
 1291 0148 0C0A      		MOVA	@R10, R12
 1292 014a 3C0C 2200 		MOVA	34(R12), R12
 1293 014e C40C      		MOVA	R12, R4
 1294 0150 0018 74F0 		ANDX.A	#4095, R4
 1294      FF0F 
 1295 0156 1544 0200 		MOV.W	2(R4), R5
 1296 015a 0C14 4018 		PUSHM.A	#1, R12 { POPX.W	R12 { POPX.W	R13 ; move pointer in R12 into reg-pair R12:R13
 1296      3C41 4018 
 1296      3D41 
 1297 0164 B013 0000 		CALLA	#__mspabi_srll_12
 1298 0168 0D12 0C12 		PUSH.W	R13 { PUSH.W	R12 { POPM.A	#1, R12
 1298      0C16 
 1299 016e 4018 0D4C 		MOVX	R12, R13
 1300 0172 5C43      		MOV.B	#1, R12
 1301 0174 B013 0000 		CALLA	#__mspabi_slli
 1302 0178 0CD5      		BIS.W	R5, R12
 1303 017a 844C 0200 		MOV.W	R12, 2(R4)
 1304 017e 0658      		ADD.W	R8, R6
 1305 0180 1F41 0400 		MOV.W	4(R1), R15
 1306 0184 6E43      		MOV.B	#2, R14
 1307 0186 5D43      		MOV.B	#1, R13
 1308 0188 CC0A      		MOVA	R10, R12
 1309 018a B013 0000 		CALLA	#sx1278BlockTimeout
 1310 018e 600C 0000 		MOVA	R12, &suspend_result
 1311 0192 9C00 0000 		CMPA	#0, R12 { JEQ	.L107
 1311      0024 
 1312               	.L131:
 1313 0198 EA43 0400 		MOV.B	#2, 4(R10)
 1314 019c 8000 0000 		BRA	#.L108
 1315               	.L100:
 1316 01a0 6D93 0020 		CMP.B	#2, R13 { JNE	.L99
 1317 01a4 4C93 0034 		CMP.B	#0, R12 { JGE	.L103
 1318 01a8 4018 3CB0 		BITX.W	#64, R12 { JEQ	.L104
 1318      4000 0024 
GAS LISTING /tmp/ccKFr5Gw.s 			page 26


 1319 01b0 8E93 2C00 		CMP.W	#0, 44(R14) { JNE	.L104
 1319      0020 
 1320 01b6 8C00 0000 		MOVA	#__func__.5145, R12
 1321 01ba B013 0000 		CALLA	#chSysHalt
 1322               	.L104:
 1323 01be 0C0A      		MOVA	@R10, R12
 1324 01c0 1C4C 2C00 		MOV.W	44(R12), R12
 1325 01c4 1C53      		ADD.W	#1, R12
 1326 01c6 4018 0C4C 		MOVX	R12, R12
 1327 01ca EC07      		ADDA	R7, R12
 1328 01cc 0D49      		MOV.W	R9, R13
 1329 01ce 5D0F 5D0F 		rrum.w	#4, R13 { rrum.w	#4, R13 
 1330 01d2 CC4D 0000 		MOV.B	R13, @R12
 1331 01d6 0C0A      		MOVA	@R10, R12
 1332 01d8 4018 1C4C 		MOVX	44(R12), R12
 1332      2C00 
 1333 01de EC07      		ADDA	R7, R12
 1334 01e0 CC49 0000 		MOV.B	R9, @R12
 1335 01e4 8000 0000 		BRA	#.L103
 1336               	.L110:
 1337 01e8 7E40 0F00 		MOV.B	#15, R14
 1338 01ec 8000 0000 		BRA	#.L105
 1339               	.L111:
 1340 01f0 7840 3000 		MOV.B	#48, R8
 1341 01f4 8000 0000 		BRA	#.L106
 1342               	.L107:
 1343 01f8 0699 0028 		CMP.W	R9, R6 { JLO	.L109
 1344 01fc 1F41 0400 		MOV.W	4(R1), R15
 1345 0200 5E43      		MOV.B	#1, R14
 1346 0202 4D43      		MOV.B	#0, R13
 1347 0204 CC0A      		MOVA	R10, R12
 1348 0206 B013 0000 		CALLA	#sx1278BlockTimeout
 1349 020a 9C00 0000 		CMPA	#0, R12 { JNE	.L131
 1349      0020 
 1350               	.L108:
 1351 0210 600C 0000 		MOVA	R12, &suspend_result
 1352 0214 5E4A 0600 		MOV.B	6(R10), R14
 1353 0218 7EF0 7F00 		AND.B	#127, R14
 1354 021c 7ED0 4000 		BIS.B	#64, R14
 1355 0220 CA4E 0600 		MOV.B	R14, 6(R10)
 1356 0224 7D40 3600 		MOV.B	#54, R13
 1357 0228 CC0A      		MOVA	R10, R12
 1358 022a B013 0000 		CALLA	#sx1278SetRegister
 1359 022e EA43 0400 		MOV.B	#2, 4(R10)
 1360 0232 2C00 0000 		MOVA	&suspend_result, R12
 1361               		; start of epilogue
 1362 0236 A100 0A00 		ADDA	#10, R1
 1363 023a 6416      		POPM.A	#7, r10
 1364 023c 1001      		RETA
 1365               		.size	sx1278Send, .-sx1278Send
 1366               		.section	.upper.rodata,"a",@progbits
 1367               		.type	__func__.5088, @object
 1368               		.size	__func__.5088, 19
 1369               	__func__.5088:
 1370 0000 7378 3132 		.string	"sx1278BlockTimeout"
 1370      3738 426C 
 1370      6F63 6B54 
GAS LISTING /tmp/ccKFr5Gw.s 			page 27


 1370      696D 656F 
 1370      7574 00
 1371               		.type	__func__.5145, @object
 1372               		.size	__func__.5145, 11
 1373               	__func__.5145:
 1374 0013 7378 3132 		.string	"sx1278Send"
 1374      3738 5365 
 1374      6E64 00
 1375               		.type	__func__.5066, @object
 1376               		.size	__func__.5066, 14
 1377               	__func__.5066:
 1378 001e 7378 3132 		.string	"sx1278MapIRQs"
 1378      3738 4D61 
 1378      7049 5251 
 1378      7300 
 1379               		.type	__func__.5078, @object
 1380               		.size	__func__.5078, 23
 1381               	__func__.5078:
 1382 002c 7378 3132 		.string	"sx1278ConfigurePackets"
 1382      3738 436F 
 1382      6E66 6967 
 1382      7572 6550 
 1382      6163 6B65 
 1383               		.type	__func__.5053, @object
 1384               		.size	__func__.5053, 12
 1385               	__func__.5053:
 1386 0043 7378 3132 		.string	"sx1278Reset"
 1386      3738 5265 
 1386      7365 7400 
 1387               		.type	__func__.5045, @object
 1388               		.size	__func__.5045, 14
 1389               	__func__.5045:
 1390 004f 7378 3132 		.string	"sx1278SetSync"
 1390      3738 5365 
 1390      7453 796E 
 1390      6300 
 1391               		.type	__func__.5035, @object
 1392               		.size	__func__.5035, 22
 1393               	__func__.5035:
 1394 005d 7378 3132 		.string	"sx1278SetFilterParams"
 1394      3738 5365 
 1394      7446 696C 
 1394      7465 7250 
 1394      6172 616D 
 1395               		.type	__func__.5026, @object
 1396               		.size	__func__.5026, 19
 1397               	__func__.5026:
 1398 0073 7378 3132 		.string	"sx1278SetFrequency"
 1398      3738 5365 
 1398      7446 7265 
 1398      7175 656E 
 1398      6379 00
 1399               		.type	__func__.5020, @object
 1400               		.size	__func__.5020, 19
 1401               	__func__.5020:
 1402 0086 7378 3132 		.string	"sx1278SetDeviation"
 1402      3738 5365 
GAS LISTING /tmp/ccKFr5Gw.s 			page 28


 1402      7444 6576 
 1402      6961 7469 
 1402      6F6E 00
 1403               		.type	__func__.5014, @object
 1404               		.size	__func__.5014, 17
 1405               	__func__.5014:
 1406 0099 7378 3132 		.string	"sx1278SetBitrate"
 1406      3738 5365 
 1406      7442 6974 
 1406      7261 7465 
 1406      00
 1407               		.type	__func__.4992, @object
 1408               		.size	__func__.4992, 18
 1409               	__func__.4992:
 1410 00aa 7378 3132 		.string	"sx1278SetRegister"
 1410      3738 5365 
 1410      7452 6567 
 1410      6973 7465 
 1410      7200 
 1411               		.type	__func__.4986, @object
 1412               		.size	__func__.4986, 19
 1413               	__func__.4986:
 1414 00bc 7378 3132 		.string	"sx1278ReadRegister"
 1414      3738 5265 
 1414      6164 5265 
 1414      6769 7374 
 1414      6572 00
 1415               		.local	suspend_result
 1416               		.comm	suspend_result,4,2
 1417               		.type	irqbits, @object
 1418               		.size	irqbits, 2
 1419               	irqbits:
 1420 00cf 0A        		.byte	10
 1421 00d0 0C        		.byte	12
 1422               		.local	tr
 1423               		.comm	tr,4,2
 1424               		.global	SX1278D1
 1425               		.section	.upper.bss,"aw",@nobits
 1426               		.balign 2
 1427               		.type	SX1278D1, @object
 1428               		.size	SX1278D1, 12
 1429               	SX1278D1:
 1430 0000 0000 0000 		.zero	12
 1430      0000 0000 
 1430      0000 0000 
 1431               		.ident	"GCC: (SOMNIUM Technologies Limited - msp430-gcc 6.2.1.16) 6.2.1 20161212"
GAS LISTING /tmp/ccKFr5Gw.s 			page 29


DEFINED SYMBOLS
                            *ABS*:0000000000000000 sx1278.c
     /tmp/ccKFr5Gw.s:6      .text.spi_callback:0000000000000000 spi_callback
     /tmp/ccKFr5Gw.s:1429   .upper.bss:0000000000000000 SX1278D1
     /tmp/ccKFr5Gw.s:47     .text.blocking_callback:0000000000000000 blocking_callback
     /tmp/ccKFr5Gw.s:1423   .bss:0000000000000004 tr
     /tmp/ccKFr5Gw.s:67     .text.sx1278Reset.isra.0:0000000000000000 sx1278Reset.isra.0
     /tmp/ccKFr5Gw.s:1385   .upper.rodata:0000000000000043 __func__.5053
     /tmp/ccKFr5Gw.s:137    .text.sx1278ReadRegister:0000000000000000 sx1278ReadRegister
     /tmp/ccKFr5Gw.s:1413   .upper.rodata:00000000000000bc __func__.4986
     /tmp/ccKFr5Gw.s:198    .text.sx1278BlockTimeout:0000000000000000 sx1278BlockTimeout
     /tmp/ccKFr5Gw.s:1369   .upper.rodata:0000000000000000 __func__.5088
     /tmp/ccKFr5Gw.s:1419   .upper.rodata:00000000000000cf irqbits
     /tmp/ccKFr5Gw.s:1416   .bss:0000000000000000 suspend_result
     /tmp/ccKFr5Gw.s:349    .text.sx1278SetRegister:0000000000000000 sx1278SetRegister
     /tmp/ccKFr5Gw.s:1409   .upper.rodata:00000000000000aa __func__.4992
     /tmp/ccKFr5Gw.s:419    .text.sx1278SetMode.constprop.3:0000000000000000 sx1278SetMode.constprop.3
     /tmp/ccKFr5Gw.s:446    .text.sx1278SetBitrate:0000000000000000 sx1278SetBitrate
     /tmp/ccKFr5Gw.s:1405   .upper.rodata:0000000000000099 __func__.5014
     /tmp/ccKFr5Gw.s:501    .text.sx1278SetDeviation:0000000000000000 sx1278SetDeviation
     /tmp/ccKFr5Gw.s:1401   .upper.rodata:0000000000000086 __func__.5020
     /tmp/ccKFr5Gw.s:553    .text.sx1278SetFrequency:0000000000000000 sx1278SetFrequency
     /tmp/ccKFr5Gw.s:1397   .upper.rodata:0000000000000073 __func__.5026
     /tmp/ccKFr5Gw.s:649    .text.sx1278SetPower:0000000000000000 sx1278SetPower
     /tmp/ccKFr5Gw.s:670    .text.sx1278SetFilterParams:0000000000000000 sx1278SetFilterParams
     /tmp/ccKFr5Gw.s:1393   .upper.rodata:000000000000005d __func__.5035
     /tmp/ccKFr5Gw.s:704    .text.sx1278SetSync:0000000000000000 sx1278SetSync
     /tmp/ccKFr5Gw.s:1389   .upper.rodata:000000000000004f __func__.5045
     /tmp/ccKFr5Gw.s:760    .text.sx1278ObjectInit:0000000000000000 sx1278ObjectInit
     /tmp/ccKFr5Gw.s:781    .text.sx1278Start:0000000000000000 sx1278Start
     /tmp/ccKFr5Gw.s:1381   .upper.rodata:000000000000002c __func__.5078
     /tmp/ccKFr5Gw.s:1377   .upper.rodata:000000000000001e __func__.5066
     /tmp/ccKFr5Gw.s:927    .text.sx1278Stop:0000000000000000 sx1278Stop
     /tmp/ccKFr5Gw.s:960    .text.sx1278Sleep:0000000000000000 sx1278Sleep
     /tmp/ccKFr5Gw.s:983    .text.sx1278FifoWriteAsync:0000000000000000 sx1278FifoWriteAsync
     /tmp/ccKFr5Gw.s:1036   .text.sx1278FifoWriteAsyncS:0000000000000000 sx1278FifoWriteAsyncS
     /tmp/ccKFr5Gw.s:1090   .text.sx1278StartTransmit:0000000000000000 sx1278StartTransmit
     /tmp/ccKFr5Gw.s:1186   .text.sx1278Send:0000000000000000 sx1278Send
     /tmp/ccKFr5Gw.s:1373   .upper.rodata:0000000000000013 __func__.5145
     /tmp/ccKFr5Gw.s:38     .text.spi_callback:000000000000004e .L1
     /tmp/ccKFr5Gw.s:84     .text.sx1278Reset.isra.0:0000000000000016 .L8
     /tmp/ccKFr5Gw.s:154    .text.sx1278ReadRegister:0000000000000014 .L10
     /tmp/ccKFr5Gw.s:219    .text.sx1278BlockTimeout:000000000000001c .L12
     /tmp/ccKFr5Gw.s:238    .text.sx1278BlockTimeout:000000000000005c .L13
     /tmp/ccKFr5Gw.s:283    .text.sx1278BlockTimeout:00000000000000de .L14
     /tmp/ccKFr5Gw.s:270    .text.sx1278BlockTimeout:00000000000000ba .L21
     /tmp/ccKFr5Gw.s:274    .text.sx1278BlockTimeout:00000000000000c4 .L18
     /tmp/ccKFr5Gw.s:248    .text.sx1278BlockTimeout:000000000000007c .L15
     /tmp/ccKFr5Gw.s:280    .text.sx1278BlockTimeout:00000000000000d6 .L23
     /tmp/ccKFr5Gw.s:255    .text.sx1278BlockTimeout:0000000000000092 .L25
     /tmp/ccKFr5Gw.s:265    .text.sx1278BlockTimeout:00000000000000b2 .L11
     /tmp/ccKFr5Gw.s:338    .text.sx1278BlockTimeout:000000000000019e .L19
     /tmp/ccKFr5Gw.s:313    .text.sx1278BlockTimeout:000000000000014a .L20
     /tmp/ccKFr5Gw.s:367    .text.sx1278SetRegister:0000000000000016 .L28
     /tmp/ccKFr5Gw.s:371    .text.sx1278SetRegister:0000000000000028 .L29
     /tmp/ccKFr5Gw.s:374    .text.sx1278SetRegister:0000000000000030 .L30
     /tmp/ccKFr5Gw.s:475    .text.sx1278SetBitrate:0000000000000036 .L41
GAS LISTING /tmp/ccKFr5Gw.s 			page 30


     /tmp/ccKFr5Gw.s:478    .text.sx1278SetBitrate:000000000000003e .L39
     /tmp/ccKFr5Gw.s:531    .text.sx1278SetDeviation:0000000000000038 .L45
     /tmp/ccKFr5Gw.s:534    .text.sx1278SetDeviation:0000000000000040 .L43
     /tmp/ccKFr5Gw.s:588    .text.sx1278SetFrequency:0000000000000046 .L56
     /tmp/ccKFr5Gw.s:598    .text.sx1278SetFrequency:0000000000000066 .L47
     /tmp/ccKFr5Gw.s:629    .text.sx1278SetFrequency:00000000000000b2 .L49
     /tmp/ccKFr5Gw.s:604    .text.sx1278SetFrequency:0000000000000078 .L54
     /tmp/ccKFr5Gw.s:640    .text.sx1278SetFrequency:00000000000000d6 .L52
     /tmp/ccKFr5Gw.s:637    .text.sx1278SetFrequency:00000000000000ce .L57
     /tmp/ccKFr5Gw.s:600    .text.sx1278SetFrequency:000000000000006a .L51
     /tmp/ccKFr5Gw.s:689    .text.sx1278SetFilterParams:0000000000000018 .L63
     /tmp/ccKFr5Gw.s:751    .text.sx1278SetSync:0000000000000066 .L64
     /tmp/ccKFr5Gw.s:741    .text.sx1278SetSync:000000000000004c .L66
     /tmp/ccKFr5Gw.s:732    .text.sx1278SetSync:0000000000000034 .L67
     /tmp/ccKFr5Gw.s:912    .text.sx1278Start:000000000000016e .L82
     /tmp/ccKFr5Gw.s:851    .text.sx1278Start:00000000000000c2 .L73
     /tmp/ccKFr5Gw.s:915    .text.sx1278Start:0000000000000176 .L74
     /tmp/ccKFr5Gw.s:891    .text.sx1278Start:0000000000000136 .L76
     /tmp/ccKFr5Gw.s:898    .text.sx1278Start:000000000000014e .L79
     /tmp/ccKFr5Gw.s:846    .text.sx1278Start:00000000000000b0 .L72
     /tmp/ccKFr5Gw.s:880    .text.sx1278Start:0000000000000114 .L85
     /tmp/ccKFr5Gw.s:1178   .text.sx1278StartTransmit:00000000000000dc .L93
     /tmp/ccKFr5Gw.s:1165   .text.sx1278StartTransmit:00000000000000c0 .L92
     /tmp/ccKFr5Gw.s:1113   .text.sx1278StartTransmit:0000000000000020 .L91
     /tmp/ccKFr5Gw.s:1208   .text.sx1278Send:0000000000000024 .L95
     /tmp/ccKFr5Gw.s:1225   .text.sx1278Send:0000000000000064 .L96
     /tmp/ccKFr5Gw.s:1219   .text.sx1278Send:000000000000004a .L103
     /tmp/ccKFr5Gw.s:1239   .text.sx1278Send:0000000000000096 .L99
     /tmp/ccKFr5Gw.s:1315   .text.sx1278Send:00000000000001a0 .L100
     /tmp/ccKFr5Gw.s:1231   .text.sx1278Send:0000000000000078 .L101
     /tmp/ccKFr5Gw.s:1336   .text.sx1278Send:00000000000001e8 .L110
     /tmp/ccKFr5Gw.s:1339   .text.sx1278Send:00000000000001f0 .L111
     /tmp/ccKFr5Gw.s:1342   .text.sx1278Send:00000000000001f8 .L107
     /tmp/ccKFr5Gw.s:1350   .text.sx1278Send:0000000000000210 .L108
     /tmp/ccKFr5Gw.s:1322   .text.sx1278Send:00000000000001be .L104
     /tmp/ccKFr5Gw.s:1245   .text.sx1278Send:00000000000000a6 .L105
     /tmp/ccKFr5Gw.s:1264   .text.sx1278Send:00000000000000e8 .L106
     /tmp/ccKFr5Gw.s:1258   .text.sx1278Send:00000000000000cc .L109
     /tmp/ccKFr5Gw.s:1312   .text.sx1278Send:0000000000000198 .L131

UNDEFINED SYMBOLS
__mspabi_srll_12
__mspabi_slli
chThdResumeI
chSysHalt
_pal_lld_setgroupmode
chThdSleep
spi_lld_polled_exchange
nil
_pal_lld_enablepadevent
__mspabi_srli
_pal_lld_disablepadevent
chThdSuspendTimeoutS
__mspabi_divul
__mspabi_srll_4
__mspabi_slll_11
__mspabi_slll_8
GAS LISTING /tmp/ccKFr5Gw.s 			page 31


__mspabi_srll
spiStart
__mspabi_srli_8
spiStop
spiStartSend
spi_lld_send
spiSend
__crt0_init_bss
__crt0_init_highbss
