GAS LISTING /tmp/cce50xdz.s 			page 1


   1               		.file	"uart.c"
   2               		.section	.text.send_complete_cb,"ax",@progbits
   3               		.balign 2
   4               		.global	send_complete_cb
   5               		.type	send_complete_cb, @function
   6               	send_complete_cb:
   7               	; start of function
   8               	; framesize_regs:     0
   9               	; framesize_locals:   0
  10               	; framesize_outgoing: 0
  11               	; framesize:          0
  12               	; elim ap -> fp       4
  13               	; elim fp -> sp       0
  14               	; saved regs:(none)
  15               		; start of prologue
  16               		; end of prologue
  17 0000 0018 C243 		MOVX.A	#0, &tx_active_buffer
  17      0000 
  18 0006 4018 F2D0 		BISX.B	#3, &UARTEvtMask
  18      0300 0000 
  19 000e 4018 1C42 		MOVX.W	&uart_mbox+16, R12
  19      0000 
  20 0014 4D43      		MOV.B	#0, R13
  21 0016 0D9C 0034 		CMP.W	R12, R13 { JGE	.L2
  22 001a 4018 A2D3 		BISX.W	#2, &events
  22      0000 
  23 0020 4018 82DD 		BISX.W	R13, &events+2
  23      0000 
  24               	.L2:
  25 0026 2C00 0000 		MOVA	&uart_thd, R12
  26 002a CC93 0400 		CMP.B	#0, 4(R12) { JEQ	.L1
  26      0024 
  27 0030 8D0F FEFF 		MOVA	#-2, R13
  28 0034 B013 0000 		CALLA	#chSchReadyI
  29               	.L1:
  30               		; start of epilogue
  31 0038 1001      		RETA
  32               		.size	send_complete_cb, .-send_complete_cb
  33               		.section	.text.elyUARTCfgMarkDirtyI,"ax",@progbits
  34               		.balign 2
  35               		.global	elyUARTCfgMarkDirtyI
  36               		.type	elyUARTCfgMarkDirtyI, @function
  37               	elyUARTCfgMarkDirtyI:
  38               	; start of function
  39               	; framesize_regs:     0
  40               	; framesize_locals:   0
  41               	; framesize_outgoing: 0
  42               	; framesize:          0
  43               	; elim ap -> fp       4
  44               	; elim fp -> sp       0
  45               	; saved regs:(none)
  46               		; start of prologue
  47               		; end of prologue
  48 0000 0018 D292 		CMPX.A	&uart_thd, &nil { JNE	.L5
  48      0000 0000 
  48      0020 
  49 000a 8C00 0000 		MOVA	#__func__.4768, R12
GAS LISTING /tmp/cce50xdz.s 			page 2


  50 000e B013 0000 		CALLA	#chSysHalt
  51               	.L5:
  52 0012 5D43      		MOV.B	#1, R13
  53 0014 4E43      		MOV.B	#0, R14
  54 0016 2C00 0000 		MOVA	&uart_thd, R12
  55 001a B013 0000 		CALLA	#chEvtSignalI
  56               		; start of epilogue
  57 001e 1001      		RETA
  58               		.size	elyUARTCfgMarkDirtyI, .-elyUARTCfgMarkDirtyI
  59               		.section	.text.elyUARTCfgMarkDirty,"ax",@progbits
  60               		.balign 2
  61               		.global	elyUARTCfgMarkDirty
  62               		.type	elyUARTCfgMarkDirty, @function
  63               	elyUARTCfgMarkDirty:
  64               	; start of function
  65               	; framesize_regs:     0
  66               	; framesize_locals:   0
  67               	; framesize_outgoing: 0
  68               	; framesize:          0
  69               	; elim ap -> fp       4
  70               	; elim fp -> sp       0
  71               	; saved regs:(none)
  72               		; start of prologue
  73               		; end of prologue
  74 0000 0018 D292 		CMPX.A	&uart_thd, &nil { JNE	.L7
  74      0000 0000 
  74      0020 
  75 000a 8C00 0000 		MOVA	#__func__.4771, R12
  76 000e B013 0000 		CALLA	#chSysHalt
  77               	.L7:
  78 0012 5D43      		MOV.B	#1, R13
  79 0014 4E43      		MOV.B	#0, R14
  80 0016 2C00 0000 		MOVA	&uart_thd, R12
  81 001a B013 0000 		CALLA	#chEvtSignal
  82               		; start of epilogue
  83 001e 1001      		RETA
  84               		.size	elyUARTCfgMarkDirty, .-elyUARTCfgMarkDirty
  85               		.section	.text.elyUARTPostI,"ax",@progbits
  86               		.balign 2
  87               		.global	elyUARTPostI
  88               		.type	elyUARTPostI, @function
  89               	elyUARTPostI:
  90               	; start of function
  91               	; framesize_regs:     4
  92               	; framesize_locals:   0
  93               	; framesize_outgoing: 0
  94               	; framesize:          4
  95               	; elim ap -> fp       8
  96               	; elim fp -> sp       0
  97               	; saved regs: R10
  98               		; start of prologue
  99 0000 0A14      		PUSHM.A	#1, R10
 100               		; end of prologue
 101 0002 CD0C      		MOVA	R12, R13
 102 0004 8C00 0000 		MOVA	#uart_mbox, R12
 103 0008 B013 0000 		CALLA	#chMBPostI
 104 000c CA0C      		MOVA	R12, R10
GAS LISTING /tmp/cce50xdz.s 			page 3


 105 000e 9C00 0000 		CMPA	#0, R12 { JNE	.L9
 105      0020 
 106 0014 6D43      		MOV.B	#2, R13
 107 0016 4E43      		MOV.B	#0, R14
 108 0018 2C00 0000 		MOVA	&uart_thd, R12
 109 001c B013 0000 		CALLA	#chEvtSignalI
 110               	.L8:
 111 0020 CC0A      		MOVA	R10, R12
 112               		; start of epilogue
 113 0022 0A16      		POPM.A	#1, r10
 114 0024 1001      		RETA
 115               	.L9:
 116 0026 8C00 0000 		MOVA	#__func__.4776, R12
 117 002a B013 0000 		CALLA	#chSysHalt
 118 002e 8000 0000 		BRA	#.L8
 119               		.size	elyUARTPostI, .-elyUARTPostI
 120               		.section	.text.elyUARTPost,"ax",@progbits
 121               		.balign 2
 122               		.global	elyUARTPost
 123               		.type	elyUARTPost, @function
 124               	elyUARTPost:
 125               	; start of function
 126               	; framesize_regs:     4
 127               	; framesize_locals:   0
 128               	; framesize_outgoing: 0
 129               	; framesize:          4
 130               	; elim ap -> fp       8
 131               	; elim fp -> sp       0
 132               	; saved regs: R10
 133               		; start of prologue
 134 0000 0A14      		PUSHM.A	#1, R10
 135               		; end of prologue
 136               	 ; 347 "../ChibiOS-Contrib/os/common/ports/MSP430X/chcore.h" 1
 137 0002 32C2 0343 		dint { nop
 138               	 ; 0 "" 2
 139               	 ; 348 "../ChibiOS-Contrib/os/common/ports/MSP430X/chcore.h" 1
 140 0006 0343      		nop
 141               	 ; 0 "" 2
 142 0008 0E4D      		MOV.W	R13, R14
 143 000a CD0C      		MOVA	R12, R13
 144 000c 8C00 0000 		MOVA	#uart_mbox, R12
 145 0010 B013 0000 		CALLA	#chMBPostS
 146 0014 CA0C      		MOVA	R12, R10
 147 0016 6D43      		MOV.B	#2, R13
 148 0018 4E43      		MOV.B	#0, R14
 149 001a 2C00 0000 		MOVA	&uart_thd, R12
 150 001e B013 0000 		CALLA	#chEvtSignalI
 151               	 ; 355 "../ChibiOS-Contrib/os/common/ports/MSP430X/chcore.h" 1
 152 0022 0343      		nop
 153               	 ; 0 "" 2
 154               	 ; 356 "../ChibiOS-Contrib/os/common/ports/MSP430X/chcore.h" 1
 155 0024 0343 32D2 		nop { eint { nop
 155      0343 
 156               	 ; 0 "" 2
 157 002a CC0A      		MOVA	R10, R12
 158               		; start of epilogue
 159 002c 0A16      		POPM.A	#1, r10
GAS LISTING /tmp/cce50xdz.s 			page 4


 160 002e 1001      		RETA
 161               		.size	elyUARTPost, .-elyUARTPost
 162               		.section	.text.elyUARTRxBufReadyI,"ax",@progbits
 163               		.balign 2
 164               		.global	elyUARTRxBufReadyI
 165               		.type	elyUARTRxBufReadyI, @function
 166               	elyUARTRxBufReadyI:
 167               	; start of function
 168               	; framesize_regs:     0
 169               	; framesize_locals:   0
 170               	; framesize_outgoing: 0
 171               	; framesize:          0
 172               	; elim ap -> fp       4
 173               	; elim fp -> sp       0
 174               	; saved regs:(none)
 175               		; start of prologue
 176               		; end of prologue
 177 0000 6D42      		MOV.B	#4, R13
 178 0002 4E43      		MOV.B	#0, R14
 179 0004 2C00 0000 		MOVA	&uart_thd, R12
 180 0008 B013 0000 		CALLA	#chEvtSignalI
 181               		; start of epilogue
 182 000c 1001      		RETA
 183               		.size	elyUARTRxBufReadyI, .-elyUARTRxBufReadyI
 184               		.section	.text.UARTThd,"ax",@progbits
 185               		.balign 2
 186               		.global	UARTThd
 187               		.type	UARTThd, @function
 188               	UARTThd:
 189               	; start of function
 190               	; framesize_regs:     12
 191               	; framesize_locals:   0
 192               	; framesize_outgoing: 0
 193               	; framesize:          12
 194               	; elim ap -> fp       16
 195               	; elim fp -> sp       0
 196               	; saved regs: R6 R8 R10
 197               		; start of prologue
 198 0000 0A14      		PUSHM.A	#1, R10
 199 0002 0814      		PUSHM.A	#1, R8
 200 0004 0614      		PUSHM.A	#1, R6
 201               		; end of prologue
 202 0006 0018 D242 		MOVX.A	&nil, &uart_thd
 202      0000 0000 
 203 000e 4018 F240 		MOVX.B	#7, &UARTEvtMask
 203      0700 0000 
 204               	 ; 347 "../ChibiOS-Contrib/os/common/ports/MSP430X/chcore.h" 1
 205 0016 32C2 0343 		dint { nop
 206               	 ; 0 "" 2
 207               	 ; 348 "../ChibiOS-Contrib/os/common/ports/MSP430X/chcore.h" 1
 208 001a 0343      		nop
 209               	 ; 0 "" 2
 210 001c 0018 C293 		CMPX.A	#0, &tx_active_buffer { JNE	.L14
 210      0000 0020 
 211 0024 4018 1C42 		MOVX.W	&uart_mbox+16, R12
 211      0000 
 212 002a 4D43      		MOV.B	#0, R13
GAS LISTING /tmp/cce50xdz.s 			page 5


 213 002c 0D9C 0034 		CMP.W	R12, R13 { JGE	.L15
 214               	.L14:
 215 0030 4018 A2D3 		BISX.W	#2, &events
 215      0000 
 216 0036 4018 82D3 		BISX.W	#0, &events+2
 216      0000 
 217               	.L15:
 218               	 ; 355 "../ChibiOS-Contrib/os/common/ports/MSP430X/chcore.h" 1
 219 003c 0343      		nop
 220               	 ; 0 "" 2
 221               	 ; 356 "../ChibiOS-Contrib/os/common/ports/MSP430X/chcore.h" 1
 222 003e 0343 32D2 		nop { eint { nop
 222      0343 
 223               	 ; 0 "" 2
 224 0044 4018 92D3 		BISX.W	#1, &events
 224      0000 
 225 004a 4018 82D3 		BISX.W	#0, &events+2
 225      0000 
 226 0050 8D00 0000 		MOVA	#uart_timer_cfg, R13
 227 0054 8C00 0000 		MOVA	#GPTDA1, R12
 228 0058 B013 0000 		CALLA	#gptStart
 229 005c 8C00 0000 		MOVA	#UARTDA1, R12
 230 0060 B013 0000 		CALLA	#elyUARTDLLRxInit
 231 0064 2A00 0000 		MOVA	&bank0p, R10
 232 0068 8600 0000 		MOVA	#A1_cfg+24, R6
 233 006c 8800 0000 		MOVA	#A1_cfg, R8
 234               	.L16:
 235 0070 4018 D2B3 		BITX.B	#1, &events { JEQ	.L17
 235      0000 0024 
 236               	 ; 347 "../ChibiOS-Contrib/os/common/ports/MSP430X/chcore.h" 1
 237 0078 32C2 0343 		dint { nop
 238               	 ; 0 "" 2
 239               	 ; 348 "../ChibiOS-Contrib/os/common/ports/MSP430X/chcore.h" 1
 240 007c 0343      		nop
 241               	 ; 0 "" 2
 242 007e 5C4A 2600 		MOV.B	38(R10), R12
 243 0082 4F4C      		MOV.B	R12, R15
 244 0084 7FF0 0300 		AND.B	#3, R15
 245 0088 6D46      		MOV.B	@R6, R13
 246 008a 7DF0 ECFF 		AND.B	#-20, R13
 247 008e 0E4C      		MOV.W	R12, R14
 248 0090 5E07      		rrum.w	#2, R14
 249 0092 5EF3      		AND.B	#1, R14
 250 0094 4318 0E5E 		rpt	#4 { rlax.w	R14
 251 0098 4DDF      		BIS.B	R15, R13
 252 009a 4DDE      		BIS.B	R14, R13
 253 009c 5C0B      		rrum.w	#3, R12
 254 009e 5CF3      		AND.B	#1, R12
 255 00a0 4418 0C5C 		rpt	#5 { rlax.w	R12
 256 00a4 7DF0 DFFF 		AND.B	#-33, R13
 257 00a8 4DDC      		BIS.B	R12, R13
 258 00aa C64D 0000 		MOV.B	R13, @R6
 259 00ae 5D4A 2300 		MOV.B	35(R10), R13
 260 00b2 4718 0D5D 		rpt	#8 { rlax.w	R13
 261 00b6 5C4A 2500 		MOV.B	37(R10), R12
 262 00ba 4718 0C5C 		rpt	#8 { rlax.w	R12
 263 00be 5E4A 2400 		MOV.B	36(R10), R14
GAS LISTING /tmp/cce50xdz.s 			page 6


 264 00c2 0CDE      		BIS.W	R14, R12
 265 00c4 5E4A 2200 		MOV.B	34(R10), R14
 266 00c8 0EDD      		BIS.W	R13, R14
 267 00ca 884E 1400 		MOV.W	R14, 20(R8)
 268 00ce 884C 1600 		MOV.W	R12, 22(R8)
 269               	 ; 355 "../ChibiOS-Contrib/os/common/ports/MSP430X/chcore.h" 1
 270 00d2 0343      		nop
 271               	 ; 0 "" 2
 272               	 ; 356 "../ChibiOS-Contrib/os/common/ports/MSP430X/chcore.h" 1
 273 00d4 0343 32D2 		nop { eint { nop
 273      0343 
 274               	 ; 0 "" 2
 275 00da 8D00 0000 		MOVA	#A1_cfg, R13
 276 00de 8C00 0000 		MOVA	#UARTDA1, R12
 277 00e2 B013 0000 		CALLA	#uartStart
 278 00e6 4018 92C3 		BICX.W	#1, &events
 278      0000 
 279 00ec 4018 82C3 		BICX.W	#0, &events+2
 279      0000 
 280               	.L17:
 281 00f2 4018 E2B3 		BITX.B	#2, &events { JEQ	.L19
 281      0000 0024 
 282 00fa 0018 C293 		CMPX.A	#0, &tx_active_buffer { JNE	.L21
 282      0000 0020 
 283               	 ; 347 "../ChibiOS-Contrib/os/common/ports/MSP430X/chcore.h" 1
 284 0102 32C2 0343 		dint { nop
 285               	 ; 0 "" 2
 286               	 ; 348 "../ChibiOS-Contrib/os/common/ports/MSP430X/chcore.h" 1
 287 0106 0343      		nop
 288               	 ; 0 "" 2
 289 0108 3E43      		MOV.W	#-1, R14
 290 010a 8D00 0000 		MOVA	#tx_active_buffer, R13
 291 010e 8C00 0000 		MOVA	#uart_mbox, R12
 292 0112 B013 0000 		CALLA	#chMBFetchS
 293 0116 9C00 0000 		CMPA	#0, R12 { JEQ	.L22
 293      0024 
 294 011c 4018 A2C3 		BICX.W	#2, &events
 294      0000 
 295 0122 4018 82C3 		BICX.W	#0, &events+2
 295      0000 
 296               	 ; 355 "../ChibiOS-Contrib/os/common/ports/MSP430X/chcore.h" 1
 297 0128 0343      		nop
 298               	 ; 0 "" 2
 299               	 ; 356 "../ChibiOS-Contrib/os/common/ports/MSP430X/chcore.h" 1
 300 012a 0343 32D2 		nop { eint { nop
 300      0343 
 301               	 ; 0 "" 2
 302 0130 8000 0000 		BRA	#.L16
 303               	.L22:
 304               	 ; 355 "../ChibiOS-Contrib/os/common/ports/MSP430X/chcore.h" 1
 305 0134 0343      		nop
 306               	 ; 0 "" 2
 307               	 ; 356 "../ChibiOS-Contrib/os/common/ports/MSP430X/chcore.h" 1
 308 0136 0343 32D2 		nop { eint { nop
 308      0343 
 309               	 ; 0 "" 2
 310               	.L21:
GAS LISTING /tmp/cce50xdz.s 			page 7


 311 013c 2D00 0000 		MOVA	&tx_active_buffer, R13
 312 0140 8C00 0000 		MOVA	#UARTDA1, R12
 313 0144 B013 0000 		CALLA	#elyUARTDLLStartTx
 314 0148 C01F F2F0 		ANDX.B	#-4, &UARTEvtMask
 314      FCFF 0000 
 315 0150 4018 A2C3 		BICX.W	#2, &events
 315      0000 
 316 0156 4018 82C3 		BICX.W	#0, &events+2
 316      0000 
 317               	.L19:
 318 015c 4018 E2B2 		BITX.B	#4, &events { JEQ	.L24
 318      0000 0024 
 319 0164 B013 0000 		CALLA	#elyUARTDLLRxHandleBuffer
 320 0168 4018 A2C2 		BICX.W	#4, &events
 320      0000 
 321 016e 4018 82C3 		BICX.W	#0, &events+2
 321      0000 
 322               	.L24:
 323 0174 4E43      		MOV.B	#0, R14
 324 0176 5C42 0000 		MOV.B	&UARTEvtMask,R12 { CLR	R13
 324      0D43 
 325 017c B013 0000 		CALLA	#chEvtWaitAnyTimeout
 326 0180 4018 82DC 		BISX.W	R12, &events
 326      0000 
 327 0186 4018 82DD 		BISX.W	R13, &events+2
 327      0000 
 328 018c 8000 0000 		BRA	#.L16
 329               		.size	UARTThd, .-UARTThd
 330               		.section	.upper.rodata,"a",@progbits
 331               		.type	__func__.4776, @object
 332               		.size	__func__.4776, 13
 333               	__func__.4776:
 334 0000 656C 7955 		.string	"elyUARTPostI"
 334      4152 5450 
 334      6F73 7449 
 334      00
 335               		.type	__func__.4771, @object
 336               		.size	__func__.4771, 20
 337               	__func__.4771:
 338 000d 656C 7955 		.string	"elyUARTCfgMarkDirty"
 338      4152 5443 
 338      6667 4D61 
 338      726B 4469 
 338      7274 7900 
 339               		.type	__func__.4768, @object
 340               		.size	__func__.4768, 21
 341               	__func__.4768:
 342 0021 656C 7955 		.string	"elyUARTCfgMarkDirtyI"
 342      4152 5443 
 342      6667 4D61 
 342      726B 4469 
 342      7274 7949 
 343               		.global	waUARTThd
 344               		.section	.upper.bss,"aw",@nobits
 345               		.balign 2
 346               		.type	waUARTThd, @object
 347               		.size	waUARTThd, 320
GAS LISTING /tmp/cce50xdz.s 			page 8


 348               	waUARTThd:
 349 0000 0000 0000 		.zero	320
 349      0000 0000 
 349      0000 0000 
 349      0000 0000 
 349      0000 0000 
 350               		.section	.upper.rodata
 351               		.balign 2
 352               		.type	uart_timer_cfg, @object
 353               		.size	uart_timer_cfg, 8
 354               	uart_timer_cfg:
 355 0036 E803 0000 		.long	1000
 356 003a 0000 0000 		.long	elyUARTDLLTimeoutCB
 357               		.global	A1_cfg
 358               		.section	.persistent,"aw"
 359               		.balign 2
 360               		.type	A1_cfg, @object
 361               		.size	A1_cfg, 26
 362               	A1_cfg:
 363 0000 0000 0000 		.long	elyUARTDLLTxCB
 364 0004 0000 0000 		.long	send_complete_cb
 365 0008 0000 0000 		.long	elyUARTDLLRxCB
 366 000c 0000 0000 		.long	elyUARTDLLRxCharCB
 367 0010 0000 0000 		.long	0
 368 0014 00C2 0100 		.long	115200
 369 0018 00        		.byte	0
 370 0019 88        		.byte	136
 371               		.local	uart_thd
 372               		.comm	uart_thd,4,2
 373               		.local	events
 374               		.comm	events,4,2
 375               		.local	UARTEvtMask
 376               		.comm	UARTEvtMask,1,1
 377               		.balign 2
 378               		.type	tx_active_buffer, @object
 379               		.size	tx_active_buffer, 4
 380               	tx_active_buffer:
 381 001a 0000 0000 		.zero	4
 382               		.balign 2
 383               		.type	uart_mbox, @object
 384               		.size	uart_mbox, 20
 385               	uart_mbox:
 386 001e 0000 0000 		.long	uart_buffer
 387 0022 0000 0000 		.long	uart_buffer+48
 388 0026 0000 0000 		.long	uart_buffer
 389 002a 0000 0000 		.long	uart_buffer
 390 002e 0000      		.short	0
 391 0030 0C00      		.short	12
 392               		.balign 2
 393               		.type	uart_buffer, @object
 394               		.size	uart_buffer, 48
 395               	uart_buffer:
 396 0032 0000 0000 		.zero	48
 396      0000 0000 
 396      0000 0000 
 396      0000 0000 
 396      0000 0000 
GAS LISTING /tmp/cce50xdz.s 			page 9


 397               		.ident	"GCC: (SOMNIUM Technologies Limited - msp430-gcc 6.2.1.16) 6.2.1 20161212"
GAS LISTING /tmp/cce50xdz.s 			page 10


DEFINED SYMBOLS
                            *ABS*:0000000000000000 uart.c
     /tmp/cce50xdz.s:6      .text.send_complete_cb:0000000000000000 send_complete_cb
     /tmp/cce50xdz.s:380    .persistent:000000000000001a tx_active_buffer
     /tmp/cce50xdz.s:374    .bss:0000000000000008 UARTEvtMask
     /tmp/cce50xdz.s:385    .persistent:000000000000001e uart_mbox
     /tmp/cce50xdz.s:374    .bss:0000000000000004 events
     /tmp/cce50xdz.s:372    .bss:0000000000000000 uart_thd
     /tmp/cce50xdz.s:37     .text.elyUARTCfgMarkDirtyI:0000000000000000 elyUARTCfgMarkDirtyI
     /tmp/cce50xdz.s:341    .upper.rodata:0000000000000021 __func__.4768
     /tmp/cce50xdz.s:63     .text.elyUARTCfgMarkDirty:0000000000000000 elyUARTCfgMarkDirty
     /tmp/cce50xdz.s:337    .upper.rodata:000000000000000d __func__.4771
     /tmp/cce50xdz.s:89     .text.elyUARTPostI:0000000000000000 elyUARTPostI
     /tmp/cce50xdz.s:333    .upper.rodata:0000000000000000 __func__.4776
     /tmp/cce50xdz.s:124    .text.elyUARTPost:0000000000000000 elyUARTPost
     /tmp/cce50xdz.s:166    .text.elyUARTRxBufReadyI:0000000000000000 elyUARTRxBufReadyI
     /tmp/cce50xdz.s:188    .text.UARTThd:0000000000000000 UARTThd
     /tmp/cce50xdz.s:354    .upper.rodata:0000000000000036 uart_timer_cfg
     /tmp/cce50xdz.s:362    .persistent:0000000000000000 A1_cfg
     /tmp/cce50xdz.s:348    .upper.bss:0000000000000000 waUARTThd
     /tmp/cce50xdz.s:395    .persistent:0000000000000032 uart_buffer
     /tmp/cce50xdz.s:24     .text.send_complete_cb:0000000000000026 .L2
     /tmp/cce50xdz.s:29     .text.send_complete_cb:0000000000000038 .L1
     /tmp/cce50xdz.s:51     .text.elyUARTCfgMarkDirtyI:0000000000000012 .L5
     /tmp/cce50xdz.s:77     .text.elyUARTCfgMarkDirty:0000000000000012 .L7
     /tmp/cce50xdz.s:115    .text.elyUARTPostI:0000000000000026 .L9
     /tmp/cce50xdz.s:110    .text.elyUARTPostI:0000000000000020 .L8
     /tmp/cce50xdz.s:214    .text.UARTThd:0000000000000030 .L14
     /tmp/cce50xdz.s:217    .text.UARTThd:000000000000003c .L15
     /tmp/cce50xdz.s:280    .text.UARTThd:00000000000000f2 .L17
     /tmp/cce50xdz.s:317    .text.UARTThd:000000000000015c .L19
     /tmp/cce50xdz.s:310    .text.UARTThd:000000000000013c .L21
     /tmp/cce50xdz.s:303    .text.UARTThd:0000000000000134 .L22
     /tmp/cce50xdz.s:234    .text.UARTThd:0000000000000070 .L16
     /tmp/cce50xdz.s:322    .text.UARTThd:0000000000000174 .L24

UNDEFINED SYMBOLS
chSchReadyI
nil
chSysHalt
chEvtSignalI
chEvtSignal
chMBPostI
chMBPostS
GPTDA1
gptStart
UARTDA1
elyUARTDLLRxInit
bank0p
uartStart
chMBFetchS
elyUARTDLLStartTx
elyUARTDLLRxHandleBuffer
chEvtWaitAnyTimeout
__crt0_init_highbss
elyUARTDLLTimeoutCB
elyUARTDLLTxCB
GAS LISTING /tmp/cce50xdz.s 			page 11


elyUARTDLLRxCB
elyUARTDLLRxCharCB
__crt0_init_bss
