ARM GAS  /tmp/ccVf3EPN.s 			page 1


   1              		.cpu cortex-m0
   2              		.fpu softvfp
   3              		.eabi_attribute 20, 1
   4              		.eabi_attribute 21, 1
   5              		.eabi_attribute 23, 3
   6              		.eabi_attribute 24, 1
   7              		.eabi_attribute 25, 1
   8              		.eabi_attribute 26, 1
   9              		.eabi_attribute 30, 2
  10              		.eabi_attribute 34, 0
  11              		.eabi_attribute 18, 4
  12              		.code	16
  13              		.file	"ch_test.c"
  14              		.text
  15              	.Ltext0:
  16              		.section	.gnu.lto_.jmpfuncs.f70c133ce5f8cb68,"",%progbits
  17 0000 789CB591 		.ascii	"x\234\265\221MO\302@\020\206gZ\004D\371R\224\350a3\361"
  17      4D4FC240 
  17      1086675A 
  17      0444F952 
  17      94E86133 
  18 0015 06A6DA82 		.ascii	"\006\246\332\202\037\204\223\206@b\202\232P4\336\214"
  18      1F849386 
  18      4062829A 
  18      5034DE8C 
  19 0025 D64DDCA4 		.ascii	"\326M\334\244\201\204\026\243\361 w\177\200\\<y\361"
  19      818416A3 
  19      F120777F 
  19      805C3C79 
  19      F1
  20 0036 7778F237 		.ascii	"wx\3627y\262lA\260\361#\036l\266;;\357\363Nv2\253\200"
  20      79B26C41 
  20      B0F1231E 
  20      6CB63B3B 
  20      EFF34E76 
  21 004d 025F7D0F 		.ascii	"\002_}\017\236\374\342\305\004\370\206;\200\020\016"
  21      9EFCE2C5 
  21      04F8863B 
  21      80100E
  22 005c 76F90385 		.ascii	"v\371\003\205\303\240z\350\026\336z\375^J 0\300\307"
  22      C3A07AE8 
  22      16DE7AFD 
  22      5E4A2030 
  22      C0C7
  23 006e 5E7F4720 		.ascii	"^\177G \312z\345\004\005*\212\264+\303T\325d\032\031"
  23      CA7AE504 
  23      052A8AB4 
  23      2BC354D5 
  23      641A19
  24 0081 0BBA14A2 		.ascii	"\013\272\024\2428\243\316\252\361H\002?\356J\342\350"
  24      38A3CEAA 
  24      F148023F 
  24      EE4AE2E8 
  25 0091 94C2BFDC 		.ascii	"\224\302\277\334#c\032\347p\036q\\\024b0\345\027M\311"
  25      23631AE7 
  25      701E715C 
  25      146230E5 
ARM GAS  /tmp/ccVf3EPN.s 			page 2


  25      174DC9
  26 00a4 A2CF28F1 		.ascii	"\242\317(\361\015\0123\310\372(\002A\026e\260\344\263"
  26      0D0A33C8 
  26      FA280241 
  26      1665B0E4 
  26      B3
  27 00b5 E920F23A 		.ascii	"\351 \362:\\\233\354\020\320_\262\323\330+~2\3170(\370"
  27      5C9BEC10 
  27      D05FB2D3 
  27      D82B7E32 
  27      CF3028F8 
  28 00c9 E6D909EF 		.ascii	"\346\331\011\357O]L\2408\203M\037%\202(\311\340\324"
  28      4F5D4CA0 
  28      38834D1F 
  28      258228C9 
  28      E0D4
  29 00db 47A9204A 		.ascii	"G\251 J3\270\037\216p.\310\346\031<\015Y&\310\026\030"
  29      33B81F8E 
  29      702EC8E6 
  29      193C0D59 
  29      26C81618 
  30 00ef 3C0FD9E2 		.ascii	"<\017\331\342o\243\032\275\304\177EP\3431\210\232G\225"
  30      6FA31ABD 
  30      C47F4550 
  30      E331889A 
  30      4795
  31 0101 4AD53421 		.ascii	"J\3254!Z\333\335\253\0375\252\336\3502\232\246Q\203"
  31      5ADBDDAB 
  31      1F35AADE 
  31      E8329AA6 
  31      5183
  32 0113 3B5DDB2D 		.ascii	";]\333-\323\210\253+9Pr\2203\233\373\302\352\264\271"
  32      D388AB2B 
  32      39507290 
  32      339BFBC2 
  32      EAB4B9
  33 0126 CD2DB7D3 		.ascii	"\315-\267\323n\011\313!O*\026\350\240k\331\274\275\265"
  33      6E09CB21 
  33      4F2A16E8 
  33      A06BD9BC 
  33      BDB5
  34 0138 A1D5F4A2 		.ascii	"\241\325\364\242\336(\301\252\224\007\311u\211\252-"
  34      DE28C1AA 
  34      9407C975 
  34      89AA2D
  35 0147 B7734375 		.ascii	"\267sCu~\305m:>\263\273\234\352\242\305\351\202_\011"
  35      7EC56D3A 
  35      3EB3BB9C 
  35      EAA2C5E9 
  35      825F09
  36 015a 8B3B90DD 		.ascii	"\213;\220\335?\273\241\242A\005\335\330\"\215\014\243"
  36      3FBBA1A2 
  36      4105DDD8 
  36      228D0CA3 
  37 016a 6C6C9737 		.ascii	"ll\2277t\010\345\363yX\3666\252\\\212sqh\2567\232\324"
  37      7408E5F3 
  37      7958F636 
ARM GAS  /tmp/ccVf3EPN.s 			page 3


  37      AA5C8A73 
  37      7168AE37 
  38 0180 E48E4B66 		.ascii	"\344\216KfW\270\034\336\001\265\220\244V"
  38      57B81CDE 
  38      01B590A4 
  38      56
  39              		.text
  40              		.section	.gnu.lto_.inline.f70c133ce5f8cb68,"",%progbits
  41 0000 789CAD51 		.ascii	"x\234\255Q\273N\303@\020\234[\333g;v\354K\200<\244H"
  41      BB4EC340 
  41      109C5BDB 
  41      673B76EC 
  41      4B803CA4 
  42 0015 A1822EA2 		.ascii	"\241\202.\242\344\037\220\\#\361\001\004\276\002Q!\001"
  42      E41F905C 
  42      23F10104 
  42      BE025121 
  42      01
  43 0026 927B2494 		.ascii	"\222{$\224\202\236\037\240\241E\024\210\212\202\"\212"
  43      829E1FA0 
  43      A1451488 
  43      8A82228A 
  44 0036 28406952 		.ascii	"(@iR\244\200\006\261wq\016+$\035.\326\243\231\275\235"
  44      A48006B1 
  44      77710E2B 
  44      241D2ED6 
  44      A399BD9D 
  45 004a B93D0261 		.ascii	"\271=\002a\3317,\350\004P\247$@jx]\201\034t\015\357"
  45      D9372CE8 
  45      0450A724 
  45      406A785D 
  45      811C740D 
  46 005f D598C9B3 		.ascii	"\325\230\311\263<s\261\261#\034\364\367\305\221h\002"
  46      3C73B1B1 
  46      231CF4F7 
  46      C5916802 
  47 006f CE260E7F 		.ascii	"\316&\016\177\241\320\325\255\344\031\202I\217 \336"
  47      A1D0D5AD 
  47      E4198249 
  47      8F20DE
  48 007e 7D45F0CE 		.ascii	"}E\360\316\266\225\036\341\244\245\342\002\022\315q"
  48      B6951EE1 
  48      A4A5E202 
  48      12CD71
  49 008d 95A7D6A7 		.ascii	"\225\247\326\247W\273\326G\326Y\346\363sC\370*j0\222"
  49      57BBD647 
  49      D659E6F3 
  49      7343F82A 
  49      6A3092
  50 00a0 935E290B 		.ascii	"\223^)\013\214\024@z\013R\204@r:\023\251\245\211\276"
  50      8C14407A 
  50      0B528440 
  50      723A13A9 
  50      A589BE
  51 00b3 459C4DBB 		.ascii	"E\234M\273\316Z\335AWA>v4\201\030\215\017\226i\353\373"
  51      CE5ADD41 
  51      57413E76 
ARM GAS  /tmp/ccVf3EPN.s 			page 4


  51      3481188D 
  51      0F9669EB 
  52 00c8 21B693AA 		.ascii	"!\266\223\252\210BAB\314\217:\311\305\301L\244\2474"
  52      88424142 
  52      CC8F3AC9 
  52      C5C14CA4 
  52      A734
  53 00da 368B526D 		.ascii	"6\213Rm\336Sa\326\266f\355\345f\235\233\363$0RE+|\275"
  53      DE5361D6 
  53      B666EDE5 
  53      669D9BF3 
  53      24305245 
  54 00f1 60B6D014 		.ascii	"`\266\320\024\351'\333P2:\011\377\256[\241u\251\037"
  54      E927DB50 
  54      323A09FF 
  54      AE5BA175 
  54      A91F
  55 0103 63FDF936 		.ascii	"c\375\3716\\\271\244<\253\351\264\374d\257\307\266\251"
  55      5CB9A43C 
  55      ABE9B4FC 
  55      64AFC7B6 
  55      A9
  56 0114 8ED0672A 		.ascii	"\216\320g*\276\333\263\324\032^\304\327T\233\275\211"
  56      BEDBB3D4 
  56      1A5EC4D7 
  56      549BBD89 
  57 0124 C9F8DEB7 		.ascii	"\311\370\336\267\002E:r\271rJM\223!\310\020T\020yV\376"
  57      02453A72 
  57      B9724A4D 
  57      9321C810 
  57      54107956 
  58 0139 959BAC52 		.ascii	"\225\233\254R4/\016]U\3555\274\232\363O@\254\002\370"
  58      342F0E5D 
  58      55ED35BC 
  58      9AF34F40 
  58      AC02F8
  59 014c 0126205D 		.ascii	"\001& ]\033"
  59      1B
  60              		.text
  61              		.section	.gnu.lto_.pureconst.f70c133ce5f8cb68,"",%progbits
  62 0000 789C6362 		.ascii	"x\234cb`b\220e\200\000>\006K\026I6IvI\016\011n\011\036"
  62      60629065 
  62      80003E06 
  62      4B164936 
  62      4976490E 
  63 0018 4B5E293E 		.ascii	"K^)>K~K\001KA+!)aK\000*\005\003\017"
  63      4B7E4B01 
  63      4B412B21 
  63      29614B00 
  63      2A05030F 
  64              		.text
  65              		.section	.gnu.lto_print_tokens.f70c133ce5f8cb68,"",%progbits
  66 0000 789C8D92 		.ascii	"x\234\215\222\301k\023Q\020\306\347{o\337\356\246IQ"
  66      C16B1351 
  66      10C6E77B 
  66      6FDFEEA6 
  66      4951
ARM GAS  /tmp/ccVf3EPN.s 			page 5


  67 0012 C14B41B0 		.ascii	"\301KA\260\324\213\030\330P\275\250\320\377\242\005"
  67      D48B18D8 
  67      50BDA8D0 
  67      FFA205
  68 0021 F552DA45 		.ascii	"\365R\332E\322E\203\001s\363\320\227\030D\264h\360$"
  68      D2458301 
  68      73F3D097 
  68      1844B468 
  68      F024
  69 0033 E6D09622 		.ascii	"\346\320\226\"\212\010\"\275\210\247\010Z\315A\305\233"
  69      8A0822BD 
  69      88A7085A 
  69      CD41C59B 
  70 0043 DE8260F0 		.ascii	"\336\202`\360\340_\340\3018\223\267\273\246^\364\221"
  70      E05FE0C1 
  70      3893B7BB 
  70      A65EF491 
  71 0053 BC99DD9D 		.ascii	"\274\231\335\235\3377\363\276]E\212\376^\013\3747\232"
  71      DF37F3BE 
  71      5D458AFE 
  71      5E0BFC37 
  71      9A
  72 0064 E82C47F8 		.ascii	"\350,G\370\004\325\371@\324\014\025<\227h\227\274\012"
  72      04D5F940 
  72      D40C153C 
  72      976897BC 
  72      0A
  73 0075 3DA537DE 		.ascii	"=\2457\336\022\331)\323\016\310\226\014 \367\011\264"
  73      12D929D3 
  73      0EC8960C 
  73      20F709B4 
  74 0085 AEB467B0 		.ascii	"\256\264g\260~\036\"\247\347h\333\332{\2037\303\307"
  74      7E1E22A7 
  74      E768DBDA 
  74      7B8337C3 
  74      C7
  75 0096 33B7B65A 		.ascii	"3\267\266Z\035\373k4B\002n|\024\024\203\316\361\005"
  75      1DFB6B34 
  75      42026E7C 
  75      141483CE 
  75      F105
  76 00a8 66C74179 		.ascii	"f\307Ay\373'qdow\357\316$\251\025\225\377\223\334\334"
  76      FB277164 
  76      6F77EFCE 
  76      24A91595 
  76      FF93DCDC 
  77 00bc DB98B1FB 		.ascii	"\333\230\261\373\310\323\377\"\237\251\336`4\372\361"
  77      C8D3FF22 
  77      9FA9DE60 
  77      34FAF1
  78 00cb 7CEB6B17 		.ascii	"|\353k\027\207\212\240\025<\304\034y\034w8\032\216\333"
  78      878AA015 
  78      3CC41C79 
  78      1C77381A 
  78      8EDB
  79 00dd 1C7D4AE0 		.ascii	"\034}J\340\005\274\2310\255(\360\205/\316Q\333\332\316"
  79      05BC9930 
ARM GAS  /tmp/ccVf3EPN.s 			page 6


  79      AD28F085 
  79      2FCE51DB 
  79      DACE
  80 00ef ACBB49D2 		.ascii	"\254\273I\322\214\327\"\357\354\321\022\024\007\335"
  80      8CD722EF 
  80      ECD11214 
  80      07DD
  81 00fd A7D6E0EE 		.ascii	"\247\326\340\356\216\277\202G0)}\215~\332\233\326.$"
  81      8EBF8247 
  81      30297D8D 
  81      7EDA9BD6 
  81      2E24
  82 010f 086AF833 		.ascii	"\010j\3703\314\0224\261\305\372=\265\372\237\207\307"
  82      CC1234B1 
  82      C5FA3DB5 
  82      FA9F87C7 
  83 011f 1D5185E9 		.ascii	"\035Q\205\351\322\203\246\265\007\331E\007r\026\326"
  83      D283A6B5 
  83      07D94507 
  83      7216D6
  84 012e 20A01C29 		.ascii	" \240\034)Li\246.d\210_\246\023<2\203\\P`\011)te\253"
  84      4C69A62E 
  84      64885FA6 
  84      133C3283 
  84      5C506009 
  85 0146 79C34920 		.ascii	"y\303I (\323\023\321\235rH\221%\004\361R\0049r\375\266"
  85      28D313D1 
  85      9D724891 
  85      2504F152 
  85      043972FD 
  86 015b CE98B00A 		.ascii	"\316\230\260\012\214=\225\247}R\223'\254\312X\334\340"
  86      8C3D95A7 
  86      7D529327 
  86      ACCA58DC 
  86      E0
  87 016c A5C9AA0B 		.ascii	"\245\311\252\013N\331O!\235*~\244\264\202d\012\331\014"
  87      4ED94F21 
  87      9D2A7EA4 
  87      B482640A 
  87      D90C
  88 017e D7262865 		.ascii	"\327&(e\226x\304\237\231\230\310\202\2316\306\332\375"
  88      9678C49F 
  88      9998C882 
  88      9936C6DA 
  88      FD
  89 018f 17C3EFC8 		.ascii	"\027\303\357\310\344\275\334$\235\2334]\203JM\232N\333"
  89      E4BDDC24 
  89      9D9B345D 
  89      834A4D9A 
  89      4EDB
  90 01a1 BDA3D7DF 		.ascii	"\275\243\327\337\232\2472\010U\344\337\303\027\202\003"
  90      9AA73208 
  90      55E4DFC3 
  90      178203
  91 01b0 7B9B370E 		.ascii	"{\2337\016\344/F\335\327|\024\375t\367\260\314b\344"
  91      E42F46DD 
  91      D77C14FD 
ARM GAS  /tmp/ccVf3EPN.s 			page 7


  91      74F7B0CC 
  91      62E4
  92 01c2 7D7EA2E6 		.ascii	"}~\242\346\240{,\033\332\255E\036\251\035H\263#QTq\277"
  92      A07B2C1B 
  92      DAAD451E 
  92      A91D48B3 
  92      23515471 
  93 01d7 C6C5AB8D 		.ascii	"\306\305\253\215\312\345d\265\022\257-K\036\305T\224"
  93      CAE564B5 
  93      12AF2D4B 
  93      1EC55494 
  94 01e7 B81CAFD5 		.ascii	"\270\034\257\325\243\3713\245q\336\270r\251\036\235"
  94      A3F933A5 
  94      71DEB872 
  94      A91E9D
  95 01f6 9C5771FD 		.ascii	"\234Wq\3757\016!\274\213"
  95      370E21BC 
  95      8B
  96              		.text
  97              		.section	.gnu.lto_execute_test.f70c133ce5f8cb68,"",%progbits
  98 0000 789C7D51 		.ascii	"x\234}Q;O\002A\020\236\331\273\333\343\241\206\316F"
  98      3B4F0241 
  98      109ED9BB 
  98      DBE3A186 
  98      CE46
  99 0012 C5C4D204 		.ascii	"\305\304\322\004\254\350\370\005\266\220h\243\001b\220"
  99      ACE8F805 
  99      B69068A3 
  99      016290
 100 0021 C4ABA4B3 		.ascii	"\304\253\244\263`\021\012\013L\250,\2442t\306Hcq\261"
 100      60110A0B 
 100      4CA82CA4 
 100      3274C648 
 100      6371B1
 101 0034 2231112D 		.ascii	"\"1\021-|u\206\212\304\016lM\014\015\316\356r\207\032"
 101      7C75868A 
 101      C40E6C4D 
 101      0C0DCEEE 
 101      72871A
 102 0047 C2E46E76 		.ascii	"\302\344nvn\366\373\276y\034\003\006\377m\223\336\035"
 102      6EF6FBBE 
 102      791C0306 
 102      FF6D93DE 
 102      1D
 103 0058 4AAFD089 		.ascii	"J\257\320\2116 \253?\003\224\003\214\031\235\004\210"
 103      3620AB3F 
 103      0394038C 
 103      199D0488 
 104 0068 90F9B808 		.ascii	"\220\371\270\010b\316@S\247Mf5\222\224\346_\021J[\310"
 104      62CE4053 
 104      A74D6635 
 104      9294E65F 
 104      114A5BC8 
 105 007c 759A23CA 		.ascii	"u\232#\312\000\020J\3140-\216\245mT\352-\326\356\215"
 105      00104ACC 
 105      302D8EA5 
 105      6D54EA2D 
ARM GAS  /tmp/ccVf3EPN.s 			page 8


 105      D6EE8D
 106 008f 46D7B7F7 		.ascii	"F\327\267\36775l\260\005\216\016\202\015\005\204\240"
 106      37356CB0 
 106      058E0E82 
 106      0D0584A0 
 107 009f 7461E9C8 		.ascii	"ta\351\310,\250\012Q_\005\310\251\317\024y)\227F&O\343"
 107      2CA80A51 
 107      5F05C8A9 
 107      CF147929 
 107      9746264F 
 108 00b4 098E8795 		.ascii	"\011\216\207\225Vm\331\207\351@4O\243\000\031\274@\213"
 108      566DD987 
 108      E940344F 
 108      A30019BC 
 108      408B
 109 00c6 888AD980 		.ascii	"\210\212\331\200\363\262\020\221\002\342\021\014\305"
 109      F3B21091 
 109      02E2110C 
 109      C5
 110 00d3 898C98A3 		.ascii	"\211\214\230\243\256\266\220B\325\222\276i\237\361\002"
 110      AEB69042 
 110      D592BE69 
 110      9FF102
 111 00e2 1A0EB20C 		.ascii	"\032\016\262\0146\211OFU\\\267\377\316\264\240\257d"
 111      36894F46 
 111      555CB7FF 
 111      CEB4A0AF 
 111      64
 112 00f3 FA4A9683 		.ascii	"\372J\226\203\306XI\021Td\216\251\335\357\376+jj\036"
 112      C6584911 
 112      54648EA9 
 112      DDEFFE2B 
 112      6A6A1E
 113 0106 ED75B894 		.ascii	"\355u\270\224\014N*\204\261\363\310%6\240XY\364V\377"
 113      0C4E2A84 
 113      B1F3C825 
 113      36A05859 
 113      F456FF
 114 0119 00D5CFF2 		.ascii	"\000\325\317\362\274O\222\020\376\373\327\244\251^'"
 114      BC4F9210 
 114      FEFBD7A4 
 114      A95E27
 115 0128 61BC40A5 		.ascii	"a\274@\245w\365ak\034H$\320\336\202\036\306\364v\324"
 115      77F5616B 
 115      1C4824D0 
 115      DE821EC6 
 115      F476D4
 116 013b 75071B9E 		.ascii	"u\007\033\236Xpv\007^\013$\335\216N\204\203ca)\366>"
 116      58707607 
 116      5E0B24DD 
 116      8E4E8483 
 116      636129F6 
 117 0150 98CC139E 		.ascii	"\230\314\023\236\255\306\246\316\023\2362\017\3555\251"
 117      ADC6A6CE 
 117      139E320F 
 117      ED35A9
 118 015f E669DD85 		.ascii	"\346i\335\205&e\303\177\346\341j\2367(\367\3345\017"
ARM GAS  /tmp/ccVf3EPN.s 			page 9


 118      2665C37F 
 118      E6E16A9E 
 118      3728F7DC 
 118      350F
 119 0171 A32D457D 		.ascii	"\243-E}\323\235,\267\024\213\305\365S\334;,\306\017"
 119      D39D2CB7 
 119      148BC5F5 
 119      53DC3B2C 
 119      C60F
 120 0183 0AD9786E 		.ascii	"\012\331xn\177W\306\261\034\374\000F\343\226\364"
 120      7F57C6B1 
 120      1CFC0046 
 120      E396F4
 121              		.text
 122              		.section	.gnu.lto_print_line.f70c133ce5f8cb68,"",%progbits
 123 0000 789C9593 		.ascii	"x\234\225\223Ah\023A\024\206\3777\263\263\311\3566\332"
 123      41681341 
 123      1486FF37 
 123      B3B3C9EE 
 123      36DA
 124 0012 DE5A102D 		.ascii	"\336Z\020-\365\"\206&\322\223\207\012\275{mA\275\224"
 124      F5228626 
 124      D293870A 
 124      BD7B6D41 
 124      BD94
 125 0024 36885D50 		.ascii	"6\210]P\020\354\315C'\333R\202`\011\236\304\"\264\210"
 125      10ECCD43 
 125      27DB5282 
 125      60099EC4 
 125      22B488
 126 0037 5044F0E8 		.ascii	"PD\360\350I\250\210\220\034j\361\246\267x\361\232c\213"
 126      49A88890 
 126      1C6AF1A6 
 126      B778F19A 
 126      638B
 127 0049 07E37B3B 		.ascii	"\007\343{;;m-BqH\336{\331\367\276\177f\376$\012\012"
 127      3B6D2D42 
 127      7148DE7B 
 127      D9F7BE7F 
 127      66FE240A 
 128 005e A7D70D7E 		.ascii	"\247\327\015~Ok\340\032g\012A\252\375\005h\226\025\005"
 128      4F6BE01A 
 128      670A41AA 
 128      FD056896 
 128      1505
 129 0070 AED0AEF8 		.ascii	"\256\320\256\370X\016\224\336\330\003ll2\202\0352D\362"
 129      580E94DE 
 129      D8036C6C 
 129      32821D32 
 129      44F2
 130 0082 1C8415A5 		.ascii	"\034\204\025\245\003C+\267I\344\324\004\266\255}\326"
 130      03432BB7 
 130      49E4D404 
 130      B6AD7DD6 
 131 0092 FBDCDF19 		.ascii	"\373\334\337\031{\262\225\265\355\357\301\200R\342\215"
 131      7BB295B5 
 131      EDEFC180 
ARM GAS  /tmp/ccVf3EPN.s 			page 10


 131      52E28D
 132 00a1 2F111A84 		.ascii	"/\021\032\204[\374\201\306\363\244\202\277O\342\310"
 132      5BFC81C6 
 132      F3A482BF 
 132      4FE2C8
 133 00b0 DD83F58D 		.ascii	"\335\203\365\2151{Lj\205\352Y\344;\265\333\033\014\336"
 133      317B4C6A 
 133      85EA59E4 
 133      3BB5DB1B 
 133      0CDE
 134 00c2 BE3FFCD1 		.ascii	"\276?\374\321\241\221\012a\201^\321\004\002\316\333"
 134      A1910A61 
 134      815ED104 
 134      02CEDB
 135 00d1 9C0D520A 		.ascii	"\234\015R\012B\016\246\\t\242\242\023K'\341\020\262"
 135      420EA65C 
 135      74A2A213 
 135      4B27E110 
 135      B2
 136 00e2 88C19AB5 		.ascii	"\210\301\232\265\355q7\001\331\221\327,G\276\356\034"
 136      ED713701 
 136      D991D72C 
 136      47BEEE1C 
 137 00f2 294EBA8B 		.ascii	")N\272\213\254\367\341S\270@\257\311\024Rr\034\355\317"
 137      ACF7E153 
 137      B840AFC9 
 137      1452721C 
 137      EDCF
 138 0104 31C7257B 		.ascii	"1\307%{\244\367\220u\277\365\257\270\271{\024l\342E"
 138      A4F79075 
 138      BFF5AFB8 
 138      B97B146C 
 138      E245
 139 0116 D3DA61B6 		.ascii	"\323\332a\266\3411~\331\226T\245\007\271\276\340\245"
 139      E1317ED9 
 139      9654A507 
 139      B9BEE0A5 
 140 0126 8266EA8E 		.ascii	"\202f\352\216GL\025W\323\034\344\2012K\310\240\033["
 140      474C1557 
 140      D31CE481 
 140      324BC8A0 
 140      1B5B
 141 0138 24FC0308 		.ascii	"$\374\003\010\253x#\272\221Cb\226\020$(\020\317\354"
 141      AB7823BA 
 141      91436296 
 141      10242810 
 141      CFEC
 142 014a C33802C2 		.ascii	"\3038\002\302H\310\225\223I6aH\024W[\253\007O\257{U"
 142      48C89593 
 142      49366148 
 142      14575BAB 
 142      074FAF7B 
 143 015f DE99F21B 		.ascii	"\336\231\362\033\012\337\205:ys\356\372[\007\340\237"
 143      0ADF853A 
 143      7973EEFA 
 143      5B07E09F 
 144 016f 82B8C34F 		.ascii	"\202\270\303O|\223\211\016\326~6K^\313\011\335<\372"
ARM GAS  /tmp/ccVf3EPN.s 			page 11


 144      7C93890E 
 144      D67E364B 
 144      5ECB09DD 
 144      3CFA
 145 0181 D2BE830A 		.ascii	"\322\276\203\012\363\324\216f1\335*\211\226\021\243"
 145      F3D48E66 
 145      31DD2A89 
 145      9611A3
 146 0190 C5C0C3FE 		.ascii	"\305\300\303\376\250G\243\37770>e`t\226\201Ia`\345\310"
 146      A847A3FF 
 146      37303E65 
 146      60749681 
 146      496160E5 
 147 01a5 C0F8A481 		.ascii	"\300\370\244\201\376\217\263\217\360\330\300DB$G\032"
 147      FE8FB38F 
 147      F0D8C044 
 147      4224471A 
 148 01b5 4DE9DC45 		.ascii	"M\351\334EL\276\264\317gR:\217bD\004\206\025[;\002|"
 148      4CBEB4CF 
 148      67523A8F 
 148      62440486 
 148      155B3B02 
 149 01ca 45B3D7B9 		.ascii	"E\263\327\271\354Y\267f\331\245,\227\276P\253\325\335"
 149      EC59B766 
 149      D9A52C97 
 149      BE50ABD5 
 149      DD
 150 01db 6BF9EEA3 		.ascii	"k\371\356\243\345\372\375t\261\336X\232\227\272\326"
 150      E5FAFD74 
 150      B1DE589A 
 150      97BAD6
 151 01ea 402279BE 		.ascii	"@\"y\276\261\364\26065E\251\256\304\370\003S\243\267"
 151      B1F4B036 
 151      3545A9AE 
 151      C4F80353 
 151      A3B7
 152 01fc 95       		.ascii	"\225"
 153              		.text
 154              		.section	.gnu.lto_test_printn.part.0.f70c133ce5f8cb68,"",%progbits
 155 0000 789C8D92 		.ascii	"x\234\215\222AK\033Q\020\307\347\377\336\256Y\265b\256"
 155      414B1B51 
 155      10C7E7FF 
 155      DEAE59B5 
 155      62AE
 156 0012 4241AB48 		.ascii	"BA\253H\261\201\215`z\366K(X/\222\0045\013F\002MO\036"
 156      B1818D60 
 156      7AF64B28 
 156      582F9204 
 156      350B4602 
 157 0029 F2121444 		.ascii	"\362\022\024Dz\010\201B\325K\203\210T\301b\373\005\202"
 157      7A088142 
 157      D54B8388 
 157      54C162FB 
 157      0582
 158 003b 2713D0D2 		.ascii	"'\023\320\322\263\227\334\275\350Q\017]gv\263i#\205"
 158      B397DCBD 
 158      E8510F5D 
ARM GAS  /tmp/ccVf3EPN.s 			page 12


 158      6776B369 
 158      2385
 159 004d FA783B33 		.ascii	"\372x;3\357\275\371\315\314\233\267\212\024=\035\011"
 159      EFBDF9CD 
 159      CC9BB78A 
 159      143D1D09 
 160 005d FE8E78FB 		.ascii	"\376\216x\373-k\330\004\253z\305\206\005\025h\005-\272"
 160      2D6BD804 
 160      AB7AC586 
 160      05156805 
 160      2DBA
 161 006f EC68400C 		.ascii	"\354h@\014\002\225,\245Qz\007\201\355q\252\033Sko\235"
 161      02952CA5 
 161      517A0781 
 161      ED71AA1B 
 161      536B6F9D 
 162 0083 9C8D982F 		.ascii	"\234\215\230/\225\252\371\355\373\360\300iFAY\320\002"
 162      95AAF9ED 
 162      FBF0C069 
 162      464159D0 
 162      02
 163 0094 2F301628 		.ascii	"/0\026(e\365\346\015\311\306\365\316\247\277I\255\350"
 163      65F5E60D 
 163      C9C6F5CE 
 163      A7BF49AD 
 163      E8
 164 00a5 D573C846 		.ascii	"\325s\310F\325\234Y\027f\263\341\373\263\036,E\023\177"
 164      D59C5917 
 164      66B3E1FB 
 164      B31E2C45 
 164      137F
 165 00b7 28136A15 		.ascii	"(\023j\025\377g\302\373\326\307\221\235\236\204\257"
 165      FF67C2FB 
 165      D6C7919D 
 165      9E84AF
 166 00c6 9F59EA5D 		.ascii	"\237Y\352]\253U\207\251\231\362\255\357\017{\260\025"
 166      AB5587A9 
 166      99F2ADEF 
 166      0F7BB015 
 167 00d6 25FE477E 		.ascii	"%\376G~S\246\355\373\273\337\373c\2404\276b\234;\343"
 167      53A6EDFB 
 167      BBDFFB63 
 167      A034BE62 
 167      9C3BE3
 168 00e9 A14FB388 		.ascii	"\241O\263\210I\373h\323\230\352X\032\207|\222\306A "
 168      49FB68D3 
 168      98EA581A 
 168      877C92C6 
 168      4120
 169 00fb EB2C49E2 		.ascii	"\353,I\342\362\230c)m\237\207%Z7\351\334!\312\203'\237"
 169      F2986329 
 169      6D9F8725 
 169      5A37E9DC 
 169      21CA8327 
 170 0110 34A9C2AB 		.ascii	"4\251\302\253\220\310\243\223r\036*p\275\244J\363\363"
 170      90C8A393 
 170      721E2A70 
ARM GAS  /tmp/ccVf3EPN.s 			page 13


 170      BDA44AF3 
 170      F3
 171 0121 E9541A27 		.ascii	"\351T\032'\374\252\253\300>\355\225\215\211s\335\033"
 171      FCAAABC0 
 171      3EED958D 
 171      8973DD1B 
 172 0131 F460B6C5 		.ascii	"\364`\266\305r\362\220\377A\012w:4S\213\021\242\022"
 172      72F290FF 
 172      410A773A 
 172      34538B11 
 172      A212
 173 0143 F4868BED 		.ascii	"\364\206\213\355\202\375\034E|\355\3003\023%\354at\202"
 173      82FD1C45 
 173      7CEDC033 
 173      1325EC61 
 173      7482
 174 0155 8EC577A0 		.ascii	"\216\305w\240K\015r \241\372:T\204\375$;\204H0\021A"
 174      4B0D7220 
 174      A1FA3A54 
 174      84FD243B 
 174      84483011 
 175 016a F017D3DC 		.ascii	"\360\027\323\334\233\241\350*\272s\225\363\033\025:"
 175      9BA1E82A 
 175      BA7395F3 
 175      1B153A
 176 0179 87AD4AD1 		.ascii	"\207\255J\321\017\263\315\316\322\355_Tn_LF\241\302"
 176      0FB3CDCE 
 176      D2ED5F54 
 176      6E5F4C46 
 176      A1C2
 177 018b 31C75918 		.ascii	"1\307Y\030\224\313\275t\335d8\213\313\357\213\3115/"
 177      94CBBD74 
 177      DD64388B 
 177      CBEF8BC9 
 177      352F
 178 019d 93CCE696 		.ascii	"\223\314\346\226\304v\263\204u\024t\346\303\212.\270"
 178      C476B384 
 178      751474E6 
 178      C38A2EB8 
 179 01ad A901D95B 		.ascii	"\251\001\331[\312\346\012\356\314#\306,\244\304"
 179      CAE60AEE 
 179      CC23C62C 
 179      A4C4
 180              		.text
 181              		.section	.gnu.lto__test_fail.f70c133ce5f8cb68,"",%progbits
 182 0000 789C6362 		.ascii	"x\234cb`b@\007\222@\314\311\310\300 \007\244\031\231"
 182      60624007 
 182      9240CCC9 
 182      C8C02007 
 182      A41999
 183 0013 19189926 		.ascii	"\031\030\231&\234c`h\344`bd\0041\030\030\031\352\231"
 183      9C636068 
 183      E4606264 
 183      04311818 
 183      19EA99
 184 0026 18EB2319 		.ascii	"\030\353#\031\301j\3273\035x\360\377\377\2729\355K\317"
 184      C16AD733 
ARM GAS  /tmp/ccVf3EPN.s 			page 14


 184      1D78F0FF 
 184      FFBA39ED 
 184      4BCF
 185 0038 30CE6562 		.ascii	"0\316ebca\314\005\213\2632\26444LP``H\006sC\200$Ho("
 185      6361CC05 
 185      8BB332B4 
 185      34344C50 
 185      60604806 
 186 0053 23138866 		.ascii	"#\023\210f>\313\320\264c\306\267\003\314\211\214\013"
 186      3ECBD0B4 
 186      63C6B703 
 186      CC898C0B 
 187 0063 19591966 		.ascii	"\031Y\031f3\314jlh\020\310dd\250f\370\325\320\001b\001"
 187      33CC6A6C 
 187      6810C864 
 187      64A866F8 
 187      D5D00162 
 188 0078 8D01698C 		.ascii	"\215\001i\214`\314d\204\330\003b1\200\230 \255+\312"
 188      60CC6484 
 188      D8036231 
 188      809820AD 
 188      2BCA
 189 008a F06964C2 		.ascii	"\360id\302\251\361\364\011t\215Lp\215\314\271@\257B"
 189      A9F1F409 
 189      748D4C70 
 189      8DCCB940 
 189      AF42
 190 009c 94338335 		.ascii	"\2243\2035\2463\26200\\dh|p;\031\242\011n\022\304G\214"
 190      A633B230 
 190      305C6468 
 190      7C703B19 
 190      A2096E12 
 191 00b3 209F80EC 		.ascii	" \237\200\354\222\321\323\323\207\240\222\324\342\022"
 191      92D1D3D3 
 191      87A092D4 
 191      E212
 192 00c1 FD9CCC24 		.ascii	"\375\234\314$\375\344\214x\020[/\231\001\000\353}J\243"
 192      FDE48C78 
 192      105B2F99 
 192      0100EB7D 
 192      4AA3
 193              		.text
 194              		.section	.gnu.lto__test_assert.f70c133ce5f8cb68,"",%progbits
 195 0000 789C7551 		.ascii	"x\234uQ\261J\003A\020\235\267\263\007!\244\260\260\024"
 195      B14A0341 
 195      109DB7B3 
 195      0721A4B0 
 195      B014
 196 0012 0D7EC01D 		.ascii	"\015~\300\035\370-\006\264\222xH<\360\252\004\033\213"
 196      F82D06B4 
 196      9278483C 
 196      F0AA041B 
 196      8B
 197 0023 6C4220E9 		.ascii	"lB \351\014V\242\"D\004\033\321NR\\ VFD!\220\306\316"
 197      0C56A222 
 197      44041BD1 
 197      4E525C20 
ARM GAS  /tmp/ccVf3EPN.s 			page 15


 197      56464421 
 198 003a 0FB0B6B0 		.ascii	"\017\260\266\2609w\366B$A\227\335\231a\231\367\366\315"
 198      3977F642 
 198      244197DD 
 198      996199F7 
 198      F6CD
 199 004c 5B458A16 		.ascii	"[E\212\026\327\206=\003\020\255\333\014\217\240\272"
 199      D7863D03 
 199      10ADDB0C 
 199      8FA0BA
 200 005b 6F448D9C 		.ascii	"oD\215\234R<\011\310\024t\262J&\317\320\331\265\006"
 200      523C09C8 
 200      1474B24A 
 200      26CFD0D9 
 200      B506
 201 006d A420505D 		.ascii	"\244 P]\261F}\033\216\344^\015?\322\364.i?$\270TyP\004"
 201      B1467D1B 
 201      8EE45E0D 
 201      3FD2F42E 
 201      693F24B8 
 202 0085 62C420CF 		.ascii	"b\304 \317\006i\361\250eL\267H\024:\300\246\215\302"
 202      0669F1A8 
 202      654CB748 
 202      143AC0A6 
 202      8DC2
 203 0097 538292CC 		.ascii	"S\202\222\314#j}>\216\333\\F\317j\250\200\267\020aN"
 203      236A7D3E 
 203      8EDB5C46 
 203      CF6AA880 
 203      B710614E 
 204 00ab 66094C93 		.ascii	"f\011L\223\200\237\251\231\023\255=cN\206\311S\241\333"
 204      809FA999 
 204      13AD3D63 
 204      4E86C953 
 204      A1DB
 205 00bd E89834AD 		.ascii	"\350\2304\255G\260Dk\020vA\252\242K\254\347G\255Xnz"
 205      47B0446B 
 205      107641AA 
 205      A24BACE7 
 205      47AD586E 
 206 00d2 A566FFF4 		.ascii	"\245f\377\364k\3103EYan\216\2752\256 6d*B'\234\316\351"
 206      6BC83345 
 206      59616E8E 
 206      BD32AE20 
 206      36642A42 
 207 00ea AC61CC92 		.ascii	"\254a\314\222\225sD\337\246#\225\216!>\312\023\331\013"
 207      957344DF 
 207      A623958E 
 207      213ECA13 
 207      D90B
 208 00fc 4EAD740B 		.ascii	"N\255t\013y\337\222\227qm\031\376\206\362\277\320\227"
 208      79DF9297 
 208      716D19FE 
 208      86F2BFD0 
 208      97
 209 010d D1E10210 		.ascii	"\321\341\002\0203\240\027;\200\264{\277\303d\316h\347"
 209      33A0173B 
ARM GAS  /tmp/ccVf3EPN.s 			page 16


 209      80B47BBF 
 209      C364CE68 
 209      E7
 210 011e E1D87E8F 		.ascii	"\341\330~\217\\;\325\357\204)3_\014\226\247n\252\333"
 210      5C3BD5EF 
 210      8429335F 
 210      0C96A76E 
 210      AADB
 211 0130 4141BC87 		.ascii	"AA\274\207\364\313\004+\276\037d\273\266W\255\005\007"
 211      F4CB042B 
 211      BE1F64BB 
 211      B657AD05 
 211      07
 212 0141 D16E10EE 		.ascii	"\321n\020\356\357H\355\207\304q\265\362\003b\005t\315"
 212      EF48ED87 
 212      C471B5F2 
 212      03620574 
 212      CD
 213              		.text
 214              		.section	.gnu.lto__test_assert_sequence.f70c133ce5f8cb68,"",%progbits
 215 0000 789CAD54 		.ascii	"x\234\255T\335KTA\024?g\346~\355\335M#z0\260\024_\203"
 215      DD4B5441 
 215      143F67E6 
 215      7EEDDD4D 
 215      237A30B0 
 216 0017 5DAAE71E 		.ascii	"]\252\347\036\372\037Z\250'\331\226\270-\265$(A\004"
 216      FA1F5AA8 
 216      27D996B8 
 216      2DB52428 
 216      4104
 217 0029 39EB070A 		.ascii	"9\353\007\012\012\273\210\204}<(\322C%\371\330\022\205"
 217      0ABB8884 
 217      7D3C28D2 
 217      4325F9D8 
 217      1285
 218 003b 9B046AA2 		.ascii	"\233\004j\242`\364b%\010\021\005\211\370\020\005\026"
 218      60F46225 
 218      08110589 
 218      F8100516 
 219 004b DECECCDC 		.ascii	"\336\316\314\334{]\267R\372\030v\357\2349\363;\277\363"
 219      7B5DB752 
 219      FA1876EF 
 219      9C39F33B 
 219      BFF3
 220 005d 792F0306 		.ascii	"y/\003\006\265\353*\375_\232\000\307h\3078 +-\002\024"
 220      B5EB2AFD 
 220      5F9A00C7 
 220      68C73820 
 220      2B2D0214 
 221 0071 1C86A616 		.ascii	"\034\206\246\02683\2469\010\327]|\001 \022\006\306\264"
 221      3833A639 
 221      08D75D7C 
 221      01201206 
 221      C6B4
 222 0083 DED58053 		.ascii	"\336\325\200S&\343\352\306\265$,a1\373\311\021:9\257"
 222      26E3EAC6 
 222      B5242C61 
ARM GAS  /tmp/ccVf3EPN.s 			page 17


 222      31FBC911 
 222      3A39AF
 223 0096 5274B243 		.ascii	"Rt\262C\264\023\0121D)\000B'\343\206kZ6\251:\317\242"
 223      B4130A31 
 223      44290042 
 223      27E3866B 
 223      5A36A93A 
 224 00ac 0C85B5C0 		.ascii	"\014\205\265\300\230\020C\253\275[\037\361\346p\245"
 224      981043AB 
 224      BD5B1FF1 
 224      E670A5
 225 00bb 67547CF7 		.ascii	"gT|\367}\304\034R\330M\010Y\2043t\300f\2651cg\036\332"
 225      7DC41C52 
 225      D84D0859 
 225      843374C0 
 225      66B53163 
 226 00d2 B6B23233 		.ascii	"\266\26223xH\214v\225\304\026\231*\313\243{YN\262\312"
 226      78488C76 
 226      95C41699 
 226      2ACBA37B 
 226      594EB2CA 
 227 00e6 AAEFBF7D 		.ascii	"\252\357\277}\372\371\335\000\036h@\310K\253\014\216"
 227      FAF9DD00 
 227      1E6840C8 
 227      4BAB0C8E 
 228 00f6 630B70C8 		.ascii	"c\013p\310!7\22146i\306H\343\00471\2721\\\211\215K)"
 228      21379134 
 228      3669C648 
 228      E3043731 
 228      BA315C89 
 229 010d 4118AC93 		.ascii	"A\030\254\223\022\021\232\320#D\251Y\003Az\247u\232"
 229      12119AD0 
 229      2344A959 
 229      03417AA7 
 229      759A
 230 011f 9E1B16A4 		.ascii	"\236\033\026\244\221\321\306\347\240ku}\334\312\340"
 230      91D1C6E7 
 230      A06B757D 
 230      DCCAE0
 231 012e 5D3403C6 		.ascii	"]4\003\306k\260)\372\2058\231C3\217\333}J#\007*0_\200"
 231      6BB029FA 
 231      85389943 
 231      338FDB7D 
 231      4A23072A 
 232 0145 EE81EE0F 		.ascii	"\356\201\356\017\305Fm\342\241\343!S\331H\3669`\325"
 232      C5466DE2 
 232      A1E32153 
 232      D948F639 
 232      60D5
 233 0157 54740BB0 		.ascii	"Tt\013\260\000]\217{\257\207\360\330m\270Eh#\260\012"
 233      005D8F7B 
 233      AF87F0D8 
 233      6DB84568 
 233      23B00A
 234 016a D915EB3A 		.ascii	"\331\025\353:\206(\327C\374\231\224\222\244\253Z\306"
 234      8628D743 
 234      FC999492 
ARM GAS  /tmp/ccVf3EPN.s 			page 18


 234      A4AB5AC6 
 235 017a 78C488D5 		.ascii	"x\304\210\325\214\263\320\263V8\026\271%\034T\345b\300"
 235      8CB3D0B3 
 235      563816B9 
 235      251C54E5 
 235      62C0
 236 018c 432E9377 		.ascii	"C.\223w\242\206\275\351\233G1$\012\033\276_\237C\213"
 236      A286BDE9 
 236      9B473124 
 236      0A1BBE5F 
 236      9F438B
 237 019f 4172AF7E 		.ascii	"Ar\257~y\230P\261\224G\276TxP\353\260\350\342S\221\212"
 237      799850B1 
 237      9447BE54 
 237      7850EBB0 
 237      E8E25391 
 238 01b4 7A4FD55D 		.ascii	"zO\325]\307\220E\025\032\005[\020b?\265S\327\231$;O"
 238      C7904515 
 238      1A055B10 
 238      623FB553 
 238      D799243B 
 239 01c9 A505E5C2 		.ascii	"\245\005\345\302V\304R\342\010\232\274L\344\031|@\014"
 239      56C452E2 
 239      089ABC4C 
 239      E4197C40 
 239      0C
 240 01da BF36357E 		.ascii	"\27765~k:?{\245\306\320\212\014\235<\3515\334\331NF"
 240      6B3A3F7B 
 240      A5C6D08A 
 240      0C9D3CE9 
 240      35DCD94E 
 241 01ef CF870BA3 		.ascii	"\317\207\013\2433\200i\002\320\033\022\024)\354'\223"
 241      33806902 
 241      D01B1214 
 241      29EC2793 
 242 01ff ED900AD5 		.ascii	"\355\220\012\325\013T~\346F\350=\011\013mG\316 r\026"
 242      0B547EE6 
 242      46E83D09 
 242      0B6D47CE 
 242      207216
 243 0212 CBA31538 		.ascii	"\313\243\0258\213E\335y\376\276p\"4b^\020>\255e@\017"
 243      8B45DD79 
 243      FEBE7022 
 243      34625E10 
 243      3EAD6540 
 244 0227 4D460FD7 		.ascii	"MF\017\327\2753\265\206\313\3004Qe\245\257>\232I6\302"
 244      BD33B586 
 244      CBC03451 
 244      65A5AF3E 
 244      9A4936C2 
 245 023b 69B808D0 		.ascii	"i\270\010\320&\273i\3014\347j*\276\026\355\220\264n"
 245      26BB69C1 
 245      34E76A2A 
 245      BE16ED90 
 245      B46E
 246 024d 97B9D817 		.ascii	"\227\271\330\027\201\344\225[\335\3254\2052\211;g\343"
 246      81E4955B 
ARM GAS  /tmp/ccVf3EPN.s 			page 19


 246      DDD53485 
 246      32893B67 
 246      E3
 247 025e F54CA254 		.ascii	"\365L\242T\350\027\276\337I5\314\340}\012\341\037F\343"
 247      E817BEDF 
 247      4935CCE0 
 247      7D0AE11F 
 247      46E3
 248 0270 5BD1CCE0 		.ascii	"[\321\314\340\243\3776\032\345\277\035\215\362\237\216"
 248      A3FF361A 
 248      E5BF1D8D 
 248      F29F8E
 249 027f 469A1443 		.ascii	"F\232\024CL\026z\263{r\360pm^\343\303M\333\031\261\035"
 249      4C167AB3 
 249      7B72F070 
 249      6D5EE3C3 
 249      4DDB19B1 
 250 0294 19ED320B 		.ascii	"\031\3552\013AsoX\272\267\031|\246\334\007\016c\362"
 250      41736F58 
 250      BAB7197C 
 250      A6DC070E 
 250      63F2
 251 02a6 23B544DF 		.ascii	"#\265D\337k\031\006\327\363\301\203L\214\211\251\206"
 251      6B1906D7 
 251      F3C1834C 
 251      8C89A986 
 252 02b6 40B4D7A6 		.ascii	"@\264\327\246\016*\021\300\231XJ\310)F\262\224A4&\223"
 252      0E2A11C0 
 252      99584AC8 
 252      2946B294 
 252      41342693 
 253 02ca 29FDEB38 		.ascii	")\375\3538\337\336\221\272\224;\227\312^h\225r2\013"
 253      DFDE91BA 
 253      943B97CA 
 253      5E689572 
 253      320B
 254 02dc 71B9B776 		.ascii	"q\271\267v\\\276\330\226<\316\262m<\337\356\375\000"
 254      5CBED896 
 254      3CCEB26D 
 254      3CDFEEFD 
 254      00
 255 02ed D1CB7004 		.ascii	"\321\313p\004"
 256              		.text
 257              		.section	.gnu.lto__test_assert_time_window.f70c133ce5f8cb68,"",%progbits
 258 0000 789C8D94 		.ascii	"x\234\215\224[HTA\030\200\377\377\314Y\367\026%\030"
 258      5B485441 
 258      1880FFFF 
 258      CC59F716 
 258      2518
 259 0012 441026BE 		.ascii	"D\020&\276\006\036\324^{\210z\021\364\245\024\352I\216"
 259      061ED45E 
 259      7B887A11 
 259      F4A514EA 
 259      498E
 260 0024 BB8B1ED8 		.ascii	"\273\213\036\330K\354\236$\350\301Y\265\333B$b\226\031"
 260      4BEC9E24 
 260      E8C159B5 
ARM GAS  /tmp/ccVf3EPN.s 			page 20


 260      DB422462 
 260      9619
 261 0036 91198477 		.ascii	"\221\031\204w\213\002+\205M\213\014\323\222|Q!\226."
 261      8B022B85 
 261      4D8B0CD3 
 261      927C5121 
 261      962E
 262 0048 F4163E44 		.ascii	"\364\026>DD\030\247\177\346\254\353\272\250\354a\347"
 262      4418A77F 
 262      E6ACEBBA 
 262      A8EC61E7 
 263 0058 9F999DF9 		.ascii	"\237\231\235\371\277\37763\012(\220\373UP\353w\000|"
 263      BFFF3633 
 263      0A2890FB 
 263      5550EB77 
 263      007C
 264 006a A61E1D80 		.ascii	"\246\036\035\200J\307\002@\334\245(lI\003\276G\235,"
 264      4AC70240 
 264      DCA5286C 
 264      4903BE47 
 264      9D2C
 265 007c 06EE61A8 		.ascii	"\006\356a\250\332\177\253\210b\000\010-\012S\261\345"
 265      DA7FAB88 
 265      6200082D 
 265      0A53B1E5 
 266 008c 2C4AC898 		.ascii	",J\310\230\222LY\326\350\275\304\323I\034P\012\031\206"
 266      924C59D6 
 266      E8BDC4D3 
 266      491C500A 
 266      1986
 267 009e 105412E8 		.ascii	"\020T\022\350 \2418\301@p\221@7\011\305#\204\227\004"
 267      20A138C1 
 267      40709140 
 267      3709C523 
 267      849704
 268 00b1 234D07B4 		.ascii	"#M\007\264s\336Q\002\340\223\244Z\222\302@\035*\242"
 268      73DE5102 
 268      E093A45A 
 268      92C2401D 
 268      2AA2
 269 00c3 67F330BD 		.ascii	"g\3630\275\262\376a\241\323\235\331g\017\222c\327W\031"
 269      B2FE61A1 
 269      D39DD967 
 269      0F9263D7 
 269      5719
 270 00d5 CBCC46BA 		.ascii	"\313\314F\272\226\235\231\311@\367J\021ffs\357\277P"
 270      969D99C9 
 270      40F74A11 
 270      666673EF 
 270      BF50
 271 00e7 743AF651 		.ascii	"t:\366Qp>Dj\0125FM\025\006\033\321y\004\006y{<e\375"
 271      703E446A 
 271      0A35464D 
 271      15061BD1 
 271      79040679 
 272 00ff EAAA3250 		.ascii	"\352\2522P\355\205;\361\016^h\240\343\014\032X\300\257"
 272      ED853BF1 
ARM GAS  /tmp/ccVf3EPN.s 			page 21


 272      0E5E68A0 
 272      E30C1A58 
 272      C0AF
 273 0111 72AE821C 		.ascii	"r\256\202\034\312H\033\204\233:\366\023\215\276yh\375"
 273      CA481B84 
 273      9B3AF613 
 273      8DBE7968 
 273      FD
 274 0122 D9B657C7 		.ascii	"\331\266W\307\0074mD\027\301\000\336A\353Z\347\247\011"
 274      07346D44 
 274      17C100DE 
 274      41EB5AE7 
 274      A709
 275 0134 B44D9642 		.ascii	"\264M\226B\037\347\235\311\336\304\014\362\004\217\257"
 275      1FE79DC9 
 275      DEC40CF2 
 275      048FAF
 276 0143 59D63ECA 		.ascii	"Y\326>\312\203\002\323\322\025\011v\026\312\316\225"
 276      8302D3D2 
 276      15097616 
 276      CACE95
 277 0152 531BE249 		.ascii	"S\033\342IX\252\347\215ww\326\333<X,O\326|\036,U\262"
 277      58AAE78D 
 277      7777D6DB 
 277      3C582C4F 
 277      D67C1E2C 
 278 0168 C83B1B92 		.ascii	"\310;\033\222\2729\367\357\340\3608\347\227\222\374"
 278      BA39F7EF 
 278      E0F038E7 
 278      9792FC
 279 0177 8F851623 		.ascii	"\217\205\026#\220\216\2032\317\371\004\230\001qb8\356"
 279      908E8332 
 279      CFF90498 
 279      01716238 
 279      EE
 280 0188 F3752B8D 		.ascii	"\363u+\215\030\316\003\301vG\214\346\201PE\035\333\256"
 280      18CE03C1 
 280      76478CE6 
 280      8150451D 
 280      DBAE
 281 019a CD8C75CD 		.ascii	"\315\214u\315\016xr\317\331P\267UT\256\343c,\245\252"
 281      0E7872CF 
 281      D950B755 
 281      54AEE363 
 281      2CA5AA
 282 01ad 8F4B3946 		.ascii	"\217K9Fr\313\361\322qD.\014I9 \2277\016\234h\005\266"
 282      72CBF1D2 
 282      71442E0C 
 282      49392097 
 282      370E9C68 
 283 01c3 1DB73C21 		.ascii	"\035\267<!,\313\332\001\035\237\310\223\343!/6b\331"
 283      2CCBDA01 
 283      1D9FC893 
 283      E3212F36 
 283      62D9
 284 01d5 EEF0BC44 		.ascii	"\356\360\274D~y\243HL\201\305\254\"\271\354\250pkT~"
 284      7E79A348 
ARM GAS  /tmp/ccVf3EPN.s 			page 22


 284      4C81C5AC 
 284      22B9ECA8 
 284      706B547E 
 285 01e9 F8CA394F 		.ascii	"\370\3129O\335J|;J\032\322\266\3076\006;\032\231C\312"
 285      DD4A7C3B 
 285      4A1AD2B6 
 285      C736063B 
 285      1A9943CA 
 286 01fd 5FDA885B 		.ascii	"_\332\210[\201\325,#%\266\02157u\204\233\205\327\337"
 286      81D52C23 
 286      25B61135 
 286      3775849B 
 286      85D7DF
 287 0210 5F7D74E6 		.ascii	"_}t\346\344\215\377\350b:N\310\204<\333\222\020g&\031"
 287      E48DFFE8 
 287      623A4EC8 
 287      843CDB92 
 287      10672619 
 288 0224 9E4D521D 		.ascii	"\236MR\035\305\276\244\261\354J&\247\256lqH\307\347"
 288      C5BEA4B1 
 288      EC4A26A7 
 288      AE6C7148 
 288      C7E7
 289 0236 59B5DCC5 		.ascii	"Y\265\334\305!\272\223\023\267\177'Y\256G\217nP\241"
 289      21BA9313 
 289      B77F2759 
 289      AE478F6E 
 289      50A1
 290 0248 26D3BEBC 		.ascii	"&\323\276\274\220\276\270\204\222\270\360\\\\xv\021"
 290      90BEB884 
 290      92B8F05C 
 290      5C787611 
 291 0258 FED275A7 		.ascii	"\376\322u\247\221'$\337&a\302vR\214\230H\261\200O\020"
 291      912724DF 
 291      2661C276 
 291      528C9848 
 291      B1804F10 
 292 026c 5CC72922 		.ascii	"\\\307)\"l\257\252\356\250:7\333\234\243\350\316(zC"
 292      6CAFAAEE 
 292      A83A37DB 
 292      9CA3E8CE 
 292      287A43
 293 027f B23862BB 		.ascii	"\2628b\273w3\030;9\252|\013\027!\236\352\011\330yl\264"
 293      7733183B 
 293      39AA7C0B 
 293      17219EEA 
 293      09D8796C 
 294 0294 372D8357 		.ascii	"7-\203W\362\001\224\207\307\322\226\330\335\251\375"
 294      F2019487 
 294      C7D296D8 
 294      DDA9FD
 295 02a3 E22145A1 		.ascii	"\342!E\241$\016\373\241\2622\315\376\231\201\230\251"
 295      240EFBA1 
 295      B232CDFE 
 295      998198A9 
 296 02b3 058D06CD 		.ascii	"\005\215\006\315\327T/\306e>\250\314,FbZ\223\036\324"
 296      D7542FC6 
ARM GAS  /tmp/ccVf3EPN.s 			page 23


 296      653EA8CC 
 296      2C46625A 
 296      931ED4
 297 02c6 CE45A266 		.ascii	"\316E\242fL;][SY\241UW\237\324j\253j\232\313\305J}\314"
 297      4C3B5D5B 
 297      5359A155 
 297      579FD46A 
 297      AB6A9ACB 
 298 02de AC0F06FD 		.ascii	"\254\017\006\375eM\240e\353\370\"\241P$\234V;~\252\346"
 298      654DA065 
 298      EBF822A1 
 298      50249C56 
 298      3B7EAAE6 
 299 02f2 44CD05C2 		.ascii	"D\315\005\302\373\"\321@\275i\204\002Q\332_\234\275"
 299      FB22D140 
 299      BD698402 
 299      51DA5F9C 
 299      BD
 300 0303 3F6A6A46 		.ascii	"?jjF\330\027<\357\017\320\266f\223\226\017\347\272\020"
 300      D8173CEF 
 300      0FD0B666 
 300      93960FE7 
 300      BA10
 301 0315 8991A07D 		.ascii	"\211\221\240}\242\247uUp\0341S\217\232,\020\366\273"
 301      A2A77555 
 301      701C3153 
 301      8F9A2C10 
 301      F6BB
 302 0327 7D91B0DF 		.ascii	"}\221\260\3370\215H\230\205b\215\377\001B{\253e"
 302      308D4898 
 302      85628DFF 
 302      01427BAB 
 302      65
 303              		.text
 304              		.section	.gnu.lto_test_printn.f70c133ce5f8cb68,"",%progbits
 305 0000 789C8554 		.ascii	"x\234\205TKH\224Q\024>\347\336\371\037\363\317\350\350"
 305      4B489451 
 305      143EE7DE 
 305      F91FF3CF 
 305      E8E8
 306 0012 A8238690 		.ascii	"\250#\206\220\010m\024\306\2406-\244u{\205j#:\3258\220"
 306      086D14C6 
 306      A0362DA4 
 306      757B856A 
 306      233AD538 
 307 0027 206514B4 		.ascii	" e\024\264\360:3\201\250\301 D\257\215\026\025\265\310"
 307      F03A3381 
 307      A8C12044 
 307      AF8D1615 
 307      B5C8
 308 0039 45BB5633 		.ascii	"E\273V3!4\212\026-\304\244E\266\210 \005\027\021\275"
 308      21348A16 
 308      2DC4A445 
 308      B6882005 
 308      1711BD
 309 004c A0E99CFF 		.ascii	"\240\351\234\377\376w\306L\350\342\3343\367\234\357"
 309      FE77C64C 
ARM GAS  /tmp/ccVf3EPN.s 			page 24


 309      E8E2DC33 
 309      F79CEF
 310 005b 3BEF5180 		.ascii	";\357Q\200\200\275\3472}>\207\000zHb\004P\024^\001L"
 310      80BDE732 
 310      7D3E8700 
 310      7A486204 
 310      50145E01 
 311 0070 B842846E 		.ascii	"\270B\204n6\200\362\344\217^PQ\2116\2531\204\236/-\375"
 311      3680F2E4 
 311      8F5E5051 
 311      8936AB31 
 311      849E2F2D 
 312 0085 2EB9B6B0 		.ascii	".\271\266\260f^\002\341\234\274C8\007\303\276\335\325"
 312      665E02E1 
 312      9CBC4338 
 312      07C3BEDD 
 312      D5
 313 0096 B2E48685 		.ascii	"\262\344\206\205\253\355\236o\367\020Y\017\010\343B"
 313      ABED9E6F 
 313      F710590F 
 313      08E342
 314 00a5 862CDB71 		.ascii	"\206,\333q\303\036\216\237BNDv\302\274R\263\233\327"
 314      C31E8E9F 
 314      424E4476 
 314      C2BC52B3 
 314      9BD7
 315 00b7 9E3E6E9B 		.ascii	"\236>n\233\232\313\026\324\357J\0053H)\037DH!\234\244"
 315      9ACB16D4 
 315      EF4A0533 
 315      48291F44 
 315      48219CA4 
 316 00cb 0776F842 		.ascii	"\007v\370B\204\376\256\201\231\305B\361\335\324\014"
 316      84FEAE81 
 316      99C542F1 
 316      DDD40C
 317 00da AA1A530A 		.ascii	"\252\032S\012\350\2521\225\226\242\341_\252\232Ukg\312"
 317      E8AA3195 
 317      96A2E15F 
 317      AA9A556B 
 317      67CA
 318 00ec 2A5FAC54 		.ascii	"*_\254T\216g0$ \371\277\200\013\242\270Y\251\254\254"
 318      8E673024 
 318      20F9BF80 
 318      0BA2B859 
 318      A9ACAC
 319 00ff 7DFF50C6 		.ascii	"}\377P\306\370\001\204\021Ns\020\037`'\310@\332HJ/x"
 319      F8018411 
 319      4E73101F 
 319      6027C840 
 319      DA484A2F 
 320 0114 4418110D 		.ascii	"D\030\021\015\036u\220A\253\236.;\306W#\333\342d\233"
 320      1E759041 
 320      AB9E2E3B 
 320      C65723DB 
 320      E2649B
 321 0127 275B1369 		.ascii	"'[\023i\234f\272\334\226\000\235\010d+c)\264\005y\245"
 321      9C66BADC 
ARM GAS  /tmp/ccVf3EPN.s 			page 25


 321      96009D08 
 321      642B6329 
 321      B40579A5 
 322 013b 0A1D8378 		.ascii	"\012\035\203x\237\224\332\004\234-\235>\272w\\\350G"
 322      9F94DA04 
 322      9C2D9D3E 
 322      BA775CE8 
 322      47
 323 014c 41429661 		.ascii	"AB\226a\361S\351\375\224\034\304GhA\032m.\304\332]E"
 323      F153E9FD 
 323      941CC447 
 323      68411A6D 
 323      2EC4DA5D 
 324 0161 3F4AC83B 		.ascii	"?J\310;\022`\003\"d\027\270\001\336U\370\251\224*~]"
 324      12600322 
 324      6417B801 
 324      DE55F8A9 
 324      942A7E5D 
 325 0175 8E6630AC 		.ascii	"\216f0\254\203\320\021W\030\035\202-\224K\220u\265\313"
 325      83D01157 
 325      181D822D 
 325      944B9075 
 325      B5CB
 326 0187 11C434A7 		.ascii	"\021\3044\247\364\032r\201\006\200\351\223\252!\203"
 326      F41A7281 
 326      0680E993 
 326      AA2183
 327 0196 5E0AFD9C 		.ascii	"^\012\375\234(\353\210\211f\001\355\202\\\205\334t\356"
 327      28EB8889 
 327      6601ED82 
 327      5C85DC74 
 327      EE
 328 01a7 CB8D3693 		.ascii	"\313\2156\223W4\215\302\3571\343\227@h\275\256\214\254"
 328      57348DC2 
 328      EF31E397 
 328      4068BDAE 
 328      8CAC
 329 01b9 0044B89D 		.ascii	"\000D\270\235{\210\006_\227F\364K\361\200m\331\255\334"
 329      7B88065F 
 329      9746F44B 
 329      F1806DD9 
 329      ADDC
 330 01cb 0563AA27 		.ascii	"\005c\252'\253\217\237\254V\035#-\243\355\303\032}B"
 330      AB8F9FAC 
 330      561D232D 
 330      A3EDC31A 
 330      7D42
 331 01dd 1BEEC29D 		.ascii	"\033\356\302\235\011\2523F\206 \274\2360\021|\007\327"
 331      09AA3346 
 331      8620BC9E 
 331      30117C07 
 331      D7
 332 01ee 73F78471 		.ascii	"s\367\204q\321\270;`5A\032\032\231Li6\320^\373\275\201"
 332      D1B83B60 
 332      35411A1A 
 332      994C6936 
 332      D05EFBBD 
ARM GAS  /tmp/ccVf3EPN.s 			page 26


 333 0203 6AEA82D1 		.ascii	"j\352\202\321\254\360\241T]\031\362\333\245o\313u\306"
 333      ACF0A154 
 333      5D19F2DB 
 333      A56FCB75 
 333      C6
 334 0214 31EE99C8 		.ascii	"1\356\231\310\006PC#\222\256Fke}Nl\200H\243\307\357"
 334      06504323 
 334      92AE466B 
 334      657D4E6C 
 334      8048A3C7 
 335 0229 A8754B72 		.ascii	"\250uKr\030\307\314\253\205\334\333\310*7hjv\351\355"
 335      18C7CCAB 
 335      85DCDBC8 
 335      2A37686A 
 335      76E9ED
 336 023c C231E339 		.ascii	"\3021\3439\256\353\2439\324&\022\035\341\214\374u\216"
 336      AEEBA339 
 336      D426121D 
 336      E18CFC75 
 336      8E
 337 024d 06018975 		.ascii	"\006\001\211u\332P\232\272\241\213v\217\210\004\240"
 337      DA509ABA 
 337      A18B768F 
 337      8804A0
 338 025c 1EC719A8 		.ascii	"\036\307\031\250aC\010\373\020\232\273\341\011\373\255"
 338      614308FB 
 338      109ABBE1 
 338      09FBAD
 339 026b D7146A74 		.ascii	"\327\024jt\023S\234\200\202UJn\272:\215D\032\245?\353"
 339      13539C80 
 339      82554A6E 
 339      BA3A8D44 
 339      1AA53FEB 
 340 027f 0A9DD87E 		.ascii	"\012\235\330~\363N\370A\236[\206\321\252\275\323\224"
 340      F34EF841 
 340      9E5B86D1 
 340      AABDD394 
 341 028f 12B529F1 		.ascii	"\022\265)\361\316Yf\345(\023\276\342\204\315`\203\031"
 341      CE5966E5 
 341      2813BEE2 
 341      84CD6083 
 341      19
 342 02a0 48789F81 		.ascii	"Hx\237\201H\036\301\342\307\322/3\002\275\354\252w\367"
 342      481EC1E2 
 342      C7D22F33 
 342      02BDECAA 
 342      77F7
 343 02b2 AAFB3033 		.ascii	"\252\37303\017\231\306\026\207\372\237p\267\327\333"
 343      0F99C616 
 343      87FA9F70 
 343      B7D7DB
 344 02c1 D9ADC7BF 		.ascii	"\331\255\307\277\254Ux\261UM\233iG\341\231\232\344\377"
 344      AC5578B1 
 344      554D9B69 
 344      47E1999A 
 344      E4FF
 345 02d3 38447A03 		.ascii	"8Dz\003\023\233\345C&9}\372\250\033;.w\277=\231\354"
ARM GAS  /tmp/ccVf3EPN.s 			page 27


 345      139BE543 
 345      26397DFA 
 345      A81B3B2E 
 345      77BF3D99 
 346 02e8 D17F6367 		.ascii	"\321\177cg/\216\365\234\317\014\365\244\206\007\370"
 346      2F8EF59C 
 346      CF0CF5A4 
 346      8607F8
 347 02f7 7B32051E 		.ascii	"{2\005\036\313\201\324\360h\362\210\034\272t\016G\377"
 347      CB81D4F0 
 347      68F2881C 
 347      BA740E47 
 347      FF
 348 0308 00878F22 		.ascii	"\000\207\217\","
 348      2C
 349              		.text
 350              		.section	.gnu.lto_test_print.f70c133ce5f8cb68,"",%progbits
 351 0000 789C6D52 		.ascii	"x\234mR1K\\A\020\376\276\335\267\357\275;\015$\301F"
 351      314B5C41 
 351      10FEBEDD 
 351      B7EFBD3B 
 351      0D24C146 
 352 0014 11948085 		.ascii	"\021\224\200\205\012wE\260\314\2778A\323\210\036r\036"
 352      0A7745B0 
 352      CCBF3841 
 352      D3881E72 
 352      1E
 353 0025 2804B44B 		.ascii	"(\004\264K\341\336y\202\250\305a!!ZD\254\022\004K!\225"
 353      E1DE7982 
 353      A8C56121 
 353      215A44AC 
 353      12044B21 
 354 003a 567A9028 		.ascii	"Vz\220(\226\"\302a-\244O\221\313\314\355\235!\342\362"
 354      9622C261 
 354      2DA44F91 
 354      CBCCED9D 
 354      21E2F2
 355 004d DECCECCC 		.ascii	"\336\314\354\314|\337|o\367\031\030<]\357\344}%\351"
 355      7CDF7C6F 
 355      F719183C 
 355      5DEFE47D 
 355      25E9
 356 005f 51F18C41 		.ascii	"Q\361\214AS\277\004*\251a\024\002\033\202\26342v\373"
 356      53BF042A 
 356      A9611402 
 356      1B82B334 
 356      3276FB
 357 0072 1CF05957 		.ascii	"\034\360YWK\340{\035\251y\020\253\306F\216\253\323T"
 357      4BE07B1D 
 357      A97910AB 
 357      C6468EAB 
 357      D354
 358 0084 3ABEC181 		.ascii	":\276\301\201\367;\315\365\223\257\375\233_\252u\377"
 358      F73BCDF5 
 358      93AFFD9B 
 358      5FAA75FF 
 359 0094 A7D56299 		.ascii	"\247\325b\2312x\210(\022S\262\341p\333\231\350\177%"
ARM GAS  /tmp/ccVf3EPN.s 			page 28


 359      32788828 
 359      1253B2E1 
 359      70DB99E8 
 359      7F25
 360 00a6 C7E6B4D9 		.ascii	"\307\346\264\331j\355\337\036\335\337\361u\017\261D"
 360      6AEDDF1E 
 360      DDDFF175 
 360      0FB144
 361 00b5 588A7128 		.ascii	"X\212q(\323\306\230\345\201\220'\262\211R1.\243\015"
 361      D3C698E5 
 361      819027B2 
 361      8952312E 
 361      A30D
 362 00c7 B21C6ADE 		.ascii	"\262\034j\336\327\207\241\354\262\012bE`\201F\234\235"
 362      D787A1EC 
 362      B20A6245 
 362      6081469C 
 362      9D
 363 00d8 A485A8B6 		.ascii	"\244\205\250\266?Qm|:\031\235\345!\035J\214\367\360"
 363      3F516D7C 
 363      3A199DE5 
 363      211D4A8C 
 363      F7F0
 364 00ea B9E2FD4B 		.ascii	"\271\342\375K\021\366\021\277\375\206F\361\022\225@"
 364      11F611BF 
 364      FD8646F1 
 364      129540
 365 00f9 95C51D45 		.ascii	"\225\305\035E\202z\337\205$\343\030\223\321\002\224"
 365      827ADF85 
 365      24E31893 
 365      D10294
 366 0108 864428B4 		.ascii	"\206D(\2641\264\315\021\317\000\322q|S\3364@2B\241\220"
 366      31B4CD11 
 366      CF00D271 
 366      7C53DE34 
 366      403242A1 
 367 011d A803E123 		.ascii	"\250\003\341#dm\313v1\322\304\366\321h\265\001\023\362"
 367      646DCB76 
 367      31D2C4F6 
 367      D168B501 
 367      13F2
 368 012f F29D5202 		.ascii	"\362\235R\002\256\340B\002J\257&.\321\225\231\015L\223"
 368      AEE04202 
 368      4AAF262E 
 368      D195990D 
 368      4C93
 369 0141 C22D5762 		.ascii	"\302-Wb\033\250J\261\015b[\322\367\365_\273\003\335"
 369      1BA84AB1 
 369      0D625BD2 
 369      F7F55FBB 
 369      03DD
 370 0153 112EC8E9 		.ascii	"\021.\310\351\351L\352\355\310\270@\355\241\362\366"
 370      E94CEAED 
 370      C8B840ED 
 370      A1F2F6
 371 0162 B1494B2F 		.ascii	"\261IK/\376]\315\015X\2425b2\366\307m\237\316rz\274"
 371      FE5DCD0D 
ARM GAS  /tmp/ccVf3EPN.s 			page 29


 371      58A23562 
 371      32F6C76D 
 371      9FCE727A 
 372 0177 D7A834EF 		.ascii	"\327\2504\357F\272\242\302*\310\324Z\242?\332`.\227"
 372      46BAA2C2 
 372      2AC8D45A 
 372      A23FDA60 
 372      2E97
 373 0189 0FCFCAFC 		.ascii	"\017\317\312\374\362J~\261<\227/.\314h\234+\"\253~\246"
 373      F24A7EB1 
 373      3C972F2E 
 373      CC689C2B 
 373      22AB7EA6 
 374 019d B8F02137 		.ascii	"\270\360!7\361\027D\377z\307"
 374      F11744FF 
 374      7AC7
 375              		.text
 376              		.section	.gnu.lto_test_println.f70c133ce5f8cb68,"",%progbits
 377 0000 789C8D53 		.ascii	"x\234\215S\315k\023Q\020\237y\037\233\315&\261\261z"
 377      CD6B1351 
 377      109F791F 
 377      9BCD26B1 
 377      B17A
 378 0012 B0E24729 		.ascii	"\260\342G)xh\013\311A\212 \010\376\021-h/%\015\262]"
 378      78680BC9 
 378      418A2008 
 378      FE112D68 
 378      2F250DB2 
 379 0027 3050686F 		.ascii	"0Pho\036\372\022#\210\365\020z\320\252\010\006\251\250"
 379      1EFA1223 
 379      88F5107A 
 379      D0AA0806 
 379      A9A8
 380 0039 172F053F 		.ascii	"\027/\005?\016\245\2364V-\036U\012A\257\005=\347\340"
 380      0EA59E34 
 380      562D1E55 
 380      0A41AF05 
 380      3DE7E0
 381 004c 3AB36F77 		.ascii	":\263ow\373\341\241>v\337\233\2357\277\231\337\374\336"
 381      FBE1A13E 
 381      76DF9B9D 
 381      37BF99DF 
 381      FCDE
 382 005e 5B0102F6 		.ascii	"[\001\002\366\217\013\364\256J\273\242\003(Z\237\001"
 382      8F0BF4AE 
 382      4ABBA203 
 382      285A9F01 
 383 006e EAAE4065 		.ascii	"\352\256@e\015i\215\267\256\022\362\366;\000\343\351"
 383      0D698DB7 
 383      AE12F2F6 
 383      3B00E3E9 
 384 007e 66064C5E 		.ascii	"f\006L^#\262\037\020\026\204T\032\027.#\247\023C\320"
 384      23B21F10 
 384      1684541A 
 384      172E23A7 
 384      1343D0
 385 0091 3666A9BB 		.ascii	"6f\251\273\262vo\340\326\243F\313\374\011C\014\220\012"
ARM GAS  /tmp/ccVf3EPN.s 			page 30


 385      B2766FE0 
 385      D6A346CB 
 385      FC09430C 
 385      900A
 386 00a3 9F46A822 		.ascii	"\237F\250\"\\\242\017\034\214\026\241\3662\261\310\365"
 386      5CA20F1C 
 386      8C16A1F6 
 386      32B1C8F5 
 387 00b3 D71B1FDA 		.ascii	"\327\033\037\332h\226L\375w\030\366E\310\221\203\220"
 387      68964CFD 
 387      7718F645 
 387      C8918390 
 388 00c3 2FC47A37 		.ascii	"/\304z7\014\267\267V\177\364\260\277(\260\206\240\240"
 388      0CB7B756 
 388      7FF4B0BF 
 388      28B086A0 
 388      A0
 389 00d4 826D1C02 		.ascii	"\202m\034\002\015\001J\207&\345\222\3471y\262\354\361"
 389      0D014A87 
 389      26E592E7 
 389      3179B2EC 
 389      F1
 390 00e5 68D239A0 		.ascii	"h\3229\240\300<O\005\372t(\221\206\2461\255A\340z4\306"
 390      C03C4F05 
 390      FA742891 
 390      86A631AD 
 390      41E07A34 
 391 00fa 69A66627 		.ascii	"i\246f'P\320\";\320pS\226[\213\033\273Hf\004\214\035"
 391      50D0223B 
 391      D0705396 
 391      5B8B1BBB 
 391      4866048C 
 392 010f 44D2C758 		.ascii	"D\322\307X\374\011\224@J\312O\320\350,\277\034NkZ\303"
 392      FC099440 
 392      4ACA4FD0 
 392      E82CBF1C 
 392      4E6B5AC3 
 393 0123 FCBC7BB2 		.ascii	"\374\274{\262\202O\210(\020\341\025\324\224\026-\336"
 393      824F8828 
 393      10E115D4 
 393      94162DDE 
 394 0133 7D00F7EB 		.ascii	"}\000\367\353\306\024I\224k\32037\331rk\321.\027t\343"
 394      C6144994 
 394      6BD03337 
 394      D9726BD1 
 394      2E1774E3 
 395 0147 4294F71B 		.ascii	"B\224\367\033\345\255\340S\002\373\230\035\205\021\352"
 395      E5ADE053 
 395      02FB981D 
 395      8511EA
 396 0156 38C56629 		.ascii	"8\305f)\021\207\333\340i\214\352<\243P\013\235Lp\336"
 396      1187DBE0 
 396      698CEA3C 
 396      A3500B9D 
 396      4C70DE
 397 0169 283CE778 		.ascii	"(<\347x/E\346(\031#e\214\304=\310\353\2132\201\346}"
 397      2F45E628 
ARM GAS  /tmp/ccVf3EPN.s 			page 31


 397      1923658C 
 397      C43DC8EB 
 397      8B3281E6 
 398 017e CC451270 		.ascii	"\314E\022p\362\016\010\353\267]\321.\300&h\353\343\266"
 398      F20E08EB 
 398      B75DD12E 
 398      C02668EB 
 398      E3B6
 399 0190 BCA8371F 		.ascii	"\274\2507\037\013\001oY\205\024\320\345\212\025Op\271"
 399      0B016F59 
 399      8514D0E5 
 399      8A154F70 
 399      B9
 400 01a1 88DF9B1B 		.ascii	"\210\337\233\033\277\356\034O\012\025Rn\205\270d&\026"
 400      BFEE1C4F 
 400      0A15526E 
 400      85B86426 
 400      16
 401 01b2 E13D34B7 		.ascii	"\341=4\267\353g\3238\336:\264s\026_\201z\021\002\211"
 401      EB67D338 
 401      DE3AB473 
 401      165F817A 
 401      110289
 402 01c5 8CFCF8FD 		.ascii	"\214\374\370\375(W\324|\304|$\257\326\006\254\356>\252"
 402      2857D47C 
 402      C47C24AF 
 402      D606ACEE 
 402      3EAA
 403 01d7 FF167C32 		.ascii	"\377\026|2\201\350Tm\214\244V\373\244\376\007\340\304"
 403      81E8546D 
 403      8CA456FB 
 403      A4FE07E0 
 403      C4
 404 01e8 32F75908 		.ascii	"2\367Y\010\361\322\2735N~\330Mp,\202\305rxRL\351X\200"
 404      F1D2BB35 
 404      4E7ED84D 
 404      702C82C5 
 404      7278524C 
 405 01ff C55370FE 		.ascii	"\305Sp\376\241Y\276\030\340\341\370\302D\344\372\005"
 405      A159BE18 
 405      E0E1F8C2 
 405      44E4FA05 
 406 020f DDE92300 		.ascii	"\335\351#\000_\240\336\355\235I\260v\214S\013\315\014"
 406      5FA0DEED 
 406      9D49B076 
 406      8C530BCD 
 406      0C
 407 0220 A73E512A 		.ascii	"\247>Q*\225\3553\177en\276|5\230.Wg\246\330.U\301\343"
 407      95ED337F 
 407      656EBE7C 
 407      35982E57 
 407      67A6D82E 
 408 0237 75AA3A33 		.ascii	"u\252:3[:\267c\216\251\332\234?+\013\036\374\005B\250"
 408      5B3AB763 
 408      8EA9DA9C 
 408      3F2B0B1E 
 408      FC0542A8 
ARM GAS  /tmp/ccVf3EPN.s 			page 32


 409 024b DA26     		.ascii	"\332&"
 410              		.text
 411              		.section	.gnu.lto_test_emit_token.f70c133ce5f8cb68,"",%progbits
 412 0000 789C8D51 		.ascii	"x\234\215Q\317k\023Q\020\236y\273\333\204&\301\202'"
 412      CF6B1351 
 412      109E79BB 
 412      DB8426C1 
 412      8227
 413 0012 A124A117 		.ascii	"\241$\241\027\005i\326z\020\217JO=\344b[\324S\250\257"
 413      0569D67A 
 413      108F4A4F 
 413      3DE4625B 
 413      D453A8AF 
 414 0026 A159CC76 		.ascii	"\241Y\314vC6\225\026\017}iz\020\012\032D\321\250\265"
 414      43369516 
 414      0F7D697A 
 414      100A1A44 
 414      D1A8B5
 415 0039 2D227810 		.ascii	"-\"x\020\374\007\012\346\240\305Z\033\024z\350EH\015"
 415      FC070AE6 
 415      A0C55A1B 
 415      147AE845 
 415      480D
 416 004b 1E44447A 		.ascii	"\036DDz\013\"\215\363v\233\335\330Vp\330\267\363\343"
 416      0B228DF3 
 416      769BDDD8 
 416      5670D8B7 
 416      F3E3
 417 005d CD37336F 		.ascii	"\31573o>\006\014\016\312Y:?)\274K\0325@V\256\001\024"
 417      3E060C0E 
 417      CA593A3F 
 417      29BC4B1A 
 417      354056AE 
 418 0073 838C295B 		.ascii	"\203\214)[:\210nu5\012\"\254\240\352\206UDi\000\302"
 418      3A886E75 
 418      350A22AC 
 418      A0EA8655 
 418      446900C2 
 419 0087 2C53549C 		.ascii	",ST\234\275\212\262\006\353\203\025!\356\326\3376\326"
 419      BD8AB206 
 419      EB831521 
 419      EED6DF36 
 419      D6
 420 0098 59E55E75 		.ascii	"Y\345^u~Y\374n\265\020\015\244~1\004\216p\205\034\214"
 420      7E59FC6E 
 420      B5100DA4 
 420      7E31048E 
 420      70851C8C 
 421 00ac 3B8AA97F 		.ascii	";\212\251\177\017\340b\253K\265;'\336/\317\225\305\036"
 421      0FE062AB 
 421      4BB53B27 
 421      DE2FCF95 
 421      C51E
 422 00be 411DE4E9 		.ascii	"A\035\344\351#\221&\372\320W\254Zo\265Vw_|\251\340\361"
 422      239126FA 
 422      D057AC5A 
 422      6FB55677 
ARM GAS  /tmp/ccVf3EPN.s 			page 33


 422      5F7CA9E0 
 423 00d3 B00A63B8 		.ascii	"\260\012c\270\202}\240\221~F:\200&\312d\015\346\205"
 423      827DA091 
 423      7E463A80 
 423      26CA640D 
 423      E685
 424 00e5 28C74156 		.ascii	"(\307AV#\031\241\277|\303(2\251\225\032\024w\233O\327"
 424      2319A1BF 
 424      7CC32832 
 424      A9951A14 
 424      779B4FD7 
 425 00f9 D04B738D 		.ascii	"\320Ks\215\352\367\333?B\247<\257q\277\031\352\365\274"
 425      EAF7DB3F 
 425      42A73CAF 
 425      71BF19EA 
 425      F5BC
 426 010b 9D079F8F 		.ascii	"\235\007\237\217y\316\306ZC\001\352\371\234Jp\224C3"
 426      79CEC65A 
 426      4301EAF9 
 426      9C4A7094 
 426      4333
 427 011d 3A0A9DFD 		.ascii	":\012\235\375\227\"l\223\353\254>\012;\270(\036^0(\340"
 427      97226C93 
 427      EBAC3E0A 
 427      3BB8281E 
 427      5E3028E0 
 428 0131 C826CCAD 		.ascii	"\310&\314\255o\323\332\\\370\004\252\217\341QQ\210\036"
 428      6FD3DA5C 
 428      F804AA8F 
 428      E1515188 
 428      1E
 429 0142 DAC04DF8 		.ascii	"\332\300M\370%nIKu\337,W\320\336\335;x\363\265\030\361"
 429      256E494B 
 429      75DF2C57 
 429      D0DEDD3B 
 429      78F3B518 
 430 0157 406EAAB8 		.ascii	"@n\252\270L\250~x)H\026)Y3\221IPW\317!\326\245\214\322"
 430      4CA87E78 
 430      29481629 
 430      59339149 
 430      5057CF21 
 431 016f 0C5BBAB2 		.ascii	"\014[\272\262\011\245\205\322\353'\261v1\215\3529\333"
 431      09A585D2 
 431      EB27B176 
 431      318DEA39 
 431      DB
 432 0180 4677BC21 		.ascii	"Fw\274!\367\342\177\346\"\260\003\331\370\330\335\011"
 432      F7E27FE6 
 432      22B003D9 
 432      F8D8DD09 
 433 0190 1221C3AB 		.ascii	"\022!\303\253\012\373\211\201\366\014\252OB3r\230\203"
 433      0AFB8981 
 433      F60CAA4F 
 433      42337298 
 433      83
 434 01a1 BD50AC83 		.ascii	"\275P\254\203\203\245H\264\203O\217\214\246O\306\302"
 434      83A548B4 
ARM GAS  /tmp/ccVf3EPN.s 			page 34


 434      834F8F8C 
 434      A64FC6C2 
 435 01b1 8792E693 		.ascii	"\207\222\346\223!O\227\354\303\251!\307`\233\217o\377"
 435      214F97EC 
 435      C3A921C7 
 435      609B8F6F 
 435      FF
 436 01c2 E4E31314 		.ascii	"\344\343\023\024\353\225\223.\276-#D*\015)\001\275\211"
 436      EB95932E 
 436      BE2D2344 
 436      2A0D2901 
 436      BD89
 437 01d4 84EE7E85 		.ascii	"\204\356~\205\264]\320\263\3065\235gR\322Np\010I\235"
 437      B45DD0B3 
 437      C6359D67 
 437      52D24E70 
 437      08499D
 438 01e7 2A58D773 		.ascii	"*X\327s\211\363a\337\03683\340\241,[\347\226iZ\223z"
 438      89F361DF 
 438      1E3833E0 
 438      A12C5BE7 
 438      96695A93 
 439 01fc 7ABAA00F 		.ascii	"z\272\240\017&\207\207\206uc\222g\247\306\323:7m\303"
 439      26878786 
 439      75639267 
 439      A7C6D33A 
 439      376DC3
 440 020f 4E4D709E 		.ascii	"NMp\236\310@\377\021\210\234\225/\330\372\305K\311\301"
 440      C840FF11 
 440      889C952F 
 440      D8FAC54B 
 440      C9C1
 441 0221 E43475E5 		.ascii	"\3444u\345V>\235\272q\316\244\354Xgv\276\340W\314\330"
 441      563E9DBA 
 441      71CEA4EC 
 441      586776BE 
 441      E057CCD8 
 442 0235 33F6C1FB 		.ascii	"3\366\301\373\314X\226\024\375(Qj\272\017\362\234m\214"
 442      CC589614 
 442      FD28516A 
 442      BA0FF29C 
 442      6D8C
 443 0247 C70D0898 		.ascii	"\307\015\010\230i\323\312\317\270\2014\005\376\000\220"
 443      69D3CACF 
 443      B8813405 
 443      FE0090
 444 0256 9F0C00   		.ascii	"\237\014\000"
 445              		.text
 446              		.section	.gnu.lto_test_emit_token_i.f70c133ce5f8cb68,"",%progbits
 447 0000 789C8D52 		.ascii	"x\234\215R\277KBQ\024>\347\336\253\210\031\010MA\244"
 447      BF4B4251 
 447      143EE7DE 
 447      AB881908 
 447      4D41A4
 448 0013 B8B4D47B 		.ascii	"\270\264\324{XK\377B\273RMb\022%%\005\2715x\237\032"
 448      584BFF42 
 448      BB524D62 
ARM GAS  /tmp/ccVf3EPN.s 			page 35


 448      12252505 
 448      B935789F 
 449 0028 040D4938 		.ascii	"\004\015I8\364\003A\2116\261\266\226\006\207\206,\222"
 449      F4034189 
 449      36B1B696 
 449      0687862C 
 449      92
 450 0039 02B71609 		.ascii	"\002\267\026\011\202\240\271%\242\327\271\357\252\331"
 450      82A0B925 
 450      A2D7B9EF 
 450      AAD9
 451 0047 8FA1C37B 		.ascii	"\217\241\303{\357;\367\336\363}\347\273\207\307\200"
 451      EF3BF7DE 
 451      F37DE7BB 
 451      87C780
 452 0056 C1CF98A4 		.ascii	"\301\317\230\244\367\031\001\246\011\321\005\310\012"
 452      F71901A6 
 452      09D105C8 
 452      0A
 453 0063 4D00CBC3 		.ascii	"M\000\313\303\030o\231 \275\342b\024\244\217\243\320"
 453      186F9920 
 453      BDE26214 
 453      A48FA3D0 
 454 0073 DB025125 		.ascii	"\333\002Q%\200\220a\\`f\036\225\006\013AE\312\275\366"
 454      8090615C 
 454      60661E95 
 454      060B4145 
 454      CABDF6
 455 0086 D64B831D 		.ascii	"\326K\203\035\024\353\371\262|\267m\304$R\277\000B\002"
 455      14EBF9B2 
 455      7CB76DC4 
 455      2452BF00 
 455      4202
 456 0098 618E1618 		.ascii	"a\216\026\030t\200\211\357\0064\267\376\320\334\035"
 456      748089EF 
 456      0634B7FE 
 456      D0DC1D
 457 00a7 BE2E670B 		.ascii	"\276.g\013\362\203\250\016s\374Of\012\277\250\247\254"
 457      F283A80E 
 457      73FC4F66 
 457      0ABFA8A7 
 457      AC
 458 00b8 DEB6EDEA 		.ascii	"\336\266\355\352\353\331c\015\207<\034\342X\301\020"
 458      EBD9630D 
 458      873C1CE2 
 458      58C110
 459 00c7 08C26342 		.ascii	"\010\302cB7\246P\025\273 /e!\010J\215\"B_u\207(2\205"
 459      37A65015 
 459      BB202F65 
 459      21084A8D 
 459      22425F75 
 460 00df FC16B28D 		.ascii	"\374\026\262\215}2\036\307\023\272\377\022\362#8\264"
 460      7D321EC7 
 460      13BAFF12 
 460      F22338B4 
 461 00ef A4F49387 		.ascii	"\244\364\223\207Mx\223\333*\343\272\2532\301;\275\257"
 461      4D7893DB 
ARM GAS  /tmp/ccVf3EPN.s 			page 36


 461      2AE3BAAB 
 461      32C13BBD 
 461      AF
 462 0100 E0F2C91A 		.ascii	"\340\362\311\032\354\221t\251\234%\326\004T%E\211\212"
 462      EC9174A9 
 462      9C25D604 
 462      54254589 
 462      8A
 463 0111 450A9922 		.ascii	"E\012\231\"\271\374\277\346\256\"Jj-\223\034\344vr\347"
 463      B9FCBFE6 
 463      AE224A6A 
 463      2D931CE4 
 463      7672E7
 464 0124 A540574C 		.ascii	"\245@WL\220\236s_\325\224\354\315\350\203\377\370\""
 464      909E735F 
 464      D594ECCD 
 464      E883FFF8 
 464      22
 465 0135 B243B9B9 		.ascii	"\262C\271\271\363\366\223\344@\262\247\012\235Bw\327"
 465      F3F693E4 
 465      40B2A70A 
 465      9D4277D7 
 466 0145 8370C670 		.ascii	"\203p\306p\017V\2736\246I\335\210\320\374\350L\3754"
 466      0F56BB36 
 466      A649DD88 
 466      D0FCE84C 
 466      FD34
 467 0157 238661EA 		.ascii	"#\206a\352'\275\270\2216W\223\013fb9\246r#\001>\205"
 467      27BDB891 
 467      3657930B 
 467      666239A6 
 467      7223013E 
 468 016c B1F4DACA 		.ascii	"\261\364\332\312\272\021\016\367/\246>\001\005\350\211"
 468      BA110EF7 
 468      2FA63E01 
 468      05E889
 469 017b E8       		.ascii	"\350"
 470              		.text
 471              		.section	.gnu.lto_test_execute.f70c133ce5f8cb68,"",%progbits
 472 0000 789CED9A 		.ascii	"x\234\355\232ypTE\036\307\373\367&\307\344\200p\344"
 472      79705445 
 472      1EC7FBF7 
 472      26C7E480 
 472      70E4
 473 0012 20814C26 		.ascii	" \201L&\341\31299@\020\\WY\004E\271C\220S\034\206\341"
 473      E1CA3939 
 473      40105C57 
 473      590445B9 
 473      4390531C 
 474 0028 65709260 		.ascii	"ep\222`\022PDe \011\204K\021/<V\005E\026(Ea\025\020"
 474      12504465 
 474      2009844B 
 474      112F3C56 
 474      05451628 
 475 0040 90CCB2AE 		.ascii	"\220\314\262\256\"\036\245\353\356*hm\274u\313RK\254"
 475      221EA5EB 
 475      EE2A686D 
ARM GAS  /tmp/ccVf3EPN.s 			page 37


 475      BC75CB52 
 475      4BAC
 476 0052 DA5DDD32 		.ascii	"\332]\3352\373\353\376\365{\363\336\274\227l\202\377"
 476      FBEBFEF5 
 476      7BF3DEBC 
 476      976C82FF 
 477 0062 EC1FA6A8 		.ascii	"\354\037\246\250\351\356_\177\177\277~\335\375\351~"
 477      E9EE5F7F 
 477      7FBF7EDD 
 477      FDE97E
 478 0071 3D3D284C 		.ascii	"==(La\321\177Uh\312)b\354m`\014F0P\266\275\301\330Z"
 478      61D17F55 
 478      68CA2962 
 478      EC6D600C 
 478      463050B6 
 479 0089 A7023194 		.ascii	"\247\0021\224qP&\354\214Q\034[^f,\224\030\333\034\317"
 479      715026EC 
 479      8C511C5B 
 479      5E662C94 
 479      18DB1CCF 
 480 009d 42C9B110 		.ascii	"B\311\261\020O\2028\312\204\235\361J\034\011\234B\340"
 480      4F8238CA 
 480      849DF14A 
 480      1C099C42 
 480      E0
 481 00ae 84441224 		.ascii	"\204D\022$P&\354LT\022H\220$\004IPH\202d\350M\231^\224"
 481      5026EC4C 
 481      54124890 
 481      24044950 
 481      488264E8 
 482 00c6 093B7B2B 		.ascii	"\011;{+\275H\231\"\224)\320\227\004}(\023v\366U\372"
 482      BD489922 
 482      9429D097 
 482      047D2813 
 482      76F655FA 
 483 00da 90A09F10 		.ascii	"\220\240\237\020\364\203T\022\364\247L\330\231\252\364"
 483      F4835412 
 483      F4A74CD8 
 483      99AAF4
 484 00e9 27419A10 		.ascii	"'A\232\020\244A\006\011\322)\023vf(\351$\030 \004\003"
 484      A4410609 
 484      D2291376 
 484      6628E924 
 484      18200403 
 485 00fd 94CCE3A3 		.ascii	"\224\314\343\243\2614\354\235t,e\302@\256\202,J\303"
 485      B134EC9D 
 485      742C65C2 
 485      40AE822C 
 485      4AC3
 486 010f CE814A16 		.ascii	"\316\201J\026\251\007\011\365 pQ\270l\312\204\235.%"
 486      A90709F5 
 486      207051B8 
 486      6CCA849D 
 486      2E25
 487 0121 9B043942 		.ascii	"\233\0049B\220\003\271$pS&\354\314U\334$\310\023\202"
 487      9003B924 
 487      705326EC 
ARM GAS  /tmp/ccVf3EPN.s 			page 38


 487      CC55DC24 
 487      C81382
 488 0134 3C184282 		.ascii	"<\030B\202\301\224\011;\207(\203I0T\010\206\302p\022"
 488      C194093B 
 488      87288349 
 488      30540886 
 488      C27012
 489 0147 0CD332C3 		.ascii	"\014\3232\303!\237\224\371J2)\013\204\262\200\3061\354"
 489      219F94F9 
 489      4A32290B 
 489      84B280C6 
 489      31EC
 490 0159 2C548AC8 		.ascii	",T\212\310^,\354E\244\207b\360P\200\022\312\204\235"
 490      5E2CEC45 
 490      A48762F0 
 490      508012CA 
 490      849D
 491 016b 1EA58484 		.ascii	"\036\245\204\204\245BX\252\224\035wa\251\374\235R,\225"
 491      A54258AA 
 491      941D7761 
 491      A9FC9D52 
 491      2C95
 492 017d 4105C9CB 		.ascii	"A\005\311\313\265L\005\000\3170`k\024GLl\\\2743!1)\271"
 492      B54C0500 
 492      CF30606B 
 492      14474C6C 
 492      5CBC3321 
 493 0194 57EF943E 		.ascii	"W\357\224>}\373\365OMK\317\030\220\2315pP\266+\307\235"
 493      7DFBF54F 
 493      4D4BCF18 
 493      90993570 
 493      50B62BC7 
 494 01a9 9B3778C8 		.ascii	"\2337x\310\320a\303\363\013\012\213\212K<\245e\345\025"
 494      D061C3F3 
 494      0B0A8B8A 
 494      4B3CA565 
 494      E515
 495 01bb B0662E70 		.ascii	"\260f.p\314\\ylg(\264\275\275\345\311\037\034\017\334"
 495      CC5C796C 
 495      6728B4BD 
 495      BDE5C91F 
 495      1C0FDC
 496 01ce D3D6FC58 		.ascii	"\323\326\374X\350?\035\035\000\001@$s\200\371\200\315"
 496      E83F1D1D 
 496      00014024 
 496      7380F980 
 496      CD
 497 01df C102B845 		.ascii	"\301\002\270E\242\304\230\031%\337\266\023\333\267f"
 497      A2C49819 
 497      25DFB613 
 497      DBB766
 498 01ee 6C6A0F6D 		.ascii	"lj\017m\013\375\204\256\001p(lH\304\323I\236`\353\371"
 498      0BFD84AE 
 498      0170286C 
 498      48C4D349 
 498      9E60EBF9 
 499 0202 D6F6FB32 		.ascii	"\326\366\37327=\266N\363\3046Gw\263\315\273\356>\266"
ARM GAS  /tmp/ccVf3EPN.s 			page 39


 499      373DB64E 
 499      F3C43647 
 499      77B3CDBB 
 499      EE3EB6
 500 0215 1342EB43 		.ascii	"\023B\353Ck\277\355\350H\021m^\321\2556\267\265=\360"
 500      6BBFEDE8 
 500      48116D5E 
 500      D1AD36B7 
 500      B53DF0
 501 0228 E619086D 		.ascii	"\346\031\010m\327\034c\024\324v\247\311m\241\347\226"
 501      D71C6314 
 501      D476A7C9 
 501      6DA1E796 
 502 0238 BC126A6E 		.ascii	"\274\022jn\353\350\270Lx\315\353\346\203\336oj.Va\013"
 502      EBE8B84C 
 502      78CDEBE6 
 502      83DE6F6A 
 502      2E56610B 
 503 024c BAE978F4 		.ascii	"\272\351x\364\314\253;\015\236q\012\363^X\223^x\032"
 503      CCAB3B0D 
 503      9E710AF3 
 503      5E58935E 
 503      781A
 504 025e 940B6BD3 		.ascii	"\224\013k\323\013\317t\327\365\227F\177i\364\227F\177"
 504      0BCF74D7 
 504      F597467F 
 504      69F49746 
 504      7F
 505 026f 69F4FFA0 		.ascii	"i\364\377\240\321\003J[{G\307\361\177\377\356\343\263"
 505      D1034A5B 
 505      7B47C7F1 
 505      7FFFEEE3 
 505      B3
 506 0280 90BA0700 		.ascii	"\220\272\007\0007\316\275\220\307\370\006\272\037S'"
 506      37CEBD90 
 506      C7F806BA 
 506      1F5327
 507 028f D4004B63 		.ascii	"\324\000Kc\001\210O\347\037\031h\336\211\346\001X`\231"
 507      01884FE7 
 507      1F1968DE 
 507      89E60158 
 507      6099
 508 02a1 DC92851F 		.ascii	"\334\222\205\037\316l\374\210q\341GB.\317\345\361\334"
 508      CE6CFC88 
 508      71E14742 
 508      2ECFE5F1 
 508      DC
 509 02b2 505E3B0C 		.ascii	"P^;\014\365'P?\234\027\362\271\264\000-\307\320R\302"
 509      F527503F 
 509      9C17F2B9 
 509      B4002DC7 
 509      D052C2
 510 02c5 2D1ED94A 		.ascii	"-\036\331J)/\224\361\352\012\264<\216\226\221\230\356"
 510      292F94F1 
 510      EA0AB43C 
 510      8E969198 
 510      EE
ARM GAS  /tmp/ccVf3EPN.s 			page 40


 511 02d6 C6740CA6 		.ascii	"\306t\014\246\2470\275T>\3278L\367`z\205L'\240S\342"
 511      A730BD54 
 511      3ED7384C 
 511      F7607A85 
 511      4C27A053 
 512 02eb 442C1CC0 		.ascii	"D,\034\300\302\225XH\272\012?\222'\241\345)\264\\-\323"
 512      C2955848 
 512      BA0A3F92 
 512      27A1E529 
 512      B45C2DD3 
 513 02ff 6BD0D86B 		.ascii	"k\320\330k2\026\016ba\012\227M\345\262ihy\026-\323e"
 513      32160E62 
 513      610A974D 
 513      E5B26968 
 513      79162DD3 
 514 0314 3A83CB66 		.ascii	":\203\313fb\341\367X\250\344\262Y\\V\205\226Ch\231-"
 514      62E1F758 
 514      A8E4B259 
 514      5C568596 
 514      4368992D 
 515 0328 D36BB96C 		.ascii	"\323k\271l\016\026\236\307\302\\.\233\307e\363\321\362"
 515      0E169EC7 
 515      C25C2E9B 
 515      C765F3D1 
 515      F2
 516 0339 1C5A16C8 		.ascii	"\034Z\026\310t!\227]\207\205#XX\304e\327s\231\027-\207"
 516      7421975D 
 516      87852358 
 516      58C465D7 
 516      7399172D 
 517 034e D1B258A6 		.ascii	"\321\262X\246>.[\202\205\027\260\340\347\262\245\\\246"
 517      3E2E5B82 
 517      8517B0E0 
 517      E7B2A55C 
 517      A6
 518 035f A2E5285A 		.ascii	"\242\345(Z\252e\032\340\262eX8\216\205\033\270,\310"
 518      AA651AE0 
 518      B2655838 
 518      8E851BB8 
 518      2CC8
 519 0371 6535723C 		.ascii	"e5r<keZ\307e\313\261\360\"\026n\344\262z.k\220\023\321"
 519      6B655AC7 
 519      65CBB1F0 
 519      22166EE4 
 519      B27A2E6B 
 520 0388 28D3155C 		.ascii	"(\323\025\\\266\022\013mX\270\211\313n\346\262Uh9\211"
 520      B6120B6D 
 520      58B889CB 
 520      6EE6B255 
 520      683989
 521 039b 965B64BA 		.ascii	"\226[d\272\232\313n\305\302\037\260p\033\227\335\316"
 521      9ACB6EC5 
 521      C21FB070 
 521      1B97DDCE 
 522 03ab 656BD012 		.ascii	"ek\320\022FK\010df-p\341:^\374#\026\233x1\251\231\177"
 522      464B0864 
 522      662D70E1 
ARM GAS  /tmp/ccVf3EPN.s 			page 41


 522      3A5EFC23 
 522      169B7831 
 523 03c2 26B7809C 		.ascii	"&\267\200\234\302\365Zf\203\020\267\362\342\237\260"
 523      C2F55A66 
 523      8310B7F2 
 523      E29FB0
 524 03d1 B8518837 		.ascii	"\270Q\2107\011\361fn|\011\215[\264\314V!FPcY3\036,\334"
 524      09F1666E 
 524      7C098D5B 
 524      B4CC5621 
 524      46506359 
 525 03e9 840161C3 		.ascii	"\204\001a\3038\333\3707\013?\023X\025\262\236\340x\235"
 525      38DBF837 
 525      0B3F1358 
 525      15B29EE0 
 525      789D
 526 03fb AD3BF3EE 		.ascii	"\255;\363\356\371\017\301\013/C,{\210=\2706\024\352"
 526      F90FC10B 
 526      2F432C7B 
 526      883DB836 
 526      14EA
 527 040d 836B6135 		.ascii	"\203ka5\373!\324\312s\275k\200;\361\265\320[\254\000"
 527      FB21D4CA 
 527      73BD6B80 
 527      3BF1B5D0 
 527      5BAC00
 528 0420 158F40EC 		.ascii	"\025\217@\354M\326\334\376\346\347\361\344\305\230\256"
 528      4DD6DCFE 
 528      E6E7F1E4 
 528      C598AE
 529 042f 4EF1019D 		.ascii	"N\361\001\235\214\270eG(4#\000}\\,\370\333\320\216\313"
 529      8CB86547 
 529      28342300 
 529      7D5C2CF8 
 529      DBD08ECB 
 530 0443 03D09749 		.ascii	"\003\320\227I}\000\372Q\210\367\272\027\242\277\213"
 530      7D00FA51 
 530      88F7BA17 
 530      A2BF8B
 531 0452 D5528854 		.ascii	"\325R\210TK\210\017\272\027\"\315\205\003G1\322M1N\263"
 531      4B880FBA 
 531      1722CD85 
 531      034731D2 
 531      4D314EB3 
 532 0466 756D3964 		.ascii	"um9d \366\311\247\355\304\235\270%d\270\330\035\322"
 532      20F6C9A7 
 532      EDC49DB8 
 532      2564B8D8 
 532      1DD2
 533 0478 6B80E645 		.ascii	"k\200\346E\177U\340`\3571>|\247w\034.\220\203\255\215"
 533      7F55E060 
 533      EF313E7C 
 533      A7771C2E 
 533      9083AD8D 
 534 048c 7AE8C747 		.ascii	"z\350\307G\262)\030\223^>Ph\354&vg\210\031\303\270g"
 534      B2291893 
 534      5E3E5068 
ARM GAS  /tmp/ccVf3EPN.s 			page 42


 534      EC267667 
 534      8819C3B8 
 535 04a1 31AE17FE 		.ascii	"1\256\027\376\202\316*\\Y\304\012q\322u\337L\014\304"
 535      82CE2A5C 
 535      59C40A71 
 535      D275DF4C 
 535      0CC4
 536 04b3 E57142BC 		.ascii	"\345qB\274\030D;\177\245\247C\327y\232\337UEl\037\327"
 536      18443B7F 
 536      A5A743D7 
 536      799ADF55 
 536      456C1FD7 
 537 04c7 67E99E03 		.ascii	"g\351\236\0031\030\367L\222\236`\362l\332\354\320\\"
 537      3118F74C 
 537      929E60F2 
 537      6CDAECD0 
 537      5C
 538 04d8 AF566192 		.ascii	"\257Va\222~\322=\315\024\262S\257\260\226\017~,\331"
 538      7ED23DCD 
 538      14B253AF 
 538      B0960F7E 
 538      2CD9
 539 04ea 78B7AE12 		.ascii	"x\267\256\022}S\341\232\000\014\322\006(\206}\304\034"
 539      7D53E19A 
 539      000CD206 
 539      28867DC4 
 539      1C
 540 04fb 38BC4EA6 		.ascii	"8\274N\246\273M\022\217\367B\3137\367ei\355\\\243?Z"
 540      BB4D128F 
 540      F742CB37 
 540      F76569ED 
 540      5CA33F5A 
 541 050f B66C511B 		.ascii	"\266lQ\033\343WX\363WkG\350:^\345\212l\304\357\261I"
 541      E35758F3 
 541      576B47E8 
 541      3A5EE58A 
 541      6CC4EFB1 
 542 0524 A699F2C2 		.ascii	"\246\231\362\302;X-\347H\001|D\307k\347R\371s\304\""
 542      3B582DE7 
 542      48017C44 
 542      C76BE752 
 542      F973C422 
 543 0538 E69C94BF 		.ascii	"\346\234\224\277w\203\024G\000r\\l\227\234sw\347\244"
 543      77831447 
 543      00725C6C 
 543      979C7377 
 543      E7A4
 544 054a 3C1B21E5 		.ascii	"<\033!\345\317\222\224\027:#%\256\013R\366<\232M\301"
 544      CF929417 
 544      3A2325AE 
 544      0B52F63C 
 544      9A4DC1
 545 055d 2CA44CEE 		.ascii	",\244L\356!)\237\210a\232b%e\262\205\224O\215\244\220"
 545      21299F88 
 545      619A6225 
 545      65B28594 
 545      4F8DA490 
ARM GAS  /tmp/ccVf3EPN.s 			page 43


 546 0571 DF543B52 		.ascii	"\337T;R\246XH\371\324D\012\271NWa\232\231\224O\364!"
 546      A65848F9 
 546      D4440AB9 
 546      4E57619A 
 546      99944FF4 
 547 0586 C25A49CA 		.ascii	"\302ZI\312'\222\224\251\242o*\3140\220\022o$\205\334"
 547      279294A9 
 547      A26F2ACC 
 547      3090126F 
 547      2485DC
 548 0599 A61949A1 		.ascii	"\246\031I\241vf\030I\231fG\212\324YH\231f\232)/|\034"
 548      76661849 
 548      9966478A 
 548      D4594899 
 548      669A292F 
 549 05af 21251649 		.ascii	"!%\026I\231\036'IqJR\376\321\275=%\327\305\336\220s"
 549      991E2749 
 549      714A52FE 
 549      D1BD3D25 
 549      D7C5DE90 
 550 05c4 9ED73929 		.ascii	"\236\3279)\207\"\244\234\223\244\374\320\031)\011]\220"
 550      8722A49C 
 550      93A4FCD0 
 550      1929095D 
 550      90
 551 05d5 72989372 		.ascii	"r\230\223r\310\216\224\231=$\345\274\030\246J+)3-\244"
 551      C88E9499 
 551      3D24E5BC 
 551      18A64A2B 
 551      29332DA4 
 552 05e9 7C6F2485 		.ascii	"|o$\205\374f\331\221Ri!\345{\023)\344:[\205*3)\347\365"
 552      FC66D991 
 552      526921E5 
 552      7B1329E4 
 552      3A5B852A 
 553 0601 21C25A49 		.ascii	"!\302ZI\312yI\312,\3217\025\2565\220\222h$\205\334\252"
 553      CA7949CA 
 553      2CD13715 
 553      AE359092 
 553      682485DC 
 554 0616 8CA4503B 		.ascii	"\214\244P;\327\032I\251\262#E\352,\244T\231f\312\013"
 554      D71A49A9 
 554      B22345EA 
 554      2CA45499 
 554      66CA0B
 555 0629 DF454871 		.ascii	"\337EHq\")\263\023$)I\222\224\257\273G\312`|\217(4\347"
 555      2229B313 
 555      24294992 
 555      94AFBB47 
 555      CA607C8F 
 556 0640 432C6FB0 		.ascii	"C,o\260\037\177\336{\024;\177\344H\307\207J\324\033"
 556      1F7FDE7B 
 556      143B7FE4 
 556      48C7874A 
 556      D41B
 557 0652 DCA1C71A 		.ascii	"\334\241\307\032Z#@\341}\035*b\362\234\203\211)X\327"
 557      5A2340E1 
ARM GAS  /tmp/ccVf3EPN.s 			page 44


 557      7D1D2A62 
 557      F29C8389 
 557      2958D7
 558 0665 FED31ED0 		.ascii	"\376\323\036\320H\345'\005^\247\037y\253 \2315\307c"
 558      48E52705 
 558      5EA71F79 
 558      AB209935 
 558      C763
 559 0677 479BDA37 		.ascii	"G\233\3327\355M\264<\3440\037\205\301\347\030.\347\223"
 559      ED4DB43C 
 559      E4301F85 
 559      C1E7182E 
 559      E793
 560 0689 023D1741 		.ascii	"\002=\027A\376\376\355i\001\310w\261#\262\373\005\321"
 560      FEFEED69 
 560      01C877B1 
 560      23B2FB05 
 560      D1
 561 069a C8F7625B 		.ascii	"\310\367b[^\356\224\371\003O\024P4\013\363sz\310|\253"
 561      5EEE94F9 
 561      034F1450 
 561      340BF373 
 561      7AC87CAB 
 562 06ae C2277CAE 		.ascii	"\302'|\256\225\3719\026\3467*\006\346\311o\236\035\363"
 562      95F93916 
 562      E6372A06 
 562      E6C96F9E 
 562      1DF3
 563 06c0 732DCCEB 		.ascii	"s-\314\353\236\202yr]\240\302|3\363\334N\275\302Z\311"
 563      9E827972 
 563      5DA0C27C 
 563      33F3DC4E 
 563      BDC25AC9 
 564 06d4 7CAB42CC 		.ascii	"|\253B\314\317\023}Sa\241\201\371\336l\333\033\021\350"
 564      CF137D53 
 564      61A181F9 
 564      DE6CDB1B 
 564      11E8
 565 06e6 C96FBE11 		.ascii	"\311o\276\021zjh\241\021\372\371v\320K\235\005\372\371"
 565      7A6A68A1 
 565      11FAF976 
 565      D04B9D05 
 565      FAF9
 566 06f8 A6B9F2C2 		.ascii	"\246\271\362\302\006E\207>\031\241_\320KB\237\302a\300"
 566      0645873E 
 566      19A15FD0 
 566      4B429FC2 
 566      61C0
 567 070a CEB5361D 		.ascii	"\316\2656\035z\242\204\004*o\014\0044@c\366u\323>\320"
 567      7AA28404 
 567      2A6F0C04 
 567      344063F6 
 567      75D33ED0 
 568 071e EA5C58CD 		.ascii	"\352\\X\315;\030cA\247\320')CQ\000\212L\364\034\216"
 568      3B186341 
 568      A7D02729 
 568      4351008A 
ARM GAS  /tmp/ccVf3EPN.s 			page 45


 568      4CF41C8E 
 569 0732 D0F360BF 		.ascii	"\320\363`\277\000\024\273\330+\022\236\222hx\372t\005"
 569      0014BBD8 
 569      2B129E92 
 569      6878FA74 
 569      05
 570 0743 CF610ECF 		.ascii	"\317a\016\317a;x\256\353!<\367\212\201[d\205\347:\013"
 570      613B78AE 
 570      EB213CF7 
 570      8A815B64 
 570      85E73A0B 
 571 0757 3CF719E1 		.ascii	"<\367\031\341!\277\353\355\340Yd\201\347>\023<\344\272"
 571      21BFEBED 
 571      E0596481 
 571      E73E133C 
 571      E4BA
 572 0769 5805AF19 		.ascii	"X\005\257\031\236{\025m\210\260V\302s\257\204\347z\321"
 572      9E7B156D 
 572      88B056C2 
 572      73AF84E7 
 572      7AD1
 573 077b 37157C06 		.ascii	"7\025|\006x\372\232\340!?\257\021\036j\310g\204\307"
 573      78FA9AE0 
 573      213FAF11 
 573      1E6AC867 
 573      84C7
 574 078d 6B078FD4 		.ascii	"k\007\217\324Y\340\361\312\251z\210\303S\354\205{\""
 574      59E0F1CA 
 574      A97A88C3 
 574      53EC857B 
 574      22
 575 079e F0A4203C 		.ascii	"\360\244 <\213\373Hx\372\351\360\034\213\300\223\253"
 575      8BFB4878 
 575      FAE9F01C 
 575      8BC093AB 
 576 07ae 82D2193C 		.ascii	"\202\322\031<yX\375?\341\311\213\206\347h\004\236G\020"
 576      7958FD3F 
 576      E1C98B86 
 576      E768049E 
 576      4710
 577 07c0 1E8F8B9D 		.ascii	"\036\217\213\235\221\360\224F\303\323\277+xNrx"
 577      91F09446 
 577      C3D3BF2B 
 577      784E7278 
 578 07d0 8EDAC1B3 		.ascii	"\216\332\301\263\244\207\360\354\022\003\347\267\302"
 578      A487F0EC 
 578      1203E7B7 
 578      C2
 579 07dd B3C402CF 		.ascii	"\263\304\002\317\343Fx\310o\251\035<~\013<\217\233\340"
 579      E34678C8 
 579      6FA91D3C 
 579      7E0B3C8F 
 579      9BE0
 580 07ef 21D76A15 		.ascii	"!\327j\025T3<\273\024m\210\260V\302\263K\302\263T\364"
 580      54333CBB 
 580      146D88B0 
 580      56C2B34B 
ARM GAS  /tmp/ccVf3EPN.s 			page 46


 580      C2B354F4 
 581 0803 4D858001 		.ascii	"M\205\200\001\236T\023<\344\247\032\341\241\206\002"
 581      9E54133C 
 581      E4A71AE1 
 581      A18602
 582 0812 4678543B 		.ascii	"FxT;x\244\316\002\217*\247\352Q\016\217\307\013;#\360"
 582      78A4CE02 
 582      8F2AA7EA 
 582      510E8FC7 
 582      0B3B23F0 
 583 0826 F44378AA 		.ascii	"\364Cx\252\373Kx\322\010\236u\357\357x\362#\207\006"
 583      FB4B78D2 
 583      089E75EF 
 583      EF78F223 
 583      8706
 584 0838 C8D01256 		.ascii	"\310\320\022V\034\200x\275\3612}:\312k\304\213\2117"
 584      1C8078BD 
 584      F1327D3A 
 584      CA6BC48B 
 584      8937
 585 084a 572E4189 		.ascii	"W.A\211\334\327\3631j\372I\307l8\006R\361$&z\025\253"
 585      DCD7F331 
 585      6AFA49C7 
 585      6C380652 
 585      F124267A 
 586 0860 59F3312A 		.ascii	"Y\3631*zW`=\217\022o\230\324g\0225Q\201\234\233\021"
 586      7A57603D 
 586      8F126F98 
 586      D4671235 
 586      51819C9B 
 587 0875 F408A17B 		.ascii	"\364\010\241{Q9\022}\271G\205\234\035\355\3077~$,\320"
 587      5139127D 
 587      B947859C 
 587      1DEDC737 
 587      7E242CD0 
 588 0889 203D2646 		.ascii	" =&F\262@\033\346\364\256@\374\230\203x\314\016\304"
 588      B2401BE6 
 588      F4AE40FC 
 588      988378CC 
 588      0EC4
 589 089b 653D04F1 		.ascii	"e=\004\361\240\230\204\033\254 .\263\200x\310\010\""
 589      A098841B 
 589      AC202EB3 
 589      8078C808 
 589      22
 590 08ac F905ED40 		.ascii	"\371\005\355@\274\301\002\342!\023\210\344Z\253B\215"
 590      BCC102E2 
 590      211388E4 
 590      5AAB428D 
 591 08bc 19C4834A 		.ascii	"\031\304\203Jd\030j%\210\007%\210A\3217\025\352\014"
 591      64186A25 
 591      88072588 
 591      41D13715 
 591      EA0C
 592 08ce 20669840 		.ascii	" f\230@$\277\032#\210\324P\235\021\304\032;\020\245"
 592      24BF1A23 
 592      88D4509D 
ARM GAS  /tmp/ccVf3EPN.s 			page 47


 592      11C41A3B 
 592      10A5
 593 08e0 CE02620D 		.ascii	"\316\002b\015NG\032\022W\233.\211\033@\007\237\346\366"
 593      4E471A12 
 593      579B2E89 
 593      1B40079F 
 593      E6F6
 594 08f2 07BEB41E 		.ascii	"\007\276\264\036|\242Ogs\305[\352\315\350\267\224\376"
 594      7CA24F67 
 594      73C55BEA 
 594      CDE8B794 
 594      FE
 595 0903 5DA0880C 		.ascii	"]\240\210\014\372\205\345)\010m\322n\035/R\330\333J"
 595      FA85E529 
 595      086DD26E 
 595      1D2F52D8 
 595      DB4A
 596 0915 E4C7973E 		.ascii	"\344\307\227>t\353\030\365\233-\267\215z\205\267\211"
 596      74EB18F5 
 596      9B2DB78D 
 596      7A85B789 
 597 0925 8FF4ED81 		.ascii	"\217\364\355\201\375\007\267fGq\322v\346\365F/\274\250"
 597      FD07B766 
 597      4771D276 
 597      E6F5462F 
 597      BCA8
 598 0937 1839919D 		.ascii	"\0309\221\235\327\037{\264\217\337q\206i\206\264\220"
 598      D71F7BB4 
 598      8FDF7186 
 598      6986B490 
 599 0947 01B8580C 		.ascii	"\001\270X\014\344\373G\366|\247/\255\222\237\261\264"
 599      E4FB47F6 
 599      7CA72FAD 
 599      929FB1B4 
 600 0957 9E54B428 		.ascii	"\236T\264(\245\030H_Z-O\353K\256L_\\\245\306\305e\267"
 600      A518485F 
 600      5A2D4FEB 
 600      4BAE4C5F 
 600      5CA5C6C5 
 601 096d D58FF1C9 		.ascii	"\325\217\361\311j\364\012\300X\021\352\364\273{\336"
 601      6AF40AC0 
 601      5811EAF4 
 601      BB7BDE
 602 097c D66355D8 		.ascii	"\326cU\330\037xc\230\361\300K\363\037\361\321\017\300"
 602      1F786398 
 602      F1C04BF3 
 602      1FF1D10F 
 602      C0
 603 098d DA5F1564 		.ascii	"\332_\025d\262\216\030\007'a\230\334\222NnO\027w\001"
 603      B28E1807 
 603      276198DC 
 603      924E6E4F 
 603      177701
 604 09a0 FF54A2EE 		.ascii	"\377T\242\356\002\006\000\327g\261\023\025\235-\331"
 604      020600D7 
 604      67B11315 
 604      9D2DD9
ARM GAS  /tmp/ccVf3EPN.s 			page 48


 605 09af 8E278AE8 		.ascii	"\216'\212\350\326\320\262d\227\367p\311\276&p\275\321"
 605      D6D0B264 
 605      97F770C9 
 605      BE2670BD 
 605      D1
 606 09c0 BA64975B 		.ascii	"\272d\227[\226\354\353\306%K~\365vK\366F\313\222}\335"
 606      96ECEBC6 
 606      254B7EF5 
 606      764BF646 
 606      CB927DDD 
 607 09d4 B464C9B5 		.ascii	"\264d\311\265Q\205\006\363\222}M,\331\023b\3515\312"
 607      518506F3 
 607      927D4D2C 
 607      D91362E9 
 607      35CA
 608 09e6 25FB9A5C 		.ascii	"%\373\232\\\262\365\242o*\2540,\331\201\354\370h\320"
 608      B2F5A26F 
 608      2AAC302C 
 608      D981ECF8 
 608      68D0
 609 09f8 562CB935 		.ascii	"V,\2715\030W,\265\263\302\270b\033\354V\254\324YVl\203"
 609      18572CB5 
 609      B3C2B862 
 609      1BEC56AC 
 609      D459566C 
 610 0a0d 0AC33271 		.ascii	"\012\3032q\3056f\311\025;\210\317\240\230\221}\037\351"
 610      C53666C9 
 610      153B88CF 
 610      A098917D 
 610      1FE9
 611 0a1f 088ED4E3 		.ascii	"\010\216\324\343G\230\272\244F4\302#^\322\005z\206S"
 611      4798BAA4 
 611      4634C223 
 611      5ED2057A 
 611      8653
 612 0a31 C6C8E853 		.ascii	"\306\310\350S\306\311\310)\343m:e\334\351\350\344\224"
 612      C6C9C829 
 612      E36D3A65 
 612      DCE9E8E4 
 612      94
 613 0a42 91DD0528 		.ascii	"\221\335\005({v\027Q,\013(+{\010\312Y1J7YAYi\001\345"
 613      7B761751 
 613      2C0B282B 
 613      7B08CA59 
 613      314A3759 
 614 0a5b 9C1114F2 		.ascii	"\234\021\024\362\273\331\016\224\233,\240\2343\201B"
 614      BBD90E94 
 614      9B2CA09C 
 614      338142
 615 0a6a AEB7A8B0 		.ascii	"\256\267\250\260\312\014\312YE\033!\254\225\240\234"
 615      CA0CCA59 
 615      451B21AC 
 615      95A09C
 616 0a79 95A0DC2C 		.ascii	"\225\240\334,\372\246\302j\003(.\004E\337\332\311m\225"
 616      FAA6C26A 
 616      03282E04 
 616      45DFDAC9 
ARM GAS  /tmp/ccVf3EPN.s 			page 49


 616      6D95
 617 0a8b 11146A67 		.ascii	"\021\024jg\265\021\224Uv\240H\235\005\224U\332\345\017"
 617      B5119455 
 617      76A0489D 
 617      059455DA 
 617      E50F
 618 0a9d 5FD078C6 		.ascii	"_\320x\306x/r\306\030\204\374\334\222-\371\311\341\374"
 618      782F72C6 
 618      1884FCDC 
 618      922DF9C9 
 618      E1FC
 619 0aaf F0AFBAFB 		.ascii	"\360\257\272\373\366&\331}\325u\212x\321_u\303\021\022"
 619      F626D97D 
 619      D5758A78 
 619      D15F75C3 
 619      1112
 620 0ac1 FEC61B48 		.ascii	"\376\306\033Hs\261\273\035Q\367\314ZO\335]\240p\200"
 620      73B1BB1D 
 620      51F7CC5A 
 620      4FDD5DA0 
 620      7080
 621 0ad3 A310B643 		.ascii	"\243\020\266C\341\326\036\242\360\271\030\207\333\254"
 621      E1D61EA2 
 621      F0B91887 
 621      DBAC
 622 0ae1 28DC6A41 		.ascii	"(\334jA\341\013#\012\344w\273\035\012\267YP\370\302"
 622      E10B230A 
 622      E477BB1D 
 622      0AB75950 
 622      F8C2
 623 0af3 8402B986 		.ascii	"\204\002\271\206p4\327\230Y\370\\\321\306\210WK\030"
 623      7034D798 
 623      59F85CD1 
 623      C688574B 
 623      18
 624 0b04 3E9730DC 		.ascii	">\2270\334.z\247\302Z0\320\220k\244\201\034\327\030"
 624      2E7AA7C2 
 624      5A30D090 
 624      6BA4811C 
 624      D718
 625 0b16 69A0A6D6 		.ascii	"i\240\246\326\202\021\2075v8hB\013\017kL\323\345\205"
 625      82118735 
 625      76386842 
 625      0B0F6B4C 
 625      D3E585
 626 0b29 CF223CE4 		.ascii	"\317\"<\344\000\177L\267\004\"O\337P\366\237\3257\224"
 626      007F4CB7 
 626      04224FDF 
 626      50F69FD5 
 626      3794
 627 0b3b 317AC3B1 		.ascii	"1z\303\261\372l\374\252F\014+o\351W\262\031\003!\247"
 627      FA6CFCAA 
 627      460C2B6F 
 627      E957B219 
 627      0321A7
 628 0b4e 4427C668 		.ascii	"D'\306h\035\034\334\005\004\2078\004\247\354 X\007="
 628      1D1CDC05 
ARM GAS  /tmp/ccVf3EPN.s 			page 50


 628      04873804 
 628      A7EC2058 
 628      073D
 629 0b60 A4E0BCE8 		.ascii	"\244\340\274\350~\023X1X\007\326[>#\007\344\331\014"
 629      7E135831 
 629      5807D65B 
 629      3E2307E4 
 629      D90C
 630 0b72 76203481 		.ascii	"v 4\201\365\236\317D\0029\257\307ql\201\250\233>%2\030"
 630      F59ECF44 
 630      0239AFC7 
 630      716C81A8 
 630      9B3E2532 
 631 0b87 EB3514CE 		.ascii	"\3535\024\316K\024\232\201:\251\302\006#\014C\2140\220"
 631      4B149A81 
 631      3AA9C206 
 631      230C438C 
 631      3090
 632 0b99 6B0B98AE 		.ascii	"k\013\230\256\373Ds\033L4P\303\226\013?\251\264\340"
 632      FB44731B 
 632      4C3450C3 
 632      960B3FA9 
 632      B4E0
 633 0bab D0828D8E 		.ascii	"\320\202\215\216\311\003\376P\203\345\304\017\245\235"
 633      C903FE50 
 633      83E5C40F 
 633      A59D
 634 0bb9 A0B9FD29 		.ascii	"\240\271\375)\233\235 \372\354\267Pl\377;\242\267\177"
 634      9B9D20FA 
 634      ECB7506C 
 634      FF3BA2B7 
 634      7F
 635 0bca 71F6A35E 		.ascii	"q\366\243^\014c-\212\010w\244{\341.u\261\207e\270_\333"
 635      0C632D8A 
 635      0877A47B 
 635      E12E75B1 
 635      8765B85F 
 636 0bdf 841BCE4F 		.ascii	"\204\033\316O\246\374\346\356\350\3068\215\261\375b"
 636      A6FCE6EE 
 636      E8C6388D 
 636      B1FD62
 637 0bee 6C723549 		.ascii	"lr5I>\373 ^\177\367R\235\"\017y\273\276\323QN\277\320"
 637      3EFB205E 
 637      7FF7529D 
 637      220F79BB 
 637      BED3514E 
 638 0c04 431E7E4D 		.ascii	"C\036~M\377L?Le\310\330M\233\364\323\343\000\264r_\026"
 638      FF4C3F4C 
 638      65C8D84D 
 638      9BF4D3E3 
 638      00B4725F 
 639 0c19 1301836A 		.ascii	"\023\001\203j\020\277t\353\227\255,\375<\230i<\017\212"
 639      10BF74EB 
 639      97AD2CFD 
 639      3C98693C 
 639      0F8A
 640 0c2b A91BAD8B 		.ascii	"\251\033\255\213\"\337\252\344\314)*x\212p\342r\207"
ARM GAS  /tmp/ccVf3EPN.s 			page 51


 640      22DFAAE4 
 640      CC292A78 
 640      8A70E272 
 640      87
 641 0c3c 3F7CBF97 		.ascii	"?|\277\227w\273\200n\317\233Z\233\276\331\035\247\371"
 641      77BB806E 
 641      CF9B5A9B 
 641      BED91DA7 
 641      F9
 642 0c4d 5D6ABC9F 		.ascii	"]j\274\2372,\313\275bX.\325\206\254\320x\261LuD\332"
 642      322CCBBD 
 642      62582ED5 
 642      86ACD078 
 642      B14C7544 
 643 0c62 FBFFD2EF 		.ascii	"\373\377\322\357VUH\273\260!\323 \224A\214\235\024="
 643      565548BB 
 643      B021D320 
 643      94418C9D 
 643      143D
 644 0c74 0179EB9A 		.ascii	"\001y\353\232\364UG*>S\301\361\3733\3713\025\361\376"
 644      F455472A 
 644      3E53C1F1 
 644      FB33F933 
 644      15F1FE
 645 0c87 F07A8FAC 		.ascii	"\360z\217\254/\334rW6\257(\026\267\317M\355'\366Zo\216"
 645      2FDC7257 
 645      36AF2816 
 645      B7CF4DED 
 645      27F65A6F 
 646 0c9c CD97B21C 		.ascii	"\315\227\262\034\273\027\277\374Y\367\313\246\0373^"
 646      BB17BFFC 
 646      59F7CBA6 
 646      1F335E
 647 0cab 8ABCEE3A 		.ascii	"\212\274\356:\266\247\210\233\335g\035\235\334\354\226"
 647      B6A7889B 
 647      DD671D9D 
 647      DCEC96
 648 0cba 74F16346 		.ascii	"t\361cF\307\356l\012f\331\351Z{\272\323\335\351\340"
 648      C7EE6C0A 
 648      66D9E95A 
 648      7BBAD3DD 
 648      E9E0
 649 0ccc 83BAD166 		.ascii	"\203\272\321f\247k\265\356t\333\034\206\235\216<7\331"
 649      A76BB5EE 
 649      74DB1C86 
 649      9D8E3C37 
 649      D9
 650 0cdd EE741BAD 		.ascii	"\356t\033\255;\235\356+\200&\347-\310\337\346\250\235"
 650      3B9DEE2B 
 650      8026E72D 
 650      C8DFE6A8 
 650      9D
 651 0cee 8ED750E7 		.ascii	"\216\327P\347x\275\334\351\356t\320N\267\011\250\223"
 651      78BDDCE9 
 651      EE74D04E 
 651      B709A893 
 652 0cfe 2A6C35EE 		.ascii	"*l5\356t\036#~\344\272\331\264\323Qs[M;\335f\333\235"
ARM GAS  /tmp/ccVf3EPN.s 			page 52


 652      741E237E 
 652      E4BAD9B4 
 652      D351735B 
 652      4D3BDD66 
 653 0d14 4E535A76 		.ascii	"NSZv\272\315`\2329/\334\341\320\337|\305\300\237\265"
 653      BACD609A 
 653      392FDCE1 
 653      D0DF7CC5 
 653      C09FB5
 654 0d27 446E80A5 		.ascii	"Dn\200\245\364\037\003N\3578X\241A;\256;?,D}\317\032"
 654      F41F034E 
 654      EF3858A1 
 654      413BAE3B 
 654      3F2C447D 
 655 0d3d 67F33DAB 		.ascii	"g\363=\253\2149\304^x\332\346\367\204h(\253\002p\231"
 655      8C39C45E 
 655      78DAE6F7 
 655      846828AB 
 655      027099
 656 0d50 8B85255F 		.ascii	"\213\205%_\227\333\354\205\345,VD;\323\355h\257v\021"
 656      97DBEC85 
 656      E52C5644 
 656      3BD3ED68 
 656      AF7611
 657 0d63 AD4276FB 		.ascii	"\255Bv\373\310\363\221\357\227Wt\257\337bS\354\2559"
 657      C8F391EF 
 657      975774AF 
 657      DF6253EC 
 657      AD39
 658 0d75 4D403FC6 		.ascii	"M@?\306\336bz\224\011\244\232\205O\224\300]\007y<\245"
 658      DE627A94 
 658      09A49A85 
 658      4F94C05D 
 658      07793CA5 
 659 0d89 F4AFD1DF 		.ascii	"\364\257\321\337\320X\032\014,.\365U/\342y\217\217\305"
 659      D0581A0C 
 659      2C2EF555 
 659      2FE2798F 
 659      8FC5
 660 0d9b 2CF3948F 		.ascii	",\363\224\217\354\307\013\213\202u>op\321Ro \350)\277"
 660      ECC70B8B 
 660      82753E6F 
 660      70D1526F 
 660      20E829BF 
 661 0daf 2859981A 		.ascii	"(Y\230\032\032\375\313=\345\243\372\213\202\032\254"
 661      1AFDCB3D 
 661      E5A3FA8B 
 661      821AAC
 662 0dbe 5BAC0B2E 		.ascii	"[\254\013.\306\347Y\026S\323\240.O\024\225\276\352\345"
 662      C6E75916 
 662      53D3A02E 
 662      4F1495BE 
 662      EAE5
 663 0dd0 9E8B8065 		.ascii	"\236\213\200e\025\026\026\272\307W\007\026\007\246U"
 663      151616BA 
 663      C7570716 
 663      07A655
ARM GAS  /tmp/ccVf3EPN.s 			page 53


 664 0ddf 96CE9CE5 		.ascii	"\226\316\234\345\236\205u\356\312\025\201F?\213\301"
 664      9E8575EE 
 664      CA158146 
 664      3F8BC1
 665 0dee 2AD65FD4 		.ascii	"*\326_\324\327\325,\017\004\375K\306\272\371\037\313"
 665      D7D52C0F 
 665      04FD4BC6 
 665      BAF91FCB 
 666 0dfe 98E25DE5 		.ascii	"\230\342]\345\036Q\356\256(+\037\345.q\227\227\217-"
 666      1E51EEAE 
 666      282B1FE5 
 666      2E719797 
 666      8F2D
 667 0e10 1F3D7664 		.ascii	"\037=vd\031i\247\007\275\215K\353\352k\244\266\250r"
 667      1969A707 
 667      BD8D4BEB 
 667      EA6BA4B6 
 667      A872
 668 0e22 D6941115 		.ascii	"\326\224\021\025\023\313F\224\335|\261{Bmc\375*\367"
 668      13CB4694 
 668      DD7CB17B 
 668      426D63FD 
 668      2AF7
 669 0e34 64FF4A7F 		.ascii	"d\377J\177\320=\333\033\\\341wO\016\324\372\335K\374"
 669      D03DDB1B 
 669      5CE1774F 
 669      0ED4FADD 
 669      4BFC
 670 0e46 2B033E7F 		.ascii	"+\003>\177\003\371\213\007\370M\235\267^\264\306\012"
 670      03F98B07 
 670      F84D9DB7 
 670      5EB4C60A 
 671 0e56 D03FE0AB 		.ascii	"\320?\340\253\257\363\007\375\276\306\372\272\332\200"
 671      AFF307FD 
 671      BEC6FABA 
 671      DA80
 672 0e64 AFC12D42 		.ascii	"\257\301-B\272\247\256\360\005\375u\243F\226\360\340"
 672      BAA7AEF0 
 672      05FD75A3 
 672      4696F0E0 
 673 0e74 332F6629 		.ascii	"3/f)%%%\344=\336\333\340w3\305\303\034\356|\246\024"
 673      252525E4 
 673      3DDEDBE0 
 673      7733C5C3 
 673      1CEE7CA6 
 674 0e89 B098C640 		.ascii	"\260\230\306@\215?G\037\324\272\206\322jo\020\023\374"
 674      8D3F471F 
 674      D4BA86D2 
 674      6A6F1013 
 674      FC
 675 0e9a A86F14A9 		.ascii	"\250o\024\251\247\232ep\367\231\376\206\025\301\306"
 675      A79A6570 
 675      F799FE86 
 675      15C1C6
 676 0ea9 B1EE89E3 		.ascii	"\261\356\211\343&M\256\2329\301\235?\030c\314g1\013"
 676      264DAE9A 
 676      39C19D3F 
ARM GAS  /tmp/ccVf3EPN.s 			page 54


 676      1863CC67 
 676      310B
 677 0ebb DD79CC91 		.ascii	"\335y\314\221W\300R\215\242\312\252\361\343'TV\262\224"
 677      57C0528D 
 677      A2CAAAF1 
 677      E3275456 
 677      B294
 678 0ecd 89815A6F 		.ascii	"\211\201Zo\320]/\315\314)\275\231SS\374\027\003R\331"
 678      D05D2FCD 
 678      CC29BD99 
 678      5353FC17 
 678      0352D9
 679 0ee0 78       		.ascii	"x"
 680              		.text
 681              		.section	.gnu.lto_.symbol_nodes.f70c133ce5f8cb68,"",%progbits
 682 0000 789C4D8E 		.ascii	"x\234M\216]+DA\030\307\237g^v\275\036j\313\225\362\001"
 682      5D2B4441 
 682      18C79F67 
 682      5E76BD1E 
 682      6ACB95F2 
 683 0015 7C20B9F4 		.ascii	"| \271\364\021|\202G{\301\226HNq!\324Q\224V.\006\353"
 683      117C8247 
 683      7BC19648 
 683      4E7121D4 
 683      5194562E 
 684 002b DD9EE32D 		.ascii	"\335\236\343-\024jIr\203\244D\204\342\202\225\231\235"
 684      146A4972 
 684      83A44484 
 684      E2829599 
 684      9D
 685 003c 59E6DCFC 		.ascii	"Y\346\334\374\376\277\363\177f\346a\300 d`?\266\206"
 685      FEBFF37F 
 685      66E661C0 
 685      2064603F 
 685      B686
 686 004e 0430740C 		.ascii	"\0040t\014@4\236\353\222+\010\202\270\\F4( \323`\353"
 686      40349EEB 
 686      922B0882 
 686      B85C4634 
 686      2820D360 
 687 0063 48E8CD2C 		.ascii	"H\350\315,\"7\1777\220\330\377_v\212\304\377\024\331"
 687      22377F37 
 687      90D8FF5F 
 687      768AC4FF 
 687      14D9
 688 0075 2692703A 		.ascii	"&\222p:\221C\271\200B\022\310%\224\346\350\026\222\374"
 688      9143B980 
 688      4212C825 
 688      94E6E816 
 688      92FC
 689 0087 2F591129 		.ascii	"/Y\021)\345i\214\224\3664A\252\361t\033\251\326\323"
 689      E5698C94 
 689      F63441AA 
 689      F1741BA9 
 689      D6D3
 690 0099 1DA43A4F 		.ascii	"\035\244:Ow\221\352=\335Cj\360t\037\251\321[\352\000"
 690      7791EA3D 
ARM GAS  /tmp/ccVf3EPN.s 			page 55


 690      DD436AF0 
 690      741FA9D1 
 690      5BEA00
 691 00ac 53A09752 		.ascii	"S\240\227R\230\326\273\341!R`\313\236\036\024\000\357"
 691      98D6BBE1 
 691      215260CB 
 691      9E1E1400 
 691      EF
 692 00bd E5977621 		.ascii	"\345\227v! |\270@\215\322\315\217\201\332;i\025)\010"
 692      207CB840 
 692      8DD2CD8F 
 692      81DA3B69 
 692      152908
 693 00d0 E7CEF3D2 		.ascii	"\347\316\363\322\260\357\251M\244A\351\222\007iH\276"
 693      B0EFA94D 
 693      A441E992 
 693      076948BE 
 694 00e0 5B4500E1 		.ascii	"[E\000\341\321Y\231\213&P\346\202f(Y(=\3123\315\020"
 694      D159998B 
 694      2650E682 
 694      66285928 
 694      3DCA33CD 
 695 00f5 5DEB59CD 		.ascii	"]\353Y\315\304\361\266\352\325~\3202\033:\2570\005\331"
 695      C4F1B6EA 
 695      D57ED032 
 695      1B3AAF30 
 695      05D9
 696 0107 91BBD56E 		.ascii	"\221\273\325n\236\011 \032s!\271-\346G\203\312\035\317"
 696      9E09201A 
 696      7321B92D 
 696      E64783CA 
 696      1DCF
 697 0119 36B5C0D4 		.ascii	"6\265\300\324\213M\002\2427\233\364\334g\361j\261\216"
 697      8B4D02A2 
 697      379BF4DC 
 697      67F16AB1 
 697      8E
 698 012a 6700A21F 		.ascii	"g\000\242\037\233\364\211\231\330\245\354l|\371\212"
 698      9BF48999 
 698      D8A5EC6C 
 698      7CF98A
 699 0139 E685643E 		.ascii	"\346\205d>.\363JY\015\331\302Cge\207\302\345\000\027"
 699      2EF34A59 
 699      0DD9C243 
 699      676587C2 
 699      E50017
 700 014c 1928F5DE 		.ascii	"\031(\365\336\255JM\325o\031\016[\276\217\352\225\214"
 700      AD4A4DD5 
 700      6F190E5B 
 700      BE8FEA95 
 700      8C
 701 015d 4F5AAA7B 		.ascii	"OZ\252{\363\266)\036]P\037\325\360\345B\030\305nf\332"
 701      F3B6291E 
 701      5D501FD5 
 701      F0E54218 
 701      C56E66DA 
 702 0171 85928AF3 		.ascii	"\205\222\212\363\035\360\013)g\341S"
ARM GAS  /tmp/ccVf3EPN.s 			page 56


 702      1DF00B29 
 702      67E153
 703              		.text
 704              		.section	.gnu.lto_.refs.f70c133ce5f8cb68,"",%progbits
 705 0000 789C2D4B 		.ascii	"x\234-K\011\022\2040\014\202\304\256\266\352z\217O\367"
 705      09128430 
 705      0C82C4AE 
 705      B6EA7A8F 
 705      4FF7
 706 0012 BBE6304C 		.ascii	"\273\3460L d@ x\220\243\000!\242\332\321\230E~\346\311"
 706      20644020 
 706      7890A300 
 706      21A2DAD1 
 706      98457EE6 
 707 0027 1ED48185 		.ascii	"\036\324\201\205\225M\307\3246\245\"r~yC\347\357\376"
 707      954DC7D4 
 707      36A52272 
 707      7E7943E7 
 707      EFFE
 708 0039 5B6B0165 		.ascii	"[k\001e\365\276n\221\022\335S\357\203D\2005\025gl1\276"
 708      F5BE6E91 
 708      12DD53EF 
 708      83448035 
 708      15676C31 
 709 004e C2B7F0FE 		.ascii	"\302\267\360\376\255\206\027\0036\002\336"
 709      AD861703 
 709      3602DE
 710              		.text
 711              		.section	.gnu.lto_.decls.f70c133ce5f8cb68,"",%progbits
 712 0000 789CBD5B 		.ascii	"x\234\275[\013t\024U\232\256[\325y\2077j\206\035\207"
 712      0B741455 
 712      9AAE5BD5 
 712      7987376A 
 712      861D87
 713 0013 B8E3CCAA 		.ascii	"\270\343\314\252\263\020@\317,sfW\321\340\212ge\306"
 713      B31040CF 
 713      2C736657 
 713      D1E08A67 
 713      65C6
 714 0025 93E02CB3 		.ascii	"\223\340,\263\217i\213NI\372\230t\307tGp\317\356R\274"
 714      8F698B4E 
 714      49FA9874 
 714      C7744770 
 714      CFEE52BC 
 715 0039 C24B3084 		.ascii	"\302K0\204Wx\207\247\2128\303\373ax4\242I\200\021\004"
 715      577887A7 
 715      8A38C3FB 
 715      617834A2 
 715      49801104 
 716 004d 844940A1 		.ascii	"\204I@\241\025Ve\\\030\" \260\240\331\377\336\272U]"
 716      1556655C 
 716      182220B0 
 716      A0D9FFDE 
 716      BA555D
 717 0060 75FBDEEE 		.ascii	"u\373\336\356*\346\354\366\341\257\256\252\334\377\373"
 717      2AE6ECF6 
 717      E1AFAEAA 
ARM GAS  /tmp/ccVf3EPN.s 			page 57


 717      DCFFFB
 718 006f BFFFBFFF 		.ascii	"\277\377\277\377}7\262$K_fIR'|\036\371;I\332\222)I\335"
 718      7D37B224 
 718      4B5F6649 
 718      52277C1E 
 718      F93B49DA 
 719 0087 24497A14 		.ascii	"$Iz\024\244\017\310\012\220\225 \257\203\274\005\262"
 719      A40FC80A 
 719      909520AF 
 719      83BC05B2 
 720 0097 116413C8 		.ascii	"\021d\023\310\026\220\255 \333Av\200( \357\2004\201"
 720      1690AD20 
 720      DB417680 
 720      2820EF80 
 720      3481
 721 00a9 EC06D903 		.ascii	"\354\006\331\003\022\003\331\007\262\037\344=\220f\220"
 721      1203D907 
 721      B21FE43D 
 721      906690
 722 00b8 16900320 		.ascii	"\026\220\003 \007A~\017r\004\004\314\223\017\266{\014"
 722      07417E0F 
 722      720404CC 
 722      930FB67B 
 722      0C
 723 00c9 E404C845 		.ascii	"\344\004\310E\220\313 WAn\201\370\220$u\005\371!\310"
 723      90CB2057 
 723      416E81F8 
 723      90247505 
 723      F921C8
 724 00dc 0090BF01 		.ascii	"\000\220\277\001\3719\310\023 \177\0172\016$\033\312"
 724      F939C813 
 724      207F0F32 
 724      0E241BCA 
 725 00ec 4D84EFC9 		.ascii	"M\204\357\311 S@f\200\314\004y\015d6\310|$9>\330VW\220"
 725      20534066 
 725      80CC0479 
 725      0D6436C8 
 725      7C24393E 
 726 0104 12647CE7 		.ascii	"\022d|\347c.p\377k\220*\220U\360\334\000\337\013AJA"
 726      632E70FF 
 726      6B902A90 
 726      55F0DC00 
 726      DF0B414A 
 727 0119 1681FC13 		.ascii	"\026\201\374\023\310K \213Ad\370\373H\370\016\203 \212"
 727      C84B208B 
 727      4164F8FB 
 727      48F80E83 
 727      208A
 728 012b 87E3806D 		.ascii	"\207\343\200m\233<\354\037\354W.\310aj\007c`|\034\203"
 728      9B3CEC1F 
 728      EC572EC8 
 728      616A0763 
 728      607C1C83 
 729 013f 25C88847 		.ascii	"%\310\210G;H\033\310\007\024\3533\220\317A\316K\206"
 729      3B481BC8 
 729      0714EB33 
 729      90CF41CE 
ARM GAS  /tmp/ccVf3EPN.s 			page 58


 729      4B86
 730 0151 3D8CB114 		.ascii	"=\214\261\024\312\372\340\373\217\222\323W\373\007\307"
 730      CAFAE0FB 
 730      8F92D357 
 730      FB07C7
 731 0160 AF27E35B 		.ascii	"\257'\343[\206\224\360\315\317\361\013\327/\366\255"
 731      8694F0CD 
 731      CFF10BD7 
 731      2FF6AD
 732 016f 1139EBFD 		.ascii	"\0219\353\375ydp1}\375\015\365\027\333@4\346\366\317"
 732      79647031 
 732      7DFD0DF5 
 732      17DB4034 
 732      E6F6CF
 733 0182 651AD71F 		.ascii	"e\032\327\0373q\235\212\014>&\007\221}6\256\227i,V\300"
 733      33719D8A 
 733      0C3E2607 
 733      917D36AE 
 733      97692C56 
 734 0197 433F946C 		.ascii	"C?\224l\017\347\210OJ\304\361,\346N\313 \333\337oH\316"
 734      0FE7884F 
 734      4AC4F12C 
 734      E64ECB20 
 734      DBDF6F48 
 735 01ac 9CB07F70 		.ascii	"\234\260\177p\216eR\214\263R\2027\3063\261dZ\356*\215"
 735      8E65528C 
 735      B3528237 
 735      C633B164 
 735      5AEE2A8D 
 736 01c0 25069791 		.ascii	"%\006\227\221\030\023\347l\036\365\335\304\303\370f"
 736      1813E76C 
 736      1EF5DDC4 
 736      C3F866
 737 01cf 5E9DB5E1 		.ascii	"^\235\265\341/\246\276J\324W\254{\225\3265n\037\271"
 737      2FA6BE4A 
 737      D457AC7B 
 737      95D6356E 
 737      1FB9
 738 01e1 F09DCFC9 		.ascii	"\360\235\317\311k6\307p\033!\361\006\351A\353\215\330"
 738      6B36C770 
 738      1B21F106 
 738      E941EB8D 
 738      D8
 739 01f2 84FBD520 		.ascii	"\204\373\325 'l\\\354\3661L\023\\r(\306I\220S \237\200"
 739      276C5CEC 
 739      F6314C13 
 739      5C7228C6 
 739      49905320 
 740 0208 C441CE81 		.ascii	"\304A\316\201\\B\011\377q\254\356\205\347\276 \367\245"
 740      5C4209FF 
 740      71ACEE85 
 740      E7BE20F7 
 740      A5
 741 0219 88016EAF 		.ascii	"\210\001n\257=$g\036\342<\310\242~\341X\230\371\200"
 741      3D24671E 
 741      E23CC8A2 
 741      7EE15898 
ARM GAS  /tmp/ccVf3EPN.s 			page 59


 741      F980
 742 022b 637215A4 		.ascii	"cr\025\244C\342\2679{^\310\024\333\314\015\234\027\327"
 742      43E2B739 
 742      7B5EC814 
 742      DBCC0D9C 
 742      17D7
 743 023d 38B93100 		.ascii	"8\2711\000%\267q\273M\236\2358\215\015\222\222sq\000"
 743      25B771BB 
 743      4D9E9D38 
 743      8D0D9292 
 743      737100
 744 0250 B5FD08C7 		.ascii	"\265\375\010\307\026\356\223z3\266~M\333\232\331\237"
 744      16EE937A 
 744      33B67E4D 
 744      DB9AD99F 
 745 0260 9C15F816 		.ascii	"\234\025\370\026\247\366\334\264=\231\3322\271\374\214"
 745      A7F6DCB4 
 745      3D99DA32 
 745      B9FC8C
 746 026f C3E5E734 		.ascii	"\303\345\3474\276\366\334\373\206\346\031\346\341\243"
 746      BEF6DCFB 
 746      86E619E6 
 746      E1A3
 747 027d E57268D9 		.ascii	"\345rh\331\033\270nA\276\303~\002h&H\016H>H7\331\340"
 747      1BB86E41 
 747      BEC37E02 
 747      6826480E 
 747      483E4837 
 748 0293 8073ED31 		.ascii	"\200s\3551\232\203\366\017\356\2033\031[\254\035D\313"
 748      9A83F60F 
 748      EE833319 
 748      5BAC1D44 
 748      CB
 749 02a4 99384339 		.ascii	"\2318C98\270\037\177\\2\332\226\275\275\370h\334p\\"
 749      38B81F7F 
 749      5C32DA96 
 749      BDBDF868 
 749      DC705C
 750 02b7 E720A37F 		.ascii	"\347 \243\177\304\276\015C\316\276\032\307\265\227\234"
 750      C4BE0D43 
 750      CEBE1AC7 
 750      B5979C
 751 02c6 189B06A2 		.ascii	"\030\233\006\242\304Xc\216=\275\341\357w\311\342\370"
 751      C458638E 
 751      3DBDE1EF 
 751      77C9E2F8 
 752 02d6 9B63554C 		.ascii	"\233cUL2\306.s,\303\355\004\367\333\270_\276\007\364"
 752      32C62E73 
 752      2CC3ED04 
 752      F7DBB85F 
 752      BE07F4
 753 02e9 0B40FA80 		.ascii	"\013@\372\200\334\217\022\343\236Yo\365\360\356/\340"
 753      DC8F12E3 
 753      9E596FF5 
 753      F0EE2FE0 
 754 02f9 6F73E1FB 		.ascii	"os\341\373\373\262\321\247\233m\361^x\326\341\376\007"
 754      FBB2D1A7 
ARM GAS  /tmp/ccVf3EPN.s 			page 60


 754      9B6DF15E 
 754      78D6E1FE 
 754      07
 755 030a F07D129E 		.ascii	"\360}\022\236\373\312F\3733\307Qs|\265\327\371\031Z"
 755      FBCA46FB 
 755      33C75173 
 755      7CB5D7F9 
 755      195A
 756 031c 4F383E66 		.ascii	"O8>f\275\343\276\027\347\177\241l\214}x\\8F\343\362"
 756      BDE3BE17 
 756      E77FA16C 
 756      8C7D785C 
 756      3846E3F2 
 757 0330 EF341F70 		.ascii	"\3574\037p{\234M\333\346|N\333\314\223\246\353\372\004"
 757      7B9C4DDB 
 757      E67C4EDB 
 757      CC93A6EB 
 757      FA04
 758 0342 BDB1561F 		.ascii	"\275\261V\037\326\332\265\207T\247\303\247\260\241k"
 758      D6DAB587 
 758      54A7C3A7 
 758      B0A16B
 759 0351 8E3415BF 		.ascii	"\2164\025\277\216\257\321\013\0120\011\025\301\253l"
 759      8EAFD10B 
 759      0A300915 
 759      C1AB6C
 760 0360 72939F43 		.ascii	"r\223\237C\202\364#i5\024\205\362\262\212V\241\034H"
 760      82F42369 
 760      351485F2 
 760      B28A56A1 
 760      1C48
 761 0372 42998136 		.ascii	"B\231\2016?\306\337%\311\3001\356\315\273Nd\241\027"
 761      3FC6DF25 
 761      C9C031EE 
 761      CDBB4E64 
 761      A117
 762 0384 98E80AD5 		.ascii	"\230\350\012\325Z\211z\320\364\234\212Y\031\024I\011"
 762      5A897AD0 
 762      F49C8A59 
 762      19144909 
 763 0394 AA51686A 		.ascii	"\252Qhj\370\250\306Z\233\235\374\234\304\215L\231\210"
 763      F8A8C65A 
 763      9B9DFC9C 
 763      C48D4C99 
 763      88
 764 03a5 F456A03C 		.ascii	"\364V\240<\223,u\3340\306\327 \236\327\305_\373\352"
 764      932C75DC 
 764      30C6D720 
 764      9ED7C55F 
 764      FBEA
 765 03b7 A6ACEBD9 		.ascii	"\246\254\353\331*z\235x?\030I\017Io\032!\371\254/7\014"
 765      2A7A9D78 
 765      3F18490F 
 765      496F1A21 
 765      F9AC2F37 
 766 03cc 193949CF 		.ascii	"\0319I\317*Z\207\036\242\3142r\0227x*\326\315b\203\253"
 766      2A5A871E 
ARM GAS  /tmp/ccVf3EPN.s 			page 61


 766      A2CC3272 
 766      1237782A 
 766      D6CD6283 
 767 03e1 A1A16B8A 		.ascii	"\241\241k\212z\250\213/\255}\373'\204\315[\204M\031"
 767      7AA88B2F 
 767      AD7DFB27 
 767      84CD5B84 
 767      4D19
 768 03f3 B2A06D5E 		.ascii	"\262\240m^\271\300\331\331\262l0\301\371-\301Y\204\234"
 768      B9C0D9D9 
 768      B26C30C1 
 768      F92DC159 
 768      849C
 769 0405 402A428C 		.ascii	"@*B\214\023\310\351\204U\273\264r\275\224\345\345b\343"
 769      13C8E984 
 769      55BBB472 
 769      BD94E5E5 
 769      62E3
 770 0417 9086AE46 		.ascii	"\220\206\256F\252P\322CL\322\331\024t\223\3474\331,"
 770      AA50D243 
 770      4CD2D914 
 770      7493E734 
 770      D92C
 771 0429 4813730E 		.ascii	"H\023s\016*\322\333\230H\023\036\325x\006C\325\021_"
 771      2AD2DB98 
 771      48131ED5 
 771      780643D5 
 771      115F
 772 043b 0CB0D533 		.ascii	"\014\260\3253\325m\002\252R\032\252[RS-d\230\302\210"
 772      D56D02AA 
 772      521AAA5B 
 772      52532D64 
 772      98C288
 773 044e 43017A53 		.ascii	"C\001zS\200\035\236\251\356\024P\355\225\206\352\366"
 773      801D9EA9 
 773      EE1450ED 
 773      9586EAF6 
 774 045e D4549312 		.ascii	"\324T\223\022\240\273\263U\253\250\3113\325]\002\252"
 774      A0BBB355 
 774      ABA8C933 
 774      D55D02AA 
 775 046e 280DD577 		.ascii	"(\015\325w\274E\265U6\001\036\244\000{<S\335+\240\372"
 775      BC45B555 
 775      36011EA4 
 775      007B3C53 
 775      DD2BA0FA 
 776 0482 401AAABB 		.ascii	"@\032\252\273\275Qm\263\250\376\204\002\354\363L\365"
 776      BD516DB3 
 776      A8FE8402 
 776      ECF34CF5 
 777 0492 5D01D587 		.ascii	"]\001\325\207\322P\215y\243\272\303\312\325{(\300{\236"
 777      D2508D79 
 777      A3BAC3CA 
 777      D57B28C0 
 777      7B9E
 778 04a4 A9BE2FA0 		.ascii	"\251\276/\240zw\032\252\373=\346j\022@\213g\252\255"
 778      7A771AAA 
ARM GAS  /tmp/ccVf3EPN.s 			page 62


 778      FB3DE66A 
 778      12408B67 
 778      AAAD
 779 04b6 02AA4A1A 		.ascii	"\002\252J\032\252\315\336\242\372\241\025\325>\024\340"
 779      AACDDEA2 
 779      FAA115D5 
 779      3E14E0
 780 04c5 A067AA87 		.ascii	"\240g\252\207\004T\277\227\206\352\001\016\325\030\030"
 780      0454BF97 
 780      86EA010E 
 780      D51818
 781 04d4 BB5B9A47 		.ascii	"\273[\232G-\353(\252\242G\357\022\"|\200\356\246w\317"
 781      2DEB28AA 
 781      A247EF12 
 781      227C80EE 
 781      A677CF
 782 04e7 29A96C39 		.ascii	")\251l9\"a\250\211 \017'H\321O\2664\205\014\242\223"
 782      2261A889 
 782      200F2748 
 782      D14FB634 
 782      850CA293 
 783 04fb F5F1E8A5 		.ascii	"\365\361\350\245\364\223\242#(\033\272\250\325H8+\302"
 783      F493A223 
 783      281BBAA8 
 783      D548382B 
 783      C2
 784 050c 054CAAC6 		.ascii	"\005L\252\306\275y\007*}\245ez\354r|\353\214\226\243"
 784      BD79072A 
 784      7DA5657A 
 784      EC727CEB 
 784      8C96A3
 785 051f 68F644BD 		.ascii	"h\366D\275U\277\214'\004\006eYja\206eXgKkp\254\3647"
 785      55BF8C27 
 785      04066559 
 785      6A618665 
 785      58674B6B 
 786 0537 7485440A 		.ascii	"t\205D\012\0338\206\372:-\036G\262\375\205a#\366Ns~"
 786      1B3886FA 
 786      3A2D1E47 
 786      B2FD8561 
 786      23F64E73 
 787 054c DDF87867 		.ascii	"\335\370xgg_\367\361>I\343\255\030\235\260#\254=\245"
 787      675FF7F1 
 787      3E49E3AD 
 787      189DB023 
 787      AC3DA5
 788 055f D9040540 		.ascii	"\331\004\005@l3(\335\312\257\356\2225\331h\237\365\376"
 788      6C3328DD 
 788      CAAFEE92 
 788      35D9689F 
 788      F5FE
 789 0571 40986C50 		.ascii	"@\230lP\215Baq\025\235B?\222\322\026\303\005?F=id\214"
 789      8D426171 
 789      159D423F 
 789      92D216C3 
 789      053F463D 
 790 0588 BA88DDD2 		.ascii	"\272\210\335\322\012\215\267\022\0231\333\347>\011\330"
ARM GAS  /tmp/ccVf3EPN.s 			page 63


 790      0A8DB712 
 790      1331DBE7 
 790      3E09D8
 791 0597 4E887DFB 		.ascii	"N\210}\373m+\322\353\363\035\336X3\247\230p\346\244"
 791      6D2BD2EB 
 791      F31DDE58 
 791      33A79870 
 791      E6A4
 792 05a9 A2D5C0CE 		.ascii	"\242\325\300\316\345,7)\224g\023y&K\035\244^1[^q\307"
 792      E52C3729 
 792      94671379 
 792      264B1DA4 
 792      5E315B5E 
 793 05bf D84F0B38 		.ascii	"\330O\0138=\350\274@<0\262W\206\305\236W\270B\007\\"
 793      3DE8BC40 
 793      3C30B257 
 793      86C59E57 
 793      B842075C 
 794 05d3 1D64866A 		.ascii	"\035d\206j\202\335v\003\226-\346Vo\007\233,{\005+d\352"
 794      82DD7603 
 794      962DE656 
 794      6F079B2C 
 794      7B052B64 
 795 05e8 CCA84C15 		.ascii	"\314\250L\025}Bb\177\006\335\007\327\317\310\365<\271"
 795      7D42627F 
 795      06DD07D7 
 795      CFC8F53C 
 795      B9
 796 05f9 7E0E57EB 		.ascii	"~\016W\353#K3ev\"k\344\204\015/\221:RzDQu\266%\2523"
 796      234B3365 
 796      76226BE4 
 796      840D2F91 
 796      3A527A44 
 797 0613 D1191106 		.ascii	"\321\031\021\006\015\014\203\373\245U\272^\037\337z"
 797      0D0C83FB 
 797      A555BA5E 
 797      1FDF7A
 798 0622 E8F03E34 		.ascii	"\350\360>4o\242>\314\320\225\2455\244\334\011h\273<"
 798      6FA23ECC 
 798      D095A535 
 798      A4DC0968 
 798      BB3C
 799 0634 1B9605DA 		.ascii	"\033\226\005\332\340\233\364g\013\254\006\177\202m\360"
 799      E09BF467 
 799      0BAC067F 
 799      826DF0
 800 0643 17B80DFE 		.ascii	"\027\270\015\376\252\331\340\315\356\344M\331Mwr\221"
 800      AAD9E0CD 
 800      EEE44DD9 
 800      4D777291 
 801 0653 45BFC445 		.ascii	"E\277\304Eo\237~h<$\241~\273\263S\221\334w)\035I]\270"
 801      6F9F7E68 
 801      3C24A17E 
 801      BBB35391 
 801      DC77291D 
 802 066a 2C6DE1F3 		.ascii	",m\341\363\252s\362\272\314\362\372:\231W\374rlI\213"
 802      AA73F2BA 
ARM GAS  /tmp/ccVf3EPN.s 			page 64


 802      CCF2FA3A 
 802      9957FC72 
 802      6C498B
 803 067d E1F5F221 		.ascii	"\341\365\362!\014)\334\343\212X]svtFse*\266\205[\261"
 803      0C29DCE3 
 803      8A585D73 
 803      76744673 
 803      652AB685 
 804 0693 FAADB261 		.ascii	"\372\255\262aFqY:FJ\\\025V\351Y[\225N\320/N\236\334"
 804      4671593A 
 804      464A5C15 
 804      56E9595B 
 804      954ED02F 
 805 06aa DD1A121C 		.ascii	"\335\032\022\034j\314\202\202\374\371:\327\331]w\342"
 805      6ACC8282 
 805      FCF93AD7 
 805      D95D77E2 
 806 06ba EC6DD659 		.ascii	"\354m\326Y\\\330\341\271\224\224\325'\371\316w\374K"
 806      5CD8E1B9 
 806      9494D527 
 806      F9CE77FC 
 806      4B
 807 06cb 8139029E 		.ascii	"\2019\002\236#%n\011\274\240~R\265\275\33203\3047\301"
 807      23256E09 
 807      BCA07E52 
 807      B5BDDA30 
 807      33C437C1 
 808 06df 2F879A97 		.ascii	"/\207\232\227\230\211\254QG;\223c\326\030\217\235j\341"
 808      9889AC51 
 808      473B9363 
 808      D6188F9D 
 808      6AE1
 809 06f1 8F83A942 		.ascii	"\217\203\251B6Y\026\017\204\251g\202Sd\253\243H\023"
 809      3659160F 
 809      84A96782 
 809      5364ABA3 
 809      4813
 810 0703 E28BFC10 		.ascii	"\342\213\374\020\317\303\261\302(\2624Q\301%&\311\242"
 810      CFC3B1C2 
 810      28B23451 
 810      C12526C9 
 810      A2
 811 0714 58115B66 		.ascii	"X\021[f\315\260!\026\253\245\014\261M\215\027\342i2"
 811      CDB02116 
 811      ABA50CB1 
 811      4D8D17E2 
 811      6932
 812 0726 2FC48B0E 		.ascii	"/\304\213\016z\017\361k\316\020\323\001Y\257\325\037"
 812      7A0FF16B 
 812      CE10D301 
 812      59AFD51F 
 813 0736 78233120 		.ascii	"x#1 ;\026\205\346V\306\251m\017\221\255\214\3312~\277"
 813      3B1685E6 
 813      56C6A96D 
 813      0F91AD8C 
 813      D9327EBF 
 814 074a 51E1EE89 		.ascii	"Q\341\356\211\270\000ZZ\273\375\257\011\320\\\002\324"
ARM GAS  /tmp/ccVf3EPN.s 			page 65


 814      B8005A5A 
 814      BBFDAF09 
 814      D05C02D4 
 815 075a 74C7403B 		.ascii	"t\307@;[\336\376\031\001Z@\200\336S\3301Ia6W\024\347"
 815      5BDEFE19 
 815      015A4080 
 815      DE53D831 
 815      49613657 
 816 0770 86899293 		.ascii	"\206\211\222\223\270\301\275\353\377aa+'q\360\322\347"
 816      B8C1BDEB 
 816      FF61612B 
 816      2771F0D2 
 816      E7
 817 0781 E8114530 		.ascii	"\350\021E0\2705\327\243\311\023\365\007\314J\370\222"
 817      B835D7A3 
 817      C913F507 
 817      CC4AF892 
 818 0791 949B95C8 		.ascii	"\224\233\225\310\035G\230\2505C9\266dz\376\263\246\336"
 818      1D4798A8 
 818      354339B6 
 818      647AFEB3 
 818      A6DE
 819 07a3 250F7ACB 		.ascii	"%\017z\313\017\276\375=\275Qvf\371,wY\036[<\275i\005"
 819      0FBEFD3D 
 819      BD517666 
 819      F92C7759 
 819      1E5B3CBD 
 820 07b9 D2331379 		.ascii	"\3223\023y>+u\236/I\316s\350~\333\016\012\272\337\024"
 820      3E2B759E 
 820      2F49CE73 
 820      E87EDB0E 
 820      0ABADF14 
 821 07cd 03E06A   		.ascii	"\003\340j"
 822 07d0 6E9EBBD8 		.ascii	"n\236\273\330\210\\Z\373\376>\004\371\007\177XK\202"
 822      885C5AFB 
 822      FE3E04F9 
 822      077F584B 
 822      82
 823 07e1 F5353F41 		.ascii	"\3655?A]@\355lyo6\232H\240\336$P\267\222R4\213I\321"
 823      5D40ED6C 
 823      796F369A 
 823      48A0DE24 
 823      50B79252 
 824 07f9 2C672265 		.ascii	",g\"e\345$n\350&\246\307\342Lf\325\372\370\2315\343"
 824      E5246EE8 
 824      26A6C7E2 
 824      4C66D5FA 
 824      F89935E3 
 825 080d E4263487 		.ascii	"\344&4\207L\233\014\247\353I\271U\302j^k\3441\235\330"
 825      4C9B0CA7 
 825      EB49B955 
 825      C26A5E6B 
 825      E4319DD8 
 826 0821 CCD44967 		.ascii	"\314\324IgFg\020X\313\301r=\267V7\035\362^\253\033\345"
 826      46671058 
 826      CBC1723D 
 826      B756371D 
ARM GAS  /tmp/ccVf3EPN.s 			page 66


 826      F25EAB1B 
 827 0836 F41388B9 		.ascii	"\364\023\210\271\\\027\355\023\210\345\244\304\006W"
 827      5C17ED13 
 827      88E5A4C4 
 827      0657
 828 0844 39CC3AB7 		.ascii	"9\314:\267\201un3\327\271\217\017Y\223B\314\031V\256"
 828      81756E33 
 828      D7B98F0F 
 828      599342CC 
 828      1956AE
 829 0857 7C569D65 		.ascii	"|V\235e\326\370\261U\306-k\373\035\261\332\316\262\332"
 829      D6F8B155 
 829      C62D6BFB 
 829      1DB1DACE 
 829      B2DA
 830 0869 C11D30E6 		.ascii	"\301\0350\346\037\366\2746\335\305F|\025\331vvD|#\337"
 830      1FF6BC36 
 830      DDC5467C 
 830      15D97676 
 830      447C23DF 
 831 087d B7EB78D6 		.ascii	"\267\353x\326b\034f\354#%\232\004\215\337Z\354q}kb}"
 831      621C66EC 
 831      23259A04 
 831      8DDF5AEC 
 831      717D6B62 
 832 0892 DBC3F5ED 		.ascii	"\333\303\365\355\243\303V\304w\221\210\267\010\362\300"
 832      A3C356C4 
 832      779188B7 
 832      08F2C0
 833 08a1 64A5A218 		.ascii	"d\245\242\030\211\370\273w\304\352]\226\325~.\253\005"
 833      89F8BB77 
 833      C4EA5D96 
 833      D57E2EAB 
 833      05
 834 08b2 470EF167 		.ascii	"G\016\361g\357\216}\240\224\275\310\225\317[\013v\353"
 834      EF8E7DA0 
 834      94BDC895 
 834      CF5B0B76 
 834      EB
 835 08c3 7A7715B5 		.ascii	"zw\025\265\032M3\203\323\037\271Aj\\\332|\227\356S\321"
 835      1A4D3383 
 835      D31FB941 
 835      6A5CDA7C 
 835      97EE53D1 
 836 08d7 2102D370 		.ascii	"!\002\323p\2470\320\255\3555\0165\016\023\240\306\014"
 836      A730D0AD 
 836      ED350E35 
 836      0E13A0C6 
 836      0C
 837 08e8 B653CB64 		.ascii	"\266S\313d:\265Lg/\005\217\330\322\015\334C\241q\364"
 837      3AB54C67 
 837      2F058FD8 
 837      D20DDC43 
 837      A171F4
 838 08fb 0D7EC892 		.ascii	"\015~\310\222\376\337\365Di\337\222b&jn\311d\246\211"
 838      FEDFF544 
 838      69DF9262 
ARM GAS  /tmp/ccVf3EPN.s 			page 67


 838      266A6EC9 
 838      64A689
 839 090e D3D6AFDA 		.ascii	"\323\326\257\332\372\030\275\377q\271'\340\034e\002"
 839      FA18BDFF 
 839      71B927E0 
 839      1C6502
 840 091d 951687EC 		.ascii	"\225\026\207\354\015\311\314\016\314\336\346|\\\211"
 840      0DC9CC0E 
 840      CCDEE67C 
 840      5C89
 841 092b F87DFA3D 		.ascii	"\370}\372=\230\343\315\353a\360~\027y\336R\222\245\317"
 841      98E3CDEB 
 841      61F07E17 
 841      79DE5292 
 841      A5CF
 842 093d 81AD8BAD 		.ascii	"\201\255\213\255\244\323\244\015}\314\262\\ZKX~\354"
 842      A4D3A40D 
 842      7DCCB25C 
 842      5A4B587E 
 842      EC
 843 094e 8AE5F2E6 		.ascii	"\212\345\362\346\003I;EL\017\365z\212\271\177\234\355"
 843      03493B45 
 843      4C0FF57A 
 843      8AB97F9C 
 843      ED
 844 095f A21ECBE3 		.ascii	"\242\036\313\343\326\233\253\315\247\365d\003$\315\321"
 844      D69BABCD 
 844      A7F56403 
 844      24CDD1
 845 096e 9A88C939 		.ascii	"\232\210\3119\331\276\313i\361y\335\350G\034\275\246"
 845      D9BECB69 
 845      F179DDE8 
 845      471CBDA6 
 846 097e 70034BB6 		.ascii	"p\003K\266m`}G2\006\007\361\2166\260\364M\272\236\223"
 846      6D607D47 
 846      320607F1 
 846      8E36B0F4 
 846      4DBA9E93 
 847 0992 79A761BD 		.ascii	"y\247a\275\3402\254\306!\251\010\345\277\377\374\220"
 847      E032ACC6 
 847      21A908E5 
 847      BFFFFC90 
 848 09a2 7C690FC9 		.ascii	"|i\017\311\244L\257!)\364\026\022\334\311\012wU\304"
 848      A44CAF21 
 848      29F41612 
 848      DCC90A77 
 848      55C4
 849 09b4 2131A2E0 		.ascii	"!1\242\340\326\245\313v\227\246\271qI\274\025\370\347"
 849      D6A5CB76 
 849      97A6B971 
 849      49BC15F8 
 849      E7
 850 09c5 B9749DE3 		.ascii	"\271t\235\343\222+\027\276\261\2730\323\263\013\205"
 850      922B17BE 
 850      B1BB30D3 
 850      B30B85
 851 09d4 92F363DB 		.ascii	"\222\363c\333*\224\361\366\340\027\344\372'r\275&\273"
ARM GAS  /tmp/ccVf3EPN.s 			page 68


 851      2A94F1F6 
 851      E017E4FA 
 851      2772BD26 
 851      BB
 852 09e5 D82A6CB7 		.ascii	"\330*l\267\363\231M\370\234\364\336px\037{'\254\242"
 852      F3994DF8 
 852      9CF4DE70 
 852      781F7B27 
 852      ACA2
 853 09f7 3FC8B883 		.ascii	"?\310\270\203hsC\351\230,\332\275\234\227)X\340\375"
 853      687343E9 
 853      982CDABD 
 853      9C972958 
 853      E0FD
 854 0a09 D72ABA7B 		.ascii	"\327*\272{y\214lE\254$\345\232\205sBj\201\316P~W;\271"
 854      798C6C45 
 854      AC24E59A 
 854      8573426A 
 854      81CE507E 
 855 0a20 BBCFA86E 		.ascii	"\273\317\250n)\205\032%t\2133q\255\213o\276\022\033"
 855      29851A25 
 855      748B3371 
 855      AD8B6FBE 
 855      121B
 856 0a32 D6B0499F 		.ascii	"\326\260I\2374M\377\256s\034r?O\324\025&\217\360\032"
 856      344DFFAE 
 856      731C723F 
 856      4FD41526 
 856      8FF01A
 857 0a45 92F1FA03 		.ascii	"\222\361\372\003\306k\223\311\004\305\301\344/\245\025"
 857      C66B93C9 
 857      04C5C1E4 
 857      2FA515
 858 0a54 BA7E0C82 		.ascii	"\272~\014\202\261\373\321\205zl\222\216gO\010\231!i"
 858      B1FBD185 
 858      7A6C928E 
 858      674F0899 
 858      2169
 859 0a66 B3404454 		.ascii	"\263@DT&%\340\014\250\330\265\233x#_'\247>\346.\317"
 859      2625E00C 
 859      A8D8B59B 
 859      78235F27 
 859      A73EE62E 
 860 0a7b A769716A 		.ascii	"\247iqj\2358\261\017cW\256e\2330\202\203\277\344#\224"
 860      9D38B10F 
 860      6357AE65 
 860      9B308283 
 860      BFE42394 
 861 0a8f A98AD783 		.ascii	"\251\212\327\203\277i\012\377\340\317\\\374\311\322"
 861      BF690AFF 
 861      E0CF5CFC 
 861      C9D2
 862 0a9d 572CF764 		.ascii	"W,\367d\263\323\223\202p\346_\033``\356\354|\314\334"
 862      B3D39382 
 862      70E65F1B 
 862      6060EEEC 
 862      7CCCDC
ARM GAS  /tmp/ccVf3EPN.s 			page 69


 863 0ab0 4AFC8E45 		.ascii	"J\374\216EI\372\205\305\253N\220\306c\261\246\366\274"
 863      49FA85C5 
 863      AB4E90C6 
 863      63B1A6F6 
 863      BC
 864 0ac1 0DE04567 		.ascii	"\015\340Eg\3478\023eVV:\224YIT:6\036\260\325\007]\224"
 864      E7381365 
 864      56563A94 
 864      5949543A 
 864      361EB0D5 
 865 0ad8 B1384971 		.ascii	"\2618Iq\251s\342@\262\266\337\212\257As\365\306V\342"
 865      A973E240 
 865      B2B6DF8A 
 865      AF4173F5 
 865      C656E2
 866 0aeb 18EA6B56 		.ascii	"\030\352kVJkWGw\3508\006\205\236BpN\302\0348\210\212"
 866      4A6B5747 
 866      77E83806 
 866      859E4270 
 866      4EC21C38 
 867 0b01 CC51D8A3 		.ascii	"\314Q\330\243LxYOk\331\252\2423Yl\256\253h\036\033N"
 867      4C78594F 
 867      6BD9AAA2 
 867      33596CAE 
 867      AB681E1B 
 868 0b16 5877AFEF 		.ascii	"Xw\257\357\343\310\361\014<\243\276\2206\024\013\022"
 868      E3C8F10C 
 868      3CA3BE90 
 868      36140B12 
 869 0b26 48CC588C 		.ascii	"H\314X\214\323M\244\325\240\360\017\261\215\246%\322"
 869      D34DA4D5 
 869      A0F00FB1 
 869      8DA625D2 
 870 0b36 5AC8D132 		.ascii	"Z\310\3212\002\211\207C\027#\034ckJ\012[\213\205\014"
 870      02898743 
 870      17231C63 
 870      6B4A0A5B 
 870      8B850C
 871 0b49 53ED692E 		.ascii	"S\355i.Ih\321S\2239\315\263`\336;\001\222b\257\216c"
 871      4968D153 
 871      9339CDB3 
 871      60DE3B01 
 871      9262AF8E 
 872 0b5e 691CCC5C 		.ascii	"i\034\314\\I\252\023\336\301\314R\205Y\331-svOL\020"
 872      49AA13DE 
 872      C1CC5285 
 872      59D92D73 
 872      764F4C10 
 873 0b72 E2298260 		.ascii	"\342)\202`\233\314\375\225\264\026\317\213\267\036o"
 873      9BCCFD95 
 873      B416CF8B 
 873      B71E6F
 874 0b81 1D8F0AAD 		.ascii	"\035\217\012\255\375\023\016\252\341.n\023\"\324\225"
 874      FD130EAA 
 874      E12E6E13 
 874      22D495
 875 0b90 097749A7 		.ascii	"\011wI\24721\345\242\015\346Zd\304J\277U\304\233\355"
ARM GAS  /tmp/ccVf3EPN.s 			page 70


 875      3231E5A2 
 875      0DE65A64 
 875      C44ABF55 
 875      C49BED
 876 0ba3 679A50CF 		.ascii	"g\232P\317K\326\272f\366\312\216\220\261\256Y\255\340"
 876      4BD6BA66 
 876      F6CA8E90 
 876      B1AE59AD 
 876      E0
 877 0bb4 75CDE66C 		.ascii	"u\315\346l\356\272F\214CH)\314\212a\316i\262b\300\357"
 877      EEBA468C 
 877      434829CC 
 877      8A61CE69 
 877      B262C0EF 
 878 0bc8 D3AC1826 		.ascii	"\323\254\030&M\214\315;\275\204\254k\240\357Up\213\331"
 878      4D8CCD3B 
 878      BD84AC6B 
 878      A0EF5570 
 878      8BD9
 879 0bda 4B2860DD 		.ascii	"K(`\335;\230(\003\336\374\323\3444\325\000\333\357\031"
 879      3B982803 
 879      DEFCD3E4 
 879      34D500DB 
 879      EF19
 880 0bec ACD001D6 		.ascii	"\254\320\001\326`\007kq\003&\232\334\001\330\";\330"
 880      60076B71 
 880      03269ADC 
 880      01D8223B 
 880      D8
 881 0bfd EF3D8339 		.ascii	"\357=\2039\231-\261\203\035u\003\326]\314l\231\035\354"
 881      992DB183 
 881      1D7503D6 
 881      5DCC6C99 
 881      1DEC
 882 0c0f 23CF604E 		.ascii	"#\317`Nf\033\354`mn\300\012\304\3146\331\301\316x\006"
 882      661BEC60 
 882      6D6EC00A 
 882      C4CC36D9 
 882      C1CE7806 
 883 0c23 7332DB62 		.ascii	"s2\333b\007;\357\006\254P\314l\233\035\354\202g0'\263"
 883      073BEF06 
 883      AC50CC6C 
 883      9B1DEC82 
 883      673027B3 
 884 0c37 1D76B08B 		.ascii	"\035v\260\213n\300\036\0203{\307\016\326\341\031\314"
 884      6EC01E10 
 884      337BC70E 
 884      D6E119CC 
 885 0c47 C96C971D 		.ascii	"\311l\227\035\354\232\033\260\001\"f\343c{\376\271N"
 885      EC9A1BB0 
 885      012266E3 
 885      637BFEB9 
 885      4E
 886 0c58 4D0CEC06 		.ascii	"M\014\354\006\252`\332c/\266VN1){\237\016\327\211\037"
 886      AA60DA63 
 886      2FB6564E 
 886      31297B9F 
ARM GAS  /tmp/ccVf3EPN.s 			page 71


 886      0ED7891F 
 887 0c6c 84B18FB2 		.ascii	"\204\261\217\262t\223\345\355\204\341\021wF\341C{\024"
 887      7493E5ED 
 887      84E11177 
 887      46E1437B 
 887      14
 888 0c7d BE751385 		.ascii	"\276u\023\205!b\260cv\260\0119.\300\206\211+\373#;X"
 888      2162B063 
 888      76B00939 
 888      2EC08689 
 888      2BFB233B 
 889 0c92 AD673027 		.ascii	"\255g0'\263\223v\260\031n\300\236\0253k\263\203\315"
 889      B39376B0 
 889      196EC09E 
 889      15336BB3 
 889      83CD
 890 0ca4 F20C6667 		.ascii	"\362\014fg6>v*\2219\215C\230\324\031\342\354.\035\305"
 890      363E762A 
 890      91398D43 
 890      98D419E2 
 890      EC2E1DC5 
 891 0cb8 6CA9C314 		.ascii	"l\251\303\024S\321q+sv93gW\"s\346\262\274\035(\364v"
 891      53D1712B 
 891      73763933 
 891      67572273 
 891      E6B2BC1D 
 892 0ccf 242708BC 		.ascii	"$'\010\274\217}\250T\321\033\012\036\313\337T\360\262"
 892      8F7DA854 
 892      D11B0A1E 
 892      CBDF54F0 
 892      B2
 893 0ce0 F82D727D 		.ascii	"\370-r}\233\\\177G\256\033\311u3\271n%\327\355\344\272"
 893      9B5C7F47 
 893      AE1BC975 
 893      33B96E25 
 893      D7EDE4BA 
 894 0cf4 935C9BC8 		.ascii	"\223\\\233\310u7\271\356%\327}\344\272\237\\[\310\365"
 894      7537B9EE 
 894      25D77DE4 
 894      BA9F5C5B 
 894      C8F5
 895 0d06 00B91E22 		.ascii	"\000\271\036\"\327\017\310\365\010\271\036Ul\353]f\256"
 895      D70FC8F5 
 895      08B91E55 
 895      6CEB5D66 
 895      AE
 896 0d17 B25A5041 		.ascii	"\262ZPA\230\373\011vj\026\377z\335\276\245\211\337\340"
 896      98FB0976 
 896      6A16FF7A 
 896      DDBEA589 
 896      DFE0
 897 0d29 3566334B 		.ascii	"5f3K\314\331)\366*\376\240$\377\250eg\016wN7A\337\360"
 897      CCD929F6 
 897      2AFEA024 
 897      FFA86567 
 897      0E774E37 
 898 0d40 869E619E 		.ascii	"\206\236a\236\267\302\012^\341\237uR\2746%i-\014Tw\375"
ARM GAS  /tmp/ccVf3EPN.s 			page 72


 898      B7C20A5E 
 898      E19F7552 
 898      BC362569 
 898      2D0C5477 
 899 0d55 F6D3BF25 		.ascii	"\366\323\277%\263sX\356\334g\230\207\216\326\235\301"
 899      B37358EE 
 899      DC679887 
 899      8ED69DC1 
 900 0d65 53A90D9E 		.ascii	"S\251\015\236\346\032\254\333t\340\336$\203\033r]\031"
 900      E61AACDB 
 900      74E0DE24 
 900      831B725D 
 900      19
 901 0d76 FC24B5C1 		.ascii	"\374$\265\3013\\\203\015\333\332\037L2x\303\235\301"
 901      335C830D 
 901      DBDA1F4C 
 901      3278C39D 
 901      C1
 902 0d87 786A839F 		.ascii	"xj\203\237&\033\374\360r\374\312\272\366\345h\337\232"
 902      261BFCF0 
 902      72FCCABA 
 902      F6E568DF 
 902      9A
 903 0d98 5A1D9FD5 		.ascii	"Z\035\237\325\214[\036\353\356\341\247\013\347y[\014"
 903      8C5B1EEB 
 903      EEE1A70B 
 903      E7795B0C 
 904 0da8 C29375FA 		.ascii	"\302\223u\372\314lA\314\310\343\036\012\235P\2553\365"
 904      CC6C41CC 
 904      C8E31E0A 
 904      9D50AD33 
 904      F5
 905 0db9 E5A4C439 		.ascii	"\345\244\3049\201s\316\263\361\033_\304\220\236k\356"
 905      8173CEB3 
 905      F11B5FC4 
 905      909E6BEE 
 906 0dc9 752C235B 		.ascii	"u,#[\341\3564\377\307\241\331\350F\323:T\277\376E\\"
 906      E1EE34FF 
 906      C7A1D9E8 
 906      46D33A54 
 906      BFFE455C 
 907 0ddd 5E303786 		.ascii	"^07\206\022\247\3526M\336\251\372\227\334\252\200\354"
 907      12A7EA36 
 907      4DDEA9FA 
 907      97DCAA80 
 907      EC
 908 0dee FE075BDD 		.ascii	"\376\007[\335\237'u\277\232\037\237\243f|T\364G\005"
 908      9F2775BF 
 908      9A1F9FA3 
 908      667C54F4 
 908      4705
 909 0e00 73BDE4CE 		.ascii	"s\275\344\316\313z\3637\007ft\334\351\335\266\3515\272"
 909      CB7AF337 
 909      076674DC 
 909      E9DDB6E9 
 909      35BA
 910 0e12 D1B36273 		.ascii	"\321\263bs\263~\376=\323\237OD\346R\352\310\374I\260"
ARM GAS  /tmp/ccVf3EPN.s 			page 73


 910      B37EFE3D 
 910      D39F4F44 
 910      E652EAC8 
 910      FC49B0
 911 0e25 B4333AB6 		.ascii	"\2643:\266\216\024?h\276\2520K;X\313_\354\275\260.\233"
 911      8E143F68 
 911      BEAA304B 
 911      3B58CB5F 
 911      ECBDB02E 
 912 0e3a B3B613EC 		.ascii	"\263\266\023\354\025\01561\263(\3467\236\267\212\256"
 912      150D3631 
 912      B328E637 
 912      9EB78AAE 
 913 0e4a 0BB68A32 		.ascii	"\013\266\2122mU\035#\255\356?\326o\322u\262\2517~\022"
 913      6D551D23 
 913      ADEE3FD6 
 913      6FD275B2 
 913      A9377E12 
 914 0e5e 3217C4DB 		.ascii	"2\027\304\333\362\270-\235Y\020\337`\027\3047\271}\311"
 914      F2B82D9D 
 914      5910DF60 
 914      17C437B9 
 914      7DC9
 915 0e70 DC3D1DBF 		.ascii	"\334=\035\277\261\345\223a\3413W\026n\261\026ns-\354"
 915      B1E59361 
 915      E1335716 
 915      6EB1166E 
 915      732DEC
 916 0e83 D8DB9E6C 		.ascii	"\330\333\236laQ\276\033\013\337\261\026:\271\026\026"
 916      6151BE1B 
 916      0BDFB116 
 916      3AB91616 
 917 0e93 9EBB5070 		.ascii	"\236\273Pp3\021(\313\310I\207\021\322\307\300b \037"
 917      331128CB 
 917      C8498711 
 917      D2C7C062 
 917      201F
 918 0ea5 A53239DE 		.ascii	"\24529\336\307\230\234\340\343\231\274\262\256\343?"
 918      C7989CE0 
 918      E399BCB2 
 918      AEE33F
 919 0eb4 7975F3B5 		.ascii	"yu\363\265+\277jY#S\270F\346\3569Z\236\0249\275\213"
 919      2BBF6A59 
 919      2353B846 
 919      E6EE395A 
 919      9E1439BD 
 920 0ec9 1B0BD358 		.ascii	"\033\013\323X\013\323\271\026v\354\375\324\237d\341"
 920      0BD3B916 
 920      76ECFDD4 
 920      9F64E1
 921 0ed8 5557165E 		.ascii	"UW\026^e-\314\344ZXx\356\350\002\264\300\2328L\225M"
 921      652DCCE4 
 921      5A5878EE 
 921      E802B4C0 
 921      9A384C95 
 922 0eed 2B0D5D92 		.ascii	"+\015]\222*GE\223\022\030<\233\257\2616\353|\251z\202"
 922      2A474593 
ARM GAS  /tmp/ccVf3EPN.s 			page 74


 922      12183C9B 
 922      AFB136EB 
 922      7CA97A82 
 923 0f01 8D293679 		.ascii	"\215)6y\346\370<\375\327\220\006k\025\321\213\002\314"
 923      E6F83CFD 
 923      D790066B 
 923      15D18B02 
 923      CC
 924 0f12 F3796DF6 		.ascii	"\363ym\366\363}\374fo\376\004[\2447\327\033\325\261"
 924      F37DFC66 
 924      6FFE045B 
 924      A437D71B 
 924      D5B1
 925 0f24 A67E37AA 		.ascii	"\246~7\252\337\340\231\351B\001\323\256i\230.\02005"
 925      DFE099E9 
 925      4201D3AE 
 925      69982E10 
 925      3035
 926 0f36 7ED825D2 		.ascii	"~\330%\322Z$\324\252O\261-\272\230\243E\367\366R\034"
 926      5A24D4AA 
 926      4FB12DBA 
 926      98A345F7 
 926      F6521C
 927 0f49 6C9E15FC 		.ascii	"l\236\025\374\217 \343(D\244\265T\310\360d\212\301f"
 927      8F20E328 
 927      44A4B554 
 927      C8F0648A 
 927      C166
 928 0f5b 99502B43 		.ascii	"\231P+CLp\271\217\235z_Yw\363-\307\344\313\340*Kk\272"
 928      4C70B98F 
 928      9D7A5F59 
 928      77F32DC7 
 928      E4CBE02A 
 929 0f72 7047FDDD 		.ascii	"pG\375\335\354\250\337\350s3\012\353z\273\375g\364\215"
 929      ECA8DFE8 
 929      73330AEB 
 929      7ABBFD67 
 929      F48D
 930 0f84 6C535BE1 		.ascii	"lS[\341lj\222/P\256V\017(\252\211T\027U\004G\025\215"
 930      6C6A922F 
 930      50AE560F 
 930      28AA8954 
 930      17550447 
 931 0f9a 0E048AD4 		.ascii	"\016\004\212\324\352\312"
 931      EACA
 932 0fa0 7EA17048 		.ascii	"~\241pH\353\247\251\243\202E\217\364\037\\\024\014\005"
 932      EBA7A9A3 
 932      82458FF4 
 932      1F5C140C 
 932      05
 933 0fb1 2A6ACAB4 		.ascii	"*j\312\264\242H\264\254L{\241\177\271\224\031\011\376"
 933      A248B4AC 
 933      4C7BA17F 
 933      B9941909 
 933      FE
 934 0fc2 9BE68F66 		.ascii	"\233\346\217f>\365\213\347\012\213\245{\211\272Y(\244"
 934      3EF58BE7 
ARM GAS  /tmp/ccVf3EPN.s 			page 75


 934      0A8BA57B 
 934      89BA5928 
 934      A4
 935 0fd3 8DC14850 		.ascii	"\215\301HP6\030\212B\331\254\032\370\036\354\217\366"
 935      36188A42 
 935      D9AC1AF8 
 935      1EEC8FF6 
 936 0fe3 E395AA54 		.ascii	"\343\225\252T\003\345\301\220V\344\007\\\265\246\"\352"
 936      03E5C190 
 936      56E4075C 
 936      B5A622EA 
 937 0ff3 8FBE52A5 		.ascii	"\217\276R\245E@+\307\357\247z\031\376"
 937      45402BC7 
 937      EFA77A19 
 937      FE
 938 1000 27C2E18A 		.ascii	"'\302\341\212\357\367\357_d\374\213j\221(\341\032(\367"
 938      EFF7EF5F 
 938      64FC8B6A 
 938      9128E11A 
 938      28F7
 939 1012 E3FBFE01 		.ascii	"\343\373\376\001)\277\252\032\312\372\243\341\027\265"
 939      29BFAA1A 
 939      CAFAA3E1 
 939      17B5
 940 1020 502445C9 		.ascii	"P$E\311r\311\027R+\265\214\210\026\255\251\312\216j"
 940      72C91752 
 940      2BB58C88 
 940      16ADA9CA 
 940      8E6A
 941 1032 6A755978 		.ascii	"juYxL(K\033\253\005j\242Z..\023P#\340X>}E\324\224h\240"
 941      4C284B1B 
 941      AB056AA2 
 941      5A2E2E13 
 941      5023E058 
 942 104d 2AD7B050 		.ascii	"*\327\260P\001\\{\342w~\362\034\352_\245VG\373\017\310"
 942      015C7BE2 
 942      777EF21C 
 942      EA5FA556 
 942      47FB0FC8 
 943 1061 25E5FC2F 		.ascii	"%\345\374/\250\301\012\24522:\337xT#\021\255:\232\023"
 943      A8C10AA5 
 943      32323ADF 
 943      78542311 
 943      AD3A9A13 
 944 1075 0887CA82 		.ascii	"\010\207\312\202\321`8t\227\375\265?\242\275T\243\205"
 944      D1603874 
 944      97FDB53F 
 944      A2BD54A3 
 944      85
 945 1086 025AB636 		.ascii	"\002Z\2666\266J\013D\265\262\373-\336\341HQu\324\212"
 945      B64A0B44 
 945      B5B2FB2D 
 945      DEE14851 
 945      75D48A
 946 1099 54A03CF2 		.ascii	"T\240<\362J\304\012\013\276\017V\002\261l\034\236\201"
 946      4AC40A0B 
 946      BE0F5602 
ARM GAS  /tmp/ccVf3EPN.s 			page 76


 946      B16C1C9E 
 946      81
 947 10aa 3FF54773 		.ascii	"?\365Gs\215H\341\333\002\207\005RnL0\004>fD\242@T\321"
 947      8D48E1DB 
 947      02870552 
 947      6E4C3004 
 947      3E6644A2 
 948 10c1 426544ED 		.ascii	"BeD\355\341A\226\032\276\315\263y\204B\271\211'\037"
 948      E141961A 
 948      BECDB379 
 948      8442B989 
 948      271F
 949 10d3 3853959F 		.ascii	"8S\225\237x\256\010u#\017Ze\220F;\203\\{0o\375\301\301"
 949      78AE0875 
 949      230F5A65 
 949      90463B83 
 949      5C7B306F 
 950 10ea 766702E1 		.ascii	"vg\002\341\312\312p\250\250*\\\035\215\024=^2\274x\370"
 950      CACA70A8 
 950      A82A5C1D 
 950      8D143D5E 
 950      32BC78F8 
 951 10fe 58FCAE2A 		.ascii	"X\374\256*X\241UG\212\236*.\006\037M\0073\300\244?\232"
 951      58A15547 
 951      8A9E2A2E 
 951      061F4D07 
 951      33C0A43F 
 952 1113 45994116 		.ascii	"E\231A\026\320\273\037\333\001\313\325\012+<p\357\217"
 952      D0BB1FDB 
 952      01CBD50A 
 952      2B3C70EF 
 952      8F
 953 1124 44AB35B5 		.ascii	"D\2535\265\022\253\367~\002\352\257\224\2046\032T+J"
 953      12ABF77E 
 953      02EAAF94 
 953      84361A54 
 953      2B4A
 954 1136 C91FEEE1 		.ascii	"\311\037\356\341\275\374\325\360\021\031c\252\203Q\315"
 954      BDFCD5F0 
 954      111963AA 
 954      8351CD
 955 1145 074F654A 		.ascii	"\007OeJUMT\031\255E\225\227+\243\206\3034\0032\015\354"
 955      554D5419 
 955      AD459597 
 955      2BA386C3 
 955      3403320D 
 956 115a 1F0A2B27 		.ascii	"\037\012+'Z\216\365\261\355\334@\371\210\362\262\322"
 956      5A8EF5B1 
 956      EDDC40F9 
 956      88F2B2D2 
 957 116a 0A4DC3B9 		.ascii	"\012M\303\271\005\020\201\362\252\034r\003A\251\352"
 957      051081F2 
 957      AA1C7203 
 957      41A9EA
 958 1179 69DE418A 		.ascii	"i\336A\212\372G\325\274\360\202Vm\004\263\"\034\000"
 958      FA47D5BC 
 958      F082566D 
ARM GAS  /tmp/ccVf3EPN.s 			page 77


 958      04B3221C 
 958      00
 959 118a 1770EE74 		.ascii	"\027p\356t'\317\243+\302\243\350\213\336VZ\325Tk\376"
 959      27CFA32B 
 959      C2A3E88B 
 959      DE565AD5 
 959      546BFE
 960 119d 4A2D1251 		.ascii	"J-\022QGk\017:\363\033\310D\3025\325\001\315x$\032\325"
 960      476B0F3A 
 960      F31BC844 
 960      C235D501 
 960      CD78241A 
 961 11b2 E1304E76 		.ascii	"\3410Nv\243&#5\340\244\301#\022\325\252\362\003\025"
 961      A3262335 
 961      E0A4C123 
 961      12D5AAF2 
 961      0315
 962 11c4 90F794C8 		.ascii	"\220\367\224\310 6\252F\035\225\216\030\376\360\240"
 962      2036AA46 
 962      1D958E18 
 962      FEF0A0
 963 11d3 A2679E19 		.ascii	"\242g\236\031Z4\342\351\341/\017\204\266\\\211\353 "
 963      5A34E2E9 
 963      E12F0F84 
 963      B65C89EB 
 963      20
 964 11e4 5809A079 		.ascii	"X\011\240y\326\203?\252\024\227\014\004\031\344+\035"
 964      D6833FAA 
 964      14970C04 
 964      19E42B1D 
 965 11f4 5E5CE21B 		.ascii	"^\\\342\033\372\364\223%ri\211\362\344S%\031\305\305"
 965      FAF49325 
 965      726989F2 
 965      E4532519 
 965      C5C5
 966 1206 C34B0692 		.ascii	"\303K\006\222\353 _q\361\223%J\361/F(\317\226\026+\217"
 966      EB205F71 
 966      F193254A 
 966      F12F4628 
 966      CF96162B 
 967 121b 97942825 		.ascii	"\227\224(%\305\360\014\012O\014\035Q\242\014\305\232"
 967      C5F00C0A 
 967      4F0C1D51 
 967      A20CC59A 
 968 122b C31F2F91 		.ascii	"\303\037/\221\177ih=\014\345G\226\364e\211\205#p\001"
 968      7F69683D 
 968      0CE54796 
 968      F4658985 
 968      237001
 969 123e 5FF137AE 		.ascii	"_\3617\256g\374\375\313\310SZ\264\024\032\204V9\002"
 969      67FCFDCB 
 969      C8535AB4 
 969      141A8456 
 969      3902
 970 1250 727DE40F 		.ascii	"r}\344\017\204\225\3642\016G\317@\371\257F85\212\322"
 970      8495F432 
 970      0E47CF40 
ARM GAS  /tmp/ccVf3EPN.s 			page 78


 970      F9AF4638 
 970      358AD2
 971 1263 A6697920 		.ascii	"\246iy \014\241\307M\251\032 z\341?\032O~\310\026r\367"
 971      0CA1C74D 
 971      A91A207A 
 971      E13F1A4F 
 971      7EC81672 
 972 1278 B0BB181A 		.ascii	"\260\273\030\032y\352\257\250(\303T\214;\202\021\010"
 972      79EAAFA8 
 972      28C3548C 
 972      3B821108 
 973 1288 D784A25A 		.ascii	"\327\204\242Zu/\303\243\247#\230\330?\006\243\320-\216"
 973      752FC3A3 
 973      A72398D8 
 973      3F06A3D0 
 973      2D8E
 974 129a F461FC1E 		.ascii	"\364a\374\036\230\266\343u\036.\012^<\023\016\274\330"
 974      98B6E375 
 974      1E2E0A5E 
 974      3C130EBC 
 974      D8
 975 12ab 3755AF81 		.ascii	"7U\257\201;\214@9-\331\317\245\257/\377\024Ws\016\361"
 975      3B8C4039 
 975      2DD9CFA5 
 975      AF2FFF14 
 975      57730EF1 
 976 12bf 1472F3C5 		.ascii	"\024r\363\305\201\034=ml\264\250xx\351\323\245\011{"
 976      811C3D6D 
 976      6CB4A878 
 976      78E9D3A5 
 976      097B
 977 12d1 959160C4 		.ascii	"\225\221`\304\017\303\007\350v\361\373\313\202\021u"
 977      0FC307E8 
 977      76F1FBCB 
 977      821175
 978 12e0 5485E60F 		.ascii	"T\205\346\017V\277\324E\255\030\243\276\022\201\206"
 978      56BFD445 
 978      AD18A3BE 
 978      128186
 979 12ef 8C7BCF2E 		.ascii	"\214{\317.\224\373s!\214\235G\330\321{b\261\206\334"
 979      94FB7321 
 979      8C9D47D8 
 979      D17B62B1 
 979      86DC
 980 1301 E7FBFD5A 		.ascii	"\347\373\375Z\310\004\350\206UF\220fF\032\327\377\002"
 980      C804E886 
 980      55469066 
 980      461AD7FF 
 980      02
 981 1312 AE434C67 		.ascii	"\256CLg"
 982              		.text
 983              		.section	.gnu.lto_.symtab.f70c133ce5f8cb68,"",%progbits
 984 0000 5F746573 		.ascii	"_test_fail\000\000\000\000\000\000\000\000\000\000\000"
 984      745F6661 
 984      696C0000 
 984      00000000 
 984      00000000 
ARM GAS  /tmp/ccVf3EPN.s 			page 79


 985 0015 00F40000 		.ascii	"\000\364\000\000\000test_global_fail\000\000\000\000"
 985      00746573 
 985      745F676C 
 985      6F62616C 
 985      5F666169 
 986 002e 00000000 		.ascii	"\000\000\000\000\000\000\000\000\215\001\000\000_te"
 986      00000000 
 986      8D010000 
 986      5F7465
 987 003d 73745F61 		.ascii	"st_assert\000\000\000\000\000\000\000\000\000\000\000"
 987      73736572 
 987      74000000 
 987      00000000 
 987      00000000 
 988 0051 00FB0000 		.ascii	"\000\373\000\000\000_test_assert_sequence\000\000\000"
 988      005F7465 
 988      73745F61 
 988      73736572 
 988      745F7365 
 989 006e 00000000 		.ascii	"\000\000\000\000\000\000\000\000\000\004\001\000\000"
 989      00000000 
 989      00040100 
 989      00
 990 007b 5F746573 		.ascii	"_test_assert_time_window\000\000\000\000\000\000\000"
 990      745F6173 
 990      73657274 
 990      5F74696D 
 990      655F7769 
 991 009a 00000000 		.ascii	"\000\000\000\000\000\016\001\000\000test_printn\000"
 991      000E0100 
 991      00746573 
 991      745F7072 
 991      696E746E 
 992 00af 00000000 		.ascii	"\000\000\000\000\000\000\000\000\000\000\000#\001\000"
 992      00000000 
 992      00000023 
 992      0100
 993 00bd 00746573 		.ascii	"\000test_print\000\000\000\000\000\000\000\000\000\000"
 993      745F7072 
 993      696E7400 
 993      00000000 
 993      00000000 
 994 00d2 00003001 		.ascii	"\000\0000\001\000\000test_println\000\000\000\000\000"
 994      00007465 
 994      73745F70 
 994      72696E74 
 994      6C6E0000 
 995 00e9 00000000 		.ascii	"\000\000\000\000\000\000\0007\001\000\000test_emit_"
 995      00000037 
 995      01000074 
 995      6573745F 
 995      656D6974 
 996 00fe 746F6B65 		.ascii	"token\000\000\000\000\000\000\000\000\000\000\000\000"
 996      6E000000 
 996      00000000 
 996      00000000 
 996      00
ARM GAS  /tmp/ccVf3EPN.s 			page 80


 997 010f 3B010000 		.ascii	";\001\000\000test_emit_token_i\000\000\000\000\000\000"
 997      74657374 
 997      5F656D69 
 997      745F746F 
 997      6B656E5F 
 998 012a 00000000 		.ascii	"\000\000\000\000\000\000B\001\000\000test_execute\000"
 998      00004201 
 998      00007465 
 998      73745F65 
 998      78656375 
 999 0141 00000000 		.ascii	"\000\000\000\000\000\000\000\000\000\000\000F\001\000"
 999      00000000 
 999      00000046 
 999      0100
 1000 014f 00746573 		.ascii	"\000test_step\000\000\000\000\000\000\000\000\000\000"
 1000      745F7374 
 1000      65700000 
 1000      00000000 
 1000      00000000 
 1001 0163 00009601 		.ascii	"\000\000\226\001\000\000test_suite\000\000\002\000\000"
 1001      00007465 
 1001      73745F73 
 1001      75697465 
 1001      00000200 
 1002 0178 00000000 		.ascii	"\000\000\000\000\000\000\000\221\001\000\000chThdSl"
 1002      00000091 
 1002      01000063 
 1002      68546864 
 1002      536C
 1003 018a 65657000 		.ascii	"eep\000\000\002\000\000\000\000\000\000\000\000\000"
 1003      00020000 
 1003      00000000 
 1003      000000
 1004 0199 7F010000 		.ascii	"\177\001\000\000"
 1005              		.text
 1006              		.section	.gnu.lto_.opts,"",%progbits
 1007 0000 272D6D63 		.ascii	"'-mcpu=cortex-m0' '-mno-thumb-interwork' '-mthumb' "
 1007      70753D63 
 1007      6F727465 
 1007      782D6D30 
 1007      2720272D 
 1008 0033 272D6767 		.ascii	"'-ggdb' '-O2' '-fomit-frame-pointer' '-falign-funct"
 1008      64622720 
 1008      272D4F32 
 1008      2720272D 
 1008      666F6D69 
 1009 0066 696F6E73 		.ascii	"ions=16' '-ffunction-sections' '-fdata-sections' '-"
 1009      3D313627 
 1009      20272D66 
 1009      66756E63 
 1009      74696F6E 
 1010 0099 666E6F2D 		.ascii	"fno-common' '-flto'\000"
 1010      636F6D6D 
 1010      6F6E2720 
 1010      272D666C 
 1010      746F2700 
 1011              		.text
ARM GAS  /tmp/ccVf3EPN.s 			page 81


 1012              		.cfi_sections	.debug_frame
 1013              		.section	.text.print_line,"ax",%progbits
 1014              		.align	2
 1015              		.p2align 4,,15
 1016              		.code	16
 1017              		.thumb_func
 1018              		.type	print_line, %function
 1019              	print_line:
 1020              	.LFB182:
 1021              		.file 1 "../../../test/lib/ch_test.c"
 1022              		.loc 1 90 0
 1023              		.cfi_startproc
 1024              	.LVL0:
 1025 0000 38B5     		push	{r3, r4, r5, lr}
 1026              		.cfi_def_cfa_offset 16
 1027              		.cfi_offset 3, -16
 1028              		.cfi_offset 4, -12
 1029              		.cfi_offset 5, -8
 1030              		.cfi_offset 14, -4
 1031 0002 084D     		ldr	r5, .L5
 1032              		.loc 1 90 0
 1033 0004 4C24     		mov	r4, #76
 1034              	.LVL1:
 1035              	.L3:
 1036              		.loc 1 94 0 discriminator 2
 1037 0006 2868     		ldr	r0, [r5]
 1038 0008 2D21     		mov	r1, #45
 1039 000a 0368     		ldr	r3, [r0]
 1040 000c 013C     		sub	r4, r4, #1
 1041              	.LVL2:
 1042 000e 9B68     		ldr	r3, [r3, #8]
 1043 0010 9847     		blx	r3
 1044              	.LVL3:
 1045              		.loc 1 93 0 discriminator 2
 1046 0012 002C     		cmp	r4, #0
 1047 0014 F7D1     		bne	.L3
 1048              		.loc 1 95 0
 1049 0016 2868     		ldr	r0, [r5]
 1050 0018 0349     		ldr	r1, .L5+4
 1051 001a 0368     		ldr	r3, [r0]
 1052 001c 0222     		mov	r2, #2
 1053 001e 1B68     		ldr	r3, [r3]
 1054 0020 9847     		blx	r3
 1055              	.LVL4:
 1056              		.loc 1 96 0
 1057              		@ sp needed
 1058 0022 38BD     		pop	{r3, r4, r5, pc}
 1059              	.L6:
 1060              		.align	2
 1061              	.L5:
 1062 0024 00000000 		.word	.LANCHOR0
 1063 0028 00000000 		.word	.LC1
 1064              		.cfi_endproc
 1065              	.LFE182:
 1066              		.size	print_line, .-print_line
 1067 002c C046C046 		.section	.text._test_fail,"ax",%progbits
 1068              		.align	2
ARM GAS  /tmp/ccVf3EPN.s 			page 82


 1069              		.p2align 4,,15
 1070              		.global	_test_fail
 1071              		.code	16
 1072              		.thumb_func
 1073              		.type	_test_fail, %function
 1074              	_test_fail:
 1075              	.LFB183:
 1076              		.loc 1 102 0
 1077              		.cfi_startproc
 1078              	.LVL5:
 1079              		.loc 1 104 0
 1080 0000 044A     		ldr	r2, .L8
 1081 0002 0123     		mov	r3, #1
 1082 0004 1370     		strb	r3, [r2]
 1083              		.loc 1 105 0
 1084 0006 044A     		ldr	r2, .L8+4
 1085              		.loc 1 108 0
 1086              		@ sp needed
 1087              		.loc 1 105 0
 1088 0008 1370     		strb	r3, [r2]
 1089              		.loc 1 106 0
 1090 000a 044B     		ldr	r3, .L8+8
 1091 000c 1860     		str	r0, [r3]
 1092              		.loc 1 108 0
 1093 000e 0120     		mov	r0, #1
 1094              	.LVL6:
 1095 0010 7047     		bx	lr
 1096              	.L9:
 1097 0012 C046     		.align	2
 1098              	.L8:
 1099 0014 00000000 		.word	.LANCHOR1
 1100 0018 00000000 		.word	.LANCHOR2
 1101 001c 00000000 		.word	.LANCHOR3
 1102              		.cfi_endproc
 1103              	.LFE183:
 1104              		.size	_test_fail, .-_test_fail
 1105              		.section	.text._test_assert,"ax",%progbits
 1106              		.align	2
 1107              		.p2align 4,,15
 1108              		.global	_test_assert
 1109              		.code	16
 1110              		.thumb_func
 1111              		.type	_test_assert, %function
 1112              	_test_assert:
 1113              	.LFB184:
 1114              		.loc 1 110 0
 1115              		.cfi_startproc
 1116              	.LVL7:
 1117              		.loc 1 114 0
 1118 0000 0023     		mov	r3, #0
 1119              		.loc 1 112 0
 1120 0002 0028     		cmp	r0, #0
 1121 0004 07D1     		bne	.L11
 1122              	.LVL8:
 1123              	.LBB102:
 1124              	.LBB103:
 1125              		.loc 1 104 0
ARM GAS  /tmp/ccVf3EPN.s 			page 83


 1126 0006 054A     		ldr	r2, .L13
 1127 0008 0123     		mov	r3, #1
 1128 000a 1370     		strb	r3, [r2]
 1129              		.loc 1 105 0
 1130 000c 044A     		ldr	r2, .L13+4
 1131 000e 1370     		strb	r3, [r2]
 1132              		.loc 1 106 0
 1133 0010 044B     		ldr	r3, .L13+8
 1134 0012 1960     		str	r1, [r3]
 1135              	.LBE103:
 1136              	.LBE102:
 1137              		.loc 1 113 0
 1138 0014 0123     		mov	r3, #1
 1139              	.LVL9:
 1140              	.L11:
 1141              		.loc 1 115 0
 1142 0016 181C     		mov	r0, r3
 1143              	.LVL10:
 1144              		@ sp needed
 1145 0018 7047     		bx	lr
 1146              	.L14:
 1147 001a C046     		.align	2
 1148              	.L13:
 1149 001c 00000000 		.word	.LANCHOR1
 1150 0020 00000000 		.word	.LANCHOR2
 1151 0024 00000000 		.word	.LANCHOR3
 1152              		.cfi_endproc
 1153              	.LFE184:
 1154              		.size	_test_assert, .-_test_assert
 1155 0028 C046C046 		.section	.text._test_assert_sequence,"ax",%progbits
 1155      C046C046 
 1156              		.align	2
 1157              		.p2align 4,,15
 1158              		.global	_test_assert_sequence
 1159              		.code	16
 1160              		.thumb_func
 1161              		.type	_test_assert_sequence, %function
 1162              	_test_assert_sequence:
 1163              	.LFB185:
 1164              		.loc 1 117 0
 1165              		.cfi_startproc
 1166              	.LVL11:
 1167 0000 F0B5     		push	{r4, r5, r6, r7, lr}
 1168              		.cfi_def_cfa_offset 20
 1169              		.cfi_offset 4, -20
 1170              		.cfi_offset 5, -16
 1171              		.cfi_offset 6, -12
 1172              		.cfi_offset 7, -8
 1173              		.cfi_offset 14, -4
 1174              		.loc 1 117 0
 1175 0002 8C46     		mov	ip, r1
 1176 0004 0F4F     		ldr	r7, .L21
 1177 0006 1049     		ldr	r1, .L21+4
 1178              	.LVL12:
 1179 0008 3E68     		ldr	r6, [r7]
 1180 000a 0B1C     		mov	r3, r1
 1181              		.loc 1 120 0
ARM GAS  /tmp/ccVf3EPN.s 			page 84


 1182 000c 05E0     		b	.L16
 1183              	.LVL13:
 1184              	.L19:
 1185              		.loc 1 121 0
 1186 000e 1578     		ldrb	r5, [r2]
 1187 0010 2278     		ldrb	r2, [r4]
 1188 0012 0130     		add	r0, r0, #1
 1189              	.LVL14:
 1190 0014 0133     		add	r3, r3, #1
 1191 0016 9542     		cmp	r5, r2
 1192 0018 09D1     		bne	.L20
 1193              	.LVL15:
 1194              	.L16:
 1195 001a 041C     		mov	r4, r0
 1196              	.LVL16:
 1197 001c 1A1C     		mov	r2, r3
 1198              		.loc 1 120 0 discriminator 1
 1199 001e 9E42     		cmp	r6, r3
 1200 0020 F5D8     		bhi	.L19
 1201              	.LVL17:
 1202              		.loc 1 125 0
 1203 0022 0378     		ldrb	r3, [r0]
 1204 0024 002B     		cmp	r3, #0
 1205 0026 02D1     		bne	.L20
 1206              	.LBB104:
 1207              	.LBB105:
 1208              		.loc 1 67 0
 1209 0028 3960     		str	r1, [r7]
 1210              	.LBE105:
 1211              	.LBE104:
 1212              		.loc 1 130 0
 1213 002a 0020     		mov	r0, #0
 1214              	.LVL18:
 1215 002c 08E0     		b	.L18
 1216              	.LVL19:
 1217              	.L20:
 1218              	.LBB106:
 1219              	.LBB107:
 1220              		.loc 1 104 0
 1221 002e 074A     		ldr	r2, .L21+8
 1222 0030 0123     		mov	r3, #1
 1223 0032 1370     		strb	r3, [r2]
 1224              		.loc 1 105 0
 1225 0034 064A     		ldr	r2, .L21+12
 1226              	.LBE107:
 1227              	.LBE106:
 1228              		.loc 1 122 0
 1229 0036 0120     		mov	r0, #1
 1230              	.LVL20:
 1231              	.LBB109:
 1232              	.LBB108:
 1233              		.loc 1 105 0
 1234 0038 1370     		strb	r3, [r2]
 1235              		.loc 1 106 0
 1236 003a 064B     		ldr	r3, .L21+16
 1237 003c 6246     		mov	r2, ip
 1238 003e 1A60     		str	r2, [r3]
ARM GAS  /tmp/ccVf3EPN.s 			page 85


 1239              	.LVL21:
 1240              	.L18:
 1241              	.LBE108:
 1242              	.LBE109:
 1243              		.loc 1 131 0
 1244              		@ sp needed
 1245 0040 F0BD     		pop	{r4, r5, r6, r7, pc}
 1246              	.L22:
 1247 0042 C046     		.align	2
 1248              	.L21:
 1249 0044 00000000 		.word	.LANCHOR4
 1250 0048 00000000 		.word	.LANCHOR5
 1251 004c 00000000 		.word	.LANCHOR1
 1252 0050 00000000 		.word	.LANCHOR2
 1253 0054 00000000 		.word	.LANCHOR3
 1254              		.cfi_endproc
 1255              	.LFE185:
 1256              		.size	_test_assert_sequence, .-_test_assert_sequence
 1257 0058 C046C046 		.section	.text._test_assert_time_window,"ax",%progbits
 1257      C046C046 
 1258              		.align	2
 1259              		.p2align 4,,15
 1260              		.global	_test_assert_time_window
 1261              		.code	16
 1262              		.thumb_func
 1263              		.type	_test_assert_time_window, %function
 1264              	_test_assert_time_window:
 1265              	.LFB186:
 1266              		.loc 1 135 0
 1267              		.cfi_startproc
 1268              	.LVL22:
 1269              	.LBB110:
 1270              	.LBB111:
 1271              	.LBB112:
 1272              	.LBB113:
 1273              	.LBB114:
 1274              		.file 2 "../../../os/hal/ports/STM32/LLD/TIMv1/hal_st_lld.h"
 1275              		.loc 2 141 0
 1276 0000 084B     		ldr	r3, .L26
 1277              	.LBE114:
 1278              	.LBE113:
 1279              	.LBE112:
 1280              	.LBE111:
 1281              	.LBE110:
 1282              	.LBB119:
 1283              	.LBB120:
 1284              	.LBB121:
 1285              		.file 3 "../../../os/rt/include/chvt.h"
 1286              		.loc 3 288 0
 1287 0002 091A     		sub	r1, r1, r0
 1288              	.LVL23:
 1289              	.LBE121:
 1290              	.LBE120:
 1291              	.LBE119:
 1292              	.LBB124:
 1293              	.LBB118:
 1294              	.LBB117:
ARM GAS  /tmp/ccVf3EPN.s 			page 86


 1295              	.LBB116:
 1296              	.LBB115:
 1297              		.loc 2 141 0
 1298 0004 5B6A     		ldr	r3, [r3, #36]
 1299              	.LVL24:
 1300              	.LBE115:
 1301              	.LBE116:
 1302              	.LBE117:
 1303              	.LBE118:
 1304              	.LBE124:
 1305              	.LBB125:
 1306              	.LBB126:
 1307              		.loc 1 112 0
 1308 0006 89B2     		uxth	r1, r1
 1309              	.LBE126:
 1310              	.LBE125:
 1311              	.LBB132:
 1312              	.LBB123:
 1313              	.LBB122:
 1314              		.loc 3 288 0
 1315 0008 1B1A     		sub	r3, r3, r0
 1316              	.LVL25:
 1317              	.LBE122:
 1318              	.LBE123:
 1319              	.LBE132:
 1320              	.LBB133:
 1321              	.LBB131:
 1322              		.loc 1 112 0
 1323 000a 9BB2     		uxth	r3, r3
 1324              		.loc 1 114 0
 1325 000c 0020     		mov	r0, #0
 1326              	.LVL26:
 1327              		.loc 1 112 0
 1328 000e 8B42     		cmp	r3, r1
 1329 0010 07D3     		bcc	.L24
 1330              	.LVL27:
 1331              	.LBB127:
 1332              	.LBB128:
 1333              		.loc 1 104 0
 1334 0012 0549     		ldr	r1, .L26+4
 1335 0014 0123     		mov	r3, #1
 1336 0016 0B70     		strb	r3, [r1]
 1337              		.loc 1 105 0
 1338 0018 0449     		ldr	r1, .L26+8
 1339              	.LBE128:
 1340              	.LBE127:
 1341              		.loc 1 113 0
 1342 001a 0120     		mov	r0, #1
 1343              	.LBB130:
 1344              	.LBB129:
 1345              		.loc 1 105 0
 1346 001c 0B70     		strb	r3, [r1]
 1347              		.loc 1 106 0
 1348 001e 044B     		ldr	r3, .L26+12
 1349 0020 1A60     		str	r2, [r3]
 1350              	.LVL28:
 1351              	.L24:
ARM GAS  /tmp/ccVf3EPN.s 			page 87


 1352              	.LBE129:
 1353              	.LBE130:
 1354              	.LBE131:
 1355              	.LBE133:
 1356              		.loc 1 139 0
 1357              		@ sp needed
 1358 0022 7047     		bx	lr
 1359              	.L27:
 1360              		.align	2
 1361              	.L26:
 1362 0024 00040040 		.word	1073742848
 1363 0028 00000000 		.word	.LANCHOR1
 1364 002c 00000000 		.word	.LANCHOR2
 1365 0030 00000000 		.word	.LANCHOR3
 1366              		.cfi_endproc
 1367              	.LFE186:
 1368              		.size	_test_assert_time_window, .-_test_assert_time_window
 1369              		.global	__aeabi_uidivmod
 1370              		.global	__aeabi_uidiv
 1371 0034 C046C046 		.section	.text.test_printn,"ax",%progbits
 1371      C046C046 
 1371      C046C046 
 1372              		.align	2
 1373              		.p2align 4,,15
 1374              		.global	test_printn
 1375              		.code	16
 1376              		.thumb_func
 1377              		.type	test_printn, %function
 1378              	test_printn:
 1379              	.LFB187:
 1380              		.loc 1 148 0
 1381              		.cfi_startproc
 1382              	.LVL29:
 1383 0000 F0B5     		push	{r4, r5, r6, r7, lr}
 1384              		.cfi_def_cfa_offset 20
 1385              		.cfi_offset 4, -20
 1386              		.cfi_offset 5, -16
 1387              		.cfi_offset 6, -12
 1388              		.cfi_offset 7, -8
 1389              		.cfi_offset 14, -4
 1390 0002 4746     		mov	r7, r8
 1391 0004 80B4     		push	{r7}
 1392              		.cfi_def_cfa_offset 24
 1393              		.cfi_offset 8, -24
 1394 0006 041C     		mov	r4, r0
 1395 0008 84B0     		sub	sp, sp, #16
 1396              		.cfi_def_cfa_offset 40
 1397              		.loc 1 151 0
 1398 000a 0028     		cmp	r0, #0
 1399 000c 28D0     		beq	.L36
 1400 000e 6F46     		mov	r7, sp
 1401 0010 0137     		add	r7, r7, #1
 1402 0012 3D1C     		mov	r5, r7
 1403              	.L32:
 1404              	.LVL30:
 1405              		.loc 1 156 0
 1406 0014 201C     		mov	r0, r4
ARM GAS  /tmp/ccVf3EPN.s 			page 88


 1407 0016 0A21     		mov	r1, #10
 1408 0018 FFF7FEFF 		bl	__aeabi_uidivmod
 1409              	.LVL31:
 1410 001c 0E1C     		mov	r6, r1
 1411 001e 3036     		add	r6, r6, #48
 1412 0020 6B1E     		sub	r3, r5, #1
 1413              	.LVL32:
 1414 0022 F6B2     		uxtb	r6, r6
 1415 0024 201C     		mov	r0, r4
 1416 0026 1E70     		strb	r6, [r3]
 1417 0028 0A21     		mov	r1, #10
 1418 002a FFF7FEFF 		bl	__aeabi_uidiv
 1419              	.LVL33:
 1420 002e A846     		mov	r8, r5
 1421              	.LVL34:
 1422 0030 041C     		mov	r4, r0
 1423              	.LVL35:
 1424 0032 0135     		add	r5, r5, #1
 1425              	.LVL36:
 1426              		.loc 1 155 0
 1427 0034 0028     		cmp	r0, #0
 1428 0036 EDD1     		bne	.L32
 1429              		.loc 1 157 0 discriminator 1
 1430 0038 6B46     		mov	r3, sp
 1431 003a 9845     		cmp	r8, r3
 1432 003c 0CD9     		bls	.L28
 1433 003e 4446     		mov	r4, r8
 1434 0040 0B4D     		ldr	r5, .L38
 1435 0042 02E0     		b	.L35
 1436              	.LVL37:
 1437              	.L37:
 1438 0044 A31E     		sub	r3, r4, #2
 1439 0046 1E78     		ldrb	r6, [r3]
 1440 0048 013C     		sub	r4, r4, #1
 1441              	.LVL38:
 1442              	.L35:
 1443              		.loc 1 158 0
 1444 004a 2868     		ldr	r0, [r5]
 1445              	.LVL39:
 1446 004c 311C     		mov	r1, r6
 1447 004e 0368     		ldr	r3, [r0]
 1448 0050 9B68     		ldr	r3, [r3, #8]
 1449 0052 9847     		blx	r3
 1450              	.LVL40:
 1451              		.loc 1 157 0
 1452 0054 A742     		cmp	r7, r4
 1453 0056 F5D1     		bne	.L37
 1454              	.LVL41:
 1455              	.L28:
 1456              		.loc 1 160 0
 1457 0058 04B0     		add	sp, sp, #16
 1458              		@ sp needed
 1459 005a 04BC     		pop	{r2}
 1460 005c 9046     		mov	r8, r2
 1461 005e F0BD     		pop	{r4, r5, r6, r7, pc}
 1462              	.LVL42:
 1463              	.L36:
ARM GAS  /tmp/ccVf3EPN.s 			page 89


 1464              	.LBB136:
 1465              	.LBB137:
 1466              		.loc 1 152 0
 1467 0060 034B     		ldr	r3, .L38
 1468 0062 3021     		mov	r1, #48
 1469 0064 1868     		ldr	r0, [r3]
 1470              	.LVL43:
 1471 0066 0368     		ldr	r3, [r0]
 1472 0068 9B68     		ldr	r3, [r3, #8]
 1473 006a 9847     		blx	r3
 1474              	.LVL44:
 1475 006c F4E7     		b	.L28
 1476              	.L39:
 1477 006e C046     		.align	2
 1478              	.L38:
 1479 0070 00000000 		.word	.LANCHOR0
 1480              	.LBE137:
 1481              	.LBE136:
 1482              		.cfi_endproc
 1483              	.LFE187:
 1484              		.size	test_printn, .-test_printn
 1485 0074 C046C046 		.section	.text.test_print,"ax",%progbits
 1485      C046C046 
 1485      C046C046 
 1486              		.align	2
 1487              		.p2align 4,,15
 1488              		.global	test_print
 1489              		.code	16
 1490              		.thumb_func
 1491              		.type	test_print, %function
 1492              	test_print:
 1493              	.LFB188:
 1494              		.loc 1 169 0
 1495              		.cfi_startproc
 1496              	.LVL45:
 1497 0000 38B5     		push	{r3, r4, r5, lr}
 1498              		.cfi_def_cfa_offset 16
 1499              		.cfi_offset 3, -16
 1500              		.cfi_offset 4, -12
 1501              		.cfi_offset 5, -8
 1502              		.cfi_offset 14, -4
 1503              		.loc 1 171 0
 1504 0002 0178     		ldrb	r1, [r0]
 1505              		.loc 1 169 0
 1506 0004 041C     		mov	r4, r0
 1507              		.loc 1 171 0
 1508 0006 0029     		cmp	r1, #0
 1509 0008 08D0     		beq	.L40
 1510 000a 054D     		ldr	r5, .L47
 1511              	.LVL46:
 1512              	.L43:
 1513              		.loc 1 172 0
 1514 000c 2868     		ldr	r0, [r5]
 1515 000e 0134     		add	r4, r4, #1
 1516              	.LVL47:
 1517 0010 0368     		ldr	r3, [r0]
 1518 0012 9B68     		ldr	r3, [r3, #8]
ARM GAS  /tmp/ccVf3EPN.s 			page 90


 1519 0014 9847     		blx	r3
 1520              	.LVL48:
 1521              		.loc 1 171 0
 1522 0016 2178     		ldrb	r1, [r4]
 1523 0018 0029     		cmp	r1, #0
 1524 001a F7D1     		bne	.L43
 1525              	.L40:
 1526              		.loc 1 173 0
 1527              		@ sp needed
 1528              	.LVL49:
 1529 001c 38BD     		pop	{r3, r4, r5, pc}
 1530              	.L48:
 1531 001e C046     		.align	2
 1532              	.L47:
 1533 0020 00000000 		.word	.LANCHOR0
 1534              		.cfi_endproc
 1535              	.LFE188:
 1536              		.size	test_print, .-test_print
 1537 0024 C046C046 		.section	.text.test_println,"ax",%progbits
 1537      C046C046 
 1537      C046C046 
 1538              		.align	2
 1539              		.p2align 4,,15
 1540              		.global	test_println
 1541              		.code	16
 1542              		.thumb_func
 1543              		.type	test_println, %function
 1544              	test_println:
 1545              	.LFB189:
 1546              		.loc 1 182 0
 1547              		.cfi_startproc
 1548              	.LVL50:
 1549 0000 38B5     		push	{r3, r4, r5, lr}
 1550              		.cfi_def_cfa_offset 16
 1551              		.cfi_offset 3, -16
 1552              		.cfi_offset 4, -12
 1553              		.cfi_offset 5, -8
 1554              		.cfi_offset 14, -4
 1555              	.LBB138:
 1556              	.LBB139:
 1557              		.loc 1 171 0
 1558 0002 0178     		ldrb	r1, [r0]
 1559              	.LBE139:
 1560              	.LBE138:
 1561              		.loc 1 182 0
 1562 0004 041C     		mov	r4, r0
 1563 0006 094D     		ldr	r5, .L57
 1564              	.LBB141:
 1565              	.LBB140:
 1566              		.loc 1 171 0
 1567 0008 0029     		cmp	r1, #0
 1568 000a 07D0     		beq	.L51
 1569              	.LVL51:
 1570              	.L52:
 1571              		.loc 1 172 0
 1572 000c 2868     		ldr	r0, [r5]
 1573 000e 0134     		add	r4, r4, #1
ARM GAS  /tmp/ccVf3EPN.s 			page 91


 1574              	.LVL52:
 1575 0010 0368     		ldr	r3, [r0]
 1576 0012 9B68     		ldr	r3, [r3, #8]
 1577 0014 9847     		blx	r3
 1578              	.LVL53:
 1579              		.loc 1 171 0
 1580 0016 2178     		ldrb	r1, [r4]
 1581 0018 0029     		cmp	r1, #0
 1582 001a F7D1     		bne	.L52
 1583              	.L51:
 1584              	.LBE140:
 1585              	.LBE141:
 1586              		.loc 1 185 0
 1587 001c 2868     		ldr	r0, [r5]
 1588 001e 0449     		ldr	r1, .L57+4
 1589 0020 0368     		ldr	r3, [r0]
 1590 0022 0222     		mov	r2, #2
 1591 0024 1B68     		ldr	r3, [r3]
 1592 0026 9847     		blx	r3
 1593              	.LVL54:
 1594              		.loc 1 186 0
 1595              		@ sp needed
 1596              	.LVL55:
 1597 0028 38BD     		pop	{r3, r4, r5, pc}
 1598              	.L58:
 1599 002a C046     		.align	2
 1600              	.L57:
 1601 002c 00000000 		.word	.LANCHOR0
 1602 0030 00000000 		.word	.LC1
 1603              		.cfi_endproc
 1604              	.LFE189:
 1605              		.size	test_println, .-test_println
 1606 0034 C046C046 		.section	.text.test_emit_token,"ax",%progbits
 1606      C046C046 
 1606      C046C046 
 1607              		.align	2
 1608              		.p2align 4,,15
 1609              		.global	test_emit_token
 1610              		.code	16
 1611              		.thumb_func
 1612              		.type	test_emit_token, %function
 1613              	test_emit_token:
 1614              	.LFB190:
 1615              		.loc 1 195 0
 1616              		.cfi_startproc
 1617              	.LVL56:
 1618              	.LBB142:
 1619              	.LBB143:
 1620              	.LBB144:
 1621              	.LBB145:
 1622              	.LBB146:
 1623              		.file 4 "../../../os/common/ext/CMSIS/include/cmsis_gcc.h"
 1624              		.loc 4 71 0
 1625              	@ 71 "../../../os/common/ext/CMSIS/include/cmsis_gcc.h" 1
 1626 0000 72B6     		cpsid i
 1627              	@ 0 "" 2
 1628              		.code	16
ARM GAS  /tmp/ccVf3EPN.s 			page 92


 1629              	.LBE146:
 1630              	.LBE145:
 1631              	.LBE144:
 1632              	.LBE143:
 1633              	.LBE142:
 1634              		.loc 1 198 0
 1635 0002 054A     		ldr	r2, .L61
 1636 0004 0549     		ldr	r1, .L61+4
 1637 0006 1368     		ldr	r3, [r2]
 1638 0008 1031     		add	r1, r1, #16
 1639 000a 8B42     		cmp	r3, r1
 1640 000c 02D2     		bcs	.L60
 1641              		.loc 1 199 0
 1642 000e 591C     		add	r1, r3, #1
 1643 0010 1160     		str	r1, [r2]
 1644 0012 1870     		strb	r0, [r3]
 1645              	.L60:
 1646              	.LBB147:
 1647              	.LBB148:
 1648              	.LBB149:
 1649              	.LBB150:
 1650              	.LBB151:
 1651              	.LBB152:
 1652              		.loc 4 60 0
 1653              	@ 60 "../../../os/common/ext/CMSIS/include/cmsis_gcc.h" 1
 1654 0014 62B6     		cpsie i
 1655              	@ 0 "" 2
 1656              		.code	16
 1657              	.LBE152:
 1658              	.LBE151:
 1659              	.LBE150:
 1660              	.LBE149:
 1661              	.LBE148:
 1662              	.LBE147:
 1663              		.loc 1 201 0
 1664              		@ sp needed
 1665 0016 7047     		bx	lr
 1666              	.L62:
 1667              		.align	2
 1668              	.L61:
 1669 0018 00000000 		.word	.LANCHOR4
 1670 001c 00000000 		.word	.LANCHOR5
 1671              		.cfi_endproc
 1672              	.LFE190:
 1673              		.size	test_emit_token, .-test_emit_token
 1674              		.section	.text.test_emit_token_i,"ax",%progbits
 1675              		.align	2
 1676              		.p2align 4,,15
 1677              		.global	test_emit_token_i
 1678              		.code	16
 1679              		.thumb_func
 1680              		.type	test_emit_token_i, %function
 1681              	test_emit_token_i:
 1682              	.LFB191:
 1683              		.loc 1 210 0
 1684              		.cfi_startproc
 1685              	.LVL57:
ARM GAS  /tmp/ccVf3EPN.s 			page 93


 1686              		.loc 1 212 0
 1687 0000 044A     		ldr	r2, .L65
 1688 0002 0549     		ldr	r1, .L65+4
 1689 0004 1368     		ldr	r3, [r2]
 1690 0006 1031     		add	r1, r1, #16
 1691 0008 8B42     		cmp	r3, r1
 1692 000a 02D2     		bcs	.L63
 1693              		.loc 1 213 0
 1694 000c 591C     		add	r1, r3, #1
 1695 000e 1160     		str	r1, [r2]
 1696 0010 1870     		strb	r0, [r3]
 1697              	.L63:
 1698              		.loc 1 214 0
 1699              		@ sp needed
 1700 0012 7047     		bx	lr
 1701              	.L66:
 1702              		.align	2
 1703              	.L65:
 1704 0014 00000000 		.word	.LANCHOR4
 1705 0018 00000000 		.word	.LANCHOR5
 1706              		.cfi_endproc
 1707              	.LFE191:
 1708              		.size	test_emit_token_i, .-test_emit_token_i
 1709 001c C046C046 		.section	.text.test_execute,"ax",%progbits
 1710              		.align	2
 1711              		.p2align 4,,15
 1712              		.global	test_execute
 1713              		.code	16
 1714              		.thumb_func
 1715              		.type	test_execute, %function
 1716              	test_execute:
 1717              	.LFB192:
 1718              		.loc 1 227 0
 1719              		.cfi_startproc
 1720              	.LVL58:
 1721 0000 F0B5     		push	{r4, r5, r6, r7, lr}
 1722              		.cfi_def_cfa_offset 20
 1723              		.cfi_offset 4, -20
 1724              		.cfi_offset 5, -16
 1725              		.cfi_offset 6, -12
 1726              		.cfi_offset 7, -8
 1727              		.cfi_offset 14, -4
 1728 0002 4D46     		mov	r5, r9
 1729 0004 4446     		mov	r4, r8
 1730 0006 5F46     		mov	r7, fp
 1731 0008 5646     		mov	r6, r10
 1732 000a F0B4     		push	{r4, r5, r6, r7}
 1733              		.cfi_def_cfa_offset 36
 1734              		.cfi_offset 8, -36
 1735              		.cfi_offset 9, -32
 1736              		.cfi_offset 10, -28
 1737              		.cfi_offset 11, -24
 1738              		.loc 1 230 0
 1739 000c 904C     		ldr	r4, .L132
 1740              		.loc 1 227 0
 1741 000e 83B0     		sub	sp, sp, #12
 1742              		.cfi_def_cfa_offset 48
ARM GAS  /tmp/ccVf3EPN.s 			page 94


 1743              		.loc 1 230 0
 1744 0010 2060     		str	r0, [r4]
 1745              		.loc 1 231 0
 1746 0012 9048     		ldr	r0, .L132+4
 1747              	.LVL59:
 1748 0014 FFF7FEFF 		bl	test_println
 1749              	.LVL60:
 1750              		.loc 1 233 0
 1751 0018 8F48     		ldr	r0, .L132+8
 1752 001a FFF7FEFF 		bl	test_println
 1753              	.LVL61:
 1754              		.loc 1 237 0
 1755 001e 8F48     		ldr	r0, .L132+12
 1756 0020 FFF7FEFF 		bl	test_println
 1757              	.LVL62:
 1758 0024 8E4D     		ldr	r5, .L132+16
 1759              	.LBB185:
 1760              	.LBB186:
 1761              		.loc 1 171 0
 1762 0026 2A21     		mov	r1, #42
 1763              	.LVL63:
 1764              	.L69:
 1765              		.loc 1 172 0
 1766 0028 2068     		ldr	r0, [r4]
 1767              	.LVL64:
 1768 002a 0135     		add	r5, r5, #1
 1769              	.LVL65:
 1770 002c 0368     		ldr	r3, [r0]
 1771 002e 9B68     		ldr	r3, [r3, #8]
 1772 0030 9847     		blx	r3
 1773              	.LVL66:
 1774 0032 6B1E     		sub	r3, r5, #1
 1775              		.loc 1 171 0
 1776 0034 1978     		ldrb	r1, [r3]
 1777 0036 0029     		cmp	r1, #0
 1778 0038 F6D1     		bne	.L69
 1779              	.LBE186:
 1780              	.LBE185:
 1781              		.loc 1 239 0
 1782 003a 8A48     		ldr	r0, .L132+20
 1783 003c FFF7FEFF 		bl	test_println
 1784              	.LVL67:
 1785 0040 894D     		ldr	r5, .L132+24
 1786              	.LVL68:
 1787              	.LBB187:
 1788              	.LBB188:
 1789              		.loc 1 171 0
 1790 0042 2A21     		mov	r1, #42
 1791              	.LVL69:
 1792              	.L102:
 1793              		.loc 1 172 0
 1794 0044 2068     		ldr	r0, [r4]
 1795              	.LVL70:
 1796 0046 0135     		add	r5, r5, #1
 1797              	.LVL71:
 1798 0048 0368     		ldr	r3, [r0]
 1799 004a 9B68     		ldr	r3, [r3, #8]
ARM GAS  /tmp/ccVf3EPN.s 			page 95


 1800 004c 9847     		blx	r3
 1801              	.LVL72:
 1802 004e 6B1E     		sub	r3, r5, #1
 1803              		.loc 1 171 0
 1804 0050 1978     		ldrb	r1, [r3]
 1805 0052 0029     		cmp	r1, #0
 1806 0054 F6D1     		bne	.L102
 1807              	.LBE188:
 1808              	.LBE187:
 1809              		.loc 1 242 0
 1810 0056 8548     		ldr	r0, .L132+28
 1811 0058 FFF7FEFF 		bl	test_println
 1812              	.LVL73:
 1813              	.LBB189:
 1814              	.LBB190:
 1815              		.loc 1 171 0
 1816 005c 2A25     		mov	r5, #42
 1817              	.LVL74:
 1818 005e 844E     		ldr	r6, .L132+32
 1819 0060 291C     		mov	r1, r5
 1820              	.LVL75:
 1821              	.L103:
 1822              		.loc 1 172 0
 1823 0062 2068     		ldr	r0, [r4]
 1824              	.LVL76:
 1825 0064 0136     		add	r6, r6, #1
 1826              	.LVL77:
 1827 0066 0368     		ldr	r3, [r0]
 1828 0068 9B68     		ldr	r3, [r3, #8]
 1829 006a 9847     		blx	r3
 1830              	.LVL78:
 1831 006c 731E     		sub	r3, r6, #1
 1832              		.loc 1 171 0
 1833 006e 1978     		ldrb	r1, [r3]
 1834 0070 0029     		cmp	r1, #0
 1835 0072 F6D1     		bne	.L103
 1836              	.LBE190:
 1837              	.LBE189:
 1838              		.loc 1 246 0
 1839 0074 7F48     		ldr	r0, .L132+36
 1840 0076 0D1C     		mov	r5, r1
 1841 0078 FFF7FEFF 		bl	test_println
 1842              	.LVL79:
 1843              		.loc 1 251 0
 1844 007c 7548     		ldr	r0, .L132+4
 1845 007e FFF7FEFF 		bl	test_println
 1846              	.LVL80:
 1847              		.loc 1 253 0
 1848 0082 7D4A     		ldr	r2, .L132+40
 1849 0084 1570     		strb	r5, [r2]
 1850              	.LVL81:
 1851              		.loc 1 255 0
 1852 0086 7D4A     		ldr	r2, .L132+44
 1853 0088 1368     		ldr	r3, [r2]
 1854 008a 002B     		cmp	r3, #0
 1855 008c 00D1     		bne	.LCB791
 1856 008e B6E0     		b	.L73	@long jump
ARM GAS  /tmp/ccVf3EPN.s 			page 96


 1857              	.LCB791:
 1858 0090 9146     		mov	r9, r2
 1859              		.loc 1 254 0
 1860 0092 0022     		mov	r2, #0
 1861 0094 9346     		mov	fp, r2
 1862              	.LBB191:
 1863              	.LBB192:
 1864              	.LBB193:
 1865              	.LBB194:
 1866              		.loc 1 67 0
 1867 0096 7A4A     		ldr	r2, .L132+48
 1868 0098 9246     		mov	r10, r2
 1869              	.LVL82:
 1870              	.L74:
 1871 009a 0122     		mov	r2, #1
 1872 009c 9344     		add	fp, fp, r2
 1873              	.LVL83:
 1874              	.LBE194:
 1875              	.LBE193:
 1876              	.LBE192:
 1877              	.LBE191:
 1878              	.LBB203:
 1879              	.LBB204:
 1880              		.loc 1 171 0 discriminator 1
 1881 009e 0022     		mov	r2, #0
 1882 00a0 0192     		str	r2, [sp, #4]
 1883              	.LVL84:
 1884 00a2 019A     		ldr	r2, [sp, #4]
 1885 00a4 9600     		lsl	r6, r2, #2
 1886              	.LBE204:
 1887              	.LBE203:
 1888              		.loc 1 257 0 discriminator 1
 1889 00a6 9B59     		ldr	r3, [r3, r6]
 1890 00a8 002B     		cmp	r3, #0
 1891 00aa 00D1     		bne	.LCB826
 1892 00ac A0E0     		b	.L130	@long jump
 1893              	.LCB826:
 1894              	.L97:
 1895              		.loc 1 258 0
 1896 00ae FFF7FEFF 		bl	print_line
 1897              	.LVL85:
 1898 00b2 744D     		ldr	r5, .L132+52
 1899              	.LBB207:
 1900              	.LBB208:
 1901              		.loc 1 171 0
 1902 00b4 2D21     		mov	r1, #45
 1903              	.LVL86:
 1904              	.L76:
 1905              		.loc 1 172 0
 1906 00b6 2068     		ldr	r0, [r4]
 1907              	.LVL87:
 1908 00b8 0135     		add	r5, r5, #1
 1909              	.LVL88:
 1910 00ba 0368     		ldr	r3, [r0]
 1911 00bc 9B68     		ldr	r3, [r3, #8]
 1912 00be 9847     		blx	r3
 1913              	.LVL89:
ARM GAS  /tmp/ccVf3EPN.s 			page 97


 1914 00c0 6B1E     		sub	r3, r5, #1
 1915              		.loc 1 171 0
 1916 00c2 1978     		ldrb	r1, [r3]
 1917 00c4 0029     		cmp	r1, #0
 1918 00c6 F6D1     		bne	.L76
 1919              	.LBE208:
 1920              	.LBE207:
 1921              		.loc 1 260 0
 1922 00c8 5846     		mov	r0, fp
 1923 00ca FFF7FEFF 		bl	test_printn
 1924              	.LVL90:
 1925              	.LBB209:
 1926              	.LBB210:
 1927              		.loc 1 172 0
 1928 00ce 2068     		ldr	r0, [r4]
 1929              	.LVL91:
 1930 00d0 2E21     		mov	r1, #46
 1931 00d2 0368     		ldr	r3, [r0]
 1932 00d4 9B68     		ldr	r3, [r3, #8]
 1933 00d6 9847     		blx	r3
 1934              	.LVL92:
 1935              	.LBE210:
 1936              	.LBE209:
 1937              		.loc 1 262 0
 1938 00d8 019A     		ldr	r2, [sp, #4]
 1939 00da 0132     		add	r2, r2, #1
 1940 00dc 101C     		mov	r0, r2
 1941 00de 0192     		str	r2, [sp, #4]
 1942 00e0 FFF7FEFF 		bl	test_printn
 1943              	.LVL93:
 1944 00e4 684D     		ldr	r5, .L132+56
 1945              	.LVL94:
 1946              	.LBB211:
 1947              	.LBB212:
 1948              		.loc 1 171 0
 1949 00e6 2021     		mov	r1, #32
 1950              	.LVL95:
 1951              	.L104:
 1952              		.loc 1 172 0
 1953 00e8 2068     		ldr	r0, [r4]
 1954              	.LVL96:
 1955 00ea 0135     		add	r5, r5, #1
 1956              	.LVL97:
 1957 00ec 0368     		ldr	r3, [r0]
 1958 00ee 9B68     		ldr	r3, [r3, #8]
 1959 00f0 9847     		blx	r3
 1960              	.LVL98:
 1961 00f2 6B1E     		sub	r3, r5, #1
 1962              		.loc 1 171 0
 1963 00f4 1978     		ldrb	r1, [r3]
 1964 00f6 0029     		cmp	r1, #0
 1965 00f8 F6D1     		bne	.L104
 1966              	.LBE212:
 1967              	.LBE211:
 1968              		.loc 1 264 0
 1969 00fa 4A46     		mov	r2, r9
 1970 00fc 1268     		ldr	r2, [r2]
ARM GAS  /tmp/ccVf3EPN.s 			page 98


 1971 00fe 9359     		ldr	r3, [r2, r6]
 1972 0100 1D68     		ldr	r5, [r3]
 1973              	.LVL99:
 1974              	.LBB213:
 1975              	.LBB214:
 1976              		.loc 1 171 0
 1977 0102 2978     		ldrb	r1, [r5]
 1978 0104 0029     		cmp	r1, #0
 1979 0106 07D0     		beq	.L81
 1980              	.L117:
 1981              		.loc 1 172 0
 1982 0108 2068     		ldr	r0, [r4]
 1983 010a 0135     		add	r5, r5, #1
 1984              	.LVL100:
 1985 010c 0368     		ldr	r3, [r0]
 1986 010e 9B68     		ldr	r3, [r3, #8]
 1987 0110 9847     		blx	r3
 1988              	.LVL101:
 1989              		.loc 1 171 0
 1990 0112 2978     		ldrb	r1, [r5]
 1991 0114 0029     		cmp	r1, #0
 1992 0116 F7D1     		bne	.L117
 1993              	.L81:
 1994              	.LBE214:
 1995              	.LBE213:
 1996              		.loc 1 265 0
 1997 0118 5C48     		ldr	r0, .L132+60
 1998 011a FFF7FEFF 		bl	test_println
 1999              	.LVL102:
 2000              	.LBB215:
 2001              	.LBB216:
 2002              		.file 5 "../../../os/hal/osal/rt/osal.h"
 2003              		.loc 5 673 0
 2004 011e C820     		mov	r0, #200
 2005 0120 FFF7FEFF 		bl	chThdSleep
 2006              	.LVL103:
 2007              	.LBE216:
 2008              	.LBE215:
 2009              		.loc 1 269 0
 2010 0124 4B46     		mov	r3, r9
 2011 0126 1B68     		ldr	r3, [r3]
 2012              	.LBB217:
 2013              	.LBB201:
 2014              	.LBB198:
 2015              	.LBB195:
 2016              		.loc 1 67 0
 2017 0128 5246     		mov	r2, r10
 2018              	.LBE195:
 2019              	.LBE198:
 2020              	.LBE201:
 2021              	.LBE217:
 2022              		.loc 1 269 0
 2023 012a 9D59     		ldr	r5, [r3, r6]
 2024              	.LVL104:
 2025              	.LBB218:
 2026              	.LBB202:
 2027              		.loc 1 81 0
ARM GAS  /tmp/ccVf3EPN.s 			page 99


 2028 012c 584B     		ldr	r3, .L132+64
 2029              	.LBB199:
 2030              	.LBB196:
 2031              		.loc 1 67 0
 2032 012e 594E     		ldr	r6, .L132+68
 2033              	.LBE196:
 2034              	.LBE199:
 2035              		.loc 1 81 0
 2036 0130 9846     		mov	r8, r3
 2037              	.LBB200:
 2038              	.LBB197:
 2039              		.loc 1 67 0
 2040 0132 3260     		str	r2, [r6]
 2041              	.LBE197:
 2042              	.LBE200:
 2043              		.loc 1 81 0
 2044 0134 0023     		mov	r3, #0
 2045 0136 4246     		mov	r2, r8
 2046 0138 1370     		strb	r3, [r2]
 2047              		.loc 1 83 0
 2048 013a 6B68     		ldr	r3, [r5, #4]
 2049 013c 002B     		cmp	r3, #0
 2050 013e 00D0     		beq	.L80
 2051              		.loc 1 84 0
 2052 0140 9847     		blx	r3
 2053              	.LVL105:
 2054              	.L80:
 2055              		.loc 1 85 0
 2056 0142 EB68     		ldr	r3, [r5, #12]
 2057 0144 9847     		blx	r3
 2058              	.LVL106:
 2059              		.loc 1 86 0
 2060 0146 AB68     		ldr	r3, [r5, #8]
 2061 0148 002B     		cmp	r3, #0
 2062 014a 00D0     		beq	.L83
 2063              		.loc 1 87 0
 2064 014c 9847     		blx	r3
 2065              	.LVL107:
 2066              	.L83:
 2067              	.LBE202:
 2068              	.LBE218:
 2069              		.loc 1 270 0
 2070 014e 4246     		mov	r2, r8
 2071 0150 1378     		ldrb	r3, [r2]
 2072 0152 002B     		cmp	r3, #0
 2073 0154 00D1     		bne	.LCB1002
 2074 0156 72E0     		b	.L84	@long jump
 2075              	.LCB1002:
 2076 0158 4F4D     		ldr	r5, .L132+72
 2077              	.LVL108:
 2078              	.LBB219:
 2079              	.LBB220:
 2080              		.loc 1 171 0
 2081 015a 2D21     		mov	r1, #45
 2082              	.L86:
 2083              	.LVL109:
 2084              		.loc 1 172 0
ARM GAS  /tmp/ccVf3EPN.s 			page 100


 2085 015c 2068     		ldr	r0, [r4]
 2086              	.LVL110:
 2087 015e 0135     		add	r5, r5, #1
 2088              	.LVL111:
 2089 0160 0368     		ldr	r3, [r0]
 2090 0162 9B68     		ldr	r3, [r3, #8]
 2091 0164 9847     		blx	r3
 2092              	.LVL112:
 2093 0166 6B1E     		sub	r3, r5, #1
 2094              		.loc 1 171 0
 2095 0168 1978     		ldrb	r1, [r3]
 2096 016a 0029     		cmp	r1, #0
 2097 016c F6D1     		bne	.L86
 2098              	.LBE220:
 2099              	.LBE219:
 2100              		.loc 1 272 0
 2101 016e 4B4B     		ldr	r3, .L132+76
 2102 0170 1868     		ldr	r0, [r3]
 2103 0172 FFF7FEFF 		bl	test_printn
 2104              	.LVL113:
 2105 0176 4A4D     		ldr	r5, .L132+80
 2106              	.LVL114:
 2107              	.LBB221:
 2108              	.LBB205:
 2109              		.loc 1 171 0
 2110 0178 2021     		mov	r1, #32
 2111              	.LVL115:
 2112              	.L105:
 2113              		.loc 1 172 0
 2114 017a 2068     		ldr	r0, [r4]
 2115              	.LVL116:
 2116 017c 0135     		add	r5, r5, #1
 2117              	.LVL117:
 2118 017e 0368     		ldr	r3, [r0]
 2119 0180 9B68     		ldr	r3, [r3, #8]
 2120 0182 9847     		blx	r3
 2121              	.LVL118:
 2122 0184 6B1E     		sub	r3, r5, #1
 2123              		.loc 1 171 0
 2124 0186 1978     		ldrb	r1, [r3]
 2125 0188 0029     		cmp	r1, #0
 2126 018a F6D1     		bne	.L105
 2127              	.LVL119:
 2128              	.LBE205:
 2129              	.LBE221:
 2130              	.LBB222:
 2131              	.LBB223:
 2132              		.loc 1 73 0
 2133 018c 3368     		ldr	r3, [r6]
 2134 018e 454D     		ldr	r5, .L132+84
 2135              	.LVL120:
 2136 0190 5345     		cmp	r3, r10
 2137 0192 0AD9     		bls	.L90
 2138              	.LVL121:
 2139              	.L118:
 2140              		.loc 1 74 0
 2141 0194 2068     		ldr	r0, [r4]
ARM GAS  /tmp/ccVf3EPN.s 			page 101


 2142 0196 6A1E     		sub	r2, r5, #1
 2143              	.LVL122:
 2144 0198 0368     		ldr	r3, [r0]
 2145 019a 1178     		ldrb	r1, [r2]
 2146 019c 9B68     		ldr	r3, [r3, #8]
 2147 019e 9847     		blx	r3
 2148              	.LVL123:
 2149              		.loc 1 73 0
 2150 01a0 3268     		ldr	r2, [r6]
 2151              		.loc 1 74 0
 2152 01a2 2F1C     		mov	r7, r5
 2153              	.LVL124:
 2154 01a4 0135     		add	r5, r5, #1
 2155              	.LVL125:
 2156              		.loc 1 73 0
 2157 01a6 9742     		cmp	r7, r2
 2158 01a8 F4D3     		bcc	.L118
 2159              	.LVL126:
 2160              	.L90:
 2161 01aa 3F4D     		ldr	r5, .L132+88
 2162              	.LBE223:
 2163              	.LBE222:
 2164              	.LBB224:
 2165              	.LBB206:
 2166              		.loc 1 171 0
 2167 01ac 5D21     		mov	r1, #93
 2168              	.L89:
 2169              	.LVL127:
 2170              	.LBE206:
 2171              	.LBE224:
 2172              	.LBB225:
 2173              	.LBB226:
 2174              		.loc 1 172 0
 2175 01ae 2068     		ldr	r0, [r4]
 2176              	.LVL128:
 2177 01b0 0135     		add	r5, r5, #1
 2178              	.LVL129:
 2179 01b2 0368     		ldr	r3, [r0]
 2180 01b4 9B68     		ldr	r3, [r3, #8]
 2181 01b6 9847     		blx	r3
 2182              	.LVL130:
 2183 01b8 6B1E     		sub	r3, r5, #1
 2184              		.loc 1 171 0
 2185 01ba 1978     		ldrb	r1, [r3]
 2186 01bc 0029     		cmp	r1, #0
 2187 01be F6D1     		bne	.L89
 2188              	.LBE226:
 2189              	.LBE225:
 2190              		.loc 1 276 0
 2191 01c0 3A4B     		ldr	r3, .L132+92
 2192 01c2 1D68     		ldr	r5, [r3]
 2193              	.LVL131:
 2194              	.LBB227:
 2195              	.LBB228:
 2196              		.loc 1 171 0
 2197 01c4 2978     		ldrb	r1, [r5]
 2198 01c6 0029     		cmp	r1, #0
ARM GAS  /tmp/ccVf3EPN.s 			page 102


 2199 01c8 07D0     		beq	.L95
 2200              	.L119:
 2201              		.loc 1 172 0
 2202 01ca 2068     		ldr	r0, [r4]
 2203 01cc 0135     		add	r5, r5, #1
 2204              	.LVL132:
 2205 01ce 0368     		ldr	r3, [r0]
 2206 01d0 9B68     		ldr	r3, [r3, #8]
 2207 01d2 9847     		blx	r3
 2208              	.LVL133:
 2209              		.loc 1 171 0
 2210 01d4 2978     		ldrb	r1, [r5]
 2211 01d6 0029     		cmp	r1, #0
 2212 01d8 F7D1     		bne	.L119
 2213              	.L95:
 2214              	.LBE228:
 2215              	.LBE227:
 2216              		.loc 1 277 0
 2217 01da 3548     		ldr	r0, .L132+96
 2218 01dc FFF7FEFF 		bl	test_println
 2219              	.LVL134:
 2220              	.L94:
 2221 01e0 4A46     		mov	r2, r9
 2222 01e2 1368     		ldr	r3, [r2]
 2223              	.LVL135:
 2224 01e4 019A     		ldr	r2, [sp, #4]
 2225 01e6 9600     		lsl	r6, r2, #2
 2226              		.loc 1 257 0 discriminator 1
 2227 01e8 9B59     		ldr	r3, [r3, r6]
 2228 01ea 002B     		cmp	r3, #0
 2229 01ec 00D0     		beq	.LCB1159
 2230 01ee 5EE7     		b	.L97	@long jump
 2231              	.LCB1159:
 2232              	.LVL136:
 2233              	.L130:
 2234 01f0 0423     		mov	r3, #4
 2235 01f2 9944     		add	r9, r9, r3
 2236              		.loc 1 255 0
 2237 01f4 4A46     		mov	r2, r9
 2238              	.LVL137:
 2239 01f6 1368     		ldr	r3, [r2]
 2240 01f8 002B     		cmp	r3, #0
 2241 01fa 00D0     		beq	.LCB1176
 2242 01fc 4DE7     		b	.L74	@long jump
 2243              	.LCB1176:
 2244              	.LVL138:
 2245              	.L73:
 2246              		.loc 1 285 0
 2247 01fe FFF7FEFF 		bl	print_line
 2248              	.LVL139:
 2249              		.loc 1 286 0
 2250 0202 1448     		ldr	r0, .L132+4
 2251 0204 FFF7FEFF 		bl	test_println
 2252              	.LVL140:
 2253 0208 2A4D     		ldr	r5, .L132+100
 2254              	.LBB229:
 2255              	.LBB230:
ARM GAS  /tmp/ccVf3EPN.s 			page 103


 2256              		.loc 1 171 0
 2257 020a 4621     		mov	r1, #70
 2258              	.LVL141:
 2259              	.L106:
 2260              		.loc 1 172 0
 2261 020c 2068     		ldr	r0, [r4]
 2262              	.LVL142:
 2263 020e 0135     		add	r5, r5, #1
 2264              	.LVL143:
 2265 0210 0368     		ldr	r3, [r0]
 2266 0212 9B68     		ldr	r3, [r3, #8]
 2267 0214 9847     		blx	r3
 2268              	.LVL144:
 2269 0216 6B1E     		sub	r3, r5, #1
 2270              		.loc 1 171 0
 2271 0218 1978     		ldrb	r1, [r3]
 2272 021a 0029     		cmp	r1, #0
 2273 021c F6D1     		bne	.L106
 2274              	.LBE230:
 2275              	.LBE229:
 2276              		.loc 1 288 0
 2277 021e 164A     		ldr	r2, .L132+40
 2278 0220 1378     		ldrb	r3, [r2]
 2279 0222 002B     		cmp	r3, #0
 2280 0224 0FD1     		bne	.L131
 2281              		.loc 1 291 0
 2282 0226 2448     		ldr	r0, .L132+104
 2283 0228 FFF7FEFF 		bl	test_println
 2284              	.LVL145:
 2285              	.L101:
 2286              		.loc 1 297 0
 2287 022c 124B     		ldr	r3, .L132+40
 2288 022e 1878     		ldrb	r0, [r3]
 2289              		.loc 1 298 0
 2290 0230 03B0     		add	sp, sp, #12
 2291              		@ sp needed
 2292              	.LVL146:
 2293 0232 3CBC     		pop	{r2, r3, r4, r5}
 2294 0234 9046     		mov	r8, r2
 2295 0236 9946     		mov	r9, r3
 2296 0238 A246     		mov	r10, r4
 2297 023a AB46     		mov	fp, r5
 2298 023c F0BD     		pop	{r4, r5, r6, r7, pc}
 2299              	.LVL147:
 2300              	.L84:
 2301              		.loc 1 280 0
 2302 023e 1F48     		ldr	r0, .L132+108
 2303 0240 FFF7FEFF 		bl	test_println
 2304              	.LVL148:
 2305 0244 CCE7     		b	.L94
 2306              	.LVL149:
 2307              	.L131:
 2308              		.loc 1 289 0
 2309 0246 1E48     		ldr	r0, .L132+112
 2310 0248 FFF7FEFF 		bl	test_println
 2311              	.LVL150:
 2312 024c EEE7     		b	.L101
ARM GAS  /tmp/ccVf3EPN.s 			page 104


 2313              	.L133:
 2314 024e C046     		.align	2
 2315              	.L132:
 2316 0250 00000000 		.word	.LANCHOR0
 2317 0254 04000000 		.word	.LC32
 2318 0258 08000000 		.word	.LC34
 2319 025c 24000000 		.word	.LC36
 2320 0260 01000000 		.word	.LC38+1
 2321 0264 C0000000 		.word	.LC64
 2322 0268 01000000 		.word	.LC66+1
 2323 026c EC000000 		.word	.LC68
 2324 0270 01000000 		.word	.LC70+1
 2325 0274 3C000000 		.word	.LC40
 2326 0278 00000000 		.word	.LANCHOR2
 2327 027c 00000000 		.word	test_suite
 2328 0280 00000000 		.word	.LANCHOR5
 2329 0284 01000000 		.word	.LC44+1
 2330 0288 01000000 		.word	.LC72+1
 2331 028c 78000000 		.word	.LC46
 2332 0290 00000000 		.word	.LANCHOR1
 2333 0294 00000000 		.word	.LANCHOR4
 2334 0298 01000000 		.word	.LC51+1
 2335 029c 00000000 		.word	.LANCHOR6
 2336 02a0 01000000 		.word	.LC75+1
 2337 02a4 01000000 		.word	.LANCHOR5+1
 2338 02a8 01000000 		.word	.LC53+1
 2339 02ac 00000000 		.word	.LANCHOR3
 2340 02b0 98000000 		.word	.LC56
 2341 02b4 01000000 		.word	.LC77+1
 2342 02b8 B8000000 		.word	.LC62
 2343 02bc 9C000000 		.word	.LC58
 2344 02c0 B0000000 		.word	.LC60
 2345              		.cfi_endproc
 2346              	.LFE192:
 2347              		.size	test_execute, .-test_execute
 2348              		.global	test_global_fail
 2349              		.global	test_step
 2350 02c4 C046C046 		.section	.bss.test_failure_message,"aw",%nobits
 2350      C046C046 
 2350      C046C046 
 2351              		.align	2
 2352              		.set	.LANCHOR3,. + 0
 2353              		.type	test_failure_message, %object
 2354              		.size	test_failure_message, 4
 2355              	test_failure_message:
 2356 0000 00000000 		.space	4
 2357              		.section	.bss.test_local_fail,"aw",%nobits
 2358              		.set	.LANCHOR1,. + 0
 2359              		.type	test_local_fail, %object
 2360              		.size	test_local_fail, 1
 2361              	test_local_fail:
 2362 0000 00       		.space	1
 2363              		.section	.rodata.str1.4,"aMS",%progbits,1
 2364              		.align	2
 2365              	.LC1:
 2366 0000 0D0A00   		.ascii	"\015\012\000"
 2367 0003 00       		.space	1
ARM GAS  /tmp/ccVf3EPN.s 			page 105


 2368              	.LC32:
 2369 0004 00       		.ascii	"\000"
 2370 0005 000000   		.space	3
 2371              	.LC34:
 2372 0008 2A2A2A20 		.ascii	"*** ChibiOS/RT Test Suite\000"
 2372      43686962 
 2372      694F532F 
 2372      52542054 
 2372      65737420 
 2373 0022 0000     		.space	2
 2374              	.LC36:
 2375 0024 2A2A2A00 		.ascii	"***\000"
 2376              	.LC38:
 2377 0028 2A2A2A20 		.ascii	"*** Compiled:     \000"
 2377      436F6D70 
 2377      696C6564 
 2377      3A202020 
 2377      202000
 2378 003b 00       		.space	1
 2379              	.LC40:
 2380 003c 53544D69 		.ascii	"STMicroelectronics STM32 Nucleo64-F030R8\000"
 2380      63726F65 
 2380      6C656374 
 2380      726F6E69 
 2380      63732053 
 2381 0065 000000   		.space	3
 2382              	.LC44:
 2383 0068 2D2D2D20 		.ascii	"--- Test Case \000"
 2383      54657374 
 2383      20436173 
 2383      652000
 2384 0077 00       		.space	1
 2385              	.LC46:
 2386 0078 2900     		.ascii	")\000"
 2387 007a 0000     		.space	2
 2388              	.LC51:
 2389 007c 2D2D2D20 		.ascii	"--- Result: FAILURE (#\000"
 2389      52657375 
 2389      6C743A20 
 2389      4641494C 
 2389      55524520 
 2390 0093 00       		.space	1
 2391              	.LC53:
 2392 0094 5D202200 		.ascii	"] \"\000"
 2393              	.LC56:
 2394 0098 222900   		.ascii	"\")\000"
 2395 009b 00       		.space	1
 2396              	.LC58:
 2397 009c 2D2D2D20 		.ascii	"--- Result: SUCCESS\000"
 2397      52657375 
 2397      6C743A20 
 2397      53554343 
 2397      45535300 
 2398              	.LC60:
 2399 00b0 4641494C 		.ascii	"FAILURE\000"
 2399      55524500 
 2400              	.LC62:
ARM GAS  /tmp/ccVf3EPN.s 			page 106


 2401 00b8 53554343 		.ascii	"SUCCESS\000"
 2401      45535300 
 2402              	.LC64:
 2403 00c0 4D617920 		.ascii	"May 31 2016 - 11:17:40\000"
 2403      33312032 
 2403      30313620 
 2403      2D203131 
 2403      3A31373A 
 2404 00d7 00       		.space	1
 2405              	.LC66:
 2406 00d8 2A2A2A20 		.ascii	"*** Platform:     \000"
 2406      506C6174 
 2406      666F726D 
 2406      3A202020 
 2406      202000
 2407 00eb 00       		.space	1
 2408              	.LC68:
 2409 00ec 53544D33 		.ascii	"STM32F030x8 Entry Level Value Line devices\000"
 2409      32463033 
 2409      30783820 
 2409      456E7472 
 2409      79204C65 
 2410 0117 00       		.space	1
 2411              	.LC70:
 2412 0118 2A2A2A20 		.ascii	"*** Test Board:   \000"
 2412      54657374 
 2412      20426F61 
 2412      72643A20 
 2412      202000
 2413 012b 00       		.space	1
 2414              	.LC72:
 2415 012c 202800   		.ascii	" (\000"
 2416 012f 00       		.space	1
 2417              	.LC75:
 2418 0130 205B00   		.ascii	" [\000"
 2419 0133 00       		.space	1
 2420              	.LC77:
 2421 0134 46696E61 		.ascii	"Final result: \000"
 2421      6C207265 
 2421      73756C74 
 2421      3A2000
 2422 0143 00       		.section	.bss.test_chp,"aw",%nobits
 2423              		.align	2
 2424              		.set	.LANCHOR0,. + 0
 2425              		.type	test_chp, %object
 2426              		.size	test_chp, 4
 2427              	test_chp:
 2428 0000 00000000 		.space	4
 2429              		.section	.bss.test_tokp,"aw",%nobits
 2430              		.align	2
 2431              		.set	.LANCHOR4,. + 0
 2432              		.type	test_tokp, %object
 2433              		.size	test_tokp, 4
 2434              	test_tokp:
 2435 0000 00000000 		.space	4
 2436              		.section	.bss.test_step,"aw",%nobits
 2437              		.align	2
ARM GAS  /tmp/ccVf3EPN.s 			page 107


 2438              		.set	.LANCHOR6,. + 0
 2439              		.type	test_step, %object
 2440              		.size	test_step, 4
 2441              	test_step:
 2442 0000 00000000 		.space	4
 2443              		.section	.bss.test_tokens_buffer,"aw",%nobits
 2444              		.align	2
 2445              		.set	.LANCHOR5,. + 0
 2446              		.type	test_tokens_buffer, %object
 2447              		.size	test_tokens_buffer, 16
 2448              	test_tokens_buffer:
 2449 0000 00000000 		.space	16
 2449      00000000 
 2449      00000000 
 2449      00000000 
 2450              		.section	.bss.test_global_fail,"aw",%nobits
 2451              		.set	.LANCHOR2,. + 0
 2452              		.type	test_global_fail, %object
 2453              		.size	test_global_fail, 1
 2454              	test_global_fail:
 2455 0000 00       		.space	1
 2456              		.text
 2457              	.Letext0:
 2458              		.file 6 "/usr/lib/gcc/arm-none-eabi/4.8/include/stddef.h"
 2459              		.file 7 "/usr/include/newlib/machine/_default_types.h"
 2460              		.file 8 "/usr/include/newlib/stdint.h"
 2461              		.file 9 "../../../os/common/ports/ARMCMx/compilers/GCC/chtypes.h"
 2462              		.file 10 "../../../os/rt/include/chsystypes.h"
 2463              		.file 11 "../../../os/rt/include/chschd.h"
 2464              		.file 12 "../../../os/common/ports/ARMCMx/chcore.h"
 2465              		.file 13 "../../../os/common/ports/ARMCMx/chcore_v6m.h"
 2466              		.file 14 "../../../os/hal/ports/STM32/LLD/TIMv1/stm32_tim.h"
 2467              		.file 15 "../../../os/rt/include/chsem.h"
 2468              		.file 16 "../../../os/rt/include/chmtx.h"
 2469              		.file 17 "../../../os/hal/include/hal_streams.h"
 2470              		.file 18 "../../../test/lib/ch_test.h"
 2471              		.file 19 "../../../os/common/ports/ARMCMx/chcore_timer.h"
 2472              		.file 20 "../../../os/rt/include/chsys.h"
 2473              		.file 21 "../../../test/rt/source/test/test_root.h"
 2474              		.file 22 "../../../os/rt/include/chthreads.h"
 2475              		.section	.debug_info,"",%progbits
 2476              	.Ldebug_info0:
 2477 0000 85120000 		.4byte	0x1285
 2478 0004 0400     		.2byte	0x4
 2479 0006 00000000 		.4byte	.Ldebug_abbrev0
 2480 000a 04       		.byte	0x4
 2481 000b 01       		.uleb128 0x1
 2482 000c 84010000 		.4byte	.LASF152
 2483 0010 01       		.byte	0x1
 2484 0011 72050000 		.4byte	.LASF153
 2485 0015 2C070000 		.4byte	.LASF154
 2486 0019 F8000000 		.4byte	.Ldebug_ranges0+0xf8
 2487 001d 00000000 		.4byte	0
 2488 0021 00000000 		.4byte	.Ldebug_line0
 2489 0025 02       		.uleb128 0x2
 2490 0026 04       		.byte	0x4
 2491 0027 05       		.byte	0x5
ARM GAS  /tmp/ccVf3EPN.s 			page 108


 2492 0028 696E7400 		.ascii	"int\000"
 2493 002c 03       		.uleb128 0x3
 2494 002d 50030000 		.4byte	.LASF2
 2495 0031 06       		.byte	0x6
 2496 0032 D4       		.byte	0xd4
 2497 0033 37000000 		.4byte	0x37
 2498 0037 04       		.uleb128 0x4
 2499 0038 04       		.byte	0x4
 2500 0039 07       		.byte	0x7
 2501 003a 99000000 		.4byte	.LASF0
 2502 003e 04       		.uleb128 0x4
 2503 003f 01       		.byte	0x1
 2504 0040 06       		.byte	0x6
 2505 0041 96060000 		.4byte	.LASF1
 2506 0045 03       		.uleb128 0x3
 2507 0046 A6050000 		.4byte	.LASF3
 2508 004a 07       		.byte	0x7
 2509 004b 1D       		.byte	0x1d
 2510 004c 50000000 		.4byte	0x50
 2511 0050 04       		.uleb128 0x4
 2512 0051 01       		.byte	0x1
 2513 0052 08       		.byte	0x8
 2514 0053 2D060000 		.4byte	.LASF4
 2515 0057 04       		.uleb128 0x4
 2516 0058 02       		.byte	0x2
 2517 0059 05       		.byte	0x5
 2518 005a 3C050000 		.4byte	.LASF5
 2519 005e 03       		.uleb128 0x3
 2520 005f F0020000 		.4byte	.LASF6
 2521 0063 07       		.byte	0x7
 2522 0064 2B       		.byte	0x2b
 2523 0065 69000000 		.4byte	0x69
 2524 0069 04       		.uleb128 0x4
 2525 006a 02       		.byte	0x2
 2526 006b 07       		.byte	0x7
 2527 006c B5060000 		.4byte	.LASF7
 2528 0070 03       		.uleb128 0x3
 2529 0071 DD000000 		.4byte	.LASF8
 2530 0075 07       		.byte	0x7
 2531 0076 3F       		.byte	0x3f
 2532 0077 7B000000 		.4byte	0x7b
 2533 007b 04       		.uleb128 0x4
 2534 007c 04       		.byte	0x4
 2535 007d 05       		.byte	0x5
 2536 007e 46050000 		.4byte	.LASF9
 2537 0082 03       		.uleb128 0x3
 2538 0083 41060000 		.4byte	.LASF10
 2539 0087 07       		.byte	0x7
 2540 0088 41       		.byte	0x41
 2541 0089 8D000000 		.4byte	0x8d
 2542 008d 04       		.uleb128 0x4
 2543 008e 04       		.byte	0x4
 2544 008f 07       		.byte	0x7
 2545 0090 DA050000 		.4byte	.LASF11
 2546 0094 04       		.uleb128 0x4
 2547 0095 08       		.byte	0x8
 2548 0096 05       		.byte	0x5
ARM GAS  /tmp/ccVf3EPN.s 			page 109


 2549 0097 9A040000 		.4byte	.LASF12
 2550 009b 03       		.uleb128 0x3
 2551 009c 9B030000 		.4byte	.LASF13
 2552 00a0 07       		.byte	0x7
 2553 00a1 5B       		.byte	0x5b
 2554 00a2 A6000000 		.4byte	0xa6
 2555 00a6 04       		.uleb128 0x4
 2556 00a7 08       		.byte	0x8
 2557 00a8 07       		.byte	0x7
 2558 00a9 96020000 		.4byte	.LASF14
 2559 00ad 03       		.uleb128 0x3
 2560 00ae 56040000 		.4byte	.LASF15
 2561 00b2 08       		.byte	0x8
 2562 00b3 2A       		.byte	0x2a
 2563 00b4 45000000 		.4byte	0x45
 2564 00b8 03       		.uleb128 0x3
 2565 00b9 28050000 		.4byte	.LASF16
 2566 00bd 08       		.byte	0x8
 2567 00be 36       		.byte	0x36
 2568 00bf 5E000000 		.4byte	0x5e
 2569 00c3 03       		.uleb128 0x3
 2570 00c4 17060000 		.4byte	.LASF17
 2571 00c8 08       		.byte	0x8
 2572 00c9 41       		.byte	0x41
 2573 00ca 70000000 		.4byte	0x70
 2574 00ce 03       		.uleb128 0x3
 2575 00cf 27020000 		.4byte	.LASF18
 2576 00d3 08       		.byte	0x8
 2577 00d4 42       		.byte	0x42
 2578 00d5 82000000 		.4byte	0x82
 2579 00d9 03       		.uleb128 0x3
 2580 00da 97050000 		.4byte	.LASF19
 2581 00de 08       		.byte	0x8
 2582 00df 4E       		.byte	0x4e
 2583 00e0 9B000000 		.4byte	0x9b
 2584 00e4 03       		.uleb128 0x3
 2585 00e5 15050000 		.4byte	.LASF20
 2586 00e9 09       		.byte	0x9
 2587 00ea 3C       		.byte	0x3c
 2588 00eb AD000000 		.4byte	0xad
 2589 00ef 03       		.uleb128 0x3
 2590 00f0 3D040000 		.4byte	.LASF21
 2591 00f4 09       		.byte	0x9
 2592 00f5 3D       		.byte	0x3d
 2593 00f6 AD000000 		.4byte	0xad
 2594 00fa 03       		.uleb128 0x3
 2595 00fb D2050000 		.4byte	.LASF22
 2596 00ff 09       		.byte	0x9
 2597 0100 3E       		.byte	0x3e
 2598 0101 AD000000 		.4byte	0xad
 2599 0105 03       		.uleb128 0x3
 2600 0106 56020000 		.4byte	.LASF23
 2601 010a 09       		.byte	0x9
 2602 010b 40       		.byte	0x40
 2603 010c CE000000 		.4byte	0xce
 2604 0110 03       		.uleb128 0x3
 2605 0111 BE040000 		.4byte	.LASF24
ARM GAS  /tmp/ccVf3EPN.s 			page 110


 2606 0115 09       		.byte	0x9
 2607 0116 41       		.byte	0x41
 2608 0117 C3000000 		.4byte	0xc3
 2609 011b 03       		.uleb128 0x3
 2610 011c 38020000 		.4byte	.LASF25
 2611 0120 09       		.byte	0x9
 2612 0121 43       		.byte	0x43
 2613 0122 CE000000 		.4byte	0xce
 2614 0126 03       		.uleb128 0x3
 2615 0127 FB020000 		.4byte	.LASF26
 2616 012b 09       		.byte	0x9
 2617 012c 45       		.byte	0x45
 2618 012d C3000000 		.4byte	0xc3
 2619 0131 03       		.uleb128 0x3
 2620 0132 69000000 		.4byte	.LASF27
 2621 0136 0A       		.byte	0xa
 2622 0137 35       		.byte	0x35
 2623 0138 B8000000 		.4byte	0xb8
 2624 013c 03       		.uleb128 0x3
 2625 013d 47030000 		.4byte	.LASF28
 2626 0141 0A       		.byte	0xa
 2627 0142 3F       		.byte	0x3f
 2628 0143 47010000 		.4byte	0x147
 2629 0147 05       		.uleb128 0x5
 2630 0148 79040000 		.4byte	.LASF46
 2631 014c 44       		.byte	0x44
 2632 014d 0B       		.byte	0xb
 2633 014e 9A       		.byte	0x9a
 2634 014f 25020000 		.4byte	0x225
 2635 0153 06       		.uleb128 0x6
 2636 0154 05060000 		.4byte	.LASF29
 2637 0158 0B       		.byte	0xb
 2638 0159 9B       		.byte	0x9b
 2639 015a 5A020000 		.4byte	0x25a
 2640 015e 00       		.byte	0
 2641 015f 06       		.uleb128 0x6
 2642 0160 06040000 		.4byte	.LASF30
 2643 0164 0B       		.byte	0xb
 2644 0165 9C       		.byte	0x9c
 2645 0166 05010000 		.4byte	0x105
 2646 016a 08       		.byte	0x8
 2647 016b 07       		.uleb128 0x7
 2648 016c 63747800 		.ascii	"ctx\000"
 2649 0170 0B       		.byte	0xb
 2650 0171 9D       		.byte	0x9d
 2651 0172 6B040000 		.4byte	0x46b
 2652 0176 0C       		.byte	0xc
 2653 0177 06       		.uleb128 0x6
 2654 0178 27060000 		.4byte	.LASF31
 2655 017c 0B       		.byte	0xb
 2656 017d 9F       		.byte	0x9f
 2657 017e 30020000 		.4byte	0x230
 2658 0182 10       		.byte	0x10
 2659 0183 06       		.uleb128 0x6
 2660 0184 1C070000 		.4byte	.LASF32
 2661 0188 0B       		.byte	0xb
 2662 0189 A0       		.byte	0xa0
ARM GAS  /tmp/ccVf3EPN.s 			page 111


 2663 018a 30020000 		.4byte	0x230
 2664 018e 14       		.byte	0x14
 2665 018f 06       		.uleb128 0x6
 2666 0190 BE050000 		.4byte	.LASF33
 2667 0194 0B       		.byte	0xb
 2668 0195 A7       		.byte	0xa7
 2669 0196 E8060000 		.4byte	0x6e8
 2670 019a 18       		.byte	0x18
 2671 019b 06       		.uleb128 0x6
 2672 019c 36040000 		.4byte	.LASF34
 2673 01a0 0B       		.byte	0xb
 2674 01a1 B0       		.byte	0xb0
 2675 01a2 FA060000 		.4byte	0x6fa
 2676 01a6 1C       		.byte	0x1c
 2677 01a7 06       		.uleb128 0x6
 2678 01a8 77060000 		.4byte	.LASF35
 2679 01ac 0B       		.byte	0xb
 2680 01ad B5       		.byte	0xb5
 2681 01ae EF000000 		.4byte	0xef
 2682 01b2 20       		.byte	0x20
 2683 01b3 06       		.uleb128 0x6
 2684 01b4 63000000 		.4byte	.LASF36
 2685 01b8 0B       		.byte	0xb
 2686 01b9 B9       		.byte	0xb9
 2687 01ba E4000000 		.4byte	0xe4
 2688 01be 21       		.byte	0x21
 2689 01bf 06       		.uleb128 0x6
 2690 01c0 E7000000 		.4byte	.LASF37
 2691 01c4 0B       		.byte	0xb
 2692 01c5 BE       		.byte	0xbe
 2693 01c6 FA000000 		.4byte	0xfa
 2694 01ca 22       		.byte	0x22
 2695 01cb 08       		.uleb128 0x8
 2696 01cc 7500     		.ascii	"u\000"
 2697 01ce 0B       		.byte	0xb
 2698 01cf 0F01     		.2byte	0x10f
 2699 01d1 1D060000 		.4byte	0x61d
 2700 01d5 24       		.byte	0x24
 2701 01d6 09       		.uleb128 0x9
 2702 01d7 4C060000 		.4byte	.LASF38
 2703 01db 0B       		.byte	0xb
 2704 01dc 1401     		.2byte	0x114
 2705 01de 36020000 		.4byte	0x236
 2706 01e2 28       		.byte	0x28
 2707 01e3 09       		.uleb128 0x9
 2708 01e4 6B040000 		.4byte	.LASF39
 2709 01e8 0B       		.byte	0xb
 2710 01e9 1A01     		.2byte	0x11a
 2711 01eb 5A020000 		.4byte	0x25a
 2712 01ef 2C       		.byte	0x2c
 2713 01f0 09       		.uleb128 0x9
 2714 01f1 90000000 		.4byte	.LASF40
 2715 01f5 0B       		.byte	0xb
 2716 01f6 2001     		.2byte	0x120
 2717 01f8 1B010000 		.4byte	0x11b
 2718 01fc 34       		.byte	0x34
 2719 01fd 09       		.uleb128 0x9
ARM GAS  /tmp/ccVf3EPN.s 			page 112


 2720 01fe 28030000 		.4byte	.LASF41
 2721 0202 0B       		.byte	0xb
 2722 0203 2701     		.2byte	0x127
 2723 0205 E2060000 		.4byte	0x6e2
 2724 0209 38       		.byte	0x38
 2725 020a 09       		.uleb128 0x9
 2726 020b 7C000000 		.4byte	.LASF42
 2727 020f 0B       		.byte	0xb
 2728 0210 2B01     		.2byte	0x12b
 2729 0212 05010000 		.4byte	0x105
 2730 0216 3C       		.byte	0x3c
 2731 0217 09       		.uleb128 0x9
 2732 0218 7E070000 		.4byte	.LASF43
 2733 021c 0B       		.byte	0xb
 2734 021d 3201     		.2byte	0x132
 2735 021f 0D030000 		.4byte	0x30d
 2736 0223 40       		.byte	0x40
 2737 0224 00       		.byte	0
 2738 0225 03       		.uleb128 0x3
 2739 0226 23040000 		.4byte	.LASF44
 2740 022a 0A       		.byte	0xa
 2741 022b 44       		.byte	0x44
 2742 022c 30020000 		.4byte	0x230
 2743 0230 0A       		.uleb128 0xa
 2744 0231 04       		.byte	0x4
 2745 0232 3C010000 		.4byte	0x13c
 2746 0236 03       		.uleb128 0x3
 2747 0237 CE000000 		.4byte	.LASF45
 2748 023b 0A       		.byte	0xa
 2749 023c 49       		.byte	0x49
 2750 023d 41020000 		.4byte	0x241
 2751 0241 05       		.uleb128 0x5
 2752 0242 00000000 		.4byte	.LASF47
 2753 0246 04       		.byte	0x4
 2754 0247 0B       		.byte	0xb
 2755 0248 88       		.byte	0x88
 2756 0249 5A020000 		.4byte	0x25a
 2757 024d 06       		.uleb128 0x6
 2758 024e A6000000 		.4byte	.LASF48
 2759 0252 0B       		.byte	0xb
 2760 0253 89       		.byte	0x89
 2761 0254 30020000 		.4byte	0x230
 2762 0258 00       		.byte	0
 2763 0259 00       		.byte	0
 2764 025a 03       		.uleb128 0x3
 2765 025b 18030000 		.4byte	.LASF49
 2766 025f 0A       		.byte	0xa
 2767 0260 50       		.byte	0x50
 2768 0261 65020000 		.4byte	0x265
 2769 0265 05       		.uleb128 0x5
 2770 0266 55010000 		.4byte	.LASF50
 2771 026a 08       		.byte	0x8
 2772 026b 0B       		.byte	0xb
 2773 026c 8F       		.byte	0x8f
 2774 026d 8A020000 		.4byte	0x28a
 2775 0271 06       		.uleb128 0x6
 2776 0272 A6000000 		.4byte	.LASF48
ARM GAS  /tmp/ccVf3EPN.s 			page 113


 2777 0276 0B       		.byte	0xb
 2778 0277 90       		.byte	0x90
 2779 0278 30020000 		.4byte	0x230
 2780 027c 00       		.byte	0
 2781 027d 06       		.uleb128 0x6
 2782 027e 50010000 		.4byte	.LASF51
 2783 0282 0B       		.byte	0xb
 2784 0283 91       		.byte	0x91
 2785 0284 30020000 		.4byte	0x230
 2786 0288 04       		.byte	0x4
 2787 0289 00       		.byte	0
 2788 028a 03       		.uleb128 0x3
 2789 028b EC050000 		.4byte	.LASF52
 2790 028f 0A       		.byte	0xa
 2791 0290 57       		.byte	0x57
 2792 0291 95020000 		.4byte	0x295
 2793 0295 0B       		.uleb128 0xb
 2794 0296 36010000 		.4byte	.LASF53
 2795 029a 1C       		.byte	0x1c
 2796 029b 0B       		.byte	0xb
 2797 029c 6A01     		.2byte	0x16a
 2798 029e F1020000 		.4byte	0x2f1
 2799 02a2 09       		.uleb128 0x9
 2800 02a3 05060000 		.4byte	.LASF29
 2801 02a7 0B       		.byte	0xb
 2802 02a8 6B01     		.2byte	0x16b
 2803 02aa 5A020000 		.4byte	0x25a
 2804 02ae 00       		.byte	0
 2805 02af 09       		.uleb128 0x9
 2806 02b0 06040000 		.4byte	.LASF30
 2807 02b4 0B       		.byte	0xb
 2808 02b5 6C01     		.2byte	0x16c
 2809 02b7 05010000 		.4byte	0x105
 2810 02bb 08       		.byte	0x8
 2811 02bc 08       		.uleb128 0x8
 2812 02bd 63747800 		.ascii	"ctx\000"
 2813 02c1 0B       		.byte	0xb
 2814 02c2 6E01     		.2byte	0x16e
 2815 02c4 6B040000 		.4byte	0x46b
 2816 02c8 0C       		.byte	0xc
 2817 02c9 09       		.uleb128 0x9
 2818 02ca 27060000 		.4byte	.LASF31
 2819 02ce 0B       		.byte	0xb
 2820 02cf 7101     		.2byte	0x171
 2821 02d1 30020000 		.4byte	0x230
 2822 02d5 10       		.byte	0x10
 2823 02d6 09       		.uleb128 0x9
 2824 02d7 1C070000 		.4byte	.LASF32
 2825 02db 0B       		.byte	0xb
 2826 02dc 7201     		.2byte	0x172
 2827 02de 30020000 		.4byte	0x230
 2828 02e2 14       		.byte	0x14
 2829 02e3 09       		.uleb128 0x9
 2830 02e4 D3060000 		.4byte	.LASF54
 2831 02e8 0B       		.byte	0xb
 2832 02e9 7501     		.2byte	0x175
 2833 02eb 30020000 		.4byte	0x230
ARM GAS  /tmp/ccVf3EPN.s 			page 114


 2834 02ef 18       		.byte	0x18
 2835 02f0 00       		.byte	0
 2836 02f1 03       		.uleb128 0x3
 2837 02f2 6B010000 		.4byte	.LASF55
 2838 02f6 0A       		.byte	0xa
 2839 02f7 5C       		.byte	0x5c
 2840 02f8 FC020000 		.4byte	0x2fc
 2841 02fc 0A       		.uleb128 0xa
 2842 02fd 04       		.byte	0x4
 2843 02fe 02030000 		.4byte	0x302
 2844 0302 0C       		.uleb128 0xc
 2845 0303 0D030000 		.4byte	0x30d
 2846 0307 0D       		.uleb128 0xd
 2847 0308 0D030000 		.4byte	0x30d
 2848 030c 00       		.byte	0
 2849 030d 0E       		.uleb128 0xe
 2850 030e 04       		.byte	0x4
 2851 030f 03       		.uleb128 0x3
 2852 0310 D6040000 		.4byte	.LASF56
 2853 0314 0A       		.byte	0xa
 2854 0315 61       		.byte	0x61
 2855 0316 1A030000 		.4byte	0x31a
 2856 031a 0B       		.uleb128 0xb
 2857 031b 5E020000 		.4byte	.LASF57
 2858 031f 14       		.byte	0x14
 2859 0320 0B       		.byte	0xb
 2860 0321 4501     		.2byte	0x145
 2861 0323 69030000 		.4byte	0x369
 2862 0327 09       		.uleb128 0x9
 2863 0328 A6000000 		.4byte	.LASF48
 2864 032c 0B       		.byte	0xb
 2865 032d 4601     		.2byte	0x146
 2866 032f 00070000 		.4byte	0x700
 2867 0333 00       		.byte	0
 2868 0334 09       		.uleb128 0x9
 2869 0335 50010000 		.4byte	.LASF51
 2870 0339 0B       		.byte	0xb
 2871 033a 4701     		.2byte	0x147
 2872 033c 00070000 		.4byte	0x700
 2873 0340 04       		.byte	0x4
 2874 0341 09       		.uleb128 0x9
 2875 0342 AF060000 		.4byte	.LASF58
 2876 0346 0B       		.byte	0xb
 2877 0347 4801     		.2byte	0x148
 2878 0349 31010000 		.4byte	0x131
 2879 034d 08       		.byte	0x8
 2880 034e 09       		.uleb128 0x9
 2881 034f 44010000 		.4byte	.LASF59
 2882 0353 0B       		.byte	0xb
 2883 0354 4901     		.2byte	0x149
 2884 0356 F1020000 		.4byte	0x2f1
 2885 035a 0C       		.byte	0xc
 2886 035b 08       		.uleb128 0x8
 2887 035c 70617200 		.ascii	"par\000"
 2888 0360 0B       		.byte	0xb
 2889 0361 4B01     		.2byte	0x14b
 2890 0363 0D030000 		.4byte	0x30d
ARM GAS  /tmp/ccVf3EPN.s 			page 115


 2891 0367 10       		.byte	0x10
 2892 0368 00       		.byte	0
 2893 0369 03       		.uleb128 0x3
 2894 036a 54060000 		.4byte	.LASF60
 2895 036e 0A       		.byte	0xa
 2896 036f 66       		.byte	0x66
 2897 0370 74030000 		.4byte	0x374
 2898 0374 0B       		.uleb128 0xb
 2899 0375 30030000 		.4byte	.LASF61
 2900 0379 0C       		.byte	0xc
 2901 037a 0B       		.byte	0xb
 2902 037b 5501     		.2byte	0x155
 2903 037d B6030000 		.4byte	0x3b6
 2904 0381 09       		.uleb128 0x9
 2905 0382 A6000000 		.4byte	.LASF48
 2906 0386 0B       		.byte	0xb
 2907 0387 5601     		.2byte	0x156
 2908 0389 00070000 		.4byte	0x700
 2909 038d 00       		.byte	0
 2910 038e 09       		.uleb128 0x9
 2911 038f 50010000 		.4byte	.LASF51
 2912 0393 0B       		.byte	0xb
 2913 0394 5801     		.2byte	0x158
 2914 0396 00070000 		.4byte	0x700
 2915 039a 04       		.byte	0x4
 2916 039b 09       		.uleb128 0x9
 2917 039c AF060000 		.4byte	.LASF58
 2918 03a0 0B       		.byte	0xb
 2919 03a1 5A01     		.2byte	0x15a
 2920 03a3 31010000 		.4byte	0x131
 2921 03a7 08       		.byte	0x8
 2922 03a8 09       		.uleb128 0x9
 2923 03a9 8E050000 		.4byte	.LASF62
 2924 03ad 0B       		.byte	0xb
 2925 03ae 6201     		.2byte	0x162
 2926 03b0 31010000 		.4byte	0x131
 2927 03b4 0A       		.byte	0xa
 2928 03b5 00       		.byte	0
 2929 03b6 03       		.uleb128 0x3
 2930 03b7 8B040000 		.4byte	.LASF63
 2931 03bb 0A       		.byte	0xa
 2932 03bc 6B       		.byte	0x6b
 2933 03bd C1030000 		.4byte	0x3c1
 2934 03c1 0B       		.uleb128 0xb
 2935 03c2 74010000 		.4byte	.LASF64
 2936 03c6 04       		.byte	0x4
 2937 03c7 0B       		.byte	0xb
 2938 03c8 7C01     		.2byte	0x17c
 2939 03ca DC030000 		.4byte	0x3dc
 2940 03ce 09       		.uleb128 0x9
 2941 03cf 0B050000 		.4byte	.LASF65
 2942 03d3 0B       		.byte	0xb
 2943 03d4 8401     		.2byte	0x184
 2944 03d6 06070000 		.4byte	0x706
 2945 03da 00       		.byte	0
 2946 03db 00       		.byte	0
 2947 03dc 03       		.uleb128 0x3
ARM GAS  /tmp/ccVf3EPN.s 			page 116


 2948 03dd 7D060000 		.4byte	.LASF66
 2949 03e1 0A       		.byte	0xa
 2950 03e2 70       		.byte	0x70
 2951 03e3 E7030000 		.4byte	0x3e7
 2952 03e7 0B       		.uleb128 0xb
 2953 03e8 68050000 		.4byte	.LASF67
 2954 03ec 70       		.byte	0x70
 2955 03ed 0B       		.byte	0xb
 2956 03ee 9C01     		.2byte	0x19c
 2957 03f0 29040000 		.4byte	0x429
 2958 03f4 09       		.uleb128 0x9
 2959 03f5 A0050000 		.4byte	.LASF68
 2960 03f9 0B       		.byte	0xb
 2961 03fa A001     		.2byte	0x1a0
 2962 03fc 8A020000 		.4byte	0x28a
 2963 0400 00       		.byte	0
 2964 0401 09       		.uleb128 0x9
 2965 0402 15010000 		.4byte	.LASF69
 2966 0406 0B       		.byte	0xb
 2967 0407 A401     		.2byte	0x1a4
 2968 0409 69030000 		.4byte	0x369
 2969 040d 1C       		.byte	0x1c
 2970 040e 08       		.uleb128 0x8
 2971 040f 64626700 		.ascii	"dbg\000"
 2972 0413 0B       		.byte	0xb
 2973 0414 A801     		.2byte	0x1a8
 2974 0416 B6030000 		.4byte	0x3b6
 2975 041a 28       		.byte	0x28
 2976 041b 09       		.uleb128 0x9
 2977 041c 1D050000 		.4byte	.LASF70
 2978 0420 0B       		.byte	0xb
 2979 0421 AC01     		.2byte	0x1ac
 2980 0423 3C010000 		.4byte	0x13c
 2981 0427 2C       		.byte	0x2c
 2982 0428 00       		.byte	0
 2983 0429 04       		.uleb128 0x4
 2984 042a 04       		.byte	0x4
 2985 042b 07       		.byte	0x7
 2986 042c C9050000 		.4byte	.LASF71
 2987 0430 0F       		.uleb128 0xf
 2988 0431 CE000000 		.4byte	0xce
 2989 0435 10       		.uleb128 0x10
 2990 0436 CE000000 		.4byte	0xce
 2991 043a 45040000 		.4byte	0x445
 2992 043e 11       		.uleb128 0x11
 2993 043f 29040000 		.4byte	0x429
 2994 0443 01       		.byte	0x1
 2995 0444 00       		.byte	0
 2996 0445 10       		.uleb128 0x10
 2997 0446 CE000000 		.4byte	0xce
 2998 044a 55040000 		.4byte	0x455
 2999 044e 11       		.uleb128 0x11
 3000 044f 29040000 		.4byte	0x429
 3001 0453 03       		.byte	0x3
 3002 0454 00       		.byte	0
 3003 0455 03       		.uleb128 0x3
 3004 0456 36000000 		.4byte	.LASF72
ARM GAS  /tmp/ccVf3EPN.s 			page 117


 3005 045a 0C       		.byte	0xc
 3006 045b 65       		.byte	0x65
 3007 045c 0D030000 		.4byte	0x30d
 3008 0460 03       		.uleb128 0x3
 3009 0461 C8060000 		.4byte	.LASF73
 3010 0465 0C       		.byte	0xc
 3011 0466 6D       		.byte	0x6d
 3012 0467 D9000000 		.4byte	0xd9
 3013 046b 05       		.uleb128 0x5
 3014 046c 1C010000 		.4byte	.LASF74
 3015 0470 04       		.byte	0x4
 3016 0471 0C       		.byte	0xc
 3017 0472 89       		.byte	0x89
 3018 0473 83040000 		.4byte	0x483
 3019 0477 07       		.uleb128 0x7
 3020 0478 737000   		.ascii	"sp\000"
 3021 047b 0C       		.byte	0xc
 3022 047c 8A       		.byte	0x8a
 3023 047d F5040000 		.4byte	0x4f5
 3024 0481 00       		.byte	0
 3025 0482 00       		.byte	0
 3026 0483 05       		.uleb128 0x5
 3027 0484 4F050000 		.4byte	.LASF75
 3028 0488 24       		.byte	0x24
 3029 0489 0D       		.byte	0xd
 3030 048a C3       		.byte	0xc3
 3031 048b F5040000 		.4byte	0x4f5
 3032 048f 07       		.uleb128 0x7
 3033 0490 723800   		.ascii	"r8\000"
 3034 0493 0D       		.byte	0xd
 3035 0494 C4       		.byte	0xc4
 3036 0495 55040000 		.4byte	0x455
 3037 0499 00       		.byte	0
 3038 049a 07       		.uleb128 0x7
 3039 049b 723900   		.ascii	"r9\000"
 3040 049e 0D       		.byte	0xd
 3041 049f C5       		.byte	0xc5
 3042 04a0 55040000 		.4byte	0x455
 3043 04a4 04       		.byte	0x4
 3044 04a5 07       		.uleb128 0x7
 3045 04a6 72313000 		.ascii	"r10\000"
 3046 04aa 0D       		.byte	0xd
 3047 04ab C6       		.byte	0xc6
 3048 04ac 55040000 		.4byte	0x455
 3049 04b0 08       		.byte	0x8
 3050 04b1 07       		.uleb128 0x7
 3051 04b2 72313100 		.ascii	"r11\000"
 3052 04b6 0D       		.byte	0xd
 3053 04b7 C7       		.byte	0xc7
 3054 04b8 55040000 		.4byte	0x455
 3055 04bc 0C       		.byte	0xc
 3056 04bd 07       		.uleb128 0x7
 3057 04be 723400   		.ascii	"r4\000"
 3058 04c1 0D       		.byte	0xd
 3059 04c2 C8       		.byte	0xc8
 3060 04c3 55040000 		.4byte	0x455
 3061 04c7 10       		.byte	0x10
ARM GAS  /tmp/ccVf3EPN.s 			page 118


 3062 04c8 07       		.uleb128 0x7
 3063 04c9 723500   		.ascii	"r5\000"
 3064 04cc 0D       		.byte	0xd
 3065 04cd C9       		.byte	0xc9
 3066 04ce 55040000 		.4byte	0x455
 3067 04d2 14       		.byte	0x14
 3068 04d3 07       		.uleb128 0x7
 3069 04d4 723600   		.ascii	"r6\000"
 3070 04d7 0D       		.byte	0xd
 3071 04d8 CA       		.byte	0xca
 3072 04d9 55040000 		.4byte	0x455
 3073 04dd 18       		.byte	0x18
 3074 04de 07       		.uleb128 0x7
 3075 04df 723700   		.ascii	"r7\000"
 3076 04e2 0D       		.byte	0xd
 3077 04e3 CB       		.byte	0xcb
 3078 04e4 55040000 		.4byte	0x455
 3079 04e8 1C       		.byte	0x1c
 3080 04e9 07       		.uleb128 0x7
 3081 04ea 6C7200   		.ascii	"lr\000"
 3082 04ed 0D       		.byte	0xd
 3083 04ee CC       		.byte	0xcc
 3084 04ef 55040000 		.4byte	0x455
 3085 04f3 20       		.byte	0x20
 3086 04f4 00       		.byte	0
 3087 04f5 0A       		.uleb128 0xa
 3088 04f6 04       		.byte	0x4
 3089 04f7 83040000 		.4byte	0x483
 3090 04fb 12       		.uleb128 0x12
 3091 04fc 60       		.byte	0x60
 3092 04fd 0E       		.byte	0xe
 3093 04fe A101     		.2byte	0x1a1
 3094 0500 07060000 		.4byte	0x607
 3095 0504 08       		.uleb128 0x8
 3096 0505 43523100 		.ascii	"CR1\000"
 3097 0509 0E       		.byte	0xe
 3098 050a A201     		.2byte	0x1a2
 3099 050c 30040000 		.4byte	0x430
 3100 0510 00       		.byte	0
 3101 0511 08       		.uleb128 0x8
 3102 0512 43523200 		.ascii	"CR2\000"
 3103 0516 0E       		.byte	0xe
 3104 0517 A301     		.2byte	0x1a3
 3105 0519 30040000 		.4byte	0x430
 3106 051d 04       		.byte	0x4
 3107 051e 09       		.uleb128 0x9
 3108 051f 74040000 		.4byte	.LASF76
 3109 0523 0E       		.byte	0xe
 3110 0524 A401     		.2byte	0x1a4
 3111 0526 30040000 		.4byte	0x430
 3112 052a 08       		.byte	0x8
 3113 052b 09       		.uleb128 0x9
 3114 052c A6030000 		.4byte	.LASF77
 3115 0530 0E       		.byte	0xe
 3116 0531 A501     		.2byte	0x1a5
 3117 0533 30040000 		.4byte	0x430
 3118 0537 0C       		.byte	0xc
ARM GAS  /tmp/ccVf3EPN.s 			page 119


 3119 0538 08       		.uleb128 0x8
 3120 0539 535200   		.ascii	"SR\000"
 3121 053c 0E       		.byte	0xe
 3122 053d A601     		.2byte	0x1a6
 3123 053f 30040000 		.4byte	0x430
 3124 0543 10       		.byte	0x10
 3125 0544 08       		.uleb128 0x8
 3126 0545 45475200 		.ascii	"EGR\000"
 3127 0549 0E       		.byte	0xe
 3128 054a A701     		.2byte	0x1a7
 3129 054c 30040000 		.4byte	0x430
 3130 0550 14       		.byte	0x14
 3131 0551 09       		.uleb128 0x9
 3132 0552 6F020000 		.4byte	.LASF78
 3133 0556 0E       		.byte	0xe
 3134 0557 A801     		.2byte	0x1a8
 3135 0559 30040000 		.4byte	0x430
 3136 055d 18       		.byte	0x18
 3137 055e 09       		.uleb128 0x9
 3138 055f 75020000 		.4byte	.LASF79
 3139 0563 0E       		.byte	0xe
 3140 0564 A901     		.2byte	0x1a9
 3141 0566 30040000 		.4byte	0x430
 3142 056a 1C       		.byte	0x1c
 3143 056b 09       		.uleb128 0x9
 3144 056c 0B040000 		.4byte	.LASF80
 3145 0570 0E       		.byte	0xe
 3146 0571 AA01     		.2byte	0x1aa
 3147 0573 30040000 		.4byte	0x430
 3148 0577 20       		.byte	0x20
 3149 0578 08       		.uleb128 0x8
 3150 0579 434E5400 		.ascii	"CNT\000"
 3151 057d 0E       		.byte	0xe
 3152 057e AB01     		.2byte	0x1ab
 3153 0580 30040000 		.4byte	0x430
 3154 0584 24       		.byte	0x24
 3155 0585 08       		.uleb128 0x8
 3156 0586 50534300 		.ascii	"PSC\000"
 3157 058a 0E       		.byte	0xe
 3158 058b AC01     		.2byte	0x1ac
 3159 058d 30040000 		.4byte	0x430
 3160 0591 28       		.byte	0x28
 3161 0592 08       		.uleb128 0x8
 3162 0593 41525200 		.ascii	"ARR\000"
 3163 0597 0E       		.byte	0xe
 3164 0598 AD01     		.2byte	0x1ad
 3165 059a 30040000 		.4byte	0x430
 3166 059e 2C       		.byte	0x2c
 3167 059f 08       		.uleb128 0x8
 3168 05a0 52435200 		.ascii	"RCR\000"
 3169 05a4 0E       		.byte	0xe
 3170 05a5 AE01     		.2byte	0x1ae
 3171 05a7 30040000 		.4byte	0x430
 3172 05ab 30       		.byte	0x30
 3173 05ac 08       		.uleb128 0x8
 3174 05ad 43435200 		.ascii	"CCR\000"
 3175 05b1 0E       		.byte	0xe
ARM GAS  /tmp/ccVf3EPN.s 			page 120


 3176 05b2 AF01     		.2byte	0x1af
 3177 05b4 07060000 		.4byte	0x607
 3178 05b8 34       		.byte	0x34
 3179 05b9 09       		.uleb128 0x9
 3180 05ba 44020000 		.4byte	.LASF81
 3181 05be 0E       		.byte	0xe
 3182 05bf B001     		.2byte	0x1b0
 3183 05c1 30040000 		.4byte	0x430
 3184 05c5 44       		.byte	0x44
 3185 05c6 08       		.uleb128 0x8
 3186 05c7 44435200 		.ascii	"DCR\000"
 3187 05cb 0E       		.byte	0xe
 3188 05cc B101     		.2byte	0x1b1
 3189 05ce 30040000 		.4byte	0x430
 3190 05d2 48       		.byte	0x48
 3191 05d3 09       		.uleb128 0x9
 3192 05d4 66010000 		.4byte	.LASF82
 3193 05d8 0E       		.byte	0xe
 3194 05d9 B201     		.2byte	0x1b2
 3195 05db 30040000 		.4byte	0x430
 3196 05df 4C       		.byte	0x4c
 3197 05e0 08       		.uleb128 0x8
 3198 05e1 4F5200   		.ascii	"OR\000"
 3199 05e4 0E       		.byte	0xe
 3200 05e5 B301     		.2byte	0x1b3
 3201 05e7 30040000 		.4byte	0x430
 3202 05eb 50       		.byte	0x50
 3203 05ec 09       		.uleb128 0x9
 3204 05ed 7B020000 		.4byte	.LASF83
 3205 05f1 0E       		.byte	0xe
 3206 05f2 B401     		.2byte	0x1b4
 3207 05f4 30040000 		.4byte	0x430
 3208 05f8 54       		.byte	0x54
 3209 05f9 09       		.uleb128 0x9
 3210 05fa 37050000 		.4byte	.LASF84
 3211 05fe 0E       		.byte	0xe
 3212 05ff B501     		.2byte	0x1b5
 3213 0601 0C060000 		.4byte	0x60c
 3214 0605 58       		.byte	0x58
 3215 0606 00       		.byte	0
 3216 0607 0F       		.uleb128 0xf
 3217 0608 45040000 		.4byte	0x445
 3218 060c 0F       		.uleb128 0xf
 3219 060d 35040000 		.4byte	0x435
 3220 0611 13       		.uleb128 0x13
 3221 0612 76030000 		.4byte	.LASF85
 3222 0616 0E       		.byte	0xe
 3223 0617 B601     		.2byte	0x1b6
 3224 0619 FB040000 		.4byte	0x4fb
 3225 061d 14       		.uleb128 0x14
 3226 061e 04       		.byte	0x4
 3227 061f 0B       		.byte	0xb
 3228 0620 D2       		.byte	0xd2
 3229 0621 80060000 		.4byte	0x680
 3230 0625 15       		.uleb128 0x15
 3231 0626 57030000 		.4byte	.LASF86
 3232 062a 0B       		.byte	0xb
ARM GAS  /tmp/ccVf3EPN.s 			page 121


 3233 062b D9       		.byte	0xd9
 3234 062c 10010000 		.4byte	0x110
 3235 0630 15       		.uleb128 0x15
 3236 0631 68070000 		.4byte	.LASF87
 3237 0635 0B       		.byte	0xb
 3238 0636 E0       		.byte	0xe0
 3239 0637 10010000 		.4byte	0x110
 3240 063b 15       		.uleb128 0x15
 3241 063c 04010000 		.4byte	.LASF88
 3242 0640 0B       		.byte	0xb
 3243 0641 E7       		.byte	0xe7
 3244 0642 0D030000 		.4byte	0x30d
 3245 0646 15       		.uleb128 0x15
 3246 0647 90060000 		.4byte	.LASF89
 3247 064b 0B       		.byte	0xb
 3248 064c EE       		.byte	0xee
 3249 064d 80060000 		.4byte	0x680
 3250 0651 15       		.uleb128 0x15
 3251 0652 30020000 		.4byte	.LASF90
 3252 0656 0B       		.byte	0xb
 3253 0657 F3       		.byte	0xf3
 3254 0658 10010000 		.4byte	0x110
 3255 065c 15       		.uleb128 0x15
 3256 065d 89060000 		.4byte	.LASF91
 3257 0661 0B       		.byte	0xb
 3258 0662 FC       		.byte	0xfc
 3259 0663 AB060000 		.4byte	0x6ab
 3260 0667 16       		.uleb128 0x16
 3261 0668 1D000000 		.4byte	.LASF92
 3262 066c 0B       		.byte	0xb
 3263 066d 0501     		.2byte	0x105
 3264 066f E2060000 		.4byte	0x6e2
 3265 0673 16       		.uleb128 0x16
 3266 0674 49010000 		.4byte	.LASF93
 3267 0678 0B       		.byte	0xb
 3268 0679 0D01     		.2byte	0x10d
 3269 067b 1B010000 		.4byte	0x11b
 3270 067f 00       		.byte	0
 3271 0680 0A       		.uleb128 0xa
 3272 0681 04       		.byte	0x4
 3273 0682 25020000 		.4byte	0x225
 3274 0686 05       		.uleb128 0x5
 3275 0687 49020000 		.4byte	.LASF94
 3276 068b 0C       		.byte	0xc
 3277 068c 0F       		.byte	0xf
 3278 068d 34       		.byte	0x34
 3279 068e AB060000 		.4byte	0x6ab
 3280 0692 06       		.uleb128 0x6
 3281 0693 05060000 		.4byte	.LASF29
 3282 0697 0F       		.byte	0xf
 3283 0698 35       		.byte	0x35
 3284 0699 5A020000 		.4byte	0x25a
 3285 069d 00       		.byte	0
 3286 069e 07       		.uleb128 0x7
 3287 069f 636E7400 		.ascii	"cnt\000"
 3288 06a3 0F       		.byte	0xf
 3289 06a4 37       		.byte	0x37
ARM GAS  /tmp/ccVf3EPN.s 			page 122


 3290 06a5 26010000 		.4byte	0x126
 3291 06a9 08       		.byte	0x8
 3292 06aa 00       		.byte	0
 3293 06ab 0A       		.uleb128 0xa
 3294 06ac 04       		.byte	0x4
 3295 06ad 86060000 		.4byte	0x686
 3296 06b1 05       		.uleb128 0x5
 3297 06b2 92030000 		.4byte	.LASF95
 3298 06b6 10       		.byte	0x10
 3299 06b7 10       		.byte	0x10
 3300 06b8 39       		.byte	0x39
 3301 06b9 E2060000 		.4byte	0x6e2
 3302 06bd 06       		.uleb128 0x6
 3303 06be 05060000 		.4byte	.LASF29
 3304 06c2 10       		.byte	0x10
 3305 06c3 3A       		.byte	0x3a
 3306 06c4 5A020000 		.4byte	0x25a
 3307 06c8 00       		.byte	0
 3308 06c9 06       		.uleb128 0x6
 3309 06ca 12030000 		.4byte	.LASF96
 3310 06ce 10       		.byte	0x10
 3311 06cf 3C       		.byte	0x3c
 3312 06d0 30020000 		.4byte	0x230
 3313 06d4 08       		.byte	0x8
 3314 06d5 06       		.uleb128 0x6
 3315 06d6 A6000000 		.4byte	.LASF48
 3316 06da 10       		.byte	0x10
 3317 06db 3E       		.byte	0x3e
 3318 06dc 16070000 		.4byte	0x716
 3319 06e0 0C       		.byte	0xc
 3320 06e1 00       		.byte	0
 3321 06e2 0A       		.uleb128 0xa
 3322 06e3 04       		.byte	0x4
 3323 06e4 B1060000 		.4byte	0x6b1
 3324 06e8 0A       		.uleb128 0xa
 3325 06e9 04       		.byte	0x4
 3326 06ea EE060000 		.4byte	0x6ee
 3327 06ee 17       		.uleb128 0x17
 3328 06ef F3060000 		.4byte	0x6f3
 3329 06f3 04       		.uleb128 0x4
 3330 06f4 01       		.byte	0x1
 3331 06f5 08       		.byte	0x8
 3332 06f6 10040000 		.4byte	.LASF97
 3333 06fa 0A       		.uleb128 0xa
 3334 06fb 04       		.byte	0x4
 3335 06fc 60040000 		.4byte	0x460
 3336 0700 0A       		.uleb128 0xa
 3337 0701 04       		.byte	0x4
 3338 0702 0F030000 		.4byte	0x30f
 3339 0706 0F       		.uleb128 0xf
 3340 0707 E8060000 		.4byte	0x6e8
 3341 070b 03       		.uleb128 0x3
 3342 070c 1F060000 		.4byte	.LASF98
 3343 0710 10       		.byte	0x10
 3344 0711 34       		.byte	0x34
 3345 0712 B1060000 		.4byte	0x6b1
 3346 0716 0A       		.uleb128 0xa
ARM GAS  /tmp/ccVf3EPN.s 			page 123


 3347 0717 04       		.byte	0x4
 3348 0718 0B070000 		.4byte	0x70b
 3349 071c 05       		.uleb128 0x5
 3350 071d EC000000 		.4byte	.LASF99
 3351 0721 10       		.byte	0x10
 3352 0722 11       		.byte	0x11
 3353 0723 46       		.byte	0x46
 3354 0724 59070000 		.4byte	0x759
 3355 0728 06       		.uleb128 0x6
 3356 0729 A8040000 		.4byte	.LASF100
 3357 072d 11       		.byte	0x11
 3358 072e 47       		.byte	0x47
 3359 072f 7D070000 		.4byte	0x77d
 3360 0733 00       		.byte	0
 3361 0734 06       		.uleb128 0x6
 3362 0735 46040000 		.4byte	.LASF101
 3363 0739 11       		.byte	0x11
 3364 073a 47       		.byte	0x47
 3365 073b A2070000 		.4byte	0x7a2
 3366 073f 04       		.byte	0x4
 3367 0740 07       		.uleb128 0x7
 3368 0741 70757400 		.ascii	"put\000"
 3369 0745 11       		.byte	0x11
 3370 0746 47       		.byte	0x47
 3371 0747 BC070000 		.4byte	0x7bc
 3372 074b 08       		.byte	0x8
 3373 074c 07       		.uleb128 0x7
 3374 074d 67657400 		.ascii	"get\000"
 3375 0751 11       		.byte	0x11
 3376 0752 47       		.byte	0x47
 3377 0753 D1070000 		.4byte	0x7d1
 3378 0757 0C       		.byte	0xc
 3379 0758 00       		.byte	0
 3380 0759 18       		.uleb128 0x18
 3381 075a 2C000000 		.4byte	0x2c
 3382 075e 72070000 		.4byte	0x772
 3383 0762 0D       		.uleb128 0xd
 3384 0763 0D030000 		.4byte	0x30d
 3385 0767 0D       		.uleb128 0xd
 3386 0768 72070000 		.4byte	0x772
 3387 076c 0D       		.uleb128 0xd
 3388 076d 2C000000 		.4byte	0x2c
 3389 0771 00       		.byte	0
 3390 0772 0A       		.uleb128 0xa
 3391 0773 04       		.byte	0x4
 3392 0774 78070000 		.4byte	0x778
 3393 0778 17       		.uleb128 0x17
 3394 0779 AD000000 		.4byte	0xad
 3395 077d 0A       		.uleb128 0xa
 3396 077e 04       		.byte	0x4
 3397 077f 59070000 		.4byte	0x759
 3398 0783 18       		.uleb128 0x18
 3399 0784 2C000000 		.4byte	0x2c
 3400 0788 9C070000 		.4byte	0x79c
 3401 078c 0D       		.uleb128 0xd
 3402 078d 0D030000 		.4byte	0x30d
 3403 0791 0D       		.uleb128 0xd
ARM GAS  /tmp/ccVf3EPN.s 			page 124


 3404 0792 9C070000 		.4byte	0x79c
 3405 0796 0D       		.uleb128 0xd
 3406 0797 2C000000 		.4byte	0x2c
 3407 079b 00       		.byte	0
 3408 079c 0A       		.uleb128 0xa
 3409 079d 04       		.byte	0x4
 3410 079e AD000000 		.4byte	0xad
 3411 07a2 0A       		.uleb128 0xa
 3412 07a3 04       		.byte	0x4
 3413 07a4 83070000 		.4byte	0x783
 3414 07a8 18       		.uleb128 0x18
 3415 07a9 10010000 		.4byte	0x110
 3416 07ad BC070000 		.4byte	0x7bc
 3417 07b1 0D       		.uleb128 0xd
 3418 07b2 0D030000 		.4byte	0x30d
 3419 07b6 0D       		.uleb128 0xd
 3420 07b7 AD000000 		.4byte	0xad
 3421 07bb 00       		.byte	0
 3422 07bc 0A       		.uleb128 0xa
 3423 07bd 04       		.byte	0x4
 3424 07be A8070000 		.4byte	0x7a8
 3425 07c2 18       		.uleb128 0x18
 3426 07c3 10010000 		.4byte	0x110
 3427 07c7 D1070000 		.4byte	0x7d1
 3428 07cb 0D       		.uleb128 0xd
 3429 07cc 0D030000 		.4byte	0x30d
 3430 07d0 00       		.byte	0
 3431 07d1 0A       		.uleb128 0xa
 3432 07d2 04       		.byte	0x4
 3433 07d3 C2070000 		.4byte	0x7c2
 3434 07d7 19       		.uleb128 0x19
 3435 07d8 04       		.byte	0x4
 3436 07d9 11       		.byte	0x11
 3437 07da 4F       		.byte	0x4f
 3438 07db EC070000 		.4byte	0x7ec
 3439 07df 07       		.uleb128 0x7
 3440 07e0 766D7400 		.ascii	"vmt\000"
 3441 07e4 11       		.byte	0x11
 3442 07e5 51       		.byte	0x51
 3443 07e6 EC070000 		.4byte	0x7ec
 3444 07ea 00       		.byte	0
 3445 07eb 00       		.byte	0
 3446 07ec 0A       		.uleb128 0xa
 3447 07ed 04       		.byte	0x4
 3448 07ee F2070000 		.4byte	0x7f2
 3449 07f2 17       		.uleb128 0x17
 3450 07f3 1C070000 		.4byte	0x71c
 3451 07f7 03       		.uleb128 0x3
 3452 07f8 E6030000 		.4byte	.LASF102
 3453 07fc 11       		.byte	0x11
 3454 07fd 53       		.byte	0x53
 3455 07fe D7070000 		.4byte	0x7d7
 3456 0802 04       		.uleb128 0x4
 3457 0803 01       		.byte	0x1
 3458 0804 02       		.byte	0x2
 3459 0805 82030000 		.4byte	.LASF103
 3460 0809 19       		.uleb128 0x19
ARM GAS  /tmp/ccVf3EPN.s 			page 125


 3461 080a 10       		.byte	0x10
 3462 080b 12       		.byte	0x12
 3463 080c 3D       		.byte	0x3d
 3464 080d 42080000 		.4byte	0x842
 3465 0811 06       		.uleb128 0x6
 3466 0812 BE050000 		.4byte	.LASF33
 3467 0816 12       		.byte	0x12
 3468 0817 3E       		.byte	0x3e
 3469 0818 E8060000 		.4byte	0x6e8
 3470 081c 00       		.byte	0
 3471 081d 06       		.uleb128 0x6
 3472 081e 3B060000 		.4byte	.LASF104
 3473 0822 12       		.byte	0x12
 3474 0823 3F       		.byte	0x3f
 3475 0824 43080000 		.4byte	0x843
 3476 0828 04       		.byte	0x4
 3477 0829 06       		.uleb128 0x6
 3478 082a CD040000 		.4byte	.LASF105
 3479 082e 12       		.byte	0x12
 3480 082f 40       		.byte	0x40
 3481 0830 43080000 		.4byte	0x843
 3482 0834 08       		.byte	0x8
 3483 0835 06       		.uleb128 0x6
 3484 0836 83040000 		.4byte	.LASF106
 3485 083a 12       		.byte	0x12
 3486 083b 41       		.byte	0x41
 3487 083c 43080000 		.4byte	0x843
 3488 0840 0C       		.byte	0xc
 3489 0841 00       		.byte	0
 3490 0842 1A       		.uleb128 0x1a
 3491 0843 0A       		.uleb128 0xa
 3492 0844 04       		.byte	0x4
 3493 0845 42080000 		.4byte	0x842
 3494 0849 03       		.uleb128 0x3
 3495 084a 85000000 		.4byte	.LASF107
 3496 084e 12       		.byte	0x12
 3497 084f 42       		.byte	0x42
 3498 0850 09080000 		.4byte	0x809
 3499 0854 1B       		.uleb128 0x1b
 3500 0855 5E030000 		.4byte	.LASF108
 3501 0859 04       		.byte	0x4
 3502 085a 45       		.byte	0x45
 3503 085b 03       		.byte	0x3
 3504 085c 1B       		.uleb128 0x1b
 3505 085d 5B050000 		.4byte	.LASF109
 3506 0861 04       		.byte	0x4
 3507 0862 3A       		.byte	0x3a
 3508 0863 03       		.byte	0x3
 3509 0864 1C       		.uleb128 0x1c
 3510 0865 AD020000 		.4byte	.LASF112
 3511 0869 02       		.byte	0x2
 3512 086a 8B       		.byte	0x8b
 3513 086b 31010000 		.4byte	0x131
 3514 086f 03       		.byte	0x3
 3515 0870 1D       		.uleb128 0x1d
 3516 0871 0B010000 		.4byte	.LASF110
 3517 0875 0D       		.byte	0xd
ARM GAS  /tmp/ccVf3EPN.s 			page 126


 3518 0876 7301     		.2byte	0x173
 3519 0878 03       		.byte	0x3
 3520 0879 1D       		.uleb128 0x1d
 3521 087a E0060000 		.4byte	.LASF111
 3522 087e 0D       		.byte	0xd
 3523 087f 7C01     		.2byte	0x17c
 3524 0881 03       		.byte	0x3
 3525 0882 1C       		.uleb128 0x1c
 3526 0883 BD030000 		.4byte	.LASF113
 3527 0887 13       		.byte	0x13
 3528 0888 69       		.byte	0x69
 3529 0889 31010000 		.4byte	0x131
 3530 088d 03       		.byte	0x3
 3531 088e 1D       		.uleb128 0x1d
 3532 088f DC030000 		.4byte	.LASF114
 3533 0893 14       		.byte	0x14
 3534 0894 7601     		.2byte	0x176
 3535 0896 03       		.byte	0x3
 3536 0897 1E       		.uleb128 0x1e
 3537 0898 01030000 		.4byte	.LASF131
 3538 089c 14       		.byte	0x14
 3539 089d 8201     		.2byte	0x182
 3540 089f 03       		.byte	0x3
 3541 08a0 B2080000 		.4byte	0x8b2
 3542 08a4 1F       		.uleb128 0x1f
 3543 08a5 B0050000 		.4byte	.LASF125
 3544 08a9 C2080000 		.4byte	0x8c2
 3545 08ad 01030000 		.4byte	.LASF131
 3546 08b1 00       		.byte	0
 3547 08b2 10       		.uleb128 0x10
 3548 08b3 F3060000 		.4byte	0x6f3
 3549 08b7 C2080000 		.4byte	0x8c2
 3550 08bb 11       		.uleb128 0x11
 3551 08bc 29040000 		.4byte	0x429
 3552 08c0 0B       		.byte	0xb
 3553 08c1 00       		.byte	0
 3554 08c2 17       		.uleb128 0x17
 3555 08c3 B2080000 		.4byte	0x8b2
 3556 08c7 1C       		.uleb128 0x1c
 3557 08c8 AB000000 		.4byte	.LASF115
 3558 08cc 03       		.byte	0x3
 3559 08cd E4       		.byte	0xe4
 3560 08ce 31010000 		.4byte	0x131
 3561 08d2 03       		.byte	0x3
 3562 08d3 20       		.uleb128 0x20
 3563 08d4 24000000 		.4byte	.LASF120
 3564 08d8 03       		.byte	0x3
 3565 08d9 1C01     		.2byte	0x11c
 3566 08db 02080000 		.4byte	0x802
 3567 08df 03       		.byte	0x3
 3568 08e0 09090000 		.4byte	0x909
 3569 08e4 21       		.uleb128 0x21
 3570 08e5 0D030000 		.4byte	.LASF116
 3571 08e9 03       		.byte	0x3
 3572 08ea 1C01     		.2byte	0x11c
 3573 08ec 31010000 		.4byte	0x131
 3574 08f0 21       		.uleb128 0x21
ARM GAS  /tmp/ccVf3EPN.s 			page 127


 3575 08f1 C3050000 		.4byte	.LASF117
 3576 08f5 03       		.byte	0x3
 3577 08f6 1D01     		.2byte	0x11d
 3578 08f8 31010000 		.4byte	0x131
 3579 08fc 22       		.uleb128 0x22
 3580 08fd 656E6400 		.ascii	"end\000"
 3581 0901 03       		.byte	0x3
 3582 0902 1E01     		.2byte	0x11e
 3583 0904 31010000 		.4byte	0x131
 3584 0908 00       		.byte	0
 3585 0909 1B       		.uleb128 0x1b
 3586 090a 71070000 		.4byte	.LASF118
 3587 090e 01       		.byte	0x1
 3588 090f 41       		.byte	0x41
 3589 0910 01       		.byte	0x1
 3590 0911 23       		.uleb128 0x23
 3591 0912 D4020000 		.4byte	.LASF122
 3592 0916 01       		.byte	0x1
 3593 0917 66       		.byte	0x66
 3594 0918 02080000 		.4byte	0x802
 3595 091c 01       		.byte	0x1
 3596 091d 2D090000 		.4byte	0x92d
 3597 0921 24       		.uleb128 0x24
 3598 0922 6D736700 		.ascii	"msg\000"
 3599 0926 01       		.byte	0x1
 3600 0927 66       		.byte	0x66
 3601 0928 E8060000 		.4byte	0x6e8
 3602 092c 00       		.byte	0
 3603 092d 25       		.uleb128 0x25
 3604 092e 81020000 		.4byte	.LASF119
 3605 0932 05       		.byte	0x5
 3606 0933 6802     		.2byte	0x268
 3607 0935 31010000 		.4byte	0x131
 3608 0939 03       		.byte	0x3
 3609 093a 20       		.uleb128 0x20
 3610 093b C0020000 		.4byte	.LASF121
 3611 093f 05       		.byte	0x5
 3612 0940 7B02     		.2byte	0x27b
 3613 0942 02080000 		.4byte	0x802
 3614 0946 03       		.byte	0x3
 3615 0947 70090000 		.4byte	0x970
 3616 094b 21       		.uleb128 0x21
 3617 094c 0D030000 		.4byte	.LASF116
 3618 0950 05       		.byte	0x5
 3619 0951 7B02     		.2byte	0x27b
 3620 0953 31010000 		.4byte	0x131
 3621 0957 21       		.uleb128 0x21
 3622 0958 C3050000 		.4byte	.LASF117
 3623 095c 05       		.byte	0x5
 3624 095d 7C02     		.2byte	0x27c
 3625 095f 31010000 		.4byte	0x131
 3626 0963 22       		.uleb128 0x22
 3627 0964 656E6400 		.ascii	"end\000"
 3628 0968 05       		.byte	0x5
 3629 0969 7D02     		.2byte	0x27d
 3630 096b 31010000 		.4byte	0x131
 3631 096f 00       		.byte	0
ARM GAS  /tmp/ccVf3EPN.s 			page 128


 3632 0970 23       		.uleb128 0x23
 3633 0971 29010000 		.4byte	.LASF123
 3634 0975 01       		.byte	0x1
 3635 0976 6E       		.byte	0x6e
 3636 0977 02080000 		.4byte	0x802
 3637 097b 01       		.byte	0x1
 3638 097c 97090000 		.4byte	0x997
 3639 0980 26       		.uleb128 0x26
 3640 0981 22070000 		.4byte	.LASF124
 3641 0985 01       		.byte	0x1
 3642 0986 6E       		.byte	0x6e
 3643 0987 02080000 		.4byte	0x802
 3644 098b 24       		.uleb128 0x24
 3645 098c 6D736700 		.ascii	"msg\000"
 3646 0990 01       		.byte	0x1
 3647 0991 6E       		.byte	0x6e
 3648 0992 E8060000 		.4byte	0x6e8
 3649 0996 00       		.byte	0
 3650 0997 27       		.uleb128 0x27
 3651 0998 F9050000 		.4byte	.LASF126
 3652 099c 01       		.byte	0x1
 3653 099d 94       		.byte	0x94
 3654 099e 01       		.byte	0x1
 3655 099f C1090000 		.4byte	0x9c1
 3656 09a3 24       		.uleb128 0x24
 3657 09a4 6E00     		.ascii	"n\000"
 3658 09a6 01       		.byte	0x1
 3659 09a7 94       		.byte	0x94
 3660 09a8 CE000000 		.4byte	0xce
 3661 09ac 28       		.uleb128 0x28
 3662 09ad 62756600 		.ascii	"buf\000"
 3663 09b1 01       		.byte	0x1
 3664 09b2 95       		.byte	0x95
 3665 09b3 C1090000 		.4byte	0x9c1
 3666 09b7 28       		.uleb128 0x28
 3667 09b8 7000     		.ascii	"p\000"
 3668 09ba 01       		.byte	0x1
 3669 09bb 95       		.byte	0x95
 3670 09bc D1090000 		.4byte	0x9d1
 3671 09c0 00       		.byte	0
 3672 09c1 10       		.uleb128 0x10
 3673 09c2 F3060000 		.4byte	0x6f3
 3674 09c6 D1090000 		.4byte	0x9d1
 3675 09ca 11       		.uleb128 0x11
 3676 09cb 29040000 		.4byte	0x429
 3677 09cf 0F       		.byte	0xf
 3678 09d0 00       		.byte	0
 3679 09d1 0A       		.uleb128 0xa
 3680 09d2 04       		.byte	0x4
 3681 09d3 F3060000 		.4byte	0x6f3
 3682 09d7 27       		.uleb128 0x27
 3683 09d8 D1030000 		.4byte	.LASF127
 3684 09dc 01       		.byte	0x1
 3685 09dd A9       		.byte	0xa9
 3686 09de 01       		.byte	0x1
 3687 09df EF090000 		.4byte	0x9ef
 3688 09e3 26       		.uleb128 0x26
ARM GAS  /tmp/ccVf3EPN.s 			page 129


 3689 09e4 DB060000 		.4byte	.LASF128
 3690 09e8 01       		.byte	0x1
 3691 09e9 A9       		.byte	0xa9
 3692 09ea E8060000 		.4byte	0x6e8
 3693 09ee 00       		.byte	0
 3694 09ef 1D       		.uleb128 0x1d
 3695 09f0 0B060000 		.4byte	.LASF129
 3696 09f4 05       		.byte	0x5
 3697 09f5 EB01     		.2byte	0x1eb
 3698 09f7 03       		.byte	0x3
 3699 09f8 1D       		.uleb128 0x1d
 3700 09f9 15040000 		.4byte	.LASF130
 3701 09fd 05       		.byte	0x5
 3702 09fe F601     		.2byte	0x1f6
 3703 0a00 03       		.byte	0x3
 3704 0a01 1E       		.uleb128 0x1e
 3705 0a02 FB040000 		.4byte	.LASF132
 3706 0a06 05       		.byte	0x5
 3707 0a07 9F02     		.2byte	0x29f
 3708 0a09 03       		.byte	0x3
 3709 0a0a 1B0A0000 		.4byte	0xa1b
 3710 0a0e 21       		.uleb128 0x21
 3711 0a0f 0D030000 		.4byte	.LASF116
 3712 0a13 05       		.byte	0x5
 3713 0a14 9F02     		.2byte	0x29f
 3714 0a16 31010000 		.4byte	0x131
 3715 0a1a 00       		.byte	0
 3716 0a1b 29       		.uleb128 0x29
 3717 0a1c FB030000 		.4byte	.LASF155
 3718 0a20 01       		.byte	0x1
 3719 0a21 5A       		.byte	0x5a
 3720 0a22 00000000 		.4byte	.LFB182
 3721 0a26 2C000000 		.4byte	.LFE182-.LFB182
 3722 0a2a 01       		.uleb128 0x1
 3723 0a2b 9C       		.byte	0x9c
 3724 0a2c 620A0000 		.4byte	0xa62
 3725 0a30 2A       		.uleb128 0x2a
 3726 0a31 6900     		.ascii	"i\000"
 3727 0a33 01       		.byte	0x1
 3728 0a34 5B       		.byte	0x5b
 3729 0a35 37000000 		.4byte	0x37
 3730 0a39 00000000 		.4byte	.LLST0
 3731 0a3d 2B       		.uleb128 0x2b
 3732 0a3e 12000000 		.4byte	.LVL3
 3733 0a42 4D0A0000 		.4byte	0xa4d
 3734 0a46 2C       		.uleb128 0x2c
 3735 0a47 01       		.uleb128 0x1
 3736 0a48 51       		.byte	0x51
 3737 0a49 02       		.uleb128 0x2
 3738 0a4a 08       		.byte	0x8
 3739 0a4b 2D       		.byte	0x2d
 3740 0a4c 00       		.byte	0
 3741 0a4d 2D       		.uleb128 0x2d
 3742 0a4e 22000000 		.4byte	.LVL4
 3743 0a52 2C       		.uleb128 0x2c
 3744 0a53 01       		.uleb128 0x1
 3745 0a54 52       		.byte	0x52
ARM GAS  /tmp/ccVf3EPN.s 			page 130


 3746 0a55 01       		.uleb128 0x1
 3747 0a56 32       		.byte	0x32
 3748 0a57 2C       		.uleb128 0x2c
 3749 0a58 01       		.uleb128 0x1
 3750 0a59 51       		.byte	0x51
 3751 0a5a 05       		.uleb128 0x5
 3752 0a5b 03       		.byte	0x3
 3753 0a5c 00000000 		.4byte	.LC1
 3754 0a60 00       		.byte	0
 3755 0a61 00       		.byte	0
 3756 0a62 2E       		.uleb128 0x2e
 3757 0a63 11090000 		.4byte	0x911
 3758 0a67 00000000 		.4byte	.LFB183
 3759 0a6b 20000000 		.4byte	.LFE183-.LFB183
 3760 0a6f 01       		.uleb128 0x1
 3761 0a70 9C       		.byte	0x9c
 3762 0a71 7F0A0000 		.4byte	0xa7f
 3763 0a75 2F       		.uleb128 0x2f
 3764 0a76 21090000 		.4byte	0x921
 3765 0a7a 34000000 		.4byte	.LLST1
 3766 0a7e 00       		.byte	0
 3767 0a7f 2E       		.uleb128 0x2e
 3768 0a80 70090000 		.4byte	0x970
 3769 0a84 00000000 		.4byte	.LFB184
 3770 0a88 28000000 		.4byte	.LFE184-.LFB184
 3771 0a8c 01       		.uleb128 0x1
 3772 0a8d 9C       		.byte	0x9c
 3773 0a8e BC0A0000 		.4byte	0xabc
 3774 0a92 2F       		.uleb128 0x2f
 3775 0a93 80090000 		.4byte	0x980
 3776 0a97 56000000 		.4byte	.LLST2
 3777 0a9b 30       		.uleb128 0x30
 3778 0a9c 8B090000 		.4byte	0x98b
 3779 0aa0 01       		.uleb128 0x1
 3780 0aa1 51       		.byte	0x51
 3781 0aa2 31       		.uleb128 0x31
 3782 0aa3 11090000 		.4byte	0x911
 3783 0aa7 06000000 		.4byte	.LBB102
 3784 0aab 0E000000 		.4byte	.LBE102-.LBB102
 3785 0aaf 01       		.byte	0x1
 3786 0ab0 71       		.byte	0x71
 3787 0ab1 2F       		.uleb128 0x2f
 3788 0ab2 21090000 		.4byte	0x921
 3789 0ab6 77000000 		.4byte	.LLST3
 3790 0aba 00       		.byte	0
 3791 0abb 00       		.byte	0
 3792 0abc 32       		.uleb128 0x32
 3793 0abd 06070000 		.4byte	.LASF134
 3794 0ac1 01       		.byte	0x1
 3795 0ac2 75       		.byte	0x75
 3796 0ac3 02080000 		.4byte	0x802
 3797 0ac7 00000000 		.4byte	.LFB185
 3798 0acb 58000000 		.4byte	.LFE185-.LFB185
 3799 0acf 01       		.uleb128 0x1
 3800 0ad0 9C       		.byte	0x9c
 3801 0ad1 2A0B0000 		.4byte	0xb2a
 3802 0ad5 33       		.uleb128 0x33
ARM GAS  /tmp/ccVf3EPN.s 			page 131


 3803 0ad6 C4040000 		.4byte	.LASF133
 3804 0ada 01       		.byte	0x1
 3805 0adb 75       		.byte	0x75
 3806 0adc D1090000 		.4byte	0x9d1
 3807 0ae0 8A000000 		.4byte	.LLST4
 3808 0ae4 34       		.uleb128 0x34
 3809 0ae5 6D736700 		.ascii	"msg\000"
 3810 0ae9 01       		.byte	0x1
 3811 0aea 75       		.byte	0x75
 3812 0aeb E8060000 		.4byte	0x6e8
 3813 0aef E1000000 		.4byte	.LLST5
 3814 0af3 2A       		.uleb128 0x2a
 3815 0af4 637000   		.ascii	"cp\000"
 3816 0af7 01       		.byte	0x1
 3817 0af8 76       		.byte	0x76
 3818 0af9 D1090000 		.4byte	0x9d1
 3819 0afd FF000000 		.4byte	.LLST6
 3820 0b01 35       		.uleb128 0x35
 3821 0b02 09090000 		.4byte	0x909
 3822 0b06 28000000 		.4byte	.LBB104
 3823 0b0a 02000000 		.4byte	.LBE104-.LBB104
 3824 0b0e 01       		.byte	0x1
 3825 0b0f 80       		.byte	0x80
 3826 0b10 36       		.uleb128 0x36
 3827 0b11 11090000 		.4byte	0x911
 3828 0b15 2E000000 		.4byte	.LBB106
 3829 0b19 00000000 		.4byte	.Ldebug_ranges0+0
 3830 0b1d 01       		.byte	0x1
 3831 0b1e 7A       		.byte	0x7a
 3832 0b1f 2F       		.uleb128 0x2f
 3833 0b20 21090000 		.4byte	0x921
 3834 0b24 8A010000 		.4byte	.LLST7
 3835 0b28 00       		.byte	0
 3836 0b29 00       		.byte	0
 3837 0b2a 32       		.uleb128 0x32
 3838 0b2b 4A000000 		.4byte	.LASF135
 3839 0b2f 01       		.byte	0x1
 3840 0b30 85       		.byte	0x85
 3841 0b31 02080000 		.4byte	0x802
 3842 0b35 00000000 		.4byte	.LFB186
 3843 0b39 34000000 		.4byte	.LFE186-.LFB186
 3844 0b3d 01       		.uleb128 0x1
 3845 0b3e 9C       		.byte	0x9c
 3846 0b3f 3B0C0000 		.4byte	0xc3b
 3847 0b43 33       		.uleb128 0x33
 3848 0b44 C3050000 		.4byte	.LASF117
 3849 0b48 01       		.byte	0x1
 3850 0b49 85       		.byte	0x85
 3851 0b4a 31010000 		.4byte	0x131
 3852 0b4e 9D010000 		.4byte	.LLST8
 3853 0b52 34       		.uleb128 0x34
 3854 0b53 656E6400 		.ascii	"end\000"
 3855 0b57 01       		.byte	0x1
 3856 0b58 86       		.byte	0x86
 3857 0b59 31010000 		.4byte	0x131
 3858 0b5d BE010000 		.4byte	.LLST9
 3859 0b61 37       		.uleb128 0x37
ARM GAS  /tmp/ccVf3EPN.s 			page 132


 3860 0b62 6D736700 		.ascii	"msg\000"
 3861 0b66 01       		.byte	0x1
 3862 0b67 87       		.byte	0x87
 3863 0b68 E8060000 		.4byte	0x6e8
 3864 0b6c 01       		.uleb128 0x1
 3865 0b6d 52       		.byte	0x52
 3866 0b6e 38       		.uleb128 0x38
 3867 0b6f 2D090000 		.4byte	0x92d
 3868 0b73 00000000 		.4byte	.LBB110
 3869 0b77 18000000 		.4byte	.Ldebug_ranges0+0x18
 3870 0b7b 01       		.byte	0x1
 3871 0b7c 89       		.byte	0x89
 3872 0b7d B20B0000 		.4byte	0xbb2
 3873 0b81 39       		.uleb128 0x39
 3874 0b82 C7080000 		.4byte	0x8c7
 3875 0b86 00000000 		.4byte	.LBB111
 3876 0b8a 18000000 		.4byte	.Ldebug_ranges0+0x18
 3877 0b8e 05       		.byte	0x5
 3878 0b8f 6A02     		.2byte	0x26a
 3879 0b91 36       		.uleb128 0x36
 3880 0b92 82080000 		.4byte	0x882
 3881 0b96 00000000 		.4byte	.LBB112
 3882 0b9a 18000000 		.4byte	.Ldebug_ranges0+0x18
 3883 0b9e 03       		.byte	0x3
 3884 0b9f E9       		.byte	0xe9
 3885 0ba0 3A       		.uleb128 0x3a
 3886 0ba1 64080000 		.4byte	0x864
 3887 0ba5 00000000 		.4byte	.LBB113
 3888 0ba9 18000000 		.4byte	.Ldebug_ranges0+0x18
 3889 0bad 13       		.byte	0x13
 3890 0bae 6B       		.byte	0x6b
 3891 0baf 00       		.byte	0
 3892 0bb0 00       		.byte	0
 3893 0bb1 00       		.byte	0
 3894 0bb2 38       		.uleb128 0x38
 3895 0bb3 3A090000 		.4byte	0x93a
 3896 0bb7 02000000 		.4byte	.LBB119
 3897 0bbb 30000000 		.4byte	.Ldebug_ranges0+0x30
 3898 0bbf 01       		.byte	0x1
 3899 0bc0 89       		.byte	0x89
 3900 0bc1 050C0000 		.4byte	0xc05
 3901 0bc5 3B       		.uleb128 0x3b
 3902 0bc6 63090000 		.4byte	0x963
 3903 0bca 2F       		.uleb128 0x2f
 3904 0bcb 57090000 		.4byte	0x957
 3905 0bcf DF010000 		.4byte	.LLST10
 3906 0bd3 2F       		.uleb128 0x2f
 3907 0bd4 4B090000 		.4byte	0x94b
 3908 0bd8 F2010000 		.4byte	.LLST11
 3909 0bdc 39       		.uleb128 0x39
 3910 0bdd D3080000 		.4byte	0x8d3
 3911 0be1 02000000 		.4byte	.LBB120
 3912 0be5 30000000 		.4byte	.Ldebug_ranges0+0x30
 3913 0be9 05       		.byte	0x5
 3914 0bea 7F02     		.2byte	0x27f
 3915 0bec 3B       		.uleb128 0x3b
 3916 0bed FC080000 		.4byte	0x8fc
ARM GAS  /tmp/ccVf3EPN.s 			page 133


 3917 0bf1 2F       		.uleb128 0x2f
 3918 0bf2 F0080000 		.4byte	0x8f0
 3919 0bf6 DF010000 		.4byte	.LLST10
 3920 0bfa 2F       		.uleb128 0x2f
 3921 0bfb E4080000 		.4byte	0x8e4
 3922 0bff F2010000 		.4byte	.LLST11
 3923 0c03 00       		.byte	0
 3924 0c04 00       		.byte	0
 3925 0c05 36       		.uleb128 0x36
 3926 0c06 70090000 		.4byte	0x970
 3927 0c0a 06000000 		.4byte	.LBB125
 3928 0c0e 48000000 		.4byte	.Ldebug_ranges0+0x48
 3929 0c12 01       		.byte	0x1
 3930 0c13 89       		.byte	0x89
 3931 0c14 30       		.uleb128 0x30
 3932 0c15 8B090000 		.4byte	0x98b
 3933 0c19 01       		.uleb128 0x1
 3934 0c1a 52       		.byte	0x52
 3935 0c1b 3B       		.uleb128 0x3b
 3936 0c1c 80090000 		.4byte	0x980
 3937 0c20 36       		.uleb128 0x36
 3938 0c21 11090000 		.4byte	0x911
 3939 0c25 12000000 		.4byte	.LBB127
 3940 0c29 60000000 		.4byte	.Ldebug_ranges0+0x60
 3941 0c2d 01       		.byte	0x1
 3942 0c2e 71       		.byte	0x71
 3943 0c2f 2F       		.uleb128 0x2f
 3944 0c30 21090000 		.4byte	0x921
 3945 0c34 05020000 		.4byte	.LLST14
 3946 0c38 00       		.byte	0
 3947 0c39 00       		.byte	0
 3948 0c3a 00       		.byte	0
 3949 0c3b 3C       		.uleb128 0x3c
 3950 0c3c 97090000 		.4byte	0x997
 3951 0c40 00000000 		.4byte	.LFB187
 3952 0c44 74000000 		.4byte	.LFE187-.LFB187
 3953 0c48 01       		.uleb128 0x1
 3954 0c49 9C       		.byte	0x9c
 3955 0c4a A90C0000 		.4byte	0xca9
 3956 0c4e 2F       		.uleb128 0x2f
 3957 0c4f A3090000 		.4byte	0x9a3
 3958 0c53 18020000 		.4byte	.LLST15
 3959 0c57 3D       		.uleb128 0x3d
 3960 0c58 AC090000 		.4byte	0x9ac
 3961 0c5c 02       		.uleb128 0x2
 3962 0c5d 91       		.byte	0x91
 3963 0c5e 58       		.sleb128 -40
 3964 0c5f 3E       		.uleb128 0x3e
 3965 0c60 B7090000 		.4byte	0x9b7
 3966 0c64 57020000 		.4byte	.LLST16
 3967 0c68 3F       		.uleb128 0x3f
 3968 0c69 60000000 		.4byte	.LBB136
 3969 0c6d 14000000 		.4byte	.LBE136-.LBB136
 3970 0c71 9C0C0000 		.4byte	0xc9c
 3971 0c75 40       		.uleb128 0x40
 3972 0c76 A3090000 		.4byte	0x9a3
 3973 0c7a 00       		.byte	0
ARM GAS  /tmp/ccVf3EPN.s 			page 134


 3974 0c7b 41       		.uleb128 0x41
 3975 0c7c 60000000 		.4byte	.LBB137
 3976 0c80 14000000 		.4byte	.LBE137-.LBB137
 3977 0c84 42       		.uleb128 0x42
 3978 0c85 AC090000 		.4byte	0x9ac
 3979 0c89 42       		.uleb128 0x42
 3980 0c8a B7090000 		.4byte	0x9b7
 3981 0c8e 2D       		.uleb128 0x2d
 3982 0c8f 6C000000 		.4byte	.LVL44
 3983 0c93 2C       		.uleb128 0x2c
 3984 0c94 01       		.uleb128 0x1
 3985 0c95 51       		.byte	0x51
 3986 0c96 02       		.uleb128 0x2
 3987 0c97 08       		.byte	0x8
 3988 0c98 30       		.byte	0x30
 3989 0c99 00       		.byte	0
 3990 0c9a 00       		.byte	0
 3991 0c9b 00       		.byte	0
 3992 0c9c 2D       		.uleb128 0x2d
 3993 0c9d 54000000 		.4byte	.LVL40
 3994 0ca1 2C       		.uleb128 0x2c
 3995 0ca2 01       		.uleb128 0x1
 3996 0ca3 51       		.byte	0x51
 3997 0ca4 02       		.uleb128 0x2
 3998 0ca5 76       		.byte	0x76
 3999 0ca6 00       		.sleb128 0
 4000 0ca7 00       		.byte	0
 4001 0ca8 00       		.byte	0
 4002 0ca9 3C       		.uleb128 0x3c
 4003 0caa D7090000 		.4byte	0x9d7
 4004 0cae 00000000 		.4byte	.LFB188
 4005 0cb2 24000000 		.4byte	.LFE188-.LFB188
 4006 0cb6 01       		.uleb128 0x1
 4007 0cb7 9C       		.byte	0x9c
 4008 0cb8 C60C0000 		.4byte	0xcc6
 4009 0cbc 2F       		.uleb128 0x2f
 4010 0cbd E3090000 		.4byte	0x9e3
 4011 0cc1 BF020000 		.4byte	.LLST17
 4012 0cc5 00       		.byte	0
 4013 0cc6 43       		.uleb128 0x43
 4014 0cc7 6A060000 		.4byte	.LASF136
 4015 0ccb 01       		.byte	0x1
 4016 0ccc B6       		.byte	0xb6
 4017 0ccd 00000000 		.4byte	.LFB189
 4018 0cd1 34000000 		.4byte	.LFE189-.LFB189
 4019 0cd5 01       		.uleb128 0x1
 4020 0cd6 9C       		.byte	0x9c
 4021 0cd7 1C0D0000 		.4byte	0xd1c
 4022 0cdb 33       		.uleb128 0x33
 4023 0cdc DB060000 		.4byte	.LASF128
 4024 0ce0 01       		.byte	0x1
 4025 0ce1 B6       		.byte	0xb6
 4026 0ce2 E8060000 		.4byte	0x6e8
 4027 0ce6 DD020000 		.4byte	.LLST18
 4028 0cea 38       		.uleb128 0x38
 4029 0ceb D7090000 		.4byte	0x9d7
 4030 0cef 02000000 		.4byte	.LBB138
ARM GAS  /tmp/ccVf3EPN.s 			page 135


 4031 0cf3 78000000 		.4byte	.Ldebug_ranges0+0x78
 4032 0cf7 01       		.byte	0x1
 4033 0cf8 B8       		.byte	0xb8
 4034 0cf9 070D0000 		.4byte	0xd07
 4035 0cfd 2F       		.uleb128 0x2f
 4036 0cfe E3090000 		.4byte	0x9e3
 4037 0d02 FE020000 		.4byte	.LLST19
 4038 0d06 00       		.byte	0
 4039 0d07 2D       		.uleb128 0x2d
 4040 0d08 28000000 		.4byte	.LVL54
 4041 0d0c 2C       		.uleb128 0x2c
 4042 0d0d 01       		.uleb128 0x1
 4043 0d0e 52       		.byte	0x52
 4044 0d0f 01       		.uleb128 0x1
 4045 0d10 32       		.byte	0x32
 4046 0d11 2C       		.uleb128 0x2c
 4047 0d12 01       		.uleb128 0x1
 4048 0d13 51       		.byte	0x51
 4049 0d14 05       		.uleb128 0x5
 4050 0d15 03       		.byte	0x3
 4051 0d16 00000000 		.4byte	.LC1
 4052 0d1a 00       		.byte	0
 4053 0d1b 00       		.byte	0
 4054 0d1c 44       		.uleb128 0x44
 4055 0d1d BE000000 		.4byte	.LASF137
 4056 0d21 01       		.byte	0x1
 4057 0d22 C3       		.byte	0xc3
 4058 0d23 00000000 		.4byte	.LFB190
 4059 0d27 20000000 		.4byte	.LFE190-.LFB190
 4060 0d2b 01       		.uleb128 0x1
 4061 0d2c 9C       		.byte	0x9c
 4062 0d2d D60D0000 		.4byte	0xdd6
 4063 0d31 45       		.uleb128 0x45
 4064 0d32 31050000 		.4byte	.LASF138
 4065 0d36 01       		.byte	0x1
 4066 0d37 C3       		.byte	0xc3
 4067 0d38 F3060000 		.4byte	0x6f3
 4068 0d3c 01       		.uleb128 0x1
 4069 0d3d 50       		.byte	0x50
 4070 0d3e 46       		.uleb128 0x46
 4071 0d3f EF090000 		.4byte	0x9ef
 4072 0d43 00000000 		.4byte	.LBB142
 4073 0d47 02000000 		.4byte	.LBE142-.LBB142
 4074 0d4b 01       		.byte	0x1
 4075 0d4c C5       		.byte	0xc5
 4076 0d4d 840D0000 		.4byte	0xd84
 4077 0d51 47       		.uleb128 0x47
 4078 0d52 8E080000 		.4byte	0x88e
 4079 0d56 00000000 		.4byte	.LBB143
 4080 0d5a 02000000 		.4byte	.LBE143-.LBB143
 4081 0d5e 05       		.byte	0x5
 4082 0d5f ED01     		.2byte	0x1ed
 4083 0d61 47       		.uleb128 0x47
 4084 0d62 70080000 		.4byte	0x870
 4085 0d66 00000000 		.4byte	.LBB144
 4086 0d6a 02000000 		.4byte	.LBE144-.LBB144
 4087 0d6e 14       		.byte	0x14
ARM GAS  /tmp/ccVf3EPN.s 			page 136


 4088 0d6f 7801     		.2byte	0x178
 4089 0d71 48       		.uleb128 0x48
 4090 0d72 54080000 		.4byte	0x854
 4091 0d76 00000000 		.4byte	.LBB145
 4092 0d7a 02000000 		.4byte	.LBE145-.LBB145
 4093 0d7e 0D       		.byte	0xd
 4094 0d7f 7501     		.2byte	0x175
 4095 0d81 00       		.byte	0
 4096 0d82 00       		.byte	0
 4097 0d83 00       		.byte	0
 4098 0d84 31       		.uleb128 0x31
 4099 0d85 F8090000 		.4byte	0x9f8
 4100 0d89 14000000 		.4byte	.LBB147
 4101 0d8d 02000000 		.4byte	.LBE147-.LBB147
 4102 0d91 01       		.byte	0x1
 4103 0d92 C8       		.byte	0xc8
 4104 0d93 47       		.uleb128 0x47
 4105 0d94 97080000 		.4byte	0x897
 4106 0d98 14000000 		.4byte	.LBB148
 4107 0d9c 02000000 		.4byte	.LBE148-.LBB148
 4108 0da0 05       		.byte	0x5
 4109 0da1 F801     		.2byte	0x1f8
 4110 0da3 41       		.uleb128 0x41
 4111 0da4 14000000 		.4byte	.LBB149
 4112 0da8 02000000 		.4byte	.LBE149-.LBB149
 4113 0dac 42       		.uleb128 0x42
 4114 0dad A4080000 		.4byte	0x8a4
 4115 0db1 47       		.uleb128 0x47
 4116 0db2 79080000 		.4byte	0x879
 4117 0db6 14000000 		.4byte	.LBB150
 4118 0dba 02000000 		.4byte	.LBE150-.LBB150
 4119 0dbe 14       		.byte	0x14
 4120 0dbf 8F01     		.2byte	0x18f
 4121 0dc1 48       		.uleb128 0x48
 4122 0dc2 5C080000 		.4byte	0x85c
 4123 0dc6 14000000 		.4byte	.LBB151
 4124 0dca 02000000 		.4byte	.LBE151-.LBB151
 4125 0dce 0D       		.byte	0xd
 4126 0dcf 7E01     		.2byte	0x17e
 4127 0dd1 00       		.byte	0
 4128 0dd2 00       		.byte	0
 4129 0dd3 00       		.byte	0
 4130 0dd4 00       		.byte	0
 4131 0dd5 00       		.byte	0
 4132 0dd6 44       		.uleb128 0x44
 4133 0dd7 AB030000 		.4byte	.LASF139
 4134 0ddb 01       		.byte	0x1
 4135 0ddc D2       		.byte	0xd2
 4136 0ddd 00000000 		.4byte	.LFB191
 4137 0de1 1C000000 		.4byte	.LFE191-.LFB191
 4138 0de5 01       		.uleb128 0x1
 4139 0de6 9C       		.byte	0x9c
 4140 0de7 F90D0000 		.4byte	0xdf9
 4141 0deb 45       		.uleb128 0x45
 4142 0dec 31050000 		.4byte	.LASF138
 4143 0df0 01       		.byte	0x1
 4144 0df1 D2       		.byte	0xd2
ARM GAS  /tmp/ccVf3EPN.s 			page 137


 4145 0df2 F3060000 		.4byte	0x6f3
 4146 0df6 01       		.uleb128 0x1
 4147 0df7 50       		.byte	0x50
 4148 0df8 00       		.byte	0
 4149 0df9 49       		.uleb128 0x49
 4150 0dfa 10000000 		.4byte	.LASF140
 4151 0dfe 01       		.byte	0x1
 4152 0dff 4D       		.byte	0x4d
 4153 0e00 01       		.byte	0x1
 4154 0e01 110E0000 		.4byte	0xe11
 4155 0e05 24       		.uleb128 0x24
 4156 0e06 74637000 		.ascii	"tcp\000"
 4157 0e0a 01       		.byte	0x1
 4158 0e0b 4D       		.byte	0x4d
 4159 0e0c 110E0000 		.4byte	0xe11
 4160 0e10 00       		.byte	0
 4161 0e11 0A       		.uleb128 0xa
 4162 0e12 04       		.byte	0x4
 4163 0e13 170E0000 		.4byte	0xe17
 4164 0e17 17       		.uleb128 0x17
 4165 0e18 49080000 		.4byte	0x849
 4166 0e1c 49       		.uleb128 0x49
 4167 0e1d A2060000 		.4byte	.LASF141
 4168 0e21 01       		.byte	0x1
 4169 0e22 46       		.byte	0x46
 4170 0e23 01       		.byte	0x1
 4171 0e24 330E0000 		.4byte	0xe33
 4172 0e28 28       		.uleb128 0x28
 4173 0e29 637000   		.ascii	"cp\000"
 4174 0e2c 01       		.byte	0x1
 4175 0e2d 47       		.byte	0x47
 4176 0e2e D1090000 		.4byte	0x9d1
 4177 0e32 00       		.byte	0
 4178 0e33 4A       		.uleb128 0x4a
 4179 0e34 5E040000 		.4byte	.LASF142
 4180 0e38 01       		.byte	0x1
 4181 0e39 E3       		.byte	0xe3
 4182 0e3a 10010000 		.4byte	0x110
 4183 0e3e 00000000 		.4byte	.LFB192
 4184 0e42 C4020000 		.4byte	.LFE192-.LFB192
 4185 0e46 01       		.uleb128 0x1
 4186 0e47 9C       		.byte	0x9c
 4187 0e48 D1110000 		.4byte	0x11d1
 4188 0e4c 33       		.uleb128 0x33
 4189 0e4d FF060000 		.4byte	.LASF143
 4190 0e51 01       		.byte	0x1
 4191 0e52 E3       		.byte	0xe3
 4192 0e53 D1110000 		.4byte	0x11d1
 4193 0e57 1C030000 		.4byte	.LLST20
 4194 0e5b 2A       		.uleb128 0x2a
 4195 0e5c 6900     		.ascii	"i\000"
 4196 0e5e 01       		.byte	0x1
 4197 0e5f E4       		.byte	0xe4
 4198 0e60 25000000 		.4byte	0x25
 4199 0e64 4C030000 		.4byte	.LLST21
 4200 0e68 2A       		.uleb128 0x2a
 4201 0e69 6A00     		.ascii	"j\000"
ARM GAS  /tmp/ccVf3EPN.s 			page 138


 4202 0e6b 01       		.byte	0x1
 4203 0e6c E4       		.byte	0xe4
 4204 0e6d 25000000 		.4byte	0x25
 4205 0e71 90030000 		.4byte	.LLST22
 4206 0e75 46       		.uleb128 0x46
 4207 0e76 D7090000 		.4byte	0x9d7
 4208 0e7a 26000000 		.4byte	.LBB185
 4209 0e7e 14000000 		.4byte	.LBE185-.LBB185
 4210 0e82 01       		.byte	0x1
 4211 0e83 EE       		.byte	0xee
 4212 0e84 920E0000 		.4byte	0xe92
 4213 0e88 2F       		.uleb128 0x2f
 4214 0e89 E3090000 		.4byte	0x9e3
 4215 0e8d D2030000 		.4byte	.LLST23
 4216 0e91 00       		.byte	0
 4217 0e92 46       		.uleb128 0x46
 4218 0e93 D7090000 		.4byte	0x9d7
 4219 0e97 42000000 		.4byte	.LBB187
 4220 0e9b 14000000 		.4byte	.LBE187-.LBB187
 4221 0e9f 01       		.byte	0x1
 4222 0ea0 F1       		.byte	0xf1
 4223 0ea1 AF0E0000 		.4byte	0xeaf
 4224 0ea5 2F       		.uleb128 0x2f
 4225 0ea6 E3090000 		.4byte	0x9e3
 4226 0eaa 0F040000 		.4byte	.LLST24
 4227 0eae 00       		.byte	0
 4228 0eaf 46       		.uleb128 0x46
 4229 0eb0 D7090000 		.4byte	0x9d7
 4230 0eb4 5C000000 		.4byte	.LBB189
 4231 0eb8 18000000 		.4byte	.LBE189-.LBB189
 4232 0ebc 01       		.byte	0x1
 4233 0ebd F5       		.byte	0xf5
 4234 0ebe CC0E0000 		.4byte	0xecc
 4235 0ec2 2F       		.uleb128 0x2f
 4236 0ec3 E3090000 		.4byte	0x9e3
 4237 0ec7 4C040000 		.4byte	.LLST25
 4238 0ecb 00       		.byte	0
 4239 0ecc 4B       		.uleb128 0x4b
 4240 0ecd F90D0000 		.4byte	0xdf9
 4241 0ed1 96000000 		.4byte	.LBB191
 4242 0ed5 90000000 		.4byte	.Ldebug_ranges0+0x90
 4243 0ed9 01       		.byte	0x1
 4244 0eda 0D01     		.2byte	0x10d
 4245 0edc F90E0000 		.4byte	0xef9
 4246 0ee0 2F       		.uleb128 0x2f
 4247 0ee1 050E0000 		.4byte	0xe05
 4248 0ee5 89040000 		.4byte	.LLST26
 4249 0ee9 3A       		.uleb128 0x3a
 4250 0eea 09090000 		.4byte	0x909
 4251 0eee 96000000 		.4byte	.LBB193
 4252 0ef2 B0000000 		.4byte	.Ldebug_ranges0+0xb0
 4253 0ef6 01       		.byte	0x1
 4254 0ef7 50       		.byte	0x50
 4255 0ef8 00       		.byte	0
 4256 0ef9 4B       		.uleb128 0x4b
 4257 0efa D7090000 		.4byte	0x9d7
 4258 0efe 9E000000 		.4byte	.LBB203
ARM GAS  /tmp/ccVf3EPN.s 			page 139


 4259 0f02 D8000000 		.4byte	.Ldebug_ranges0+0xd8
 4260 0f06 01       		.byte	0x1
 4261 0f07 1101     		.2byte	0x111
 4262 0f09 170F0000 		.4byte	0xf17
 4263 0f0d 2F       		.uleb128 0x2f
 4264 0f0e E3090000 		.4byte	0x9e3
 4265 0f12 A7040000 		.4byte	.LLST27
 4266 0f16 00       		.byte	0
 4267 0f17 4C       		.uleb128 0x4c
 4268 0f18 D7090000 		.4byte	0x9d7
 4269 0f1c B4000000 		.4byte	.LBB207
 4270 0f20 14000000 		.4byte	.LBE207-.LBB207
 4271 0f24 01       		.byte	0x1
 4272 0f25 0301     		.2byte	0x103
 4273 0f27 350F0000 		.4byte	0xf35
 4274 0f2b 2F       		.uleb128 0x2f
 4275 0f2c E3090000 		.4byte	0x9e3
 4276 0f30 E4040000 		.4byte	.LLST28
 4277 0f34 00       		.byte	0
 4278 0f35 4C       		.uleb128 0x4c
 4279 0f36 D7090000 		.4byte	0x9d7
 4280 0f3a CE000000 		.4byte	.LBB209
 4281 0f3e 0A000000 		.4byte	.LBE209-.LBB209
 4282 0f42 01       		.byte	0x1
 4283 0f43 0501     		.2byte	0x105
 4284 0f45 5B0F0000 		.4byte	0xf5b
 4285 0f49 3B       		.uleb128 0x3b
 4286 0f4a E3090000 		.4byte	0x9e3
 4287 0f4e 2D       		.uleb128 0x2d
 4288 0f4f D8000000 		.4byte	.LVL92
 4289 0f53 2C       		.uleb128 0x2c
 4290 0f54 01       		.uleb128 0x1
 4291 0f55 51       		.byte	0x51
 4292 0f56 02       		.uleb128 0x2
 4293 0f57 08       		.byte	0x8
 4294 0f58 2E       		.byte	0x2e
 4295 0f59 00       		.byte	0
 4296 0f5a 00       		.byte	0
 4297 0f5b 4C       		.uleb128 0x4c
 4298 0f5c D7090000 		.4byte	0x9d7
 4299 0f60 E6000000 		.4byte	.LBB211
 4300 0f64 14000000 		.4byte	.LBE211-.LBB211
 4301 0f68 01       		.byte	0x1
 4302 0f69 0701     		.2byte	0x107
 4303 0f6b 790F0000 		.4byte	0xf79
 4304 0f6f 2F       		.uleb128 0x2f
 4305 0f70 E3090000 		.4byte	0x9e3
 4306 0f74 21050000 		.4byte	.LLST30
 4307 0f78 00       		.byte	0
 4308 0f79 4C       		.uleb128 0x4c
 4309 0f7a D7090000 		.4byte	0x9d7
 4310 0f7e 02010000 		.4byte	.LBB213
 4311 0f82 16000000 		.4byte	.LBE213-.LBB213
 4312 0f86 01       		.byte	0x1
 4313 0f87 0801     		.2byte	0x108
 4314 0f89 970F0000 		.4byte	0xf97
 4315 0f8d 2F       		.uleb128 0x2f
ARM GAS  /tmp/ccVf3EPN.s 			page 140


 4316 0f8e E3090000 		.4byte	0x9e3
 4317 0f92 5E050000 		.4byte	.LLST31
 4318 0f96 00       		.byte	0
 4319 0f97 4C       		.uleb128 0x4c
 4320 0f98 010A0000 		.4byte	0xa01
 4321 0f9c 1E010000 		.4byte	.LBB215
 4322 0fa0 06000000 		.4byte	.LBE215-.LBB215
 4323 0fa4 01       		.byte	0x1
 4324 0fa5 0B01     		.2byte	0x10b
 4325 0fa7 C50F0000 		.4byte	0xfc5
 4326 0fab 2F       		.uleb128 0x2f
 4327 0fac 0E0A0000 		.4byte	0xa0e
 4328 0fb0 71050000 		.4byte	.LLST32
 4329 0fb4 4D       		.uleb128 0x4d
 4330 0fb5 24010000 		.4byte	.LVL103
 4331 0fb9 7A120000 		.4byte	0x127a
 4332 0fbd 2C       		.uleb128 0x2c
 4333 0fbe 01       		.uleb128 0x1
 4334 0fbf 50       		.byte	0x50
 4335 0fc0 02       		.uleb128 0x2
 4336 0fc1 08       		.byte	0x8
 4337 0fc2 C8       		.byte	0xc8
 4338 0fc3 00       		.byte	0
 4339 0fc4 00       		.byte	0
 4340 0fc5 4C       		.uleb128 0x4c
 4341 0fc6 D7090000 		.4byte	0x9d7
 4342 0fca 5A010000 		.4byte	.LBB219
 4343 0fce 14000000 		.4byte	.LBE219-.LBB219
 4344 0fd2 01       		.byte	0x1
 4345 0fd3 0F01     		.2byte	0x10f
 4346 0fd5 E30F0000 		.4byte	0xfe3
 4347 0fd9 2F       		.uleb128 0x2f
 4348 0fda E3090000 		.4byte	0x9e3
 4349 0fde 93050000 		.4byte	.LLST33
 4350 0fe2 00       		.byte	0
 4351 0fe3 4C       		.uleb128 0x4c
 4352 0fe4 1C0E0000 		.4byte	0xe1c
 4353 0fe8 8C010000 		.4byte	.LBB222
 4354 0fec 20000000 		.4byte	.LBE222-.LBB222
 4355 0ff0 01       		.byte	0x1
 4356 0ff1 1201     		.2byte	0x112
 4357 0ff3 0B100000 		.4byte	0x100b
 4358 0ff7 41       		.uleb128 0x41
 4359 0ff8 8C010000 		.4byte	.LBB223
 4360 0ffc 20000000 		.4byte	.LBE223-.LBB223
 4361 1000 3E       		.uleb128 0x3e
 4362 1001 280E0000 		.4byte	0xe28
 4363 1005 C0050000 		.4byte	.LLST34
 4364 1009 00       		.byte	0
 4365 100a 00       		.byte	0
 4366 100b 4C       		.uleb128 0x4c
 4367 100c D7090000 		.4byte	0x9d7
 4368 1010 AE010000 		.4byte	.LBB225
 4369 1014 12000000 		.4byte	.LBE225-.LBB225
 4370 1018 01       		.byte	0x1
 4371 1019 1301     		.2byte	0x113
 4372 101b 29100000 		.4byte	0x1029
ARM GAS  /tmp/ccVf3EPN.s 			page 141


 4373 101f 2F       		.uleb128 0x2f
 4374 1020 E3090000 		.4byte	0x9e3
 4375 1024 13060000 		.4byte	.LLST35
 4376 1028 00       		.byte	0
 4377 1029 4C       		.uleb128 0x4c
 4378 102a D7090000 		.4byte	0x9d7
 4379 102e C4010000 		.4byte	.LBB227
 4380 1032 16000000 		.4byte	.LBE227-.LBB227
 4381 1036 01       		.byte	0x1
 4382 1037 1401     		.2byte	0x114
 4383 1039 47100000 		.4byte	0x1047
 4384 103d 2F       		.uleb128 0x2f
 4385 103e E3090000 		.4byte	0x9e3
 4386 1042 40060000 		.4byte	.LLST36
 4387 1046 00       		.byte	0
 4388 1047 4C       		.uleb128 0x4c
 4389 1048 D7090000 		.4byte	0x9d7
 4390 104c 0A020000 		.4byte	.LBB229
 4391 1050 14000000 		.4byte	.LBE229-.LBB229
 4392 1054 01       		.byte	0x1
 4393 1055 1F01     		.2byte	0x11f
 4394 1057 65100000 		.4byte	0x1065
 4395 105b 2F       		.uleb128 0x2f
 4396 105c E3090000 		.4byte	0x9e3
 4397 1060 53060000 		.4byte	.LLST37
 4398 1064 00       		.byte	0
 4399 1065 4E       		.uleb128 0x4e
 4400 1066 18000000 		.4byte	.LVL60
 4401 106a C60C0000 		.4byte	0xcc6
 4402 106e 7C100000 		.4byte	0x107c
 4403 1072 2C       		.uleb128 0x2c
 4404 1073 01       		.uleb128 0x1
 4405 1074 50       		.byte	0x50
 4406 1075 05       		.uleb128 0x5
 4407 1076 03       		.byte	0x3
 4408 1077 04000000 		.4byte	.LC32
 4409 107b 00       		.byte	0
 4410 107c 4E       		.uleb128 0x4e
 4411 107d 1E000000 		.4byte	.LVL61
 4412 1081 C60C0000 		.4byte	0xcc6
 4413 1085 93100000 		.4byte	0x1093
 4414 1089 2C       		.uleb128 0x2c
 4415 108a 01       		.uleb128 0x1
 4416 108b 50       		.byte	0x50
 4417 108c 05       		.uleb128 0x5
 4418 108d 03       		.byte	0x3
 4419 108e 08000000 		.4byte	.LC34
 4420 1092 00       		.byte	0
 4421 1093 4E       		.uleb128 0x4e
 4422 1094 24000000 		.4byte	.LVL62
 4423 1098 C60C0000 		.4byte	0xcc6
 4424 109c AA100000 		.4byte	0x10aa
 4425 10a0 2C       		.uleb128 0x2c
 4426 10a1 01       		.uleb128 0x1
 4427 10a2 50       		.byte	0x50
 4428 10a3 05       		.uleb128 0x5
 4429 10a4 03       		.byte	0x3
ARM GAS  /tmp/ccVf3EPN.s 			page 142


 4430 10a5 24000000 		.4byte	.LC36
 4431 10a9 00       		.byte	0
 4432 10aa 4E       		.uleb128 0x4e
 4433 10ab 40000000 		.4byte	.LVL67
 4434 10af C60C0000 		.4byte	0xcc6
 4435 10b3 C1100000 		.4byte	0x10c1
 4436 10b7 2C       		.uleb128 0x2c
 4437 10b8 01       		.uleb128 0x1
 4438 10b9 50       		.byte	0x50
 4439 10ba 05       		.uleb128 0x5
 4440 10bb 03       		.byte	0x3
 4441 10bc C0000000 		.4byte	.LC64
 4442 10c0 00       		.byte	0
 4443 10c1 4E       		.uleb128 0x4e
 4444 10c2 5C000000 		.4byte	.LVL73
 4445 10c6 C60C0000 		.4byte	0xcc6
 4446 10ca D8100000 		.4byte	0x10d8
 4447 10ce 2C       		.uleb128 0x2c
 4448 10cf 01       		.uleb128 0x1
 4449 10d0 50       		.byte	0x50
 4450 10d1 05       		.uleb128 0x5
 4451 10d2 03       		.byte	0x3
 4452 10d3 EC000000 		.4byte	.LC68
 4453 10d7 00       		.byte	0
 4454 10d8 4E       		.uleb128 0x4e
 4455 10d9 7C000000 		.4byte	.LVL79
 4456 10dd C60C0000 		.4byte	0xcc6
 4457 10e1 EF100000 		.4byte	0x10ef
 4458 10e5 2C       		.uleb128 0x2c
 4459 10e6 01       		.uleb128 0x1
 4460 10e7 50       		.byte	0x50
 4461 10e8 05       		.uleb128 0x5
 4462 10e9 03       		.byte	0x3
 4463 10ea 3C000000 		.4byte	.LC40
 4464 10ee 00       		.byte	0
 4465 10ef 4E       		.uleb128 0x4e
 4466 10f0 82000000 		.4byte	.LVL80
 4467 10f4 C60C0000 		.4byte	0xcc6
 4468 10f8 06110000 		.4byte	0x1106
 4469 10fc 2C       		.uleb128 0x2c
 4470 10fd 01       		.uleb128 0x1
 4471 10fe 50       		.byte	0x50
 4472 10ff 05       		.uleb128 0x5
 4473 1100 03       		.byte	0x3
 4474 1101 04000000 		.4byte	.LC32
 4475 1105 00       		.byte	0
 4476 1106 4F       		.uleb128 0x4f
 4477 1107 B2000000 		.4byte	.LVL85
 4478 110b 1B0A0000 		.4byte	0xa1b
 4479 110f 4E       		.uleb128 0x4e
 4480 1110 CE000000 		.4byte	.LVL90
 4481 1114 97090000 		.4byte	0x997
 4482 1118 23110000 		.4byte	0x1123
 4483 111c 2C       		.uleb128 0x2c
 4484 111d 01       		.uleb128 0x1
 4485 111e 50       		.byte	0x50
 4486 111f 02       		.uleb128 0x2
ARM GAS  /tmp/ccVf3EPN.s 			page 143


 4487 1120 7B       		.byte	0x7b
 4488 1121 00       		.sleb128 0
 4489 1122 00       		.byte	0
 4490 1123 4E       		.uleb128 0x4e
 4491 1124 E4000000 		.4byte	.LVL93
 4492 1128 97090000 		.4byte	0x997
 4493 112c 38110000 		.4byte	0x1138
 4494 1130 2C       		.uleb128 0x2c
 4495 1131 01       		.uleb128 0x1
 4496 1132 50       		.byte	0x50
 4497 1133 03       		.uleb128 0x3
 4498 1134 91       		.byte	0x91
 4499 1135 54       		.sleb128 -44
 4500 1136 06       		.byte	0x6
 4501 1137 00       		.byte	0
 4502 1138 4E       		.uleb128 0x4e
 4503 1139 1E010000 		.4byte	.LVL102
 4504 113d C60C0000 		.4byte	0xcc6
 4505 1141 4F110000 		.4byte	0x114f
 4506 1145 2C       		.uleb128 0x2c
 4507 1146 01       		.uleb128 0x1
 4508 1147 50       		.byte	0x50
 4509 1148 05       		.uleb128 0x5
 4510 1149 03       		.byte	0x3
 4511 114a 78000000 		.4byte	.LC46
 4512 114e 00       		.byte	0
 4513 114f 4F       		.uleb128 0x4f
 4514 1150 76010000 		.4byte	.LVL113
 4515 1154 97090000 		.4byte	0x997
 4516 1158 4E       		.uleb128 0x4e
 4517 1159 E0010000 		.4byte	.LVL134
 4518 115d C60C0000 		.4byte	0xcc6
 4519 1161 6F110000 		.4byte	0x116f
 4520 1165 2C       		.uleb128 0x2c
 4521 1166 01       		.uleb128 0x1
 4522 1167 50       		.byte	0x50
 4523 1168 05       		.uleb128 0x5
 4524 1169 03       		.byte	0x3
 4525 116a 98000000 		.4byte	.LC56
 4526 116e 00       		.byte	0
 4527 116f 4F       		.uleb128 0x4f
 4528 1170 02020000 		.4byte	.LVL139
 4529 1174 1B0A0000 		.4byte	0xa1b
 4530 1178 4E       		.uleb128 0x4e
 4531 1179 08020000 		.4byte	.LVL140
 4532 117d C60C0000 		.4byte	0xcc6
 4533 1181 8F110000 		.4byte	0x118f
 4534 1185 2C       		.uleb128 0x2c
 4535 1186 01       		.uleb128 0x1
 4536 1187 50       		.byte	0x50
 4537 1188 05       		.uleb128 0x5
 4538 1189 03       		.byte	0x3
 4539 118a 04000000 		.4byte	.LC32
 4540 118e 00       		.byte	0
 4541 118f 4E       		.uleb128 0x4e
 4542 1190 2C020000 		.4byte	.LVL145
 4543 1194 C60C0000 		.4byte	0xcc6
ARM GAS  /tmp/ccVf3EPN.s 			page 144


 4544 1198 A6110000 		.4byte	0x11a6
 4545 119c 2C       		.uleb128 0x2c
 4546 119d 01       		.uleb128 0x1
 4547 119e 50       		.byte	0x50
 4548 119f 05       		.uleb128 0x5
 4549 11a0 03       		.byte	0x3
 4550 11a1 B8000000 		.4byte	.LC62
 4551 11a5 00       		.byte	0
 4552 11a6 4E       		.uleb128 0x4e
 4553 11a7 44020000 		.4byte	.LVL148
 4554 11ab C60C0000 		.4byte	0xcc6
 4555 11af BD110000 		.4byte	0x11bd
 4556 11b3 2C       		.uleb128 0x2c
 4557 11b4 01       		.uleb128 0x1
 4558 11b5 50       		.byte	0x50
 4559 11b6 05       		.uleb128 0x5
 4560 11b7 03       		.byte	0x3
 4561 11b8 9C000000 		.4byte	.LC58
 4562 11bc 00       		.byte	0
 4563 11bd 4D       		.uleb128 0x4d
 4564 11be 4C020000 		.4byte	.LVL150
 4565 11c2 C60C0000 		.4byte	0xcc6
 4566 11c6 2C       		.uleb128 0x2c
 4567 11c7 01       		.uleb128 0x1
 4568 11c8 50       		.byte	0x50
 4569 11c9 05       		.uleb128 0x5
 4570 11ca 03       		.byte	0x3
 4571 11cb B0000000 		.4byte	.LC60
 4572 11cf 00       		.byte	0
 4573 11d0 00       		.byte	0
 4574 11d1 0A       		.uleb128 0xa
 4575 11d2 04       		.byte	0x4
 4576 11d3 F7070000 		.4byte	0x7f7
 4577 11d7 50       		.uleb128 0x50
 4578 11d8 AE040000 		.4byte	.LASF144
 4579 11dc 01       		.byte	0x1
 4580 11dd 37       		.byte	0x37
 4581 11de 02080000 		.4byte	0x802
 4582 11e2 05       		.uleb128 0x5
 4583 11e3 03       		.byte	0x3
 4584 11e4 00000000 		.4byte	test_local_fail
 4585 11e8 50       		.uleb128 0x50
 4586 11e9 E6040000 		.4byte	.LASF145
 4587 11ed 01       		.byte	0x1
 4588 11ee 38       		.byte	0x38
 4589 11ef E8060000 		.4byte	0x6e8
 4590 11f3 05       		.uleb128 0x5
 4591 11f4 03       		.byte	0x3
 4592 11f5 00000000 		.4byte	test_failure_message
 4593 11f9 50       		.uleb128 0x50
 4594 11fa EC060000 		.4byte	.LASF146
 4595 11fe 01       		.byte	0x1
 4596 11ff 39       		.byte	0x39
 4597 1200 C1090000 		.4byte	0x9c1
 4598 1204 05       		.uleb128 0x5
 4599 1205 03       		.byte	0x3
 4600 1206 00000000 		.4byte	test_tokens_buffer
ARM GAS  /tmp/ccVf3EPN.s 			page 145


 4601 120a 50       		.uleb128 0x50
 4602 120b 6C030000 		.4byte	.LASF147
 4603 120f 01       		.byte	0x1
 4604 1210 3A       		.byte	0x3a
 4605 1211 D1090000 		.4byte	0x9d1
 4606 1215 05       		.uleb128 0x5
 4607 1216 03       		.byte	0x3
 4608 1217 00000000 		.4byte	test_tokp
 4609 121b 50       		.uleb128 0x50
 4610 121c 73000000 		.4byte	.LASF148
 4611 1220 01       		.byte	0x1
 4612 1221 3B       		.byte	0x3b
 4613 1222 D1110000 		.4byte	0x11d1
 4614 1226 05       		.uleb128 0x5
 4615 1227 03       		.byte	0x3
 4616 1228 00000000 		.4byte	test_chp
 4617 122c 51       		.uleb128 0x51
 4618 122d 636800   		.ascii	"ch\000"
 4619 1230 0B       		.byte	0xb
 4620 1231 D201     		.2byte	0x1d2
 4621 1233 DC030000 		.4byte	0x3dc
 4622 1237 52       		.uleb128 0x52
 4623 1238 88030000 		.4byte	.LASF149
 4624 123c 01       		.byte	0x1
 4625 123d 28       		.byte	0x28
 4626 123e 37000000 		.4byte	0x37
 4627 1242 05       		.uleb128 0x5
 4628 1243 03       		.byte	0x3
 4629 1244 00000000 		.4byte	test_step
 4630 1248 52       		.uleb128 0x52
 4631 1249 DF020000 		.4byte	.LASF150
 4632 124d 01       		.byte	0x1
 4633 124e 2D       		.byte	0x2d
 4634 124f 02080000 		.4byte	0x802
 4635 1253 05       		.uleb128 0x5
 4636 1254 03       		.byte	0x3
 4637 1255 00000000 		.4byte	test_global_fail
 4638 1259 10       		.uleb128 0x10
 4639 125a 64120000 		.4byte	0x1264
 4640 125e 64120000 		.4byte	0x1264
 4641 1262 53       		.uleb128 0x53
 4642 1263 00       		.byte	0
 4643 1264 0A       		.uleb128 0xa
 4644 1265 04       		.byte	0x4
 4645 1266 6A120000 		.4byte	0x126a
 4646 126a 17       		.uleb128 0x17
 4647 126b 110E0000 		.4byte	0xe11
 4648 126f 54       		.uleb128 0x54
 4649 1270 4B040000 		.4byte	.LASF151
 4650 1274 15       		.byte	0x15
 4651 1275 2C       		.byte	0x2c
 4652 1276 59120000 		.4byte	0x1259
 4653 127a 55       		.uleb128 0x55
 4654 127b 3F000000 		.4byte	.LASF156
 4655 127f 16       		.byte	0x16
 4656 1280 0001     		.2byte	0x100
 4657 1282 0D       		.uleb128 0xd
ARM GAS  /tmp/ccVf3EPN.s 			page 146


 4658 1283 31010000 		.4byte	0x131
 4659 1287 00       		.byte	0
 4660 1288 00       		.byte	0
 4661              		.section	.debug_abbrev,"",%progbits
 4662              	.Ldebug_abbrev0:
 4663 0000 01       		.uleb128 0x1
 4664 0001 11       		.uleb128 0x11
 4665 0002 01       		.byte	0x1
 4666 0003 25       		.uleb128 0x25
 4667 0004 0E       		.uleb128 0xe
 4668 0005 13       		.uleb128 0x13
 4669 0006 0B       		.uleb128 0xb
 4670 0007 03       		.uleb128 0x3
 4671 0008 0E       		.uleb128 0xe
 4672 0009 1B       		.uleb128 0x1b
 4673 000a 0E       		.uleb128 0xe
 4674 000b 55       		.uleb128 0x55
 4675 000c 17       		.uleb128 0x17
 4676 000d 11       		.uleb128 0x11
 4677 000e 01       		.uleb128 0x1
 4678 000f 10       		.uleb128 0x10
 4679 0010 17       		.uleb128 0x17
 4680 0011 00       		.byte	0
 4681 0012 00       		.byte	0
 4682 0013 02       		.uleb128 0x2
 4683 0014 24       		.uleb128 0x24
 4684 0015 00       		.byte	0
 4685 0016 0B       		.uleb128 0xb
 4686 0017 0B       		.uleb128 0xb
 4687 0018 3E       		.uleb128 0x3e
 4688 0019 0B       		.uleb128 0xb
 4689 001a 03       		.uleb128 0x3
 4690 001b 08       		.uleb128 0x8
 4691 001c 00       		.byte	0
 4692 001d 00       		.byte	0
 4693 001e 03       		.uleb128 0x3
 4694 001f 16       		.uleb128 0x16
 4695 0020 00       		.byte	0
 4696 0021 03       		.uleb128 0x3
 4697 0022 0E       		.uleb128 0xe
 4698 0023 3A       		.uleb128 0x3a
 4699 0024 0B       		.uleb128 0xb
 4700 0025 3B       		.uleb128 0x3b
 4701 0026 0B       		.uleb128 0xb
 4702 0027 49       		.uleb128 0x49
 4703 0028 13       		.uleb128 0x13
 4704 0029 00       		.byte	0
 4705 002a 00       		.byte	0
 4706 002b 04       		.uleb128 0x4
 4707 002c 24       		.uleb128 0x24
 4708 002d 00       		.byte	0
 4709 002e 0B       		.uleb128 0xb
 4710 002f 0B       		.uleb128 0xb
 4711 0030 3E       		.uleb128 0x3e
 4712 0031 0B       		.uleb128 0xb
 4713 0032 03       		.uleb128 0x3
 4714 0033 0E       		.uleb128 0xe
ARM GAS  /tmp/ccVf3EPN.s 			page 147


 4715 0034 00       		.byte	0
 4716 0035 00       		.byte	0
 4717 0036 05       		.uleb128 0x5
 4718 0037 13       		.uleb128 0x13
 4719 0038 01       		.byte	0x1
 4720 0039 03       		.uleb128 0x3
 4721 003a 0E       		.uleb128 0xe
 4722 003b 0B       		.uleb128 0xb
 4723 003c 0B       		.uleb128 0xb
 4724 003d 3A       		.uleb128 0x3a
 4725 003e 0B       		.uleb128 0xb
 4726 003f 3B       		.uleb128 0x3b
 4727 0040 0B       		.uleb128 0xb
 4728 0041 01       		.uleb128 0x1
 4729 0042 13       		.uleb128 0x13
 4730 0043 00       		.byte	0
 4731 0044 00       		.byte	0
 4732 0045 06       		.uleb128 0x6
 4733 0046 0D       		.uleb128 0xd
 4734 0047 00       		.byte	0
 4735 0048 03       		.uleb128 0x3
 4736 0049 0E       		.uleb128 0xe
 4737 004a 3A       		.uleb128 0x3a
 4738 004b 0B       		.uleb128 0xb
 4739 004c 3B       		.uleb128 0x3b
 4740 004d 0B       		.uleb128 0xb
 4741 004e 49       		.uleb128 0x49
 4742 004f 13       		.uleb128 0x13
 4743 0050 38       		.uleb128 0x38
 4744 0051 0B       		.uleb128 0xb
 4745 0052 00       		.byte	0
 4746 0053 00       		.byte	0
 4747 0054 07       		.uleb128 0x7
 4748 0055 0D       		.uleb128 0xd
 4749 0056 00       		.byte	0
 4750 0057 03       		.uleb128 0x3
 4751 0058 08       		.uleb128 0x8
 4752 0059 3A       		.uleb128 0x3a
 4753 005a 0B       		.uleb128 0xb
 4754 005b 3B       		.uleb128 0x3b
 4755 005c 0B       		.uleb128 0xb
 4756 005d 49       		.uleb128 0x49
 4757 005e 13       		.uleb128 0x13
 4758 005f 38       		.uleb128 0x38
 4759 0060 0B       		.uleb128 0xb
 4760 0061 00       		.byte	0
 4761 0062 00       		.byte	0
 4762 0063 08       		.uleb128 0x8
 4763 0064 0D       		.uleb128 0xd
 4764 0065 00       		.byte	0
 4765 0066 03       		.uleb128 0x3
 4766 0067 08       		.uleb128 0x8
 4767 0068 3A       		.uleb128 0x3a
 4768 0069 0B       		.uleb128 0xb
 4769 006a 3B       		.uleb128 0x3b
 4770 006b 05       		.uleb128 0x5
 4771 006c 49       		.uleb128 0x49
ARM GAS  /tmp/ccVf3EPN.s 			page 148


 4772 006d 13       		.uleb128 0x13
 4773 006e 38       		.uleb128 0x38
 4774 006f 0B       		.uleb128 0xb
 4775 0070 00       		.byte	0
 4776 0071 00       		.byte	0
 4777 0072 09       		.uleb128 0x9
 4778 0073 0D       		.uleb128 0xd
 4779 0074 00       		.byte	0
 4780 0075 03       		.uleb128 0x3
 4781 0076 0E       		.uleb128 0xe
 4782 0077 3A       		.uleb128 0x3a
 4783 0078 0B       		.uleb128 0xb
 4784 0079 3B       		.uleb128 0x3b
 4785 007a 05       		.uleb128 0x5
 4786 007b 49       		.uleb128 0x49
 4787 007c 13       		.uleb128 0x13
 4788 007d 38       		.uleb128 0x38
 4789 007e 0B       		.uleb128 0xb
 4790 007f 00       		.byte	0
 4791 0080 00       		.byte	0
 4792 0081 0A       		.uleb128 0xa
 4793 0082 0F       		.uleb128 0xf
 4794 0083 00       		.byte	0
 4795 0084 0B       		.uleb128 0xb
 4796 0085 0B       		.uleb128 0xb
 4797 0086 49       		.uleb128 0x49
 4798 0087 13       		.uleb128 0x13
 4799 0088 00       		.byte	0
 4800 0089 00       		.byte	0
 4801 008a 0B       		.uleb128 0xb
 4802 008b 13       		.uleb128 0x13
 4803 008c 01       		.byte	0x1
 4804 008d 03       		.uleb128 0x3
 4805 008e 0E       		.uleb128 0xe
 4806 008f 0B       		.uleb128 0xb
 4807 0090 0B       		.uleb128 0xb
 4808 0091 3A       		.uleb128 0x3a
 4809 0092 0B       		.uleb128 0xb
 4810 0093 3B       		.uleb128 0x3b
 4811 0094 05       		.uleb128 0x5
 4812 0095 01       		.uleb128 0x1
 4813 0096 13       		.uleb128 0x13
 4814 0097 00       		.byte	0
 4815 0098 00       		.byte	0
 4816 0099 0C       		.uleb128 0xc
 4817 009a 15       		.uleb128 0x15
 4818 009b 01       		.byte	0x1
 4819 009c 27       		.uleb128 0x27
 4820 009d 19       		.uleb128 0x19
 4821 009e 01       		.uleb128 0x1
 4822 009f 13       		.uleb128 0x13
 4823 00a0 00       		.byte	0
 4824 00a1 00       		.byte	0
 4825 00a2 0D       		.uleb128 0xd
 4826 00a3 05       		.uleb128 0x5
 4827 00a4 00       		.byte	0
 4828 00a5 49       		.uleb128 0x49
ARM GAS  /tmp/ccVf3EPN.s 			page 149


 4829 00a6 13       		.uleb128 0x13
 4830 00a7 00       		.byte	0
 4831 00a8 00       		.byte	0
 4832 00a9 0E       		.uleb128 0xe
 4833 00aa 0F       		.uleb128 0xf
 4834 00ab 00       		.byte	0
 4835 00ac 0B       		.uleb128 0xb
 4836 00ad 0B       		.uleb128 0xb
 4837 00ae 00       		.byte	0
 4838 00af 00       		.byte	0
 4839 00b0 0F       		.uleb128 0xf
 4840 00b1 35       		.uleb128 0x35
 4841 00b2 00       		.byte	0
 4842 00b3 49       		.uleb128 0x49
 4843 00b4 13       		.uleb128 0x13
 4844 00b5 00       		.byte	0
 4845 00b6 00       		.byte	0
 4846 00b7 10       		.uleb128 0x10
 4847 00b8 01       		.uleb128 0x1
 4848 00b9 01       		.byte	0x1
 4849 00ba 49       		.uleb128 0x49
 4850 00bb 13       		.uleb128 0x13
 4851 00bc 01       		.uleb128 0x1
 4852 00bd 13       		.uleb128 0x13
 4853 00be 00       		.byte	0
 4854 00bf 00       		.byte	0
 4855 00c0 11       		.uleb128 0x11
 4856 00c1 21       		.uleb128 0x21
 4857 00c2 00       		.byte	0
 4858 00c3 49       		.uleb128 0x49
 4859 00c4 13       		.uleb128 0x13
 4860 00c5 2F       		.uleb128 0x2f
 4861 00c6 0B       		.uleb128 0xb
 4862 00c7 00       		.byte	0
 4863 00c8 00       		.byte	0
 4864 00c9 12       		.uleb128 0x12
 4865 00ca 13       		.uleb128 0x13
 4866 00cb 01       		.byte	0x1
 4867 00cc 0B       		.uleb128 0xb
 4868 00cd 0B       		.uleb128 0xb
 4869 00ce 3A       		.uleb128 0x3a
 4870 00cf 0B       		.uleb128 0xb
 4871 00d0 3B       		.uleb128 0x3b
 4872 00d1 05       		.uleb128 0x5
 4873 00d2 01       		.uleb128 0x1
 4874 00d3 13       		.uleb128 0x13
 4875 00d4 00       		.byte	0
 4876 00d5 00       		.byte	0
 4877 00d6 13       		.uleb128 0x13
 4878 00d7 16       		.uleb128 0x16
 4879 00d8 00       		.byte	0
 4880 00d9 03       		.uleb128 0x3
 4881 00da 0E       		.uleb128 0xe
 4882 00db 3A       		.uleb128 0x3a
 4883 00dc 0B       		.uleb128 0xb
 4884 00dd 3B       		.uleb128 0x3b
 4885 00de 05       		.uleb128 0x5
ARM GAS  /tmp/ccVf3EPN.s 			page 150


 4886 00df 49       		.uleb128 0x49
 4887 00e0 13       		.uleb128 0x13
 4888 00e1 00       		.byte	0
 4889 00e2 00       		.byte	0
 4890 00e3 14       		.uleb128 0x14
 4891 00e4 17       		.uleb128 0x17
 4892 00e5 01       		.byte	0x1
 4893 00e6 0B       		.uleb128 0xb
 4894 00e7 0B       		.uleb128 0xb
 4895 00e8 3A       		.uleb128 0x3a
 4896 00e9 0B       		.uleb128 0xb
 4897 00ea 3B       		.uleb128 0x3b
 4898 00eb 0B       		.uleb128 0xb
 4899 00ec 01       		.uleb128 0x1
 4900 00ed 13       		.uleb128 0x13
 4901 00ee 00       		.byte	0
 4902 00ef 00       		.byte	0
 4903 00f0 15       		.uleb128 0x15
 4904 00f1 0D       		.uleb128 0xd
 4905 00f2 00       		.byte	0
 4906 00f3 03       		.uleb128 0x3
 4907 00f4 0E       		.uleb128 0xe
 4908 00f5 3A       		.uleb128 0x3a
 4909 00f6 0B       		.uleb128 0xb
 4910 00f7 3B       		.uleb128 0x3b
 4911 00f8 0B       		.uleb128 0xb
 4912 00f9 49       		.uleb128 0x49
 4913 00fa 13       		.uleb128 0x13
 4914 00fb 00       		.byte	0
 4915 00fc 00       		.byte	0
 4916 00fd 16       		.uleb128 0x16
 4917 00fe 0D       		.uleb128 0xd
 4918 00ff 00       		.byte	0
 4919 0100 03       		.uleb128 0x3
 4920 0101 0E       		.uleb128 0xe
 4921 0102 3A       		.uleb128 0x3a
 4922 0103 0B       		.uleb128 0xb
 4923 0104 3B       		.uleb128 0x3b
 4924 0105 05       		.uleb128 0x5
 4925 0106 49       		.uleb128 0x49
 4926 0107 13       		.uleb128 0x13
 4927 0108 00       		.byte	0
 4928 0109 00       		.byte	0
 4929 010a 17       		.uleb128 0x17
 4930 010b 26       		.uleb128 0x26
 4931 010c 00       		.byte	0
 4932 010d 49       		.uleb128 0x49
 4933 010e 13       		.uleb128 0x13
 4934 010f 00       		.byte	0
 4935 0110 00       		.byte	0
 4936 0111 18       		.uleb128 0x18
 4937 0112 15       		.uleb128 0x15
 4938 0113 01       		.byte	0x1
 4939 0114 27       		.uleb128 0x27
 4940 0115 19       		.uleb128 0x19
 4941 0116 49       		.uleb128 0x49
 4942 0117 13       		.uleb128 0x13
ARM GAS  /tmp/ccVf3EPN.s 			page 151


 4943 0118 01       		.uleb128 0x1
 4944 0119 13       		.uleb128 0x13
 4945 011a 00       		.byte	0
 4946 011b 00       		.byte	0
 4947 011c 19       		.uleb128 0x19
 4948 011d 13       		.uleb128 0x13
 4949 011e 01       		.byte	0x1
 4950 011f 0B       		.uleb128 0xb
 4951 0120 0B       		.uleb128 0xb
 4952 0121 3A       		.uleb128 0x3a
 4953 0122 0B       		.uleb128 0xb
 4954 0123 3B       		.uleb128 0x3b
 4955 0124 0B       		.uleb128 0xb
 4956 0125 01       		.uleb128 0x1
 4957 0126 13       		.uleb128 0x13
 4958 0127 00       		.byte	0
 4959 0128 00       		.byte	0
 4960 0129 1A       		.uleb128 0x1a
 4961 012a 15       		.uleb128 0x15
 4962 012b 00       		.byte	0
 4963 012c 27       		.uleb128 0x27
 4964 012d 19       		.uleb128 0x19
 4965 012e 00       		.byte	0
 4966 012f 00       		.byte	0
 4967 0130 1B       		.uleb128 0x1b
 4968 0131 2E       		.uleb128 0x2e
 4969 0132 00       		.byte	0
 4970 0133 03       		.uleb128 0x3
 4971 0134 0E       		.uleb128 0xe
 4972 0135 3A       		.uleb128 0x3a
 4973 0136 0B       		.uleb128 0xb
 4974 0137 3B       		.uleb128 0x3b
 4975 0138 0B       		.uleb128 0xb
 4976 0139 27       		.uleb128 0x27
 4977 013a 19       		.uleb128 0x19
 4978 013b 20       		.uleb128 0x20
 4979 013c 0B       		.uleb128 0xb
 4980 013d 00       		.byte	0
 4981 013e 00       		.byte	0
 4982 013f 1C       		.uleb128 0x1c
 4983 0140 2E       		.uleb128 0x2e
 4984 0141 00       		.byte	0
 4985 0142 03       		.uleb128 0x3
 4986 0143 0E       		.uleb128 0xe
 4987 0144 3A       		.uleb128 0x3a
 4988 0145 0B       		.uleb128 0xb
 4989 0146 3B       		.uleb128 0x3b
 4990 0147 0B       		.uleb128 0xb
 4991 0148 27       		.uleb128 0x27
 4992 0149 19       		.uleb128 0x19
 4993 014a 49       		.uleb128 0x49
 4994 014b 13       		.uleb128 0x13
 4995 014c 20       		.uleb128 0x20
 4996 014d 0B       		.uleb128 0xb
 4997 014e 00       		.byte	0
 4998 014f 00       		.byte	0
 4999 0150 1D       		.uleb128 0x1d
ARM GAS  /tmp/ccVf3EPN.s 			page 152


 5000 0151 2E       		.uleb128 0x2e
 5001 0152 00       		.byte	0
 5002 0153 03       		.uleb128 0x3
 5003 0154 0E       		.uleb128 0xe
 5004 0155 3A       		.uleb128 0x3a
 5005 0156 0B       		.uleb128 0xb
 5006 0157 3B       		.uleb128 0x3b
 5007 0158 05       		.uleb128 0x5
 5008 0159 27       		.uleb128 0x27
 5009 015a 19       		.uleb128 0x19
 5010 015b 20       		.uleb128 0x20
 5011 015c 0B       		.uleb128 0xb
 5012 015d 00       		.byte	0
 5013 015e 00       		.byte	0
 5014 015f 1E       		.uleb128 0x1e
 5015 0160 2E       		.uleb128 0x2e
 5016 0161 01       		.byte	0x1
 5017 0162 03       		.uleb128 0x3
 5018 0163 0E       		.uleb128 0xe
 5019 0164 3A       		.uleb128 0x3a
 5020 0165 0B       		.uleb128 0xb
 5021 0166 3B       		.uleb128 0x3b
 5022 0167 05       		.uleb128 0x5
 5023 0168 27       		.uleb128 0x27
 5024 0169 19       		.uleb128 0x19
 5025 016a 20       		.uleb128 0x20
 5026 016b 0B       		.uleb128 0xb
 5027 016c 01       		.uleb128 0x1
 5028 016d 13       		.uleb128 0x13
 5029 016e 00       		.byte	0
 5030 016f 00       		.byte	0
 5031 0170 1F       		.uleb128 0x1f
 5032 0171 34       		.uleb128 0x34
 5033 0172 00       		.byte	0
 5034 0173 03       		.uleb128 0x3
 5035 0174 0E       		.uleb128 0xe
 5036 0175 49       		.uleb128 0x49
 5037 0176 13       		.uleb128 0x13
 5038 0177 34       		.uleb128 0x34
 5039 0178 19       		.uleb128 0x19
 5040 0179 1C       		.uleb128 0x1c
 5041 017a 0E       		.uleb128 0xe
 5042 017b 00       		.byte	0
 5043 017c 00       		.byte	0
 5044 017d 20       		.uleb128 0x20
 5045 017e 2E       		.uleb128 0x2e
 5046 017f 01       		.byte	0x1
 5047 0180 03       		.uleb128 0x3
 5048 0181 0E       		.uleb128 0xe
 5049 0182 3A       		.uleb128 0x3a
 5050 0183 0B       		.uleb128 0xb
 5051 0184 3B       		.uleb128 0x3b
 5052 0185 05       		.uleb128 0x5
 5053 0186 27       		.uleb128 0x27
 5054 0187 19       		.uleb128 0x19
 5055 0188 49       		.uleb128 0x49
 5056 0189 13       		.uleb128 0x13
ARM GAS  /tmp/ccVf3EPN.s 			page 153


 5057 018a 20       		.uleb128 0x20
 5058 018b 0B       		.uleb128 0xb
 5059 018c 01       		.uleb128 0x1
 5060 018d 13       		.uleb128 0x13
 5061 018e 00       		.byte	0
 5062 018f 00       		.byte	0
 5063 0190 21       		.uleb128 0x21
 5064 0191 05       		.uleb128 0x5
 5065 0192 00       		.byte	0
 5066 0193 03       		.uleb128 0x3
 5067 0194 0E       		.uleb128 0xe
 5068 0195 3A       		.uleb128 0x3a
 5069 0196 0B       		.uleb128 0xb
 5070 0197 3B       		.uleb128 0x3b
 5071 0198 05       		.uleb128 0x5
 5072 0199 49       		.uleb128 0x49
 5073 019a 13       		.uleb128 0x13
 5074 019b 00       		.byte	0
 5075 019c 00       		.byte	0
 5076 019d 22       		.uleb128 0x22
 5077 019e 05       		.uleb128 0x5
 5078 019f 00       		.byte	0
 5079 01a0 03       		.uleb128 0x3
 5080 01a1 08       		.uleb128 0x8
 5081 01a2 3A       		.uleb128 0x3a
 5082 01a3 0B       		.uleb128 0xb
 5083 01a4 3B       		.uleb128 0x3b
 5084 01a5 05       		.uleb128 0x5
 5085 01a6 49       		.uleb128 0x49
 5086 01a7 13       		.uleb128 0x13
 5087 01a8 00       		.byte	0
 5088 01a9 00       		.byte	0
 5089 01aa 23       		.uleb128 0x23
 5090 01ab 2E       		.uleb128 0x2e
 5091 01ac 01       		.byte	0x1
 5092 01ad 3F       		.uleb128 0x3f
 5093 01ae 19       		.uleb128 0x19
 5094 01af 03       		.uleb128 0x3
 5095 01b0 0E       		.uleb128 0xe
 5096 01b1 3A       		.uleb128 0x3a
 5097 01b2 0B       		.uleb128 0xb
 5098 01b3 3B       		.uleb128 0x3b
 5099 01b4 0B       		.uleb128 0xb
 5100 01b5 27       		.uleb128 0x27
 5101 01b6 19       		.uleb128 0x19
 5102 01b7 49       		.uleb128 0x49
 5103 01b8 13       		.uleb128 0x13
 5104 01b9 20       		.uleb128 0x20
 5105 01ba 0B       		.uleb128 0xb
 5106 01bb 01       		.uleb128 0x1
 5107 01bc 13       		.uleb128 0x13
 5108 01bd 00       		.byte	0
 5109 01be 00       		.byte	0
 5110 01bf 24       		.uleb128 0x24
 5111 01c0 05       		.uleb128 0x5
 5112 01c1 00       		.byte	0
 5113 01c2 03       		.uleb128 0x3
ARM GAS  /tmp/ccVf3EPN.s 			page 154


 5114 01c3 08       		.uleb128 0x8
 5115 01c4 3A       		.uleb128 0x3a
 5116 01c5 0B       		.uleb128 0xb
 5117 01c6 3B       		.uleb128 0x3b
 5118 01c7 0B       		.uleb128 0xb
 5119 01c8 49       		.uleb128 0x49
 5120 01c9 13       		.uleb128 0x13
 5121 01ca 00       		.byte	0
 5122 01cb 00       		.byte	0
 5123 01cc 25       		.uleb128 0x25
 5124 01cd 2E       		.uleb128 0x2e
 5125 01ce 00       		.byte	0
 5126 01cf 03       		.uleb128 0x3
 5127 01d0 0E       		.uleb128 0xe
 5128 01d1 3A       		.uleb128 0x3a
 5129 01d2 0B       		.uleb128 0xb
 5130 01d3 3B       		.uleb128 0x3b
 5131 01d4 05       		.uleb128 0x5
 5132 01d5 27       		.uleb128 0x27
 5133 01d6 19       		.uleb128 0x19
 5134 01d7 49       		.uleb128 0x49
 5135 01d8 13       		.uleb128 0x13
 5136 01d9 20       		.uleb128 0x20
 5137 01da 0B       		.uleb128 0xb
 5138 01db 00       		.byte	0
 5139 01dc 00       		.byte	0
 5140 01dd 26       		.uleb128 0x26
 5141 01de 05       		.uleb128 0x5
 5142 01df 00       		.byte	0
 5143 01e0 03       		.uleb128 0x3
 5144 01e1 0E       		.uleb128 0xe
 5145 01e2 3A       		.uleb128 0x3a
 5146 01e3 0B       		.uleb128 0xb
 5147 01e4 3B       		.uleb128 0x3b
 5148 01e5 0B       		.uleb128 0xb
 5149 01e6 49       		.uleb128 0x49
 5150 01e7 13       		.uleb128 0x13
 5151 01e8 00       		.byte	0
 5152 01e9 00       		.byte	0
 5153 01ea 27       		.uleb128 0x27
 5154 01eb 2E       		.uleb128 0x2e
 5155 01ec 01       		.byte	0x1
 5156 01ed 3F       		.uleb128 0x3f
 5157 01ee 19       		.uleb128 0x19
 5158 01ef 03       		.uleb128 0x3
 5159 01f0 0E       		.uleb128 0xe
 5160 01f1 3A       		.uleb128 0x3a
 5161 01f2 0B       		.uleb128 0xb
 5162 01f3 3B       		.uleb128 0x3b
 5163 01f4 0B       		.uleb128 0xb
 5164 01f5 27       		.uleb128 0x27
 5165 01f6 19       		.uleb128 0x19
 5166 01f7 20       		.uleb128 0x20
 5167 01f8 0B       		.uleb128 0xb
 5168 01f9 01       		.uleb128 0x1
 5169 01fa 13       		.uleb128 0x13
 5170 01fb 00       		.byte	0
ARM GAS  /tmp/ccVf3EPN.s 			page 155


 5171 01fc 00       		.byte	0
 5172 01fd 28       		.uleb128 0x28
 5173 01fe 34       		.uleb128 0x34
 5174 01ff 00       		.byte	0
 5175 0200 03       		.uleb128 0x3
 5176 0201 08       		.uleb128 0x8
 5177 0202 3A       		.uleb128 0x3a
 5178 0203 0B       		.uleb128 0xb
 5179 0204 3B       		.uleb128 0x3b
 5180 0205 0B       		.uleb128 0xb
 5181 0206 49       		.uleb128 0x49
 5182 0207 13       		.uleb128 0x13
 5183 0208 00       		.byte	0
 5184 0209 00       		.byte	0
 5185 020a 29       		.uleb128 0x29
 5186 020b 2E       		.uleb128 0x2e
 5187 020c 01       		.byte	0x1
 5188 020d 03       		.uleb128 0x3
 5189 020e 0E       		.uleb128 0xe
 5190 020f 3A       		.uleb128 0x3a
 5191 0210 0B       		.uleb128 0xb
 5192 0211 3B       		.uleb128 0x3b
 5193 0212 0B       		.uleb128 0xb
 5194 0213 27       		.uleb128 0x27
 5195 0214 19       		.uleb128 0x19
 5196 0215 11       		.uleb128 0x11
 5197 0216 01       		.uleb128 0x1
 5198 0217 12       		.uleb128 0x12
 5199 0218 06       		.uleb128 0x6
 5200 0219 40       		.uleb128 0x40
 5201 021a 18       		.uleb128 0x18
 5202 021b 9742     		.uleb128 0x2117
 5203 021d 19       		.uleb128 0x19
 5204 021e 01       		.uleb128 0x1
 5205 021f 13       		.uleb128 0x13
 5206 0220 00       		.byte	0
 5207 0221 00       		.byte	0
 5208 0222 2A       		.uleb128 0x2a
 5209 0223 34       		.uleb128 0x34
 5210 0224 00       		.byte	0
 5211 0225 03       		.uleb128 0x3
 5212 0226 08       		.uleb128 0x8
 5213 0227 3A       		.uleb128 0x3a
 5214 0228 0B       		.uleb128 0xb
 5215 0229 3B       		.uleb128 0x3b
 5216 022a 0B       		.uleb128 0xb
 5217 022b 49       		.uleb128 0x49
 5218 022c 13       		.uleb128 0x13
 5219 022d 02       		.uleb128 0x2
 5220 022e 17       		.uleb128 0x17
 5221 022f 00       		.byte	0
 5222 0230 00       		.byte	0
 5223 0231 2B       		.uleb128 0x2b
 5224 0232 898201   		.uleb128 0x4109
 5225 0235 01       		.byte	0x1
 5226 0236 11       		.uleb128 0x11
 5227 0237 01       		.uleb128 0x1
ARM GAS  /tmp/ccVf3EPN.s 			page 156


 5228 0238 01       		.uleb128 0x1
 5229 0239 13       		.uleb128 0x13
 5230 023a 00       		.byte	0
 5231 023b 00       		.byte	0
 5232 023c 2C       		.uleb128 0x2c
 5233 023d 8A8201   		.uleb128 0x410a
 5234 0240 00       		.byte	0
 5235 0241 02       		.uleb128 0x2
 5236 0242 18       		.uleb128 0x18
 5237 0243 9142     		.uleb128 0x2111
 5238 0245 18       		.uleb128 0x18
 5239 0246 00       		.byte	0
 5240 0247 00       		.byte	0
 5241 0248 2D       		.uleb128 0x2d
 5242 0249 898201   		.uleb128 0x4109
 5243 024c 01       		.byte	0x1
 5244 024d 11       		.uleb128 0x11
 5245 024e 01       		.uleb128 0x1
 5246 024f 00       		.byte	0
 5247 0250 00       		.byte	0
 5248 0251 2E       		.uleb128 0x2e
 5249 0252 2E       		.uleb128 0x2e
 5250 0253 01       		.byte	0x1
 5251 0254 31       		.uleb128 0x31
 5252 0255 13       		.uleb128 0x13
 5253 0256 11       		.uleb128 0x11
 5254 0257 01       		.uleb128 0x1
 5255 0258 12       		.uleb128 0x12
 5256 0259 06       		.uleb128 0x6
 5257 025a 40       		.uleb128 0x40
 5258 025b 18       		.uleb128 0x18
 5259 025c 9742     		.uleb128 0x2117
 5260 025e 19       		.uleb128 0x19
 5261 025f 01       		.uleb128 0x1
 5262 0260 13       		.uleb128 0x13
 5263 0261 00       		.byte	0
 5264 0262 00       		.byte	0
 5265 0263 2F       		.uleb128 0x2f
 5266 0264 05       		.uleb128 0x5
 5267 0265 00       		.byte	0
 5268 0266 31       		.uleb128 0x31
 5269 0267 13       		.uleb128 0x13
 5270 0268 02       		.uleb128 0x2
 5271 0269 17       		.uleb128 0x17
 5272 026a 00       		.byte	0
 5273 026b 00       		.byte	0
 5274 026c 30       		.uleb128 0x30
 5275 026d 05       		.uleb128 0x5
 5276 026e 00       		.byte	0
 5277 026f 31       		.uleb128 0x31
 5278 0270 13       		.uleb128 0x13
 5279 0271 02       		.uleb128 0x2
 5280 0272 18       		.uleb128 0x18
 5281 0273 00       		.byte	0
 5282 0274 00       		.byte	0
 5283 0275 31       		.uleb128 0x31
 5284 0276 1D       		.uleb128 0x1d
ARM GAS  /tmp/ccVf3EPN.s 			page 157


 5285 0277 01       		.byte	0x1
 5286 0278 31       		.uleb128 0x31
 5287 0279 13       		.uleb128 0x13
 5288 027a 11       		.uleb128 0x11
 5289 027b 01       		.uleb128 0x1
 5290 027c 12       		.uleb128 0x12
 5291 027d 06       		.uleb128 0x6
 5292 027e 58       		.uleb128 0x58
 5293 027f 0B       		.uleb128 0xb
 5294 0280 59       		.uleb128 0x59
 5295 0281 0B       		.uleb128 0xb
 5296 0282 00       		.byte	0
 5297 0283 00       		.byte	0
 5298 0284 32       		.uleb128 0x32
 5299 0285 2E       		.uleb128 0x2e
 5300 0286 01       		.byte	0x1
 5301 0287 3F       		.uleb128 0x3f
 5302 0288 19       		.uleb128 0x19
 5303 0289 03       		.uleb128 0x3
 5304 028a 0E       		.uleb128 0xe
 5305 028b 3A       		.uleb128 0x3a
 5306 028c 0B       		.uleb128 0xb
 5307 028d 3B       		.uleb128 0x3b
 5308 028e 0B       		.uleb128 0xb
 5309 028f 27       		.uleb128 0x27
 5310 0290 19       		.uleb128 0x19
 5311 0291 49       		.uleb128 0x49
 5312 0292 13       		.uleb128 0x13
 5313 0293 11       		.uleb128 0x11
 5314 0294 01       		.uleb128 0x1
 5315 0295 12       		.uleb128 0x12
 5316 0296 06       		.uleb128 0x6
 5317 0297 40       		.uleb128 0x40
 5318 0298 18       		.uleb128 0x18
 5319 0299 9742     		.uleb128 0x2117
 5320 029b 19       		.uleb128 0x19
 5321 029c 01       		.uleb128 0x1
 5322 029d 13       		.uleb128 0x13
 5323 029e 00       		.byte	0
 5324 029f 00       		.byte	0
 5325 02a0 33       		.uleb128 0x33
 5326 02a1 05       		.uleb128 0x5
 5327 02a2 00       		.byte	0
 5328 02a3 03       		.uleb128 0x3
 5329 02a4 0E       		.uleb128 0xe
 5330 02a5 3A       		.uleb128 0x3a
 5331 02a6 0B       		.uleb128 0xb
 5332 02a7 3B       		.uleb128 0x3b
 5333 02a8 0B       		.uleb128 0xb
 5334 02a9 49       		.uleb128 0x49
 5335 02aa 13       		.uleb128 0x13
 5336 02ab 02       		.uleb128 0x2
 5337 02ac 17       		.uleb128 0x17
 5338 02ad 00       		.byte	0
 5339 02ae 00       		.byte	0
 5340 02af 34       		.uleb128 0x34
 5341 02b0 05       		.uleb128 0x5
ARM GAS  /tmp/ccVf3EPN.s 			page 158


 5342 02b1 00       		.byte	0
 5343 02b2 03       		.uleb128 0x3
 5344 02b3 08       		.uleb128 0x8
 5345 02b4 3A       		.uleb128 0x3a
 5346 02b5 0B       		.uleb128 0xb
 5347 02b6 3B       		.uleb128 0x3b
 5348 02b7 0B       		.uleb128 0xb
 5349 02b8 49       		.uleb128 0x49
 5350 02b9 13       		.uleb128 0x13
 5351 02ba 02       		.uleb128 0x2
 5352 02bb 17       		.uleb128 0x17
 5353 02bc 00       		.byte	0
 5354 02bd 00       		.byte	0
 5355 02be 35       		.uleb128 0x35
 5356 02bf 1D       		.uleb128 0x1d
 5357 02c0 00       		.byte	0
 5358 02c1 31       		.uleb128 0x31
 5359 02c2 13       		.uleb128 0x13
 5360 02c3 11       		.uleb128 0x11
 5361 02c4 01       		.uleb128 0x1
 5362 02c5 12       		.uleb128 0x12
 5363 02c6 06       		.uleb128 0x6
 5364 02c7 58       		.uleb128 0x58
 5365 02c8 0B       		.uleb128 0xb
 5366 02c9 59       		.uleb128 0x59
 5367 02ca 0B       		.uleb128 0xb
 5368 02cb 00       		.byte	0
 5369 02cc 00       		.byte	0
 5370 02cd 36       		.uleb128 0x36
 5371 02ce 1D       		.uleb128 0x1d
 5372 02cf 01       		.byte	0x1
 5373 02d0 31       		.uleb128 0x31
 5374 02d1 13       		.uleb128 0x13
 5375 02d2 52       		.uleb128 0x52
 5376 02d3 01       		.uleb128 0x1
 5377 02d4 55       		.uleb128 0x55
 5378 02d5 17       		.uleb128 0x17
 5379 02d6 58       		.uleb128 0x58
 5380 02d7 0B       		.uleb128 0xb
 5381 02d8 59       		.uleb128 0x59
 5382 02d9 0B       		.uleb128 0xb
 5383 02da 00       		.byte	0
 5384 02db 00       		.byte	0
 5385 02dc 37       		.uleb128 0x37
 5386 02dd 05       		.uleb128 0x5
 5387 02de 00       		.byte	0
 5388 02df 03       		.uleb128 0x3
 5389 02e0 08       		.uleb128 0x8
 5390 02e1 3A       		.uleb128 0x3a
 5391 02e2 0B       		.uleb128 0xb
 5392 02e3 3B       		.uleb128 0x3b
 5393 02e4 0B       		.uleb128 0xb
 5394 02e5 49       		.uleb128 0x49
 5395 02e6 13       		.uleb128 0x13
 5396 02e7 02       		.uleb128 0x2
 5397 02e8 18       		.uleb128 0x18
 5398 02e9 00       		.byte	0
ARM GAS  /tmp/ccVf3EPN.s 			page 159


 5399 02ea 00       		.byte	0
 5400 02eb 38       		.uleb128 0x38
 5401 02ec 1D       		.uleb128 0x1d
 5402 02ed 01       		.byte	0x1
 5403 02ee 31       		.uleb128 0x31
 5404 02ef 13       		.uleb128 0x13
 5405 02f0 52       		.uleb128 0x52
 5406 02f1 01       		.uleb128 0x1
 5407 02f2 55       		.uleb128 0x55
 5408 02f3 17       		.uleb128 0x17
 5409 02f4 58       		.uleb128 0x58
 5410 02f5 0B       		.uleb128 0xb
 5411 02f6 59       		.uleb128 0x59
 5412 02f7 0B       		.uleb128 0xb
 5413 02f8 01       		.uleb128 0x1
 5414 02f9 13       		.uleb128 0x13
 5415 02fa 00       		.byte	0
 5416 02fb 00       		.byte	0
 5417 02fc 39       		.uleb128 0x39
 5418 02fd 1D       		.uleb128 0x1d
 5419 02fe 01       		.byte	0x1
 5420 02ff 31       		.uleb128 0x31
 5421 0300 13       		.uleb128 0x13
 5422 0301 52       		.uleb128 0x52
 5423 0302 01       		.uleb128 0x1
 5424 0303 55       		.uleb128 0x55
 5425 0304 17       		.uleb128 0x17
 5426 0305 58       		.uleb128 0x58
 5427 0306 0B       		.uleb128 0xb
 5428 0307 59       		.uleb128 0x59
 5429 0308 05       		.uleb128 0x5
 5430 0309 00       		.byte	0
 5431 030a 00       		.byte	0
 5432 030b 3A       		.uleb128 0x3a
 5433 030c 1D       		.uleb128 0x1d
 5434 030d 00       		.byte	0
 5435 030e 31       		.uleb128 0x31
 5436 030f 13       		.uleb128 0x13
 5437 0310 52       		.uleb128 0x52
 5438 0311 01       		.uleb128 0x1
 5439 0312 55       		.uleb128 0x55
 5440 0313 17       		.uleb128 0x17
 5441 0314 58       		.uleb128 0x58
 5442 0315 0B       		.uleb128 0xb
 5443 0316 59       		.uleb128 0x59
 5444 0317 0B       		.uleb128 0xb
 5445 0318 00       		.byte	0
 5446 0319 00       		.byte	0
 5447 031a 3B       		.uleb128 0x3b
 5448 031b 05       		.uleb128 0x5
 5449 031c 00       		.byte	0
 5450 031d 31       		.uleb128 0x31
 5451 031e 13       		.uleb128 0x13
 5452 031f 00       		.byte	0
 5453 0320 00       		.byte	0
 5454 0321 3C       		.uleb128 0x3c
 5455 0322 2E       		.uleb128 0x2e
ARM GAS  /tmp/ccVf3EPN.s 			page 160


 5456 0323 01       		.byte	0x1
 5457 0324 31       		.uleb128 0x31
 5458 0325 13       		.uleb128 0x13
 5459 0326 11       		.uleb128 0x11
 5460 0327 01       		.uleb128 0x1
 5461 0328 12       		.uleb128 0x12
 5462 0329 06       		.uleb128 0x6
 5463 032a 40       		.uleb128 0x40
 5464 032b 18       		.uleb128 0x18
 5465 032c 9642     		.uleb128 0x2116
 5466 032e 19       		.uleb128 0x19
 5467 032f 01       		.uleb128 0x1
 5468 0330 13       		.uleb128 0x13
 5469 0331 00       		.byte	0
 5470 0332 00       		.byte	0
 5471 0333 3D       		.uleb128 0x3d
 5472 0334 34       		.uleb128 0x34
 5473 0335 00       		.byte	0
 5474 0336 31       		.uleb128 0x31
 5475 0337 13       		.uleb128 0x13
 5476 0338 02       		.uleb128 0x2
 5477 0339 18       		.uleb128 0x18
 5478 033a 00       		.byte	0
 5479 033b 00       		.byte	0
 5480 033c 3E       		.uleb128 0x3e
 5481 033d 34       		.uleb128 0x34
 5482 033e 00       		.byte	0
 5483 033f 31       		.uleb128 0x31
 5484 0340 13       		.uleb128 0x13
 5485 0341 02       		.uleb128 0x2
 5486 0342 17       		.uleb128 0x17
 5487 0343 00       		.byte	0
 5488 0344 00       		.byte	0
 5489 0345 3F       		.uleb128 0x3f
 5490 0346 0B       		.uleb128 0xb
 5491 0347 01       		.byte	0x1
 5492 0348 11       		.uleb128 0x11
 5493 0349 01       		.uleb128 0x1
 5494 034a 12       		.uleb128 0x12
 5495 034b 06       		.uleb128 0x6
 5496 034c 01       		.uleb128 0x1
 5497 034d 13       		.uleb128 0x13
 5498 034e 00       		.byte	0
 5499 034f 00       		.byte	0
 5500 0350 40       		.uleb128 0x40
 5501 0351 05       		.uleb128 0x5
 5502 0352 00       		.byte	0
 5503 0353 31       		.uleb128 0x31
 5504 0354 13       		.uleb128 0x13
 5505 0355 1C       		.uleb128 0x1c
 5506 0356 0B       		.uleb128 0xb
 5507 0357 00       		.byte	0
 5508 0358 00       		.byte	0
 5509 0359 41       		.uleb128 0x41
 5510 035a 0B       		.uleb128 0xb
 5511 035b 01       		.byte	0x1
 5512 035c 11       		.uleb128 0x11
ARM GAS  /tmp/ccVf3EPN.s 			page 161


 5513 035d 01       		.uleb128 0x1
 5514 035e 12       		.uleb128 0x12
 5515 035f 06       		.uleb128 0x6
 5516 0360 00       		.byte	0
 5517 0361 00       		.byte	0
 5518 0362 42       		.uleb128 0x42
 5519 0363 34       		.uleb128 0x34
 5520 0364 00       		.byte	0
 5521 0365 31       		.uleb128 0x31
 5522 0366 13       		.uleb128 0x13
 5523 0367 00       		.byte	0
 5524 0368 00       		.byte	0
 5525 0369 43       		.uleb128 0x43
 5526 036a 2E       		.uleb128 0x2e
 5527 036b 01       		.byte	0x1
 5528 036c 3F       		.uleb128 0x3f
 5529 036d 19       		.uleb128 0x19
 5530 036e 03       		.uleb128 0x3
 5531 036f 0E       		.uleb128 0xe
 5532 0370 3A       		.uleb128 0x3a
 5533 0371 0B       		.uleb128 0xb
 5534 0372 3B       		.uleb128 0x3b
 5535 0373 0B       		.uleb128 0xb
 5536 0374 27       		.uleb128 0x27
 5537 0375 19       		.uleb128 0x19
 5538 0376 11       		.uleb128 0x11
 5539 0377 01       		.uleb128 0x1
 5540 0378 12       		.uleb128 0x12
 5541 0379 06       		.uleb128 0x6
 5542 037a 40       		.uleb128 0x40
 5543 037b 18       		.uleb128 0x18
 5544 037c 9642     		.uleb128 0x2116
 5545 037e 19       		.uleb128 0x19
 5546 037f 01       		.uleb128 0x1
 5547 0380 13       		.uleb128 0x13
 5548 0381 00       		.byte	0
 5549 0382 00       		.byte	0
 5550 0383 44       		.uleb128 0x44
 5551 0384 2E       		.uleb128 0x2e
 5552 0385 01       		.byte	0x1
 5553 0386 3F       		.uleb128 0x3f
 5554 0387 19       		.uleb128 0x19
 5555 0388 03       		.uleb128 0x3
 5556 0389 0E       		.uleb128 0xe
 5557 038a 3A       		.uleb128 0x3a
 5558 038b 0B       		.uleb128 0xb
 5559 038c 3B       		.uleb128 0x3b
 5560 038d 0B       		.uleb128 0xb
 5561 038e 27       		.uleb128 0x27
 5562 038f 19       		.uleb128 0x19
 5563 0390 11       		.uleb128 0x11
 5564 0391 01       		.uleb128 0x1
 5565 0392 12       		.uleb128 0x12
 5566 0393 06       		.uleb128 0x6
 5567 0394 40       		.uleb128 0x40
 5568 0395 18       		.uleb128 0x18
 5569 0396 9742     		.uleb128 0x2117
ARM GAS  /tmp/ccVf3EPN.s 			page 162


 5570 0398 19       		.uleb128 0x19
 5571 0399 01       		.uleb128 0x1
 5572 039a 13       		.uleb128 0x13
 5573 039b 00       		.byte	0
 5574 039c 00       		.byte	0
 5575 039d 45       		.uleb128 0x45
 5576 039e 05       		.uleb128 0x5
 5577 039f 00       		.byte	0
 5578 03a0 03       		.uleb128 0x3
 5579 03a1 0E       		.uleb128 0xe
 5580 03a2 3A       		.uleb128 0x3a
 5581 03a3 0B       		.uleb128 0xb
 5582 03a4 3B       		.uleb128 0x3b
 5583 03a5 0B       		.uleb128 0xb
 5584 03a6 49       		.uleb128 0x49
 5585 03a7 13       		.uleb128 0x13
 5586 03a8 02       		.uleb128 0x2
 5587 03a9 18       		.uleb128 0x18
 5588 03aa 00       		.byte	0
 5589 03ab 00       		.byte	0
 5590 03ac 46       		.uleb128 0x46
 5591 03ad 1D       		.uleb128 0x1d
 5592 03ae 01       		.byte	0x1
 5593 03af 31       		.uleb128 0x31
 5594 03b0 13       		.uleb128 0x13
 5595 03b1 11       		.uleb128 0x11
 5596 03b2 01       		.uleb128 0x1
 5597 03b3 12       		.uleb128 0x12
 5598 03b4 06       		.uleb128 0x6
 5599 03b5 58       		.uleb128 0x58
 5600 03b6 0B       		.uleb128 0xb
 5601 03b7 59       		.uleb128 0x59
 5602 03b8 0B       		.uleb128 0xb
 5603 03b9 01       		.uleb128 0x1
 5604 03ba 13       		.uleb128 0x13
 5605 03bb 00       		.byte	0
 5606 03bc 00       		.byte	0
 5607 03bd 47       		.uleb128 0x47
 5608 03be 1D       		.uleb128 0x1d
 5609 03bf 01       		.byte	0x1
 5610 03c0 31       		.uleb128 0x31
 5611 03c1 13       		.uleb128 0x13
 5612 03c2 11       		.uleb128 0x11
 5613 03c3 01       		.uleb128 0x1
 5614 03c4 12       		.uleb128 0x12
 5615 03c5 06       		.uleb128 0x6
 5616 03c6 58       		.uleb128 0x58
 5617 03c7 0B       		.uleb128 0xb
 5618 03c8 59       		.uleb128 0x59
 5619 03c9 05       		.uleb128 0x5
 5620 03ca 00       		.byte	0
 5621 03cb 00       		.byte	0
 5622 03cc 48       		.uleb128 0x48
 5623 03cd 1D       		.uleb128 0x1d
 5624 03ce 00       		.byte	0
 5625 03cf 31       		.uleb128 0x31
 5626 03d0 13       		.uleb128 0x13
ARM GAS  /tmp/ccVf3EPN.s 			page 163


 5627 03d1 11       		.uleb128 0x11
 5628 03d2 01       		.uleb128 0x1
 5629 03d3 12       		.uleb128 0x12
 5630 03d4 06       		.uleb128 0x6
 5631 03d5 58       		.uleb128 0x58
 5632 03d6 0B       		.uleb128 0xb
 5633 03d7 59       		.uleb128 0x59
 5634 03d8 05       		.uleb128 0x5
 5635 03d9 00       		.byte	0
 5636 03da 00       		.byte	0
 5637 03db 49       		.uleb128 0x49
 5638 03dc 2E       		.uleb128 0x2e
 5639 03dd 01       		.byte	0x1
 5640 03de 03       		.uleb128 0x3
 5641 03df 0E       		.uleb128 0xe
 5642 03e0 3A       		.uleb128 0x3a
 5643 03e1 0B       		.uleb128 0xb
 5644 03e2 3B       		.uleb128 0x3b
 5645 03e3 0B       		.uleb128 0xb
 5646 03e4 27       		.uleb128 0x27
 5647 03e5 19       		.uleb128 0x19
 5648 03e6 20       		.uleb128 0x20
 5649 03e7 0B       		.uleb128 0xb
 5650 03e8 01       		.uleb128 0x1
 5651 03e9 13       		.uleb128 0x13
 5652 03ea 00       		.byte	0
 5653 03eb 00       		.byte	0
 5654 03ec 4A       		.uleb128 0x4a
 5655 03ed 2E       		.uleb128 0x2e
 5656 03ee 01       		.byte	0x1
 5657 03ef 3F       		.uleb128 0x3f
 5658 03f0 19       		.uleb128 0x19
 5659 03f1 03       		.uleb128 0x3
 5660 03f2 0E       		.uleb128 0xe
 5661 03f3 3A       		.uleb128 0x3a
 5662 03f4 0B       		.uleb128 0xb
 5663 03f5 3B       		.uleb128 0x3b
 5664 03f6 0B       		.uleb128 0xb
 5665 03f7 27       		.uleb128 0x27
 5666 03f8 19       		.uleb128 0x19
 5667 03f9 49       		.uleb128 0x49
 5668 03fa 13       		.uleb128 0x13
 5669 03fb 11       		.uleb128 0x11
 5670 03fc 01       		.uleb128 0x1
 5671 03fd 12       		.uleb128 0x12
 5672 03fe 06       		.uleb128 0x6
 5673 03ff 40       		.uleb128 0x40
 5674 0400 18       		.uleb128 0x18
 5675 0401 9642     		.uleb128 0x2116
 5676 0403 19       		.uleb128 0x19
 5677 0404 01       		.uleb128 0x1
 5678 0405 13       		.uleb128 0x13
 5679 0406 00       		.byte	0
 5680 0407 00       		.byte	0
 5681 0408 4B       		.uleb128 0x4b
 5682 0409 1D       		.uleb128 0x1d
 5683 040a 01       		.byte	0x1
ARM GAS  /tmp/ccVf3EPN.s 			page 164


 5684 040b 31       		.uleb128 0x31
 5685 040c 13       		.uleb128 0x13
 5686 040d 52       		.uleb128 0x52
 5687 040e 01       		.uleb128 0x1
 5688 040f 55       		.uleb128 0x55
 5689 0410 17       		.uleb128 0x17
 5690 0411 58       		.uleb128 0x58
 5691 0412 0B       		.uleb128 0xb
 5692 0413 59       		.uleb128 0x59
 5693 0414 05       		.uleb128 0x5
 5694 0415 01       		.uleb128 0x1
 5695 0416 13       		.uleb128 0x13
 5696 0417 00       		.byte	0
 5697 0418 00       		.byte	0
 5698 0419 4C       		.uleb128 0x4c
 5699 041a 1D       		.uleb128 0x1d
 5700 041b 01       		.byte	0x1
 5701 041c 31       		.uleb128 0x31
 5702 041d 13       		.uleb128 0x13
 5703 041e 11       		.uleb128 0x11
 5704 041f 01       		.uleb128 0x1
 5705 0420 12       		.uleb128 0x12
 5706 0421 06       		.uleb128 0x6
 5707 0422 58       		.uleb128 0x58
 5708 0423 0B       		.uleb128 0xb
 5709 0424 59       		.uleb128 0x59
 5710 0425 05       		.uleb128 0x5
 5711 0426 01       		.uleb128 0x1
 5712 0427 13       		.uleb128 0x13
 5713 0428 00       		.byte	0
 5714 0429 00       		.byte	0
 5715 042a 4D       		.uleb128 0x4d
 5716 042b 898201   		.uleb128 0x4109
 5717 042e 01       		.byte	0x1
 5718 042f 11       		.uleb128 0x11
 5719 0430 01       		.uleb128 0x1
 5720 0431 31       		.uleb128 0x31
 5721 0432 13       		.uleb128 0x13
 5722 0433 00       		.byte	0
 5723 0434 00       		.byte	0
 5724 0435 4E       		.uleb128 0x4e
 5725 0436 898201   		.uleb128 0x4109
 5726 0439 01       		.byte	0x1
 5727 043a 11       		.uleb128 0x11
 5728 043b 01       		.uleb128 0x1
 5729 043c 31       		.uleb128 0x31
 5730 043d 13       		.uleb128 0x13
 5731 043e 01       		.uleb128 0x1
 5732 043f 13       		.uleb128 0x13
 5733 0440 00       		.byte	0
 5734 0441 00       		.byte	0
 5735 0442 4F       		.uleb128 0x4f
 5736 0443 898201   		.uleb128 0x4109
 5737 0446 00       		.byte	0
 5738 0447 11       		.uleb128 0x11
 5739 0448 01       		.uleb128 0x1
 5740 0449 31       		.uleb128 0x31
ARM GAS  /tmp/ccVf3EPN.s 			page 165


 5741 044a 13       		.uleb128 0x13
 5742 044b 00       		.byte	0
 5743 044c 00       		.byte	0
 5744 044d 50       		.uleb128 0x50
 5745 044e 34       		.uleb128 0x34
 5746 044f 00       		.byte	0
 5747 0450 03       		.uleb128 0x3
 5748 0451 0E       		.uleb128 0xe
 5749 0452 3A       		.uleb128 0x3a
 5750 0453 0B       		.uleb128 0xb
 5751 0454 3B       		.uleb128 0x3b
 5752 0455 0B       		.uleb128 0xb
 5753 0456 49       		.uleb128 0x49
 5754 0457 13       		.uleb128 0x13
 5755 0458 02       		.uleb128 0x2
 5756 0459 18       		.uleb128 0x18
 5757 045a 00       		.byte	0
 5758 045b 00       		.byte	0
 5759 045c 51       		.uleb128 0x51
 5760 045d 34       		.uleb128 0x34
 5761 045e 00       		.byte	0
 5762 045f 03       		.uleb128 0x3
 5763 0460 08       		.uleb128 0x8
 5764 0461 3A       		.uleb128 0x3a
 5765 0462 0B       		.uleb128 0xb
 5766 0463 3B       		.uleb128 0x3b
 5767 0464 05       		.uleb128 0x5
 5768 0465 49       		.uleb128 0x49
 5769 0466 13       		.uleb128 0x13
 5770 0467 3F       		.uleb128 0x3f
 5771 0468 19       		.uleb128 0x19
 5772 0469 3C       		.uleb128 0x3c
 5773 046a 19       		.uleb128 0x19
 5774 046b 00       		.byte	0
 5775 046c 00       		.byte	0
 5776 046d 52       		.uleb128 0x52
 5777 046e 34       		.uleb128 0x34
 5778 046f 00       		.byte	0
 5779 0470 03       		.uleb128 0x3
 5780 0471 0E       		.uleb128 0xe
 5781 0472 3A       		.uleb128 0x3a
 5782 0473 0B       		.uleb128 0xb
 5783 0474 3B       		.uleb128 0x3b
 5784 0475 0B       		.uleb128 0xb
 5785 0476 49       		.uleb128 0x49
 5786 0477 13       		.uleb128 0x13
 5787 0478 3F       		.uleb128 0x3f
 5788 0479 19       		.uleb128 0x19
 5789 047a 02       		.uleb128 0x2
 5790 047b 18       		.uleb128 0x18
 5791 047c 00       		.byte	0
 5792 047d 00       		.byte	0
 5793 047e 53       		.uleb128 0x53
 5794 047f 21       		.uleb128 0x21
 5795 0480 00       		.byte	0
 5796 0481 00       		.byte	0
 5797 0482 00       		.byte	0
ARM GAS  /tmp/ccVf3EPN.s 			page 166


 5798 0483 54       		.uleb128 0x54
 5799 0484 34       		.uleb128 0x34
 5800 0485 00       		.byte	0
 5801 0486 03       		.uleb128 0x3
 5802 0487 0E       		.uleb128 0xe
 5803 0488 3A       		.uleb128 0x3a
 5804 0489 0B       		.uleb128 0xb
 5805 048a 3B       		.uleb128 0x3b
 5806 048b 0B       		.uleb128 0xb
 5807 048c 49       		.uleb128 0x49
 5808 048d 13       		.uleb128 0x13
 5809 048e 3F       		.uleb128 0x3f
 5810 048f 19       		.uleb128 0x19
 5811 0490 3C       		.uleb128 0x3c
 5812 0491 19       		.uleb128 0x19
 5813 0492 00       		.byte	0
 5814 0493 00       		.byte	0
 5815 0494 55       		.uleb128 0x55
 5816 0495 2E       		.uleb128 0x2e
 5817 0496 01       		.byte	0x1
 5818 0497 3F       		.uleb128 0x3f
 5819 0498 19       		.uleb128 0x19
 5820 0499 03       		.uleb128 0x3
 5821 049a 0E       		.uleb128 0xe
 5822 049b 3A       		.uleb128 0x3a
 5823 049c 0B       		.uleb128 0xb
 5824 049d 3B       		.uleb128 0x3b
 5825 049e 05       		.uleb128 0x5
 5826 049f 27       		.uleb128 0x27
 5827 04a0 19       		.uleb128 0x19
 5828 04a1 3C       		.uleb128 0x3c
 5829 04a2 19       		.uleb128 0x19
 5830 04a3 00       		.byte	0
 5831 04a4 00       		.byte	0
 5832 04a5 00       		.byte	0
 5833              		.section	.debug_loc,"",%progbits
 5834              	.Ldebug_loc0:
 5835              	.LLST0:
 5836 0000 00000000 		.4byte	.LVL0
 5837 0004 06000000 		.4byte	.LVL1
 5838 0008 0200     		.2byte	0x2
 5839 000a 30       		.byte	0x30
 5840 000b 9F       		.byte	0x9f
 5841 000c 06000000 		.4byte	.LVL1
 5842 0010 0E000000 		.4byte	.LVL2
 5843 0014 0600     		.2byte	0x6
 5844 0016 08       		.byte	0x8
 5845 0017 4C       		.byte	0x4c
 5846 0018 74       		.byte	0x74
 5847 0019 00       		.sleb128 0
 5848 001a 1C       		.byte	0x1c
 5849 001b 9F       		.byte	0x9f
 5850 001c 0E000000 		.4byte	.LVL2
 5851 0020 12000000 		.4byte	.LVL3
 5852 0024 0600     		.2byte	0x6
 5853 0026 08       		.byte	0x8
 5854 0027 4B       		.byte	0x4b
ARM GAS  /tmp/ccVf3EPN.s 			page 167


 5855 0028 74       		.byte	0x74
 5856 0029 00       		.sleb128 0
 5857 002a 1C       		.byte	0x1c
 5858 002b 9F       		.byte	0x9f
 5859 002c 00000000 		.4byte	0
 5860 0030 00000000 		.4byte	0
 5861              	.LLST1:
 5862 0034 00000000 		.4byte	.LVL5
 5863 0038 10000000 		.4byte	.LVL6
 5864 003c 0100     		.2byte	0x1
 5865 003e 50       		.byte	0x50
 5866 003f 10000000 		.4byte	.LVL6
 5867 0043 20000000 		.4byte	.LFE183
 5868 0047 0500     		.2byte	0x5
 5869 0049 03       		.byte	0x3
 5870 004a 00000000 		.4byte	test_failure_message
 5871 004e 00000000 		.4byte	0
 5872 0052 00000000 		.4byte	0
 5873              	.LLST2:
 5874 0056 00000000 		.4byte	.LVL7
 5875 005a 18000000 		.4byte	.LVL10
 5876 005e 0100     		.2byte	0x1
 5877 0060 50       		.byte	0x50
 5878 0061 18000000 		.4byte	.LVL10
 5879 0065 28000000 		.4byte	.LFE184
 5880 0069 0400     		.2byte	0x4
 5881 006b F3       		.byte	0xf3
 5882 006c 01       		.uleb128 0x1
 5883 006d 50       		.byte	0x50
 5884 006e 9F       		.byte	0x9f
 5885 006f 00000000 		.4byte	0
 5886 0073 00000000 		.4byte	0
 5887              	.LLST3:
 5888 0077 06000000 		.4byte	.LVL8
 5889 007b 16000000 		.4byte	.LVL9
 5890 007f 0100     		.2byte	0x1
 5891 0081 51       		.byte	0x51
 5892 0082 00000000 		.4byte	0
 5893 0086 00000000 		.4byte	0
 5894              	.LLST4:
 5895 008a 00000000 		.4byte	.LVL11
 5896 008e 0E000000 		.4byte	.LVL13
 5897 0092 0100     		.2byte	0x1
 5898 0094 50       		.byte	0x50
 5899 0095 0E000000 		.4byte	.LVL13
 5900 0099 14000000 		.4byte	.LVL14
 5901 009d 0300     		.2byte	0x3
 5902 009f 70       		.byte	0x70
 5903 00a0 01       		.sleb128 1
 5904 00a1 9F       		.byte	0x9f
 5905 00a2 14000000 		.4byte	.LVL14
 5906 00a6 1C000000 		.4byte	.LVL16
 5907 00aa 0100     		.2byte	0x1
 5908 00ac 50       		.byte	0x50
 5909 00ad 1C000000 		.4byte	.LVL16
 5910 00b1 22000000 		.4byte	.LVL17
 5911 00b5 0100     		.2byte	0x1
ARM GAS  /tmp/ccVf3EPN.s 			page 168


 5912 00b7 54       		.byte	0x54
 5913 00b8 22000000 		.4byte	.LVL17
 5914 00bc 2C000000 		.4byte	.LVL18
 5915 00c0 0100     		.2byte	0x1
 5916 00c2 50       		.byte	0x50
 5917 00c3 2C000000 		.4byte	.LVL18
 5918 00c7 2E000000 		.4byte	.LVL19
 5919 00cb 0100     		.2byte	0x1
 5920 00cd 54       		.byte	0x54
 5921 00ce 2E000000 		.4byte	.LVL19
 5922 00d2 38000000 		.4byte	.LVL20
 5923 00d6 0100     		.2byte	0x1
 5924 00d8 50       		.byte	0x50
 5925 00d9 00000000 		.4byte	0
 5926 00dd 00000000 		.4byte	0
 5927              	.LLST5:
 5928 00e1 00000000 		.4byte	.LVL11
 5929 00e5 08000000 		.4byte	.LVL12
 5930 00e9 0100     		.2byte	0x1
 5931 00eb 51       		.byte	0x51
 5932 00ec 08000000 		.4byte	.LVL12
 5933 00f0 58000000 		.4byte	.LFE185
 5934 00f4 0100     		.2byte	0x1
 5935 00f6 5C       		.byte	0x5c
 5936 00f7 00000000 		.4byte	0
 5937 00fb 00000000 		.4byte	0
 5938              	.LLST6:
 5939 00ff 00000000 		.4byte	.LVL11
 5940 0103 0E000000 		.4byte	.LVL13
 5941 0107 0600     		.2byte	0x6
 5942 0109 03       		.byte	0x3
 5943 010a 00000000 		.4byte	test_tokens_buffer
 5944 010e 9F       		.byte	0x9f
 5945 010f 0E000000 		.4byte	.LVL13
 5946 0113 14000000 		.4byte	.LVL14
 5947 0117 0D00     		.2byte	0xd
 5948 0119 70       		.byte	0x70
 5949 011a 00       		.sleb128 0
 5950 011b F3       		.byte	0xf3
 5951 011c 01       		.uleb128 0x1
 5952 011d 50       		.byte	0x50
 5953 011e 1C       		.byte	0x1c
 5954 011f 03       		.byte	0x3
 5955 0120 01000000 		.4byte	test_tokens_buffer+1
 5956 0124 22       		.byte	0x22
 5957 0125 9F       		.byte	0x9f
 5958 0126 14000000 		.4byte	.LVL14
 5959 012a 1A000000 		.4byte	.LVL15
 5960 012e 0D00     		.2byte	0xd
 5961 0130 74       		.byte	0x74
 5962 0131 00       		.sleb128 0
 5963 0132 F3       		.byte	0xf3
 5964 0133 01       		.uleb128 0x1
 5965 0134 50       		.byte	0x50
 5966 0135 1C       		.byte	0x1c
 5967 0136 03       		.byte	0x3
 5968 0137 01000000 		.4byte	test_tokens_buffer+1
ARM GAS  /tmp/ccVf3EPN.s 			page 169


 5969 013b 22       		.byte	0x22
 5970 013c 9F       		.byte	0x9f
 5971 013d 1C000000 		.4byte	.LVL16
 5972 0141 22000000 		.4byte	.LVL17
 5973 0145 0D00     		.2byte	0xd
 5974 0147 74       		.byte	0x74
 5975 0148 00       		.sleb128 0
 5976 0149 F3       		.byte	0xf3
 5977 014a 01       		.uleb128 0x1
 5978 014b 50       		.byte	0x50
 5979 014c 1C       		.byte	0x1c
 5980 014d 03       		.byte	0x3
 5981 014e 00000000 		.4byte	test_tokens_buffer
 5982 0152 22       		.byte	0x22
 5983 0153 9F       		.byte	0x9f
 5984 0154 22000000 		.4byte	.LVL17
 5985 0158 2C000000 		.4byte	.LVL18
 5986 015c 0D00     		.2byte	0xd
 5987 015e 70       		.byte	0x70
 5988 015f 00       		.sleb128 0
 5989 0160 F3       		.byte	0xf3
 5990 0161 01       		.uleb128 0x1
 5991 0162 50       		.byte	0x50
 5992 0163 1C       		.byte	0x1c
 5993 0164 03       		.byte	0x3
 5994 0165 00000000 		.4byte	test_tokens_buffer
 5995 0169 22       		.byte	0x22
 5996 016a 9F       		.byte	0x9f
 5997 016b 2C000000 		.4byte	.LVL18
 5998 016f 2E000000 		.4byte	.LVL19
 5999 0173 0D00     		.2byte	0xd
 6000 0175 74       		.byte	0x74
 6001 0176 00       		.sleb128 0
 6002 0177 F3       		.byte	0xf3
 6003 0178 01       		.uleb128 0x1
 6004 0179 50       		.byte	0x50
 6005 017a 1C       		.byte	0x1c
 6006 017b 03       		.byte	0x3
 6007 017c 00000000 		.4byte	test_tokens_buffer
 6008 0180 22       		.byte	0x22
 6009 0181 9F       		.byte	0x9f
 6010 0182 00000000 		.4byte	0
 6011 0186 00000000 		.4byte	0
 6012              	.LLST7:
 6013 018a 2E000000 		.4byte	.LVL19
 6014 018e 40000000 		.4byte	.LVL21
 6015 0192 0100     		.2byte	0x1
 6016 0194 5C       		.byte	0x5c
 6017 0195 00000000 		.4byte	0
 6018 0199 00000000 		.4byte	0
 6019              	.LLST8:
 6020 019d 00000000 		.4byte	.LVL22
 6021 01a1 0E000000 		.4byte	.LVL26
 6022 01a5 0100     		.2byte	0x1
 6023 01a7 50       		.byte	0x50
 6024 01a8 0E000000 		.4byte	.LVL26
 6025 01ac 34000000 		.4byte	.LFE186
ARM GAS  /tmp/ccVf3EPN.s 			page 170


 6026 01b0 0400     		.2byte	0x4
 6027 01b2 F3       		.byte	0xf3
 6028 01b3 01       		.uleb128 0x1
 6029 01b4 50       		.byte	0x50
 6030 01b5 9F       		.byte	0x9f
 6031 01b6 00000000 		.4byte	0
 6032 01ba 00000000 		.4byte	0
 6033              	.LLST9:
 6034 01be 00000000 		.4byte	.LVL22
 6035 01c2 04000000 		.4byte	.LVL23
 6036 01c6 0100     		.2byte	0x1
 6037 01c8 51       		.byte	0x51
 6038 01c9 04000000 		.4byte	.LVL23
 6039 01cd 34000000 		.4byte	.LFE186
 6040 01d1 0400     		.2byte	0x4
 6041 01d3 F3       		.byte	0xf3
 6042 01d4 01       		.uleb128 0x1
 6043 01d5 51       		.byte	0x51
 6044 01d6 9F       		.byte	0x9f
 6045 01d7 00000000 		.4byte	0
 6046 01db 00000000 		.4byte	0
 6047              	.LLST10:
 6048 01df 06000000 		.4byte	.LVL24
 6049 01e3 0E000000 		.4byte	.LVL26
 6050 01e7 0100     		.2byte	0x1
 6051 01e9 50       		.byte	0x50
 6052 01ea 00000000 		.4byte	0
 6053 01ee 00000000 		.4byte	0
 6054              	.LLST11:
 6055 01f2 06000000 		.4byte	.LVL24
 6056 01f6 0A000000 		.4byte	.LVL25
 6057 01fa 0100     		.2byte	0x1
 6058 01fc 53       		.byte	0x53
 6059 01fd 00000000 		.4byte	0
 6060 0201 00000000 		.4byte	0
 6061              	.LLST14:
 6062 0205 12000000 		.4byte	.LVL27
 6063 0209 22000000 		.4byte	.LVL28
 6064 020d 0100     		.2byte	0x1
 6065 020f 52       		.byte	0x52
 6066 0210 00000000 		.4byte	0
 6067 0214 00000000 		.4byte	0
 6068              	.LLST15:
 6069 0218 00000000 		.4byte	.LVL29
 6070 021c 1B000000 		.4byte	.LVL31-1
 6071 0220 0100     		.2byte	0x1
 6072 0222 50       		.byte	0x50
 6073 0223 1B000000 		.4byte	.LVL31-1
 6074 0227 32000000 		.4byte	.LVL35
 6075 022b 0100     		.2byte	0x1
 6076 022d 54       		.byte	0x54
 6077 022e 32000000 		.4byte	.LVL35
 6078 0232 44000000 		.4byte	.LVL37
 6079 0236 0100     		.2byte	0x1
 6080 0238 50       		.byte	0x50
 6081 0239 60000000 		.4byte	.LVL42
 6082 023d 66000000 		.4byte	.LVL43
ARM GAS  /tmp/ccVf3EPN.s 			page 171


 6083 0241 0100     		.2byte	0x1
 6084 0243 50       		.byte	0x50
 6085 0244 66000000 		.4byte	.LVL43
 6086 0248 74000000 		.4byte	.LFE187
 6087 024c 0100     		.2byte	0x1
 6088 024e 54       		.byte	0x54
 6089 024f 00000000 		.4byte	0
 6090 0253 00000000 		.4byte	0
 6091              	.LLST16:
 6092 0257 14000000 		.4byte	.LVL30
 6093 025b 22000000 		.4byte	.LVL32
 6094 025f 0300     		.2byte	0x3
 6095 0261 75       		.byte	0x75
 6096 0262 7F       		.sleb128 -1
 6097 0263 9F       		.byte	0x9f
 6098 0264 22000000 		.4byte	.LVL32
 6099 0268 2D000000 		.4byte	.LVL33-1
 6100 026c 0100     		.2byte	0x1
 6101 026e 53       		.byte	0x53
 6102 026f 2D000000 		.4byte	.LVL33-1
 6103 0273 30000000 		.4byte	.LVL34
 6104 0277 0300     		.2byte	0x3
 6105 0279 75       		.byte	0x75
 6106 027a 7F       		.sleb128 -1
 6107 027b 9F       		.byte	0x9f
 6108 027c 30000000 		.4byte	.LVL34
 6109 0280 34000000 		.4byte	.LVL36
 6110 0284 0100     		.2byte	0x1
 6111 0286 55       		.byte	0x55
 6112 0287 34000000 		.4byte	.LVL36
 6113 028b 44000000 		.4byte	.LVL37
 6114 028f 0100     		.2byte	0x1
 6115 0291 58       		.byte	0x58
 6116 0292 44000000 		.4byte	.LVL37
 6117 0296 4A000000 		.4byte	.LVL38
 6118 029a 0300     		.2byte	0x3
 6119 029c 74       		.byte	0x74
 6120 029d 7F       		.sleb128 -1
 6121 029e 9F       		.byte	0x9f
 6122 029f 4A000000 		.4byte	.LVL38
 6123 02a3 4C000000 		.4byte	.LVL39
 6124 02a7 0100     		.2byte	0x1
 6125 02a9 54       		.byte	0x54
 6126 02aa 4C000000 		.4byte	.LVL39
 6127 02ae 58000000 		.4byte	.LVL41
 6128 02b2 0300     		.2byte	0x3
 6129 02b4 74       		.byte	0x74
 6130 02b5 7F       		.sleb128 -1
 6131 02b6 9F       		.byte	0x9f
 6132 02b7 00000000 		.4byte	0
 6133 02bb 00000000 		.4byte	0
 6134              	.LLST17:
 6135 02bf 00000000 		.4byte	.LVL45
 6136 02c3 0C000000 		.4byte	.LVL46
 6137 02c7 0100     		.2byte	0x1
 6138 02c9 50       		.byte	0x50
 6139 02ca 0C000000 		.4byte	.LVL46
ARM GAS  /tmp/ccVf3EPN.s 			page 172


 6140 02ce 1C000000 		.4byte	.LVL49
 6141 02d2 0100     		.2byte	0x1
 6142 02d4 54       		.byte	0x54
 6143 02d5 00000000 		.4byte	0
 6144 02d9 00000000 		.4byte	0
 6145              	.LLST18:
 6146 02dd 00000000 		.4byte	.LVL50
 6147 02e1 0C000000 		.4byte	.LVL51
 6148 02e5 0100     		.2byte	0x1
 6149 02e7 50       		.byte	0x50
 6150 02e8 0C000000 		.4byte	.LVL51
 6151 02ec 34000000 		.4byte	.LFE189
 6152 02f0 0400     		.2byte	0x4
 6153 02f2 F3       		.byte	0xf3
 6154 02f3 01       		.uleb128 0x1
 6155 02f4 50       		.byte	0x50
 6156 02f5 9F       		.byte	0x9f
 6157 02f6 00000000 		.4byte	0
 6158 02fa 00000000 		.4byte	0
 6159              	.LLST19:
 6160 02fe 00000000 		.4byte	.LVL50
 6161 0302 0C000000 		.4byte	.LVL51
 6162 0306 0100     		.2byte	0x1
 6163 0308 50       		.byte	0x50
 6164 0309 0C000000 		.4byte	.LVL51
 6165 030d 28000000 		.4byte	.LVL55
 6166 0311 0100     		.2byte	0x1
 6167 0313 54       		.byte	0x54
 6168 0314 00000000 		.4byte	0
 6169 0318 00000000 		.4byte	0
 6170              	.LLST20:
 6171 031c 00000000 		.4byte	.LVL58
 6172 0320 14000000 		.4byte	.LVL59
 6173 0324 0100     		.2byte	0x1
 6174 0326 50       		.byte	0x50
 6175 0327 14000000 		.4byte	.LVL59
 6176 032b 17000000 		.4byte	.LVL60-1
 6177 032f 0500     		.2byte	0x5
 6178 0331 03       		.byte	0x3
 6179 0332 00000000 		.4byte	test_chp
 6180 0336 17000000 		.4byte	.LVL60-1
 6181 033a C4020000 		.4byte	.LFE192
 6182 033e 0400     		.2byte	0x4
 6183 0340 F3       		.byte	0xf3
 6184 0341 01       		.uleb128 0x1
 6185 0342 50       		.byte	0x50
 6186 0343 9F       		.byte	0x9f
 6187 0344 00000000 		.4byte	0
 6188 0348 00000000 		.4byte	0
 6189              	.LLST21:
 6190 034c 86000000 		.4byte	.LVL81
 6191 0350 9A000000 		.4byte	.LVL82
 6192 0354 0200     		.2byte	0x2
 6193 0356 30       		.byte	0x30
 6194 0357 9F       		.byte	0x9f
 6195 0358 9A000000 		.4byte	.LVL82
 6196 035c 9E000000 		.4byte	.LVL83
ARM GAS  /tmp/ccVf3EPN.s 			page 173


 6197 0360 0100     		.2byte	0x1
 6198 0362 5B       		.byte	0x5b
 6199 0363 9E000000 		.4byte	.LVL83
 6200 0367 F0010000 		.4byte	.LVL136
 6201 036b 0300     		.2byte	0x3
 6202 036d 7B       		.byte	0x7b
 6203 036e 7F       		.sleb128 -1
 6204 036f 9F       		.byte	0x9f
 6205 0370 F0010000 		.4byte	.LVL136
 6206 0374 FE010000 		.4byte	.LVL138
 6207 0378 0100     		.2byte	0x1
 6208 037a 5B       		.byte	0x5b
 6209 037b 3E020000 		.4byte	.LVL147
 6210 037f 46020000 		.4byte	.LVL149
 6211 0383 0300     		.2byte	0x3
 6212 0385 7B       		.byte	0x7b
 6213 0386 7F       		.sleb128 -1
 6214 0387 9F       		.byte	0x9f
 6215 0388 00000000 		.4byte	0
 6216 038c 00000000 		.4byte	0
 6217              	.LLST22:
 6218 0390 A2000000 		.4byte	.LVL84
 6219 0394 B1000000 		.4byte	.LVL85-1
 6220 0398 0100     		.2byte	0x1
 6221 039a 52       		.byte	0x52
 6222 039b B1000000 		.4byte	.LVL85-1
 6223 039f E8000000 		.4byte	.LVL95
 6224 03a3 0200     		.2byte	0x2
 6225 03a5 91       		.byte	0x91
 6226 03a6 54       		.sleb128 -44
 6227 03a7 E4010000 		.4byte	.LVL135
 6228 03ab F0010000 		.4byte	.LVL136
 6229 03af 0200     		.2byte	0x2
 6230 03b1 91       		.byte	0x91
 6231 03b2 54       		.sleb128 -44
 6232 03b3 F0010000 		.4byte	.LVL136
 6233 03b7 F6010000 		.4byte	.LVL137
 6234 03bb 0100     		.2byte	0x1
 6235 03bd 52       		.byte	0x52
 6236 03be F6010000 		.4byte	.LVL137
 6237 03c2 FE010000 		.4byte	.LVL138
 6238 03c6 0200     		.2byte	0x2
 6239 03c8 91       		.byte	0x91
 6240 03c9 54       		.sleb128 -44
 6241 03ca 00000000 		.4byte	0
 6242 03ce 00000000 		.4byte	0
 6243              	.LLST23:
 6244 03d2 24000000 		.4byte	.LVL62
 6245 03d6 28000000 		.4byte	.LVL63
 6246 03da 0600     		.2byte	0x6
 6247 03dc 03       		.byte	0x3
 6248 03dd 28000000 		.4byte	.LC38
 6249 03e1 9F       		.byte	0x9f
 6250 03e2 28000000 		.4byte	.LVL63
 6251 03e6 2A000000 		.4byte	.LVL64
 6252 03ea 0300     		.2byte	0x3
 6253 03ec 75       		.byte	0x75
ARM GAS  /tmp/ccVf3EPN.s 			page 174


 6254 03ed 7F       		.sleb128 -1
 6255 03ee 9F       		.byte	0x9f
 6256 03ef 2A000000 		.4byte	.LVL64
 6257 03f3 2C000000 		.4byte	.LVL65
 6258 03f7 0100     		.2byte	0x1
 6259 03f9 55       		.byte	0x55
 6260 03fa 2C000000 		.4byte	.LVL65
 6261 03fe 42000000 		.4byte	.LVL68
 6262 0402 0300     		.2byte	0x3
 6263 0404 75       		.byte	0x75
 6264 0405 7F       		.sleb128 -1
 6265 0406 9F       		.byte	0x9f
 6266 0407 00000000 		.4byte	0
 6267 040b 00000000 		.4byte	0
 6268              	.LLST24:
 6269 040f 40000000 		.4byte	.LVL67
 6270 0413 44000000 		.4byte	.LVL69
 6271 0417 0600     		.2byte	0x6
 6272 0419 03       		.byte	0x3
 6273 041a D8000000 		.4byte	.LC66
 6274 041e 9F       		.byte	0x9f
 6275 041f 44000000 		.4byte	.LVL69
 6276 0423 46000000 		.4byte	.LVL70
 6277 0427 0300     		.2byte	0x3
 6278 0429 75       		.byte	0x75
 6279 042a 7F       		.sleb128 -1
 6280 042b 9F       		.byte	0x9f
 6281 042c 46000000 		.4byte	.LVL70
 6282 0430 48000000 		.4byte	.LVL71
 6283 0434 0100     		.2byte	0x1
 6284 0436 55       		.byte	0x55
 6285 0437 48000000 		.4byte	.LVL71
 6286 043b 5E000000 		.4byte	.LVL74
 6287 043f 0300     		.2byte	0x3
 6288 0441 75       		.byte	0x75
 6289 0442 7F       		.sleb128 -1
 6290 0443 9F       		.byte	0x9f
 6291 0444 00000000 		.4byte	0
 6292 0448 00000000 		.4byte	0
 6293              	.LLST25:
 6294 044c 5C000000 		.4byte	.LVL73
 6295 0450 62000000 		.4byte	.LVL75
 6296 0454 0600     		.2byte	0x6
 6297 0456 03       		.byte	0x3
 6298 0457 18010000 		.4byte	.LC70
 6299 045b 9F       		.byte	0x9f
 6300 045c 62000000 		.4byte	.LVL75
 6301 0460 64000000 		.4byte	.LVL76
 6302 0464 0300     		.2byte	0x3
 6303 0466 76       		.byte	0x76
 6304 0467 7F       		.sleb128 -1
 6305 0468 9F       		.byte	0x9f
 6306 0469 64000000 		.4byte	.LVL76
 6307 046d 66000000 		.4byte	.LVL77
 6308 0471 0100     		.2byte	0x1
 6309 0473 56       		.byte	0x56
 6310 0474 66000000 		.4byte	.LVL77
ARM GAS  /tmp/ccVf3EPN.s 			page 175


 6311 0478 9A000000 		.4byte	.LVL82
 6312 047c 0300     		.2byte	0x3
 6313 047e 76       		.byte	0x76
 6314 047f 7F       		.sleb128 -1
 6315 0480 9F       		.byte	0x9f
 6316 0481 00000000 		.4byte	0
 6317 0485 00000000 		.4byte	0
 6318              	.LLST26:
 6319 0489 2C010000 		.4byte	.LVL104
 6320 048d 5A010000 		.4byte	.LVL108
 6321 0491 0100     		.2byte	0x1
 6322 0493 55       		.byte	0x55
 6323 0494 3E020000 		.4byte	.LVL147
 6324 0498 46020000 		.4byte	.LVL149
 6325 049c 0100     		.2byte	0x1
 6326 049e 55       		.byte	0x55
 6327 049f 00000000 		.4byte	0
 6328 04a3 00000000 		.4byte	0
 6329              	.LLST27:
 6330 04a7 76010000 		.4byte	.LVL113
 6331 04ab 7A010000 		.4byte	.LVL115
 6332 04af 0600     		.2byte	0x6
 6333 04b1 03       		.byte	0x3
 6334 04b2 30010000 		.4byte	.LC75
 6335 04b6 9F       		.byte	0x9f
 6336 04b7 7A010000 		.4byte	.LVL115
 6337 04bb 7C010000 		.4byte	.LVL116
 6338 04bf 0300     		.2byte	0x3
 6339 04c1 75       		.byte	0x75
 6340 04c2 7F       		.sleb128 -1
 6341 04c3 9F       		.byte	0x9f
 6342 04c4 7C010000 		.4byte	.LVL116
 6343 04c8 7E010000 		.4byte	.LVL117
 6344 04cc 0100     		.2byte	0x1
 6345 04ce 55       		.byte	0x55
 6346 04cf 7E010000 		.4byte	.LVL117
 6347 04d3 90010000 		.4byte	.LVL120
 6348 04d7 0300     		.2byte	0x3
 6349 04d9 75       		.byte	0x75
 6350 04da 7F       		.sleb128 -1
 6351 04db 9F       		.byte	0x9f
 6352 04dc 00000000 		.4byte	0
 6353 04e0 00000000 		.4byte	0
 6354              	.LLST28:
 6355 04e4 B2000000 		.4byte	.LVL85
 6356 04e8 B6000000 		.4byte	.LVL86
 6357 04ec 0600     		.2byte	0x6
 6358 04ee 03       		.byte	0x3
 6359 04ef 68000000 		.4byte	.LC44
 6360 04f3 9F       		.byte	0x9f
 6361 04f4 B6000000 		.4byte	.LVL86
 6362 04f8 B8000000 		.4byte	.LVL87
 6363 04fc 0300     		.2byte	0x3
 6364 04fe 75       		.byte	0x75
 6365 04ff 7F       		.sleb128 -1
 6366 0500 9F       		.byte	0x9f
 6367 0501 B8000000 		.4byte	.LVL87
ARM GAS  /tmp/ccVf3EPN.s 			page 176


 6368 0505 BA000000 		.4byte	.LVL88
 6369 0509 0100     		.2byte	0x1
 6370 050b 55       		.byte	0x55
 6371 050c BA000000 		.4byte	.LVL88
 6372 0510 E6000000 		.4byte	.LVL94
 6373 0514 0300     		.2byte	0x3
 6374 0516 75       		.byte	0x75
 6375 0517 7F       		.sleb128 -1
 6376 0518 9F       		.byte	0x9f
 6377 0519 00000000 		.4byte	0
 6378 051d 00000000 		.4byte	0
 6379              	.LLST30:
 6380 0521 E4000000 		.4byte	.LVL93
 6381 0525 E8000000 		.4byte	.LVL95
 6382 0529 0600     		.2byte	0x6
 6383 052b 03       		.byte	0x3
 6384 052c 2C010000 		.4byte	.LC72
 6385 0530 9F       		.byte	0x9f
 6386 0531 E8000000 		.4byte	.LVL95
 6387 0535 EA000000 		.4byte	.LVL96
 6388 0539 0300     		.2byte	0x3
 6389 053b 75       		.byte	0x75
 6390 053c 7F       		.sleb128 -1
 6391 053d 9F       		.byte	0x9f
 6392 053e EA000000 		.4byte	.LVL96
 6393 0542 EC000000 		.4byte	.LVL97
 6394 0546 0100     		.2byte	0x1
 6395 0548 55       		.byte	0x55
 6396 0549 EC000000 		.4byte	.LVL97
 6397 054d 02010000 		.4byte	.LVL99
 6398 0551 0300     		.2byte	0x3
 6399 0553 75       		.byte	0x75
 6400 0554 7F       		.sleb128 -1
 6401 0555 9F       		.byte	0x9f
 6402 0556 00000000 		.4byte	0
 6403 055a 00000000 		.4byte	0
 6404              	.LLST31:
 6405 055e 02010000 		.4byte	.LVL99
 6406 0562 2C010000 		.4byte	.LVL104
 6407 0566 0100     		.2byte	0x1
 6408 0568 55       		.byte	0x55
 6409 0569 00000000 		.4byte	0
 6410 056d 00000000 		.4byte	0
 6411              	.LLST32:
 6412 0571 1E010000 		.4byte	.LVL102
 6413 0575 F0010000 		.4byte	.LVL136
 6414 0579 0300     		.2byte	0x3
 6415 057b 08       		.byte	0x8
 6416 057c C8       		.byte	0xc8
 6417 057d 9F       		.byte	0x9f
 6418 057e 3E020000 		.4byte	.LVL147
 6419 0582 46020000 		.4byte	.LVL149
 6420 0586 0300     		.2byte	0x3
 6421 0588 08       		.byte	0x8
 6422 0589 C8       		.byte	0xc8
 6423 058a 9F       		.byte	0x9f
 6424 058b 00000000 		.4byte	0
ARM GAS  /tmp/ccVf3EPN.s 			page 177


 6425 058f 00000000 		.4byte	0
 6426              	.LLST33:
 6427 0593 5C010000 		.4byte	.LVL109
 6428 0597 5E010000 		.4byte	.LVL110
 6429 059b 0300     		.2byte	0x3
 6430 059d 75       		.byte	0x75
 6431 059e 7F       		.sleb128 -1
 6432 059f 9F       		.byte	0x9f
 6433 05a0 5E010000 		.4byte	.LVL110
 6434 05a4 60010000 		.4byte	.LVL111
 6435 05a8 0100     		.2byte	0x1
 6436 05aa 55       		.byte	0x55
 6437 05ab 60010000 		.4byte	.LVL111
 6438 05af 78010000 		.4byte	.LVL114
 6439 05b3 0300     		.2byte	0x3
 6440 05b5 75       		.byte	0x75
 6441 05b6 7F       		.sleb128 -1
 6442 05b7 9F       		.byte	0x9f
 6443 05b8 00000000 		.4byte	0
 6444 05bc 00000000 		.4byte	0
 6445              	.LLST34:
 6446 05c0 8C010000 		.4byte	.LVL119
 6447 05c4 94010000 		.4byte	.LVL121
 6448 05c8 0600     		.2byte	0x6
 6449 05ca 03       		.byte	0x3
 6450 05cb 00000000 		.4byte	test_tokens_buffer
 6451 05cf 9F       		.byte	0x9f
 6452 05d0 94010000 		.4byte	.LVL121
 6453 05d4 98010000 		.4byte	.LVL122
 6454 05d8 0300     		.2byte	0x3
 6455 05da 75       		.byte	0x75
 6456 05db 7F       		.sleb128 -1
 6457 05dc 9F       		.byte	0x9f
 6458 05dd 98010000 		.4byte	.LVL122
 6459 05e1 9F010000 		.4byte	.LVL123-1
 6460 05e5 0100     		.2byte	0x1
 6461 05e7 52       		.byte	0x52
 6462 05e8 9F010000 		.4byte	.LVL123-1
 6463 05ec A4010000 		.4byte	.LVL124
 6464 05f0 0300     		.2byte	0x3
 6465 05f2 75       		.byte	0x75
 6466 05f3 7F       		.sleb128 -1
 6467 05f4 9F       		.byte	0x9f
 6468 05f5 A4010000 		.4byte	.LVL124
 6469 05f9 A6010000 		.4byte	.LVL125
 6470 05fd 0100     		.2byte	0x1
 6471 05ff 55       		.byte	0x55
 6472 0600 A6010000 		.4byte	.LVL125
 6473 0604 AA010000 		.4byte	.LVL126
 6474 0608 0100     		.2byte	0x1
 6475 060a 57       		.byte	0x57
 6476 060b 00000000 		.4byte	0
 6477 060f 00000000 		.4byte	0
 6478              	.LLST35:
 6479 0613 AE010000 		.4byte	.LVL127
 6480 0617 B0010000 		.4byte	.LVL128
 6481 061b 0300     		.2byte	0x3
ARM GAS  /tmp/ccVf3EPN.s 			page 178


 6482 061d 75       		.byte	0x75
 6483 061e 7F       		.sleb128 -1
 6484 061f 9F       		.byte	0x9f
 6485 0620 B0010000 		.4byte	.LVL128
 6486 0624 B2010000 		.4byte	.LVL129
 6487 0628 0100     		.2byte	0x1
 6488 062a 55       		.byte	0x55
 6489 062b B2010000 		.4byte	.LVL129
 6490 062f C4010000 		.4byte	.LVL131
 6491 0633 0300     		.2byte	0x3
 6492 0635 75       		.byte	0x75
 6493 0636 7F       		.sleb128 -1
 6494 0637 9F       		.byte	0x9f
 6495 0638 00000000 		.4byte	0
 6496 063c 00000000 		.4byte	0
 6497              	.LLST36:
 6498 0640 C4010000 		.4byte	.LVL131
 6499 0644 E0010000 		.4byte	.LVL134
 6500 0648 0100     		.2byte	0x1
 6501 064a 55       		.byte	0x55
 6502 064b 00000000 		.4byte	0
 6503 064f 00000000 		.4byte	0
 6504              	.LLST37:
 6505 0653 08020000 		.4byte	.LVL140
 6506 0657 0C020000 		.4byte	.LVL141
 6507 065b 0600     		.2byte	0x6
 6508 065d 03       		.byte	0x3
 6509 065e 34010000 		.4byte	.LC77
 6510 0662 9F       		.byte	0x9f
 6511 0663 0C020000 		.4byte	.LVL141
 6512 0667 0E020000 		.4byte	.LVL142
 6513 066b 0300     		.2byte	0x3
 6514 066d 75       		.byte	0x75
 6515 066e 7F       		.sleb128 -1
 6516 066f 9F       		.byte	0x9f
 6517 0670 0E020000 		.4byte	.LVL142
 6518 0674 10020000 		.4byte	.LVL143
 6519 0678 0100     		.2byte	0x1
 6520 067a 55       		.byte	0x55
 6521 067b 10020000 		.4byte	.LVL143
 6522 067f 32020000 		.4byte	.LVL146
 6523 0683 0300     		.2byte	0x3
 6524 0685 75       		.byte	0x75
 6525 0686 7F       		.sleb128 -1
 6526 0687 9F       		.byte	0x9f
 6527 0688 46020000 		.4byte	.LVL149
 6528 068c C4020000 		.4byte	.LFE192
 6529 0690 0300     		.2byte	0x3
 6530 0692 75       		.byte	0x75
 6531 0693 7F       		.sleb128 -1
 6532 0694 9F       		.byte	0x9f
 6533 0695 00000000 		.4byte	0
 6534 0699 00000000 		.4byte	0
 6535              		.section	.debug_aranges,"",%progbits
 6536 0000 6C000000 		.4byte	0x6c
 6537 0004 0200     		.2byte	0x2
 6538 0006 00000000 		.4byte	.Ldebug_info0
ARM GAS  /tmp/ccVf3EPN.s 			page 179


 6539 000a 04       		.byte	0x4
 6540 000b 00       		.byte	0
 6541 000c 0000     		.2byte	0
 6542 000e 0000     		.2byte	0
 6543 0010 00000000 		.4byte	.LFB182
 6544 0014 2C000000 		.4byte	.LFE182-.LFB182
 6545 0018 00000000 		.4byte	.LFB183
 6546 001c 20000000 		.4byte	.LFE183-.LFB183
 6547 0020 00000000 		.4byte	.LFB184
 6548 0024 28000000 		.4byte	.LFE184-.LFB184
 6549 0028 00000000 		.4byte	.LFB185
 6550 002c 58000000 		.4byte	.LFE185-.LFB185
 6551 0030 00000000 		.4byte	.LFB186
 6552 0034 34000000 		.4byte	.LFE186-.LFB186
 6553 0038 00000000 		.4byte	.LFB187
 6554 003c 74000000 		.4byte	.LFE187-.LFB187
 6555 0040 00000000 		.4byte	.LFB188
 6556 0044 24000000 		.4byte	.LFE188-.LFB188
 6557 0048 00000000 		.4byte	.LFB189
 6558 004c 34000000 		.4byte	.LFE189-.LFB189
 6559 0050 00000000 		.4byte	.LFB190
 6560 0054 20000000 		.4byte	.LFE190-.LFB190
 6561 0058 00000000 		.4byte	.LFB191
 6562 005c 1C000000 		.4byte	.LFE191-.LFB191
 6563 0060 00000000 		.4byte	.LFB192
 6564 0064 C4020000 		.4byte	.LFE192-.LFB192
 6565 0068 00000000 		.4byte	0
 6566 006c 00000000 		.4byte	0
 6567              		.section	.debug_ranges,"",%progbits
 6568              	.Ldebug_ranges0:
 6569 0000 2E000000 		.4byte	.LBB106
 6570 0004 36000000 		.4byte	.LBE106
 6571 0008 38000000 		.4byte	.LBB109
 6572 000c 40000000 		.4byte	.LBE109
 6573 0010 00000000 		.4byte	0
 6574 0014 00000000 		.4byte	0
 6575 0018 00000000 		.4byte	.LBB110
 6576 001c 02000000 		.4byte	.LBE110
 6577 0020 04000000 		.4byte	.LBB124
 6578 0024 06000000 		.4byte	.LBE124
 6579 0028 00000000 		.4byte	0
 6580 002c 00000000 		.4byte	0
 6581 0030 02000000 		.4byte	.LBB119
 6582 0034 04000000 		.4byte	.LBE119
 6583 0038 08000000 		.4byte	.LBB132
 6584 003c 0A000000 		.4byte	.LBE132
 6585 0040 00000000 		.4byte	0
 6586 0044 00000000 		.4byte	0
 6587 0048 06000000 		.4byte	.LBB125
 6588 004c 08000000 		.4byte	.LBE125
 6589 0050 0A000000 		.4byte	.LBB133
 6590 0054 22000000 		.4byte	.LBE133
 6591 0058 00000000 		.4byte	0
 6592 005c 00000000 		.4byte	0
 6593 0060 12000000 		.4byte	.LBB127
 6594 0064 1A000000 		.4byte	.LBE127
 6595 0068 1C000000 		.4byte	.LBB130
ARM GAS  /tmp/ccVf3EPN.s 			page 180


 6596 006c 22000000 		.4byte	.LBE130
 6597 0070 00000000 		.4byte	0
 6598 0074 00000000 		.4byte	0
 6599 0078 02000000 		.4byte	.LBB138
 6600 007c 04000000 		.4byte	.LBE138
 6601 0080 08000000 		.4byte	.LBB141
 6602 0084 1C000000 		.4byte	.LBE141
 6603 0088 00000000 		.4byte	0
 6604 008c 00000000 		.4byte	0
 6605 0090 96000000 		.4byte	.LBB191
 6606 0094 9E000000 		.4byte	.LBE191
 6607 0098 28010000 		.4byte	.LBB217
 6608 009c 2A010000 		.4byte	.LBE217
 6609 00a0 2C010000 		.4byte	.LBB218
 6610 00a4 4E010000 		.4byte	.LBE218
 6611 00a8 00000000 		.4byte	0
 6612 00ac 00000000 		.4byte	0
 6613 00b0 96000000 		.4byte	.LBB193
 6614 00b4 9E000000 		.4byte	.LBE193
 6615 00b8 28010000 		.4byte	.LBB198
 6616 00bc 2A010000 		.4byte	.LBE198
 6617 00c0 2E010000 		.4byte	.LBB199
 6618 00c4 30010000 		.4byte	.LBE199
 6619 00c8 32010000 		.4byte	.LBB200
 6620 00cc 34010000 		.4byte	.LBE200
 6621 00d0 00000000 		.4byte	0
 6622 00d4 00000000 		.4byte	0
 6623 00d8 9E000000 		.4byte	.LBB203
 6624 00dc A6000000 		.4byte	.LBE203
 6625 00e0 78010000 		.4byte	.LBB221
 6626 00e4 8C010000 		.4byte	.LBE221
 6627 00e8 AC010000 		.4byte	.LBB224
 6628 00ec AE010000 		.4byte	.LBE224
 6629 00f0 00000000 		.4byte	0
 6630 00f4 00000000 		.4byte	0
 6631 00f8 00000000 		.4byte	.LFB182
 6632 00fc 2C000000 		.4byte	.LFE182
 6633 0100 00000000 		.4byte	.LFB183
 6634 0104 20000000 		.4byte	.LFE183
 6635 0108 00000000 		.4byte	.LFB184
 6636 010c 28000000 		.4byte	.LFE184
 6637 0110 00000000 		.4byte	.LFB185
 6638 0114 58000000 		.4byte	.LFE185
 6639 0118 00000000 		.4byte	.LFB186
 6640 011c 34000000 		.4byte	.LFE186
 6641 0120 00000000 		.4byte	.LFB187
 6642 0124 74000000 		.4byte	.LFE187
 6643 0128 00000000 		.4byte	.LFB188
 6644 012c 24000000 		.4byte	.LFE188
 6645 0130 00000000 		.4byte	.LFB189
 6646 0134 34000000 		.4byte	.LFE189
 6647 0138 00000000 		.4byte	.LFB190
 6648 013c 20000000 		.4byte	.LFE190
 6649 0140 00000000 		.4byte	.LFB191
 6650 0144 1C000000 		.4byte	.LFE191
 6651 0148 00000000 		.4byte	.LFB192
 6652 014c C4020000 		.4byte	.LFE192
ARM GAS  /tmp/ccVf3EPN.s 			page 181


 6653 0150 00000000 		.4byte	0
 6654 0154 00000000 		.4byte	0
 6655              		.section	.debug_line,"",%progbits
 6656              	.Ldebug_line0:
 6657 0000 DF040000 		.section	.debug_str,"MS",%progbits,1
 6657      0200A802 
 6657      00000201 
 6657      FB0E0D00 
 6657      01010101 
 6658              	.LASF47:
 6659 0000 63685F74 		.ascii	"ch_threads_list\000"
 6659      68726561 
 6659      64735F6C 
 6659      69737400 
 6660              	.LASF140:
 6661 0010 65786563 		.ascii	"execute_test\000"
 6661      7574655F 
 6661      74657374 
 6661      00
 6662              	.LASF92:
 6663 001d 77746D74 		.ascii	"wtmtxp\000"
 6663      787000
 6664              	.LASF120:
 6665 0024 63685654 		.ascii	"chVTIsTimeWithinX\000"
 6665      49735469 
 6665      6D655769 
 6665      7468696E 
 6665      5800
 6666              	.LASF72:
 6667 0036 72656761 		.ascii	"regarm_t\000"
 6667      726D5F74 
 6667      00
 6668              	.LASF156:
 6669 003f 63685468 		.ascii	"chThdSleep\000"
 6669      64536C65 
 6669      657000
 6670              	.LASF135:
 6671 004a 5F746573 		.ascii	"_test_assert_time_window\000"
 6671      745F6173 
 6671      73657274 
 6671      5F74696D 
 6671      655F7769 
 6672              	.LASF36:
 6673 0063 666C6167 		.ascii	"flags\000"
 6673      7300
 6674              	.LASF27:
 6675 0069 73797374 		.ascii	"systime_t\000"
 6675      696D655F 
 6675      7400
 6676              	.LASF148:
 6677 0073 74657374 		.ascii	"test_chp\000"
 6677      5F636870 
 6677      00
 6678              	.LASF42:
 6679 007c 7265616C 		.ascii	"realprio\000"
 6679      7072696F 
 6679      00
ARM GAS  /tmp/ccVf3EPN.s 			page 182


 6680              	.LASF107:
 6681 0085 74657374 		.ascii	"testcase_t\000"
 6681      63617365 
 6681      5F7400
 6682              	.LASF40:
 6683 0090 6570656E 		.ascii	"epending\000"
 6683      64696E67 
 6683      00
 6684              	.LASF0:
 6685 0099 756E7369 		.ascii	"unsigned int\000"
 6685      676E6564 
 6685      20696E74 
 6685      00
 6686              	.LASF48:
 6687 00a6 6E657874 		.ascii	"next\000"
 6687      00
 6688              	.LASF115:
 6689 00ab 63685654 		.ascii	"chVTGetSystemTimeX\000"
 6689      47657453 
 6689      79737465 
 6689      6D54696D 
 6689      655800
 6690              	.LASF137:
 6691 00be 74657374 		.ascii	"test_emit_token\000"
 6691      5F656D69 
 6691      745F746F 
 6691      6B656E00 
 6692              	.LASF45:
 6693 00ce 74687265 		.ascii	"threads_list_t\000"
 6693      6164735F 
 6693      6C697374 
 6693      5F7400
 6694              	.LASF8:
 6695 00dd 5F5F696E 		.ascii	"__int32_t\000"
 6695      7433325F 
 6695      7400
 6696              	.LASF37:
 6697 00e7 72656673 		.ascii	"refs\000"
 6697      00
 6698              	.LASF99:
 6699 00ec 42617365 		.ascii	"BaseSequentialStreamVMT\000"
 6699      53657175 
 6699      656E7469 
 6699      616C5374 
 6699      7265616D 
 6700              	.LASF88:
 6701 0104 77746F62 		.ascii	"wtobjp\000"
 6701      6A7000
 6702              	.LASF110:
 6703 010b 706F7274 		.ascii	"port_lock\000"
 6703      5F6C6F63 
 6703      6B00
 6704              	.LASF69:
 6705 0115 76746C69 		.ascii	"vtlist\000"
 6705      737400
 6706              	.LASF74:
 6707 011c 706F7274 		.ascii	"port_context\000"
ARM GAS  /tmp/ccVf3EPN.s 			page 183


 6707      5F636F6E 
 6707      74657874 
 6707      00
 6708              	.LASF123:
 6709 0129 5F746573 		.ascii	"_test_assert\000"
 6709      745F6173 
 6709      73657274 
 6709      00
 6710              	.LASF53:
 6711 0136 63685F72 		.ascii	"ch_ready_list\000"
 6711      65616479 
 6711      5F6C6973 
 6711      7400
 6712              	.LASF59:
 6713 0144 66756E63 		.ascii	"func\000"
 6713      00
 6714              	.LASF93:
 6715 0149 65776D61 		.ascii	"ewmask\000"
 6715      736B00
 6716              	.LASF51:
 6717 0150 70726576 		.ascii	"prev\000"
 6717      00
 6718              	.LASF50:
 6719 0155 63685F74 		.ascii	"ch_threads_queue\000"
 6719      68726561 
 6719      64735F71 
 6719      75657565 
 6719      00
 6720              	.LASF82:
 6721 0166 444D4152 		.ascii	"DMAR\000"
 6721      00
 6722              	.LASF55:
 6723 016b 76746675 		.ascii	"vtfunc_t\000"
 6723      6E635F74 
 6723      00
 6724              	.LASF64:
 6725 0174 63685F73 		.ascii	"ch_system_debug\000"
 6725      79737465 
 6725      6D5F6465 
 6725      62756700 
 6726              	.LASF152:
 6727 0184 474E5520 		.ascii	"GNU C 4.8.3 -mcpu=cortex-m0 -mno-thumb-interwork -m"
 6727      4320342E 
 6727      382E3320 
 6727      2D6D6370 
 6727      753D636F 
 6728 01b7 7468756D 		.ascii	"thumb -ggdb -O2 -fomit-frame-pointer -falign-functi"
 6728      62202D67 
 6728      67646220 
 6728      2D4F3220 
 6728      2D666F6D 
 6729 01ea 6F6E733D 		.ascii	"ons=16 -ffunction-sections -fdata-sections -fno-com"
 6729      3136202D 
 6729      6666756E 
 6729      6374696F 
 6729      6E2D7365 
 6730 021d 6D6F6E20 		.ascii	"mon -flto\000"
ARM GAS  /tmp/ccVf3EPN.s 			page 184


 6730      2D666C74 
 6730      6F00
 6731              	.LASF18:
 6732 0227 75696E74 		.ascii	"uint32_t\000"
 6732      33325F74 
 6732      00
 6733              	.LASF90:
 6734 0230 73656E74 		.ascii	"sentmsg\000"
 6734      6D736700 
 6735              	.LASF25:
 6736 0238 6576656E 		.ascii	"eventmask_t\000"
 6736      746D6173 
 6736      6B5F7400 
 6737              	.LASF81:
 6738 0244 42445452 		.ascii	"BDTR\000"
 6738      00
 6739              	.LASF94:
 6740 0249 63685F73 		.ascii	"ch_semaphore\000"
 6740      656D6170 
 6740      686F7265 
 6740      00
 6741              	.LASF23:
 6742 0256 74707269 		.ascii	"tprio_t\000"
 6742      6F5F7400 
 6743              	.LASF57:
 6744 025e 63685F76 		.ascii	"ch_virtual_timer\000"
 6744      69727475 
 6744      616C5F74 
 6744      696D6572 
 6744      00
 6745              	.LASF78:
 6746 026f 43434D52 		.ascii	"CCMR1\000"
 6746      3100
 6747              	.LASF79:
 6748 0275 43434D52 		.ascii	"CCMR2\000"
 6748      3200
 6749              	.LASF83:
 6750 027b 43434D52 		.ascii	"CCMR3\000"
 6750      3300
 6751              	.LASF119:
 6752 0281 6F73616C 		.ascii	"osalOsGetSystemTimeX\000"
 6752      4F734765 
 6752      74537973 
 6752      74656D54 
 6752      696D6558 
 6753              	.LASF14:
 6754 0296 6C6F6E67 		.ascii	"long long unsigned int\000"
 6754      206C6F6E 
 6754      6720756E 
 6754      7369676E 
 6754      65642069 
 6755              	.LASF112:
 6756 02ad 73745F6C 		.ascii	"st_lld_get_counter\000"
 6756      6C645F67 
 6756      65745F63 
 6756      6F756E74 
 6756      657200
ARM GAS  /tmp/ccVf3EPN.s 			page 185


 6757              	.LASF121:
 6758 02c0 6F73616C 		.ascii	"osalOsIsTimeWithinX\000"
 6758      4F734973 
 6758      54696D65 
 6758      57697468 
 6758      696E5800 
 6759              	.LASF122:
 6760 02d4 5F746573 		.ascii	"_test_fail\000"
 6760      745F6661 
 6760      696C00
 6761              	.LASF150:
 6762 02df 74657374 		.ascii	"test_global_fail\000"
 6762      5F676C6F 
 6762      62616C5F 
 6762      6661696C 
 6762      00
 6763              	.LASF6:
 6764 02f0 5F5F7569 		.ascii	"__uint16_t\000"
 6764      6E743136 
 6764      5F7400
 6765              	.LASF26:
 6766 02fb 636E745F 		.ascii	"cnt_t\000"
 6766      7400
 6767              	.LASF131:
 6768 0301 63685379 		.ascii	"chSysUnlock\000"
 6768      73556E6C 
 6768      6F636B00 
 6769              	.LASF116:
 6770 030d 74696D65 		.ascii	"time\000"
 6770      00
 6771              	.LASF96:
 6772 0312 6F776E65 		.ascii	"owner\000"
 6772      7200
 6773              	.LASF49:
 6774 0318 74687265 		.ascii	"threads_queue_t\000"
 6774      6164735F 
 6774      71756575 
 6774      655F7400 
 6775              	.LASF41:
 6776 0328 6D74786C 		.ascii	"mtxlist\000"
 6776      69737400 
 6777              	.LASF61:
 6778 0330 63685F76 		.ascii	"ch_virtual_timers_list\000"
 6778      69727475 
 6778      616C5F74 
 6778      696D6572 
 6778      735F6C69 
 6779              	.LASF28:
 6780 0347 74687265 		.ascii	"thread_t\000"
 6780      61645F74 
 6780      00
 6781              	.LASF2:
 6782 0350 73697A65 		.ascii	"size_t\000"
 6782      5F7400
 6783              	.LASF86:
 6784 0357 7264796D 		.ascii	"rdymsg\000"
 6784      736700
ARM GAS  /tmp/ccVf3EPN.s 			page 186


 6785              	.LASF108:
 6786 035e 5F5F6469 		.ascii	"__disable_irq\000"
 6786      7361626C 
 6786      655F6972 
 6786      7100
 6787              	.LASF147:
 6788 036c 74657374 		.ascii	"test_tokp\000"
 6788      5F746F6B 
 6788      7000
 6789              	.LASF85:
 6790 0376 73746D33 		.ascii	"stm32_tim_t\000"
 6790      325F7469 
 6790      6D5F7400 
 6791              	.LASF103:
 6792 0382 5F426F6F 		.ascii	"_Bool\000"
 6792      6C00
 6793              	.LASF149:
 6794 0388 74657374 		.ascii	"test_step\000"
 6794      5F737465 
 6794      7000
 6795              	.LASF95:
 6796 0392 63685F6D 		.ascii	"ch_mutex\000"
 6796      75746578 
 6796      00
 6797              	.LASF13:
 6798 039b 5F5F7569 		.ascii	"__uint64_t\000"
 6798      6E743634 
 6798      5F7400
 6799              	.LASF77:
 6800 03a6 44494552 		.ascii	"DIER\000"
 6800      00
 6801              	.LASF139:
 6802 03ab 74657374 		.ascii	"test_emit_token_i\000"
 6802      5F656D69 
 6802      745F746F 
 6802      6B656E5F 
 6802      6900
 6803              	.LASF113:
 6804 03bd 706F7274 		.ascii	"port_timer_get_time\000"
 6804      5F74696D 
 6804      65725F67 
 6804      65745F74 
 6804      696D6500 
 6805              	.LASF127:
 6806 03d1 74657374 		.ascii	"test_print\000"
 6806      5F707269 
 6806      6E7400
 6807              	.LASF114:
 6808 03dc 63685379 		.ascii	"chSysLock\000"
 6808      734C6F63 
 6808      6B00
 6809              	.LASF102:
 6810 03e6 42617365 		.ascii	"BaseSequentialStream\000"
 6810      53657175 
 6810      656E7469 
 6810      616C5374 
 6810      7265616D 
ARM GAS  /tmp/ccVf3EPN.s 			page 187


 6811              	.LASF155:
 6812 03fb 7072696E 		.ascii	"print_line\000"
 6812      745F6C69 
 6812      6E6500
 6813              	.LASF30:
 6814 0406 7072696F 		.ascii	"prio\000"
 6814      00
 6815              	.LASF80:
 6816 040b 43434552 		.ascii	"CCER\000"
 6816      00
 6817              	.LASF97:
 6818 0410 63686172 		.ascii	"char\000"
 6818      00
 6819              	.LASF130:
 6820 0415 6F73616C 		.ascii	"osalSysUnlock\000"
 6820      53797355 
 6820      6E6C6F63 
 6820      6B00
 6821              	.LASF44:
 6822 0423 74687265 		.ascii	"thread_reference_t\000"
 6822      61645F72 
 6822      65666572 
 6822      656E6365 
 6822      5F7400
 6823              	.LASF34:
 6824 0436 77616261 		.ascii	"wabase\000"
 6824      736500
 6825              	.LASF21:
 6826 043d 74737461 		.ascii	"tstate_t\000"
 6826      74655F74 
 6826      00
 6827              	.LASF101:
 6828 0446 72656164 		.ascii	"read\000"
 6828      00
 6829              	.LASF151:
 6830 044b 74657374 		.ascii	"test_suite\000"
 6830      5F737569 
 6830      746500
 6831              	.LASF15:
 6832 0456 75696E74 		.ascii	"uint8_t\000"
 6832      385F7400 
 6833              	.LASF142:
 6834 045e 74657374 		.ascii	"test_execute\000"
 6834      5F657865 
 6834      63757465 
 6834      00
 6835              	.LASF39:
 6836 046b 6D736771 		.ascii	"msgqueue\000"
 6836      75657565 
 6836      00
 6837              	.LASF76:
 6838 0474 534D4352 		.ascii	"SMCR\000"
 6838      00
 6839              	.LASF46:
 6840 0479 63685F74 		.ascii	"ch_thread\000"
 6840      68726561 
 6840      6400
ARM GAS  /tmp/ccVf3EPN.s 			page 188


 6841              	.LASF106:
 6842 0483 65786563 		.ascii	"execute\000"
 6842      75746500 
 6843              	.LASF63:
 6844 048b 73797374 		.ascii	"system_debug_t\000"
 6844      656D5F64 
 6844      65627567 
 6844      5F7400
 6845              	.LASF12:
 6846 049a 6C6F6E67 		.ascii	"long long int\000"
 6846      206C6F6E 
 6846      6720696E 
 6846      7400
 6847              	.LASF100:
 6848 04a8 77726974 		.ascii	"write\000"
 6848      6500
 6849              	.LASF144:
 6850 04ae 74657374 		.ascii	"test_local_fail\000"
 6850      5F6C6F63 
 6850      616C5F66 
 6850      61696C00 
 6851              	.LASF24:
 6852 04be 6D73675F 		.ascii	"msg_t\000"
 6852      7400
 6853              	.LASF133:
 6854 04c4 65787065 		.ascii	"expected\000"
 6854      63746564 
 6854      00
 6855              	.LASF105:
 6856 04cd 74656172 		.ascii	"teardown\000"
 6856      646F776E 
 6856      00
 6857              	.LASF56:
 6858 04d6 76697274 		.ascii	"virtual_timer_t\000"
 6858      75616C5F 
 6858      74696D65 
 6858      725F7400 
 6859              	.LASF145:
 6860 04e6 74657374 		.ascii	"test_failure_message\000"
 6860      5F666169 
 6860      6C757265 
 6860      5F6D6573 
 6860      73616765 
 6861              	.LASF132:
 6862 04fb 6F73616C 		.ascii	"osalThreadSleep\000"
 6862      54687265 
 6862      6164536C 
 6862      65657000 
 6863              	.LASF65:
 6864 050b 70616E69 		.ascii	"panic_msg\000"
 6864      635F6D73 
 6864      6700
 6865              	.LASF20:
 6866 0515 746D6F64 		.ascii	"tmode_t\000"
 6866      655F7400 
 6867              	.LASF70:
 6868 051d 6D61696E 		.ascii	"mainthread\000"
ARM GAS  /tmp/ccVf3EPN.s 			page 189


 6868      74687265 
 6868      616400
 6869              	.LASF16:
 6870 0528 75696E74 		.ascii	"uint16_t\000"
 6870      31365F74 
 6870      00
 6871              	.LASF138:
 6872 0531 746F6B65 		.ascii	"token\000"
 6872      6E00
 6873              	.LASF84:
 6874 0537 43435852 		.ascii	"CCXR\000"
 6874      00
 6875              	.LASF5:
 6876 053c 73686F72 		.ascii	"short int\000"
 6876      7420696E 
 6876      7400
 6877              	.LASF9:
 6878 0546 6C6F6E67 		.ascii	"long int\000"
 6878      20696E74 
 6878      00
 6879              	.LASF75:
 6880 054f 706F7274 		.ascii	"port_intctx\000"
 6880      5F696E74 
 6880      63747800 
 6881              	.LASF109:
 6882 055b 5F5F656E 		.ascii	"__enable_irq\000"
 6882      61626C65 
 6882      5F697271 
 6882      00
 6883              	.LASF67:
 6884 0568 63685F73 		.ascii	"ch_system\000"
 6884      79737465 
 6884      6D00
 6885              	.LASF153:
 6886 0572 2E2E2F2E 		.ascii	"../../../test/lib/ch_test.c\000"
 6886      2E2F2E2E 
 6886      2F746573 
 6886      742F6C69 
 6886      622F6368 
 6887              	.LASF62:
 6888 058e 6C617374 		.ascii	"lasttime\000"
 6888      74696D65 
 6888      00
 6889              	.LASF19:
 6890 0597 75696E74 		.ascii	"uint64_t\000"
 6890      36345F74 
 6890      00
 6891              	.LASF68:
 6892 05a0 726C6973 		.ascii	"rlist\000"
 6892      7400
 6893              	.LASF3:
 6894 05a6 5F5F7569 		.ascii	"__uint8_t\000"
 6894      6E74385F 
 6894      7400
 6895              	.LASF125:
 6896 05b0 5F5F6675 		.ascii	"__func__.4890\000"
 6896      6E635F5F 
ARM GAS  /tmp/ccVf3EPN.s 			page 190


 6896      2E343839 
 6896      3000
 6897              	.LASF33:
 6898 05be 6E616D65 		.ascii	"name\000"
 6898      00
 6899              	.LASF117:
 6900 05c3 73746172 		.ascii	"start\000"
 6900      7400
 6901              	.LASF71:
 6902 05c9 73697A65 		.ascii	"sizetype\000"
 6902      74797065 
 6902      00
 6903              	.LASF22:
 6904 05d2 74726566 		.ascii	"trefs_t\000"
 6904      735F7400 
 6905              	.LASF11:
 6906 05da 6C6F6E67 		.ascii	"long unsigned int\000"
 6906      20756E73 
 6906      69676E65 
 6906      6420696E 
 6906      7400
 6907              	.LASF52:
 6908 05ec 72656164 		.ascii	"ready_list_t\000"
 6908      795F6C69 
 6908      73745F74 
 6908      00
 6909              	.LASF126:
 6910 05f9 74657374 		.ascii	"test_printn\000"
 6910      5F707269 
 6910      6E746E00 
 6911              	.LASF29:
 6912 0605 71756575 		.ascii	"queue\000"
 6912      6500
 6913              	.LASF129:
 6914 060b 6F73616C 		.ascii	"osalSysLock\000"
 6914      5379734C 
 6914      6F636B00 
 6915              	.LASF17:
 6916 0617 696E7433 		.ascii	"int32_t\000"
 6916      325F7400 
 6917              	.LASF98:
 6918 061f 6D757465 		.ascii	"mutex_t\000"
 6918      785F7400 
 6919              	.LASF31:
 6920 0627 6E657765 		.ascii	"newer\000"
 6920      7200
 6921              	.LASF4:
 6922 062d 756E7369 		.ascii	"unsigned char\000"
 6922      676E6564 
 6922      20636861 
 6922      7200
 6923              	.LASF104:
 6924 063b 73657475 		.ascii	"setup\000"
 6924      7000
 6925              	.LASF10:
 6926 0641 5F5F7569 		.ascii	"__uint32_t\000"
 6926      6E743332 
ARM GAS  /tmp/ccVf3EPN.s 			page 191


 6926      5F7400
 6927              	.LASF38:
 6928 064c 77616974 		.ascii	"waiting\000"
 6928      696E6700 
 6929              	.LASF60:
 6930 0654 76697274 		.ascii	"virtual_timers_list_t\000"
 6930      75616C5F 
 6930      74696D65 
 6930      72735F6C 
 6930      6973745F 
 6931              	.LASF136:
 6932 066a 74657374 		.ascii	"test_println\000"
 6932      5F707269 
 6932      6E746C6E 
 6932      00
 6933              	.LASF35:
 6934 0677 73746174 		.ascii	"state\000"
 6934      6500
 6935              	.LASF66:
 6936 067d 63685F73 		.ascii	"ch_system_t\000"
 6936      79737465 
 6936      6D5F7400 
 6937              	.LASF91:
 6938 0689 77747365 		.ascii	"wtsemp\000"
 6938      6D7000
 6939              	.LASF89:
 6940 0690 77747472 		.ascii	"wttrp\000"
 6940      7000
 6941              	.LASF1:
 6942 0696 7369676E 		.ascii	"signed char\000"
 6942      65642063 
 6942      68617200 
 6943              	.LASF141:
 6944 06a2 7072696E 		.ascii	"print_tokens\000"
 6944      745F746F 
 6944      6B656E73 
 6944      00
 6945              	.LASF58:
 6946 06af 64656C74 		.ascii	"delta\000"
 6946      6100
 6947              	.LASF7:
 6948 06b5 73686F72 		.ascii	"short unsigned int\000"
 6948      7420756E 
 6948      7369676E 
 6948      65642069 
 6948      6E7400
 6949              	.LASF73:
 6950 06c8 73746B61 		.ascii	"stkalign_t\000"
 6950      6C69676E 
 6950      5F7400
 6951              	.LASF54:
 6952 06d3 63757272 		.ascii	"current\000"
 6952      656E7400 
 6953              	.LASF128:
 6954 06db 6D736770 		.ascii	"msgp\000"
 6954      00
 6955              	.LASF111:
ARM GAS  /tmp/ccVf3EPN.s 			page 192


 6956 06e0 706F7274 		.ascii	"port_unlock\000"
 6956      5F756E6C 
 6956      6F636B00 
 6957              	.LASF146:
 6958 06ec 74657374 		.ascii	"test_tokens_buffer\000"
 6958      5F746F6B 
 6958      656E735F 
 6958      62756666 
 6958      657200
 6959              	.LASF143:
 6960 06ff 73747265 		.ascii	"stream\000"
 6960      616D00
 6961              	.LASF134:
 6962 0706 5F746573 		.ascii	"_test_assert_sequence\000"
 6962      745F6173 
 6962      73657274 
 6962      5F736571 
 6962      75656E63 
 6963              	.LASF32:
 6964 071c 6F6C6465 		.ascii	"older\000"
 6964      7200
 6965              	.LASF124:
 6966 0722 636F6E64 		.ascii	"condition\000"
 6966      6974696F 
 6966      6E00
 6967              	.LASF154:
 6968 072c 2F686F6D 		.ascii	"/home/awygle/ChibiOS-RT/demos/STM32/RT-STM32F030R8-"
 6968      652F6177 
 6968      79676C65 
 6968      2F436869 
 6968      62694F53 
 6969 075f 4E55434C 		.ascii	"NUCLEO64\000"
 6969      454F3634 
 6969      00
 6970              	.LASF87:
 6971 0768 65786974 		.ascii	"exitcode\000"
 6971      636F6465 
 6971      00
 6972              	.LASF118:
 6973 0771 636C6561 		.ascii	"clear_tokens\000"
 6973      725F746F 
 6973      6B656E73 
 6973      00
 6974              	.LASF43:
 6975 077e 6D706F6F 		.ascii	"mpool\000"
 6975      6C00
 6976              		.comm	__gnu_lto_v1,1,1
 6977              		.ident	"GCC: (4.8.3-18ubuntu2+12) 4.8.3"
ARM GAS  /tmp/ccVf3EPN.s 			page 193


DEFINED SYMBOLS
                            *ABS*:0000000000000000 ch_test.c
     /tmp/ccVf3EPN.s:1014   .text.print_line:0000000000000000 $t
     /tmp/ccVf3EPN.s:1019   .text.print_line:0000000000000000 print_line
     /tmp/ccVf3EPN.s:1062   .text.print_line:0000000000000024 $d
     /tmp/ccVf3EPN.s:1068   .text._test_fail:0000000000000000 $t
     /tmp/ccVf3EPN.s:1074   .text._test_fail:0000000000000000 _test_fail
     /tmp/ccVf3EPN.s:1099   .text._test_fail:0000000000000014 $d
     /tmp/ccVf3EPN.s:1106   .text._test_assert:0000000000000000 $t
     /tmp/ccVf3EPN.s:1112   .text._test_assert:0000000000000000 _test_assert
     /tmp/ccVf3EPN.s:1149   .text._test_assert:000000000000001c $d
     /tmp/ccVf3EPN.s:1156   .text._test_assert_sequence:0000000000000000 $t
     /tmp/ccVf3EPN.s:1162   .text._test_assert_sequence:0000000000000000 _test_assert_sequence
     /tmp/ccVf3EPN.s:1249   .text._test_assert_sequence:0000000000000044 $d
     /tmp/ccVf3EPN.s:1258   .text._test_assert_time_window:0000000000000000 $t
     /tmp/ccVf3EPN.s:1264   .text._test_assert_time_window:0000000000000000 _test_assert_time_window
     /tmp/ccVf3EPN.s:1362   .text._test_assert_time_window:0000000000000024 $d
     /tmp/ccVf3EPN.s:1372   .text.test_printn:0000000000000000 $t
     /tmp/ccVf3EPN.s:1378   .text.test_printn:0000000000000000 test_printn
     /tmp/ccVf3EPN.s:1479   .text.test_printn:0000000000000070 $d
     /tmp/ccVf3EPN.s:1486   .text.test_print:0000000000000000 $t
     /tmp/ccVf3EPN.s:1492   .text.test_print:0000000000000000 test_print
     /tmp/ccVf3EPN.s:1533   .text.test_print:0000000000000020 $d
     /tmp/ccVf3EPN.s:1538   .text.test_println:0000000000000000 $t
     /tmp/ccVf3EPN.s:1544   .text.test_println:0000000000000000 test_println
     /tmp/ccVf3EPN.s:1601   .text.test_println:000000000000002c $d
     /tmp/ccVf3EPN.s:1607   .text.test_emit_token:0000000000000000 $t
     /tmp/ccVf3EPN.s:1613   .text.test_emit_token:0000000000000000 test_emit_token
     /tmp/ccVf3EPN.s:1669   .text.test_emit_token:0000000000000018 $d
     /tmp/ccVf3EPN.s:1675   .text.test_emit_token_i:0000000000000000 $t
     /tmp/ccVf3EPN.s:1681   .text.test_emit_token_i:0000000000000000 test_emit_token_i
     /tmp/ccVf3EPN.s:1704   .text.test_emit_token_i:0000000000000014 $d
     /tmp/ccVf3EPN.s:1710   .text.test_execute:0000000000000000 $t
     /tmp/ccVf3EPN.s:1716   .text.test_execute:0000000000000000 test_execute
     /tmp/ccVf3EPN.s:2316   .text.test_execute:0000000000000250 $d
     /tmp/ccVf3EPN.s:2454   .bss.test_global_fail:0000000000000000 test_global_fail
     /tmp/ccVf3EPN.s:2441   .bss.test_step:0000000000000000 test_step
     /tmp/ccVf3EPN.s:2351   .bss.test_failure_message:0000000000000000 $d
     /tmp/ccVf3EPN.s:2355   .bss.test_failure_message:0000000000000000 test_failure_message
     /tmp/ccVf3EPN.s:2361   .bss.test_local_fail:0000000000000000 test_local_fail
     /tmp/ccVf3EPN.s:2362   .bss.test_local_fail:0000000000000000 $d
     /tmp/ccVf3EPN.s:2364   .rodata.str1.4:0000000000000000 $d
     /tmp/ccVf3EPN.s:2376   .rodata.str1.4:0000000000000028 .LC38
     /tmp/ccVf3EPN.s:2382   .rodata.str1.4:0000000000000068 .LC44
     /tmp/ccVf3EPN.s:2388   .rodata.str1.4:000000000000007c .LC51
     /tmp/ccVf3EPN.s:2391   .rodata.str1.4:0000000000000094 .LC53
     /tmp/ccVf3EPN.s:2405   .rodata.str1.4:00000000000000d8 .LC66
     /tmp/ccVf3EPN.s:2411   .rodata.str1.4:0000000000000118 .LC70
     /tmp/ccVf3EPN.s:2414   .rodata.str1.4:000000000000012c .LC72
     /tmp/ccVf3EPN.s:2417   .rodata.str1.4:0000000000000130 .LC75
     /tmp/ccVf3EPN.s:2420   .rodata.str1.4:0000000000000134 .LC77
     /tmp/ccVf3EPN.s:2423   .bss.test_chp:0000000000000000 $d
     /tmp/ccVf3EPN.s:2427   .bss.test_chp:0000000000000000 test_chp
     /tmp/ccVf3EPN.s:2430   .bss.test_tokp:0000000000000000 $d
     /tmp/ccVf3EPN.s:2434   .bss.test_tokp:0000000000000000 test_tokp
     /tmp/ccVf3EPN.s:2437   .bss.test_step:0000000000000000 $d
     /tmp/ccVf3EPN.s:2444   .bss.test_tokens_buffer:0000000000000000 $d
ARM GAS  /tmp/ccVf3EPN.s 			page 194


     /tmp/ccVf3EPN.s:2448   .bss.test_tokens_buffer:0000000000000000 test_tokens_buffer
     /tmp/ccVf3EPN.s:2455   .bss.test_global_fail:0000000000000000 $d
                            *COM*:0000000000000001 __gnu_lto_v1
                     .debug_frame:0000000000000010 $d
     /tmp/ccVf3EPN.s:1067   .text.print_line:000000000000002c $t
     /tmp/ccVf3EPN.s:1155   .text._test_assert:0000000000000028 $t
     /tmp/ccVf3EPN.s:1257   .text._test_assert_sequence:0000000000000058 $t
     /tmp/ccVf3EPN.s:1371   .text._test_assert_time_window:0000000000000034 $t
     /tmp/ccVf3EPN.s:1485   .text.test_printn:0000000000000074 $t
     /tmp/ccVf3EPN.s:1537   .text.test_print:0000000000000024 $t
     /tmp/ccVf3EPN.s:1606   .text.test_println:0000000000000034 $t
     /tmp/ccVf3EPN.s:1709   .text.test_emit_token_i:000000000000001c $t
     /tmp/ccVf3EPN.s:2350   .text.test_execute:00000000000002c4 $t

UNDEFINED SYMBOLS
__aeabi_uidivmod
__aeabi_uidiv
chThdSleep
test_suite
