ARM GAS  /tmp/ccxDmDcp.s 			page 1


   1              		.cpu cortex-m0
   2              		.fpu softvfp
   3              		.eabi_attribute 20, 1
   4              		.eabi_attribute 21, 1
   5              		.eabi_attribute 23, 3
   6              		.eabi_attribute 24, 1
   7              		.eabi_attribute 25, 1
   8              		.eabi_attribute 26, 1
   9              		.eabi_attribute 30, 2
  10              		.eabi_attribute 34, 0
  11              		.eabi_attribute 18, 4
  12              		.code	16
  13              		.file	"chdynamic.c"
  14              		.text
  15              	.Ltext0:
  16              		.section	.gnu.lto_.jmpfuncs.80d5c452cf215786,"",%progbits
  17 0000 789C6362 		.ascii	"x\234cb`b\300\006\"\2404\023\203=\023\003#c\007S\004"
  17      6062C006 
  17      22A03413 
  17      833D1303 
  17      23630753 
  18 0015 63262303 		.ascii	"c&#\003#\003\230f\004J\000133\220.cd\000R\214e\014\020"
  18      23039866 
  18      044A0031 
  18      3333902E 
  18      63640052 
  19 002d 29260E20 		.ascii	")&\016 G\036I\013\023\212\026F\250\026\006\000f\372"
  19      471E490B 
  19      138A1646 
  19      A8160600 
  19      66FA
  20 003f 0732     		.ascii	"\0072"
  21              		.text
  22              		.section	.gnu.lto_.inline.80d5c452cf215786,"",%progbits
  23 0000 789C6362 		.ascii	"x\234cb`b\300\006\302\2414\023\203\204\224\021#\003"
  23      6062C006 
  23      C2A13413 
  23      83849411 
  23      2303
  24 0012 93C48A2D 		.ascii	"\223\304\212-\214\014l\013\344\301\252\231y\200\022"
  24      8C0C6C0B 
  24      E4C1AA99 
  24      798012
  25 0021 13FCC034 		.ascii	"\023\374\3004#\003+\037Pd\202\037\220\317\010Q+}\355"
  25      23032B1F 
  25      5064821F 
  25      90CF0851 
  25      2B7DED
  26 0034 142303FB 		.ascii	"\024#\003\373-5,j\301$\220\007\000\372L\012\354"
  26      2D352C6A 
  26      C1249007 
  26      00FA4C0A 
  26      EC
  27              		.text
  28              		.section	.gnu.lto_.pureconst.80d5c452cf215786,"",%progbits
  29 0000 789C6362 		.ascii	"x\234cb`b`e\200\000&\006+F+\000\001\206\000\201"
  29      60626065 
ARM GAS  /tmp/ccxDmDcp.s 			page 2


  29      80002606 
  29      2B462B00 
  29      01860081 
  30              		.text
  31              		.section	.gnu.lto_chThdCreateFromHeap.80d5c452cf215786,"",%progbits
  32 0000 789C8D54 		.ascii	"x\234\215T]H\024Q\024>\347\316\214\273\272nj\271P *"
  32      5D481451 
  32      143EE7CE 
  32      8CBBBA6E 
  32      6AB95020 
  33 0015 4250440E 		.ascii	"BPD\016Q\364\\\370$\341K&\324\223\350u\321\201\326]"
  33      51F45CF8 
  33      24E14B26 
  33      D493E875 
  33      D181D65D 
  34 0029 76B65222 		.ascii	"v\266R\"\274\376$F?H\004\375Q)\"A\010=\204\344\213\260"
  34      BCFE2446 
  34      3F4804FD 
  34      51292241 
  34      083D84E4 
  35 003f FD495A2A 		.ascii	"\375IZ*\275\025$-\370\220 \025a\220dh\347\316\235\031"
  35      BD15242D 
  35      F8902015 
  35      61906468 
  35      E7CE9D19 
  36 0053 573368D8 		.ascii	"W3h\330\271w\316\271\3379\347;\347\334\263\014\030l"
  36      B977CEB9 
  36      DF39E73B 
  36      E7DCB30C 
  36      186C
  37 0065 7E0ED23B 		.ascii	"~\016\322;\242\003\274\242\035\015@\326?\003\320\031"
  37      A203BCA2 
  37      1D0D40D6 
  37      3F03D019 
  38 0075 644C9FD2 		.ascii	"dL\237\322@\344i\023S\000\"_C]\351uD\371\001\010\035"
  38      40E46913 
  38      5300225F 
  38      435DE975 
  38      44F90108 
  39 008a 4CD3B1E3 		.ascii	"L\323\261\343\024J'Z\005\014\012q=3\274\270\200\267"
  39      144A275A 
  39      050C0A71 
  39      3D33BCB8 
  39      80B7
  40 009c 45BA6740 		.ascii	"E\272g@\374^[C\264\220\002V p\204\223$`\271\2631}#\003"
  40      FC5E5B43 
  40      B4900256 
  40      20708493 
  40      2460B9B3 
  41 00b4 659B9E9B 		.ascii	"e\233\236\233\270\262K\014t\365\213U2\265Pc\260\373"
  41      B8B24B0C 
  41      74F58B55 
  41      32B55063 
  41      B0FB
  42 00c6 7F2CD3FD 		.ascii	"\177,\323\375\351\225\211\233\230e\2513\330\273n\231"
  42      E995899B 
  42      9865A933 
ARM GAS  /tmp/ccxDmDcp.s 			page 3


  42      D8BB6E99 
  43 00d6 563BDBB9 		.ascii	"V;\333\271\321\3641Kg\326\326\336\216\216\315/bQ\011"
  43      D1F4314B 
  43      67D6D6DE 
  43      8E8ECD2F 
  43      625109
  44 00e9 0251D531 		.ascii	"\002Q\3251\206`\320\202\001h\300!\254\200 \011,DgF\230"
  44      8660D082 
  44      0168C021 
  44      AC802009 
  44      2C446746 
  45 00fe BEB4025A 		.ascii	"\276\264\002Z\364\"Z\214\010\001\006\011@\217\001=B"
  45      F4225A8C 
  45      08010609 
  45      408F013D 
  45      42
  46 010f F4972B59 		.ascii	"\364\227+Y\2315\340\260s\306\235\332\234\240U\226\254"
  46      9935E0B0 
  46      73C69DDA 
  46      9CA05596 
  46      AC
  47 0120 0E99DCB5 		.ascii	"\016\231\334\265Y\350\315\214\315c\003>\244r7c\340<"
  47      59E8CD8C 
  47      CD63033E 
  47      A4723763 
  47      E03C
  48 0132 FC127DA2 		.ascii	"\374\022}\242\320\302\034\216\216\001)\365f4$\353@\220"
  48      D0C21C8E 
  48      8E0129F5 
  48      663424EB 
  48      4090
  49 0144 82070126 		.ascii	"\202\007\001&\201)\274\012@V\000\257\341\345\347gK\275"
  49      8129BC0A 
  49      405600AF 
  49      E1E5E767 
  49      4BBD
  50 0156 9AEF481A 		.ascii	"\232\357H\032h\3319\326\221H\355\323\246\241\353\315"
  50      68D939D6 
  50      9148EDD3 
  50      A6A1EBCD 
  51 0166 D8B765D7 		.ascii	"\330\267e\327\305>x$\204\214\227\253x6\252\240\344\201"
  51      C53E7824 
  51      848C97AB 
  51      7836AAA0 
  51      E481
  52 0178 0211B47A 		.ascii	"\002\021\264z\023\314\360`\036\271\200\204u_\356\036"
  52      13CCF060 
  52      1EB98084 
  52      755FEE1E 
  53 0188 BA6678B1 		.ascii	"\272fx\261C\244%\312\216\375\344\026\241|\037\314\365"
  53      43A425CA 
  53      8EFDE416 
  53      A17C1FCC 
  53      F5
  54 0199 1172A0C7 		.ascii	"\021r\240\3076\301\362<\230\346\302\302[\302B\036Lw"
  54      36C1F23C 
  54      98E6C2C2 
ARM GAS  /tmp/ccxDmDcp.s 			page 4


  54      5BC2421E 
  54      4C77
  55 01ab 61055BC2 		.ascii	"a\005[\3024\017f\270\260\"\200\031\350\374\376\361\376"
  55      340F66B8 
  55      B0228019 
  55      E8FCFEF1 
  55      FE
  56 01bc 04BA5DF3 		.ascii	"\004\272]\363\332\227^\271\372%\264\307\227\226n,\207"
  56      DA975EB9 
  56      FA25B4C7 
  56      97966E2C 
  56      87
  57 01cd 4A7CE9D2 		.ascii	"J|\351\322W\312\\\371\346\224\000'v\334\015Mc0B\242"
  57      57CA5CF9 
  57      E6940027 
  57      76DC0D4D 
  57      633042A2 
  58 01e1 9355298C 		.ascii	"\223U)\214\342=q\353\210\205\371\352l\026z2s/\374FG"
  58      E23D71EB 
  58      8885F9EA 
  58      6C167A32 
  58      732FFC46 
  59 01f6 FC4687B9 		.ascii	"\374F\207\271KIj\350\271`\3416\305Ua\251\347\005\262"
  59      4B496AE8 
  59      B960E136 
  59      C55561A9 
  59      E705B2
  60 0209 E75DE91C 		.ascii	"\347]\351\034\257\353\203N\327#N\236c\357\177.`v\256"
  60      AFEB834E 
  60      D7234E9E 
  60      63EF7F2E 
  60      6076AE
  61 021c 226461E1 		.ascii	"\"da\341]\270C\375/\"\220\274\007\212A#\3468\273\324"
  61      5DB843FD 
  61      2F2290BC 
  61      078A4123 
  61      E638BBD4 
  62 0230 6C4787D2 		.ascii	"lG\207\322\305\314\247\371\200\033\006|F;\270\213t\315"
  62      C5CCA7F9 
  62      801B067C 
  62      463BB88B 
  62      74CD
  63 0242 8B258788 		.ascii	"\213%\207\210[\256\345\360\337\325Z\015\225eU\353A\270"
  63      5BAEE5F0 
  63      DFD55A0D 
  63      956555EB 
  63      41B8
  64 0254 D41F84F5 		.ascii	"\324\037\204\365\262\375\310*[\000\234y\010\322\233"
  64      B2FDC82A 
  64      5B009C79 
  64      08D29B
  65 0263 EB556EFC 		.ascii	"\353Un\374\237\225S\227Ww\306e\032\236/\372\227_\326"
  65      9F955397 
  65      5777C665 
  65      1A9E2FFA 
  65      975FD6
  66 0276 E8103C11 		.ascii	"\350\020<\021}r\314\011\364\216\376\221$i'\337\017\200"
ARM GAS  /tmp/ccxDmDcp.s 			page 5


  66      7D72CC09 
  66      F48EFE91 
  66      246927DF 
  66      0F80
  67 0288 6EEA6CE4 		.ascii	"n\352l\344i1e\242\215\214\347\313\371C\351HF*\253\254"
  67      693165A2 
  67      8D8CE7CB 
  67      F943E948 
  67      462AABAC 
  68 029c 34D52F6E 		.ascii	"4\325/n\233\311\224i'\271\311[\232\332[\033b\026\257"
  68      9BC99469 
  68      27B9C95B 
  68      9ADA5B1B 
  68      6216AF
  69 02af E4C05209 		.ascii	"\344\300R\011\355\234\235`\251\246\003\331H\036\217"
  69      ED9C9D60 
  69      A9A603D9 
  69      481E8F
  70 02be C5E2AD66 		.ascii	"\305\342\255f\264-eV\325\324V\327\232V+?}\246)j\362"
  70      B42D6556 
  70      D5D456D7 
  70      9A562B3F 
  70      7DA6296A 
  71 02d3 986DD9F5 		.ascii	"\230m\331\365\315\234W\266\300\376-,\022\361d\3126\217"
  71      CD9C57B6 
  71      C0FE2D2C 
  71      12F164CA 
  71      368F
  72 02e5 1EAFA9AA 		.ascii	"\036\257\251\252i\243@<\236\214\326\237=\034#\364f&"
  72      69A3403C 
  72      9E8CD69F 
  72      3D1C23F4 
  72      6626
  73 02f7 BEC716BB 		.ascii	"\276\307\026\273\335\246\363 O\330VS\271\005\201X4\026"
  73      DDA6F320 
  73      4FD85653 
  73      B9058158 
  73      3416
  74 0309 4FB62B45 		.ascii	"O\266+E\224\024\177\000\2113V\036"
  74      94147F00 
  74      8933561E 
  75              		.text
  76              		.section	.gnu.lto_chThdCreateFromMemoryPool.80d5c452cf215786,"",%progbits
  77 0000 789C8D54 		.ascii	"x\234\215T]HTQ\020\2369\367\356\256\271nj\245\031\224"
  77      5D485451 
  77      109E39F7 
  77      EEAEB96E 
  77      6AA51994 
  78 0014 8A105492 		.ascii	"\212\020T\222\227(z.|\222\360%\023\352I\364\270\344"
  78      97287A2E 
  78      7C92F025 
  78      13EA49F4 
  78      B8E4
  79 0026 85AE2B7B 		.ascii	"\205\256+{\267R\"<\376\004V\006\022AV\224JD \222PD\022"
  79      B752223C 
  79      FE045606 
  79      12415694 
ARM GAS  /tmp/ccxDmDcp.s 			page 6


  79      4A442092 
  80 003d 045B64A4 		.ascii	"\004[d\244e\321C\204a\341\213\224DAH`\031\332\234s\177"
  80      65D14384 
  80      61E18B94 
  80      44414860 
  80      19DA9C73 
  81 0052 5A75832E 		.ascii	"Zu\203.\273\347\354\314\375\276\231o\346\314Y\006\014"
  81      BBE7ECCC 
  81      FDBE996F 
  81      E6CC5906 
  81      0C
  82 0063 563EBBE9 		.ascii	"V>\273\351[\020\000\030\245\035\003\200\254\347\025"
  82      5B100018 
  82      A51D0380 
  82      ACE715
  83 0072 405B0663 		.ascii	"@[\006c\372\270\006\"S{6\016 \2624\324\035\277\216("
  83      FAB80622 
  83      537B360E 
  83      20B234D4 
  83      1DBF8E28 
  84 0086 7F00422B 		.ascii	"\177\000B+\323tl=\2022\210V\002\003B\\\234\236\031\234"
  84      D3746C3D 
  84      82328856 
  84      0203425C 
  84      9C9E199C 
  85 009a C52B22D9 		.ascii	"\305+\"\331\331/~/-!\232H\011K\0208\302a2\260XmL_\256"
  85      D92F7E2F 
  85      2D219A48 
  85      094B1038 
  85      C26132B0 
  86 00b3 C0E12627 		.ascii	"\300\341&'\307\2737\211\376\366\036\261HT\0235\006["
  86      C7BB3789 
  86      FEF61EB1 
  86      48541335 
  86      065B
  87 00c5 FF8799EC 		.ascii	"\377\207\231\354I.\214_\306\024\246\316`\373_f\322\331"
  87      492E8C5F 
  87      C614A6CE 
  87      60FB5F66 
  87      D2D9
  88 00d7 59C172EA 		.ascii	"Y\301r\3520KN/-\015\275\375\334=\205w\330\026\004\322"
  88      304B4E2F 
  88      2D0DBDFD 
  88      DC3D8577 
  88      D81604D2 
  89 00eb AAA38510 		.ascii	"\252\243\205\020\204Z\274\211%\020\"\0033\311\035\010"
  89      845ABC89 
  89      25102203 
  89      33C91D08 
  90 00fb D3128C90 		.ascii	"\323\022\214\220\311\262i\321ri\321\363\0105@(z\002"
  90      C9B269D1 
  90      7269D1F3 
  90      08354028 
  90      7A02
  91 010d D029444F 		.ascii	"\320)DO\261c;\\\013\003\265xK\275\346\252?\207h\225"
  91      B1633B5C 
  91      0B03B578 
ARM GAS  /tmp/ccxDmDcp.s 			page 7


  91      4BBDE6AA 
  91      3F876895 
  92 0121 6DAB4626 		.ascii	"m\253F&w\3555tN\217\314`-\336\246\226\037\305\340)\370"
  92      77ED3574 
  92      4E8FCC60 
  92      2DDEA696 
  92      1FC5E029 
  93 0136 25BA448E 		.ascii	"%\272D\216\211!\216\212@N\335\304\014\2001`\016\312"
  93      89218E8A 
  93      404EDDC4 
  93      0C803160 
  93      0ECA
  94 0148 894C5880 		.ascii	"\211LX\200\347\360\364\323\343\271s\232O\227\005j\251"
  94      E7F0F4D3 
  94      E3B9739A 
  94      4F97056A 
  94      A9
  95 0159 D5559349 		.ascii	"\325U\223I\007\247M@\373\213\221\341\237n\210R\030\024"
  95      07A74D40 
  95      FB8B91E1 
  95      9F6E8852 
  95      1814
  96 016b 426659E3 		.ascii	"BfY\343\250\253sRQ\204\020\000A+V\300\202\036\314\223"
  96      A8AB7352 
  96      51841000 
  96      412B56C0 
  96      821ECC93 
  97 017f 1454B0F7 		.ascii	"\024T\260\367\275w'u/wf)\35401\363\032\\m#R\037\011"
  97      BD772775 
  97      2F776629 
  97      EC3031F3 
  97      1A5C6D23 
  98 0196 09937429 		.ascii	"\011\223t)(K\221\352\320\033\271\011\3508\337\221\357"
  98      284B91EA 
  98      D01BB909 
  98      E838DF91 
  98      EF
  99 01a7 F1081524 		.ascii	"\361\010\025$\266\0128\226F\242\237[ss\207\025\364\300"
  99      B60A3896 
  99      46A29F5B 
  99      73738715 
  99      F4C0
 100 01b9 0A58C483 		.ascii	"\012X\304\203\351.,\222\026\266\326\203\005\\XvZ\230"
 100      E92E2C92 
 100      16B6D683 
 100      055C5876 
 100      5A98
 101 01cb E6C1822E 		.ascii	"\346\301\202.,\027\340\025\264}\237\272\361\014\335"
 101      2C17E015 
 101      B47D9FBA 
 101      F10CDD
 102 01da 63F6CE3B 		.ascii	"c\366\316;\271p\341kx\233o\315]\232\017o\366\255\261"
 102      B970E16B 
 102      789B6FCD 
 102      5D9A0F6F 
 102      F6ADB1
 103 01ed 6F54B413 		.ascii	"oT\264\023\233S\375\234\212\340\256B\2728Cd\252\246"
ARM GAS  /tmp/ccxDmDcp.s 			page 8


 103      9B53FD9C 
 103      8AE0AE42 
 103      BA384364 
 103      AAA6
 104 01ff 14C27DBC 		.ascii	"\024\302}\274.z\367\231R\216|\344X|\034\365\307\"\317"
 104      2E7AF799 
 104      528E7CE4 
 104      587C1CF5 
 104      C722CF
 105 0212 1F8B1CEE 		.ascii	"\037\213\034\356*\227\036zN\233\230\353hu\2604\241\353"
 105      2A971E7A 
 105      4E9B98EB 
 105      6875B034 
 105      A1EB
 106 0224 E4ACB427 		.ascii	"\344\254\264'\203\336\264\014\250i\311Su\216\314?\230"
 106      83DEB40C 
 106      A869C953 
 106      758ECC3F 
 106      98
 107 0235 C5D45A45 		.ascii	"\305\324ZE\330\304\365tftL\033\010$\217\013\334\343"
 107      D8C4F574 
 107      66744C1B 
 107      08248F0B 
 107      DCE3
 108 0247 0AA95D7A 		.ascii	"\012\251]z\362\230:\265\366\027\275\017W\263\265\364"
 108      F2983AB5 
 108      F617BD0F 
 108      57B3B5F4 
 109 0257 EC0C6F78 		.ascii	"\354\014oxe1g\246ggB\256@\360k\311\347~{\025u\243T_"
 109      653167A6 
 109      676742AE 
 109      40F06BC9 
 109      E77E7B15 
 110 026f E0367A3E 		.ascii	"\3406z>\262\272\317\213\341\242\224>\367E\012\375;\347"
 110      B2BACF8B 
 110      E1A2943E 
 110      F7450AFD 
 110      3BE7
 111 0281 BBCFFE48 		.ascii	"\273\317\376Hi\270\252\200\223\024\216k\274\236?\372"
 111      69B8AA80 
 111      93148E6B 
 111      BC9E3FFA 
 112 0291 67CF9DEB 		.ascii	"g\317\235\353\242\253k9\001O\276\370\327Mvw\017\334"
 112      A2AB6B39 
 112      014FBEF8 
 112      D74D7677 
 112      0FDC
 113 02a3 135DF22F 		.ascii	"\023]\362/\205@o\350\337O\212V\265N\002\272e\263\241"
 113      85406FE8 
 113      DF4F8A56 
 113      B54E02BA 
 113      65B3A1
 114 02b6 77B209DA 		.ascii	"w\262\011\332\313\017Y\362\236\243\014$3\025\225\225"
 114      CB0F59F2 
 114      9EA30C24 
 114      33159595 
 115 02c6 19CE2766 		.ascii	"\031\316'f\033\361\204a\307\271\301\033\352[\032k-\223"
ARM GAS  /tmp/ccxDmDcp.s 			page 9


 115      1BF18461 
 115      C7B9C11B 
 115      EA5B1A6B 
 115      2D93
 116 02d8 97716089 		.ascii	"\227q`\211&\355\244\335\304\022\365\273R\221<fY\261"
 116      26EDA4DD 
 116      C412F5BB 
 116      52913C66 
 116      59B1
 117 02ea 4623DA9C 		.ascii	"F#\332\2340\312+\253*\252\014\263\221\037;^\0375\270"
 117      30CA2BAB 
 117      2AAA0CB3 
 117      911F3B5E 
 117      1F35B8
 118 02fd 659B76CD 		.ascii	"e\233v\315Q\316\313\032`g\032FS,\236\260\215\375\007"
 118      51CECB1A 
 118      60671A46 
 118      532C9EB0 
 118      8DFD07
 119 0310 2BCB2B9B 		.ascii	"+\313+\233)\021\217\305\2435'\366Z\204^\251\304\217"
 119      29118FC5 
 119      A33527F6 
 119      5A845EA9 
 119      C48F
 120 0322 D860B7D8 		.ascii	"\330`\267\330\364>\2037\331f}\261\011!+j\305\342-\216"
 120      F43E8337 
 120      D9667DB1 
 120      09212B6A 
 120      C5E22D8E 
 121 0336 234A8E3F 		.ascii	"#J\216?\340\035mV"
 121      E01D6D56 
 122              		.text
 123              		.section	.gnu.lto_.symbol_nodes.80d5c452cf215786,"",%progbits
 124 0000 789C45CD 		.ascii	"x\234E\315\313\011\2000\020\004\320\231\215i#\255n "
 124      CB098030 
 124      1004D099 
 124      8D6923AD 
 124      6E20
 125 0012 A0E2C98B 		.ascii	"\240\342\311\213?\004\233\361n\015\202uD\014F\314^\206"
 125      3F049BF1 
 125      6E0D8275 
 125      440C46CC 
 125      5E86
 126 0024 37735881 		.ascii	"7sX\201\240\305w2P\201\376\000T\267\2262RY\310\205*"
 126      A0C57732 
 126      5081FE00 
 126      54B79632 
 126      5259C885 
 127 0039 99DE9333 		.ascii	"\231\336\2233\325\024M\324\252h\245\332_\006\025\302"
 127      D5144DD4 
 127      AA68A5DA 
 127      5F0615C2 
 128 0049 79A734B8 		.ascii	"y\2474\270\352\350Lz\2717)is\237\226\360Z\020\272\350"
 128      EAE84C7A 
 128      B9372969 
 128      739F96F0 
 128      5A10BAE8 
ARM GAS  /tmp/ccxDmDcp.s 			page 10


 129 005d F000C2D6 		.ascii	"\360\000\302\326'\322"
 129      27D2
 130              		.text
 131              		.section	.gnu.lto_.refs.80d5c452cf215786,"",%progbits
 132 0000 789C6362 		.ascii	"x\234cb`b`d\200\002\000\000F\000\006"
 132      60626064 
 132      80020000 
 132      460006
 133              		.text
 134              		.section	.gnu.lto_.decls.80d5c452cf215786,"",%progbits
 135 0000 789CBD5B 		.ascii	"x\234\275[{t\024\325\031\237;\263\273\311\222\210\257"
 135      7B7414D5 
 135      199F3BB3 
 135      BBC99288 
 135      AF
 136 0011 A327F4E8 		.ascii	"\243'\364\3501\266\332ci%\330\252\245=\255\217CO\321"
 136      31B6DA63 
 136      6925D8AA 
 136      A53DAD8F 
 136      434FD1
 137 0024 736A4F4F 		.ascii	"sjOO\251\247\355?]\207\315\220l\311>\234\231\030\350"
 137      A9A7ED3F 
 137      5D87CD90 
 137      6CC93E9C 
 137      9918E8
 138 0037 3F0EC112 		.ascii	"?\016\301\022\264\332\274D@\010\006\010-\012\026AE\020"
 138      B4DABC44 
 138      40080608 
 138      2D0A1641 
 138      4510
 139 0049 8AEB2321 		.ascii	"\212\353#!&4@\"bTdA\036\312A\236b\210\210\351w\277\231"
 139      26344022 
 139      62546441 
 139      1ECA419E 
 139      628888E9 
 140 0060 D99DB93B 		.ascii	"\331\235\271;\263;\033j\347\344\336y\335\357\367}\367"
 140      B33B1B6A 
 140      E7E4DE79 
 140      DDEFF77D 
 140      F7
 141 0071 7BDDC76C 		.ascii	"{\335\307lx\216\347|<\307\215\300q\364\307\034\367h"
 141      788EE77C 
 141      3CC78DC0 
 141      71F4C71C 
 141      F768
 142 0083 80E3048E 		.ascii	"\200\343\004\216\343\356\340\3643\201\002\2178?\247"
 142      E3EEE0F4 
 142      3381028F 
 142      383FA7
 143 0092 1FF47A19 		.ascii	"\037\364z\031-\360\3425(oAy\017\312G\204\313:h\273\253"
 143      2DF0E235 
 143      286F4179 
 143      0FCA4784 
 143      CB3A68BB 
 144 00a7 A1AC8032 		.ascii	"\241\254\2002\026J)\224;\241\364@\333\343p>@t\334A8"
 144      164A2994 
 144      3BA1F440 
ARM GAS  /tmp/ccxDmDcp.s 			page 11


 144      DBE3703E 
 144      4074DC41 
 145 00bc 1F81F346 		.ascii	"\037\201\363F(\215p\3751\224CP\016C\351\244m\240t\030"
 145      288D70FD 
 145      31944350 
 145      0E43E9A4 
 145      6DA07418 
 146 00d0 B21C21BA 		.ascii	"\262\034!\272\014I8\027\301\371?p\356\203\262\023J?"
 146      0C493817 
 146      C1F93F70 
 146      EE83B213 
 146      4A3F
 147 00e2 940128BB 		.ascii	"\224\001(\273\241\370\240\2141d\240\362}\002\345\030"
 147      A1F8A08C 
 147      3164A0F2 
 147      7D02E518 
 148 00f2 941386CC 		.ascii	"\224\023\206\314T\366\317\241\014A\371\322\300\\\000"
 148      54F6CFA1 
 148      0C41F9D2 
 148      C05C00
 149 0101 E745509E 		.ascii	"\347EP\236\206\262\030\312\022(K\231~\321~\217s\351"
 149      86B218CA 
 149      12284B99 
 149      7ED17E8F 
 149      73E9
 150 0113 13ED0BED 		.ascii	"\023\355\013\355\327\327p\275\317\350S\025\234WR\371"
 150      D7D770BD 
 150      CFE85315 
 150      9C5752F9 
 151 0123 49E1FD0B 		.ascii	"I\341\375\013Z\372\367\202K\037\377h\366\323\260\201"
 151      5AFAF782 
 151      4B1FFF68 
 151      F6D3B081 
 152 0133 977E6E84 		.ascii	"\227~n\204\363\253P6C\331\002\345\337PF\230~^\307-\325"
 152      F3AB5036 
 152      43D902E5 
 152      DF504698 
 152      7E5EC72D 
 153 0148 DA53A9CE 		.ascii	"\332S\251\316\243\357\221EZ\362\021md\344a\260\345|"
 153      A3EF9145 
 153      5AF2116D 
 153      64E461B0 
 153      E57C
 154 015a 0D8EF6B9 		.ascii	"\015\216\366\271\232F\324\022\3561M\253\2477\367t\217"
 154      9A46D412 
 154      EE314DAB 
 154      A737F774 
 154      8F
 155 016b BD826BA6 		.ascii	"\275\202k\246o\312\273A%\177 \"\031\033\344\332}xU\032"
 155      6FCABB41 
 155      257F2022 
 155      191BE4DA 
 155      7D78551A 
 156 017f E47E0170 		.ascii	"\344~\001p7r\035\232\326\224\232\177a@\320\264b\221"
 156      37721D9A 
 156      D6949A7F 
 156      6140D0B4 
ARM GAS  /tmp/ccxDmDcp.s 			page 12


 156      6291
 157 0191 74902BC0 		.ascii	"t\220+\300\361\246\020n<\367,\0206\001\324x\007\017"
 157      F1A6106E 
 157      3CF72C10 
 157      3601D478 
 157      070F
 158 01a3 E2F202F3 		.ascii	"\342\362\002\363\334\357\011'\222U\200'\222\177\222"
 158      DCEF0927 
 158      92558027 
 158      927F92
 159 01b2 F13A272D 		.ascii	"\361:'-\325\332\260\267\236\314\006A\365w\234\361\326"
 159      D5DAB0B7 
 159      9ECC0641 
 159      F5779CF1 
 159      D6
 160 01c3 E1B89E6B 		.ascii	"\341\270\236k\007\202\344P\317\022\242\265\277A\034"
 160      0782E450 
 160      CF12A2B5 
 160      BF411C
 161 01d2 38DE6532 		.ascii	"8\336e2,\266\364d\331\023\367bO\326`O\352\011\261q0"
 161      2CB6F464 
 161      D913F762 
 161      4FD6604F 
 161      EA09B171 
 162 01e7 50DAEF72 		.ascii	"P\332\357r\203\341\271\026$Y\233%\370\266\035\246\340"
 162      83E1B916 
 162      24599B25 
 162      F8B61DA6 
 162      E0
 163 01f8 6B3D085E 		.ascii	"k=\010^\237\334\365X\3338*\270HV\220\022\300]\221\306"
 163      9FDCF558 
 163      DB382AB8 
 163      48569012 
 163      C05D91C6 
 164 020c 35F8969B 		.ascii	"5\370\226\233|}\034g^\352\207\321\300\216\327\337S\332"
 164      7C7D1C67 
 164      5EEA87D1 
 164      C08ED7DF 
 164      53DA
 165 021e 249A60AB 		.ascii	"$\232`\253\012\006+w\022U?\254\275\025\311:r#\324\353"
 165      0A062B77 
 165      12553FAC 
 165      BD15C93A 
 165      7223D4EB 
 166 0232 C9F550BF 		.ascii	"\311\365P\277\004u\372\340\271\347\211iS'\325\345\357"
 166      0475FAE0 
 166      B9E78969 
 166      5327D5E5 
 166      EF
 167 0243 C270CF12 		.ascii	"\302p\317\022TI\220\233\227\361Q\316\261\013\2069\367"
 167      5449909B 
 167      97F151CE 
 167      B10B8639 
 167      F7
 168 0254 FCEDAD5D 		.ascii	"\374\355\255]d\016j}#\220\361\020Cv\203z\207\032l\354"
 168      640E6A7D 
 168      2390F110 
ARM GAS  /tmp/ccxDmDcp.s 			page 13


 168      4376837A 
 168      871A6CEC 
 169 0268 7C9DD423 		.ascii	"|\235\324#\324f\204j\341G\0135\324\377V\263!\325V\204"
 169      D466846A 
 169      E1470B35 
 169      D4FF56B3 
 169      21D55684 
 170 027c 7A9B8112 		.ascii	"z\233\201\022IQ\272\357\351{\263\001\305\303\327\306"
 170      4951BAEF 
 170      E97BB301 
 170      C5C3D7C6 
 171 028c 054DF197 		.ascii	"\005M\361\227r\337ps\236{\207g\214\347\3442\305n\306"
 171      72DF7073 
 171      9E7B8767 
 171      8CE7E432 
 171      C56EC6
 172 029f D3522DDB 		.ascii	"\323R-\333>\342i\312\021\314\030\012\270i\211\347\006"
 172      3EE269CA 
 172      11CC180A 
 172      B86989E7 
 172      06
 173 02b0 91D79B6C 		.ascii	"\221\327\233l\014\265\355\331n\306\320\233\236b\350"
 173      0CB5EDD9 
 173      6EC6D09B 
 173      9E62E8
 174 02bf E59E05E8 		.ascii	"\345\236\005\3500y\223\032o\362\277\001\3717\011\224"
 174      3079931A 
 174      6FF2BF01 
 174      F9370994 
 175 02cf 7F37CB7F 		.ascii	"\1777\313\177\370\375\3169\006\377nO\374\027\365=\231"
 175      F8FDCE39 
 175      06FF6E4F 
 175      FC17F53D 
 175      99
 176 02e0 CD5F2477 		.ascii	"\315_$w\\\225\313;\332\366\034>ep\331\216\301\332#\260"
 176      5C95CB3B 
 176      DAF61C3E 
 176      6570D98E 
 176      C1DA23B0 
 177 02f4 DE716789 		.ascii	"\336qg\211\335~poi\300s\003i\371G\225+\240\243]\255"
 177      DD7E706F 
 177      69C07303 
 177      69F94795 
 177      2BA0A35D 
 178 0309 A4658ED6 		.ascii	"\244e\216\326=\321\224\341\335\202\021\313m\232X\322"
 178      3DD194E1 
 178      DD8211CB 
 178      6D9A58D2 
 179 0319 87D94707 		.ascii	"\207\331G\007\033\364\002\346\352J\365\311\245V\260"
 179      1BF402E6 
 179      EA4AF5C9 
 179      A556B0
 180 0328 BD0583D9 		.ascii	"\275\005\203\331%{\301\012\266\337\013\330e\356\222"
 180      257BC10A 
 180      B6DF0BD8 
 180      65EE92
 181 0337 ADB7821D 		.ascii	"\255\267\202\035,\030\314.\331KV\260#^\300\312\334%"
ARM GAS  /tmp/ccxDmDcp.s 			page 14


 181      2C18CC2E 
 181      D94B56B0 
 181      235EC0CA 
 181      DC25
 182 0349 DB60053B 		.ascii	"\333`\005;Z0\230]\262\215V\260\317\274\200\225;H\226"
 182      5A30985D 
 182      B28D56B0 
 182      CFBC8095 
 182      3B4896
 183 035c 3E9CE8A8 		.ascii	">\234\350\250[o#i?\347\271\223\202\231\023\012\364i"
 183      5B6F2369 
 183      3FE7B993 
 183      8299130A 
 183      F469
 184 036e 2E837146 		.ascii	".\203qF(4\207\331\372\015\203\370\276\345\244U\217\013"
 184      283487D9 
 184      FA0D83F8 
 184      BEE5A455 
 184      8F0B
 185 0380 7D201DF2 		.ascii	"} \035\362\202\230\303a\232z-\243\362\205\202\301\354"
 185      8298C361 
 185      9A7A2DA3 
 185      F28582C1 
 185      EC
 186 0391 66594AC1 		.ascii	"fYJ\301l\271\306\030\223R+\223e\0133\351\256\330\304"
 186      6CB9C618 
 186      93522B93 
 186      650B33E9 
 186      AED8C4
 187 03a4 A253333D 		.ascii	"\242S3=\267\301L\215O7\326\312\312\234\333\212\344S"
 187      B7C14C8D 
 187      4F37D6CA 
 187      CA9CDB8A 
 187      E453
 188 03b6 1CDD8F92 		.ascii	"\034\335\217\222`Z\012\375\332\274\242\363M\236\233"
 188      605A0AFD 
 188      DABCA2F3 
 188      4D9E9B
 189 03c5 E3739AF4 		.ascii	"\343s\232\364!@nR7O8b\365\204y>\017j\312\021\012;\335"
 189      21406E52 
 189      374F3862 
 189      F584793E 
 189      0F6ACA11 
 190 03dc D4949CAB 		.ascii	"\324\224\234\253\315#\263\327]\223s\206\330\266\347"
 190      CD23B3D7 
 190      5D937386 
 190      D8B6E7
 191 03eb F832631E 		.ascii	"\3702c\036p\002\007\357'|\216\363\000O`\203\215;\314"
 191      700207EF 
 191      277C8EF3 
 191      004F6083 
 191      8D3BCC
 192 03fe 49C56904 		.ascii	"I\305i\004[x\021`C\375{\315i\305Y\004[\346c\007\216"
 192      5B781160 
 192      43FD7BCD 
 192      69C55904 
 192      5BE66307 
ARM GAS  /tmp/ccxDmDcp.s 			page 15


 193 0413 2033AD08 		.ascii	" 3\255\010\332\007\376`0s1b\036vS~\2434n\346?n5\377"
 193      DA07FE60 
 193      30733162 
 193      1E76537E 
 193      A3346EE6 
 194 042b 9A82CD6F 		.ascii	"\232\202\315o\213\022\230\210|\301/\320\222\263\005"
 194      8B129888 
 194      7CC12FD0 
 194      92B305
 195 043a 8BBFE70C 		.ascii	"\213\277\347\014\016\230F\366n\3759\256\012\276D\275"
 195      0E9846F6 
 195      6EFD39AE 
 195      0ABE44BD 
 196 044a BEE86C24 		.ascii	"\276\350l$\017@\203\215\317\177\037\201. \320\226Q\003"
 196      0F40838D 
 196      CF7F1F81 
 196      2E20D096 
 196      5103
 197 045c 0DF52F9D 		.ascii	"\015\365/\235\204@4ly\356\255,K\023\306\322\304n\201"
 197      8440346C 
 197      79EEAD2C 
 197      4B13C6D2 
 197      C46E81
 198 046f 74E41981 		.ascii	"t\344\031\201\367M\265\345\271>\326\\\266\356\344\030"
 198      F74DB5E5 
 198      B93ED65C 
 198      B6EEE418 
 199 047f 1ED239F7 		.ascii	"\036\3229\367\253\026r\246^[8\261\000{\375\315\260\327"
 199      AB1672A6 
 199      5E5B38B1 
 199      007BFDCD 
 199      B0D7
 200 0491 5F513BEF 		.ascii	"_Q;\357di\347B\201\352\341\271\017\013\356F\261\275"
 200      6469E742 
 200      81EAE1B9 
 200      0F0BEE46 
 200      B1BD
 201 04a3 1B0D23A3 		.ascii	"\033\015#\243\350\306kz7\036\303n\034\370\037t\343h"
 201      E8C66B7A 
 201      371EC36E 
 201      1CF81F74 
 201      E368
 202 04b5 C1DDB8CC 		.ascii	"\301\335\270\314\322\015\\\306>\251\217\200Wr-\271\247"
 202      D20D5CC6 
 202      3EA98F80 
 202      57722DB9 
 202      A7
 203 04c6 F1549E46 		.ascii	"\361T\236F\376J\333\024:\271\273\217\224\353\217\363"
 203      FE4ADB14 
 203      3AB9BB8F 
 203      94EB8FF3 
 204 04d6 2FDDCFF4 		.ascii	"/\335\317\364Y\226{\232\247\345^oz\271\327\202*;\341"
 204      59967B9A 
 204      A7E55E6F 
 204      7AB9D782 
 204      2A3BE1
 205 04e9 14605EA0 		.ascii	"\024`^\240\332\007w\\\245\371D2\037a\316\216\026\006"
ARM GAS  /tmp/ccxDmDcp.s 			page 16


 205      DA07775C 
 205      A5F94432 
 205      1F61CE8E 
 205      1606
 206 04fb E2F4353D 		.ascii	"\342\3645=N\027\"\320\205,\023\006\030\013\006\354\026"
 206      4E1722D0 
 206      852C1306 
 206      180B06EC 
 206      16
 207 050c 845BCAE9 		.ascii	"\204[\312\351\034&\310\207\215'\364\246\210\373\277"
 207      1C26C887 
 207      8D27F4A6 
 207      88FBBF
 208 051b D3F15C83 		.ascii	"\323\361\\\203\237\030F-p\016fzO\303\301Vs\376\244\033"
 208      9F18462D 
 208      700E667A 
 208      4FC3C156 
 208      73FEA41B 
 209 052f E8EF1785 		.ascii	"\350\357\027\205X\237|\246\321\334%\271\223\316\240"
 209      589F7CA6 
 209      D1DC25B9 
 209      93CEA0
 210 053e 165C24DC 		.ascii	"\026\\$\334\226\035\354\324\200Y\272u\270\014;\346\366"
 210      961DECD4 
 210      8059BA75 
 210      B80C3BE6 
 210      F6
 211 054f D1BAC77F 		.ascii	"\321\272\307\177\200\346^\316Sq\226\372Ys\257 \314\322"
 211      80E65ECE 
 211      537196FA 
 211      5973AF20 
 211      CCD2
 212 0561 8D3EB034 		.ascii	"\215>\2604q\013\244e\274e\004\\w\261f\330v\2261\303"
 212      710BA465 
 212      BC65045C 
 212      77B166D8 
 212      769631C3 
 213 0575 2B17A9B7 		.ascii	"+\027\251\267a\303\014\371\026\332\017\230X\245\330"
 213      61C30CF9 
 213      16DA0F98 
 213      58A5D8
 214 0584 91D790ED 		.ascii	"\221\327\220\355s<\263\316\336t<5\327\230\025\321w\371"
 214      733CB3CE 
 214      DE743C35 
 214      D79815D1 
 214      77F9
 215 0596 33C50787 		.ascii	"3\305\007\207\202ZK\251\276i'\222\015\2047P\235&Ky\325"
 215      825A4BA9 
 215      BE692792 
 215      0D843750 
 215      9D264B79 
 216 05ab 93FC48EA 		.ascii	"\223\374H\352\236XH\316\3512s\316Z\324\345\261,\243"
 216      9E5848CE 
 216      E93273CE 
 216      5AD4E5B1 
 216      2CA3
 217 05bd D3246233 		.ascii	"\323$b3zAAw:\255$\257\213\026\366ps\252g\255N\365\305"
ARM GAS  /tmp/ccxDmDcp.s 			page 17


 217      7A414177 
 217      3AAD24AF 
 217      8B16F670 
 217      73AA67AD 
 218 05d4 C5B90038 		.ascii	"\305\271\0008UW\207\356T\371\234@#\326\265\014$E\344"
 218      555787EE 
 218      54F99C40 
 218      23D6B50C 
 218      2445E4
 219 05e7 BC81F582 		.ascii	"\274\201\365\202\266\323\335\015\306>\310\006O^p\326"
 219      B6D3DD0D 
 219      C63EC806 
 219      4F5E70D6 
 220 05f7 C10B368C 		.ascii	"\301\0136\214\322\013\300\245?}\233 \234\2766\373G\200"
 220      D20BC0A5 
 220      3F7D9B20 
 220      9CBE36FB 
 220      4780
 221 0609 D8E1BC5A 		.ascii	"\330\341\274Z\301\200\373J*T1\272\177%\007\017\321\021"
 221      C180FB4A 
 221      2A5431BA 
 221      7F25070F 
 221      D111
 222 061b 732B4FB7 		.ascii	"s+O\267\243\327\004X\327\3225cq\255\214\032E\262\221"
 222      A3D70458 
 222      D7D23563 
 222      71AD8C1A 
 222      45B291
 223 062e A78BB54D 		.ascii	"\247\213\265M<\335\212}\025\353-\274eC\326\315-\376"
 223      3CDD8A7D 
 223      15EB2DBC 
 223      6543D6CD 
 223      2DFE
 224 0640 9D710B91 		.ascii	"\235q\013\221\274\310\252\321\353\2229/\233\227\255"
 224      BCC8AAD1 
 224      EB92392F 
 224      9B97AD
 225 064f DEF752E0 		.ascii	"\336\367R\340\342\274\257e[\237\017w\027\013\330\033"
 225      E2BCAF65 
 225      5B9F0F77 
 225      170BD81B 
 226 065f EEED3403 		.ascii	"\356\3554\003\367M\014\334\315Y\332\335\314\316\257"
 226      F74D0CDC 
 226      CD59DADD 
 226      CCCEAF
 227 066e BC6C946E 		.ascii	"\274l\224n\033mW\322\007L\232\003\036\3268\345\016Z"
 227      1B6D57D2 
 227      074C9A03 
 227      1ED638E5 
 227      0E5A
 228 0680 4F0FB4EF 		.ascii	"O\017\264\357\032\323\264\274\273\255\346\310u\350\361"
 228      1AD3B4BC 
 228      BBADE6C8 
 228      75E8F1
 229 068f 7B70E47A 		.ascii	"{p\344z\033=m'\243\013\017\233\266\373\220d;\033\306"
 229      1B3D6D27 
 229      A30B0F9B 
ARM GAS  /tmp/ccxDmDcp.s 			page 18


 229      B6FB9064 
 229      3B1BC6
 230 06a2 AD0DE94D 		.ascii	"\255\015\351M\333\355\036\302\270>\371\242\355\303\207"
 230      DBED1EC2 
 230      B83EF9A2 
 230      EDC387
 231 06b1 E981DB73 		.ascii	"\351\201\333s{`N}\332L\270\335\022 }\030 ;\254A\001"
 231      7B604E7D 
 231      DA4CB8DD 
 231      12207D18 
 231      203BAC41 
 232 06c6 73462FBA 		.ascii	"sF/\272\277\311\315\025!\015\365\353_\234\314oHC,\236"
 232      BFC9CD15 
 232      210DF5EB 
 232      5F9CCC6F 
 232      48432C9E 
 233 06da 5322B2E1 		.ascii	"S\"\262\341YmY\237l\032\300-\"\335G\265\"\017\302Mt"
 233      596D599F 
 233      6C1AC02D 
 233      22DD47B5 
 233      220FC24D 
 234 06ef 077BA6D5 		.ascii	"\007{\246\325T\356\3138Cy\324\013\336$\267\316\326'"
 234      54EECB38 
 234      4379D40B 
 234      DE24B7CE 
 234      D627
 235 0701 5F195862 		.ascii	"_\031Xb\340\351\337W\232\013\306\263\313\267\273\325"
 235      E0E9DF57 
 235      9A0BC6B3 
 235      CBB7BBD5 
 236 0711 369F7BDA 		.ascii	"6\237{\332\013\334]\236m\237\371\234\010\003*\356d\255"
 236      0BDC5D9E 
 236      6D9FF99C 
 236      08032AEE 
 236      64AD
 237 0723 C6EF54AF 		.ascii	"\306\357T\257`\375\006\326\007\260>\210\365a\254?\303"
 237      60FD06D6 
 237      07B03E88 
 237      F561AC3F 
 237      C3
 238 0734 7A18EB47 		.ascii	"z\030\353G0\215>\212\365\337\261\356\306z\027\326\003"
 238      308D3E8A 
 238      F5DFB1EE 
 238      C67A17D6 
 238      03
 239 0745 58EFC67A 		.ascii	"X\357\306z\017\326\203^\022\256\3079\340rr5^\011\240"
 239      0FD6835E 
 239      12AEC739 
 239      E0727235 
 239      5E09A0
 240 0758 18381C47 		.ascii	"\0308\034G\223y\037g\266Q\264\364W\015\252c#\316\233"
 240      93791F67 
 240      B651B4F4 
 240      570DAA63 
 240      23CE9B
 241 076b CF27C76D 		.ascii	"\317'\307m\321\264\313D\262\027\003\275\267\3101\320"
 241      D1B4CB44 
ARM GAS  /tmp/ccxDmDcp.s 			page 19


 241      B21703BD 
 241      B7C831D0 
 242 077b 7300F1DC 		.ascii	"s\000\361\334 \322\244\230HO\2666\224\322%S\312S\224"
 242      20D2A498 
 242      484FB636 
 242      94D22553 
 242      CA5394
 243 078e CFDFB624 		.ascii	"\317\337\266${\306h\373\022\215.\340\246\213C\274M\027"
 243      7BC668FB 
 243      128D2EE0 
 243      A68B43BC 
 243      4D17
 244 07a0 DEB3FEE2 		.ascii	"\336\263\376\342\221\324O\327b\377\217`@=U\314&}?\223"
 244      91D44FD7 
 244      62FF8F60 
 244      403D55CC 
 244      267D3F93 
 245 07b4 F3FDF69C 		.ascii	"\363\375\366\234\357\017f.\214\234o\010a\222\212\344"
 245      EF0F662E 
 245      8C9C6F08 
 245      61928AE4 
 246 07c4 7E21A7CD 		.ascii	"~!\247\315\015Q\316/\037.{\026"
 246      0D51CE2F 
 246      1F2E7B16 
 247 07d0 453988B1 		.ascii	"E9\210\261\330\313\210\302,=h\227\335\324\361\031_\342"
 247      D8CB88C2 
 247      2C3D6897 
 247      DDD4F119 
 247      5FE2
 248 07e2 A2F1AC77 		.ascii	"\242\361\254w<\367^\261i\276\321-\037\232\317\247\256"
 248      3CF75EB1 
 248      69BED12D 
 248      1F9ACFA7 
 248      AE
 249 07f3 D9F492A6 		.ascii	"\331\364\222\246\255{\300\330\003H\006\254\336bKo\306"
 249      AD7BC0D8 
 249      034806AC 
 249      DE624B6F 
 249      C6
 250 0804 246673D7 		.ascii	"$fs\327\265\3245N\302\240\310s\373\231~\346G\201\244"
 250      B5D4354E 
 250      C2A0C873 
 250      FB997EE6 
 250      4781A4
 251 0817 8C3467B2 		.ascii	"\2144g\262\266\023\272\204r\375q~\217\3333\267\361["
 251      B613BA84 
 251      72FD717E 
 251      8FDB33B7 
 251      F15B
 252 0829 5AFBE365 		.ascii	"Z\373\343e\346\276\355\3714\344\350\226\011\373\272"
 252      E6BEEDF9 
 252      34E4E896 
 252      09FBBA
 253 0838 C6C0FC30 		.ascii	"\306\300\3740\357/\002\250`\303l\250\014v\321I\335\260"
 253      EF2F02A8 
 253      60C36CA8 
 253      0C76D149 
ARM GAS  /tmp/ccxDmDcp.s 			page 20


 253      DDB0
 254 084a A748F960 		.ascii	"\247H\371`\256\303\332J\327\245\233;|\225=\203\033\036"
 254      AEC3DA4A 
 254      D7A59B3B 
 254      7C953D83 
 254      1B1E
 255 085c A5B9EB93 		.ascii	"\245\271\353\223{\273\314\024\257G\314\354 )\020\257"
 255      7BBBCC14 
 255      AF47CCEC 
 255      202910AF 
 256 086c 9CE918CF 		.ascii	"\234\351\030\3175\004/N\367C\336u?[`t\177\012uO\037"
 256      35042F4E 
 256      F743DE75 
 256      3F5B6074 
 256      7F0A754F 
 257 0881 E7D7FD99 		.ascii	"\347\327\375\231\271\346p\364!\206\350\343(7\245\035"
 257      B9E670F4 
 257      2186E8E3 
 257      2837A51D 
 258 0891 9D2ECF32 		.ascii	"\235.\3172\272l.\030/[\227O\215V\227N\2075\306Dr\026"
 258      BA6C2E18 
 258      2F5B974F 
 258      8D56974E 
 258      8735C644 
 259 08a7 E7475FE0 		.ascii	"\347G_\340Hv\016kM\260\315\225\026\007\231T\342\304"
 259      48760E6B 
 259      4DB0CD95 
 259      16079954 
 259      E2C4
 260 08b9 DBFD4701 		.ascii	"\333\375G\001\311%S\350\324F_\334,g\261\354\313!\313"
 260      C92553E8 
 260      D4465FDC 
 260      2C67B1EC 
 260      CB21CB
 261 08cc A5B78EA4 		.ascii	"\245\267\216\244,\023\275\003\330\221\217\261\013'\364"
 261      2C13BD03 
 261      D8918FB1 
 261      0B27F4
 262 08db 215CF030 		.ascii	"!\\\36000\177\230\211\243t\216?\242/\3463\367\372\216"
 262      307F9889 
 262      A3748E3F 
 262      A22FE633 
 262      F7FA8E
 263 08ee 4EFA7E23 		.ascii	"N\372~#\261\276\3175\274\271\374\014\200\2024\011W\333"
 263      B1BECF35 
 263      BCB9FC0C 
 263      80823409 
 263      57DB
 264 0900 B9E2177E 		.ascii	"\271\342\027~o\303J\333\352\327\313V\341\260\322(\340"
 264      6FC34ADB 
 264      EAD7CB56 
 264      E1B0D228 
 264      E0
 265 0911 CF078239 		.ascii	"\317\007\2029\207\025\312\312M\214'\005\367a%\373\235"
 265      8715CACA 
 265      4D8C2705 
 265      F76125FB 
ARM GAS  /tmp/ccxDmDcp.s 			page 21


 265      9D
 266 0922 55588E19 		.ascii	"UX\216\031\006y\256\237\021\343\006n\205\246\265\244"
 266      0679AE9F 
 266      11E3066E 
 266      85A6B5A4 
 267 0932 3A8F9EF4 		.ascii	":\217\236\364\303\302\315gF\330al\266\214\\\347(\224"
 267      C3C2CD67 
 267      46D8616C 
 267      B68C5CE7 
 267      2894
 268 0944 61129D56 		.ascii	"a\022\235V\033\226\356\321\355!\222\271\002\237\223"
 268      1B96EED1 
 268      ED2192B9 
 268      029F93
 269 0953 0CADA693 		.ascii	"\014\255\246\223%\367t=\017A\310\353\246\023\3111\222"
 269      25F7743D 
 269      0F41C8EB 
 269      A613C931 
 269      92
 270 0964 87946438 		.ascii	"\207\224d8\236\241\0347\342.\373\353y\310\320\017\014"
 270      9EA11C37 
 270      E22EFBEB 
 270      79C8D00F 
 270      0C
 271 0975 8E835DFF 		.ascii	"\216\203]\377\3249\352\0269\226\247\217\264\225\311"
 271      D439EA16 
 271      3996A78F 
 271      B495C9
 272 0984 718072C4 		.ascii	"q\200r\304\271\360\211<T\272\326\277\313\255\304yt\327"
 272      B9F0893C 
 272      54BAD6BF 
 272      CBADC479 
 272      74D7
 273 0996 13E31EA3 		.ascii	"\023\343\036\243\034\365\015Gw:\303\232O\011\274\325"
 273      1CF50D47 
 273      773AC39A 
 273      4F09BCD5 
 274 09a6 BCFACF04 		.ascii	"\274\372\317\004\3617c\263S##\3271\236KA]g\251B\376"
 274      F13763B3 
 274      532323D7 
 274      319E4B41 
 274      5D67A942 
 275 09bb 59AADB8E 		.ascii	"Y\252\333\216\240\2712_{\252L_\230\257\02403\214q\236"
 275      A0B9325F 
 275      7BAA4C5F 
 275      98AF1430 
 275      338C719E 
 276 09cf A3BAC1E0 		.ascii	"\243\272\301\340T\237M\373\315]8;]\345)\357\267:\215"
 276      549F4DFB 
 276      CD5D383B 
 276      5DE529EF 
 276      B73A8D
 277 09e2 B91ED6C0 		.ascii	"\271\036\326\300/\240\244k\262\206\034\261\\\177\352"
 277      2FA0A46B 
 277      B2861CB1 
 277      5C7FEA
 278 09f1 61C431B7 		.ascii	"a\3041\267\235V\013\231\305\357\232\302\007\234\364"
ARM GAS  /tmp/ccxDmDcp.s 			page 22


 278      9D560B99 
 278      C5EF9AC2 
 278      079CF4
 279 0a00 E166278A 		.ascii	"\341f'\212\2376\277\316f\325\250\307\265\371\314\270"
 279      9F36BFCE 
 279      66D5A8C7 
 279      B5F9CCB8 
 280 0a10 B605F550 		.ascii	"\266\005\365P\010^\271\015oa\027\256y\017\342\324\365"
 280      085EB90D 
 280      6F6117AE 
 280      790FE2D4 
 280      F5
 281 0a21 38EF41B8 		.ascii	"8\357A\270\234\033\240\226\303\352\031\"yV\240\343\302"
 281      9C1BA096 
 281      C3EA1922 
 281      7956A0E3 
 281      C2
 282 0a32 73021D11 		.ascii	"s\002\035\021^\300z\275\227q\241Cp\030\027r\216\003"
 282      5EC07ABD 
 282      9771A143 
 282      70181772 
 282      8E03
 283 0a44 4650E74B 		.ascii	"FP\347K\222\335c\034\223\344\312\347\366\007\364$\331"
 283      92DD631C 
 283      93E4CAE7 
 283      F607F424 
 283      D9
 284 0a55 8109E400 		.ascii	"\201\011\344\0006[&\270\245\202\016K\002Y\004\252$L"
 284      365B26B8 
 284      A5820E4B 
 284      025904AA 
 284      244C
 285 0a67 AE7325B4 		.ascii	"\256s%\264\344\272\344\356\236\177\351I\313\226\357"
 285      E4BAE4EE 
 285      9E7FE949 
 285      CB96EF
 286 0a76 5C492DF9 		.ascii	"\\I-\371N\033\242I\253\021\035\270M\310Mf\315u\213u"
 286      4E1BA249 
 286      AB111DB8 
 286      4DC84D66 
 286      CD758B75 
 287 0a8a 5171AC7B 		.ascii	"Qq\254{&\017\235-\333\015\364\260\331\316\205\316\260"
 287      260F9D2D 
 287      DB0DF4B0 
 287      D9CE85CE 
 287      B0
 288 0a9b DF2BD9D9 		.ascii	"\337+\331\331.\325D\277N5\220\3469\355\335\332I\272"
 288      2ED544BF 
 288      4E3590E6 
 288      39EDDDDA 
 288      49BA
 289 0aad ACF33E5A 		.ascii	"\254\363>Z'\331\321\232\212\221\276i\341\263W\205<w"
 289      27D9D19A 
 289      8A91BE69 
 289      E1B35785 
 289      3C77
 290 0abf 88B1B429 		.ascii	"\210\261\264)\332\233\216\242\265\255>\365\263\266\365"
ARM GAS  /tmp/ccxDmDcp.s 			page 23


 290      DA9B8EA2 
 290      B5AD3EF5 
 290      B3B6F5
 291 0ace DA238F6A 		.ascii	"\332#\217j_\217<L\012\310\306\235\371\2631\004\034\261"
 291      5F8F3C4C 
 291      0AC8C69D 
 291      F9B33104 
 291      1CB1
 292 0ae0 64B4647A 		.ascii	"d\264dz\326E\177Ca\254\337.\300\234\331!\353\332\333"
 292      D6457F43 
 292      61ACDF2E 
 292      C09CD921 
 292      EBDADB
 293 0af3 8AE46D08 		.ascii	"\212\344m\010\247\274\315h\303^6C.\326\263s\257\247"
 293      A7BCCD68 
 293      C35E3643 
 293      2ED6B373 
 293      AFA7
 294 0b05 1CF9E2DC 		.ascii	"\034\371\342\334\005f\266\261xu\357\250\263\327\253"
 294      0566B6B1 
 294      7875EFA8 
 294      B3D7AB
 295 0b14 7AB6398E 		.ascii	"z\2669\216\033\375\247\3210\205\200\225\333\300\372"
 295      1BFDA7D1 
 295      30858095 
 295      DBC0FA
 296 0b23 AD60E7BC 		.ascii	"\255`\347\274\200\345\370j\360A\327S\226\35553\010\013"
 296      80E5F86A 
 296      F041D753 
 296      96ED3533 
 296      080B
 297 0b35 C1B30B77 		.ascii	"\301\263\013wZ\027N\237\206\\\360\"\\\216\337\256\235"
 297      5A174E9F 
 297      865CF022 
 297      5C8EDFAE 
 297      9D
 298 0b46 4F9BC112 		.ascii	"O\233\301\022\261\205\300\2253\3465\263\362v\314\312"
 298      B185C095 
 298      33E635B3 
 298      F276CCCA 
 299 0b56 FFC17CDC 		.ascii	"\377\301|\334\207\365N\254\373\261\036\300z\267}!2\247"
 299      87F54EAC 
 299      FBB11EC0 
 299      7AB77D21 
 299      32A7
 300 0b68 84DDC6D1 		.ascii	"\204\335\306\321]\311\202\235\3619\2560t\267\330\332"
 300      5DC9829D 
 300      F139AE30 
 300      74B7D8DA 
 301 0b78 661D416D 		.ascii	"f\035Am\301\275\240\3049\270\3678\006w\363\371\344M"
 301      C1BDA0C4 
 301      39B8F738 
 301      0677F3F9 
 301      E44D
 302 0b8a 8BDC823B 		.ascii	"\213\334\202;\307\036\330 \233v\350\334\330u\235\342"
 302      C71ED820 
 302      9B76E8DC 
ARM GAS  /tmp/ccxDmDcp.s 			page 24


 302      D8759DE2 
 303 0b9a B037C573 		.ascii	"\2607\305s\317\273\010\272\327Q\320w\327\356\037\277"
 303      CFBB08BA 
 303      D751D077 
 303      D7EE1FBF 
 304 0baa 487BC3E1 		.ascii	"H{\303\341\277Fr\312\271\217\225\263C(a\005I\272\010"
 304      BF4672CA 
 304      B98F95B3 
 304      43286105 
 304      49BA08
 305 0bbd B2DF2E08 		.ascii	"\262\337.\010\263v\031\314\261v9\220\261\316\345\\\023"
 305      B37619CC 
 305      B1763990 
 305      B1CEE55C 
 305      13
 306 0bce A6A48563 		.ascii	"\246\244\205c\365_\032\032$\223L\222\"\203\344c\341"
 306      F55F1A1A 
 306      24934C92 
 306      2283E463 
 306      E1
 307 0bdf 72BCB27D 		.ascii	"r\274\262}\374\305\026nL\016\012\231_3\226\0063\027"
 307      FCC5166E 
 307      4C0E0A99 
 307      5F339606 
 307      3317
 308 0bf1 0167793B 		.ascii	"\001gy;s\310{(#/C\325\343\022R\224\352\260+U2\007\257"
 308      73C87B28 
 308      232F43D5 
 308      E3125294 
 308      EAB02B55 
 309 0c08 23192A6A 		.ascii	"#\031*j\332\344\311\324\246\255\247\376\264f\275\246"
 309      DAE4C9D4 
 309      A6ADA7FE 
 309      B466BDA6 
 310 0c18 A10FCE7E 		.ascii	"\241\017\316~\204\365\302\034\203\337\247\206u3\006"
 310      84F5C21C 
 310      83DFA786 
 310      753306
 311 0c27 85054E96 		.ascii	"\205\005N\2265q\240\206c\225& \032m\377\011\014\322"
 311      3571A086 
 311      63952620 
 311      1A6DFF09 
 311      0CD2
 312 0c39 36631FCD 		.ascii	"6c\037\315\366:\020\355\334\373g\375\346\377*]\257\363"
 312      F63A10ED 
 312      DCFB67FD 
 312      E6FF2A5D 
 312      AFF3
 313 0c4b E3B92F3C 		.ascii	"\343\271/<q8\306r\370\314\221C\363\201O\313\2063\235"
 313      7138C672 
 313      F8CC9143 
 313      F3814FCB 
 313      86339D
 314 0c5e 4F33595F 		.ascii	"O3Y_je\202\356\013\236ZJr\261<\301\262<\351\310r\323"
 314      6A6582EE 
 314      0B9E5A4A 
 314      72B13CC1 
ARM GAS  /tmp/ccxDmDcp.s 			page 25


 314      B23CE9C8 
 315 0c74 D65DD556 		.ascii	"\326]\325V}\233,\373J\275\364\353s\226\311Yg\315=\375"
 315      7D9B2CFB 
 315      4ABDF4EB 
 315      7396C959 
 315      67CD3DFD 
 316 0c88 75B6E6DE 		.ascii	"u\266\346\336\367\304a\210\345p\316Es\273\026\220\005"
 316      F7C46188 
 316      E570CE45 
 316      73BB1690 
 316      05
 317 0c99 73347DCA 		.ascii	"s4}\312\324>\2177\271\034\316V\235HNg0\234x~\311\362"
 317      D43E8F37 
 317      B91CCE56 
 317      9D484E67 
 317      309C787E 
 318 0caf 3C9F33F8 		.ascii	"<\2373\370\367\345p\360\2573\016\376mn\231\266sg\252"
 318      F7E570F0 
 318      AF330EFE 
 318      6D6E99B6 
 318      7367AA
 319 0cc2 73F52232 		.ascii	"s\365\"2/\2455\201\276G\2105!|\222I\010;\323\363\224"
 319      2FA53581 
 319      BE478835 
 319      217C9249 
 319      083BD3F3 
 320 0cd7 6F21A94B 		.ascii	"o!\251K\336`\233\211d\266\257\320\304Q\357sN\034\343"
 320      DE609B89 
 320      64B6AFD0 
 320      C451EF73 
 320      4E1CE3
 321 0cea 6C0A305B 		.ascii	"l\0120[\321\237\256\2272S~V\012\236\373\312\360L\221"
 321      D19FAE97 
 321      32537E56 
 321      0A9EFBCA 
 321      F04C91
 322 0cfd 8CA117D7 		.ascii	"\214\241\027\327M\230P\241\377\305\225\012Y\255P\344"
 322      4D9850A1 
 322      FFC5950A 
 322      59AD50E4 
 323 0d0d 7045B8BA 		.ascii	"pE\270\272rVL\214F\302\023\302\334\015\314\373H,\\S"
 323      72564C8C 
 323      46C213C2 
 323      DC0DCCFB 
 323      482C5C53 
 324 0d21 5B29411B 		.ascii	"[)A\033e\226\242\316JH\312\204j\256X\255\226%\2612\244"
 324      6596A2CE 
 324      4A48CA84 
 324      6AAE58AD 
 324      9625B132 
 325 0d36 06A6FCFA 		.ascii	"\006\246\374\372\376\362\311\\0\\\035\322\037\225\273"
 325      FEF2C95C 
 325      305C1DD2 
 325      1F95BB
 326 0d45 93031720 		.ascii	"\223\003\027 \275To\247\204\036\254\225j\245\220zY\232"
 326      BD546FA7 
 326      841EAC95 
ARM GAS  /tmp/ccxDmDcp.s 			page 26


 326      6AA5907A 
 326      599A
 327 0d57 D478E48B 		.ascii	"\324x\344\213I3U_B\226\036\362\343\375$+b8\036\215\306"
 327      4933555F 
 327      42961EF2 
 327      E3FD242B 
 327      62381E8D 
 328 0d6c 631589B8 		.ascii	"c\025\211\270\254*\025w\377\366\276\311\367\315\244"
 328      AC2A1577 
 328      FFF6BEC9 
 328      F7CDA4
 329 0d7b CF12911A 		.ascii	"\317\022\221\032IV*\246L\236\014\214L!\213\324\204\034"
 329      49562AA6 
 329      4C9E0C8C 
 329      4C218BD4 
 329      841C
 330 0d8d 8987D46B 		.ascii	"\211\207\324k+j\0259-HL\252\253\211L\253P\324\312HL"
 330      2B6A1539 
 330      2D484CAA 
 330      AB894CAB 
 330      50D4CA48 
 331 0da2 A55DA985 		.ascii	"\245]\251\205\363\217~\030Rovj\026\025\303\325\221\230"
 331      F38F7E18 
 331      526F766A 
 331      1615C3D5 
 331      9198
 332 0db4 5411AA94 		.ascii	"T\021\252\224\246\213\2655j\310\004\037\023\012\231"
 332      A68BB535 
 332      6AC8041F 
 332      130A99
 333 0dc3 843ECAA6 		.ascii	"\204>\312\246\224\212\024\012\307c*H\377\275\274\"W"
 333      948A140A 
 333      C7632A48 
 333      FFBDBC22 
 333      57
 334 0dd4 87E3B204 		.ascii	"\207\343\262\0040%H\006@au\346\315\336\250B\017\335"
 334      30254806 
 334      406175E6 
 334      CDDEA842 
 334      0FDD
 335 0de6 1EA572CB 		.ascii	"\036\245r\313R\225(GC*/O\342\345\237\010\362-\023\241"
 335      52952847 
 335      432A2F4F 
 335      E2E59F08 
 335      F22D13A1 
 336 0dfa DCC2CBB7 		.ascii	"\334\302\313\267\362\362m\274|;/\377\230\257\221y%!"
 336      F2F26DBC 
 336      7C3B2FFF 
 336      98AF9179 
 336      2521
 337 0e0c 00B41FBA 		.ascii	"\000\264\037\272#\311\376xM\245$\373\302\325\242\354"
 337      23C9FE78 
 337      4DA524FB 
 337      C2D5A2EC 
 338 0e1c 03734B63 		.ascii	"\003sKc\024u\206X\023\251\212\205T\324\302\355\267\206"
 338      14758658 
 338      13A98A85 
ARM GAS  /tmp/ccxDmDcp.s 			page 27


 338      54D4C2ED 
 338      B786
 339 0e2e 54A35FF4 		.ascii	"T\243_\3642P'N\023\025\251XUTQ\005K\025\321\027\223"
 339      3250274E 
 339      1315A958 
 339      55545105 
 339      4B15D117 
 340 0e43 426A506F 		.ascii	"BjPo\002W~|S\244F\343\225\360\336?\275F\254R\212TY\232"
 340      02577E7C 
 340      53A446E3 
 340      95F0DE3F 
 340      BD46AC52 
 341 0e5b AE8056E8 		.ascii	"\256\200V\350\311\037U\252\200\320P\024\020\032W\001"
 341      C91F55AA 
 341      80D05014 
 341      101A5701 
 342 0e6b B97216BC 		.ascii	"\271r\026\274*\226fF\3240\020\007\352\324\370\264?'"
 342      2A966646 
 342      D4301007 
 342      EAD4F8B4 
 342      3F27
 343 0e7d AE30DC0A 		.ascii	"\2560\334\012H%Y\212\205)h\235\252\312\211\"E\212\251"
 343      4825598A 
 343      8529689D 
 343      AACA8922 
 343      458AA9
 344 0e90 40500ACE 		.ascii	"@P\012\316\242HQ1Q\015\212`=\331\342j\022\325\220?\034"
 344      A2485131 
 344      510D8A60 
 344      3DD9E26A 
 344      12D5903F 
 345 0ea5 037B0950 		.ascii	"\003{\011P\003<<J\024\003u\264\026\014\344N\031UgR\312"
 345      033C3C4A 
 345      140375B4 
 345      160CE44E 
 345      19556752 
 346 0eba 785D4C92 		.ascii	"x]L\222\213\260-\325\203\012\217\023%\322CT\010Q\231"
 346      8BB02DD5 
 346      830A8F13 
 346      25D24354 
 346      085199
 347 0ecd 018FA43A 		.ascii	"\001\217\244:zAj\307\232\256[\023Q\200\331\245\026g"
 347      7A416AC7 
 347      9AAE5B13 
 347      5180D9A5 
 347      1667
 348 0edf A64F8AEA 		.ascii	"\246O\212\352\304\210\032\211U\025\203\354\350\314\305"
 348      C4881A89 
 348      551583EC 
 348      E8CCC5
 349 0eee 52428A81 		.ascii	"RB\212\201\347U\025\001$m\001f\024k\250\003\371\243"
 349      E7551501 
 349      246D0166 
 349      146BA803 
 349      F9A3
 350 0f00 8978BC66 		.ascii	"\211x\274f\274\203\017\304\025\352\211\031\031\253%"
 350      BC830FC4 
ARM GAS  /tmp/ccxDmDcp.s 			page 28


 350      15EA8919 
 350      19AB25
 351 0f0f 3101425E 		.ascii	"1\001B^\022\225\242qyV\210\336\206\324\022\313\335D"
 351      1295A271 
 351      795688DE 
 351      86D412CB 
 351      DD44
 352 0f21 F4644A54 		.ascii	"\364dJT\025\016W\200\223\334\034\213\307\244\233%qZ"
 352      150E5780 
 352      93DC1C8B 
 352      C7A49B25 
 352      715A
 353 0f33 A4E2D609 		.ascii	"\244\342\326\011\223\322P\020\003\340\326\000\025P\""
 353      93D25010 
 353      03E0D600 
 353      155022
 354 0f42 7F015D3B 		.ascii	"\177\001];9 \313\034\330\030\256[\012\227U\222:\275"
 354      3920CB1C 
 354      D818AE5B 
 354      0A975592 
 354      3ABD
 355 0f54 361606FF 		.ascii	"6\026\006\377I\310\361\207\"\340]\227\2408P\3015He\271"
 355      49C8F187 
 355      22E05D97 
 355      A03850C1 
 355      354865B9 
 356 0f68 F3A3ABF9 		.ascii	"\363\243\253\371\023b\225\244\370\246\313\222\344\243"
 356      136295A4 
 356      F8A6CB92 
 356      E4A3
 357 0f76 2F7D94B5 		.ascii	"/}\224\265\257V\221*\003z3\001\024\363\035W\373\030"
 357      AF56912A 
 357      037A3301 
 357      14F31D57 
 357      FB18
 358 0f88 CAC5E8D6 		.ascii	"\312\305\350\3269_\031\256\376]u\345dx\254J\277\224"
 358      395F19AE 
 358      FE5D75E5 
 358      6478AC4A 
 358      BF94
 359 0f9a E3D17B00 		.ascii	"\343\321{\000\324O"
 359      D44F
 360 0fa0 91137C62 		.ascii	"\221\023|b\272 \312U\023\274\365\212j_\261\250\225\336"
 360      BA20CA55 
 360      13BCF58A 
 360      6A5FB1A8 
 360      95DE
 361 0fb2 4307F0A4 		.ascii	"C\007\360\244KV\002.*\205\325\020\225x\034\303\365>"
 361      4B56022E 
 361      2A85D510 
 361      95781CC3 
 361      F53E
 362 0fc4 24FA0D34 		.ascii	"$\372\0154\346\243\011\360\322\251\341\352\337\2133"
 362      E6A309F0 
 362      D2A9E1EA 
 362      DF8B33
 363 0fd3 A4DAC454 		.ascii	"\244\332\304T\177\035\015\"_\035\230\335O%N\\i8y\245"
ARM GAS  /tmp/ccxDmDcp.s 			page 29


 363      7F1D0D22 
 363      5F1D98DD 
 363      4F254E5C 
 363      693879A5 
 364 0fe7 A484E548 		.ascii	"\244\204\345HB\215\203\236\256\262\300M\255U\250\217"
 364      428D839E 
 364      AEB2C04D 
 364      AD55A88F 
 365 0ff7 4895F75E 		.ascii	"H\225\367^\021\256\246\275\271"
 365      11AEA6BD 
 365      B9
 366 1000 BBA6261E 		.ascii	"\273\246&\036\276\233*O\252,\011WS&\370(\207\377\317"
 366      BE9B2A4F 
 366      AA2C0957 
 366      5326F828 
 366      87FFCF
 367 1013 A23D81A4 		.ascii	"\242=\201\244<u\226\362\253xxF\020\263\014\220\314\270"
 367      3C7596F2 
 367      AB787846 
 367      10B30C90 
 367      CCB8
 368 1025 C5411990 		.ascii	"\305A\031\220\260*&\3377\365\336\251\031\204\250\022"
 368      B02A26DF 
 368      37F5DEA9 
 368      1984A812 
 369 1035 5142E03C 		.ascii	"QB\340<T\037\241PeD\021\247\325H\241\210\374\340%bM"
 369      541FA150 
 369      654411A7 
 369      D548A188 
 369      FCE02562 
 370 104a 9D384B81 		.ascii	"\2358K\2018\256\201\264X\202\034\356\217Qd=\223\325"
 370      38AE81B4 
 370      58821CEE 
 370      8F51643D 
 370      93D5
 371 105c E2756928 		.ascii	"\342ui($\305L\222\342P\010-\025\272\304\274\230p\333"
 371      24C54C92 
 371      E250082D 
 371      15BAC4BC 
 371      9870DB
 372 106f 6D9326FE 		.ascii	"m\223&\376\027\022m\303\014"
 372      17126DC3 
 372      0C
 373              		.text
 374              		.section	.gnu.lto_.symtab.80d5c452cf215786,"",%progbits
 375 0000 63685468 		.ascii	"chThdCreateFromHeap\000\000\000\000\000\000\000\000"
 375      64437265 
 375      61746546 
 375      726F6D48 
 375      65617000 
 376 001b 00000000 		.ascii	"\000\000\000\000\241\000\000\000chThdCreateFromMemo"
 376      A1000000 
 376      63685468 
 376      64437265 
 376      61746546 
 377 0036 7279506F 		.ascii	"ryPool\000\000\000\000\000\000\000\000\000\000\000\000"
 377      6F6C0000 
ARM GAS  /tmp/ccxDmDcp.s 			page 30


 377      00000000 
 377      00000000 
 377      0000
 378 0048 A1010000 		.ascii	"\241\001\000\000chSchWakeupS\000\000\002\000\000\000"
 378      63685363 
 378      6857616B 
 378      65757053 
 378      00000200 
 379 005e 00000000 		.ascii	"\000\000\000\000\000\000\277\001\000\000chThdCreate"
 379      0000BF01 
 379      00006368 
 379      54686443 
 379      72656174 
 380 0073 53757370 		.ascii	"SuspendedI\000\000\002\000\000\000\000\000\000\000\000"
 380      656E6465 
 380      64490000 
 380      02000000 
 380      00000000 
 381 0088 00C40100 		.ascii	"\000\304\001\000\000chHeapAllocAligned\000\000\002\000"
 381      00636848 
 381      65617041 
 381      6C6C6F63 
 381      416C6967 
 382 00a3 00000000 		.ascii	"\000\000\000\000\000\000\000\000\330\001\000\000chP"
 382      00000000 
 382      D8010000 
 382      636850
 383 00b2 6F6F6C41 		.ascii	"oolAlloc\000\000\002\000\000\000\000\000\000\000\000"
 383      6C6C6F63 
 383      00000200 
 383      00000000 
 383      000000
 384 00c5 00DE0100 		.ascii	"\000\336\001\000\000"
 384      00
 385              		.text
 386              		.section	.gnu.lto_.opts,"",%progbits
 387 0000 272D6D63 		.ascii	"'-mcpu=cortex-m0' '-mno-thumb-interwork' '-mthumb' "
 387      70753D63 
 387      6F727465 
 387      782D6D30 
 387      2720272D 
 388 0033 272D6767 		.ascii	"'-ggdb' '-O2' '-fomit-frame-pointer' '-falign-funct"
 388      64622720 
 388      272D4F32 
 388      2720272D 
 388      666F6D69 
 389 0066 696F6E73 		.ascii	"ions=16' '-ffunction-sections' '-fdata-sections' '-"
 389      3D313627 
 389      20272D66 
 389      66756E63 
 389      74696F6E 
 390 0099 666E6F2D 		.ascii	"fno-common' '-flto'\000"
 390      636F6D6D 
 390      6F6E2720 
 390      272D666C 
 390      746F2700 
 391              		.text
ARM GAS  /tmp/ccxDmDcp.s 			page 31


 392              		.cfi_sections	.debug_frame
 393              		.section	.text.chThdCreateFromHeap,"ax",%progbits
 394              		.align	2
 395              		.p2align 4,,15
 396              		.global	chThdCreateFromHeap
 397              		.code	16
 398              		.thumb_func
 399              		.type	chThdCreateFromHeap, %function
 400              	chThdCreateFromHeap:
 401              	.LFB149:
 402              		.file 1 "../../../os/rt/src/chdynamic.c"
 403              		.loc 1 84 0
 404              		.cfi_startproc
 405              	.LVL0:
 406 0000 70B5     		push	{r4, r5, r6, lr}
 407              		.cfi_def_cfa_offset 16
 408              		.cfi_offset 4, -16
 409              		.cfi_offset 5, -12
 410              		.cfi_offset 6, -8
 411              		.cfi_offset 14, -4
 412 0002 161C     		mov	r6, r2
 413 0004 86B0     		sub	sp, sp, #24
 414              		.cfi_def_cfa_offset 40
 415              		.loc 1 88 0
 416 0006 0822     		mov	r2, #8
 417              	.LVL1:
 418              		.loc 1 84 0
 419 0008 0C1C     		mov	r4, r1
 420 000a 1D1C     		mov	r5, r3
 421              		.loc 1 88 0
 422 000c FFF7FEFF 		bl	chHeapAllocAligned
 423              	.LVL2:
 424              		.loc 1 89 0
 425 0010 0028     		cmp	r0, #0
 426 0012 17D0     		beq	.L3
 427              		.loc 1 93 0
 428 0014 0A9B     		ldr	r3, [sp, #40]
 429 0016 0190     		str	r0, [sp, #4]
 430 0018 0493     		str	r3, [sp, #16]
 431 001a 0B9B     		ldr	r3, [sp, #44]
 432              		.loc 1 96 0
 433 001c 0019     		add	r0, r0, r4
 434              	.LVL3:
 435              		.loc 1 93 0
 436 001e 0096     		str	r6, [sp]
 437 0020 0290     		str	r0, [sp, #8]
 438 0022 0395     		str	r5, [sp, #12]
 439 0024 0593     		str	r3, [sp, #20]
 440              	.LBB34:
 441              	.LBB35:
 442              	.LBB36:
 443              	.LBB37:
 444              		.file 2 "../../../os/common/ext/CMSIS/include/cmsis_gcc.h"
 445              		.loc 2 71 0
 446              	@ 71 "../../../os/common/ext/CMSIS/include/cmsis_gcc.h" 1
 447 0026 72B6     		cpsid i
 448              	@ 0 "" 2
ARM GAS  /tmp/ccxDmDcp.s 			page 32


 449              		.code	16
 450              	.LBE37:
 451              	.LBE36:
 452              	.LBE35:
 453              	.LBE34:
 454              		.loc 1 109 0
 455 0028 6846     		mov	r0, sp
 456 002a FFF7FEFF 		bl	chThdCreateSuspendedI
 457              	.LVL4:
 458              		.loc 1 110 0
 459 002e 0122     		mov	r2, #1
 460 0030 2123     		mov	r3, #33
 461 0032 C254     		strb	r2, [r0, r3]
 462              		.loc 1 111 0
 463 0034 0021     		mov	r1, #0
 464              		.loc 1 109 0
 465 0036 041C     		mov	r4, r0
 466              	.LVL5:
 467              		.loc 1 111 0
 468 0038 FFF7FEFF 		bl	chSchWakeupS
 469              	.LVL6:
 470              	.LBB38:
 471              	.LBB39:
 472              	.LBB40:
 473              	.LBB41:
 474              	.LBB42:
 475              		.loc 2 60 0
 476              	@ 60 "../../../os/common/ext/CMSIS/include/cmsis_gcc.h" 1
 477 003c 62B6     		cpsie i
 478              	@ 0 "" 2
 479              		.code	16
 480              	.LBE42:
 481              	.LBE41:
 482              	.LBE40:
 483              	.LBE39:
 484              	.LBE38:
 485              		.loc 1 114 0
 486 003e 201C     		mov	r0, r4
 487              	.LVL7:
 488              	.L2:
 489              		.loc 1 115 0
 490 0040 06B0     		add	sp, sp, #24
 491              		@ sp needed
 492              	.LVL8:
 493              	.LVL9:
 494 0042 70BD     		pop	{r4, r5, r6, pc}
 495              	.LVL10:
 496              	.L3:
 497              		.loc 1 90 0
 498 0044 0020     		mov	r0, #0
 499              	.LVL11:
 500 0046 FBE7     		b	.L2
 501              		.cfi_endproc
 502              	.LFE149:
 503              		.size	chThdCreateFromHeap, .-chThdCreateFromHeap
 504 0048 C046C046 		.section	.text.chThdCreateFromMemoryPool,"ax",%progbits
 504      C046C046 
ARM GAS  /tmp/ccxDmDcp.s 			page 33


 505              		.align	2
 506              		.p2align 4,,15
 507              		.global	chThdCreateFromMemoryPool
 508              		.code	16
 509              		.thumb_func
 510              		.type	chThdCreateFromMemoryPool, %function
 511              	chThdCreateFromMemoryPool:
 512              	.LFB150:
 513              		.loc 1 146 0
 514              		.cfi_startproc
 515              	.LVL12:
 516 0000 F0B5     		push	{r4, r5, r6, r7, lr}
 517              		.cfi_def_cfa_offset 20
 518              		.cfi_offset 4, -20
 519              		.cfi_offset 5, -16
 520              		.cfi_offset 6, -12
 521              		.cfi_offset 7, -8
 522              		.cfi_offset 14, -4
 523 0002 87B0     		sub	sp, sp, #28
 524              		.cfi_def_cfa_offset 48
 525              		.loc 1 146 0
 526 0004 051C     		mov	r5, r0
 527 0006 0F1C     		mov	r7, r1
 528 0008 161C     		mov	r6, r2
 529 000a 1C1C     		mov	r4, r3
 530              		.loc 1 152 0
 531 000c FFF7FEFF 		bl	chPoolAlloc
 532              	.LVL13:
 533              		.loc 1 153 0
 534 0010 0028     		cmp	r0, #0
 535 0012 18D0     		beq	.L7
 536              		.loc 1 160 0
 537 0014 6B68     		ldr	r3, [r5, #4]
 538              		.loc 1 157 0
 539 0016 0190     		str	r0, [sp, #4]
 540              		.loc 1 160 0
 541 0018 C018     		add	r0, r0, r3
 542              	.LVL14:
 543              		.loc 1 157 0
 544 001a 0C9B     		ldr	r3, [sp, #48]
 545 001c 0097     		str	r7, [sp]
 546 001e 0290     		str	r0, [sp, #8]
 547 0020 0396     		str	r6, [sp, #12]
 548 0022 0494     		str	r4, [sp, #16]
 549 0024 0593     		str	r3, [sp, #20]
 550              	.LBB43:
 551              	.LBB44:
 552              	.LBB45:
 553              	.LBB46:
 554              		.loc 2 71 0
 555              	@ 71 "../../../os/common/ext/CMSIS/include/cmsis_gcc.h" 1
 556 0026 72B6     		cpsid i
 557              	@ 0 "" 2
 558              		.code	16
 559              	.LBE46:
 560              	.LBE45:
 561              	.LBE44:
ARM GAS  /tmp/ccxDmDcp.s 			page 34


 562              	.LBE43:
 563              		.loc 1 174 0
 564 0028 6846     		mov	r0, sp
 565 002a FFF7FEFF 		bl	chThdCreateSuspendedI
 566              	.LVL15:
 567              		.loc 1 175 0
 568 002e 0222     		mov	r2, #2
 569 0030 2123     		mov	r3, #33
 570 0032 C254     		strb	r2, [r0, r3]
 571              		.loc 1 177 0
 572 0034 0021     		mov	r1, #0
 573              		.loc 1 176 0
 574 0036 0564     		str	r5, [r0, #64]
 575              		.loc 1 174 0
 576 0038 041C     		mov	r4, r0
 577              	.LVL16:
 578              		.loc 1 177 0
 579 003a FFF7FEFF 		bl	chSchWakeupS
 580              	.LVL17:
 581              	.LBB47:
 582              	.LBB48:
 583              	.LBB49:
 584              	.LBB50:
 585              	.LBB51:
 586              		.loc 2 60 0
 587              	@ 60 "../../../os/common/ext/CMSIS/include/cmsis_gcc.h" 1
 588 003e 62B6     		cpsie i
 589              	@ 0 "" 2
 590              		.code	16
 591              	.LBE51:
 592              	.LBE50:
 593              	.LBE49:
 594              	.LBE48:
 595              	.LBE47:
 596              		.loc 1 180 0
 597 0040 201C     		mov	r0, r4
 598              	.LVL18:
 599              	.L6:
 600              		.loc 1 181 0
 601 0042 07B0     		add	sp, sp, #28
 602              		@ sp needed
 603              	.LVL19:
 604              	.LVL20:
 605              	.LVL21:
 606 0044 F0BD     		pop	{r4, r5, r6, r7, pc}
 607              	.LVL22:
 608              	.L7:
 609              		.loc 1 154 0
 610 0046 0020     		mov	r0, #0
 611              	.LVL23:
 612 0048 FBE7     		b	.L6
 613              		.cfi_endproc
 614              	.LFE150:
 615              		.size	chThdCreateFromMemoryPool, .-chThdCreateFromMemoryPool
 616 004a C046C046 		.text
 616      C046
 617              	.Letext0:
ARM GAS  /tmp/ccxDmDcp.s 			page 35


 618              		.file 3 "/usr/lib/gcc/arm-none-eabi/4.8/include/stddef.h"
 619              		.file 4 "/usr/include/newlib/machine/_default_types.h"
 620              		.file 5 "/usr/include/newlib/stdint.h"
 621              		.file 6 "../../../os/common/ports/ARMCMx/compilers/GCC/chtypes.h"
 622              		.file 7 "../../../os/rt/include/chsystypes.h"
 623              		.file 8 "../../../os/rt/include/chschd.h"
 624              		.file 9 "../../../os/common/ports/ARMCMx/chcore.h"
 625              		.file 10 "../../../os/common/ports/ARMCMx/chcore_v6m.h"
 626              		.file 11 "../../../os/rt/include/chsem.h"
 627              		.file 12 "../../../os/rt/include/chmtx.h"
 628              		.file 13 "../../../os/rt/include/chthreads.h"
 629              		.file 14 "../../../os/common/oslib/include/chmemcore.h"
 630              		.file 15 "../../../os/common/oslib/include/chheap.h"
 631              		.file 16 "../../../os/common/oslib/include/chmempools.h"
 632              		.file 17 "../../../os/rt/include/chsys.h"
 633              		.section	.debug_info,"",%progbits
 634              	.Ldebug_info0:
 635 0000 080B0000 		.4byte	0xb08
 636 0004 0400     		.2byte	0x4
 637 0006 00000000 		.4byte	.Ldebug_abbrev0
 638 000a 04       		.byte	0x4
 639 000b 01       		.uleb128 0x1
 640 000c 07010000 		.4byte	.LASF121
 641 0010 01       		.byte	0x1
 642 0011 3F030000 		.4byte	.LASF122
 643 0015 C3050000 		.4byte	.LASF123
 644 0019 00000000 		.4byte	.Ldebug_ranges0+0
 645 001d 00000000 		.4byte	0
 646 0021 00000000 		.4byte	.Ldebug_line0
 647 0025 02       		.uleb128 0x2
 648 0026 04       		.byte	0x4
 649 0027 05       		.byte	0x5
 650 0028 696E7400 		.ascii	"int\000"
 651 002c 03       		.uleb128 0x3
 652 002d 8C020000 		.4byte	.LASF2
 653 0031 03       		.byte	0x3
 654 0032 D4       		.byte	0xd4
 655 0033 37000000 		.4byte	0x37
 656 0037 04       		.uleb128 0x4
 657 0038 04       		.byte	0x4
 658 0039 07       		.byte	0x7
 659 003a 64000000 		.4byte	.LASF0
 660 003e 04       		.uleb128 0x4
 661 003f 01       		.byte	0x1
 662 0040 06       		.byte	0x6
 663 0041 73050000 		.4byte	.LASF1
 664 0045 03       		.uleb128 0x3
 665 0046 6E040000 		.4byte	.LASF3
 666 004a 04       		.byte	0x4
 667 004b 1D       		.byte	0x1d
 668 004c 50000000 		.4byte	0x50
 669 0050 04       		.uleb128 0x4
 670 0051 01       		.byte	0x1
 671 0052 08       		.byte	0x8
 672 0053 FF040000 		.4byte	.LASF4
 673 0057 04       		.uleb128 0x4
 674 0058 02       		.byte	0x2
ARM GAS  /tmp/ccxDmDcp.s 			page 36


 675 0059 05       		.byte	0x5
 676 005a FF030000 		.4byte	.LASF5
 677 005e 03       		.uleb128 0x3
 678 005f 20020000 		.4byte	.LASF6
 679 0063 04       		.byte	0x4
 680 0064 2B       		.byte	0x2b
 681 0065 69000000 		.4byte	0x69
 682 0069 04       		.uleb128 0x4
 683 006a 02       		.byte	0x2
 684 006b 07       		.byte	0x7
 685 006c 85050000 		.4byte	.LASF7
 686 0070 03       		.uleb128 0x3
 687 0071 85000000 		.4byte	.LASF8
 688 0075 04       		.byte	0x4
 689 0076 3F       		.byte	0x3f
 690 0077 7B000000 		.4byte	0x7b
 691 007b 04       		.uleb128 0x4
 692 007c 04       		.byte	0x4
 693 007d 05       		.byte	0x5
 694 007e 15040000 		.4byte	.LASF9
 695 0082 03       		.uleb128 0x3
 696 0083 0D050000 		.4byte	.LASF10
 697 0087 04       		.byte	0x4
 698 0088 41       		.byte	0x41
 699 0089 8D000000 		.4byte	0x8d
 700 008d 04       		.uleb128 0x4
 701 008e 04       		.byte	0x4
 702 008f 07       		.byte	0x7
 703 0090 A9040000 		.4byte	.LASF11
 704 0094 04       		.uleb128 0x4
 705 0095 08       		.byte	0x8
 706 0096 05       		.byte	0x5
 707 0097 72030000 		.4byte	.LASF12
 708 009b 03       		.uleb128 0x3
 709 009c C2020000 		.4byte	.LASF13
 710 00a0 04       		.byte	0x4
 711 00a1 5B       		.byte	0x5b
 712 00a2 A6000000 		.4byte	0xa6
 713 00a6 04       		.uleb128 0x4
 714 00a7 08       		.byte	0x8
 715 00a8 07       		.byte	0x7
 716 00a9 09020000 		.4byte	.LASF14
 717 00ad 03       		.uleb128 0x3
 718 00ae 1E030000 		.4byte	.LASF15
 719 00b2 05       		.byte	0x5
 720 00b3 2A       		.byte	0x2a
 721 00b4 45000000 		.4byte	0x45
 722 00b8 03       		.uleb128 0x3
 723 00b9 E3030000 		.4byte	.LASF16
 724 00bd 05       		.byte	0x5
 725 00be 36       		.byte	0x36
 726 00bf 5E000000 		.4byte	0x5e
 727 00c3 03       		.uleb128 0x3
 728 00c4 CE040000 		.4byte	.LASF17
 729 00c8 05       		.byte	0x5
 730 00c9 41       		.byte	0x41
 731 00ca 70000000 		.4byte	0x70
ARM GAS  /tmp/ccxDmDcp.s 			page 37


 732 00ce 03       		.uleb128 0x3
 733 00cf AA010000 		.4byte	.LASF18
 734 00d3 05       		.byte	0x5
 735 00d4 42       		.byte	0x42
 736 00d5 82000000 		.4byte	0x82
 737 00d9 03       		.uleb128 0x3
 738 00da 53040000 		.4byte	.LASF19
 739 00de 05       		.byte	0x5
 740 00df 4E       		.byte	0x4e
 741 00e0 9B000000 		.4byte	0x9b
 742 00e4 03       		.uleb128 0x3
 743 00e5 D0030000 		.4byte	.LASF20
 744 00e9 06       		.byte	0x6
 745 00ea 3C       		.byte	0x3c
 746 00eb AD000000 		.4byte	0xad
 747 00ef 03       		.uleb128 0x3
 748 00f0 15030000 		.4byte	.LASF21
 749 00f4 06       		.byte	0x6
 750 00f5 3D       		.byte	0x3d
 751 00f6 AD000000 		.4byte	0xad
 752 00fa 03       		.uleb128 0x3
 753 00fb A1040000 		.4byte	.LASF22
 754 00ff 06       		.byte	0x6
 755 0100 3E       		.byte	0x3e
 756 0101 AD000000 		.4byte	0xad
 757 0105 03       		.uleb128 0x3
 758 0106 E8010000 		.4byte	.LASF23
 759 010a 06       		.byte	0x6
 760 010b 40       		.byte	0x40
 761 010c CE000000 		.4byte	0xce
 762 0110 03       		.uleb128 0x3
 763 0111 80030000 		.4byte	.LASF24
 764 0115 06       		.byte	0x6
 765 0116 41       		.byte	0x41
 766 0117 C3000000 		.4byte	0xc3
 767 011b 03       		.uleb128 0x3
 768 011c BB010000 		.4byte	.LASF25
 769 0120 06       		.byte	0x6
 770 0121 43       		.byte	0x43
 771 0122 CE000000 		.4byte	0xce
 772 0126 03       		.uleb128 0x3
 773 0127 2B020000 		.4byte	.LASF26
 774 012b 06       		.byte	0x6
 775 012c 45       		.byte	0x45
 776 012d C3000000 		.4byte	0xc3
 777 0131 03       		.uleb128 0x3
 778 0132 3A000000 		.4byte	.LASF27
 779 0136 07       		.byte	0x7
 780 0137 35       		.byte	0x35
 781 0138 B8000000 		.4byte	0xb8
 782 013c 03       		.uleb128 0x3
 783 013d 77020000 		.4byte	.LASF28
 784 0141 07       		.byte	0x7
 785 0142 3F       		.byte	0x3f
 786 0143 47010000 		.4byte	0x147
 787 0147 05       		.uleb128 0x5
 788 0148 2F030000 		.4byte	.LASF46
ARM GAS  /tmp/ccxDmDcp.s 			page 38


 789 014c 44       		.byte	0x44
 790 014d 08       		.byte	0x8
 791 014e 9A       		.byte	0x9a
 792 014f 25020000 		.4byte	0x225
 793 0153 06       		.uleb128 0x6
 794 0154 C8040000 		.4byte	.LASF29
 795 0158 08       		.byte	0x8
 796 0159 9B       		.byte	0x9b
 797 015a 5A020000 		.4byte	0x25a
 798 015e 00       		.byte	0
 799 015f 06       		.uleb128 0x6
 800 0160 D7020000 		.4byte	.LASF30
 801 0164 08       		.byte	0x8
 802 0165 9C       		.byte	0x9c
 803 0166 05010000 		.4byte	0x105
 804 016a 08       		.byte	0x8
 805 016b 07       		.uleb128 0x7
 806 016c 63747800 		.ascii	"ctx\000"
 807 0170 08       		.byte	0x8
 808 0171 9D       		.byte	0x9d
 809 0172 46040000 		.4byte	0x446
 810 0176 0C       		.byte	0xc
 811 0177 06       		.uleb128 0x6
 812 0178 F9040000 		.4byte	.LASF31
 813 017c 08       		.byte	0x8
 814 017d 9F       		.byte	0x9f
 815 017e 30020000 		.4byte	0x230
 816 0182 10       		.byte	0x10
 817 0183 06       		.uleb128 0x6
 818 0184 BD050000 		.4byte	.LASF32
 819 0188 08       		.byte	0x8
 820 0189 A0       		.byte	0xa0
 821 018a 30020000 		.4byte	0x230
 822 018e 14       		.byte	0x14
 823 018f 06       		.uleb128 0x6
 824 0190 93040000 		.4byte	.LASF33
 825 0194 08       		.byte	0x8
 826 0195 A7       		.byte	0xa7
 827 0196 A1050000 		.4byte	0x5a1
 828 019a 18       		.byte	0x18
 829 019b 06       		.uleb128 0x6
 830 019c F4020000 		.4byte	.LASF34
 831 01a0 08       		.byte	0x8
 832 01a1 B0       		.byte	0xb0
 833 01a2 B3050000 		.4byte	0x5b3
 834 01a6 1C       		.byte	0x1c
 835 01a7 06       		.uleb128 0x6
 836 01a8 49050000 		.4byte	.LASF35
 837 01ac 08       		.byte	0x8
 838 01ad B5       		.byte	0xb5
 839 01ae EF000000 		.4byte	0xef
 840 01b2 20       		.byte	0x20
 841 01b3 06       		.uleb128 0x6
 842 01b4 34000000 		.4byte	.LASF36
 843 01b8 08       		.byte	0x8
 844 01b9 B9       		.byte	0xb9
 845 01ba E4000000 		.4byte	0xe4
ARM GAS  /tmp/ccxDmDcp.s 			page 39


 846 01be 21       		.byte	0x21
 847 01bf 06       		.uleb128 0x6
 848 01c0 8F000000 		.4byte	.LASF37
 849 01c4 08       		.byte	0x8
 850 01c5 BE       		.byte	0xbe
 851 01c6 FA000000 		.4byte	0xfa
 852 01ca 22       		.byte	0x22
 853 01cb 08       		.uleb128 0x8
 854 01cc 7500     		.ascii	"u\000"
 855 01ce 08       		.byte	0x8
 856 01cf 0F01     		.2byte	0x10f
 857 01d1 D6040000 		.4byte	0x4d6
 858 01d5 24       		.byte	0x24
 859 01d6 09       		.uleb128 0x9
 860 01d7 18050000 		.4byte	.LASF38
 861 01db 08       		.byte	0x8
 862 01dc 1401     		.2byte	0x114
 863 01de 36020000 		.4byte	0x236
 864 01e2 28       		.byte	0x28
 865 01e3 09       		.uleb128 0x9
 866 01e4 26030000 		.4byte	.LASF39
 867 01e8 08       		.byte	0x8
 868 01e9 1A01     		.2byte	0x11a
 869 01eb 5A020000 		.4byte	0x25a
 870 01ef 2C       		.byte	0x2c
 871 01f0 09       		.uleb128 0x9
 872 01f1 4D000000 		.4byte	.LASF40
 873 01f5 08       		.byte	0x8
 874 01f6 2001     		.2byte	0x120
 875 01f8 1B010000 		.4byte	0x11b
 876 01fc 34       		.byte	0x34
 877 01fd 09       		.uleb128 0x9
 878 01fe 53020000 		.4byte	.LASF41
 879 0202 08       		.byte	0x8
 880 0203 2701     		.2byte	0x127
 881 0205 9B050000 		.4byte	0x59b
 882 0209 38       		.byte	0x38
 883 020a 09       		.uleb128 0x9
 884 020b 44000000 		.4byte	.LASF42
 885 020f 08       		.byte	0x8
 886 0210 2B01     		.2byte	0x12b
 887 0212 05010000 		.4byte	0x105
 888 0216 3C       		.byte	0x3c
 889 0217 09       		.uleb128 0x9
 890 0218 16060000 		.4byte	.LASF43
 891 021c 08       		.byte	0x8
 892 021d 3201     		.2byte	0x132
 893 021f 0D030000 		.4byte	0x30d
 894 0223 40       		.byte	0x40
 895 0224 00       		.byte	0
 896 0225 03       		.uleb128 0x3
 897 0226 E1020000 		.4byte	.LASF44
 898 022a 07       		.byte	0x7
 899 022b 44       		.byte	0x44
 900 022c 30020000 		.4byte	0x230
 901 0230 0A       		.uleb128 0xa
 902 0231 04       		.byte	0x4
ARM GAS  /tmp/ccxDmDcp.s 			page 40


 903 0232 3C010000 		.4byte	0x13c
 904 0236 03       		.uleb128 0x3
 905 0237 76000000 		.4byte	.LASF45
 906 023b 07       		.byte	0x7
 907 023c 49       		.byte	0x49
 908 023d 41020000 		.4byte	0x241
 909 0241 05       		.uleb128 0x5
 910 0242 00000000 		.4byte	.LASF47
 911 0246 04       		.byte	0x4
 912 0247 08       		.byte	0x8
 913 0248 88       		.byte	0x88
 914 0249 5A020000 		.4byte	0x25a
 915 024d 06       		.uleb128 0x6
 916 024e 71000000 		.4byte	.LASF48
 917 0252 08       		.byte	0x8
 918 0253 89       		.byte	0x89
 919 0254 30020000 		.4byte	0x230
 920 0258 00       		.byte	0
 921 0259 00       		.byte	0
 922 025a 03       		.uleb128 0x3
 923 025b 43020000 		.4byte	.LASF49
 924 025f 07       		.byte	0x7
 925 0260 50       		.byte	0x50
 926 0261 65020000 		.4byte	0x265
 927 0265 05       		.uleb128 0x5
 928 0266 DD000000 		.4byte	.LASF50
 929 026a 08       		.byte	0x8
 930 026b 08       		.byte	0x8
 931 026c 8F       		.byte	0x8f
 932 026d 8A020000 		.4byte	0x28a
 933 0271 06       		.uleb128 0x6
 934 0272 71000000 		.4byte	.LASF48
 935 0276 08       		.byte	0x8
 936 0277 90       		.byte	0x90
 937 0278 30020000 		.4byte	0x230
 938 027c 00       		.byte	0
 939 027d 06       		.uleb128 0x6
 940 027e D8000000 		.4byte	.LASF51
 941 0282 08       		.byte	0x8
 942 0283 91       		.byte	0x91
 943 0284 30020000 		.4byte	0x230
 944 0288 04       		.byte	0x4
 945 0289 00       		.byte	0
 946 028a 03       		.uleb128 0x3
 947 028b BB040000 		.4byte	.LASF52
 948 028f 07       		.byte	0x7
 949 0290 57       		.byte	0x57
 950 0291 95020000 		.4byte	0x295
 951 0295 0B       		.uleb128 0xb
 952 0296 BE000000 		.4byte	.LASF53
 953 029a 1C       		.byte	0x1c
 954 029b 08       		.byte	0x8
 955 029c 6A01     		.2byte	0x16a
 956 029e F1020000 		.4byte	0x2f1
 957 02a2 09       		.uleb128 0x9
 958 02a3 C8040000 		.4byte	.LASF29
 959 02a7 08       		.byte	0x8
ARM GAS  /tmp/ccxDmDcp.s 			page 41


 960 02a8 6B01     		.2byte	0x16b
 961 02aa 5A020000 		.4byte	0x25a
 962 02ae 00       		.byte	0
 963 02af 09       		.uleb128 0x9
 964 02b0 D7020000 		.4byte	.LASF30
 965 02b4 08       		.byte	0x8
 966 02b5 6C01     		.2byte	0x16c
 967 02b7 05010000 		.4byte	0x105
 968 02bb 08       		.byte	0x8
 969 02bc 08       		.uleb128 0x8
 970 02bd 63747800 		.ascii	"ctx\000"
 971 02c1 08       		.byte	0x8
 972 02c2 6E01     		.2byte	0x16e
 973 02c4 46040000 		.4byte	0x446
 974 02c8 0C       		.byte	0xc
 975 02c9 09       		.uleb128 0x9
 976 02ca F9040000 		.4byte	.LASF31
 977 02ce 08       		.byte	0x8
 978 02cf 7101     		.2byte	0x171
 979 02d1 30020000 		.4byte	0x230
 980 02d5 10       		.byte	0x10
 981 02d6 09       		.uleb128 0x9
 982 02d7 BD050000 		.4byte	.LASF32
 983 02db 08       		.byte	0x8
 984 02dc 7201     		.2byte	0x172
 985 02de 30020000 		.4byte	0x230
 986 02e2 14       		.byte	0x14
 987 02e3 09       		.uleb128 0x9
 988 02e4 A3050000 		.4byte	.LASF54
 989 02e8 08       		.byte	0x8
 990 02e9 7501     		.2byte	0x175
 991 02eb 30020000 		.4byte	0x230
 992 02ef 18       		.byte	0x18
 993 02f0 00       		.byte	0
 994 02f1 03       		.uleb128 0x3
 995 02f2 EE000000 		.4byte	.LASF55
 996 02f6 07       		.byte	0x7
 997 02f7 5C       		.byte	0x5c
 998 02f8 FC020000 		.4byte	0x2fc
 999 02fc 0A       		.uleb128 0xa
 1000 02fd 04       		.byte	0x4
 1001 02fe 02030000 		.4byte	0x302
 1002 0302 0C       		.uleb128 0xc
 1003 0303 0D030000 		.4byte	0x30d
 1004 0307 0D       		.uleb128 0xd
 1005 0308 0D030000 		.4byte	0x30d
 1006 030c 00       		.byte	0
 1007 030d 0E       		.uleb128 0xe
 1008 030e 04       		.byte	0x4
 1009 030f 03       		.uleb128 0x3
 1010 0310 86030000 		.4byte	.LASF56
 1011 0314 07       		.byte	0x7
 1012 0315 61       		.byte	0x61
 1013 0316 1A030000 		.4byte	0x31a
 1014 031a 0B       		.uleb128 0xb
 1015 031b F0010000 		.4byte	.LASF57
 1016 031f 14       		.byte	0x14
ARM GAS  /tmp/ccxDmDcp.s 			page 42


 1017 0320 08       		.byte	0x8
 1018 0321 4501     		.2byte	0x145
 1019 0323 69030000 		.4byte	0x369
 1020 0327 09       		.uleb128 0x9
 1021 0328 71000000 		.4byte	.LASF48
 1022 032c 08       		.byte	0x8
 1023 032d 4601     		.2byte	0x146
 1024 032f B9050000 		.4byte	0x5b9
 1025 0333 00       		.byte	0
 1026 0334 09       		.uleb128 0x9
 1027 0335 D8000000 		.4byte	.LASF51
 1028 0339 08       		.byte	0x8
 1029 033a 4701     		.2byte	0x147
 1030 033c B9050000 		.4byte	0x5b9
 1031 0340 04       		.byte	0x4
 1032 0341 09       		.uleb128 0x9
 1033 0342 7F050000 		.4byte	.LASF58
 1034 0346 08       		.byte	0x8
 1035 0347 4801     		.2byte	0x148
 1036 0349 31010000 		.4byte	0x131
 1037 034d 08       		.byte	0x8
 1038 034e 09       		.uleb128 0x9
 1039 034f CC000000 		.4byte	.LASF59
 1040 0353 08       		.byte	0x8
 1041 0354 4901     		.2byte	0x149
 1042 0356 F1020000 		.4byte	0x2f1
 1043 035a 0C       		.byte	0xc
 1044 035b 08       		.uleb128 0x8
 1045 035c 70617200 		.ascii	"par\000"
 1046 0360 08       		.byte	0x8
 1047 0361 4B01     		.2byte	0x14b
 1048 0363 0D030000 		.4byte	0x30d
 1049 0367 10       		.byte	0x10
 1050 0368 00       		.byte	0
 1051 0369 03       		.uleb128 0x3
 1052 036a 26050000 		.4byte	.LASF60
 1053 036e 07       		.byte	0x7
 1054 036f 66       		.byte	0x66
 1055 0370 74030000 		.4byte	0x374
 1056 0374 0B       		.uleb128 0xb
 1057 0375 5B020000 		.4byte	.LASF61
 1058 0379 0C       		.byte	0xc
 1059 037a 08       		.byte	0x8
 1060 037b 5501     		.2byte	0x155
 1061 037d B6030000 		.4byte	0x3b6
 1062 0381 09       		.uleb128 0x9
 1063 0382 71000000 		.4byte	.LASF48
 1064 0386 08       		.byte	0x8
 1065 0387 5601     		.2byte	0x156
 1066 0389 B9050000 		.4byte	0x5b9
 1067 038d 00       		.byte	0
 1068 038e 09       		.uleb128 0x9
 1069 038f D8000000 		.4byte	.LASF51
 1070 0393 08       		.byte	0x8
 1071 0394 5801     		.2byte	0x158
 1072 0396 B9050000 		.4byte	0x5b9
 1073 039a 04       		.byte	0x4
ARM GAS  /tmp/ccxDmDcp.s 			page 43


 1074 039b 09       		.uleb128 0x9
 1075 039c 7F050000 		.4byte	.LASF58
 1076 03a0 08       		.byte	0x8
 1077 03a1 5A01     		.2byte	0x15a
 1078 03a3 31010000 		.4byte	0x131
 1079 03a7 08       		.byte	0x8
 1080 03a8 09       		.uleb128 0x9
 1081 03a9 4A040000 		.4byte	.LASF62
 1082 03ad 08       		.byte	0x8
 1083 03ae 6201     		.2byte	0x162
 1084 03b0 31010000 		.4byte	0x131
 1085 03b4 0A       		.byte	0xa
 1086 03b5 00       		.byte	0
 1087 03b6 03       		.uleb128 0x3
 1088 03b7 5E030000 		.4byte	.LASF63
 1089 03bb 07       		.byte	0x7
 1090 03bc 6B       		.byte	0x6b
 1091 03bd C1030000 		.4byte	0x3c1
 1092 03c1 0B       		.uleb128 0xb
 1093 03c2 F7000000 		.4byte	.LASF64
 1094 03c6 04       		.byte	0x4
 1095 03c7 08       		.byte	0x8
 1096 03c8 7C01     		.2byte	0x17c
 1097 03ca DC030000 		.4byte	0x3dc
 1098 03ce 09       		.uleb128 0x9
 1099 03cf C6030000 		.4byte	.LASF65
 1100 03d3 08       		.byte	0x8
 1101 03d4 8401     		.2byte	0x184
 1102 03d6 BF050000 		.4byte	0x5bf
 1103 03da 00       		.byte	0
 1104 03db 00       		.byte	0
 1105 03dc 03       		.uleb128 0x3
 1106 03dd 5B050000 		.4byte	.LASF66
 1107 03e1 07       		.byte	0x7
 1108 03e2 70       		.byte	0x70
 1109 03e3 E7030000 		.4byte	0x3e7
 1110 03e7 0B       		.uleb128 0xb
 1111 03e8 37040000 		.4byte	.LASF67
 1112 03ec 70       		.byte	0x70
 1113 03ed 08       		.byte	0x8
 1114 03ee 9C01     		.2byte	0x19c
 1115 03f0 29040000 		.4byte	0x429
 1116 03f4 09       		.uleb128 0x9
 1117 03f5 5C040000 		.4byte	.LASF68
 1118 03f9 08       		.byte	0x8
 1119 03fa A001     		.2byte	0x1a0
 1120 03fc 8A020000 		.4byte	0x28a
 1121 0400 00       		.byte	0
 1122 0401 09       		.uleb128 0x9
 1123 0402 AA000000 		.4byte	.LASF69
 1124 0406 08       		.byte	0x8
 1125 0407 A401     		.2byte	0x1a4
 1126 0409 69030000 		.4byte	0x369
 1127 040d 1C       		.byte	0x1c
 1128 040e 08       		.uleb128 0x8
 1129 040f 64626700 		.ascii	"dbg\000"
 1130 0413 08       		.byte	0x8
ARM GAS  /tmp/ccxDmDcp.s 			page 44


 1131 0414 A801     		.2byte	0x1a8
 1132 0416 B6030000 		.4byte	0x3b6
 1133 041a 28       		.byte	0x28
 1134 041b 09       		.uleb128 0x9
 1135 041c D8030000 		.4byte	.LASF70
 1136 0420 08       		.byte	0x8
 1137 0421 AC01     		.2byte	0x1ac
 1138 0423 3C010000 		.4byte	0x13c
 1139 0427 2C       		.byte	0x2c
 1140 0428 00       		.byte	0
 1141 0429 04       		.uleb128 0x4
 1142 042a 04       		.byte	0x4
 1143 042b 07       		.byte	0x7
 1144 042c 98040000 		.4byte	.LASF71
 1145 0430 03       		.uleb128 0x3
 1146 0431 2B000000 		.4byte	.LASF72
 1147 0435 09       		.byte	0x9
 1148 0436 65       		.byte	0x65
 1149 0437 0D030000 		.4byte	0x30d
 1150 043b 03       		.uleb128 0x3
 1151 043c 98050000 		.4byte	.LASF73
 1152 0440 09       		.byte	0x9
 1153 0441 6D       		.byte	0x6d
 1154 0442 D9000000 		.4byte	0xd9
 1155 0446 05       		.uleb128 0x5
 1156 0447 B1000000 		.4byte	.LASF74
 1157 044b 04       		.byte	0x4
 1158 044c 09       		.byte	0x9
 1159 044d 89       		.byte	0x89
 1160 044e 5E040000 		.4byte	0x45e
 1161 0452 07       		.uleb128 0x7
 1162 0453 737000   		.ascii	"sp\000"
 1163 0456 09       		.byte	0x9
 1164 0457 8A       		.byte	0x8a
 1165 0458 D0040000 		.4byte	0x4d0
 1166 045c 00       		.byte	0
 1167 045d 00       		.byte	0
 1168 045e 05       		.uleb128 0x5
 1169 045f 1E040000 		.4byte	.LASF75
 1170 0463 24       		.byte	0x24
 1171 0464 0A       		.byte	0xa
 1172 0465 C3       		.byte	0xc3
 1173 0466 D0040000 		.4byte	0x4d0
 1174 046a 07       		.uleb128 0x7
 1175 046b 723800   		.ascii	"r8\000"
 1176 046e 0A       		.byte	0xa
 1177 046f C4       		.byte	0xc4
 1178 0470 30040000 		.4byte	0x430
 1179 0474 00       		.byte	0
 1180 0475 07       		.uleb128 0x7
 1181 0476 723900   		.ascii	"r9\000"
 1182 0479 0A       		.byte	0xa
 1183 047a C5       		.byte	0xc5
 1184 047b 30040000 		.4byte	0x430
 1185 047f 04       		.byte	0x4
 1186 0480 07       		.uleb128 0x7
 1187 0481 72313000 		.ascii	"r10\000"
ARM GAS  /tmp/ccxDmDcp.s 			page 45


 1188 0485 0A       		.byte	0xa
 1189 0486 C6       		.byte	0xc6
 1190 0487 30040000 		.4byte	0x430
 1191 048b 08       		.byte	0x8
 1192 048c 07       		.uleb128 0x7
 1193 048d 72313100 		.ascii	"r11\000"
 1194 0491 0A       		.byte	0xa
 1195 0492 C7       		.byte	0xc7
 1196 0493 30040000 		.4byte	0x430
 1197 0497 0C       		.byte	0xc
 1198 0498 07       		.uleb128 0x7
 1199 0499 723400   		.ascii	"r4\000"
 1200 049c 0A       		.byte	0xa
 1201 049d C8       		.byte	0xc8
 1202 049e 30040000 		.4byte	0x430
 1203 04a2 10       		.byte	0x10
 1204 04a3 07       		.uleb128 0x7
 1205 04a4 723500   		.ascii	"r5\000"
 1206 04a7 0A       		.byte	0xa
 1207 04a8 C9       		.byte	0xc9
 1208 04a9 30040000 		.4byte	0x430
 1209 04ad 14       		.byte	0x14
 1210 04ae 07       		.uleb128 0x7
 1211 04af 723600   		.ascii	"r6\000"
 1212 04b2 0A       		.byte	0xa
 1213 04b3 CA       		.byte	0xca
 1214 04b4 30040000 		.4byte	0x430
 1215 04b8 18       		.byte	0x18
 1216 04b9 07       		.uleb128 0x7
 1217 04ba 723700   		.ascii	"r7\000"
 1218 04bd 0A       		.byte	0xa
 1219 04be CB       		.byte	0xcb
 1220 04bf 30040000 		.4byte	0x430
 1221 04c3 1C       		.byte	0x1c
 1222 04c4 07       		.uleb128 0x7
 1223 04c5 6C7200   		.ascii	"lr\000"
 1224 04c8 0A       		.byte	0xa
 1225 04c9 CC       		.byte	0xcc
 1226 04ca 30040000 		.4byte	0x430
 1227 04ce 20       		.byte	0x20
 1228 04cf 00       		.byte	0
 1229 04d0 0A       		.uleb128 0xa
 1230 04d1 04       		.byte	0x4
 1231 04d2 5E040000 		.4byte	0x45e
 1232 04d6 0F       		.uleb128 0xf
 1233 04d7 04       		.byte	0x4
 1234 04d8 08       		.byte	0x8
 1235 04d9 D2       		.byte	0xd2
 1236 04da 39050000 		.4byte	0x539
 1237 04de 10       		.uleb128 0x10
 1238 04df 93020000 		.4byte	.LASF76
 1239 04e3 08       		.byte	0x8
 1240 04e4 D9       		.byte	0xd9
 1241 04e5 10010000 		.4byte	0x110
 1242 04e9 10       		.uleb128 0x10
 1243 04ea FF050000 		.4byte	.LASF77
 1244 04ee 08       		.byte	0x8
ARM GAS  /tmp/ccxDmDcp.s 			page 46


 1245 04ef E0       		.byte	0xe0
 1246 04f0 10010000 		.4byte	0x110
 1247 04f4 10       		.uleb128 0x10
 1248 04f5 99000000 		.4byte	.LASF78
 1249 04f9 08       		.byte	0x8
 1250 04fa E7       		.byte	0xe7
 1251 04fb 0D030000 		.4byte	0x30d
 1252 04ff 10       		.uleb128 0x10
 1253 0500 67050000 		.4byte	.LASF79
 1254 0504 08       		.byte	0x8
 1255 0505 EE       		.byte	0xee
 1256 0506 39050000 		.4byte	0x539
 1257 050a 10       		.uleb128 0x10
 1258 050b B3010000 		.4byte	.LASF80
 1259 050f 08       		.byte	0x8
 1260 0510 F3       		.byte	0xf3
 1261 0511 10010000 		.4byte	0x110
 1262 0515 10       		.uleb128 0x10
 1263 0516 D6040000 		.4byte	.LASF81
 1264 051a 08       		.byte	0x8
 1265 051b FC       		.byte	0xfc
 1266 051c 64050000 		.4byte	0x564
 1267 0520 11       		.uleb128 0x11
 1268 0521 10000000 		.4byte	.LASF82
 1269 0525 08       		.byte	0x8
 1270 0526 0501     		.2byte	0x105
 1271 0528 9B050000 		.4byte	0x59b
 1272 052c 11       		.uleb128 0x11
 1273 052d D1000000 		.4byte	.LASF83
 1274 0531 08       		.byte	0x8
 1275 0532 0D01     		.2byte	0x10d
 1276 0534 1B010000 		.4byte	0x11b
 1277 0538 00       		.byte	0
 1278 0539 0A       		.uleb128 0xa
 1279 053a 04       		.byte	0x4
 1280 053b 25020000 		.4byte	0x225
 1281 053f 05       		.uleb128 0x5
 1282 0540 DB010000 		.4byte	.LASF84
 1283 0544 0C       		.byte	0xc
 1284 0545 0B       		.byte	0xb
 1285 0546 34       		.byte	0x34
 1286 0547 64050000 		.4byte	0x564
 1287 054b 06       		.uleb128 0x6
 1288 054c C8040000 		.4byte	.LASF29
 1289 0550 0B       		.byte	0xb
 1290 0551 35       		.byte	0x35
 1291 0552 5A020000 		.4byte	0x25a
 1292 0556 00       		.byte	0
 1293 0557 07       		.uleb128 0x7
 1294 0558 636E7400 		.ascii	"cnt\000"
 1295 055c 0B       		.byte	0xb
 1296 055d 37       		.byte	0x37
 1297 055e 26010000 		.4byte	0x126
 1298 0562 08       		.byte	0x8
 1299 0563 00       		.byte	0
 1300 0564 0A       		.uleb128 0xa
 1301 0565 04       		.byte	0x4
ARM GAS  /tmp/ccxDmDcp.s 			page 47


 1302 0566 3F050000 		.4byte	0x53f
 1303 056a 05       		.uleb128 0x5
 1304 056b B4020000 		.4byte	.LASF85
 1305 056f 10       		.byte	0x10
 1306 0570 0C       		.byte	0xc
 1307 0571 39       		.byte	0x39
 1308 0572 9B050000 		.4byte	0x59b
 1309 0576 06       		.uleb128 0x6
 1310 0577 C8040000 		.4byte	.LASF29
 1311 057b 0C       		.byte	0xc
 1312 057c 3A       		.byte	0x3a
 1313 057d 5A020000 		.4byte	0x25a
 1314 0581 00       		.byte	0
 1315 0582 06       		.uleb128 0x6
 1316 0583 3D020000 		.4byte	.LASF86
 1317 0587 0C       		.byte	0xc
 1318 0588 3C       		.byte	0x3c
 1319 0589 30020000 		.4byte	0x230
 1320 058d 08       		.byte	0x8
 1321 058e 06       		.uleb128 0x6
 1322 058f 71000000 		.4byte	.LASF48
 1323 0593 0C       		.byte	0xc
 1324 0594 3E       		.byte	0x3e
 1325 0595 36060000 		.4byte	0x636
 1326 0599 0C       		.byte	0xc
 1327 059a 00       		.byte	0
 1328 059b 0A       		.uleb128 0xa
 1329 059c 04       		.byte	0x4
 1330 059d 6A050000 		.4byte	0x56a
 1331 05a1 0A       		.uleb128 0xa
 1332 05a2 04       		.byte	0x4
 1333 05a3 A7050000 		.4byte	0x5a7
 1334 05a7 12       		.uleb128 0x12
 1335 05a8 AC050000 		.4byte	0x5ac
 1336 05ac 04       		.uleb128 0x4
 1337 05ad 01       		.byte	0x1
 1338 05ae 08       		.byte	0x8
 1339 05af DC020000 		.4byte	.LASF87
 1340 05b3 0A       		.uleb128 0xa
 1341 05b4 04       		.byte	0x4
 1342 05b5 3B040000 		.4byte	0x43b
 1343 05b9 0A       		.uleb128 0xa
 1344 05ba 04       		.byte	0x4
 1345 05bb 0F030000 		.4byte	0x30f
 1346 05bf 13       		.uleb128 0x13
 1347 05c0 A1050000 		.4byte	0x5a1
 1348 05c4 03       		.uleb128 0x3
 1349 05c5 01020000 		.4byte	.LASF88
 1350 05c9 0D       		.byte	0xd
 1351 05ca 40       		.byte	0x40
 1352 05cb FC020000 		.4byte	0x2fc
 1353 05cf 14       		.uleb128 0x14
 1354 05d0 18       		.byte	0x18
 1355 05d1 0D       		.byte	0xd
 1356 05d2 45       		.byte	0x45
 1357 05d3 20060000 		.4byte	0x620
 1358 05d7 06       		.uleb128 0x6
ARM GAS  /tmp/ccxDmDcp.s 			page 48


 1359 05d8 93040000 		.4byte	.LASF33
 1360 05dc 0D       		.byte	0xd
 1361 05dd 49       		.byte	0x49
 1362 05de A1050000 		.4byte	0x5a1
 1363 05e2 00       		.byte	0
 1364 05e3 06       		.uleb128 0x6
 1365 05e4 25000000 		.4byte	.LASF89
 1366 05e8 0D       		.byte	0xd
 1367 05e9 4D       		.byte	0x4d
 1368 05ea B3050000 		.4byte	0x5b3
 1369 05ee 04       		.byte	0x4
 1370 05ef 06       		.uleb128 0x6
 1371 05f0 6D030000 		.4byte	.LASF90
 1372 05f4 0D       		.byte	0xd
 1373 05f5 51       		.byte	0x51
 1374 05f6 B3050000 		.4byte	0x5b3
 1375 05fa 08       		.byte	0x8
 1376 05fb 06       		.uleb128 0x6
 1377 05fc D7020000 		.4byte	.LASF30
 1378 0600 0D       		.byte	0xd
 1379 0601 55       		.byte	0x55
 1380 0602 05010000 		.4byte	0x105
 1381 0606 0C       		.byte	0xc
 1382 0607 06       		.uleb128 0x6
 1383 0608 20050000 		.4byte	.LASF91
 1384 060c 0D       		.byte	0xd
 1385 060d 59       		.byte	0x59
 1386 060e C4050000 		.4byte	0x5c4
 1387 0612 10       		.byte	0x10
 1388 0613 07       		.uleb128 0x7
 1389 0614 61726700 		.ascii	"arg\000"
 1390 0618 0D       		.byte	0xd
 1391 0619 5D       		.byte	0x5d
 1392 061a 0D030000 		.4byte	0x30d
 1393 061e 14       		.byte	0x14
 1394 061f 00       		.byte	0
 1395 0620 03       		.uleb128 0x3
 1396 0621 C7010000 		.4byte	.LASF92
 1397 0625 0D       		.byte	0xd
 1398 0626 5E       		.byte	0x5e
 1399 0627 CF050000 		.4byte	0x5cf
 1400 062b 03       		.uleb128 0x3
 1401 062c F1040000 		.4byte	.LASF93
 1402 0630 0C       		.byte	0xc
 1403 0631 34       		.byte	0x34
 1404 0632 6A050000 		.4byte	0x56a
 1405 0636 0A       		.uleb128 0xa
 1406 0637 04       		.byte	0x4
 1407 0638 2B060000 		.4byte	0x62b
 1408 063c 03       		.uleb128 0x3
 1409 063d 86040000 		.4byte	.LASF94
 1410 0641 0E       		.byte	0xe
 1411 0642 47       		.byte	0x47
 1412 0643 47060000 		.4byte	0x647
 1413 0647 0A       		.uleb128 0xa
 1414 0648 04       		.byte	0x4
 1415 0649 4D060000 		.4byte	0x64d
ARM GAS  /tmp/ccxDmDcp.s 			page 49


 1416 064d 15       		.uleb128 0x15
 1417 064e 0D030000 		.4byte	0x30d
 1418 0652 61060000 		.4byte	0x661
 1419 0656 0D       		.uleb128 0xd
 1420 0657 2C000000 		.4byte	0x2c
 1421 065b 0D       		.uleb128 0xd
 1422 065c 37000000 		.4byte	0x37
 1423 0660 00       		.byte	0
 1424 0661 03       		.uleb128 0x3
 1425 0662 A2030000 		.4byte	.LASF95
 1426 0666 0F       		.byte	0xf
 1427 0667 48       		.byte	0x48
 1428 0668 6C060000 		.4byte	0x66c
 1429 066c 05       		.uleb128 0x5
 1430 066d 09040000 		.4byte	.LASF96
 1431 0671 20       		.byte	0x20
 1432 0672 0F       		.byte	0xf
 1433 0673 61       		.byte	0x61
 1434 0674 9D060000 		.4byte	0x69d
 1435 0678 06       		.uleb128 0x6
 1436 0679 41040000 		.4byte	.LASF97
 1437 067d 0F       		.byte	0xf
 1438 067e 62       		.byte	0x62
 1439 067f 3C060000 		.4byte	0x63c
 1440 0683 00       		.byte	0
 1441 0684 06       		.uleb128 0x6
 1442 0685 9B030000 		.4byte	.LASF98
 1443 0689 0F       		.byte	0xf
 1444 068a 64       		.byte	0x64
 1445 068b 9D060000 		.4byte	0x69d
 1446 068f 08       		.byte	0x8
 1447 0690 07       		.uleb128 0x7
 1448 0691 6D747800 		.ascii	"mtx\000"
 1449 0695 0F       		.byte	0xf
 1450 0696 66       		.byte	0x66
 1451 0697 2B060000 		.4byte	0x62b
 1452 069b 10       		.byte	0x10
 1453 069c 00       		.byte	0
 1454 069d 03       		.uleb128 0x3
 1455 069e 08060000 		.4byte	.LASF99
 1456 06a2 0F       		.byte	0xf
 1457 06a3 4D       		.byte	0x4d
 1458 06a4 A8060000 		.4byte	0x6a8
 1459 06a8 16       		.uleb128 0x16
 1460 06a9 80020000 		.4byte	.LASF124
 1461 06ad 08       		.byte	0x8
 1462 06ae 0F       		.byte	0xf
 1463 06af 52       		.byte	0x52
 1464 06b0 D6060000 		.4byte	0x6d6
 1465 06b4 10       		.uleb128 0x10
 1466 06b5 B7050000 		.4byte	.LASF100
 1467 06b9 0F       		.byte	0xf
 1468 06ba 53       		.byte	0x53
 1469 06bb 3B040000 		.4byte	0x43b
 1470 06bf 10       		.uleb128 0x10
 1471 06c0 BD020000 		.4byte	.LASF101
 1472 06c4 0F       		.byte	0xf
ARM GAS  /tmp/ccxDmDcp.s 			page 50


 1473 06c5 57       		.byte	0x57
 1474 06c6 D6060000 		.4byte	0x6d6
 1475 06ca 10       		.uleb128 0x10
 1476 06cb 72020000 		.4byte	.LASF102
 1477 06cf 0F       		.byte	0xf
 1478 06d0 5B       		.byte	0x5b
 1479 06d1 FD060000 		.4byte	0x6fd
 1480 06d5 00       		.byte	0
 1481 06d6 14       		.uleb128 0x14
 1482 06d7 08       		.byte	0x8
 1483 06d8 0F       		.byte	0xf
 1484 06d9 54       		.byte	0x54
 1485 06da F7060000 		.4byte	0x6f7
 1486 06de 06       		.uleb128 0x6
 1487 06df 71000000 		.4byte	.LASF48
 1488 06e3 0F       		.byte	0xf
 1489 06e4 55       		.byte	0x55
 1490 06e5 F7060000 		.4byte	0x6f7
 1491 06e9 00       		.byte	0
 1492 06ea 06       		.uleb128 0x6
 1493 06eb 39030000 		.4byte	.LASF103
 1494 06ef 0F       		.byte	0xf
 1495 06f0 56       		.byte	0x56
 1496 06f1 2C000000 		.4byte	0x2c
 1497 06f5 04       		.byte	0x4
 1498 06f6 00       		.byte	0
 1499 06f7 0A       		.uleb128 0xa
 1500 06f8 04       		.byte	0x4
 1501 06f9 9D060000 		.4byte	0x69d
 1502 06fd 14       		.uleb128 0x14
 1503 06fe 08       		.byte	0x8
 1504 06ff 0F       		.byte	0xf
 1505 0700 58       		.byte	0x58
 1506 0701 1E070000 		.4byte	0x71e
 1507 0705 06       		.uleb128 0x6
 1508 0706 94000000 		.4byte	.LASF104
 1509 070a 0F       		.byte	0xf
 1510 070b 59       		.byte	0x59
 1511 070c 1E070000 		.4byte	0x71e
 1512 0710 00       		.byte	0
 1513 0711 06       		.uleb128 0x6
 1514 0712 96030000 		.4byte	.LASF105
 1515 0716 0F       		.byte	0xf
 1516 0717 5A       		.byte	0x5a
 1517 0718 2C000000 		.4byte	0x2c
 1518 071c 04       		.byte	0x4
 1519 071d 00       		.byte	0
 1520 071e 0A       		.uleb128 0xa
 1521 071f 04       		.byte	0x4
 1522 0720 61060000 		.4byte	0x661
 1523 0724 05       		.uleb128 0x5
 1524 0725 4F050000 		.4byte	.LASF106
 1525 0729 04       		.byte	0x4
 1526 072a 10       		.byte	0x10
 1527 072b 38       		.byte	0x38
 1528 072c 3D070000 		.4byte	0x73d
 1529 0730 06       		.uleb128 0x6
ARM GAS  /tmp/ccxDmDcp.s 			page 51


 1530 0731 71000000 		.4byte	.LASF48
 1531 0735 10       		.byte	0x10
 1532 0736 39       		.byte	0x39
 1533 0737 3D070000 		.4byte	0x73d
 1534 073b 00       		.byte	0
 1535 073c 00       		.byte	0
 1536 073d 0A       		.uleb128 0xa
 1537 073e 04       		.byte	0x4
 1538 073f 24070000 		.4byte	0x724
 1539 0743 14       		.uleb128 0x14
 1540 0744 0C       		.byte	0xc
 1541 0745 10       		.byte	0x10
 1542 0746 40       		.byte	0x40
 1543 0747 70070000 		.4byte	0x770
 1544 074b 06       		.uleb128 0x6
 1545 074c 71000000 		.4byte	.LASF48
 1546 0750 10       		.byte	0x10
 1547 0751 41       		.byte	0x41
 1548 0752 3D070000 		.4byte	0x73d
 1549 0756 00       		.byte	0
 1550 0757 06       		.uleb128 0x6
 1551 0758 9A020000 		.4byte	.LASF107
 1552 075c 10       		.byte	0x10
 1553 075d 42       		.byte	0x42
 1554 075e 2C000000 		.4byte	0x2c
 1555 0762 04       		.byte	0x4
 1556 0763 06       		.uleb128 0x6
 1557 0764 41040000 		.4byte	.LASF97
 1558 0768 10       		.byte	0x10
 1559 0769 44       		.byte	0x44
 1560 076a 3C060000 		.4byte	0x63c
 1561 076e 08       		.byte	0x8
 1562 076f 00       		.byte	0
 1563 0770 03       		.uleb128 0x3
 1564 0771 17000000 		.4byte	.LASF108
 1565 0775 10       		.byte	0x10
 1566 0776 46       		.byte	0x46
 1567 0777 43070000 		.4byte	0x743
 1568 077b 17       		.uleb128 0x17
 1569 077c A6020000 		.4byte	.LASF109
 1570 0780 02       		.byte	0x2
 1571 0781 45       		.byte	0x45
 1572 0782 03       		.byte	0x3
 1573 0783 17       		.uleb128 0x17
 1574 0784 2A040000 		.4byte	.LASF110
 1575 0788 02       		.byte	0x2
 1576 0789 3A       		.byte	0x3a
 1577 078a 03       		.byte	0x3
 1578 078b 18       		.uleb128 0x18
 1579 078c A0000000 		.4byte	.LASF111
 1580 0790 0A       		.byte	0xa
 1581 0791 7301     		.2byte	0x173
 1582 0793 03       		.byte	0x3
 1583 0794 18       		.uleb128 0x18
 1584 0795 AB050000 		.4byte	.LASF112
 1585 0799 0A       		.byte	0xa
 1586 079a 7C01     		.2byte	0x17c
ARM GAS  /tmp/ccxDmDcp.s 			page 52


 1587 079c 03       		.byte	0x3
 1588 079d 18       		.uleb128 0x18
 1589 079e CD020000 		.4byte	.LASF113
 1590 07a2 11       		.byte	0x11
 1591 07a3 7601     		.2byte	0x176
 1592 07a5 03       		.byte	0x3
 1593 07a6 19       		.uleb128 0x19
 1594 07a7 31020000 		.4byte	.LASF125
 1595 07ab 11       		.byte	0x11
 1596 07ac 8201     		.2byte	0x182
 1597 07ae 03       		.byte	0x3
 1598 07af C1070000 		.4byte	0x7c1
 1599 07b3 1A       		.uleb128 0x1a
 1600 07b4 78040000 		.4byte	.LASF126
 1601 07b8 D1070000 		.4byte	0x7d1
 1602 07bc 31020000 		.4byte	.LASF125
 1603 07c0 00       		.byte	0
 1604 07c1 1B       		.uleb128 0x1b
 1605 07c2 AC050000 		.4byte	0x5ac
 1606 07c6 D1070000 		.4byte	0x7d1
 1607 07ca 1C       		.uleb128 0x1c
 1608 07cb 29040000 		.4byte	0x429
 1609 07cf 0B       		.byte	0xb
 1610 07d0 00       		.byte	0
 1611 07d1 12       		.uleb128 0x12
 1612 07d2 C1070000 		.4byte	0x7c1
 1613 07d6 1D       		.uleb128 0x1d
 1614 07d7 DD040000 		.4byte	.LASF115
 1615 07db 01       		.byte	0x1
 1616 07dc 52       		.byte	0x52
 1617 07dd 30020000 		.4byte	0x230
 1618 07e1 00000000 		.4byte	.LFB149
 1619 07e5 48000000 		.4byte	.LFE149-.LFB149
 1620 07e9 01       		.uleb128 0x1
 1621 07ea 9C       		.byte	0x9c
 1622 07eb 33090000 		.4byte	0x933
 1623 07ef 1E       		.uleb128 0x1e
 1624 07f0 6D050000 		.4byte	.LASF114
 1625 07f4 01       		.byte	0x1
 1626 07f5 52       		.byte	0x52
 1627 07f6 1E070000 		.4byte	0x71e
 1628 07fa 00000000 		.4byte	.LLST0
 1629 07fe 1E       		.uleb128 0x1e
 1630 07ff 96030000 		.4byte	.LASF105
 1631 0803 01       		.byte	0x1
 1632 0804 52       		.byte	0x52
 1633 0805 2C000000 		.4byte	0x2c
 1634 0809 21000000 		.4byte	.LLST1
 1635 080d 1E       		.uleb128 0x1e
 1636 080e 93040000 		.4byte	.LASF33
 1637 0812 01       		.byte	0x1
 1638 0813 53       		.byte	0x53
 1639 0814 A1050000 		.4byte	0x5a1
 1640 0818 58000000 		.4byte	.LLST2
 1641 081c 1E       		.uleb128 0x1e
 1642 081d D7020000 		.4byte	.LASF30
 1643 0821 01       		.byte	0x1
ARM GAS  /tmp/ccxDmDcp.s 			page 53


 1644 0822 53       		.byte	0x53
 1645 0823 05010000 		.4byte	0x105
 1646 0827 8F000000 		.4byte	.LLST3
 1647 082b 1F       		.uleb128 0x1f
 1648 082c 706600   		.ascii	"pf\000"
 1649 082f 01       		.byte	0x1
 1650 0830 54       		.byte	0x54
 1651 0831 C4050000 		.4byte	0x5c4
 1652 0835 02       		.uleb128 0x2
 1653 0836 91       		.byte	0x91
 1654 0837 00       		.sleb128 0
 1655 0838 1F       		.uleb128 0x1f
 1656 0839 61726700 		.ascii	"arg\000"
 1657 083d 01       		.byte	0x1
 1658 083e 54       		.byte	0x54
 1659 083f 0D030000 		.4byte	0x30d
 1660 0843 02       		.uleb128 0x2
 1661 0844 91       		.byte	0x91
 1662 0845 04       		.sleb128 4
 1663 0846 20       		.uleb128 0x20
 1664 0847 747000   		.ascii	"tp\000"
 1665 084a 01       		.byte	0x1
 1666 084b 55       		.byte	0x55
 1667 084c 30020000 		.4byte	0x230
 1668 0850 C6000000 		.4byte	.LLST4
 1669 0854 20       		.uleb128 0x20
 1670 0855 77737000 		.ascii	"wsp\000"
 1671 0859 01       		.byte	0x1
 1672 085a 56       		.byte	0x56
 1673 085b 0D030000 		.4byte	0x30d
 1674 085f E4000000 		.4byte	.LLST5
 1675 0863 21       		.uleb128 0x21
 1676 0864 746400   		.ascii	"td\000"
 1677 0867 01       		.byte	0x1
 1678 0868 5D       		.byte	0x5d
 1679 0869 20060000 		.4byte	0x620
 1680 086d 02       		.uleb128 0x2
 1681 086e 91       		.byte	0x91
 1682 086f 58       		.sleb128 -40
 1683 0870 22       		.uleb128 0x22
 1684 0871 9D070000 		.4byte	0x79d
 1685 0875 26000000 		.4byte	.LBB34
 1686 0879 02000000 		.4byte	.LBE34-.LBB34
 1687 087d 01       		.byte	0x1
 1688 087e 6C       		.byte	0x6c
 1689 087f A5080000 		.4byte	0x8a5
 1690 0883 23       		.uleb128 0x23
 1691 0884 8B070000 		.4byte	0x78b
 1692 0888 26000000 		.4byte	.LBB35
 1693 088c 02000000 		.4byte	.LBE35-.LBB35
 1694 0890 11       		.byte	0x11
 1695 0891 7801     		.2byte	0x178
 1696 0893 24       		.uleb128 0x24
 1697 0894 7B070000 		.4byte	0x77b
 1698 0898 26000000 		.4byte	.LBB36
 1699 089c 02000000 		.4byte	.LBE36-.LBB36
 1700 08a0 0A       		.byte	0xa
ARM GAS  /tmp/ccxDmDcp.s 			page 54


 1701 08a1 7501     		.2byte	0x175
 1702 08a3 00       		.byte	0
 1703 08a4 00       		.byte	0
 1704 08a5 22       		.uleb128 0x22
 1705 08a6 A6070000 		.4byte	0x7a6
 1706 08aa 3C000000 		.4byte	.LBB38
 1707 08ae 02000000 		.4byte	.LBE38-.LBB38
 1708 08b2 01       		.byte	0x1
 1709 08b3 70       		.byte	0x70
 1710 08b4 E9080000 		.4byte	0x8e9
 1711 08b8 25       		.uleb128 0x25
 1712 08b9 3C000000 		.4byte	.LBB39
 1713 08bd 02000000 		.4byte	.LBE39-.LBB39
 1714 08c1 26       		.uleb128 0x26
 1715 08c2 B3070000 		.4byte	0x7b3
 1716 08c6 23       		.uleb128 0x23
 1717 08c7 94070000 		.4byte	0x794
 1718 08cb 3C000000 		.4byte	.LBB40
 1719 08cf 02000000 		.4byte	.LBE40-.LBB40
 1720 08d3 11       		.byte	0x11
 1721 08d4 8F01     		.2byte	0x18f
 1722 08d6 24       		.uleb128 0x24
 1723 08d7 83070000 		.4byte	0x783
 1724 08db 3C000000 		.4byte	.LBB41
 1725 08df 02000000 		.4byte	.LBE41-.LBB41
 1726 08e3 0A       		.byte	0xa
 1727 08e4 7E01     		.2byte	0x17e
 1728 08e6 00       		.byte	0
 1729 08e7 00       		.byte	0
 1730 08e8 00       		.byte	0
 1731 08e9 27       		.uleb128 0x27
 1732 08ea 10000000 		.4byte	.LVL2
 1733 08ee A40A0000 		.4byte	0xaa4
 1734 08f2 09090000 		.4byte	0x909
 1735 08f6 28       		.uleb128 0x28
 1736 08f7 01       		.uleb128 0x1
 1737 08f8 52       		.byte	0x52
 1738 08f9 01       		.uleb128 0x1
 1739 08fa 38       		.byte	0x38
 1740 08fb 28       		.uleb128 0x28
 1741 08fc 01       		.uleb128 0x1
 1742 08fd 51       		.byte	0x51
 1743 08fe 02       		.uleb128 0x2
 1744 08ff 74       		.byte	0x74
 1745 0900 00       		.sleb128 0
 1746 0901 28       		.uleb128 0x28
 1747 0902 01       		.uleb128 0x1
 1748 0903 50       		.byte	0x50
 1749 0904 03       		.uleb128 0x3
 1750 0905 F3       		.byte	0xf3
 1751 0906 01       		.uleb128 0x1
 1752 0907 50       		.byte	0x50
 1753 0908 00       		.byte	0
 1754 0909 27       		.uleb128 0x27
 1755 090a 2E000000 		.4byte	.LVL4
 1756 090e C30A0000 		.4byte	0xac3
 1757 0912 1D090000 		.4byte	0x91d
ARM GAS  /tmp/ccxDmDcp.s 			page 55


 1758 0916 28       		.uleb128 0x28
 1759 0917 01       		.uleb128 0x1
 1760 0918 50       		.byte	0x50
 1761 0919 02       		.uleb128 0x2
 1762 091a 7D       		.byte	0x7d
 1763 091b 00       		.sleb128 0
 1764 091c 00       		.byte	0
 1765 091d 29       		.uleb128 0x29
 1766 091e 3C000000 		.4byte	.LVL6
 1767 0922 E30A0000 		.4byte	0xae3
 1768 0926 28       		.uleb128 0x28
 1769 0927 01       		.uleb128 0x1
 1770 0928 51       		.byte	0x51
 1771 0929 01       		.uleb128 0x1
 1772 092a 30       		.byte	0x30
 1773 092b 28       		.uleb128 0x28
 1774 092c 01       		.uleb128 0x1
 1775 092d 50       		.byte	0x50
 1776 092e 02       		.uleb128 0x2
 1777 092f 74       		.byte	0x74
 1778 0930 00       		.sleb128 0
 1779 0931 00       		.byte	0
 1780 0932 00       		.byte	0
 1781 0933 1D       		.uleb128 0x1d
 1782 0934 FB020000 		.4byte	.LASF116
 1783 0938 01       		.byte	0x1
 1784 0939 91       		.byte	0x91
 1785 093a 30020000 		.4byte	0x230
 1786 093e 00000000 		.4byte	.LFB150
 1787 0942 4A000000 		.4byte	.LFE150-.LFB150
 1788 0946 01       		.uleb128 0x1
 1789 0947 9C       		.byte	0x9c
 1790 0948 7E0A0000 		.4byte	0xa7e
 1791 094c 2A       		.uleb128 0x2a
 1792 094d 6D7000   		.ascii	"mp\000"
 1793 0950 01       		.byte	0x1
 1794 0951 91       		.byte	0x91
 1795 0952 7E0A0000 		.4byte	0xa7e
 1796 0956 0E010000 		.4byte	.LLST6
 1797 095a 1E       		.uleb128 0x1e
 1798 095b 93040000 		.4byte	.LASF33
 1799 095f 01       		.byte	0x1
 1800 0960 91       		.byte	0x91
 1801 0961 A1050000 		.4byte	0x5a1
 1802 0965 45010000 		.4byte	.LLST7
 1803 0969 1E       		.uleb128 0x1e
 1804 096a D7020000 		.4byte	.LASF30
 1805 096e 01       		.byte	0x1
 1806 096f 92       		.byte	0x92
 1807 0970 05010000 		.4byte	0x105
 1808 0974 7C010000 		.4byte	.LLST8
 1809 0978 2A       		.uleb128 0x2a
 1810 0979 706600   		.ascii	"pf\000"
 1811 097c 01       		.byte	0x1
 1812 097d 92       		.byte	0x92
 1813 097e C4050000 		.4byte	0x5c4
 1814 0982 B3010000 		.4byte	.LLST9
ARM GAS  /tmp/ccxDmDcp.s 			page 56


 1815 0986 1F       		.uleb128 0x1f
 1816 0987 61726700 		.ascii	"arg\000"
 1817 098b 01       		.byte	0x1
 1818 098c 92       		.byte	0x92
 1819 098d 0D030000 		.4byte	0x30d
 1820 0991 02       		.uleb128 0x2
 1821 0992 91       		.byte	0x91
 1822 0993 00       		.sleb128 0
 1823 0994 20       		.uleb128 0x20
 1824 0995 747000   		.ascii	"tp\000"
 1825 0998 01       		.byte	0x1
 1826 0999 93       		.byte	0x93
 1827 099a 30020000 		.4byte	0x230
 1828 099e EA010000 		.4byte	.LLST10
 1829 09a2 20       		.uleb128 0x20
 1830 09a3 77737000 		.ascii	"wsp\000"
 1831 09a7 01       		.byte	0x1
 1832 09a8 94       		.byte	0x94
 1833 09a9 0D030000 		.4byte	0x30d
 1834 09ad 08020000 		.4byte	.LLST11
 1835 09b1 2B       		.uleb128 0x2b
 1836 09b2 56000000 		.4byte	.LASF127
 1837 09b6 940A0000 		.4byte	0xa94
 1838 09ba 21       		.uleb128 0x21
 1839 09bb 746400   		.ascii	"td\000"
 1840 09be 01       		.byte	0x1
 1841 09bf 9D       		.byte	0x9d
 1842 09c0 20060000 		.4byte	0x620
 1843 09c4 02       		.uleb128 0x2
 1844 09c5 91       		.byte	0x91
 1845 09c6 50       		.sleb128 -48
 1846 09c7 22       		.uleb128 0x22
 1847 09c8 9D070000 		.4byte	0x79d
 1848 09cc 26000000 		.4byte	.LBB43
 1849 09d0 02000000 		.4byte	.LBE43-.LBB43
 1850 09d4 01       		.byte	0x1
 1851 09d5 AD       		.byte	0xad
 1852 09d6 FC090000 		.4byte	0x9fc
 1853 09da 23       		.uleb128 0x23
 1854 09db 8B070000 		.4byte	0x78b
 1855 09df 26000000 		.4byte	.LBB44
 1856 09e3 02000000 		.4byte	.LBE44-.LBB44
 1857 09e7 11       		.byte	0x11
 1858 09e8 7801     		.2byte	0x178
 1859 09ea 24       		.uleb128 0x24
 1860 09eb 7B070000 		.4byte	0x77b
 1861 09ef 26000000 		.4byte	.LBB45
 1862 09f3 02000000 		.4byte	.LBE45-.LBB45
 1863 09f7 0A       		.byte	0xa
 1864 09f8 7501     		.2byte	0x175
 1865 09fa 00       		.byte	0
 1866 09fb 00       		.byte	0
 1867 09fc 22       		.uleb128 0x22
 1868 09fd A6070000 		.4byte	0x7a6
 1869 0a01 3E000000 		.4byte	.LBB47
 1870 0a05 02000000 		.4byte	.LBE47-.LBB47
 1871 0a09 01       		.byte	0x1
ARM GAS  /tmp/ccxDmDcp.s 			page 57


 1872 0a0a B2       		.byte	0xb2
 1873 0a0b 400A0000 		.4byte	0xa40
 1874 0a0f 25       		.uleb128 0x25
 1875 0a10 3E000000 		.4byte	.LBB48
 1876 0a14 02000000 		.4byte	.LBE48-.LBB48
 1877 0a18 26       		.uleb128 0x26
 1878 0a19 B3070000 		.4byte	0x7b3
 1879 0a1d 23       		.uleb128 0x23
 1880 0a1e 94070000 		.4byte	0x794
 1881 0a22 3E000000 		.4byte	.LBB49
 1882 0a26 02000000 		.4byte	.LBE49-.LBB49
 1883 0a2a 11       		.byte	0x11
 1884 0a2b 8F01     		.2byte	0x18f
 1885 0a2d 24       		.uleb128 0x24
 1886 0a2e 83070000 		.4byte	0x783
 1887 0a32 3E000000 		.4byte	.LBB50
 1888 0a36 02000000 		.4byte	.LBE50-.LBB50
 1889 0a3a 0A       		.byte	0xa
 1890 0a3b 7E01     		.2byte	0x17e
 1891 0a3d 00       		.byte	0
 1892 0a3e 00       		.byte	0
 1893 0a3f 00       		.byte	0
 1894 0a40 27       		.uleb128 0x27
 1895 0a41 10000000 		.4byte	.LVL13
 1896 0a45 FA0A0000 		.4byte	0xafa
 1897 0a49 540A0000 		.4byte	0xa54
 1898 0a4d 28       		.uleb128 0x28
 1899 0a4e 01       		.uleb128 0x1
 1900 0a4f 50       		.byte	0x50
 1901 0a50 02       		.uleb128 0x2
 1902 0a51 75       		.byte	0x75
 1903 0a52 00       		.sleb128 0
 1904 0a53 00       		.byte	0
 1905 0a54 27       		.uleb128 0x27
 1906 0a55 2E000000 		.4byte	.LVL15
 1907 0a59 C30A0000 		.4byte	0xac3
 1908 0a5d 680A0000 		.4byte	0xa68
 1909 0a61 28       		.uleb128 0x28
 1910 0a62 01       		.uleb128 0x1
 1911 0a63 50       		.byte	0x50
 1912 0a64 02       		.uleb128 0x2
 1913 0a65 7D       		.byte	0x7d
 1914 0a66 00       		.sleb128 0
 1915 0a67 00       		.byte	0
 1916 0a68 29       		.uleb128 0x29
 1917 0a69 3E000000 		.4byte	.LVL17
 1918 0a6d E30A0000 		.4byte	0xae3
 1919 0a71 28       		.uleb128 0x28
 1920 0a72 01       		.uleb128 0x1
 1921 0a73 51       		.byte	0x51
 1922 0a74 01       		.uleb128 0x1
 1923 0a75 30       		.byte	0x30
 1924 0a76 28       		.uleb128 0x28
 1925 0a77 01       		.uleb128 0x1
 1926 0a78 50       		.byte	0x50
 1927 0a79 02       		.uleb128 0x2
 1928 0a7a 74       		.byte	0x74
ARM GAS  /tmp/ccxDmDcp.s 			page 58


 1929 0a7b 00       		.sleb128 0
 1930 0a7c 00       		.byte	0
 1931 0a7d 00       		.byte	0
 1932 0a7e 0A       		.uleb128 0xa
 1933 0a7f 04       		.byte	0x4
 1934 0a80 70070000 		.4byte	0x770
 1935 0a84 1B       		.uleb128 0x1b
 1936 0a85 AC050000 		.4byte	0x5ac
 1937 0a89 940A0000 		.4byte	0xa94
 1938 0a8d 1C       		.uleb128 0x1c
 1939 0a8e 29040000 		.4byte	0x429
 1940 0a92 19       		.byte	0x19
 1941 0a93 00       		.byte	0
 1942 0a94 12       		.uleb128 0x12
 1943 0a95 840A0000 		.4byte	0xa84
 1944 0a99 2C       		.uleb128 0x2c
 1945 0a9a 636800   		.ascii	"ch\000"
 1946 0a9d 08       		.byte	0x8
 1947 0a9e D201     		.2byte	0x1d2
 1948 0aa0 DC030000 		.4byte	0x3dc
 1949 0aa4 2D       		.uleb128 0x2d
 1950 0aa5 EC030000 		.4byte	.LASF117
 1951 0aa9 0F       		.byte	0xf
 1952 0aaa 80       		.byte	0x80
 1953 0aab 0D030000 		.4byte	0x30d
 1954 0aaf C30A0000 		.4byte	0xac3
 1955 0ab3 0D       		.uleb128 0xd
 1956 0ab4 1E070000 		.4byte	0x71e
 1957 0ab8 0D       		.uleb128 0xd
 1958 0ab9 2C000000 		.4byte	0x2c
 1959 0abd 0D       		.uleb128 0xd
 1960 0abe 37000000 		.4byte	0x37
 1961 0ac2 00       		.byte	0
 1962 0ac3 2D       		.uleb128 0x2d
 1963 0ac4 B0030000 		.4byte	.LASF118
 1964 0ac8 0D       		.byte	0xd
 1965 0ac9 E6       		.byte	0xe6
 1966 0aca 30020000 		.4byte	0x230
 1967 0ace D80A0000 		.4byte	0xad8
 1968 0ad2 0D       		.uleb128 0xd
 1969 0ad3 D80A0000 		.4byte	0xad8
 1970 0ad7 00       		.byte	0
 1971 0ad8 0A       		.uleb128 0xa
 1972 0ad9 04       		.byte	0x4
 1973 0ada DE0A0000 		.4byte	0xade
 1974 0ade 12       		.uleb128 0x12
 1975 0adf 20060000 		.4byte	0x620
 1976 0ae3 2E       		.uleb128 0x2e
 1977 0ae4 3C050000 		.4byte	.LASF119
 1978 0ae8 08       		.byte	0x8
 1979 0ae9 E001     		.2byte	0x1e0
 1980 0aeb FA0A0000 		.4byte	0xafa
 1981 0aef 0D       		.uleb128 0xd
 1982 0af0 30020000 		.4byte	0x230
 1983 0af4 0D       		.uleb128 0xd
 1984 0af5 10010000 		.4byte	0x110
 1985 0af9 00       		.byte	0
ARM GAS  /tmp/ccxDmDcp.s 			page 59


 1986 0afa 2F       		.uleb128 0x2f
 1987 0afb 62040000 		.4byte	.LASF120
 1988 0aff 10       		.byte	0x10
 1989 0b00 94       		.byte	0x94
 1990 0b01 0D030000 		.4byte	0x30d
 1991 0b05 0D       		.uleb128 0xd
 1992 0b06 7E0A0000 		.4byte	0xa7e
 1993 0b0a 00       		.byte	0
 1994 0b0b 00       		.byte	0
 1995              		.section	.debug_abbrev,"",%progbits
 1996              	.Ldebug_abbrev0:
 1997 0000 01       		.uleb128 0x1
 1998 0001 11       		.uleb128 0x11
 1999 0002 01       		.byte	0x1
 2000 0003 25       		.uleb128 0x25
 2001 0004 0E       		.uleb128 0xe
 2002 0005 13       		.uleb128 0x13
 2003 0006 0B       		.uleb128 0xb
 2004 0007 03       		.uleb128 0x3
 2005 0008 0E       		.uleb128 0xe
 2006 0009 1B       		.uleb128 0x1b
 2007 000a 0E       		.uleb128 0xe
 2008 000b 55       		.uleb128 0x55
 2009 000c 17       		.uleb128 0x17
 2010 000d 11       		.uleb128 0x11
 2011 000e 01       		.uleb128 0x1
 2012 000f 10       		.uleb128 0x10
 2013 0010 17       		.uleb128 0x17
 2014 0011 00       		.byte	0
 2015 0012 00       		.byte	0
 2016 0013 02       		.uleb128 0x2
 2017 0014 24       		.uleb128 0x24
 2018 0015 00       		.byte	0
 2019 0016 0B       		.uleb128 0xb
 2020 0017 0B       		.uleb128 0xb
 2021 0018 3E       		.uleb128 0x3e
 2022 0019 0B       		.uleb128 0xb
 2023 001a 03       		.uleb128 0x3
 2024 001b 08       		.uleb128 0x8
 2025 001c 00       		.byte	0
 2026 001d 00       		.byte	0
 2027 001e 03       		.uleb128 0x3
 2028 001f 16       		.uleb128 0x16
 2029 0020 00       		.byte	0
 2030 0021 03       		.uleb128 0x3
 2031 0022 0E       		.uleb128 0xe
 2032 0023 3A       		.uleb128 0x3a
 2033 0024 0B       		.uleb128 0xb
 2034 0025 3B       		.uleb128 0x3b
 2035 0026 0B       		.uleb128 0xb
 2036 0027 49       		.uleb128 0x49
 2037 0028 13       		.uleb128 0x13
 2038 0029 00       		.byte	0
 2039 002a 00       		.byte	0
 2040 002b 04       		.uleb128 0x4
 2041 002c 24       		.uleb128 0x24
 2042 002d 00       		.byte	0
ARM GAS  /tmp/ccxDmDcp.s 			page 60


 2043 002e 0B       		.uleb128 0xb
 2044 002f 0B       		.uleb128 0xb
 2045 0030 3E       		.uleb128 0x3e
 2046 0031 0B       		.uleb128 0xb
 2047 0032 03       		.uleb128 0x3
 2048 0033 0E       		.uleb128 0xe
 2049 0034 00       		.byte	0
 2050 0035 00       		.byte	0
 2051 0036 05       		.uleb128 0x5
 2052 0037 13       		.uleb128 0x13
 2053 0038 01       		.byte	0x1
 2054 0039 03       		.uleb128 0x3
 2055 003a 0E       		.uleb128 0xe
 2056 003b 0B       		.uleb128 0xb
 2057 003c 0B       		.uleb128 0xb
 2058 003d 3A       		.uleb128 0x3a
 2059 003e 0B       		.uleb128 0xb
 2060 003f 3B       		.uleb128 0x3b
 2061 0040 0B       		.uleb128 0xb
 2062 0041 01       		.uleb128 0x1
 2063 0042 13       		.uleb128 0x13
 2064 0043 00       		.byte	0
 2065 0044 00       		.byte	0
 2066 0045 06       		.uleb128 0x6
 2067 0046 0D       		.uleb128 0xd
 2068 0047 00       		.byte	0
 2069 0048 03       		.uleb128 0x3
 2070 0049 0E       		.uleb128 0xe
 2071 004a 3A       		.uleb128 0x3a
 2072 004b 0B       		.uleb128 0xb
 2073 004c 3B       		.uleb128 0x3b
 2074 004d 0B       		.uleb128 0xb
 2075 004e 49       		.uleb128 0x49
 2076 004f 13       		.uleb128 0x13
 2077 0050 38       		.uleb128 0x38
 2078 0051 0B       		.uleb128 0xb
 2079 0052 00       		.byte	0
 2080 0053 00       		.byte	0
 2081 0054 07       		.uleb128 0x7
 2082 0055 0D       		.uleb128 0xd
 2083 0056 00       		.byte	0
 2084 0057 03       		.uleb128 0x3
 2085 0058 08       		.uleb128 0x8
 2086 0059 3A       		.uleb128 0x3a
 2087 005a 0B       		.uleb128 0xb
 2088 005b 3B       		.uleb128 0x3b
 2089 005c 0B       		.uleb128 0xb
 2090 005d 49       		.uleb128 0x49
 2091 005e 13       		.uleb128 0x13
 2092 005f 38       		.uleb128 0x38
 2093 0060 0B       		.uleb128 0xb
 2094 0061 00       		.byte	0
 2095 0062 00       		.byte	0
 2096 0063 08       		.uleb128 0x8
 2097 0064 0D       		.uleb128 0xd
 2098 0065 00       		.byte	0
 2099 0066 03       		.uleb128 0x3
ARM GAS  /tmp/ccxDmDcp.s 			page 61


 2100 0067 08       		.uleb128 0x8
 2101 0068 3A       		.uleb128 0x3a
 2102 0069 0B       		.uleb128 0xb
 2103 006a 3B       		.uleb128 0x3b
 2104 006b 05       		.uleb128 0x5
 2105 006c 49       		.uleb128 0x49
 2106 006d 13       		.uleb128 0x13
 2107 006e 38       		.uleb128 0x38
 2108 006f 0B       		.uleb128 0xb
 2109 0070 00       		.byte	0
 2110 0071 00       		.byte	0
 2111 0072 09       		.uleb128 0x9
 2112 0073 0D       		.uleb128 0xd
 2113 0074 00       		.byte	0
 2114 0075 03       		.uleb128 0x3
 2115 0076 0E       		.uleb128 0xe
 2116 0077 3A       		.uleb128 0x3a
 2117 0078 0B       		.uleb128 0xb
 2118 0079 3B       		.uleb128 0x3b
 2119 007a 05       		.uleb128 0x5
 2120 007b 49       		.uleb128 0x49
 2121 007c 13       		.uleb128 0x13
 2122 007d 38       		.uleb128 0x38
 2123 007e 0B       		.uleb128 0xb
 2124 007f 00       		.byte	0
 2125 0080 00       		.byte	0
 2126 0081 0A       		.uleb128 0xa
 2127 0082 0F       		.uleb128 0xf
 2128 0083 00       		.byte	0
 2129 0084 0B       		.uleb128 0xb
 2130 0085 0B       		.uleb128 0xb
 2131 0086 49       		.uleb128 0x49
 2132 0087 13       		.uleb128 0x13
 2133 0088 00       		.byte	0
 2134 0089 00       		.byte	0
 2135 008a 0B       		.uleb128 0xb
 2136 008b 13       		.uleb128 0x13
 2137 008c 01       		.byte	0x1
 2138 008d 03       		.uleb128 0x3
 2139 008e 0E       		.uleb128 0xe
 2140 008f 0B       		.uleb128 0xb
 2141 0090 0B       		.uleb128 0xb
 2142 0091 3A       		.uleb128 0x3a
 2143 0092 0B       		.uleb128 0xb
 2144 0093 3B       		.uleb128 0x3b
 2145 0094 05       		.uleb128 0x5
 2146 0095 01       		.uleb128 0x1
 2147 0096 13       		.uleb128 0x13
 2148 0097 00       		.byte	0
 2149 0098 00       		.byte	0
 2150 0099 0C       		.uleb128 0xc
 2151 009a 15       		.uleb128 0x15
 2152 009b 01       		.byte	0x1
 2153 009c 27       		.uleb128 0x27
 2154 009d 19       		.uleb128 0x19
 2155 009e 01       		.uleb128 0x1
 2156 009f 13       		.uleb128 0x13
ARM GAS  /tmp/ccxDmDcp.s 			page 62


 2157 00a0 00       		.byte	0
 2158 00a1 00       		.byte	0
 2159 00a2 0D       		.uleb128 0xd
 2160 00a3 05       		.uleb128 0x5
 2161 00a4 00       		.byte	0
 2162 00a5 49       		.uleb128 0x49
 2163 00a6 13       		.uleb128 0x13
 2164 00a7 00       		.byte	0
 2165 00a8 00       		.byte	0
 2166 00a9 0E       		.uleb128 0xe
 2167 00aa 0F       		.uleb128 0xf
 2168 00ab 00       		.byte	0
 2169 00ac 0B       		.uleb128 0xb
 2170 00ad 0B       		.uleb128 0xb
 2171 00ae 00       		.byte	0
 2172 00af 00       		.byte	0
 2173 00b0 0F       		.uleb128 0xf
 2174 00b1 17       		.uleb128 0x17
 2175 00b2 01       		.byte	0x1
 2176 00b3 0B       		.uleb128 0xb
 2177 00b4 0B       		.uleb128 0xb
 2178 00b5 3A       		.uleb128 0x3a
 2179 00b6 0B       		.uleb128 0xb
 2180 00b7 3B       		.uleb128 0x3b
 2181 00b8 0B       		.uleb128 0xb
 2182 00b9 01       		.uleb128 0x1
 2183 00ba 13       		.uleb128 0x13
 2184 00bb 00       		.byte	0
 2185 00bc 00       		.byte	0
 2186 00bd 10       		.uleb128 0x10
 2187 00be 0D       		.uleb128 0xd
 2188 00bf 00       		.byte	0
 2189 00c0 03       		.uleb128 0x3
 2190 00c1 0E       		.uleb128 0xe
 2191 00c2 3A       		.uleb128 0x3a
 2192 00c3 0B       		.uleb128 0xb
 2193 00c4 3B       		.uleb128 0x3b
 2194 00c5 0B       		.uleb128 0xb
 2195 00c6 49       		.uleb128 0x49
 2196 00c7 13       		.uleb128 0x13
 2197 00c8 00       		.byte	0
 2198 00c9 00       		.byte	0
 2199 00ca 11       		.uleb128 0x11
 2200 00cb 0D       		.uleb128 0xd
 2201 00cc 00       		.byte	0
 2202 00cd 03       		.uleb128 0x3
 2203 00ce 0E       		.uleb128 0xe
 2204 00cf 3A       		.uleb128 0x3a
 2205 00d0 0B       		.uleb128 0xb
 2206 00d1 3B       		.uleb128 0x3b
 2207 00d2 05       		.uleb128 0x5
 2208 00d3 49       		.uleb128 0x49
 2209 00d4 13       		.uleb128 0x13
 2210 00d5 00       		.byte	0
 2211 00d6 00       		.byte	0
 2212 00d7 12       		.uleb128 0x12
 2213 00d8 26       		.uleb128 0x26
ARM GAS  /tmp/ccxDmDcp.s 			page 63


 2214 00d9 00       		.byte	0
 2215 00da 49       		.uleb128 0x49
 2216 00db 13       		.uleb128 0x13
 2217 00dc 00       		.byte	0
 2218 00dd 00       		.byte	0
 2219 00de 13       		.uleb128 0x13
 2220 00df 35       		.uleb128 0x35
 2221 00e0 00       		.byte	0
 2222 00e1 49       		.uleb128 0x49
 2223 00e2 13       		.uleb128 0x13
 2224 00e3 00       		.byte	0
 2225 00e4 00       		.byte	0
 2226 00e5 14       		.uleb128 0x14
 2227 00e6 13       		.uleb128 0x13
 2228 00e7 01       		.byte	0x1
 2229 00e8 0B       		.uleb128 0xb
 2230 00e9 0B       		.uleb128 0xb
 2231 00ea 3A       		.uleb128 0x3a
 2232 00eb 0B       		.uleb128 0xb
 2233 00ec 3B       		.uleb128 0x3b
 2234 00ed 0B       		.uleb128 0xb
 2235 00ee 01       		.uleb128 0x1
 2236 00ef 13       		.uleb128 0x13
 2237 00f0 00       		.byte	0
 2238 00f1 00       		.byte	0
 2239 00f2 15       		.uleb128 0x15
 2240 00f3 15       		.uleb128 0x15
 2241 00f4 01       		.byte	0x1
 2242 00f5 27       		.uleb128 0x27
 2243 00f6 19       		.uleb128 0x19
 2244 00f7 49       		.uleb128 0x49
 2245 00f8 13       		.uleb128 0x13
 2246 00f9 01       		.uleb128 0x1
 2247 00fa 13       		.uleb128 0x13
 2248 00fb 00       		.byte	0
 2249 00fc 00       		.byte	0
 2250 00fd 16       		.uleb128 0x16
 2251 00fe 17       		.uleb128 0x17
 2252 00ff 01       		.byte	0x1
 2253 0100 03       		.uleb128 0x3
 2254 0101 0E       		.uleb128 0xe
 2255 0102 0B       		.uleb128 0xb
 2256 0103 0B       		.uleb128 0xb
 2257 0104 3A       		.uleb128 0x3a
 2258 0105 0B       		.uleb128 0xb
 2259 0106 3B       		.uleb128 0x3b
 2260 0107 0B       		.uleb128 0xb
 2261 0108 01       		.uleb128 0x1
 2262 0109 13       		.uleb128 0x13
 2263 010a 00       		.byte	0
 2264 010b 00       		.byte	0
 2265 010c 17       		.uleb128 0x17
 2266 010d 2E       		.uleb128 0x2e
 2267 010e 00       		.byte	0
 2268 010f 03       		.uleb128 0x3
 2269 0110 0E       		.uleb128 0xe
 2270 0111 3A       		.uleb128 0x3a
ARM GAS  /tmp/ccxDmDcp.s 			page 64


 2271 0112 0B       		.uleb128 0xb
 2272 0113 3B       		.uleb128 0x3b
 2273 0114 0B       		.uleb128 0xb
 2274 0115 27       		.uleb128 0x27
 2275 0116 19       		.uleb128 0x19
 2276 0117 20       		.uleb128 0x20
 2277 0118 0B       		.uleb128 0xb
 2278 0119 00       		.byte	0
 2279 011a 00       		.byte	0
 2280 011b 18       		.uleb128 0x18
 2281 011c 2E       		.uleb128 0x2e
 2282 011d 00       		.byte	0
 2283 011e 03       		.uleb128 0x3
 2284 011f 0E       		.uleb128 0xe
 2285 0120 3A       		.uleb128 0x3a
 2286 0121 0B       		.uleb128 0xb
 2287 0122 3B       		.uleb128 0x3b
 2288 0123 05       		.uleb128 0x5
 2289 0124 27       		.uleb128 0x27
 2290 0125 19       		.uleb128 0x19
 2291 0126 20       		.uleb128 0x20
 2292 0127 0B       		.uleb128 0xb
 2293 0128 00       		.byte	0
 2294 0129 00       		.byte	0
 2295 012a 19       		.uleb128 0x19
 2296 012b 2E       		.uleb128 0x2e
 2297 012c 01       		.byte	0x1
 2298 012d 03       		.uleb128 0x3
 2299 012e 0E       		.uleb128 0xe
 2300 012f 3A       		.uleb128 0x3a
 2301 0130 0B       		.uleb128 0xb
 2302 0131 3B       		.uleb128 0x3b
 2303 0132 05       		.uleb128 0x5
 2304 0133 27       		.uleb128 0x27
 2305 0134 19       		.uleb128 0x19
 2306 0135 20       		.uleb128 0x20
 2307 0136 0B       		.uleb128 0xb
 2308 0137 01       		.uleb128 0x1
 2309 0138 13       		.uleb128 0x13
 2310 0139 00       		.byte	0
 2311 013a 00       		.byte	0
 2312 013b 1A       		.uleb128 0x1a
 2313 013c 34       		.uleb128 0x34
 2314 013d 00       		.byte	0
 2315 013e 03       		.uleb128 0x3
 2316 013f 0E       		.uleb128 0xe
 2317 0140 49       		.uleb128 0x49
 2318 0141 13       		.uleb128 0x13
 2319 0142 34       		.uleb128 0x34
 2320 0143 19       		.uleb128 0x19
 2321 0144 1C       		.uleb128 0x1c
 2322 0145 0E       		.uleb128 0xe
 2323 0146 00       		.byte	0
 2324 0147 00       		.byte	0
 2325 0148 1B       		.uleb128 0x1b
 2326 0149 01       		.uleb128 0x1
 2327 014a 01       		.byte	0x1
ARM GAS  /tmp/ccxDmDcp.s 			page 65


 2328 014b 49       		.uleb128 0x49
 2329 014c 13       		.uleb128 0x13
 2330 014d 01       		.uleb128 0x1
 2331 014e 13       		.uleb128 0x13
 2332 014f 00       		.byte	0
 2333 0150 00       		.byte	0
 2334 0151 1C       		.uleb128 0x1c
 2335 0152 21       		.uleb128 0x21
 2336 0153 00       		.byte	0
 2337 0154 49       		.uleb128 0x49
 2338 0155 13       		.uleb128 0x13
 2339 0156 2F       		.uleb128 0x2f
 2340 0157 0B       		.uleb128 0xb
 2341 0158 00       		.byte	0
 2342 0159 00       		.byte	0
 2343 015a 1D       		.uleb128 0x1d
 2344 015b 2E       		.uleb128 0x2e
 2345 015c 01       		.byte	0x1
 2346 015d 3F       		.uleb128 0x3f
 2347 015e 19       		.uleb128 0x19
 2348 015f 03       		.uleb128 0x3
 2349 0160 0E       		.uleb128 0xe
 2350 0161 3A       		.uleb128 0x3a
 2351 0162 0B       		.uleb128 0xb
 2352 0163 3B       		.uleb128 0x3b
 2353 0164 0B       		.uleb128 0xb
 2354 0165 27       		.uleb128 0x27
 2355 0166 19       		.uleb128 0x19
 2356 0167 49       		.uleb128 0x49
 2357 0168 13       		.uleb128 0x13
 2358 0169 11       		.uleb128 0x11
 2359 016a 01       		.uleb128 0x1
 2360 016b 12       		.uleb128 0x12
 2361 016c 06       		.uleb128 0x6
 2362 016d 40       		.uleb128 0x40
 2363 016e 18       		.uleb128 0x18
 2364 016f 9742     		.uleb128 0x2117
 2365 0171 19       		.uleb128 0x19
 2366 0172 01       		.uleb128 0x1
 2367 0173 13       		.uleb128 0x13
 2368 0174 00       		.byte	0
 2369 0175 00       		.byte	0
 2370 0176 1E       		.uleb128 0x1e
 2371 0177 05       		.uleb128 0x5
 2372 0178 00       		.byte	0
 2373 0179 03       		.uleb128 0x3
 2374 017a 0E       		.uleb128 0xe
 2375 017b 3A       		.uleb128 0x3a
 2376 017c 0B       		.uleb128 0xb
 2377 017d 3B       		.uleb128 0x3b
 2378 017e 0B       		.uleb128 0xb
 2379 017f 49       		.uleb128 0x49
 2380 0180 13       		.uleb128 0x13
 2381 0181 02       		.uleb128 0x2
 2382 0182 17       		.uleb128 0x17
 2383 0183 00       		.byte	0
 2384 0184 00       		.byte	0
ARM GAS  /tmp/ccxDmDcp.s 			page 66


 2385 0185 1F       		.uleb128 0x1f
 2386 0186 05       		.uleb128 0x5
 2387 0187 00       		.byte	0
 2388 0188 03       		.uleb128 0x3
 2389 0189 08       		.uleb128 0x8
 2390 018a 3A       		.uleb128 0x3a
 2391 018b 0B       		.uleb128 0xb
 2392 018c 3B       		.uleb128 0x3b
 2393 018d 0B       		.uleb128 0xb
 2394 018e 49       		.uleb128 0x49
 2395 018f 13       		.uleb128 0x13
 2396 0190 02       		.uleb128 0x2
 2397 0191 18       		.uleb128 0x18
 2398 0192 00       		.byte	0
 2399 0193 00       		.byte	0
 2400 0194 20       		.uleb128 0x20
 2401 0195 34       		.uleb128 0x34
 2402 0196 00       		.byte	0
 2403 0197 03       		.uleb128 0x3
 2404 0198 08       		.uleb128 0x8
 2405 0199 3A       		.uleb128 0x3a
 2406 019a 0B       		.uleb128 0xb
 2407 019b 3B       		.uleb128 0x3b
 2408 019c 0B       		.uleb128 0xb
 2409 019d 49       		.uleb128 0x49
 2410 019e 13       		.uleb128 0x13
 2411 019f 02       		.uleb128 0x2
 2412 01a0 17       		.uleb128 0x17
 2413 01a1 00       		.byte	0
 2414 01a2 00       		.byte	0
 2415 01a3 21       		.uleb128 0x21
 2416 01a4 34       		.uleb128 0x34
 2417 01a5 00       		.byte	0
 2418 01a6 03       		.uleb128 0x3
 2419 01a7 08       		.uleb128 0x8
 2420 01a8 3A       		.uleb128 0x3a
 2421 01a9 0B       		.uleb128 0xb
 2422 01aa 3B       		.uleb128 0x3b
 2423 01ab 0B       		.uleb128 0xb
 2424 01ac 49       		.uleb128 0x49
 2425 01ad 13       		.uleb128 0x13
 2426 01ae 02       		.uleb128 0x2
 2427 01af 18       		.uleb128 0x18
 2428 01b0 00       		.byte	0
 2429 01b1 00       		.byte	0
 2430 01b2 22       		.uleb128 0x22
 2431 01b3 1D       		.uleb128 0x1d
 2432 01b4 01       		.byte	0x1
 2433 01b5 31       		.uleb128 0x31
 2434 01b6 13       		.uleb128 0x13
 2435 01b7 11       		.uleb128 0x11
 2436 01b8 01       		.uleb128 0x1
 2437 01b9 12       		.uleb128 0x12
 2438 01ba 06       		.uleb128 0x6
 2439 01bb 58       		.uleb128 0x58
 2440 01bc 0B       		.uleb128 0xb
 2441 01bd 59       		.uleb128 0x59
ARM GAS  /tmp/ccxDmDcp.s 			page 67


 2442 01be 0B       		.uleb128 0xb
 2443 01bf 01       		.uleb128 0x1
 2444 01c0 13       		.uleb128 0x13
 2445 01c1 00       		.byte	0
 2446 01c2 00       		.byte	0
 2447 01c3 23       		.uleb128 0x23
 2448 01c4 1D       		.uleb128 0x1d
 2449 01c5 01       		.byte	0x1
 2450 01c6 31       		.uleb128 0x31
 2451 01c7 13       		.uleb128 0x13
 2452 01c8 11       		.uleb128 0x11
 2453 01c9 01       		.uleb128 0x1
 2454 01ca 12       		.uleb128 0x12
 2455 01cb 06       		.uleb128 0x6
 2456 01cc 58       		.uleb128 0x58
 2457 01cd 0B       		.uleb128 0xb
 2458 01ce 59       		.uleb128 0x59
 2459 01cf 05       		.uleb128 0x5
 2460 01d0 00       		.byte	0
 2461 01d1 00       		.byte	0
 2462 01d2 24       		.uleb128 0x24
 2463 01d3 1D       		.uleb128 0x1d
 2464 01d4 00       		.byte	0
 2465 01d5 31       		.uleb128 0x31
 2466 01d6 13       		.uleb128 0x13
 2467 01d7 11       		.uleb128 0x11
 2468 01d8 01       		.uleb128 0x1
 2469 01d9 12       		.uleb128 0x12
 2470 01da 06       		.uleb128 0x6
 2471 01db 58       		.uleb128 0x58
 2472 01dc 0B       		.uleb128 0xb
 2473 01dd 59       		.uleb128 0x59
 2474 01de 05       		.uleb128 0x5
 2475 01df 00       		.byte	0
 2476 01e0 00       		.byte	0
 2477 01e1 25       		.uleb128 0x25
 2478 01e2 0B       		.uleb128 0xb
 2479 01e3 01       		.byte	0x1
 2480 01e4 11       		.uleb128 0x11
 2481 01e5 01       		.uleb128 0x1
 2482 01e6 12       		.uleb128 0x12
 2483 01e7 06       		.uleb128 0x6
 2484 01e8 00       		.byte	0
 2485 01e9 00       		.byte	0
 2486 01ea 26       		.uleb128 0x26
 2487 01eb 34       		.uleb128 0x34
 2488 01ec 00       		.byte	0
 2489 01ed 31       		.uleb128 0x31
 2490 01ee 13       		.uleb128 0x13
 2491 01ef 00       		.byte	0
 2492 01f0 00       		.byte	0
 2493 01f1 27       		.uleb128 0x27
 2494 01f2 898201   		.uleb128 0x4109
 2495 01f5 01       		.byte	0x1
 2496 01f6 11       		.uleb128 0x11
 2497 01f7 01       		.uleb128 0x1
 2498 01f8 31       		.uleb128 0x31
ARM GAS  /tmp/ccxDmDcp.s 			page 68


 2499 01f9 13       		.uleb128 0x13
 2500 01fa 01       		.uleb128 0x1
 2501 01fb 13       		.uleb128 0x13
 2502 01fc 00       		.byte	0
 2503 01fd 00       		.byte	0
 2504 01fe 28       		.uleb128 0x28
 2505 01ff 8A8201   		.uleb128 0x410a
 2506 0202 00       		.byte	0
 2507 0203 02       		.uleb128 0x2
 2508 0204 18       		.uleb128 0x18
 2509 0205 9142     		.uleb128 0x2111
 2510 0207 18       		.uleb128 0x18
 2511 0208 00       		.byte	0
 2512 0209 00       		.byte	0
 2513 020a 29       		.uleb128 0x29
 2514 020b 898201   		.uleb128 0x4109
 2515 020e 01       		.byte	0x1
 2516 020f 11       		.uleb128 0x11
 2517 0210 01       		.uleb128 0x1
 2518 0211 31       		.uleb128 0x31
 2519 0212 13       		.uleb128 0x13
 2520 0213 00       		.byte	0
 2521 0214 00       		.byte	0
 2522 0215 2A       		.uleb128 0x2a
 2523 0216 05       		.uleb128 0x5
 2524 0217 00       		.byte	0
 2525 0218 03       		.uleb128 0x3
 2526 0219 08       		.uleb128 0x8
 2527 021a 3A       		.uleb128 0x3a
 2528 021b 0B       		.uleb128 0xb
 2529 021c 3B       		.uleb128 0x3b
 2530 021d 0B       		.uleb128 0xb
 2531 021e 49       		.uleb128 0x49
 2532 021f 13       		.uleb128 0x13
 2533 0220 02       		.uleb128 0x2
 2534 0221 17       		.uleb128 0x17
 2535 0222 00       		.byte	0
 2536 0223 00       		.byte	0
 2537 0224 2B       		.uleb128 0x2b
 2538 0225 34       		.uleb128 0x34
 2539 0226 00       		.byte	0
 2540 0227 03       		.uleb128 0x3
 2541 0228 0E       		.uleb128 0xe
 2542 0229 49       		.uleb128 0x49
 2543 022a 13       		.uleb128 0x13
 2544 022b 34       		.uleb128 0x34
 2545 022c 19       		.uleb128 0x19
 2546 022d 00       		.byte	0
 2547 022e 00       		.byte	0
 2548 022f 2C       		.uleb128 0x2c
 2549 0230 34       		.uleb128 0x34
 2550 0231 00       		.byte	0
 2551 0232 03       		.uleb128 0x3
 2552 0233 08       		.uleb128 0x8
 2553 0234 3A       		.uleb128 0x3a
 2554 0235 0B       		.uleb128 0xb
 2555 0236 3B       		.uleb128 0x3b
ARM GAS  /tmp/ccxDmDcp.s 			page 69


 2556 0237 05       		.uleb128 0x5
 2557 0238 49       		.uleb128 0x49
 2558 0239 13       		.uleb128 0x13
 2559 023a 3F       		.uleb128 0x3f
 2560 023b 19       		.uleb128 0x19
 2561 023c 3C       		.uleb128 0x3c
 2562 023d 19       		.uleb128 0x19
 2563 023e 00       		.byte	0
 2564 023f 00       		.byte	0
 2565 0240 2D       		.uleb128 0x2d
 2566 0241 2E       		.uleb128 0x2e
 2567 0242 01       		.byte	0x1
 2568 0243 3F       		.uleb128 0x3f
 2569 0244 19       		.uleb128 0x19
 2570 0245 03       		.uleb128 0x3
 2571 0246 0E       		.uleb128 0xe
 2572 0247 3A       		.uleb128 0x3a
 2573 0248 0B       		.uleb128 0xb
 2574 0249 3B       		.uleb128 0x3b
 2575 024a 0B       		.uleb128 0xb
 2576 024b 27       		.uleb128 0x27
 2577 024c 19       		.uleb128 0x19
 2578 024d 49       		.uleb128 0x49
 2579 024e 13       		.uleb128 0x13
 2580 024f 3C       		.uleb128 0x3c
 2581 0250 19       		.uleb128 0x19
 2582 0251 01       		.uleb128 0x1
 2583 0252 13       		.uleb128 0x13
 2584 0253 00       		.byte	0
 2585 0254 00       		.byte	0
 2586 0255 2E       		.uleb128 0x2e
 2587 0256 2E       		.uleb128 0x2e
 2588 0257 01       		.byte	0x1
 2589 0258 3F       		.uleb128 0x3f
 2590 0259 19       		.uleb128 0x19
 2591 025a 03       		.uleb128 0x3
 2592 025b 0E       		.uleb128 0xe
 2593 025c 3A       		.uleb128 0x3a
 2594 025d 0B       		.uleb128 0xb
 2595 025e 3B       		.uleb128 0x3b
 2596 025f 05       		.uleb128 0x5
 2597 0260 27       		.uleb128 0x27
 2598 0261 19       		.uleb128 0x19
 2599 0262 3C       		.uleb128 0x3c
 2600 0263 19       		.uleb128 0x19
 2601 0264 01       		.uleb128 0x1
 2602 0265 13       		.uleb128 0x13
 2603 0266 00       		.byte	0
 2604 0267 00       		.byte	0
 2605 0268 2F       		.uleb128 0x2f
 2606 0269 2E       		.uleb128 0x2e
 2607 026a 01       		.byte	0x1
 2608 026b 3F       		.uleb128 0x3f
 2609 026c 19       		.uleb128 0x19
 2610 026d 03       		.uleb128 0x3
 2611 026e 0E       		.uleb128 0xe
 2612 026f 3A       		.uleb128 0x3a
ARM GAS  /tmp/ccxDmDcp.s 			page 70


 2613 0270 0B       		.uleb128 0xb
 2614 0271 3B       		.uleb128 0x3b
 2615 0272 0B       		.uleb128 0xb
 2616 0273 27       		.uleb128 0x27
 2617 0274 19       		.uleb128 0x19
 2618 0275 49       		.uleb128 0x49
 2619 0276 13       		.uleb128 0x13
 2620 0277 3C       		.uleb128 0x3c
 2621 0278 19       		.uleb128 0x19
 2622 0279 00       		.byte	0
 2623 027a 00       		.byte	0
 2624 027b 00       		.byte	0
 2625              		.section	.debug_loc,"",%progbits
 2626              	.Ldebug_loc0:
 2627              	.LLST0:
 2628 0000 00000000 		.4byte	.LVL0
 2629 0004 0F000000 		.4byte	.LVL2-1
 2630 0008 0100     		.2byte	0x1
 2631 000a 50       		.byte	0x50
 2632 000b 0F000000 		.4byte	.LVL2-1
 2633 000f 48000000 		.4byte	.LFE149
 2634 0013 0400     		.2byte	0x4
 2635 0015 F3       		.byte	0xf3
 2636 0016 01       		.uleb128 0x1
 2637 0017 50       		.byte	0x50
 2638 0018 9F       		.byte	0x9f
 2639 0019 00000000 		.4byte	0
 2640 001d 00000000 		.4byte	0
 2641              	.LLST1:
 2642 0021 00000000 		.4byte	.LVL0
 2643 0025 0F000000 		.4byte	.LVL2-1
 2644 0029 0100     		.2byte	0x1
 2645 002b 51       		.byte	0x51
 2646 002c 0F000000 		.4byte	.LVL2-1
 2647 0030 38000000 		.4byte	.LVL5
 2648 0034 0100     		.2byte	0x1
 2649 0036 54       		.byte	0x54
 2650 0037 38000000 		.4byte	.LVL5
 2651 003b 44000000 		.4byte	.LVL10
 2652 003f 0400     		.2byte	0x4
 2653 0041 F3       		.byte	0xf3
 2654 0042 01       		.uleb128 0x1
 2655 0043 51       		.byte	0x51
 2656 0044 9F       		.byte	0x9f
 2657 0045 44000000 		.4byte	.LVL10
 2658 0049 48000000 		.4byte	.LFE149
 2659 004d 0100     		.2byte	0x1
 2660 004f 54       		.byte	0x54
 2661 0050 00000000 		.4byte	0
 2662 0054 00000000 		.4byte	0
 2663              	.LLST2:
 2664 0058 00000000 		.4byte	.LVL0
 2665 005c 08000000 		.4byte	.LVL1
 2666 0060 0100     		.2byte	0x1
 2667 0062 52       		.byte	0x52
 2668 0063 08000000 		.4byte	.LVL1
 2669 0067 42000000 		.4byte	.LVL9
ARM GAS  /tmp/ccxDmDcp.s 			page 71


 2670 006b 0100     		.2byte	0x1
 2671 006d 56       		.byte	0x56
 2672 006e 42000000 		.4byte	.LVL9
 2673 0072 44000000 		.4byte	.LVL10
 2674 0076 0400     		.2byte	0x4
 2675 0078 F3       		.byte	0xf3
 2676 0079 01       		.uleb128 0x1
 2677 007a 52       		.byte	0x52
 2678 007b 9F       		.byte	0x9f
 2679 007c 44000000 		.4byte	.LVL10
 2680 0080 48000000 		.4byte	.LFE149
 2681 0084 0100     		.2byte	0x1
 2682 0086 56       		.byte	0x56
 2683 0087 00000000 		.4byte	0
 2684 008b 00000000 		.4byte	0
 2685              	.LLST3:
 2686 008f 00000000 		.4byte	.LVL0
 2687 0093 0F000000 		.4byte	.LVL2-1
 2688 0097 0100     		.2byte	0x1
 2689 0099 53       		.byte	0x53
 2690 009a 0F000000 		.4byte	.LVL2-1
 2691 009e 42000000 		.4byte	.LVL8
 2692 00a2 0100     		.2byte	0x1
 2693 00a4 55       		.byte	0x55
 2694 00a5 42000000 		.4byte	.LVL8
 2695 00a9 44000000 		.4byte	.LVL10
 2696 00ad 0400     		.2byte	0x4
 2697 00af F3       		.byte	0xf3
 2698 00b0 01       		.uleb128 0x1
 2699 00b1 53       		.byte	0x53
 2700 00b2 9F       		.byte	0x9f
 2701 00b3 44000000 		.4byte	.LVL10
 2702 00b7 48000000 		.4byte	.LFE149
 2703 00bb 0100     		.2byte	0x1
 2704 00bd 55       		.byte	0x55
 2705 00be 00000000 		.4byte	0
 2706 00c2 00000000 		.4byte	0
 2707              	.LLST4:
 2708 00c6 38000000 		.4byte	.LVL5
 2709 00ca 3B000000 		.4byte	.LVL6-1
 2710 00ce 0100     		.2byte	0x1
 2711 00d0 50       		.byte	0x50
 2712 00d1 3B000000 		.4byte	.LVL6-1
 2713 00d5 40000000 		.4byte	.LVL7
 2714 00d9 0100     		.2byte	0x1
 2715 00db 54       		.byte	0x54
 2716 00dc 00000000 		.4byte	0
 2717 00e0 00000000 		.4byte	0
 2718              	.LLST5:
 2719 00e4 10000000 		.4byte	.LVL2
 2720 00e8 1E000000 		.4byte	.LVL3
 2721 00ec 0100     		.2byte	0x1
 2722 00ee 50       		.byte	0x50
 2723 00ef 1E000000 		.4byte	.LVL3
 2724 00f3 2D000000 		.4byte	.LVL4-1
 2725 00f7 0200     		.2byte	0x2
 2726 00f9 91       		.byte	0x91
ARM GAS  /tmp/ccxDmDcp.s 			page 72


 2727 00fa 5C       		.sleb128 -36
 2728 00fb 44000000 		.4byte	.LVL10
 2729 00ff 46000000 		.4byte	.LVL11
 2730 0103 0100     		.2byte	0x1
 2731 0105 50       		.byte	0x50
 2732 0106 00000000 		.4byte	0
 2733 010a 00000000 		.4byte	0
 2734              	.LLST6:
 2735 010e 00000000 		.4byte	.LVL12
 2736 0112 0F000000 		.4byte	.LVL13-1
 2737 0116 0100     		.2byte	0x1
 2738 0118 50       		.byte	0x50
 2739 0119 0F000000 		.4byte	.LVL13-1
 2740 011d 44000000 		.4byte	.LVL19
 2741 0121 0100     		.2byte	0x1
 2742 0123 55       		.byte	0x55
 2743 0124 44000000 		.4byte	.LVL19
 2744 0128 46000000 		.4byte	.LVL22
 2745 012c 0400     		.2byte	0x4
 2746 012e F3       		.byte	0xf3
 2747 012f 01       		.uleb128 0x1
 2748 0130 50       		.byte	0x50
 2749 0131 9F       		.byte	0x9f
 2750 0132 46000000 		.4byte	.LVL22
 2751 0136 4A000000 		.4byte	.LFE150
 2752 013a 0100     		.2byte	0x1
 2753 013c 55       		.byte	0x55
 2754 013d 00000000 		.4byte	0
 2755 0141 00000000 		.4byte	0
 2756              	.LLST7:
 2757 0145 00000000 		.4byte	.LVL12
 2758 0149 0F000000 		.4byte	.LVL13-1
 2759 014d 0100     		.2byte	0x1
 2760 014f 51       		.byte	0x51
 2761 0150 0F000000 		.4byte	.LVL13-1
 2762 0154 44000000 		.4byte	.LVL21
 2763 0158 0100     		.2byte	0x1
 2764 015a 57       		.byte	0x57
 2765 015b 44000000 		.4byte	.LVL21
 2766 015f 46000000 		.4byte	.LVL22
 2767 0163 0400     		.2byte	0x4
 2768 0165 F3       		.byte	0xf3
 2769 0166 01       		.uleb128 0x1
 2770 0167 51       		.byte	0x51
 2771 0168 9F       		.byte	0x9f
 2772 0169 46000000 		.4byte	.LVL22
 2773 016d 4A000000 		.4byte	.LFE150
 2774 0171 0100     		.2byte	0x1
 2775 0173 57       		.byte	0x57
 2776 0174 00000000 		.4byte	0
 2777 0178 00000000 		.4byte	0
 2778              	.LLST8:
 2779 017c 00000000 		.4byte	.LVL12
 2780 0180 0F000000 		.4byte	.LVL13-1
 2781 0184 0100     		.2byte	0x1
 2782 0186 52       		.byte	0x52
 2783 0187 0F000000 		.4byte	.LVL13-1
ARM GAS  /tmp/ccxDmDcp.s 			page 73


 2784 018b 44000000 		.4byte	.LVL20
 2785 018f 0100     		.2byte	0x1
 2786 0191 56       		.byte	0x56
 2787 0192 44000000 		.4byte	.LVL20
 2788 0196 46000000 		.4byte	.LVL22
 2789 019a 0400     		.2byte	0x4
 2790 019c F3       		.byte	0xf3
 2791 019d 01       		.uleb128 0x1
 2792 019e 52       		.byte	0x52
 2793 019f 9F       		.byte	0x9f
 2794 01a0 46000000 		.4byte	.LVL22
 2795 01a4 4A000000 		.4byte	.LFE150
 2796 01a8 0100     		.2byte	0x1
 2797 01aa 56       		.byte	0x56
 2798 01ab 00000000 		.4byte	0
 2799 01af 00000000 		.4byte	0
 2800              	.LLST9:
 2801 01b3 00000000 		.4byte	.LVL12
 2802 01b7 0F000000 		.4byte	.LVL13-1
 2803 01bb 0100     		.2byte	0x1
 2804 01bd 53       		.byte	0x53
 2805 01be 0F000000 		.4byte	.LVL13-1
 2806 01c2 3A000000 		.4byte	.LVL16
 2807 01c6 0100     		.2byte	0x1
 2808 01c8 54       		.byte	0x54
 2809 01c9 3A000000 		.4byte	.LVL16
 2810 01cd 46000000 		.4byte	.LVL22
 2811 01d1 0400     		.2byte	0x4
 2812 01d3 F3       		.byte	0xf3
 2813 01d4 01       		.uleb128 0x1
 2814 01d5 53       		.byte	0x53
 2815 01d6 9F       		.byte	0x9f
 2816 01d7 46000000 		.4byte	.LVL22
 2817 01db 4A000000 		.4byte	.LFE150
 2818 01df 0100     		.2byte	0x1
 2819 01e1 54       		.byte	0x54
 2820 01e2 00000000 		.4byte	0
 2821 01e6 00000000 		.4byte	0
 2822              	.LLST10:
 2823 01ea 3A000000 		.4byte	.LVL16
 2824 01ee 3D000000 		.4byte	.LVL17-1
 2825 01f2 0100     		.2byte	0x1
 2826 01f4 50       		.byte	0x50
 2827 01f5 3D000000 		.4byte	.LVL17-1
 2828 01f9 42000000 		.4byte	.LVL18
 2829 01fd 0100     		.2byte	0x1
 2830 01ff 54       		.byte	0x54
 2831 0200 00000000 		.4byte	0
 2832 0204 00000000 		.4byte	0
 2833              	.LLST11:
 2834 0208 10000000 		.4byte	.LVL13
 2835 020c 1A000000 		.4byte	.LVL14
 2836 0210 0100     		.2byte	0x1
 2837 0212 50       		.byte	0x50
 2838 0213 1A000000 		.4byte	.LVL14
 2839 0217 2D000000 		.4byte	.LVL15-1
 2840 021b 0200     		.2byte	0x2
ARM GAS  /tmp/ccxDmDcp.s 			page 74


 2841 021d 91       		.byte	0x91
 2842 021e 54       		.sleb128 -44
 2843 021f 46000000 		.4byte	.LVL22
 2844 0223 48000000 		.4byte	.LVL23
 2845 0227 0100     		.2byte	0x1
 2846 0229 50       		.byte	0x50
 2847 022a 00000000 		.4byte	0
 2848 022e 00000000 		.4byte	0
 2849              		.section	.debug_aranges,"",%progbits
 2850 0000 24000000 		.4byte	0x24
 2851 0004 0200     		.2byte	0x2
 2852 0006 00000000 		.4byte	.Ldebug_info0
 2853 000a 04       		.byte	0x4
 2854 000b 00       		.byte	0
 2855 000c 0000     		.2byte	0
 2856 000e 0000     		.2byte	0
 2857 0010 00000000 		.4byte	.LFB149
 2858 0014 48000000 		.4byte	.LFE149-.LFB149
 2859 0018 00000000 		.4byte	.LFB150
 2860 001c 4A000000 		.4byte	.LFE150-.LFB150
 2861 0020 00000000 		.4byte	0
 2862 0024 00000000 		.4byte	0
 2863              		.section	.debug_ranges,"",%progbits
 2864              	.Ldebug_ranges0:
 2865 0000 00000000 		.4byte	.LFB149
 2866 0004 48000000 		.4byte	.LFE149
 2867 0008 00000000 		.4byte	.LFB150
 2868 000c 4A000000 		.4byte	.LFE150
 2869 0010 00000000 		.4byte	0
 2870 0014 00000000 		.4byte	0
 2871              		.section	.debug_line,"",%progbits
 2872              	.Ldebug_line0:
 2873 0000 83020000 		.section	.debug_str,"MS",%progbits,1
 2873      02001202 
 2873      00000201 
 2873      FB0E0D00 
 2873      01010101 
 2874              	.LASF47:
 2875 0000 63685F74 		.ascii	"ch_threads_list\000"
 2875      68726561 
 2875      64735F6C 
 2875      69737400 
 2876              	.LASF82:
 2877 0010 77746D74 		.ascii	"wtmtxp\000"
 2877      787000
 2878              	.LASF108:
 2879 0017 6D656D6F 		.ascii	"memory_pool_t\000"
 2879      72795F70 
 2879      6F6F6C5F 
 2879      7400
 2880              	.LASF89:
 2881 0025 77626173 		.ascii	"wbase\000"
 2881      6500
 2882              	.LASF72:
 2883 002b 72656761 		.ascii	"regarm_t\000"
 2883      726D5F74 
 2883      00
ARM GAS  /tmp/ccxDmDcp.s 			page 75


 2884              	.LASF36:
 2885 0034 666C6167 		.ascii	"flags\000"
 2885      7300
 2886              	.LASF27:
 2887 003a 73797374 		.ascii	"systime_t\000"
 2887      696D655F 
 2887      7400
 2888              	.LASF42:
 2889 0044 7265616C 		.ascii	"realprio\000"
 2889      7072696F 
 2889      00
 2890              	.LASF40:
 2891 004d 6570656E 		.ascii	"epending\000"
 2891      64696E67 
 2891      00
 2892              	.LASF127:
 2893 0056 5F5F6675 		.ascii	"__func__.5580\000"
 2893      6E635F5F 
 2893      2E353538 
 2893      3000
 2894              	.LASF0:
 2895 0064 756E7369 		.ascii	"unsigned int\000"
 2895      676E6564 
 2895      20696E74 
 2895      00
 2896              	.LASF48:
 2897 0071 6E657874 		.ascii	"next\000"
 2897      00
 2898              	.LASF45:
 2899 0076 74687265 		.ascii	"threads_list_t\000"
 2899      6164735F 
 2899      6C697374 
 2899      5F7400
 2900              	.LASF8:
 2901 0085 5F5F696E 		.ascii	"__int32_t\000"
 2901      7433325F 
 2901      7400
 2902              	.LASF37:
 2903 008f 72656673 		.ascii	"refs\000"
 2903      00
 2904              	.LASF104:
 2905 0094 68656170 		.ascii	"heap\000"
 2905      00
 2906              	.LASF78:
 2907 0099 77746F62 		.ascii	"wtobjp\000"
 2907      6A7000
 2908              	.LASF111:
 2909 00a0 706F7274 		.ascii	"port_lock\000"
 2909      5F6C6F63 
 2909      6B00
 2910              	.LASF69:
 2911 00aa 76746C69 		.ascii	"vtlist\000"
 2911      737400
 2912              	.LASF74:
 2913 00b1 706F7274 		.ascii	"port_context\000"
 2913      5F636F6E 
 2913      74657874 
ARM GAS  /tmp/ccxDmDcp.s 			page 76


 2913      00
 2914              	.LASF53:
 2915 00be 63685F72 		.ascii	"ch_ready_list\000"
 2915      65616479 
 2915      5F6C6973 
 2915      7400
 2916              	.LASF59:
 2917 00cc 66756E63 		.ascii	"func\000"
 2917      00
 2918              	.LASF83:
 2919 00d1 65776D61 		.ascii	"ewmask\000"
 2919      736B00
 2920              	.LASF51:
 2921 00d8 70726576 		.ascii	"prev\000"
 2921      00
 2922              	.LASF50:
 2923 00dd 63685F74 		.ascii	"ch_threads_queue\000"
 2923      68726561 
 2923      64735F71 
 2923      75657565 
 2923      00
 2924              	.LASF55:
 2925 00ee 76746675 		.ascii	"vtfunc_t\000"
 2925      6E635F74 
 2925      00
 2926              	.LASF64:
 2927 00f7 63685F73 		.ascii	"ch_system_debug\000"
 2927      79737465 
 2927      6D5F6465 
 2927      62756700 
 2928              	.LASF121:
 2929 0107 474E5520 		.ascii	"GNU C 4.8.3 -mcpu=cortex-m0 -mno-thumb-interwork -m"
 2929      4320342E 
 2929      382E3320 
 2929      2D6D6370 
 2929      753D636F 
 2930 013a 7468756D 		.ascii	"thumb -ggdb -O2 -fomit-frame-pointer -falign-functi"
 2930      62202D67 
 2930      67646220 
 2930      2D4F3220 
 2930      2D666F6D 
 2931 016d 6F6E733D 		.ascii	"ons=16 -ffunction-sections -fdata-sections -fno-com"
 2931      3136202D 
 2931      6666756E 
 2931      6374696F 
 2931      6E2D7365 
 2932 01a0 6D6F6E20 		.ascii	"mon -flto\000"
 2932      2D666C74 
 2932      6F00
 2933              	.LASF18:
 2934 01aa 75696E74 		.ascii	"uint32_t\000"
 2934      33325F74 
 2934      00
 2935              	.LASF80:
 2936 01b3 73656E74 		.ascii	"sentmsg\000"
 2936      6D736700 
 2937              	.LASF25:
ARM GAS  /tmp/ccxDmDcp.s 			page 77


 2938 01bb 6576656E 		.ascii	"eventmask_t\000"
 2938      746D6173 
 2938      6B5F7400 
 2939              	.LASF92:
 2940 01c7 74687265 		.ascii	"thread_descriptor_t\000"
 2940      61645F64 
 2940      65736372 
 2940      6970746F 
 2940      725F7400 
 2941              	.LASF84:
 2942 01db 63685F73 		.ascii	"ch_semaphore\000"
 2942      656D6170 
 2942      686F7265 
 2942      00
 2943              	.LASF23:
 2944 01e8 74707269 		.ascii	"tprio_t\000"
 2944      6F5F7400 
 2945              	.LASF57:
 2946 01f0 63685F76 		.ascii	"ch_virtual_timer\000"
 2946      69727475 
 2946      616C5F74 
 2946      696D6572 
 2946      00
 2947              	.LASF88:
 2948 0201 7466756E 		.ascii	"tfunc_t\000"
 2948      635F7400 
 2949              	.LASF14:
 2950 0209 6C6F6E67 		.ascii	"long long unsigned int\000"
 2950      206C6F6E 
 2950      6720756E 
 2950      7369676E 
 2950      65642069 
 2951              	.LASF6:
 2952 0220 5F5F7569 		.ascii	"__uint16_t\000"
 2952      6E743136 
 2952      5F7400
 2953              	.LASF26:
 2954 022b 636E745F 		.ascii	"cnt_t\000"
 2954      7400
 2955              	.LASF125:
 2956 0231 63685379 		.ascii	"chSysUnlock\000"
 2956      73556E6C 
 2956      6F636B00 
 2957              	.LASF86:
 2958 023d 6F776E65 		.ascii	"owner\000"
 2958      7200
 2959              	.LASF49:
 2960 0243 74687265 		.ascii	"threads_queue_t\000"
 2960      6164735F 
 2960      71756575 
 2960      655F7400 
 2961              	.LASF41:
 2962 0253 6D74786C 		.ascii	"mtxlist\000"
 2962      69737400 
 2963              	.LASF61:
 2964 025b 63685F76 		.ascii	"ch_virtual_timers_list\000"
 2964      69727475 
ARM GAS  /tmp/ccxDmDcp.s 			page 78


 2964      616C5F74 
 2964      696D6572 
 2964      735F6C69 
 2965              	.LASF102:
 2966 0272 75736564 		.ascii	"used\000"
 2966      00
 2967              	.LASF28:
 2968 0277 74687265 		.ascii	"thread_t\000"
 2968      61645F74 
 2968      00
 2969              	.LASF124:
 2970 0280 68656170 		.ascii	"heap_header\000"
 2970      5F686561 
 2970      64657200 
 2971              	.LASF2:
 2972 028c 73697A65 		.ascii	"size_t\000"
 2972      5F7400
 2973              	.LASF76:
 2974 0293 7264796D 		.ascii	"rdymsg\000"
 2974      736700
 2975              	.LASF107:
 2976 029a 6F626A65 		.ascii	"object_size\000"
 2976      63745F73 
 2976      697A6500 
 2977              	.LASF109:
 2978 02a6 5F5F6469 		.ascii	"__disable_irq\000"
 2978      7361626C 
 2978      655F6972 
 2978      7100
 2979              	.LASF85:
 2980 02b4 63685F6D 		.ascii	"ch_mutex\000"
 2980      75746578 
 2980      00
 2981              	.LASF101:
 2982 02bd 66726565 		.ascii	"free\000"
 2982      00
 2983              	.LASF13:
 2984 02c2 5F5F7569 		.ascii	"__uint64_t\000"
 2984      6E743634 
 2984      5F7400
 2985              	.LASF113:
 2986 02cd 63685379 		.ascii	"chSysLock\000"
 2986      734C6F63 
 2986      6B00
 2987              	.LASF30:
 2988 02d7 7072696F 		.ascii	"prio\000"
 2988      00
 2989              	.LASF87:
 2990 02dc 63686172 		.ascii	"char\000"
 2990      00
 2991              	.LASF44:
 2992 02e1 74687265 		.ascii	"thread_reference_t\000"
 2992      61645F72 
 2992      65666572 
 2992      656E6365 
 2992      5F7400
 2993              	.LASF34:
ARM GAS  /tmp/ccxDmDcp.s 			page 79


 2994 02f4 77616261 		.ascii	"wabase\000"
 2994      736500
 2995              	.LASF116:
 2996 02fb 63685468 		.ascii	"chThdCreateFromMemoryPool\000"
 2996      64437265 
 2996      61746546 
 2996      726F6D4D 
 2996      656D6F72 
 2997              	.LASF21:
 2998 0315 74737461 		.ascii	"tstate_t\000"
 2998      74655F74 
 2998      00
 2999              	.LASF15:
 3000 031e 75696E74 		.ascii	"uint8_t\000"
 3000      385F7400 
 3001              	.LASF39:
 3002 0326 6D736771 		.ascii	"msgqueue\000"
 3002      75657565 
 3002      00
 3003              	.LASF46:
 3004 032f 63685F74 		.ascii	"ch_thread\000"
 3004      68726561 
 3004      6400
 3005              	.LASF103:
 3006 0339 70616765 		.ascii	"pages\000"
 3006      7300
 3007              	.LASF122:
 3008 033f 2E2E2F2E 		.ascii	"../../../os/rt/src/chdynamic.c\000"
 3008      2E2F2E2E 
 3008      2F6F732F 
 3008      72742F73 
 3008      72632F63 
 3009              	.LASF63:
 3010 035e 73797374 		.ascii	"system_debug_t\000"
 3010      656D5F64 
 3010      65627567 
 3010      5F7400
 3011              	.LASF90:
 3012 036d 77656E64 		.ascii	"wend\000"
 3012      00
 3013              	.LASF12:
 3014 0372 6C6F6E67 		.ascii	"long long int\000"
 3014      206C6F6E 
 3014      6720696E 
 3014      7400
 3015              	.LASF24:
 3016 0380 6D73675F 		.ascii	"msg_t\000"
 3016      7400
 3017              	.LASF56:
 3018 0386 76697274 		.ascii	"virtual_timer_t\000"
 3018      75616C5F 
 3018      74696D65 
 3018      725F7400 
 3019              	.LASF105:
 3020 0396 73697A65 		.ascii	"size\000"
 3020      00
 3021              	.LASF98:
ARM GAS  /tmp/ccxDmDcp.s 			page 80


 3022 039b 68656164 		.ascii	"header\000"
 3022      657200
 3023              	.LASF95:
 3024 03a2 6D656D6F 		.ascii	"memory_heap_t\000"
 3024      72795F68 
 3024      6561705F 
 3024      7400
 3025              	.LASF118:
 3026 03b0 63685468 		.ascii	"chThdCreateSuspendedI\000"
 3026      64437265 
 3026      61746553 
 3026      75737065 
 3026      6E646564 
 3027              	.LASF65:
 3028 03c6 70616E69 		.ascii	"panic_msg\000"
 3028      635F6D73 
 3028      6700
 3029              	.LASF20:
 3030 03d0 746D6F64 		.ascii	"tmode_t\000"
 3030      655F7400 
 3031              	.LASF70:
 3032 03d8 6D61696E 		.ascii	"mainthread\000"
 3032      74687265 
 3032      616400
 3033              	.LASF16:
 3034 03e3 75696E74 		.ascii	"uint16_t\000"
 3034      31365F74 
 3034      00
 3035              	.LASF117:
 3036 03ec 63684865 		.ascii	"chHeapAllocAligned\000"
 3036      6170416C 
 3036      6C6F6341 
 3036      6C69676E 
 3036      656400
 3037              	.LASF5:
 3038 03ff 73686F72 		.ascii	"short int\000"
 3038      7420696E 
 3038      7400
 3039              	.LASF96:
 3040 0409 6D656D6F 		.ascii	"memory_heap\000"
 3040      72795F68 
 3040      65617000 
 3041              	.LASF9:
 3042 0415 6C6F6E67 		.ascii	"long int\000"
 3042      20696E74 
 3042      00
 3043              	.LASF75:
 3044 041e 706F7274 		.ascii	"port_intctx\000"
 3044      5F696E74 
 3044      63747800 
 3045              	.LASF110:
 3046 042a 5F5F656E 		.ascii	"__enable_irq\000"
 3046      61626C65 
 3046      5F697271 
 3046      00
 3047              	.LASF67:
 3048 0437 63685F73 		.ascii	"ch_system\000"
ARM GAS  /tmp/ccxDmDcp.s 			page 81


 3048      79737465 
 3048      6D00
 3049              	.LASF97:
 3050 0441 70726F76 		.ascii	"provider\000"
 3050      69646572 
 3050      00
 3051              	.LASF62:
 3052 044a 6C617374 		.ascii	"lasttime\000"
 3052      74696D65 
 3052      00
 3053              	.LASF19:
 3054 0453 75696E74 		.ascii	"uint64_t\000"
 3054      36345F74 
 3054      00
 3055              	.LASF68:
 3056 045c 726C6973 		.ascii	"rlist\000"
 3056      7400
 3057              	.LASF120:
 3058 0462 6368506F 		.ascii	"chPoolAlloc\000"
 3058      6F6C416C 
 3058      6C6F6300 
 3059              	.LASF3:
 3060 046e 5F5F7569 		.ascii	"__uint8_t\000"
 3060      6E74385F 
 3060      7400
 3061              	.LASF126:
 3062 0478 5F5F6675 		.ascii	"__func__.4890\000"
 3062      6E635F5F 
 3062      2E343839 
 3062      3000
 3063              	.LASF94:
 3064 0486 6D656D67 		.ascii	"memgetfunc_t\000"
 3064      65746675 
 3064      6E635F74 
 3064      00
 3065              	.LASF33:
 3066 0493 6E616D65 		.ascii	"name\000"
 3066      00
 3067              	.LASF71:
 3068 0498 73697A65 		.ascii	"sizetype\000"
 3068      74797065 
 3068      00
 3069              	.LASF22:
 3070 04a1 74726566 		.ascii	"trefs_t\000"
 3070      735F7400 
 3071              	.LASF11:
 3072 04a9 6C6F6E67 		.ascii	"long unsigned int\000"
 3072      20756E73 
 3072      69676E65 
 3072      6420696E 
 3072      7400
 3073              	.LASF52:
 3074 04bb 72656164 		.ascii	"ready_list_t\000"
 3074      795F6C69 
 3074      73745F74 
 3074      00
 3075              	.LASF29:
ARM GAS  /tmp/ccxDmDcp.s 			page 82


 3076 04c8 71756575 		.ascii	"queue\000"
 3076      6500
 3077              	.LASF17:
 3078 04ce 696E7433 		.ascii	"int32_t\000"
 3078      325F7400 
 3079              	.LASF81:
 3080 04d6 77747365 		.ascii	"wtsemp\000"
 3080      6D7000
 3081              	.LASF115:
 3082 04dd 63685468 		.ascii	"chThdCreateFromHeap\000"
 3082      64437265 
 3082      61746546 
 3082      726F6D48 
 3082      65617000 
 3083              	.LASF93:
 3084 04f1 6D757465 		.ascii	"mutex_t\000"
 3084      785F7400 
 3085              	.LASF31:
 3086 04f9 6E657765 		.ascii	"newer\000"
 3086      7200
 3087              	.LASF4:
 3088 04ff 756E7369 		.ascii	"unsigned char\000"
 3088      676E6564 
 3088      20636861 
 3088      7200
 3089              	.LASF10:
 3090 050d 5F5F7569 		.ascii	"__uint32_t\000"
 3090      6E743332 
 3090      5F7400
 3091              	.LASF38:
 3092 0518 77616974 		.ascii	"waiting\000"
 3092      696E6700 
 3093              	.LASF91:
 3094 0520 66756E63 		.ascii	"funcp\000"
 3094      7000
 3095              	.LASF60:
 3096 0526 76697274 		.ascii	"virtual_timers_list_t\000"
 3096      75616C5F 
 3096      74696D65 
 3096      72735F6C 
 3096      6973745F 
 3097              	.LASF119:
 3098 053c 63685363 		.ascii	"chSchWakeupS\000"
 3098      6857616B 
 3098      65757053 
 3098      00
 3099              	.LASF35:
 3100 0549 73746174 		.ascii	"state\000"
 3100      6500
 3101              	.LASF106:
 3102 054f 706F6F6C 		.ascii	"pool_header\000"
 3102      5F686561 
 3102      64657200 
 3103              	.LASF66:
 3104 055b 63685F73 		.ascii	"ch_system_t\000"
 3104      79737465 
 3104      6D5F7400 
ARM GAS  /tmp/ccxDmDcp.s 			page 83


 3105              	.LASF79:
 3106 0567 77747472 		.ascii	"wttrp\000"
 3106      7000
 3107              	.LASF114:
 3108 056d 68656170 		.ascii	"heapp\000"
 3108      7000
 3109              	.LASF1:
 3110 0573 7369676E 		.ascii	"signed char\000"
 3110      65642063 
 3110      68617200 
 3111              	.LASF58:
 3112 057f 64656C74 		.ascii	"delta\000"
 3112      6100
 3113              	.LASF7:
 3114 0585 73686F72 		.ascii	"short unsigned int\000"
 3114      7420756E 
 3114      7369676E 
 3114      65642069 
 3114      6E7400
 3115              	.LASF73:
 3116 0598 73746B61 		.ascii	"stkalign_t\000"
 3116      6C69676E 
 3116      5F7400
 3117              	.LASF54:
 3118 05a3 63757272 		.ascii	"current\000"
 3118      656E7400 
 3119              	.LASF112:
 3120 05ab 706F7274 		.ascii	"port_unlock\000"
 3120      5F756E6C 
 3120      6F636B00 
 3121              	.LASF100:
 3122 05b7 616C6967 		.ascii	"align\000"
 3122      6E00
 3123              	.LASF32:
 3124 05bd 6F6C6465 		.ascii	"older\000"
 3124      7200
 3125              	.LASF123:
 3126 05c3 2F686F6D 		.ascii	"/home/awygle/ChibiOS-RT/demos/STM32/RT-STM32F030R8-"
 3126      652F6177 
 3126      79676C65 
 3126      2F436869 
 3126      62694F53 
 3127 05f6 4E55434C 		.ascii	"NUCLEO64\000"
 3127      454F3634 
 3127      00
 3128              	.LASF77:
 3129 05ff 65786974 		.ascii	"exitcode\000"
 3129      636F6465 
 3129      00
 3130              	.LASF99:
 3131 0608 68656170 		.ascii	"heap_header_t\000"
 3131      5F686561 
 3131      6465725F 
 3131      7400
 3132              	.LASF43:
 3133 0616 6D706F6F 		.ascii	"mpool\000"
 3133      6C00
ARM GAS  /tmp/ccxDmDcp.s 			page 84


 3134              		.comm	__gnu_lto_v1,1,1
 3135              		.ident	"GCC: (4.8.3-18ubuntu2+12) 4.8.3"
ARM GAS  /tmp/ccxDmDcp.s 			page 85


DEFINED SYMBOLS
                            *ABS*:0000000000000000 chdynamic.c
     /tmp/ccxDmDcp.s:394    .text.chThdCreateFromHeap:0000000000000000 $t
     /tmp/ccxDmDcp.s:400    .text.chThdCreateFromHeap:0000000000000000 chThdCreateFromHeap
     /tmp/ccxDmDcp.s:505    .text.chThdCreateFromMemoryPool:0000000000000000 $t
     /tmp/ccxDmDcp.s:511    .text.chThdCreateFromMemoryPool:0000000000000000 chThdCreateFromMemoryPool
                            *COM*:0000000000000001 __gnu_lto_v1
                     .debug_frame:0000000000000010 $d

UNDEFINED SYMBOLS
chHeapAllocAligned
chThdCreateSuspendedI
chSchWakeupS
chPoolAlloc
