ARM GAS  /tmp/ccxDmDcp.s 			page 1


   1              		.cpu cortex-m0
   2              		.fpu softvfp
   3              		.eabi_attribute 20, 1
   4              		.eabi_attribute 21, 1
   5              		.eabi_attribute 23, 3
   6              		.eabi_attribute 24, 1
   7              		.eabi_attribute 25, 1
   8              		.eabi_attribute 26, 1
   9              		.eabi_attribute 30, 2
  10              		.eabi_attribute 34, 0
  11              		.eabi_attribute 18, 4
  12              		.code	16
  13              		.file	"chdynamic.c"
  14              		.text
  15              	.Ltext0:
  16              		.section	.gnu.lto_.jmpfuncs.80d5c452cf215786,"",%progbits
  17 0000 789C6362 		.ascii	"x\234cb`b\300\006\"\2404\023\203=\023\003#c\007S\004"
  17      6062C006 
  17      22A03413 
  17      833D1303 
  17      23630753 
  18 0015 63262303 		.ascii	"c&#\003#\003\230f\004J\000133\220.cd\000R\214e\014\020"
  18      23039866 
  18      044A0031 
  18      3333902E 
  18      63640052 
  19 002d 29260E20 		.ascii	")&\016 G\036I\013\023\212\026F\250\026\006\000f\372"
  19      471E490B 
  19      138A1646 
  19      A8160600 
  19      66FA
  20 003f 0732     		.ascii	"\0072"
  21              		.text
  22              		.section	.gnu.lto_.inline.80d5c452cf215786,"",%progbits
  23 0000 789C6362 		.ascii	"x\234cb`b\300\006\302\2414\023\203\204\224\021#\003"
  23      6062C006 
  23      C2A13413 
  23      83849411 
  23      2303
  24 0012 93C48A2D 		.ascii	"\223\304\212-\214\014l\013\344\301\252\231y\200\022"
  24      8C0C6C0B 
  24      E4C1AA99 
  24      798012
  25 0021 13FCC034 		.ascii	"\023\374\3004#\003+\037Pd\202\037\220\317\010Q+}\355"
  25      23032B1F 
  25      5064821F 
  25      90CF0851 
  25      2B7DED
  26 0034 142303FB 		.ascii	"\024#\003\373-5,j\301$\220\007\000\372L\012\354"
  26      2D352C6A 
  26      C1249007 
  26      00FA4C0A 
  26      EC
  27              		.text
  28              		.section	.gnu.lto_.pureconst.80d5c452cf215786,"",%progbits
  29 0000 789C6362 		.ascii	"x\234cb`b`e\200\000&\006+F+\000\001\206\000\201"
  29      60626065 
ARM GAS  /tmp/ccxDmDcp.s 			page 2


  29      80002606 
  29      2B462B00 
  29      01860081 
  30              		.text
  31              		.section	.gnu.lto_chThdCreateFromHeap.80d5c452cf215786,"",%progbits
  32 0000 789C8D54 		.ascii	"x\234\215T]H\024Q\024>\347\316\214\273\272nj\271P *"
  32      5D481451 
  32      143EE7CE 
  32      8CBBBA6E 
  32      6AB95020 
  33 0015 4250440E 		.ascii	"BPD\016Q\364\\\370$\341K&\324\223\350u\321\201\326]"
  33      51F45CF8 
  33      24E14B26 
  33      D493E875 
  33      D181D65D 
  34 0029 76B65222 		.ascii	"v\266R\"\274\376$F?H\004\375Q)\"A\010=\204\344\213\260"
  34      BCFE2446 
  34      3F4804FD 
  34      51292241 
  34      083D84E4 
  35 003f FD495A2A 		.ascii	"\375IZ*\275\025$-\370\220 \025a\220dh\347\316\235\031"
  35      BD15242D 
  35      F8902015 
  35      61906468 
  35      E7CE9D19 
  36 0053 573368D8 		.ascii	"W3h\330\271w\316\271\3379\347;\347\334\263\014\030l"
  36      B977CEB9 
  36      DF39E73B 
  36      E7DCB30C 
  36      186C
  37 0065 7E0ED23B 		.ascii	"~\016\322;\242\003\274\242\035\015@\326?\003\320\031"
  37      A203BCA2 
  37      1D0D40D6 
  37      3F03D019 
  38 0075 644C9FD2 		.ascii	"dL\237\322@\344i\023S\000\"_C]\351uD\371\001\010\035"
  38      40E46913 
  38      5300225F 
  38      435DE975 
  38      44F90108 
  39 008a 4CD3B1E3 		.ascii	"L\323\261\343\024J'Z\005\014\012q=3\274\270\200\267"
  39      144A275A 
  39      050C0A71 
  39      3D33BCB8 
  39      80B7
  40 009c 45BA6740 		.ascii	"E\272g@\374^[C\264\220\002V p\204\223$`\271\2631}#\003"
  40      FC5E5B43 
  40      B4900256 
  40      20708493 
  40      2460B9B3 
  41 00b4 659B9E9B 		.ascii	"e\233\236\233\270\262K\014t\365\213U2\265Pc\260\373"
  41      B8B24B0C 
  41      74F58B55 
  41      32B55063 
  41      B0FB
  42 00c6 7F2CD3FD 		.ascii	"\177,\323\375\351\225\211\233\230e\2513\330\273n\231"
  42      E995899B 
  42      9865A933 
ARM GAS  /tmp/ccxDmDcp.s 			page 3


  42      D8BB6E99 
  43 00d6 563BDBB9 		.ascii	"V;\333\271\321\3641Kg\326\326\336\216\216\315/bQ\011"
  43      D1F4314B 
  43      67D6D6DE 
  43      8E8ECD2F 
  43      625109
  44 00e9 0251D531 		.ascii	"\002Q\3251\206`\320\202\001h\300!\254\200 \011,DgF\230"
  44      8660D082 
  44      0168C021 
  44      AC802009 
  44      2C446746 
  45 00fe BEB4025A 		.ascii	"\276\264\002Z\364\"Z\214\010\001\006\011@\217\001=B"
  45      F4225A8C 
  45      08010609 
  45      408F013D 
  45      42
  46 010f F4972B59 		.ascii	"\364\227+Y\2315\340\260s\306\235\332\234\240U\226\254"
  46      9935E0B0 
  46      73C69DDA 
  46      9CA05596 
  46      AC
  47 0120 0E99DCB5 		.ascii	"\016\231\334\265Y\350\315\214\315c\003>\244r7c\340<"
  47      59E8CD8C 
  47      CD63033E 
  47      A4723763 
  47      E03C
  48 0132 FC127DA2 		.ascii	"\374\022}\242\320\302\034\216\216\001)\365f4$\353@\220"
  48      D0C21C8E 
  48      8E0129F5 
  48      663424EB 
  48      4090
  49 0144 82070126 		.ascii	"\202\007\001&\201)\274\012@V\000\257\341\345\347gK\275"
  49      8129BC0A 
  49      405600AF 
  49      E1E5E767 
  49      4BBD
  50 0156 9AEF481A 		.ascii	"\232\357H\032h\3319\326\221H\355\323\246\241\353\315"
  50      68D939D6 
  50      9148EDD3 
  50      A6A1EBCD 
  51 0166 D8B765D7 		.ascii	"\330\267e\327\305>x$\204\214\227\253x6\252\240\344\201"
  51      C53E7824 
  51      848C97AB 
  51      7836AAA0 
  51      E481
  52 0178 0211B47A 		.ascii	"\002\021\264z\023\314\360`\036\271\200\204u_\356\036"
  52      13CCF060 
  52      1EB98084 
  52      755FEE1E 
  53 0188 BA6678B1 		.ascii	"\272fx\261C\244%\312\216\375\344\026\241|\037\314\365"
  53      43A425CA 
  53      8EFDE416 
  53      A17C1FCC 
  53      F5
  54 0199 1172A0C7 		.ascii	"\021r\240\3076\301\362<\230\346\302\302[\302B\036Lw"
  54      36C1F23C 
  54      98E6C2C2 
ARM GAS  /tmp/ccxDmDcp.s 			page 4


  54      5BC2421E 
  54      4C77
  55 01ab 61055BC2 		.ascii	"a\005[\3024\017f\270\260\"\200\031\350\374\376\361\376"
  55      340F66B8 
  55      B0228019 
  55      E8FCFEF1 
  55      FE
  56 01bc 04BA5DF3 		.ascii	"\004\272]\363\332\227^\271\372%\264\307\227\226n,\207"
  56      DA975EB9 
  56      FA25B4C7 
  56      97966E2C 
  56      87
  57 01cd 4A7CE9D2 		.ascii	"J|\351\322W\312\\\371\346\224\000'v\334\015Mc0B\242"
  57      57CA5CF9 
  57      E6940027 
  57      76DC0D4D 
  57      633042A2 
  58 01e1 9355298C 		.ascii	"\223U)\214\342=q\353\210\205\371\352l\026z2s/\374FG"
  58      E23D71EB 
  58      8885F9EA 
  58      6C167A32 
  58      732FFC46 
  59 01f6 FC4687B9 		.ascii	"\374F\207\271KIj\350\271`\3416\305Ua\251\347\005\262"
  59      4B496AE8 
  59      B960E136 
  59      C55561A9 
  59      E705B2
  60 0209 E75DE91C 		.ascii	"\347]\351\034\257\353\203N\327#N\236c\357\177.`v\256"
  60      AFEB834E 
  60      D7234E9E 
  60      63EF7F2E 
  60      6076AE
  61 021c 226461E1 		.ascii	"\"da\341]\270C\375/\"\220\274\007\212A#\3468\273\324"
  61      5DB843FD 
  61      2F2290BC 
  61      078A4123 
  61      E638BBD4 
  62 0230 6C4787D2 		.ascii	"lG\207\322\305\314\247\371\200\033\006|F;\270\213t\315"
  62      C5CCA7F9 
  62      801B067C 
  62      463BB88B 
  62      74CD
  63 0242 8B258788 		.ascii	"\213%\207\210[\256\345\360\337\325Z\015\225eU\353A\270"
  63      5BAEE5F0 
  63      DFD55A0D 
  63      956555EB 
  63      41B8
  64 0254 D41F84F5 		.ascii	"\324\037\204\365\262\375\310*[\000\234y\010\322\233"
  64      B2FDC82A 
  64      5B009C79 
  64      08D29B
  65 0263 EB556EFC 		.ascii	"\353Un\374\237\225S\227Ww\306e\032\236/\372\227_\326"
  65      9F955397 
  65      5777C665 
  65      1A9E2FFA 
  65      975FD6
  66 0276 E8103C11 		.ascii	"\350\020<\021}r\314\011\364\216\376\221$i'\337\017\200"
ARM GAS  /tmp/ccxDmDcp.s 			page 5


  66      7D72CC09 
  66      F48EFE91 
  66      246927DF 
  66      0F80
  67 0288 6EEA6CE4 		.ascii	"n\352l\344i1e\242\215\214\347\313\371C\351HF*\253\254"
  67      693165A2 
  67      8D8CE7CB 
  67      F943E948 
  67      462AABAC 
  68 029c 34D52F6E 		.ascii	"4\325/n\233\311\224i'\271\311[\232\332[\033b\026\257"
  68      9BC99469 
  68      27B9C95B 
  68      9ADA5B1B 
  68      6216AF
  69 02af E4C05209 		.ascii	"\344\300R\011\355\234\235`\251\246\003\331H\036\217"
  69      ED9C9D60 
  69      A9A603D9 
  69      481E8F
  70 02be C5E2AD66 		.ascii	"\305\342\255f\264-eV\325\324V\327\232V+?}\246)j\362"
  70      B42D6556 
  70      D5D456D7 
  70      9A562B3F 
  70      7DA6296A 
  71 02d3 986DD9F5 		.ascii	"\230m\331\365\315\234W\266\300\376-,\022\361d\3126\217"
  71      CD9C57B6 
  71      C0FE2D2C 
  71      12F164CA 
  71      368F
  72 02e5 1EAFA9AA 		.ascii	"\036\257\251\252i\243@<\236\214\326\237=\034#\364f&"
  72      69A3403C 
  72      9E8CD69F 
  72      3D1C23F4 
  72      6626
  73 02f7 BEC716BB 		.ascii	"\276\307\026\273\335\246\363 O\330VS\271\005\201X4\026"
  73      DDA6F320 
  73      4FD85653 
  73      B9058158 
  73      3416
  74 0309 4FB62B45 		.ascii	"O\266+E\224\024\177\000\2113V\036"
  74      94147F00 
  74      8933561E 
  75              		.text
  76              		.section	.gnu.lto_chThdCreateFromMemoryPool.80d5c452cf215786,"",%progbits
  77 0000 789C8D54 		.ascii	"x\234\215T]HTQ\020\2369\367\356\256\271nj\245\031\224"
  77      5D485451 
  77      109E39F7 
  77      EEAEB96E 
  77      6AA51994 
  78 0014 8A105492 		.ascii	"\212\020T\222\227(z.|\222\360%\023\352I\364\270\344"
  78      97287A2E 
  78      7C92F025 
  78      13EA49F4 
  78      B8E4
  79 0026 85AE2B7B 		.ascii	"\205\256+{\267R\"<\376\004V\006\022AV\224JD \222PD\022"
  79      B752223C 
  79      FE045606 
  79      12415694 
ARM GAS  /tmp/ccxDmDcp.s 			page 6


  79      4A442092 
  80 003d 045B64A4 		.ascii	"\004[d\244e\321C\204a\341\213\224DAH`\031\332\234s\177"
  80      65D14384 
  80      61E18B94 
  80      44414860 
  80      19DA9C73 
  81 0052 5A75832E 		.ascii	"Zu\203.\273\347\354\314\375\276\231o\346\314Y\006\014"
  81      BBE7ECCC 
  81      FDBE996F 
  81      E6CC5906 
  81      0C
  82 0063 563EBBE9 		.ascii	"V>\273\351[\020\000\030\245\035\003\200\254\347\025"
  82      5B100018 
  82      A51D0380 
  82      ACE715
  83 0072 405B0663 		.ascii	"@[\006c\372\270\006\"S{6\016 \2624\324\035\277\216("
  83      FAB80622 
  83      537B360E 
  83      20B234D4 
  83      1DBF8E28 
  84 0086 7F00422B 		.ascii	"\177\000B+\323tl=\2022\210V\002\003B\\\234\236\031\234"
  84      D3746C3D 
  84      82328856 
  84      0203425C 
  84      9C9E199C 
  85 009a C52B22D9 		.ascii	"\305+\"\331\331/~/-!\232H\011K\0208\302a2\260XmL_\256"
  85      D92F7E2F 
  85      2D219A48 
  85      094B1038 
  85      C26132B0 
  86 00b3 C0E12627 		.ascii	"\300\341&'\307\2737\211\376\366\036\261HT\0235\006["
  86      C7BB3789 
  86      FEF61EB1 
  86      48541335 
  86      065B
  87 00c5 FF8799EC 		.ascii	"\377\207\231\354I.\214_\306\024\246\316`\373_f\322\331"
  87      492E8C5F 
  87      C614A6CE 
  87      60FB5F66 
  87      D2D9
  88 00d7 59C172EA 		.ascii	"Y\301r\3520KN/-\015\275\375\334=\205w\330\026\004\322"
  88      304B4E2F 
  88      2D0DBDFD 
  88      DC3D8577 
  88      D81604D2 
  89 00eb AAA38510 		.ascii	"\252\243\205\020\204Z\274\211%\020\"\0033\311\035\010"
  89      845ABC89 
  89      25102203 
  89      33C91D08 
  90 00fb D3128C90 		.ascii	"\323\022\214\220\311\262i\321ri\321\363\0105@(z\002"
  90      C9B269D1 
  90      7269D1F3 
  90      08354028 
  90      7A02
  91 010d D029444F 		.ascii	"\320)DO\261c;\\\013\003\265xK\275\346\252?\207h\225"
  91      B1633B5C 
  91      0B03B578 
ARM GAS  /tmp/ccxDmDcp.s 			page 7


  91      4BBDE6AA 
  91      3F876895 
  92 0121 6DAB4626 		.ascii	"m\253F&w\3555tN\217\314`-\336\246\226\037\305\340)\370"
  92      77ED3574 
  92      4E8FCC60 
  92      2DDEA696 
  92      1FC5E029 
  93 0136 25BA448E 		.ascii	"%\272D\216\211!\216\212@N\335\304\014\2001`\016\312"
  93      89218E8A 
  93      404EDDC4 
  93      0C803160 
  93      0ECA
  94 0148 894C5880 		.ascii	"\211LX\200\347\360\364\323\343\271s\232O\227\005j\251"
  94      E7F0F4D3 
  94      E3B9739A 
  94      4F97056A 
  94      A9
  95 0159 D5559349 		.ascii	"\325U\223I\007\247M@\373\213\221\341\237n\210R\030\024"
  95      07A74D40 
  95      FB8B91E1 
  95      9F6E8852 
  95      1814
  96 016b 426659E3 		.ascii	"BfY\343\250\253sRQ\204\020\000A+V\300\202\036\314\223"
  96      A8AB7352 
  96      51841000 
  96      412B56C0 
  96      821ECC93 
  97 017f 1454B0F7 		.ascii	"\024T\260\367\275w'u/wf)\35401\363\032\\m#R\037\011"
  97      BD772775 
  97      2F776629 
  97      EC3031F3 
  97      1A5C6D23 
  98 0196 09937429 		.ascii	"\011\223t)(K\221\352\320\033\271\011\3508\337\221\357"
  98      284B91EA 
  98      D01BB909 
  98      E838DF91 
  98      EF
  99 01a7 F1081524 		.ascii	"\361\010\025$\266\0128\226F\242\237[ss\207\025\364\300"
  99      B60A3896 
  99      46A29F5B 
  99      73738715 
  99      F4C0
 100 01b9 0A58C483 		.ascii	"\012X\304\203\351.,\222\026\266\326\203\005\\XvZ\230"
 100      E92E2C92 
 100      16B6D683 
 100      055C5876 
 100      5A98
 101 01cb E6C1822E 		.ascii	"\346\301\202.,\027\340\025\264}\237\272\361\014\335"
 101      2C17E015 
 101      B47D9FBA 
 101      F10CDD
 102 01da 63F6CE3B 		.ascii	"c\366\316;\271p\341kx\233o\315]\232\017o\366\255\261"
 102      B970E16B 
 102      789B6FCD 
 102      5D9A0F6F 
 102      F6ADB1
 103 01ed 6F54B413 		.ascii	"oT\264\023\233S\375\234\212\340\256B\2728Cd\252\246"
ARM GAS  /tmp/ccxDmDcp.s 			page 8


 103      9B53FD9C 
 103      8AE0AE42 
 103      BA384364 
 103      AAA6
 104 01ff 14C27DBC 		.ascii	"\024\302}\274.z\367\231R\216|\344X|\034\365\307\"\317"
 104      2E7AF799 
 104      528E7CE4 
 104      587C1CF5 
 104      C722CF
 105 0212 1F8B1CEE 		.ascii	"\037\213\034\356*\227\036zN\233\230\353hu\2604\241\353"
 105      2A971E7A 
 105      4E9B98EB 
 105      6875B034 
 105      A1EB
 106 0224 E4ACB427 		.ascii	"\344\254\264'\203\336\264\014\250i\311Su\216\314?\230"
 106      83DEB40C 
 106      A869C953 
 106      758ECC3F 
 106      98
 107 0235 C5D45A45 		.ascii	"\305\324ZE\330\304\365tftL\033\010$\217\013\334\343"
 107      D8C4F574 
 107      66744C1B 
 107      08248F0B 
 107      DCE3
 108 0247 0AA95D7A 		.ascii	"\012\251]z\362\230:\265\366\027\275\017W\263\265\364"
 108      F2983AB5 
 108      F617BD0F 
 108      57B3B5F4 
 109 0257 EC0C6F78 		.ascii	"\354\014oxe1g\246ggB\256@\360k\311\347~{\025u\243T_"
 109      653167A6 
 109      676742AE 
 109      40F06BC9 
 109      E77E7B15 
 110 026f E0367A3E 		.ascii	"\3406z>\262\272\317\213\341\242\224>\367E\012\375;\347"
 110      B2BACF8B 
 110      E1A2943E 
 110      F7450AFD 
 110      3BE7
 111 0281 BBCFFE48 		.ascii	"\273\317\376Hi\270\252\200\223\024\216k\274\236?\372"
 111      69B8AA80 
 111      93148E6B 
 111      BC9E3FFA 
 112 0291 67CF9DEB 		.ascii	"g\317\235\353\242\253k9\001O\276\370\327Mvw\017\334"
 112      A2AB6B39 
 112      014FBEF8 
 112      D74D7677 
 112      0FDC
 113 02a3 135DF22F 		.ascii	"\023]\362/\205@o\350\337O\212V\265N\002\272e\263\241"
 113      85406FE8 
 113      DF4F8A56 
 113      B54E02BA 
 113      65B3A1
 114 02b6 77B209DA 		.ascii	"w\262\011\332\313\017Y\362\236\243\014$3\025\225\225"
 114      CB0F59F2 
 114      9EA30C24 
 114      33159595 
 115 02c6 19CE2766 		.ascii	"\031\316'f\033\361\204a\307\271\301\033\352[\032k-\223"
ARM GAS  /tmp/ccxDmDcp.s 			page 9


 115      1BF18461 
 115      C7B9C11B 
 115      EA5B1A6B 
 115      2D93
 116 02d8 97716089 		.ascii	"\227q`\211&\355\244\335\304\022\365\273R\221<fY\261"
 116      26EDA4DD 
 116      C412F5BB 
 116      52913C66 
 116      59B1
 117 02ea 4623DA9C 		.ascii	"F#\332\2340\312+\253*\252\014\263\221\037;^\0375\270"
 117      30CA2BAB 
 117      2AAA0CB3 
 117      911F3B5E 
 117      1F35B8
 118 02fd 659B76CD 		.ascii	"e\233v\315Q\316\313\032`g\032FS,\236\260\215\375\007"
 118      51CECB1A 
 118      60671A46 
 118      532C9EB0 
 118      8DFD07
 119 0310 2BCB2B9B 		.ascii	"+\313+\233)\021\217\305\2435'\366Z\204^\251\304\217"
 119      29118FC5 
 119      A33527F6 
 119      5A845EA9 
 119      C48F
 120 0322 D860B7D8 		.ascii	"\330`\267\330\364>\2037\331f}\261\011!+j\305\342-\216"
 120      F43E8337 
 120      D9667DB1 
 120      09212B6A 
 120      C5E22D8E 
 121 0336 234A8E3F 		.ascii	"#J\216?\340\035mV"
 121      E01D6D56 
 122              		.text
 123              		.section	.gnu.lto_.symbol_nodes.80d5c452cf215786,"",%progbits
 124 0000 789C45CD 		.ascii	"x\234E\315\313\011\2000\020\004\320\231\215i#\255n "
 124      CB098030 
 124      1004D099 
 124      8D6923AD 
 124      6E20
 125 0012 A0E2C98B 		.ascii	"\240\342\311\213?\004\233\361n\015\202uD\014F\314^\206"
 125      3F049BF1 
 125      6E0D8275 
 125      440C46CC 
 125      5E86
 126 0024 37735881 		.ascii	"7sX\201\240\305w2P\201\376\000T\267\2262RY\310\205*"
 126      A0C57732 
 126      5081FE00 
 126      54B79632 
 126      5259C885 
 127 0039 99DE9333 		.ascii	"\231\336\2233\325\024M\324\252h\245\332_\006\025\302"
 127      D5144DD4 
 127      AA68A5DA 
 127      5F0615C2 
 128 0049 79A734B8 		.ascii	"y\2474\270\352\350Lz\2717)is\237\226\360Z\020\272\350"
 128      EAE84C7A 
 128      B9372969 
 128      739F96F0 
 128      5A10BAE8 
ARM GAS  /tmp/ccxDmDcp.s 			page 10


 129 005d F000C2D6 		.ascii	"\360\000\302\326'\322"
 129      27D2
 130              		.text
 131              		.section	.gnu.lto_.refs.80d5c452cf215786,"",%progbits
 132 0000 789C6362 		.ascii	"x\234cb`b`d\200\002\000\000F\000\006"
 132      60626064 
 132      80020000 
 132      460006
 133              		.text
 134              		.section	.gnu.lto_.decls.80d5c452cf215786,"",%progbits
 135 0000 789CBD5B 		.ascii	"x\234\275[{t\024\325\031\237;\263\273\311\222\210\257"
 135      7B7414D5 
 135      199F3BB3 
 135      BBC99288 
 135      AF
 136 0011 A327F4E8 		.ascii	"\243'\364\3501\266\332ci%\330\252\245=\255\217CO\321"
 136      31B6DA63 
 136      6925D8AA 
 136      A53DAD8F 
 136      434FD1
 137 0024 736A4F4F 		.ascii	"sjOO\251\247\355?]\207\315\220l\311>\234\231\030\350"
 137      A9A7ED3F 
 137      5D87CD90 
 137      6CC93E9C 
 137      9918E8
 138 0037 3F0EC112 		.ascii	"?\016\301\022\264\332\274D@\010\006\010-\012\026AE\020"
 138      B4DABC44 
 138      40080608 
 138      2D0A1641 
 138      4510
 139 0049 8AEB2321 		.ascii	"\212\353#!&4@\"bTdA\036\312A\236b\210\210\351w\277\231"
 139      26344022 
 139      62546441 
 139      1ECA419E 
 139      628888E9 
 140 0060 D99DB93B 		.ascii	"\331\235\271;\263;\033j\347\344\336y\335\357\367}\367"
 140      B33B1B6A 
 140      E7E4DE79 
 140      DDEFF77D 
 140      F7
 141 0071 7BDDC76C 		.ascii	"{\335\307lx\216\347|<\307\215\300q\364\307\034\367h"
 141      788EE77C 
 141      3CC78DC0 
 141      71F4C71C 
 141      F768
 142 0083 80E3048E 		.ascii	"\200\343\004\216\343\356\340\3643\201\002\2178?\247"
 142      E3EEE0F4 
 142      3381028F 
 142      383FA7
 143 0092 1FF47A19 		.ascii	"\037\364z\031-\360\3425(oAy\017\312G\204\313:h\273\253"
 143      2DF0E235 
 143      286F4179 
 143      0FCA4784 
 143      CB3A68BB 
 144 00a7 A1AC8032 		.ascii	"\241\254\2002\026J)\224;\241\364@\333\343p>@t\334A8"
 144      164A2994 
 144      3BA1F440 
ARM GAS  /tmp/ccxDmDcp.s 			page 11


 144      DBE3703E 
 144      4074DC41 
 145 00bc 1F81F346 		.ascii	"\037\201\363F(\215p\3751\224CP\016C\351\244m\240t\030"
 145      288D70FD 
 145      31944350 
 145      0E43E9A4 
 145      6DA07418 
 146 00d0 B21C21BA 		.ascii	"\262\034!\272\014I8\027\301\371?p\356\203\262\023J?"
 146      0C493817 
 146      C1F93F70 
 146      EE83B213 
 146      4A3F
 147 00e2 940128BB 		.ascii	"\224\001(\273\241\370\240\2141d\240\362}\002\345\030"
 147      A1F8A08C 
 147      3164A0F2 
 147      7D02E518 
 148 00f2 941386CC 		.ascii	"\224\023\206\314T\366\317\241\014A\371\322\300\\\000"
 148      54F6CFA1 
 148      0C41F9D2 
 148      C05C00
 149 0101 E745509E 		.ascii	"\347EP\236\206\262\030\312\022(K\231~\321~\217s\351"
 149      86B218CA 
 149      12284B99 
 149      7ED17E8F 
 149      73E9
 150 0113 13ED0BED 		.ascii	"\023\355\013\355\327\327p\275\317\350S\025\234WR\371"
 150      D7D770BD 
 150      CFE85315 
 150      9C5752F9 
 151 0123 49E1FD0B 		.ascii	"I\341\375\013Z\372\367\202K\037\377h\366\323\260\201"
 151      5AFAF782 
 151      4B1FFF68 
 151      F6D3B081 
 152 0133 977E6E84 		.ascii	"\227~n\204\363\253P6C\331\002\345\337PF\230~^\307-\325"
 152      F3AB5036 
 152      43D902E5 
 152      DF504698 
 152      7E5EC72D 
 153 0148 DA53A9CE 		.ascii	"\332S\251\316\243\357\221EZ\362\021md\344a\260\345|"
 153      A3EF9145 
 153      5AF2116D 
 153      64E461B0 
 153      E57C
 154 015a 0D8EF6B9 		.ascii	"\015\216\366\271\232F\324\022\3561M\253\2477\367t\217"
 154      9A46D412 
 154      EE314DAB 
 154      A737F774 
 154      8F
 155 016b BD826BA6 		.ascii	"\275\202k\246o\312\273A%\177 \"\031\033\344\332}xU\032"
 155      6FCABB41 
 155      257F2022 
 155      191BE4DA 
 155      7D78551A 
 156 017f E47E0170 		.ascii	"\344~\001p7r\035\232\326\224\232\177a@\320\264b\221"
 156      37721D9A 
 156      D6949A7F 
 156      6140D0B4 
ARM GAS  /tmp/ccxDmDcp.s 			page 12


 156      6291
 157 0191 74902BC0 		.ascii	"t\220+\300\361\246\020n<\367,\0206\001\324x\007\017"
 157      F1A6106E 
 157      3CF72C10 
 157      3601D478 
 157      070F
 158 01a3 E2F202F3 		.ascii	"\342\362\002\363\334\357\011'\222U\200'\222\177\222"
 158      DCEF0927 
 158      92558027 
 158      927F92
 159 01b2 F13A272D 		.ascii	"\361:'-\325\332\260\267\236\314\006A\365w\234\361\326"
 159      D5DAB0B7 
 159      9ECC0641 
 159      F5779CF1 
 159      D6
 160 01c3 E1B89E6B 		.ascii	"\341\270\236k\007\202\344P\317\022\242\265\277A\034"
 160      0782E450 
 160      CF12A2B5 
 160      BF411C
 161 01d2 38DE6532 		.ascii	"8\336e2,\266\364d\331\023\367bO\326`O\352\011\261q0"
 161      2CB6F464 
 161      D913F762 
 161      4FD6604F 
 161      EA09B171 
 162 01e7 50DAEF72 		.ascii	"P\332\357r\203\341\271\026$Y\233%\370\266\035\246\340"
 162      83E1B916 
 162      24599B25 
 162      F8B61DA6 
 162      E0
 163 01f8 6B3D085E 		.ascii	"k=\010^\237\334\365X\3338*\270HV\220\022\300]\221\306"
 163      9FDCF558 
 163      DB382AB8 
 163      48569012 
 163      C05D91C6 
 164 020c 35F8969B 		.ascii	"5\370\226\233|}\034g^\352\207\321\300\216\327\337S\332"
 164      7C7D1C67 
 164      5EEA87D1 
 164      C08ED7DF 
 164      53DA
 165 021e 249A60AB 		.ascii	"$\232`\253\012\006+w\022U?\254\275\025\311:r#\324\353"
 165      0A062B77 
 165      12553FAC 
 165      BD15C93A 
 165      7223D4EB 
 166 0232 C9F550BF 		.ascii	"\311\365P\277\004u\372\340\271\347\211iS'\325\345\357"
 166      0475FAE0 
 166      B9E78969 
 166      5327D5E5 
 166      EF
 167 0243 C270CF12 		.ascii	"\302p\317\022TI\220\233\227\361Q\316\261\013\2069\367"
 167      5449909B 
 167      97F151CE 
 167      B10B8639 
 167      F7
 168 0254 FCEDAD5D 		.ascii	"\374\355\255]d\016j}#\220\361\020Cv\203z\207\032l\354"
 168      640E6A7D 
 168      2390F110 
ARM GAS  /tmp/ccxDmDcp.s 			page 13


 168      4376837A 
 168      871A6CEC 
 169 0268 7C9DD423 		.ascii	"|\235\324#\324f\204j\341G\0135\324\377V\263!\325V\204"
 169      D466846A 
 169      E1470B35 
 169      D4FF56B3 
 169      21D55684 
 170 027c 7A9B8112 		.ascii	"z\233\201\022IQ\272\357\351{\263\001\305\303\327\306"
 170      4951BAEF 
 170      E97BB301 
 170      C5C3D7C6 
 171 028c 054DF197 		.ascii	"\005M\361\227r\337ps\236{\207g\214\347\3442\305n\306"
 171      72DF7073 
 171      9E7B8767 
 171      8CE7E432 
 171      C56EC6
 172 029f D3522DDB 		.ascii	"\323R-\333>\342i\312\021\314\030\012\270i\211\347\006"
 172      3EE269CA 
 172      11CC180A 
 172      B86989E7 
 172      06
 173 02b0 91D79B6C 		.ascii	"\221\327\233l\014\265\355\331n\306\320\233\236b\350"
 173      0CB5EDD9 
 173      6EC6D09B 
 173      9E62E8
 174 02bf E59E05E8 		.ascii	"\345\236\005\3500y\223\032o\362\277\001\3717\011\224"
 174      3079931A 
 174      6FF2BF01 
 174      F9370994 
 175 02cf 7F37CB7F 		.ascii	"\1777\313\177\370\375\3169\006\377nO\374\027\365=\231"
 175      F8FDCE39 
 175      06FF6E4F 
 175      FC17F53D 
 175      99
 176 02e0 CD5F2477 		.ascii	"\315_$w\\\225\313;\332\366\034>ep\331\216\301\332#\260"
 176      5C95CB3B 
 176      DAF61C3E 
 176      6570D98E 
 176      C1DA23B0 
 177 02f4 DE716789 		.ascii	"\336qg\211\335~poi\300s\003i\371G\225+\240\243]\255"
 177      DD7E706F 
 177      69C07303 
 177      69F94795 
 177      2BA0A35D 
 178 0309 A4658ED6 		.ascii	"\244e\216\326=\321\224\341\335\202\021\313m\232X\322"
 178      3DD194E1 
 178      DD8211CB 
 178      6D9A58D2 
 179 0319 87D94707 		.ascii	"\207\331G\007\033\364\002\346\352J\365\311\245V\260"
 179      1BF402E6 
 179      EA4AF5C9 
 179      A556B0
 180 0328 BD0583D9 		.ascii	"\275\005\203\331%{\301\012\266\337\013\330e\356\222"
 180      257BC10A 
 180      B6DF0BD8 
 180      65EE92
 181 0337 ADB7821D 		.ascii	"\255\267\202\035,\030\314.\331KV\260#^\300\312\334%"
ARM GAS  /tmp/ccxDmDcp.s 			page 14


 181      2C18CC2E 
 181      D94B56B0 
 181      235EC0CA 
 181      DC25
 182 0349 DB60053B 		.ascii	"\333`\005;Z0\230]\262\215V\260\317\274\200\225;H\226"
 182      5A30985D 
 182      B28D56B0 
 182      CFBC8095 
 182      3B4896
 183 035c 3E9CE8A8 		.ascii	">\234\350\250[o#i?\347\271\223\202\231\023\012\364i"
 183      5B6F2369 
 183      3FE7B993 
 183      8299130A 
 183      F469
 184 036e 2E837146 		.ascii	".\203qF(4\207\331\372\015\203\370\276\345\244U\217\013"
 184      283487D9 
 184      FA0D83F8 
 184      BEE5A455 
 184      8F0B
 185 0380 7D201DF2 		.ascii	"} \035\362\202\230\303a\232z-\243\362\205\202\301\354"
 185      8298C361 
 185      9A7A2DA3 
 185      F28582C1 
 185      EC
 186 0391 66594AC1 		.ascii	"fYJ\301l\271\306\030\223R+\223e\0133\351\256\330\304"
 186      6CB9C618 
 186      93522B93 
 186      650B33E9 
 186      AED8C4
 187 03a4 A253333D 		.ascii	"\242S3=\267\301L\215O7\326\312\312\234\333\212\344S"
 187      B7C14C8D 
 187      4F37D6CA 
 187      CA9CDB8A 
 187      E453
 188 03b6 1CDD8F92 		.ascii	"\034\335\217\222`Z\012\375\332\274\242\363M\236\233"
 188      605A0AFD 
 188      DABCA2F3 
 188      4D9E9B
 189 03c5 E3739AF4 		.ascii	"\343s\232\364!@nR7O8b\365\204y>\017j\312\021\012;\335"
 189      21406E52 
 189      374F3862 
 189      F584793E 
 189      0F6ACA11 
 190 03dc D4949CAB 		.ascii	"\324\224\234\253\315#\263\327]\223s\206\330\266\347"
 190      CD23B3D7 
 190      5D937386 
 190      D8B6E7
 191 03eb F832631E 		.ascii	"\3702c\036p\002\007\357'|\216\363\000O`\203\215;\314"
 191      700207EF 
 191      277C8EF3 
 191      004F6083 
 191      8D3BCC
 192 03fe 49C56904 		.ascii	"I\305i\004[x\021`C\375{\315i\305Y\004[\346c\007\216"
 192      5B781160 
 192      43FD7BCD 
 192      69C55904 
 192      5BE66307 
ARM GAS  /tmp/ccxDmDcp.s 			page 15


 193 0413 2033AD08 		.ascii	" 3\255\010\332\007\376`0s1b\036vS~\2434n\346?n5\377"
 193      DA07FE60 
 193      30733162 
 193      1E76537E 
 193      A3346EE6 
 194 042b 9A82CD6F 		.ascii	"\232\202\315o\213\022\230\210|\301/\320\222\263\005"
 194      8B129888 
 194      7CC12FD0 
 194      92B305
 195 043a 8BBFE70C 		.ascii	"\213\277\347\014\016\230F\366n\3759\256\012\276D\275"
 195      0E9846F6 
 195      6EFD39AE 
 195      0ABE44BD 
 196 044a BEE86C24 		.ascii	"\276\350l$\017@\203\215\317\177\037\201. \320\226Q\003"
 196      0F40838D 
 196      CF7F1F81 
 196      2E20D096 
 196      5103
 197 045c 0DF52F9D 		.ascii	"\015\365/\235\204@4ly\356\255,K\023\306\322\304n\201"
 197      8440346C 
 197      79EEAD2C 
 197      4B13C6D2 
 197      C46E81
 198 046f 74E41981 		.ascii	"t\344\031\201\367M\265\345\271>\326\\\266\356\344\030"
 198      F74DB5E5 
 198      B93ED65C 
 198      B6EEE418 
 199 047f 1ED239F7 		.ascii	"\036\3229\367\253\026r\246^[8\261\000{\375\315\260\327"
 199      AB1672A6 
 199      5E5B38B1 
 199      007BFDCD 
 199      B0D7
 200 0491 5F513BEF 		.ascii	"_Q;\357di\347B\201\352\341\271\017\013\356F\261\275"
 200      6469E742 
 200      81EAE1B9 
 200      0F0BEE46 
 200      B1BD
 201 04a3 1B0D23A3 		.ascii	"\033\015#\243\350\306kz7\036\303n\034\370\037t\343h"
 201      E8C66B7A 
 201      371EC36E 
 201      1CF81F74 
 201      E368
 202 04b5 C1DDB8CC 		.ascii	"\301\335\270\314\322\015\\\306>\251\217\200Wr-\271\247"
 202      D20D5CC6 
 202      3EA98F80 
 202      57722DB9 
 202      A7
 203 04c6 F1549E46 		.ascii	"\361T\236F\376J\333\024:\271\273\217\224\353\217\363"
 203      FE4ADB14 
 203      3AB9BB8F 
 203      94EB8FF3 
 204 04d6 2FDDCFF4 		.ascii	"/\335\317\364Y\226{\232\247\345^oz\271\327\202*;\341"
 204      59967B9A 
 204      A7E55E6F 
 204      7AB9D782 
 204      2A3BE1
 205 04e9 14605EA0 		.ascii	"\024`^\240\332\007w\\\245\371D2\037a\316\216\026\006"
ARM GAS  /tmp/ccxDmDcp.s 			page 16


 205      DA07775C 
 205      A5F94432 
 205      1F61CE8E 
 205      1606
 206 04fb E2F4353D 		.ascii	"\342\3645=N\027\"\320\205,\023\006\030\013\006\354\026"
 206      4E1722D0 
 206      852C1306 
 206      180B06EC 
 206      16
 207 050c 845BCAE9 		.ascii	"\204[\312\351\034&\310\207\215'\364\246\210\373\277"
 207      1C26C887 
 207      8D27F4A6 
 207      88FBBF
 208 051b D3F15C83 		.ascii	"\323\361\\\203\237\030F-p\016fzO\303\301Vs\376\244\033"
 208      9F18462D 
 208      700E667A 
 208      4FC3C156 
 208      73FEA41B 
 209 052f E8EF1785 		.ascii	"\350\357\027\205X\237|\246\321\334%\271\223\316\240"
 209      589F7CA6 
 209      D1DC25B9 
 209      93CEA0
 210 053e 165C24DC 		.ascii	"\026\\$\334\226\035\354\324\200Y\272u\270\014;\346\366"
 210      961DECD4 
 210      8059BA75 
 210      B80C3BE6 
 210      F6
 211 054f D1BAC77F 		.ascii	"\321\272\307\177\200\346^\316Sq\226\372Ys\257 \314\322"
 211      80E65ECE 
 211      537196FA 
 211      5973AF20 
 211      CCD2
 212 0561 8D3EB034 		.ascii	"\215>\2604q\013\244e\274e\004\\w\261f\330v\2261\303"
 212      710BA465 
 212      BC65045C 
 212      77B166D8 
 212      769631C3 
 213 0575 2B17A9B7 		.ascii	"+\027\251\267a\303\014\371\026\332\017\230X\245\330"
 213      61C30CF9 
 213      16DA0F98 
 213      58A5D8
 214 0584 91D790ED 		.ascii	"\221\327\220\355s<\263\316\336t<5\327\230\025\321w\371"
 214      733CB3CE 
 214      DE743C35 
 214      D79815D1 
 214      77F9
 215 0596 33C50787 		.ascii	"3\305\007\207\202ZK\251\276i'\222\015\2047P\235&Ky\325"
 215      825A4BA9 
 215      BE692792 
 215      0D843750 
 215      9D264B79 
 216 05ab 93FC48EA 		.ascii	"\223\374H\352\236XH\316\3512s\316Z\324\345\261,\243"
 216      9E5848CE 
 216      E93273CE 
 216      5AD4E5B1 
 216      2CA3
 217 05bd D3246233 		.ascii	"\323$b3zAAw:\255$\257\213\026\366ps\252g\255N\365\305"
ARM GAS  /tmp/ccxDmDcp.s 			page 17


 217      7A414177 
 217      3AAD24AF 
 217      8B16F670 
 217      73AA67AD 
 218 05d4 C5B90038 		.ascii	"\305\271\0008UW\207\356T\371\234@#\326\265\014$E\344"
 218      555787EE 
 218      54F99C40 
 218      23D6B50C 
 218      2445E4
 219 05e7 BC81F582 		.ascii	"\274\201\365\202\266\323\335\015\306>\310\006O^p\326"
 219      B6D3DD0D 
 219      C63EC806 
 219      4F5E70D6 
 220 05f7 C10B368C 		.ascii	"\301\0136\214\322\013\300\245?}\233 \234\2766\373G\200"
 220      D20BC0A5 
 220      3F7D9B20 
 220      9CBE36FB 
 220      4780
 221 0609 D8E1BC5A 		.ascii	"\330\341\274Z\301\200\373J*T1\272\177%\007\017\321\021"
 221      C180FB4A 
 221      2A5431BA 
 221      7F25070F 
 221      D111
 222 061b 732B4FB7 		.ascii	"s+O\267\243\327\004X\327\3225cq\255\214\032E\262\221"
 222      A3D70458 
 222      D7D23563 
 222      71AD8C1A 
 222      45B291
 223 062e A78BB54D 		.ascii	"\247\213\265M<\335\212}\025\353-\274eC\326\315-\376"
 223      3CDD8A7D 
 223      15EB2DBC 
 223      6543D6CD 
 223      2DFE
 224 0640 9D710B91 		.ascii	"\235q\013\221\274\310\252\321\353\2229/\233\227\255"
 224      BCC8AAD1 
 224      EB92392F 
 224      9B97AD
 225 064f DEF752E0 		.ascii	"\336\367R\340\342\274\257e[\237\017w\027\013\330\033"
 225      E2BCAF65 
 225      5B9F0F77 
 225      170BD81B 
 226 065f EEED3403 		.ascii	"\356\3554\003\367M\014\334\315Y\332\335\314\316\257"
 226      F74D0CDC 
 226      CD59DADD 
 226      CCCEAF
 227 066e BC6C946E 		.ascii	"\274l\224n\033mW\322\007L\232\003\036\3268\345\016Z"
 227      1B6D57D2 
 227      074C9A03 
 227      1ED638E5 
 227      0E5A
 228 0680 4F0FB4EF 		.ascii	"O\017\264\357\032\323\264\274\273\255\346\310u\350\361"
 228      1AD3B4BC 
 228      BBADE6C8 
 228      75E8F1
 229 068f 7B70E47A 		.ascii	"{p\344z\033=m'\243\013\017\233\266\373\220d;\033\306"
 229      1B3D6D27 
 229      A30B0F9B 
ARM GAS  /tmp/ccxDmDcp.s 			page 18


 229      B6FB9064 
 229      3B1BC6
 230 06a2 AD0DE94D 		.ascii	"\255\015\351M\333\355\036\302\270>\371\242\355\303\207"
 230      DBED1EC2 
 230      B83EF9A2 
 230      EDC387
 231 06b1 E981DB73 		.ascii	"\351\201\333s{`N}\332L\270\335\022 }\030 ;\254A\001"
 231      7B604E7D 
 231      DA4CB8DD 
 231      12207D18 
 231      203BAC41 
 232 06c6 73462FBA 		.ascii	"sF/\272\277\311\315\025!\015\365\353_\234\314oHC,\236"
 232      BFC9CD15 
 232      210DF5EB 
 232      5F9CCC6F 
 232      48432C9E 
 233 06da 5322B2E1 		.ascii	"S\"\262\341YmY\237l\032\300-\"\335G\265\"\017\302Mt"
 233      596D599F 
 233      6C1AC02D 
 233      22DD47B5 
 233      220FC24D 
 234 06ef 077BA6D5 		.ascii	"\007{\246\325T\356\3138Cy\324\013\336$\267\316\326'"
 234      54EECB38 
 234      4379D40B 
 234      DE24B7CE 
 234      D627
 235 0701 5F195862 		.ascii	"_\031Xb\340\351\337W\232\013\306\263\313\267\273\325"
 235      E0E9DF57 
 235      9A0BC6B3 
 235      CBB7BBD5 
 236 0711 369F7BDA 		.ascii	"6\237{\332\013\334]\236m\237\371\234\010\003*\356d\255"
 236      0BDC5D9E 
 236      6D9FF99C 
 236      08032AEE 
 236      64AD
 237 0723 C6EF54AF 		.ascii	"\306\357T\257`\375\006\326\007\260>\210\365a\254?\303"
 237      60FD06D6 
 237      07B03E88 
 237      F561AC3F 
 237      C3
 238 0734 7A18EB47 		.ascii	"z\030\353G0\215>\212\365\337\261\356\306z\027\326\003"
 238      308D3E8A 
 238      F5DFB1EE 
 238      C67A17D6 
 238      03
 239 0745 58EFC67A 		.ascii	"X\357\306z\017\326\203^\022\256\3079\340rr5^\011\240"
 239      0FD6835E 
 239      12AEC739 
 239      E0727235 
 239      5E09A0
 240 0758 18381C47 		.ascii	"\0308\034G\223y\037g\266Q\264\364W\015\252c#\316\233"
 240      93791F67 
 240      B651B4F4 
 240      570DAA63 
 240      23CE9B
 241 076b CF27C76D 		.ascii	"\317'\307m\321\264\313D\262\027\003\275\267\3101\320"
 241      D1B4CB44 
ARM GAS  /tmp/ccxDmDcp.s 			page 19


 241      B21703BD 
 241      B7C831D0 
 242 077b 7300F1DC 		.ascii	"s\000\361\334 \322\244\230HO\2666\224\322%S\312S\224"
 242      20D2A498 
 242      484FB636 
 242      94D22553 
 242      CA5394
 243 078e CFDFB624 		.ascii	"\317\337\266${\306h\373\022\215.\340\246\213C\274M\027"
 243      7BC668FB 
 243      128D2EE0 
 243      A68B43BC 
 243      4D17
 244 07a0 DEB3FEE2 		.ascii	"\336\263\376\342\221\324O\327b\377\217`@=U\314&}?\223"
 244      91D44FD7 
 244      62FF8F60 
 244      403D55CC 
 244      267D3F93 
 245 07b4 F3FDF69C 		.ascii	"\363\375\366\234\357\017f.\214\234o\010a\222\212\344"
 245      EF0F662E 
 245      8C9C6F08 
 245      61928AE4 
 246 07c4 7E21A7CD 		.ascii	"~!\247\315\015Q\316/\037.{\026"
 246      0D51CE2F 
 246      1F2E7B16 
 247 07d0 453988B1 		.ascii	"E9\210\261\330\313\210\302,=h\227\335\324\361\031_\342"
 247      D8CB88C2 
 247      2C3D6897 
 247      DDD4F119 
 247      5FE2
 248 07e2 A2F1AC77 		.ascii	"\242\361\254w<\367^\261i\276\321-\037\232\317\247\256"
 248      3CF75EB1 
 248      69BED12D 
 248      1F9ACFA7 
 248      AE
 249 07f3 D9F492A6 		.ascii	"\331\364\222\246\255{\300\330\003H\006\254\336bKo\306"
 249      AD7BC0D8 
 249      034806AC 
 249      DE624B6F 
 249      C6
 250 0804 246673D7 		.ascii	"$fs\327\265\3245N\302\240\310s\373\231~\346G\201\244"
 250      B5D4354E 
 250      C2A0C873 
 250      FB997EE6 
 250      4781A4
 251 0817 8C3467B2 		.ascii	"\2144g\262\266\023\272\204r\375q~\217\3333\267\361["
 251      B613BA84 
 251      72FD717E 
 251      8FDB33B7 
 251      F15B
 252 0829 5AFBE365 		.ascii	"Z\373\343e\346\276\355\3714\344\350\226\011\373\272"
 252      E6BEEDF9 
 252      34E4E896 
 252      09FBBA
 253 0838 C6C0FC30 		.ascii	"\306\300\3740\357/\002\250`\303l\250\014v\321I\335\260"
 253      EF2F02A8 
 253      60C36CA8 
 253      0C76D149 
ARM GAS  /tmp/ccxDmDcp.s 			page 20


 253      DDB0
 254 084a A748F960 		.ascii	"\247H\371`\256\303\332J\327\245\233;|\225=\203\033\036"
 254      AEC3DA4A 
 254      D7A59B3B 
 254      7C953D83 
 254      1B1E
 255 085c A5B9EB93 		.ascii	"\245\271\353\223{\273\314\024\257G\314\354 )\020\257"
 255      7BBBCC14 
 255      AF47CCEC 
 255      202910AF 
 256 086c 9CE918CF 		.ascii	"\234\351\030\3175\004/N\367C\336u?[`t\177\012uO\037"
 256      35042F4E 
 256      F743DE75 
 256      3F5B6074 
 256      7F0A754F 
 257 0881 E7D7FD99 		.ascii	"\347\327\375\231\271\346p\364!\206\350\343(7\245\035"
 257      B9E670F4 
 257      2186E8E3 
 257      2837A51D 
 258 0891 9D2ECF32 		.ascii	"\235.\3172\272l.\030/[\227O\215V\227N\2075\306Dr\026"
 258      BA6C2E18 
 258      2F5B974F 
 258      8D56974E 
 258      8735C644 
 259 08a7 E7475FE0 		.ascii	"\347G_\340Hv\016kM\260\315\225\026\007\231T\342\304"
 259      48760E6B 
 259      4DB0CD95 
 259      16079954 
 259      E2C4
 260 08b9 DBFD4701 		.ascii	"\333\375G\001\311%S\350\324F_\334,g\261\354\313!\313"
 260      C92553E8 
 260      D4465FDC 
 260      2C67B1EC 
 260      CB21CB
 261 08cc A5B78EA4 		.ascii	"\245\267\216\244,\023\275\003\330\221\217\261\013'\364"
 261      2C13BD03 
 261      D8918FB1 
 261      0B27F4
 262 08db 215CF030 		.ascii	"!\\\36000\177\230\211\243t\216?\242/\3463\367\372\216"
 262      307F9889 
 262      A3748E3F 
 262      A22FE633 
 262      F7FA8E
 263 08ee 4EFA7E23 		.ascii	"N\372~#\261\276\3175\274\271\374\014\200\2024\011W\333"
 263      B1BECF35 
 263      BCB9FC0C 
 263      80823409 
 263      57DB
 264 0900 B9E2177E 		.ascii	"\271\342\027~o\303J\333\352\327\313V\341\260\322(\340"
 264      6FC34ADB 
 264      EAD7CB56 
 264      E1B0D228 
 264      E0
 265 0911 CF078239 		.ascii	"\317\007\2029\207\025\312\312M\214'\005\367a%\373\235"
 265      8715CACA 
 265      4D8C2705 
 265      F76125FB 
ARM GAS  /tmp/ccxDmDcp.s 			page 21


 265      9D
 266 0922 55588E19 		.ascii	"UX\216\031\006y\256\237\021\343\006n\205\246\265\244"
 266      0679AE9F 
 266      11E3066E 
 266      85A6B5A4 
 267 0932 3A8F9EF4 		.ascii	":\217\236\364\303\302\315gF\330al\266\214\\\347(\224"
 267      C3C2CD67 
 267      46D8616C 
 267      B68C5CE7 
 267      2894
 268 0944 61129D56 		.ascii	"a\022\235V\033\226\356\321\355!\222\271\002\237\223"
 268      1B96EED1 
 268      ED2192B9 
 268      029F93
 269 0953 0CADA693 		.ascii	"\014\255\246\223%\367t=\017A\310\353\246\023\3111\222"
 269      25F7743D 
 269      0F41C8EB 
 269      A613C931 
 269      92
 270 0964 87946438 		.ascii	"\207\224d8\236\241\0347\342.\373\353y\310\320\017\014"
 270      9EA11C37 
 270      E22EFBEB 
 270      79C8D00F 
 270      0C
 271 0975 8E835DFF 		.ascii	"\216\203]\377\3249\352\0269\226\247\217\264\225\311"
 271      D439EA16 
 271      3996A78F 
 271      B495C9
 272 0984 718072C4 		.ascii	"q\200r\304\271\360\211<T\272\326\277\313\255\304yt\327"
 272      B9F0893C 
 272      54BAD6BF 
 272      CBADC479 
 272      74D7
 273 0996 13E31EA3 		.ascii	"\023\343\036\243\034\365\015Gw:\303\232O\011\274\325"
 273      1CF50D47 
 273      773AC39A 
 273      4F09BCD5 
 274 09a6 BCFACF04 		.ascii	"\274\372\317\004\3617c\263S##\3271\236KA]g\251B\376"
 274      F13763B3 
 274      532323D7 
 274      319E4B41 
 274      5D67A942 
 275 09bb 59AADB8E 		.ascii	"Y\252\333\216\240\2712_{\252L_\230\257\02403\214q\236"
 275      A0B9325F 
 275      7BAA4C5F 
 275      98AF1430 
 275      338C719E 
 276 09cf A3BAC1E0 		.ascii	"\243\272\301\340T\237M\373\315]8;]\345)\357\267:\215"
 276      549F4DFB 
 276      CD5D383B 
 276      5DE529EF 
 276      B73A8D
 277 09e2 B91ED6C0 		.ascii	"\271\036\326\300/\240\244k\262\206\034\261\\\177\352"
 277      2FA0A46B 
 277      B2861CB1 
 277      5C7FEA
 278 09f1 61C431B7 		.ascii	"a\3041\267\235V\013\231\305\357\232\302\007\234\364"
ARM GAS  /tmp/ccxDmDcp.s 			page 22


 278      9D560B99 
 278      C5EF9AC2 
 278      079CF4
 279 0a00 E166278A 		.ascii	"\341f'\212\2376\277\316f\325\250\307\265\371\314\270"
 279      9F36BFCE 
 279      66D5A8C7 
 279      B5F9CCB8 
 280 0a10 B605F550 		.ascii	"\266\005\365P\010^\271\015oa\027\256y\017\342\324\365"
 280      085EB90D 
 280      6F6117AE 
 280      790FE2D4 
 280      F5
 281 0a21 38EF41B8 		.ascii	"8\357A\270\234\033\240\226\303\352\031\"yV\240\343\302"
 281      9C1BA096 
 281      C3EA1922 
 281      7956A0E3 
 281      C2
 282 0a32 73021D11 		.ascii	"s\002\035\021^\300z\275\227q\241Cp\030\027r\216\003"
 282      5EC07ABD 
 282      9771A143 
 282      70181772 
 282      8E03
 283 0a44 4650E74B 		.ascii	"FP\347K\222\335c\034\223\344\312\347\366\007\364$\331"
 283      92DD631C 
 283      93E4CAE7 
 283      F607F424 
 283      D9
 284 0a55 8109E400 		.ascii	"\201\011\344\0006[&\270\245\202\016K\002Y\004\252$L"
 284      365B26B8 
 284      A5820E4B 
 284      025904AA 
 284      244C
 285 0a67 AE7325B4 		.ascii	"\256s%\264\344\272\344\356\236\177\351I\313\226\357"
 285      E4BAE4EE 
 285      9E7FE949 
 285      CB96EF
 286 0a76 5C492DF9 		.ascii	"\\I-\371N\033\242I\253\021\035\270M\310Mf\315u\213u"
 286      4E1BA249 
 286      AB111DB8 
 286      4DC84D66 
 286      CD758B75 
 287 0a8a 5171AC7B 		.ascii	"Qq\254{&\017\235-\333\015\364\260\331\316\205\316\260"
 287      260F9D2D 
 287      DB0DF4B0 
 287      D9CE85CE 
 287      B0
 288 0a9b DF2BD9D9 		.ascii	"\337+\331\331.\325D\277N5\220\3469\355\335\332I\272"
 288      2ED544BF 
 288      4E3590E6 
 288      39EDDDDA 
 288      49BA
 289 0aad ACF33E5A 		.ascii	"\254\363>Z'\331\321\232\212\221\276i\341\263W\205<w"
 289      27D9D19A 
 289      8A91BE69 
 289      E1B35785 
 289      3C77
 290 0abf 88B1B429 		.ascii	"\210\261\264)\332\233\216\242\265\255>\365\263\266\365"
ARM GAS  /tmp/ccxDmDcp.s 			page 23


 290      DA9B8EA2 
 290      B5AD3EF5 
 290      B3B6F5
 291 0ace DA238F6A 		.ascii	"\332#\217j_\217<L\012\310\306\235\371\2631\004\034\261"
 291      5F8F3C4C 
 291      0AC8C69D 
 291      F9B33104 
 291      1CB1
 292 0ae0 64B4647A 		.ascii	"d\264dz\326E\177Ca\254\337.\300\234\331!\353\332\333"
 292      D6457F43 
 292      61ACDF2E 
 292      C09CD921 
 292      EBDADB
 293 0af3 8AE46D08 		.ascii	"\212\344m\010\247\274\315h\303^6C.\326\263s\257\247"
 293      A7BCCD68 
 293      C35E3643 
 293      2ED6B373 
 293      AFA7
 294 0b05 1CF9E2DC 		.ascii	"\034\371\342\334\005f\266\261xu\357\250\263\327\253"
 294      0566B6B1 
 294      7875EFA8 
 294      B3D7AB
 295 0b14 7AB6398E 		.ascii	"z\2669\216\033\375\247\3210\205\200\225\333\300\372"
 295      1BFDA7D1 
 295      30858095 
 295      DBC0FA
 296 0b23 AD60E7BC 		.ascii	"\255`\347\274\200\345\370j\360A\327S\226\35553\010\013"
 296      80E5F86A 
 296      F041D753 
 296      96ED3533 
 296      080B
 297 0b35 C1B30B77 		.ascii	"\301\263\013wZ\027N\237\206\\\360\"\\\216\337\256\235"
 297      5A174E9F 
 297      865CF022 
 297      5C8EDFAE 
 297      9D
 298 0b46 4F9BC112 		.ascii	"O\233\301\022\261\205\300\2253\3465\263\362v\314\312"
 298      B185C095 
 298      33E635B3 
 298      F276CCCA 
 299 0b56 FFC17CDC 		.ascii	"\377\301|\334\207\365N\254\373\261\036\300z\267}!2\247"
 299      87F54EAC 
 299      FBB11EC0 
 299      7AB77D21 
 299      32A7
 300 0b68 84DDC6D1 		.ascii	"\204\335\306\321]\311\202\235\3619\2560t\267\330\332"
 300      5DC9829D 
 300      F139AE30 
 300      74B7D8DA 
 301 0b78 661D416D 		.ascii	"f\035Am\301\275\240\3049\270\3678\006w\363\371\344M"
 301      C1BDA0C4 
 301      39B8F738 
 301      0677F3F9 
 301      E44D
 302 0b8a 8BDC823B 		.ascii	"\213\334\202;\307\036\330 \233v\350\334\330u\235\342"
 302      C71ED820 
 302      9B76E8DC 
ARM GAS  /tmp/ccxDmDcp.s 			page 24


 302      D8759DE2 
 303 0b9a B037C573 		.ascii	"\2607\305s\317\273\010\272\327Q\320w\327\356\037\277"
 303      CFBB08BA 
 303      D751D077 
 303      D7EE1FBF 
 304 0baa 487BC3E1 		.ascii	"H{\303\341\277Fr\312\271\217\225\263C(a\005I\272\010"
 304      BF4672CA 
 304      B98F95B3 
 304      43286105 
 304      49BA08
 305 0bbd B2DF2E08 		.ascii	"\262\337.\010\263v\031\314\261v9\220\261\316\345\\\023"
 305      B37619CC 
 305      B1763990 
 305      B1CEE55C 
 305      13
 306 0bce A6A48563 		.ascii	"\246\244\205c\365_\032\032$\223L\222\"\203\344c\341"
 306      F55F1A1A 
 306      24934C92 
 306      2283E463 
 306      E1
 307 0bdf 72BCB27D 		.ascii	"r\274\262}\374\305\026nL\016\012\231_3\226\0063\027"
 307      FCC5166E 
 307      4C0E0A99 
 307      5F339606 
 307      3317
 308 0bf1 0167793B 		.ascii	"\001gy;s\310{(#/C\325\343\022R\224\352\260+U2\007\257"
 308      73C87B28 
 308      232F43D5 
 308      E3125294 
 308      EAB02B55 
 309 0c08 23192A6A 		.ascii	"#\031*j\332\344\311\324\246\255\247\376\264f\275\246"
 309      DAE4C9D4 
 309      A6ADA7FE 
 309      B466BDA6 
 310 0c18 A10FCE7E 		.ascii	"\241\017\316~\204\365\302\034\203\337\247\206u3\006"
 310      84F5C21C 
 310      83DFA786 
 310      753306
 311 0c27 85054E96 		.ascii	"\205\005N\2265q\240\206c\225& \032m\377\011\014\322"
 311      3571A086 
 311      63952620 
 311      1A6DFF09 
 311      0CD2
 312 0c39 36631FCD 		.ascii	"6c\037\315\366:\020\355\334\373g\375\346\377*]\257\363"
 312      F63A10ED 
 312      DCFB67FD 
 312      E6FF2A5D 
 312      AFF3
 313 0c4b E3B92F3C 		.ascii	"\343\271/<q8\306r\370\314\221C\363\201O\313\2063\235"
 313      7138C672 
 313      F8CC9143 
 313      F3814FCB 
 313      86339D
 314 0c5e 4F33595F 		.ascii	"O3Y_je\202\356\013\236ZJr\261<\301\262<\351\310r\323"
 314      6A6582EE 
 314      0B9E5A4A 
 314      72B13CC1 
ARM GAS  /tmp/ccxDmDcp.s 			page 25


 314      B23CE9C8 
 315 0c74 D65DD556 		.ascii	"\326]\325V}\233,\373J\275\364\353s\226\311Yg\315=\375"
 315      7D9B2CFB 
 315      4ABDF4EB 
 315      7396C959 
 315      67CD3DFD 
 316 0c88 75B6E6DE 		.ascii	"u\266\346\336\367\304a\210\345p\316Es\273\026\220\005"
 316      F7C46188 
 316      E570CE45 
 316      73BB1690 
 316      05
 317 0c99 73347DCA 		.ascii	"s4}\312\324>\2177\271\034\316V\235HNg0\234x~\311\362"
 317      D43E8F37 
 317      B91CCE56 
 317      9D484E67 
 317      309C787E 
 318 0caf 3C9F33F8 		.ascii	"<\2373\370\367\345p\360\2573\016\376mn\231\266sg\252"
 318      F7E570F0 
 318      AF330EFE 
 318      6D6E99B6 
 318      7367AA
 319 0cc2 73F52232 		.ascii	"s\365\"2/\2455\201\276G\2105!|\222I\010;\323\363\224"
 319      2FA53581 
 319      BE478835 
 319      217C9249 
 319      083BD3F3 
 320 0cd7 6F21A94B 		.ascii	"o!\251K\336`\233\211d\266\257\320\304Q\357sN\034\343"
 320      DE609B89 
 320      64B6AFD0 
 320      C451EF73 
 320      4E1CE3
 321 0cea 6C0A305B 		.ascii	"l\0120[\321\237\256\2272S~V\012\236\373\312\360L\221"
 321      D19FAE97 
 321      32537E56 
 321      0A9EFBCA 
 321      F04C91
 322 0cfd 8CA117D7 		.ascii	"\214\241\027\327M\230P\241\377\305\225\012Y\255P\344"
 322      4D9850A1 
 322      FFC5950A 
 322      59AD50E4 
 323 0d0d 7045B8BA 		.ascii	"pE\270\272rVL\214F\302\023\302\334\015\314\373H,\\S"
 323      72564C8C 
 323      46C213C2 
 323      DC0DCCFB 
 323      482C5C53 
 324 0d21 5B29411B 		.ascii	"[)A\033e\226\242\316JH\312\204j\256X\255\226%\2612\244"
 324      6596A2CE 
 324      4A48CA84 
 324      6AAE58AD 
 324      9625B132 
 325 0d36 06A6FCFA 		.ascii	"\006\246\374\372\376\362\311\\0\\\035\322\037\225\273"
 325      FEF2C95C 
 325      305C1DD2 
 325      1F95BB
 326 0d45 93031720 		.ascii	"\223\003\027 \275To\247\204\036\254\225j\245\220zY\232"
 326      BD546FA7 
 326      841EAC95 
ARM GAS  /tmp/ccxDmDcp.s 			page 26


 326      6AA5907A 
 326      599A
 327 0d57 D478E48B 		.ascii	"\324x\344\213I3U_B\226\036\362\343\375$+b8\036\215\306"
 327      4933555F 
 327      42961EF2 
 327      E3FD242B 
 327      62381E8D 
 328 0d6c 631589B8 		.ascii	"c\025\211\270\254*\025w\377\366\276\311\367\315\244"
 328      AC2A1577 
 328      FFF6BEC9 
 328      F7CDA4
 329 0d7b CF12911A 		.ascii	"\317\022\221\032IV*\246L\236\014\214L!\213\324\204\034"
 329      49562AA6 
 329      4C9E0C8C 
 329      4C218BD4 
 329      841C
 330 0d8d 8987D46B 		.ascii	"\211\207\324k+j\0259-HL\252\253\211L\253P\324\312HL"
 330      2B6A1539 
 330      2D484CAA 
 330      AB894CAB 
 330      50D4CA48 
 331 0da2 A55DA985 		.ascii	"\245]\251\205\363\217~\030Rovj\026\025\303\325\221\230"
 331      F38F7E18 
 331      526F766A 
 331      1615C3D5 
 331      9198
 332 0db4 5411AA94 		.ascii	"T\021\252\224\246\213\2655j\310\004\037\023\012\231"
 332      A68BB535 
 332      6AC8041F 
 332      130A99
 333 0dc3 843ECAA6 		.ascii	"\204>\312\246\224\212\024\012\307c*H\377\275\274\"W"
 333      948A140A 
 333      C7632A48 
 333      FFBDBC22 
 333      57
 334 0dd4 87E3B204 		.ascii	"\207\343\262\0040%H\006@au\346\315\336\250B\017\335"
 334      30254806 
 334      406175E6 
 334      CDDEA842 
 334      0FDD
 335 0de6 1EA572CB 		.ascii	"\036\245r\313R\225(GC*/O\342\345\237\010\362-\023\241"
 335      52952847 
 335      432A2F4F 
 335      E2E59F08 
 335      F22D13A1 
 336 0dfa DCC2CBB7 		.ascii	"\334\302\313\267\362\362m\274|;/\377\230\257\221y%!"
 336      F2F26DBC 
 336      7C3B2FFF 
 336      98AF9179 
 336      2521
 337 0e0c 00B41FBA 		.ascii	"\000\264\037\272#\311\376xM\245$\373\302\325\242\354"
 337      23C9FE78 
 337      4DA524FB 
 337      C2D5A2EC 
 338 0e1c 03734B63 		.ascii	"\003sKc\024u\206X\023\251\212\205T\324\302\355\267\206"
 338      14758658 
 338      13A98A85 
ARM GAS  /tmp/ccxDmDcp.s 			page 27


 338      54D4C2ED 
 338      B786
 339 0e2e 54A35FF4 		.ascii	"T\243_\3642P'N\023\025\251XUTQ\005K\025\321\027\223"
 339      3250274E 
 339      1315A958 
 339      55545105 
 339      4B15D117 
 340 0e43 426A506F 		.ascii	"BjPo\002W~|S\244F\343\225\360\336?\275F\254R\212TY\232"
 340      02577E7C 
 340      53A446E3 
 340      95F0DE3F 
 340      BD46AC52 
 341 0e5b AE8056E8 		.ascii	"\256\200V\350\311\037U\252\200\320P\024\020\032W\001"
 341      C91F55AA 
 341      80D05014 
 341      101A5701 
 342 0e6b B97216BC 		.ascii	"\271r\026\274*\226fF\3240\020\007\352\324\370\264?'"
 342      2A966646 
 342      D4301007 
 342      EAD4F8B4 
 342      3F27
 343 0e7d AE30DC0A 		.ascii	"\2560\334\012H%Y\212\205)h\235\252\312\211\"E\212\251"
 343      4825598A 
 343      8529689D 
 343      AACA8922 
 343      458AA9
 344 0e90 40500ACE 		.ascii	"@P\012\316\242HQ1Q\015\212`=\331\342j\022\325\220?\034"
 344      A2485131 
 344      510D8A60 
 344      3DD9E26A 
 344      12D5903F 
 345 0ea5 037B0950 		.ascii	"\003{\011P\003<<J\024\003u\264\026\014\344N\031UgR\312"
 345      033C3C4A 
 345      140375B4 
 345      160CE44E 
 345      19556752 
 346 0eba 785D4C92 		.ascii	"x]L\222\213\260-\325\203\012\217\023%\322CT\010Q\231"
 346      8BB02DD5 
 346      830A8F13 
 346      25D24354 
 346      085199
 347 0ecd 018FA43A 		.ascii	"\001\217\244:zAj\307\232\256[\023Q\200\331\245\026g"
 347      7A416AC7 
 347      9AAE5B13 
 347      5180D9A5 
 347      1667
 348 0edf A64F8AEA 		.ascii	"\246O\212\352\304\210\032\211U\025\203\354\350\314\305"
 348      C4881A89 
 348      551583EC 
 348      E8CCC5
 349 0eee 52428A81 		.ascii	"RB\212\201\347U\025\001$m\001f\024k\250\003\371\243"
 349      E7551501 
 349      246D0166 
 349      146BA803 
 349      F9A3
 350 0f00 8978BC66 		.ascii	"\211x\274f\274\203\017\304\025\352\211\031\031\253%"
 350      BC830FC4 
ARM GAS  /tmp/ccxDmDcp.s 			page 28


 350      15EA8919 
 350      19AB25
 351 0f0f 3101425E 		.ascii	"1\001B^\022\225\242qyV\210\336\206\324\022\313\335D"
 351      1295A271 
 351      795688DE 
 351      86D412CB 
 351      DD44
 352 0f21 F4644A54 		.ascii	"\364dJT\025\016W\200\223\334\034\213\307\244\233%qZ"
 352      150E5780 
 352      93DC1C8B 
 352      C7A49B25 
 352      715A
 353 0f33 A4E2D609 		.ascii	"\244\342\326\011\223\322P\020\003\340\326\000\025P\""
 353      93D25010 
 353      03E0D600 
 353      155022
 354 0f42 7F015D3B 		.ascii	"\177\001];9 \313\034\330\030\256[\012\227U\222:\275"
 354      3920CB1C 
 354      D818AE5B 
 354      0A975592 
 354      3ABD
 355 0f54 361606FF 		.ascii	"6\026\006\377I\310\361\207\"\340]\227\2408P\3015He\271"
 355      49C8F187 
 355      22E05D97 
 355      A03850C1 
 355      354865B9 
 356 0f68 F3A3ABF9 		.ascii	"\363\243\253\371\023b\225\244\370\246\313\222\344\243"
 356      136295A4 
 356      F8A6CB92 
 356      E4A3
 357 0f76 2F7D94B5 		.ascii	"/}\224\265\257V\221*\003z3\001\024\363\035W\373\030"
 357      AF56912A 
 357      037A3301 
 357      14F31D57 
 357      FB18
 358 0f88 CAC5E8D6 		.ascii	"\312\305\350\3269_\031\256\376]u\345dx\254J\277\224"
 358      395F19AE 
 358      FE5D75E5 
 358      6478AC4A 
 358      BF94
 359 0f9a E3D17B00 		.ascii	"\343\321{\000\324O"
 359      D44F
 360 0fa0 91137C62 		.ascii	"\221\023|b\272 \312U\023\274\365\212j_\261\250\225\336"
 360      BA20CA55 
 360      13BCF58A 
 360      6A5FB1A8 
 360      95DE
 361 0fb2 4307F0A4 		.ascii	"C\007\360\244KV\002.*\205\325\020\225x\034\303\365>"
 361      4B56022E 
 361      2A85D510 
 361      95781CC3 
 361      F53E
 362 0fc4 24FA0D34 		.ascii	"$\372\0154\346\243\011\360\322\251\341\352\337\2133"
 362      E6A309F0 
 362      D2A9E1EA 
 362      DF8B33
 363 0fd3 A4DAC454 		.ascii	"\244\332\304T\177\035\015\"_\035\230\335O%N\\i8y\245"
ARM GAS  /tmp/ccxDmDcp.s 			page 29


 363      7F1D0D22 
 363      5F1D98DD 
 363      4F254E5C 
 363      693879A5 
 364 0fe7 A484E548 		.ascii	"\244\204\345HB\215\203\236\256\262\300M\255U\250\217"
 364      428D839E 
 364      AEB2C04D 
 364      AD55A88F 
 365 0ff7 4895F75E 		.ascii	"H\225\367^\021\256\246\275\271"
 365      11AEA6BD 
 365      B9
 366 1000 BBA6261E 		.ascii	"\273\246&\036\276\233*O\252,\011WS&\370(\207\377\317"
 366      BE9B2A4F 
 366      AA2C0957 
 366      5326F828 
 366      87FFCF
 367 1013 A23D81A4 		.ascii	"\242=\201\244<u\226\362\253xxF\020\263\014\220\314\270"
 367      3C7596F2 
 367      AB787846 
 367      10B30C90 
 367      CCB8
 368 1025 C5411990 		.ascii	"\305A\031\220\260*&\3377\365\336\251\031\204\250\022"
 368      B02A26DF 
 368      37F5DEA9 
 368      1984A812 
 369 1035 5142E03C 		.ascii	"QB\340<T\037\241PeD\021\247\325H\241\210\374\340%bM"
 369      541FA150 
 369      654411A7 
 369      D548A188 
 369      FCE02562 
 370 104a 9D384B81 		.ascii	"\2358K\2018\256\201\264X\202\034\356\217Qd=\223\325"
 370      38AE81B4 
 370      58821CEE 
 370      8F51643D 
 370      93D5
 371 105c E2756928 		.ascii	"\342ui($\305L\222\342P\010-\025\272\304\274\230p\333"
 371      24C54C92 
 371      E250082D 
 371      15BAC4BC 
 371      9870DB
 372 106f 6D9326FE 		.ascii	"m\223&\376\027\022m\303\014"
 372      17126DC3 
 372      0C
 373              		.text
 374              		.section	.gnu.lto_.symtab.80d5c452cf215786,"",%progbits
 375 0000 63685468 		.ascii	"chThdCreateFromHeap\000\000\000\000\000\000\000\000"
 375      64437265 
 375      61746546 
 375      726F6D48 
 375      65617000 
 376 001b 00000000 		.ascii	"\000\000\000\000\241\000\000\000chThdCreateFromMemo"
 376      A1000000 
 376      63685468 
 376      64437265 
 376      61746546 
 377 0036 7279506F 		.ascii	"ryPool\000\000\000\000\000\000\000\000\000\000\000\000"
 377      6F6C0000 
ARM GAS  /tmp/ccxDmDcp.s 			page 30


 377      00000000 
 377      00000000 
 377      0000
 378 0048 A1010000 		.ascii	"\241\001\000\000chSchWakeupS\000\000\002\000\000\000"
 378      63685363 
 378      6857616B 
 378      65757053 
 378      00000200 
 379 005e 00000000 		.ascii	"\000\000\000\000\000\000\277\001\000\000chThdCreate"
 379      0000BF01 
 379      00006368 
 379      54686443 
 379      72656174 
 380 0073 53757370 		.ascii	"SuspendedI\000\000\002\000\000\000\000\000\000\000\000"
 380      656E6465 
 380      64490000 
 380      02000000 
 380      00000000 
 381 0088 00C40100 		.ascii	"\000\304\001\000\000chHeapAllocAligned\000\000\002\000"
 381      00636848 
 381      65617041 
 381      6C6C6F63 
 381      416C6967 
 382 00a3 00000000 		.ascii	"\000\000\000\000\000\000\000\000\330\001\000\000chP"
 382      00000000 
 382      D8010000 
 382      636850
 383 00b2 6F6F6C41 		.ascii	"oolAlloc\000\000\002\000\000\000\000\000\000\000\000"
 383      6C6C6F63 
 383      00000200 
 383      00000000 
 383      000000
 384 00c5 00DE0100 		.ascii	"\000\336\001\000\000"
 384      00
 385              		.text
 386              		.section	.gnu.lto_.opts,"",%progbits
 387 0000 272D6D63 		.ascii	"'-mcpu=cortex-m0' '-mno-thumb-interwork' '-mthumb' "
 387      70753D63 
 387      6F727465 
 387      782D6D30 
 387      2720272D 
 388 0033 272D6767 		.ascii	"'-ggdb' '-O2' '-fomit-frame-pointer' '-falign-funct"
 388      64622720 
 388      272D4F32 
 388      2720272D 
 388      666F6D69 
 389 0066 696F6E73 		.ascii	"ions=16' '-ffunction-sections' '-fdata-sections' '-"
 389      3D313627 
 389      20272D66 
 389      66756E63 
 389      74696F6E 
 390 0099 666E6F2D 		.ascii	"fno-common' '-flto'\000"
 390      636F6D6D 
 390      6F6E2720 
 390      272D666C 
 390      746F2700 
 391              		.text
ARM GAS  /tmp/ccxDmDcp.s 			page 31


 392              		.cfi_sections	.debug_frame
 393              		.section	.text.chThdCreateFromHeap,"ax",%progbits
 394              		.align	2
 395              		.p2align 4,,15
 396              		.global	chThdCreateFromHeap
 397              		.code	16
 398              		.thumb_func
 399              		.type	chThdCreateFromHeap, %function
 400              	chThdCreateFromHeap:
 401              	.LFB149:
 402              		.file 1 "../../../os/rt/src/chdynamic.c"
 403              		.loc 1 84 0
 404              		.cfi_startproc
 405              	.LVL0:
 406 0000 70B5     		push	{r4, r5, r6, lr}
 407              		.cfi_def_cfa_offset 16
 408              		.cfi_offset 4, -16
 409              		.cfi_offset 5, -12
 410              		.cfi_offset 6, -8
 411              		.cfi_offset 14, -4
 412 0002 161C     		mov	r6, r2
 413 0004 86B0     		sub	sp, sp, #24
 414              		.cfi_def_cfa_offset 40
 415              		.loc 1 88 0
 416 0006 0822     		mov	r2, #8
 417              	.LVL1:
 418              		.loc 1 84 0
 419 0008 0C1C     		mov	r4, r1
 420 000a 1D1C     		mov	r5, r3
 421              		.loc 1 88 0
 422 000c FFF7FEFF 		bl	chHeapAllocAligned
 423              	.LVL2:
 424              		.loc 1 89 0
 425 0010 0028     		cmp	r0, #0
 426 0012 17D0     		beq	.L3
 427              		.loc 1 93 0
 428 0014 0A9B     		ldr	r3, [sp, #40]
 429 0016 0190     		str	r0, [sp, #4]
 430 0018 0493     		str	r3, [sp, #16]
 431 001a 0B9B     		ldr	r3, [sp, #44]
 432              		.loc 1 96 0
 433 001c 0019     		add	r0, r0, r4
 434              	.LVL3:
 435              		.loc 1 93 0
 436 001e 0096     		str	r6, [sp]
 437 0020 0290     		str	r0, [sp, #8]
 438 0022 0395     		str	r5, [sp, #12]
 439 0024 0593     		str	r3, [sp, #20]
 440              	.LBB34:
 441              	.LBB35:
 442              	.LBB36:
 443              	.LBB37:
 444              		.file 2 "../../../os/common/ext/CMSIS/include/cmsis_gcc.h"
 445              		.loc 2 71 0
 446              	@ 71 "../../../os/common/ext/CMSIS/include/cmsis_gcc.h" 1
 447 0026 72B6     		cpsid i
 448              	@ 0 "" 2
ARM GAS  /tmp/ccxDmDcp.s 			page 32


 449              		.code	16
 450              	.LBE37:
 451              	.LBE36:
 452              	.LBE35:
 453              	.LBE34:
 454              		.loc 1 109 0
 455 0028 6846     		mov	r0, sp
 456 002a FFF7FEFF 		bl	chThdCreateSuspendedI
 457              	.LVL4:
 458              		.loc 1 110 0
 459 002e 0122     		mov	r2, #1
 460 0030 2123     		mov	r3, #33
 461 0032 C254     		strb	r2, [r0, r3]
 462              		.loc 1 111 0
 463 0034 0021     		mov	r1, #0
 464              		.loc 1 109 0
 465 0036 041C     		mov	r4, r0
 466              	.LVL5:
 467              		.loc 1 111 0
 468 0038 FFF7FEFF 		bl	chSchWakeupS
 469              	.LVL6:
 470              	.LBB38:
 471              	.LBB39:
 472              	.LBB40:
 473              	.LBB41:
 474              	.LBB42:
 475              		.loc 2 60 0
 476              	@ 60 "../../../os/common/ext/CMSIS/include/cmsis_gcc.h" 1
 477 003c 62B6     		cpsie i
 478              	@ 0 "" 2
 479              		.code	16
 480              	.LBE42:
 481              	.LBE41:
 482              	.LBE40:
 483              	.LBE39:
 484              	.LBE38:
 485              		.loc 1 114 0
 486 003e 201C     		mov	r0, r4
 487              	.LVL7:
 488              	.L2:
 489              		.loc 1 115 0
 490 0040 06B0     		add	sp, sp, #24
 491              		@ sp needed
 492              	.LVL8:
 493              	.LVL9:
 494 0042 70BD     		pop	{r4, r5, r6, pc}
 495              	.LVL10:
 496              	.L3:
 497              		.loc 1 90 0
 498 0044 0020     		mov	r0, #0
 499              	.LVL11:
 500 0046 FBE7     		b	.L2
 501              		.cfi_endproc
 502              	.LFE149:
 503              		.size	chThdCreateFromHeap, .-chThdCreateFromHeap
 504 0048 C046C046 		.section	.text.chThdCreateFromMemoryPool,"ax",%progbits
 504      C046C046 
ARM GAS  /tmp/ccxDmDcp.s 			page 33


 505              		.align	2
 506              		.p2align 4,,15
 507              		.global	chThdCreateFromMemoryPool
 508              		.code	16
 509              		.thumb_func
 510              		.type	chThdCreateFromMemoryPool, %function
 511              	chThdCreateFromMemoryPool:
 512              	.LFB150:
 513              		.loc 1 146 0
 514              		.cfi_startproc
 515              	.LVL12:
 516 0000 F0B5     		push	{r4, r5, r6, r7, lr}
 517              		.cfi_def_cfa_offset 20
 518              		.cfi_offset 4, -20
 519              		.cfi_offset 5, -16
 520              		.cfi_offset 6, -12
 521              		.cfi_offset 7, -8
 522              		.cfi_offset 14, -4
 523 0002 87B0     		sub	sp, sp, #28
 524              		.cfi_def_cfa_offset 48
 525              		.loc 1 146 0
 526 0004 051C     		mov	r5, r0
 527 0006 0F1C     		mov	r7, r1
 528 0008 161C     		mov	r6, r2
 529 000a 1C1C     		mov	r4, r3
 530              		.loc 1 152 0
 531 000c FFF7FEFF 		bl	chPoolAlloc
 532              	.LVL13:
 533              		.loc 1 153 0
 534 0010 0028     		cmp	r0, #0
 535 0012 18D0     		beq	.L7
 536              		.loc 1 160 0
 537 0014 6B68     		ldr	r3, [r5, #4]
 538              		.loc 1 157 0
 539 0016 0190     		str	r0, [sp, #4]
 540              		.loc 1 160 0
 541 0018 C018     		add	r0, r0, r3
 542              	.LVL14:
 543              		.loc 1 157 0
 544 001a 0C9B     		ldr	r3, [sp, #48]
 545 001c 0097     		str	r7, [sp]
 546 001e 0290     		str	r0, [sp, #8]
 547 0020 0396     		str	r6, [sp, #12]
 548 0022 0494     		str	r4, [sp, #16]
 549 0024 0593     		str	r3, [sp, #20]
 550              	.LBB43:
 551              	.LBB44:
 552              	.LBB45:
 553              	.LBB46:
 554              		.loc 2 71 0
 555              	@ 71 "../../../os/common/ext/CMSIS/include/cmsis_gcc.h" 1
 556 0026 72B6     		cpsid i
 557              	@ 0 "" 2
 558              		.code	16
 559              	.LBE46:
 560              	.LBE45:
 561              	.LBE44:
ARM GAS  /tmp/ccxDmDcp.s 			page 34


 562              	.LBE43:
 563              		.loc 1 174 0
 564 0028 6846     		mov	r0, sp
 565 002a FFF7FEFF 		bl	chThdCreateSuspendedI
 566              	.LVL15:
 567              		.loc 1 175 0
 568 002e 0222     		mov	r2, #2
 569 0030 2123     		mov	r3, #33
 570 0032 C254     		strb	r2, [r0, r3]
 571              		.loc 1 177 0
 572 0034 0021     		mov	r1, #0
 573              		.loc 1 176 0
 574 0036 0564     		str	r5, [r0, #64]
 575              		.loc 1 174 0
 576 0038 041C     		mov	r4, r0
 577              	.LVL16:
 578              		.loc 1 177 0
 579 003a FFF7FEFF 		bl	chSchWakeupS
 580              	.LVL17:
 581              	.LBB47:
 582              	.LBB48:
 583              	.LBB49:
 584              	.LBB50:
 585              	.LBB51:
 586              		.loc 2 60 0
 587              	@ 60 "../../../os/common/ext/CMSIS/include/cmsis_gcc.h" 1
 588 003e 62B6     		cpsie i
 589              	@ 0 "" 2
 590              		.code	16
 591              	.LBE51:
 592              	.LBE50:
 593              	.LBE49:
 594              	.LBE48:
 595              	.LBE47:
 596              		.loc 1 180 0
 597 0040 201C     		mov	r0, r4
 598              	.LVL18:
 599              	.L6:
 600              		.loc 1 181 0
 601 0042 07B0     		add	sp, sp, #28
 602              		@ sp needed
 603              	.LVL19:
 604              	.LVL20:
 605              	.LVL21:
 606 0044 F0BD     		pop	{r4, r5, r6, r7, pc}
 607              	.LVL22:
 608              	.L7:
 609              		.loc 1 154 0
 610 0046 0020     		mov	r0, #0
 611              	.LVL23:
 612 0048 FBE7     		b	.L6
 613              		.cfi_endproc
 614              	.LFE150:
 615              		.size	chThdCreateFromMemoryPool, .-chThdCreateFromMemoryPool
 616 004a C046C046 		.text
 616      C046
 617              	.Letext0:
ARM GAS  /tmp/ccxDmDcp.s 			page 35


 618              		.file 3 "/usr/lib/gcc/arm-none-eabi/4.8/include/stddef.h"
 619              		.file 4 "/usr/include/newlib/machine/_default_types.h"
 620              		.file 5 "/usr/include/newlib/stdint.h"
 621              		.file 6 "../../../os/common/ports/ARMCMx/compilers/GCC/chtypes.h"
 622              		.file 7 "../../../os/rt/include/chsystypes.h"
 623              		.file 8 "../../../os/rt/include/chschd.h"
 624              		.file 9 "../../../os/common/ports/ARMCMx/chcore.h"
 625              		.file 10 "../../../os/common/ports/ARMCMx/chcore_v6m.h"
 626              		.file 11 "../../../os/rt/include/chsem.h"
 627              		.file 12 "../../../os/rt/include/chmtx.h"
 628              		.file 13 "../../../os/rt/include/chthreads.h"
 629              		.file 14 "../../../os/common/oslib/include/chmemcore.h"
 630              		.file 15 "../../../os/common/oslib/include/chheap.h"
 631              		.file 16 "../../../os/common/oslib/include/chmempools.h"
 632              		.file 17 "../../../os/rt/include/chsys.h"