ARM GAS  /tmp/ccaITzYq.s 			page 1


   1              		.cpu cortex-m0
   2              		.fpu softvfp
   3              		.eabi_attribute 20, 1
   4              		.eabi_attribute 21, 1
   5              		.eabi_attribute 23, 3
   6              		.eabi_attribute 24, 1
   7              		.eabi_attribute 25, 1
   8              		.eabi_attribute 26, 1
   9              		.eabi_attribute 30, 2
  10              		.eabi_attribute 34, 0
  11              		.eabi_attribute 18, 4
  12              		.code	16
  13              		.file	"chheap.c"
  14              		.text
  15              	.Ltext0:
  16              		.section	.gnu.lto_.jmpfuncs.e4a27268bee491c4,"",%progbits
  17 0000 789C6362 		.ascii	"x\234cb`b\300\006\262\2404+\003\003#S5\303\257\206\216"
  17      6062C006 
  17      B2A0342B 
  17      03032353 
  17      35C3AF86 
  18 0015 06814C46 		.ascii	"\006\201LF\006m\206U\015\015 \026c.#C\022#\\9#\343\203"
  18      066D8655 
  18      0D0D2016 
  18      632E2343 
  18      12235C39 
  19 002c FF50C018 		.ascii	"\377P\300\030\301\230\311\0104\224\231\235\221\245\001"
  19      C198C908 
  19      3494999D 
  19      91A501
  20 003b C8042962 		.ascii	"\310\004)ba\007\222\020\004\266\256\036h0#\204\317\006"
  20      61079210 
  20      04B6AE1E 
  20      68302384 
  20      CF06
  21 004d 95620000 		.ascii	"\225b\000\000:\344\022\320"
  21      3AE412D0 
  22              		.text
  23              		.section	.gnu.lto_.inline.e4a27268bee491c4,"",%progbits
  24 0000 789C6362 		.ascii	"x\234cb`b\300\006\232\031!4+\003\003\207\000#\003\023"
  24      6062C006 
  24      9A192134 
  24      2B030387 
  24      00230313 
  25 0014 DB073D06 		.ascii	"\333\007=\006\266\005\362`\305L\334\014\014\214\014"
  25      B605F260 
  25      C54CDC0C 
  25      0C8C0C
  26 0023 CC0C3C22 		.ascii	"\314\014<\"\214LL`u \202\231\265C\235\201{\205\033\023"
  26      8C4C4C60 
  26      75208299 
  26      B5439D81 
  26      7B851B13 
  27 0037 03CB0279 		.ascii	"\003\313\002y\026\270\272\011~,\014\327\030v11\2623"
  27      16B8BA09 
  27      7E2C0CD7 
  27      18763131 
ARM GAS  /tmp/ccaITzYq.s 			page 2


  27      B233
  28 0049 A4473066 		.ascii	"\244G0f22\203d2`,\246\024\020\213\205\035\310J\205\261"
  28      32328364 
  28      32602CA6 
  28      14108B85 
  28      1DC84A85 
  29 005e C0A681CD 		.ascii	"\300\246\201\315e\004\021\254%\033~+@\354\006\032\354"
  29      650411AC 
  29      251B7E2B 
  29      40EC061A 
  29      EC
  30 006f 00221A18 		.ascii	"\000\"\032\030\031\204\246x60!Y\202J\261\011\001%&\370"
  30      1984A678 
  30      36302159 
  30      824AB109 
  30      012526F8 
  31 0083 4DF06365 		.ascii	"M\360ce0>\314\0104\006\354@\237\256-\"\014\002/\202"
  31      303ECC08 
  31      3406EC40 
  31      9FAE2D22 
  31      0C022F82 
  32 0097 9818982E 		.ascii	"\230\030\230.\360\263`jfc\220\374\312\300\310\211\315"
  32      F0B3606A 
  32      666390FC 
  32      CAC0C889 
  32      CD
  33 00a8 9D8C6016 		.ascii	"\235\214`\026+\210\225\016c1\301\305\230\340b\014pg"
  33      2B88950E 
  33      6331C1C5 
  33      98E0620C 
  33      7067
  34 00ba 833DC029 		.ascii	"\203=\300)\360`\036\027\334\355\015\020\222\205\201"
  34      F0601E17 
  34      DCED0D10 
  34      928581
  35 00c9 F99BB000 		.ascii	"\371\233\260\000\003\343%6\001\210\000\007\003s\233"
  35      03E32536 
  35      01880007 
  35      03739B
  36 00d8 A8030363 		.ascii	"\250\003\003c\023\273\003\026/1\000\000\222\2012\252"
  36      13BB0316 
  36      2F310000 
  36      928132AA 
  37              		.text
  38              		.section	.gnu.lto_.pureconst.e4a27268bee491c4,"",%progbits
  39 0000 789C6362 		.ascii	"x\234cb`b\340f\200\000V\006\011f)\026)V)6)\000\004?"
  39      6062E066 
  39      80005606 
  39      09662916 
  39      29562936 
  40 0018 00A7     		.ascii	"\000\247"
  41              		.text
  42              		.section	.gnu.lto__heap_init.e4a27268bee491c4,"",%progbits
  43 0000 789C6362 		.ascii	"x\234cb`b@\007\222@|\216\221\201A\003H32302M8\307\300"
  43      60624007 
  43      92407C8E 
  43      91814103 
ARM GAS  /tmp/ccaITzYq.s 			page 3


  43      48333233 
  44 001a D0C8C1C4 		.ascii	"\320\310\301\304\310\010b002\32431\326G2\202\325\256"
  44      C8086230 
  44      3032D433 
  44      31D64732 
  44      82D5AE
  45 002d 673AF0E0 		.ascii	"g:\360\340\377\377u\333\216O\277\3038\217\211\015(\302"
  45      FFFF75DB 
  45      8E4FBFC3 
  45      388F890D 
  45      28C2
  46 003f CAD0D2D0 		.ascii	"\312\320\322\3200A\201\201!\031\254\"\004H\202\264\205"
  46      30418181 
  46      2119AC22 
  46      044882B4 
  46      85
  47 0050 32328168 		.ascii	"22\201h\346\263\014M\277\232\277\367Y&2.dde\320fX\325"
  47      E6B30C4D 
  47      BF9ABFF7 
  47      5926322E 
  47      646465D0 
  48 0067 0004F699 		.ascii	"\000\004\366\231\214\014\263\031f564\010d22V3\374j\350"
  48      8C0CB319 
  48      66353634 
  48      08643232 
  48      5633FC6A 
  49 007c 00B19872 		.ascii	"\000\261\230r\301FD0\002\231`\333\222 \2262@T4\224g"
  49      C1464430 
  49      029960DB 
  49      92209632 
  49      40543494 
  50 0091 32322733 		.ascii	"22'3B\304\200\346\356\270\361\375\000\013\212\271\354"
  50      42C480E6 
  50      EEB8F1FD 
  50      000B8AB9 
  50      EC
  51 00a2 998C2CDA 		.ascii	"\231\214,\332\014Z\231\214\254`\222\2158;\030\2414\214"
  51      0C5A998C 
  51      AC60928D 
  51      383B18A1 
  51      348C
  52 00b4 CFCC0053 		.ascii	"\317\314\000S\301\002\263\351\307\367\023\0306\261S"
  52      C102B3E9 
  52      C7F71318 
  52      36B153
  53 00c3 6E130BDC 		.ascii	"n\023\013\334&v\020\343<C\313\203\227\207\271 \026\301"
  53      267610E3 
  53      3C43CB83 
  53      9787B920 
  53      16C1
  54 00d5 7C0D3489 		.ascii	"|\0154\211#\031\252\003$\302\221\311\310\011u\304D\240"
  54      2319AA03 
  54      24C291C9 
  54      C80975C4 
  54      44A0
  55 00e7 462EA02D 		.ascii	"F.\240-I`\345\014\014P\215\231\214\334\014\014\027\031"
  55      4960E50C 
ARM GAS  /tmp/ccaITzYq.s 			page 4


  55      0C508D99 
  55      8CDC0C0C 
  55      1719
  56 00f9 1A1FBC55 		.ascii	"\032\037\274U\206\031\005\001!@\007\000\343\004d\226"
  56      86190501 
  56      21400700 
  56      E3046496 
  57 0109 9A9E9E3E 		.ascii	"\232\236\236>\004\345\027\353'\347\347\346\346\347\001"
  57      04E517EB 
  57      27E7E7E6 
  57      E6E701
  58 0118 59399949 		.ascii	"Y9\231I\372\305E\311\372\311\031\031\251\211\005z\311"
  58      FAC545C9 
  58      FAC91919 
  58      A989057A 
  58      C9
  59 0129 0C00FF43 		.ascii	"\014\000\377Cv\366"
  59      76F6
  60              		.text
  61              		.section	.gnu.lto_chHeapObjectInit.e4a27268bee491c4,"",%progbits
  62 0000 789C9552 		.ascii	"x\234\225R\277K\303P\020\276{Il\032\353\217\325M\004"
  62      BF4BC350 
  62      10BE7B49 
  62      6C1AEB8F 
  62      D54D04
  63 0013 052D34F8 		.ascii	"\005-4\370\277(\350X\203\264\001c\213\335\354\340\263"
  63      BF28E858 
  63      83B40163 
  63      8BDDECE0 
  63      B3
  64 0024 E95004A1 		.ascii	"\351P\004\241HE\321\305:DP\320\265c]\004\005\0257\335"
  64      4845D1C5 
  64      3A4450D0 
  64      B5635D04 
  64      051537DD 
  65 0038 FC031C74 		.ascii	"\374\003\034t\262t0\336{y\255T\253\340\221\334\275\344"
  65      B27430DE 
  65      7B79AD54 
  65      ABE091DC 
  65      BDE4
  66 004a BEFBEE7B 		.ascii	"\276\373\356{\3071`\360\335\306\350}\241\337I\212\250"
  66      C73160F0 
  66      DDC6E87D 
  66      A1DF498A 
  66      A8
  67 005b 01B2EA1D 		.ascii	"\001\262\352\035\300\246\311\020\305\001\0206\030n,"
  67      C0A6C910 
  67      C5011036 
  67      186E2C
  68 006a A2C45EB0 		.ascii	"\242\304^\260\346s\030\236\327n\256.\361lr\030\321C"
  68      E673189E 
  68      D76EAE2E 
  68      F16C7218 
  68      D143
  69 007c D0C8A149 		.ascii	"\320\310\241I\216\305\301E\260\204K\220\023\025\006"
  69      8EC5C145 
  69      B0844B90 
ARM GAS  /tmp/ccaITzYq.s 			page 5


  69      131506
  70 008b 9439AF8E 		.ascii	"\2249\257\216O@\235\363\235\346\336\326\356\030?*U\371"
  70      4F409DF3 
  70      9DE6DED6 
  70      EE183F2A 
  70      55F9
  71 009d 4718A28B 		.ascii	"G\030\242\213\214\3014\202\203\260@\037\332\270\014"
  71      8CC13482 
  71      83B0401F 
  71      DAB80C
  72 00ac BADE2BCE 		.ascii	"\272\336+\316#E\002B6G^(\232G&\242v\015,\215u4 \215"
  72      23450242 
  72      36475E28 
  72      9A4726A2 
  72      760D2C8D 
  73 00c4 C7380119 		.ascii	"\3078\001\031\321\360\026J\215F\360\244\022I8\345d\263"
  73      D1F0164A 
  73      8D46F0A4 
  73      124938E5 
  73      64B3
  74 00d6 2E1A8770 		.ascii	".\032\207p@\354\003\031\324D\227\230\344^\212\356$\373"
  74      40EC0319 
  74      D4449798 
  74      E45E8AEE 
  74      24FB
  75 00e8 1AE240D5 		.ascii	"\032\342@\325\327\217\301\203\326S\035#\241I\230q\321"
  75      D78FC183 
  75      D6531D23 
  75      A1499871 
  75      D1
  76 00f9 943EDE9F 		.ascii	"\224>\336\237\011Ud*j2v5\265\202\247\037\254\326\377"
  76      0955642A 
  76      6A327635 
  76      B582A71F 
  76      ACD6FF
  77 010c 59F5AE5E 		.ascii	"Y\365\256^K\351m\354\237\274\341/z#\3168\211\020\025"
  77      4BE96DEC 
  77      9FBCE12F 
  77      7A23CE38 
  77      891015
  78 011f ACAFC26E 		.ascii	"\254\257\302n\346\026\374\212\377^\263#\256\214(3e\243"
  78      E616FC8A 
  78      FF5EB323 
  78      AE8C2833 
  78      65A3
  79 0131 56188623 		.ascii	"V\030\206#\021`\333\017\264N\336\"\210\314\233jp\257"
  79      1160DB0F 
  79      B44EDE22 
  79      88CC9B6A 
  79      70AF
  80 0143 B15F2EF8 		.ascii	"\261_.\370\267\014]\015\312\222,m?\254\315tZ$\212\260"
  80      B70C5D0D 
  80      CA922C6D 
  80      3FACCD74 
  80      5A248AB0 
  81 0157 4E6BA408 		.ascii	"Nk\244\010\013.\016\366\237\222\361\265.\367Pn\252z"
  81      0B2E0EF6 
ARM GAS  /tmp/ccaITzYq.s 			page 6


  81      9F92F1B5 
  81      2EF7506E 
  81      AA7A
  82 0169 8022B479 		.ascii	"\200\"\264y\205\217\272\230p\324$\211\323\305!\200\007"
  82      858FBA98 
  82      70D42489 
  82      D3C52180 
  82      07
  83 017a D87C3E9B 		.ascii	"\330|>\233\354\340\"\233#\014\255\225\3205\225J\331"
  83      ECE0229B 
  83      230CAD95 
  83      D035954A 
  83      D9
  84 018b D1932BD8 		.ascii	"\321\223+\330N\316\363r\253tZq\227\354\302\232c;\331"
  84      4ECEF372 
  84      AB745A71 
  84      97ECC29A 
  84      633BD9
  85 019e EC723A9F 		.ascii	"\354r:\237r\200e\363\237U\026\2476"
  85      728065F3 
  85      9F5516A7 
  85      36
  86              		.text
  87              		.section	.gnu.lto_chHeapAllocAligned.e4a27268bee491c4,"",%progbits
  88 0000 789C9D57 		.ascii	"x\234\235WklTE\024\236\231{\357\276\037\355\366E\265"
  88      6B6C5445 
  88      149E997B 
  88      EFBE1FED 
  88      F645B5
  89 0013 BC2A6FB4 		.ascii	"\274*o\264\245T\024\241My\304\037\004\224\004%\321\177"
  89      A55414A1 
  89      4D79C41F 
  89      04940425 
  89      D17F
  90 0025 962A6513 		.ascii	"\226*e\023+U\376\311\217n\2735 UBT^\312\243\006\025"
  90      2B55FEC9 
  90      8F6EBB35 
  90      20554254 
  90      5ECAA306 
  91 003a 5109424C 		.ascii	"Q\011BL4\266\350n%\246<\004\2521\362R\211\210DJP\242"
  91      34B6E86E 
  91      25A63C04 
  91      AA31F252 
  91      8988444A 
  92 0050 49118DEB 		.ascii	"I\021\215\3539gfno\267\353v\265i\316\275s\276\363\232"
  92      3967666E 
  92      6FB7EB76 
  92      B569CEBD 
  92      73BEF39A 
  93 0064 33DFCC9D 		.ascii	"3\337\314\235\025L\260\364\277\022\316\330\375\021\306"
  93      154CB0F4 
  93      BF12CED8 
  93      FD11C6
  94 0073 1E81775E 		.ascii	"\036\201w^\302\270\330t\222\261V\217\020\306\005?\213"
  94      C2B8D874 
  94      92B1568F 
  94      10C6053F 
ARM GAS  /tmp/ccaITzYq.s 			page 7


  94      8B
  95 0084 F9CC0F7A 		.ascii	"\371\314\017z\030\213\005\014nJ\275)\254\365\223A\357"
  95      188B050C 
  95      6E4ABD29 
  95      ACF59341 
  95      EF
  96 0095 4219B0B8 		.ascii	"B\031\260\270K\252]\274X\276\270\205\207\360|\302=\302"
  96      4BAA5DBC 
  96      58BEB885 
  96      87F07CC2 
  96      3DC2
  97 00a7 DB63E0E8 		.ascii	"\333c\340\350\3441\214\342\025>\002\203\004\372\204"
  97      E4318CE2 
  97      153E0283 
  97      04FA84
  98 00b6 9F46011A 		.ascii	"\237F\001\032\371y@F\010\360<\371\022\024\241_\213\000"
  98      F9794046 
  98      08F03CF9 
  98      1214A15F 
  98      8B00
  99 00c8 0F77CE06 		.ascii	"\017w\316\006<\244\325a\375\222\307\213\344K\276L>\277"
  99      3CA4D561 
  99      FD92C78B 
  99      E44BBE4C 
  99      3EBF
 100 00da 58B8298F 		.ascii	"X\270)\217/\202I\003\021Q\3609\015\213\216\341\260@"
 100      2F824903 
 100      1151F039 
 100      0D8B8EE1 
 100      B040
 101 00ec 149E3E41 		.ascii	"\024\236>A\303\004\207a\241\366.\342\034_\030g-\302"
 101      C3048761 
 101      A1F62EE2 
 101      1C5F1867 
 101      2DC2
 102 00fe 302D97DB 		.ascii	"0-\227\333\343\365\371\003\301P8/\2778RPX\304[\036\345"
 102      E3F5F903 
 102      C150382F 
 102      BF385250 
 102      58C45B1E 
 103 0113 D8286F39 		.ascii	"\330(o9{=\026\333t\361\362\245>k\373+\211\366\316\330"
 103      7B3D16DB 
 103      74F1F2A5 
 103      3E6BFB2B 
 103      89F6CED8 
 104 0127 5FA914E7 		.ascii	"_\251\024\347Q\016M\235\312Y\003g\217\300\200\217\243"
 104      510E4D9D 
 104      CA590367 
 104      8FC0808F 
 104      A3
 105 0138 87308776 		.ascii	"\2070\207vY\372\306\016\275\035\363\222\237An\025\271"
 105      59FAC60E 
 105      BD1DF392 
 105      9F416E15 
 105      B9
 106 0149 B925FA4E 		.ascii	"\271%\372Nn-\335\320\331\266)\3667d$\317\273s\364\354"
 106      6E2DDDD0 
ARM GAS  /tmp/ccaITzYq.s 			page 8


 106      D9B629F6 
 106      376424CF 
 106      BB73F4EC 
 107 015d 3AB523CD 		.ascii	":\265#\315sNN\236/%vwl.\215\015z\032\202\325\345\346"
 107      734E4E9E 
 107      2F257677 
 107      6C2E8D0D 
 107      7A1A82D5 
 108 0173 19FBFEF1 		.ascii	"\031\373\376\361\336X{\"\225\252#\257\0059\346;\330"
 108      DE587B22 
 108      95AA23AF 
 108      0539E63B 
 108      D8
 109 0184 F1A2339F 		.ascii	"\361\2423\237)\330\3759z~\263qgZ\245\213s\364<t*\260"
 109      29D8FD39 
 109      7A7EB371 
 109      675AA58B 
 109      73F43C74 
 110 019a A9757D2C 		.ascii	"\251u},\225j\001\267z\376>\027#\370\035\020\211\213"
 110      956A01B7 
 110      7AFE3E17 
 110      23F81D10 
 110      898B
 111 01ac A9D4B5B3 		.ascii	"\251\324\265\263\277\277p\202\037\023\017q\326\204-"
 111      BFBF7082 
 111      1F130F71 
 111      D6842D
 112 01bb 6DE2DC60 		.ascii	"m\342\334`\365|\037/g\246zZ,\312-/\007\330\007\202\373"
 112      F57C1F2F 
 112      67A67A5A 
 112      2CCA2D2F 
 112      07D80782 
 113 01d0 418800E8 		.ascii	"A\210\000\350\\A\024!\260\332\017Va\030\270#\312\245"
 113      5C411421 
 113      B0DA0F56 
 113      6118B823 
 113      CAA5
 114 01e2 000646A1 		.ascii	"\000\006F\241\032\024\341\240\030mKP\214BQ\212\3426"
 114      1A14E1A0 
 114      186D4B50 
 114      8C42518A 
 114      E236
 115 01f4 14B78310 		.ascii	"\024\267\203\020e\312t4j\306\240f,\212q\3509\036\260"
 115      65CA7434 
 115      6AC6A066 
 115      2C8A71E8 
 115      391EB0
 116 0207 D7012B87 		.ascii	"\327\001+\207\347\036x\336\001J6\001\305D\024\223PL"
 116      E71E78DE 
 116      014A3601 
 116      C5441493 
 116      504C
 117 0219 4631059D 		.ascii	"F1\005\235\247\202\325\233`5\0155\323Q\334\211\342."
 117      A782D59B 
 117      60350D35 
 117      D351DC89 
 117      E22E
ARM GAS  /tmp/ccaITzYq.s 			page 9


 118 022b C42A31E6 		.ascii	"\304*1\346\014\024U`u\000\254f\242\272\032\305,L5\033"
 118      0C145560 
 118      7500AC66 
 118      A2BA1AC5 
 118      2C4C351B 
 119 023f C51C3498 		.ascii	"\305\0344\230\213\242\006\254\016\202U-\252\353`\260"
 119      8BA206AC 
 119      0E82552D 
 119      AAEB60B0 
 120 024f 1706F330 		.ascii	"\027\006\3630\334|\024\013P,D\347E\330\241\305 <Kp\370"
 120      DC7C140B 
 120      502C44E7 
 120      45D8A1C5 
 120      203C4B70 
 121 0264 008AA560 		.ascii	"\000\212\245`\377.\330/C\014\332m\261v \36189O\011\311"
 121      FF2ED82F 
 121      430CDA6D 
 121      B17620F1 
 121      38394F09 
 122 0279 C63541C3 		.ascii	"\3065A\303q\251\340\357a\220\333-\266\034\326n\273e"
 122      71A9E0EF 
 122      6190DB2D 
 122      B61CD66E 
 122      BB65
 123 028b F4B22357 		.ascii	"\364\262#W\222]\035\260\230\207 B#\367\342*z\235K\270"
 123      925D1DB0 
 123      98872042 
 123      23F7E22A 
 123      7A9D4BB8 
 124 029f 1C5C7F64 		.ascii	"\034\\\177d\306Q\326v\361\273\313.i\007\313\264\226"
 124      C651D676 
 124      F1BBCB2E 
 124      6907CBB4 
 124      96
 125 02b0 DD8AAD8F 		.ascii	"\335\212\255\217\305\346\202u\0237\035\326&\206\005"
 125      C5E68275 
 125      13371DD6 
 125      268605
 126 02bf 6B0F43B3 		.ascii	"k\017C\263F\016\351zY\373O\311\257\007\223\3700\211"
 126      460EE97A 
 126      59FB4FC9 
 126      AF0793F8 
 126      3089
 127 02d1 CB6D3B9D 		.ascii	"\313m;\235e\0342\013.c&\016\037\017\331Q\215\217\014"
 127      651C320B 
 127      2E63260E 
 127      1F0FD951 
 127      8D8F0C
 128 02e4 0C6AB113 		.ascii	"\014j\261\023\002\203v\366[\272\002NA<v^\2273/\304\203"
 128      028376F6 
 128      5BBA024E 
 128      413C765E 
 128      97332FC4 
 129 02f9 93FB0B16 		.ascii	"\223\373\013\026_\037?\\\242\323\006\032\271\037\235"
 129      5F1F3F5C 
 129      A2D3061A 
 129      B91F9D
ARM GAS  /tmp/ccaITzYq.s 			page 10


 130 0308 4CCC0C58 		.ascii	"L\314\014X\227]P\020@Bn\246R\251\260D_\214\257\324p"
 130      975D5010 
 130      40426EA6 
 130      52A9B044 
 130      5F8CAFD4 
 131 031d 082C08C6 		.ascii	"\010,\010\306lG\231\220z\331Y@\321\274\355V\274\177"
 131      6C479990 
 131      7AD95940 
 131      D1BCED56 
 131      BC7F
 132 032f AB1D2FBC 		.ascii	"\253\035/\274\226=\013L\235\316\246E\271\3575\366*\370"
 132      963D0B4C 
 132      9DCEA645 
 132      B9EF35F6 
 132      2AF8
 133 0341 FA1B65C5 		.ascii	"\372\033e\305\262\267+\270\243\303\247\230)\035\231"
 133      B2B72BB8 
 133      A3C3A798 
 133      291D99
 134 0350 EA6A5E94 		.ascii	"\352j^\224\007\032\2704\201`Q\036T)\006\266\272t\212"
 134      071AB834 
 134      8160511E 
 134      542906B6 
 134      BA748A
 135 0363 089AC25F 		.ascii	"\010\232\302_\025\320f:{\007_k\243<\2249\231#\033t("
 135      15D0663A 
 135      7B075F6B 
 135      A33C9439 
 135      99231B74 
 136 0378 E1D213D8 		.ascii	"\341\322\023\330G\023\210\3105\020\2600\246\356\252"
 136      471388C8 
 136      3510B030 
 136      A6EEAA
 137 0387 D5FDED93 		.ascii	"\325\375\355\223\330U7\203/\004-\376\206u.E/u\030\244"
 137      D8553783 
 137      2F042DFE 
 137      86752E45 
 137      2F7518A4 
 138 039b 3AB6A41D 		.ascii	":\266\244\035#\017\216t\2140\246'\252\330\331\310\013"
 138      230F8E74 
 138      8C30A627 
 138      AAD8D9C8 
 138      0B
 139 03ac A8D91DF1 		.ascii	"\250\331\035\361\017w\324\324\363n\232Z\021h\311\333"
 139      0F77D4D4 
 139      F36E9A5A 
 139      1168C9DB 
 140 03bc 432BD176 		.ascii	"C+\321v\335\320H1\200rYmU\011iE\232v\024\0004\223\224"
 140      DDD04831 
 140      8072596D 
 140      55096945 
 140      9A761400 
 141 03d3 BDA06DFB 		.ascii	"\275\240m\373l\264T;t\331\252\333\310\247Tq\346o[\177"
 141      6CB4543B 
 141      74D9AADB 
 141      C8A75471 
 141      E66F5B7F 
ARM GAS  /tmp/ccaITzYq.s 			page 11


 142 03e7 3B4054CB 		.ascii	";@T\313 3\332\256#3$\\\006\026\212\022\335\324\321\303"
 142      2033DAAE 
 142      2333245C 
 142      06168A12 
 142      DDD4D1C3 
 143 03fb 34A932B2 		.ascii	"4\2512\262;w\363RRh\313\321D\006\223dX\256RH\315\323"
 143      3B77F352 
 143      5268CBD1 
 143      44069364 
 143      58AE5248 
 144 0411 50AB24D4 		.ascii	"P\253$\324\323P\275\0322\2431\020\202\012\341\022\331"
 144      D350BD1A 
 144      32A33110 
 144      820AE112 
 144      D9
 145 0422 60236301 		.ascii	"`#c\001t\264+\336a#\343 \001\340\270\001\217\374\324"
 145      74B42BDE 
 145      6123E320 
 145      01E0B801 
 145      8FFCD4
 146 0435 5AE55097 		.ascii	"Z\345P\2279\367\267\207\355\235h\320\274\256\332\345"
 146      39F7B787 
 146      ED9D68D0 
 146      BCAEDAE5 
 147 0445 8E572BE3 		.ascii	"\216W+\343h~9\315\025\022<o\253\356 \303\3624\303\011"
 147      687E39CD 
 147      15123C6F 
 147      ABEE20C3 
 147      F234C309 
 148 0459 947348F5 		.ascii	"\224sH\365\023A\21352l#\375\361\2264\223I\024n\"iw\331"
 148      13418B35 
 148      326C23FD 
 148      F1963493 
 148      49146E22 
 149 0470 DAC90090 		.ascii	"\332\311\000\220\3430.L\001\220\216\226+\255k\035\272"
 149      E3302E4C 
 149      01908E96 
 149      2BAD6B1D 
 149      BA
 150 0481 9073665E 		.ascii	"\220sf^\366\015\307#\356r\362\303\215AmT\2206}\037\353"
 150      F60DC723 
 150      EE72F2C3 
 150      8D416D54 
 150      90367D1F 
 151 0496 970CDFBD 		.ascii	"\227\014\337\275\3167\224\341\037\237\034\374\334\301"
 151      CE3794E1 
 151      1F9F1CFC 
 151      DCC1
 152 04a4 F775592E 		.ascii	"\367uY.\364\356\326\364\376\214\2300\205\252\356\217"
 152      F4EED6F4 
 152      FE8C9830 
 152      85AAEE8F 
 153 04b4 EFD95959 		.ascii	"\357\331YY\317{(\377T\325\307\266~C\253\246i^?o\253"
 153      CF7B28FF 
 153      54D5C7B6 
 153      7E43ABA6 
 153      695E3F6F 
ARM GAS  /tmp/ccaITzYq.s 			page 12


 154 04c9 A693E134 		.ascii	"\246\223\3414\273\035R{'\000\351\355\220\310]\000\222"
 154      BB1D527B 
 154      2700E9ED 
 154      90C85D00 
 154      92
 155 04da EAE8FB7E 		.ascii	"\352\350\373~\251S\247B\365\177b\035\004\"\272\\N~\265"
 155      A953A742 
 155      F57F621D 
 155      0422BA5C 
 155      4E7EB5
 156 04ed 31A46387 		.ascii	"1\244c\207h\036\203\035\363\263{\014\332'];k\355O\016"
 156      681E831D 
 156      F3B37B0C 
 156      DA275D3B 
 156      6BED4F0E 
 157 0501 7EEA70DE 		.ascii	"~\352p\336=\262\001\215\274\022\034\323\031\333K\361"
 157      3DB2018D 
 157      BC121CD3 
 157      19DB4BF1 
 158 0511 66003884 		.ascii	"f\0008\204\261\361g5TE{j\206\332S\275\264\247\016P'"
 158      B1F16735 
 158      54457B6A 
 158      86DA53BD 
 158      B4A70E50 
 159 0526 AB6483E2 		.ascii	"\253d\203\342\237\356\\\244\215g\352\025\247b\256\012"
 159      9FEE5CA4 
 159      8D67EA15 
 159      A762AE0A 
 160 0536 ADAF0688 		.ascii	"\255\257\006\210\316k\307\356?\372\253_\302\252-\367"
 160      CE6BC7EE 
 160      3FFAAB5F 
 160      C2AA2DF7 
 161 0546 0E6F4B55 		.ascii	"\016oKU\266\266T\313-}\346z\322\236\306,\3627ri\256"
 161      B6B654CB 
 161      2D7DE67A 
 161      D29EC62C 
 161      F2377269 
 162 055b 260A1672 		.ascii	"&\012\026rzX!\351!2\026b\252Bf\311(7\257\337\020#\305"
 162      7A5821E9 
 162      21321662 
 162      AA4266C9 
 162      2837AFDF 
 163 0572 C9520AF5 		.ascii	"\311R\012\365S\256f@\363\377\223un\271|\372l.\323&A"
 163      53AE6640 
 163      F3FF9375 
 163      6EB97CFA 
 163      6C2ED326 
 164 0587 34A1ABC2 		.ascii	"4\241\253\302\226\260\336F\020\177\264\223\024!6\006"
 164      96B0DE46 
 164      107FB493 
 164      14213606 
 165 0597 0F91731F 		.ascii	"\017\221s\037\375\226\264\367\350\354\377\337\241\356"
 165      FD96B4F7 
 165      E8ECFFDF 
 165      A1EE
 166 05a5 AC3333B2 		.ascii	"\25433\262\315l\266.)\014\321$Q\177\331Uc\023\365\240"
 166      CD6CB62E 
ARM GAS  /tmp/ccaITzYq.s 			page 13


 166      290CD124 
 166      517FD955 
 166      6313F5A0 
 167 05b9 226AB726 		.ascii	"\"j\267&\352\234\014D=O\365\317\005p\030Q%TC\007\311"
 167      EA9C0C44 
 167      3D4FF5CF 
 167      05701851 
 167      25544307 
 168 05ce 5C45D4F3 		.ascii	"\\E\324\363\324\265\203\324\265\032\311\224m\003I;N"
 168      D4B583D4 
 168      B51AC994 
 168      6D03493B 
 168      4E
 169 05df EDFFEFC3 		.ascii	"\355\377\357\303\371\254}\250\311\326\207Z\365\265\032"
 169      F9AC7DA8 
 169      C9D6875A 
 169      F5B51A
 170 05ee D8759F2E 		.ascii	"\330u\237.\244N\225G\007\215T\315\2433\274\316>\215"
 170      A44E9547 
 170      078D54CD 
 170      A333BCCE 
 170      3E8D
 171 0600 A5763E9D 		.ascii	"\245v>\235\331\363\354\343Gj\027\000\220~\374Hd!\200"
 171      D9F3ECE3 
 171      476A1700 
 171      907EFC48 
 171      642180
 172 0613 83FBEC7C 		.ascii	"\203\373\354|\326}\226\261h\275\317\026\312(g\006n\210"
 172      D67D96B1 
 172      68BDCF16 
 172      CA286706 
 172      6E88
 173 0625 91269F95 		.ascii	"\221&\237\225\0045\232\004y\370\015\220\367B\315k\223"
 173      04359A04 
 173      79F80D90 
 173      F742CD6B 
 173      93
 174 0636 721CBF79 		.ascii	"r\034\277y\253O\014!ZX\327\232g\3470\2359,\365t\251"
 174      AB4F0C21 
 174      5A58D79A 
 174      67E7309D 
 174      392CF574 
 175 064b 1C7E1967 		.ascii	"\034~\031g\333\237\303\343xs\211\343Vq8\336\001\333"
 175      DB9FC3E3 
 175      787389E3 
 175      567138DE 
 175      01DB
 176 065d 3B7F716B 		.ascii	";\177qkR:\257\201B\031\351k \220\360\347\261z\203-R"
 176      523AAF81 
 176      4219E96B 
 176      2090F0E7 
 176      B17A832D 
 177 0672 9185BC07 		.ascii	"\221\205\274\007\237e&\354\332\300\265\201f`W\350\275"
 177      9F6526EC 
 177      DAC0B581 
 177      666057E8 
 177      BD
ARM GAS  /tmp/ccaITzYq.s 			page 14


 178 0683 1B8FC123 		.ascii	"\033\217\301#L]\310g\003\275\314@\213B\320\271\177o"
 178      4C5DC867 
 178      03BDCC40 
 178      8B42D0B9 
 178      7F6F
 179 0695 01E921A4 		.ascii	"\001\351!\244\230\301\257y\256\033$o\204\206:\354>\355"
 179      98C1AF79 
 179      AE1B246F 
 179      84863AEC 
 179      3EED
 180 06a7 E3FABE59 		.ascii	"\343\372\276Y\220\221\302Y\226\200\276\315\327Z\253"
 180      9091C259 
 180      9680BECD 
 180      D75AAB
 181 06b6 ED0083A6 		.ascii	"\355\000\203\246\252V\243\221\027\346\303M=\342\272"
 181      AA56A391 
 181      17E6C34D 
 181      3DE2BA
 182 06c5 F0FD282C 		.ascii	"\360\375(,%\302z\014\003:q\261#\232\351B\234\336\011"
 182      25C27A0C 
 182      033A71B1 
 182      239AE942 
 182      9CDE09
 183 06d8 B860EDF9 		.ascii	"\270`\355\371\301.p1\225\226\237\371\002\354q\226\024"
 183      C12E7031 
 183      95969FF9 
 183      02EC7196 
 183      14
 184 06e9 B45DD024 		.ascii	"\264]\320$\2379\376\226\303\255g\277!\317\214Ko\334"
 184      9F39FE96 
 184      C3AD67BF 
 184      21CF8C4B 
 184      6FDC
 185 06fb A70D97A8 		.ascii	"\247\015\227\250\023\302t\234\020\022y\000@\373\247"
 185      13C2749C 
 185      10127900 
 185      40FBA7
 186 070a C129F65C 		.ascii	"\301)\366\\b\224F\226B|&-D\024\357\330\216\037\016\222"
 186      62944696 
 186      427C262D 
 186      4414EFD8 
 186      8E1F0E92 
 187 071e 864B653D 		.ascii	"\206Ke=\311C\021\333'\255GXP!{\023\013j;~\346\255/U"
 187      C94311DB 
 187      27AD4758 
 187      50217B13 
 187      0B6A3B7E 
 188 0736 807FA7D9 		.ascii	"\200\177\247\331\322\021hF\264\317\020'\235\366\031"
 188      D2116846 
 188      B4CF1027 
 188      9DF619
 189 0745 E30CA13D 		.ascii	"\343\014\241=\320\360\217\011\272\356e\312C\014\376"
 189      D0F08F09 
 189      BAEE65CA 
 189      430CFE
 190 0754 1C2BC29F 		.ascii	"\034+\302\237c}\254\325\203\036\226\\p\013\010\233\367"
 190      637DACD5 
ARM GAS  /tmp/ccaITzYq.s 			page 15


 190      831E965C 
 190      700B089B 
 190      F7
 191 0765 06506F59 		.ascii	"\006PoY\341\217/\323\372\000P\320\2759\250^\361\207"
 191      E18F2FD3 
 191      FA0050D0 
 191      BD39A85E 
 191      F187
 192 0777 C8C350E6 		.ascii	"\310\303P\346v\013\227zREE\245\374_\275\246\262auS\323"
 192      760B977A 
 192      524545A5 
 192      FC5FBDA6 
 192      B2617553 
 193 078c EAA7E0ED 		.ascii	"\352\247\340\355\311\350\212\3125\3174T6\254Z\365D}"
 193      C9E88ACA 
 193      35CF3454 
 193      36AC5AF5 
 193      447D
 194 079e 73450333 		.ascii	"sE\0033W5WTY\365 g\222\2546W6W\334-\236n\026\253\232"
 194      57355754 
 194      59F52067 
 194      92AC3657 
 194      3657DC2D 
 195 07b7 ADE6FAC6 		.ascii	"\255\346\372\306'\326\210\225\315\006 \256\0254\372"
 195      27D68895 
 195      CD0620AE 
 195      1534FA
 196 07c6 07C21218 		.ascii	"\007\302\022\030N"
 196      4E
 197              		.text
 198              		.section	.gnu.lto_chHeapFree.e4a27268bee491c4,"",%progbits
 199 0000 789C9D55 		.ascii	"x\234\235U]h\034U\024>\347\316\314\316\354\314\230."
 199      5D681C55 
 199      143EE7CE 
 199      CCCEECCC 
 199      982E
 200 0012 B469B221 		.ascii	"\264i\262!4\2334\254lZ\262\210\026\237\304g\337\033"
 200      349B34AC 
 200      6C5AB288 
 200      169FC467 
 200      DF1B
 201 0024 D0C76495 		.ascii	"\320\307d\225d\2511\261}k\036:\331\315C\260\010\241"
 201      64A931B1 
 201      7D6B1E3A 
 201      D9CD43B0 
 201      08A1
 202 0036 A226D687 		.ascii	"\242&\326\207\004i\005_\212TB!\320l\202B\023l\253\215"
 202      0469055F 
 202      8A544221 
 202      D06C8242 
 202      136CAB8D 
 203 004a D034148C 		.ascii	"\3204\024\214\021[\372$X\220\270\024\307s\177fvv\235"
 203      115BFA24 
 203      5890B814 
 203      C7737F66 
 203      76769D
 204 005d A69B0CBB 		.ascii	"\246\233\014\273\347\376\234{\277s\356w\277{/\003\006"
ARM GAS  /tmp/ccaITzYq.s 			page 16


 204      E7FE9C7B 
 204      BF73EE77 
 204      BF7B2F03 
 204      06
 205 006e 8DDF3CFD 		.ascii	"\215\337<\375'l\200\327\250\304\227\000\331\314\035"
 205      276C80D7 
 205      A8C49700 
 205      D9CC1D
 206 007d 80498BA1 		.ascii	"\200I\213\241&+\0323\036:\340\331\372w\253\000\236\253"
 206      262B1A33 
 206      1E3AE0D9 
 206      FA77AB00 
 206      9EAB
 207 008f 3363FA65 		.ascii	"3c\372ej:\334\272\0063W5j%\356\254sgB5\035\3314\231"
 207      6A3ADCBA 
 207      06335735 
 207      6A25EEAC 
 207      73674235 
 208 00a7 25A626E5 		.ascii	"%\246&\345T\013\223\0222\311l\321\357\312~\033]\331"
 208      540B9312 
 208      32C96CD1 
 208      EFCA7E1B 
 208      5DD9
 209 00b9 EFC8982B 		.ascii	"\357\310\230+\226\213\310+\200p\201i\272\2210\255\244"
 209      968BC82B 
 209      80708169 
 209      BA9130AD 
 209      A4
 210 00ca EDB878E1 		.ascii	"\355\270x\341\035\344\031k=\260\340y\227\266\177\270"
 210      1DE4196B 
 210      3DB0E079 
 210      97B67FB8 
 211 00da 768FCD79 		.ascii	"v\217\315y\225\251y\357\231\357#\026\221V\227C( \274"
 211      95A979EF 
 211      99EF2316 
 211      91569743 
 211      2820BC
 212 00ed 4D0DCC88 		.ascii	"M\015\314\210\202\351\365\313\225s\275_\337\275\345"
 212      82E9F5CB 
 212      9573BD5F 
 212      DFBDE5
 213 00fc 4D557CFF 		.ascii	"MU|\377M1\353ds\263*\376\245O\323\336|i\306\373\227"
 213      4D31EB64 
 213      73B32AFE 
 213      A54FD3DE 
 213      7C69C6FB 
 214 0111 02165163 		.ascii	"\002\026Qc\220\177\321\314k\254\262\355\373\017?\177"
 214      907FD1CC 
 214      6BACB2ED 
 214      FB0F3F7F 
 215 0121 F2DB97D8 		.ascii	"\362\333\227\330\332\2070\210\013\330\003:\216\"\030"
 215      DA873088 
 215      0BD8033A 
 215      8E2218
 216 0130 D4F88A1A 		.ascii	"\324\370\212\032&\225W\250\264\2243\011E\324mn\034n"
 216      269557A8 
 216      B4943309 
ARM GAS  /tmp/ccaITzYq.s 			page 17


 216      45D46D6E 
 216      1C6E
 217 0142 5C6E5AC8 		.ascii	"\\nZ\310\030)2p\2307\217\220a\255\334\034\345}m\334"
 217      18293270 
 217      98378F90 
 217      61ADDC1C 
 217      E57D6DDC 
 218 0156 B473479A 		.ascii	"\264sG\232\233\016n:y\3371^\353\342\3432\334t\363\276"
 218      9B0E6E3A 
 218      79DF315E 
 218      EBE2E332 
 218      DC74F3BE 
 219 016a 1EDE779C 		.ascii	"\036\336w\234\233^n\262\274/\247B\323g\300\224\347\315"
 219      9B5E6EB2 
 219      BC2FA742 
 219      D367C094 
 219      E7CD
 220 017c 64645B26 		.ascii	"dd[&(\323\033Eb\277 v\3404\331\252\006\003\310\250\320"
 220      28D31B45 
 220      62BF2076 
 220      E034D9AA 
 220      0603C8A8 
 221 0191 6E43F962 		.ascii	"nC\371b\371\372\325\304 ~\215\006\014\2431\214\272\240"
 221      F9FAD5C4 
 221      207E8D06 
 221      0CA3318C 
 221      BAA0
 222 01a3 62D7F7FD 		.ascii	"b\327\367\375C4|\015\230\364I8\032\001p\033J[\233\327"
 222      43347C0D 
 222      98F44938 
 222      1A01701B 
 222      4A5B9BD7 
 223 01b7 D7319864 		.ascii	"\3271\230d\236\200o<\372^'ZO@_\021\023\227\341\013\002"
 223      9E806F3C 
 223      FA5E275A 
 223      4F405F11 
 223      1397E10B 
 224 01cc 31151804 		.ascii	"1\025\030\004`0\204\222\331!T\025\302/U\322A\204+\""
 224      60308492 
 224      D9215415 
 224      C22F55D2 
 224      41842B22 
 225 01e0 82292254 		.ascii	"\202)\"T\313\313\265\264\254\011\250\362\010\257\020"
 225      CBCBB5B4 
 225      AC09A8F2 
 225      08AF10
 226 01ef 980AF606 		.ascii	"\230\012\366\006\341\3130\026M\341a4\005\0359'\034="
 226      E1CB3016 
 226      4DE16134 
 226      051D3927 
 226      1C3D
 227 0201 11A02F08 		.ascii	"\021\240/\010tK\345\277\270\316\002\364\244H:\331l\352"
 227      744BE5BF 
 227      B8CE02F4 
 227      A4483AD9 
 227      6CEA
 228 0213 9A0227EE 		.ascii	"\232\002'\356\246\265\000\303&\030>!iJ\317R\350q\310"
ARM GAS  /tmp/ccaITzYq.s 			page 18


 228      A6B500C3 
 228      26183E21 
 228      694ACF52 
 228      E871C8
 229 0226 293C0114 		.ascii	")<\001\024y?.\377y\365L0\300\2451b\200%\234\245\265"
 229      793F2EFF 
 229      79F54C30 
 229      C0A53162 
 229      80259CA5 
 230 023b CDC5AAE2 		.ascii	"\315\305\252\342V\255\325\014\262\263\237\237\235\256"
 230      56ADD50C 
 230      B2B39F9F 
 230      9DAE
 231 0249 B2334449 		.ascii	"\2623DI\250\212\305\177\262A\234\226\0118OJ\024@N<u"
 231      A88AC57F 
 231      B2419C96 
 231      09384F4A 
 231      14404E3C 
 232 025e 891A7577 		.ascii	"\211\032uwA\227\023\351\212!\362\247\275T\021\335\202"
 232      419713E9 
 232      8A21F2A7 
 232      BD5411DD 
 232      82
 233 026f DA37022B 		.ascii	"\3327\002+\322\205#\276\001\232M'^#\256i\001\001\315"
 233      D28523BE 
 233      019A4D27 
 233      5E23AE69 
 233      0101CD
 234 0282 34EE167C 		.ascii	"4\356\026|\377x\345\376'n\020\037\005\371\362{\000\324"
 234      FF78E5FE 
 234      276E101F 
 234      05F9F27B 
 234      00D4
 235 0294 CA39BF7C 		.ascii	"\3129\277|\313;\331\263\2714\307\321\201.\025\215\246"
 235      CB3BD9B3 
 235      B934C7D1 
 235      812E158D 
 235      A6
 236 02a5 3D5AB9BF 		.ascii	"=Z\271\277\321\033\221$\326\322\032\240\276\277Oj|\013"
 236      D11B9124 
 236      D6D21AA0 
 236      BEBF4F6A 
 236      7C0B
 237 02b7 6797B642 		.ascii	"g\227\266B\011\246\304\252\240\201$\024$A=A\246B\222"
 237      09A6C4AA 
 237      A0812414 
 237      24413D41 
 237      A64292
 238 02ca E96DE443 		.ascii	"\351m\344C\210\332\3400V\002\236\366\361\204\376Xy\260"
 238      88DAE030 
 238      56029EF6 
 238      F184FE58 
 238      79B0
 239 02dc D1154928 		.ascii	"\321\025I(\025\035d\312\203D\373\266t\217\325\355\333"
 239      151D64CA 
 239      8344FBB6 
 239      748FD5ED 
ARM GAS  /tmp/ccaITzYq.s 			page 19


 239      DB
 240 02ed A1FFA7F4 		.ascii	"\241\377\247\364\334}3\025\261)\251\201\335&\260\366"
 240      DC7D3315 
 240      B129A981 
 240      DD26B0F6 
 241 02fd 585E784E 		.ascii	"X^xNo\334\254\221t8\242\363\246\225\324\240\363#\004"
 241      6FDCAC91 
 241      7438A2F3 
 241      A695D4A0 
 241      F32304
 242 0310 232E0894 		.ascii	"#.\010\224\236\217BO+9\205G\312\270|1\364\034\025\234"
 242      9E8F424F 
 242      2B398547 
 242      CAB87C31 
 242      F41C159C 
 243 0324 B5CA847E 		.ascii	"\265\312\204~j\011\272\333b\367\354\005\004\311}\233"
 243      6A09BADB 
 243      62F7EC05 
 243      04C97D9B 
 244 0334 3C15C16E 		.ascii	"<\025\301n\213n\206\005?\202P\307\356\315\3250\201\366"
 244      8B6E8605 
 244      3F8250C7 
 244      EECDD530 
 244      81F6
 245 0346 D885B7C5 		.ascii	"\330\205\267\305\321\027]ty1\244.M\313&\234\0062:\310"
 245      D1175D74 
 245      7931A42E 
 245      4DCB269C 
 245      06323AC8 
 246 035a 214EAE24 		.ascii	"!N\256$\243\364Vt\307R\"\242\252\355\343\340vH\236f"
 246      A3F45674 
 246      C75222A2 
 246      AAEDE3E0 
 246      76489E66 
 247 036e 97FF0A2F 		.ascii	"\227\377\012/\250\316X\246b\3637\303\374Kk3N\235\202"
 247      A8CE58A6 
 247      62F337C3 
 247      FC4B6B33 
 247      4E9D82
 248 0381 5E3D801A 		.ascii	"^=\200\032;\003^\223J\344[\233\313;!+\307by\215\225"
 248      3B035E93 
 248      4AE45B9B 
 248      CB3B212B 
 248      C762798D 
 249 0396 65AC98BA 		.ascii	"e\254\230\272\010\"^L\031r\306\213\251[\\$\231F\035"
 249      08225E4C 
 249      1972C68B 
 249      A95B5C24 
 249      99461D
 250 03a9 740F8721 		.ascii	"t\017\207!D\276v\240\203\331\235\232\016z\016~\000\""
 250      44BE76A0 
 250      83D99D9A 
 250      0E7A0E7E 
 250      0022
 251 03bb 5A384E59 		.ascii	"Z8NY\017\363\007\267n-\275\344\330\257\026\366`\212"
 251      0FF307B7 
 251      6E2DBDE4 
ARM GAS  /tmp/ccaITzYq.s 			page 20


 251      D8AF16F6 
 251      608A
 252 03cd 00D501DE 		.ascii	"\000\325\001\336\251\351 {\260\023\323\234\026\366\274"
 252      A9E9207B 
 252      B013D39C 
 252      16F6BC
 253 03dc 4DB201AF 		.ascii	"M\262\001\257\016|\266.\211\275\361\373jHIN\301\236"
 253      0E7CB62E 
 253      89BDF1FB 
 253      6A48494E 
 253      C19E
 254 03ee DAE71DCC 		.ascii	"\332\347\035\314\337\347\366\372\3679\027Dr\271\342"
 254      DFE7F6FA 
 254      F7391744 
 254      72B9E2
 255 03fd EEC2D4F6 		.ascii	"\356\302\324\366\334\231\270\207\210\251\314\344C\364"
 255      DC99B887 
 255      88A9CCE4 
 255      43F4
 256 040b 334CCE5F 		.ascii	"3L\316_v\202q\362;M\357FU\343\343\262\375\375y\371\033"
 256      768271F2 
 256      3B4DEF46 
 256      55E3E3B2 
 256      FDFD79F9 
 257 0420 3B972F8C 		.ascii	";\227/\214\215\216\216}@\265\367\213C\371sg\013\371"
 257      8D8E8E7D 
 257      40B5F78B 
 257      43F97367 
 257      0BF9
 258 0432 C2C8C87B 		.ascii	"\302\310\310{\203\343\375\005`\037\216\263\221q\203"
 258      83E3FD05 
 258      601F8EB3 
 258      917183
 259 0441 B7C6FF03 		.ascii	"\267\306\377\003\245\317PP"
 259      A5CF5050 
 260              		.text
 261              		.section	.gnu.lto_chHeapStatus.e4a27268bee491c4,"",%progbits
 262 0000 789C8D54 		.ascii	"x\234\215T\335kTG\024?g\346~\355\375\330M\224\004\002"
 262      DD6B5447 
 262      143F67E6 
 262      7EEDFDD8 
 262      4D940402 
 263 0014 3E8842A5 		.ascii	">\210B\245U6\224R(h)\375\037\014\324\307u+\353\005\327"
 263      55369452 
 263      286829FD 
 263      1F0CD4C7 
 263      752BEB05 
 264 0029 C4A62FD5 		.ascii	"\304\246/\325\007'\331\005\203M!(\255\324\372\020I%"
 264      0727D905 
 264      834D2128 
 264      ADD4FA10 
 264      4925
 265 003b D84252AA 		.ascii	"\330BR\252`\313*l\304j\374\250A_j\254\017\213\017\246"
 265      60CB2A6C 
 265      C46AFCA8 
 265      415F6AAC 
 265      0F8B0FA6 
ARM GAS  /tmp/ccaITzYq.s 			page 21


 266 004f A50B6D1F 		.ascii	"\245\013m\037\032\304\244\335\236\231\271\263\037aA"
 266      1AC4A4DD 
 266      9E99B9B3 
 266      1F6141
 267 005e 97E49EB9 		.ascii	"\227\344\236\271\347\374~\347\373\016\003\006\033\177"
 267      E7FC7EE7 
 267      FB0E0306 
 267      1B7F
 268 006c 5FD3BFED 		.ascii	"_\323\277\355\002\274O\022\323\200l\352>\300\230\307"
 268      02BC4F12 
 268      D3806CEA 
 268      3EC098C7 
 269 007c 187F1280 		.ascii	"\030\177\022\200\360\255\313\327\001D\310\321\322z\013"
 269      F0ADCBD7 
 269      0144C8D1 
 269      D27A0B
 270 008b 3D7DB099 		.ascii	"=}\260\2313\261\203\000\256|\206\016\272Z\355j\373\202"
 270      33B18300 
 270      AE7C860E 
 270      BA5AED6A 
 270      FB82
 271 009d E7317BF2 		.ascii	"\3471{\362\026Q\375T\331%@\212\371\312\223\037H\267"
 271      1651FD54 
 271      D925408A 
 271      F9CA931F 
 271      48B7
 272 00af A18F81C6 		.ascii	"\241\217\201\306\007,<{S\352\243U\011\0131\322\372\010"
 272      072C3C7B 
 272      53EAA355 
 272      090B31D2 
 272      FA08
 273 00c1 511E00E1 		.ascii	"Q\036\000\3418\343\226\355\270^\312\017\302\010\217"
 273      38E396ED 
 273      B85ECA0F 
 273      C2088F
 274 00d0 EF4399B5 		.ascii	"\357C\231\265\265\015\316\013q\252\366\323\237\017\331"
 274      B50DCE0B 
 274      71AAF6D3 
 274      9F0FD9
 275 00df 97A25A9E 		.ascii	"\227\242Z\236\026\353\215\006b\214T\341\353\010y\204"
 275      16EB8D06 
 275      628C54E1 
 275      EB087984 
 276 00ef 0FE805B7 		.ascii	"\017\350\005\267*\301\254\316\2225\267\332\370\342\263"
 276      2AC1ACCE 
 276      9235B7DA 
 276      F8E2B3
 277 00fe 01313D3E 		.ascii	"\0011=>%\376#j\214\234\301\256Wc\212\312\207\213\242"
 277      25FE236A 
 277      8C9CC1AE 
 277      57638ACA 
 277      878BA2
 278 0111 5C6D34DE 		.ascii	"\\m4\336S\254\354+\262~\355`\275\3752\326<\253\326\032"
 278      53ACEC2B 
 278      B27EED60 
 278      BDFD32D6 
 278      3CABD61A 
ARM GAS  /tmp/ccaITzYq.s 			page 22


 279 0125 8D2757FE 		.ascii	"\215'W\376\231\274\212\277\261\001\204\242,.\207\347"
 279      99BC8ABF 
 279      B10184A2 
 279      2C2E87E7 
 280 0135 711B7092 		.ascii	"q\033p\2223$-\222\027H\332$gI:\211L!\201}\210\321\212"
 280      33242D92 
 280      1748DA24 
 280      67493A89 
 280      4C21817D 
 281 014c 12469A5E 		.ascii	"\022F\232^ \223\230{\022zoB\337Dp\334L\010\273\217N"
 281      2093987B 
 281      127A6F42 
 281      DF4470DC 
 281      4C08BB8F 
 282 0161 AC5F9EE4 		.ascii	"\254_\236\344Z@Y\210\251\255\332\201fh\274\366\002\262"
 282      5A405988 
 282      A9ADDA81 
 282      6668BCF6 
 282      02B2
 283 0173 00FAEDA5 		.ascii	"\000\372\355\245'\315x\010\031\011\276\0107V\026N\237"
 283      27CD7808 
 283      1909BE08 
 283      3756164E 
 283      9F
 284 0184 E139BC48 		.ascii	"\3419\274HN\012\230\222\2659\355\205\015!\207\023\310"
 284      4E0A9892 
 284      B539ED85 
 284      0D218713 
 284      C8
 285 0195 6FC378ED 		.ascii	"o\303x\355\316\037\216\306Q\272\307\340\205\230\020"
 285      CE1F8EC6 
 285      51BAC7E0 
 285      859810
 286 01a4 6237A18B 		.ascii	"b7\241\213\204h\241-\351\226\320\036HX\001)\334\317"
 286      8468A12D 
 286      E996D01E 
 286      48580129 
 286      DCCF
 287 01b6 30FEA274 		.ascii	"0\376\242te\256\031\304?\006G\251\330\235\360F\214\356"
 287      65AE19C4 
 287      3F0647A9 
 287      D89DF046 
 287      8CEE
 288 01c8 57709642 		.ascii	"Wp\226Bz\004l\205\336\217m\011,\201\245\211\220\004"
 288      7A046C85 
 288      DE8F6D09 
 288      2C81A589 
 288      9004
 289 01da ED893195 		.ascii	"\355\2111\225G\015!g1\372\0002\275\373w\223\364t\331"
 289      470D2167 
 289      31FA0032 
 289      BDFB7793 
 289      F474D9
 290 01ed D29D2449 		.ascii	"\322\235$I\333\364R`L\263\033L\265G\337\242\261\315"
 290      DBF45260 
 290      4CB31B4C 
 290      B547DFA2 
ARM GAS  /tmp/ccaITzYq.s 			page 23


 290      B1CD
 291 01ff B4DB54D6 		.ascii	"\264\333T\326+s\216\311:\222\321\351\367&\215f'|#\217"
 291      2B738EC9 
 291      3A92D1E9 
 291      F7268D66 
 291      277C238F 
 292 0213 EFC61874 		.ascii	"\357\306\030t\317\277\255\000\212Qm&&gC\256\244~\031"
 292      CFBFAD00 
 292      8A516D26 
 292      266743AE 
 292      A47E19
 293 0226 90FACD50 		.ascii	"\220\372\315P\027U\375\374\227t\263\227\374\007.[i\003"
 293      1755FDFC 
 293      9774B397 
 293      FC072E5B 
 293      6903
 294 0238 7D939CF2 		.ascii	"}\223\234\362x\374|\365)&\363M\326\363{!R\3523\342j"
 294      78FC7CF5 
 294      2926F34D 
 294      D6F37B21 
 294      52EA33E2 
 295 024d 3FF7BC6C 		.ascii	"?\367\274l?\001L\023)~&\311\177\037q\325\024B]EP\300"
 295      3F014C13 
 295      297E26C9 
 295      7F1F71D5 
 295      14425D45 
 296 0263 B4244352 		.ascii	"\264$CR\005K$o+eK\016/\251R.\253R2\262Q\245\211\322"
 296      054B246F 
 296      2B654B0E 
 296      2FA9522E 
 296      AB5232B2 
 297 027b 9A6CD425 		.ascii	"\232l\324%\325\250\236\002r\351\205\243\2420C\230Q\204"
 297      D5A89E02 
 297      72E985A3 
 297      A2304398 
 297      5184
 298 028d 9E84D098 		.ascii	"\236\204\320\230\333b\010\275\005\264\224\2476\360\005"
 298      DB6208BD 
 298      05B494A7 
 298      36F005
 299 029c 05EE05A0 		.ascii	"\005\356\005\240\015}\266\360\340Lh\300\231B\373~\016"
 299      0D7DB6F0 
 299      E04C68C0 
 299      9942FB7E 
 299      0E
 300 02ad D1CBCDED 		.ascii	"\321\313\315\355j;\177\277\353\032\362\254IMC\\\325"
 300      6A3B7FBF 
 300      EB1AF2AC 
 300      494D435C 
 300      D5
 301 02be 47BD93C6 		.ascii	"G\275\223\306h\353\341\327?u\014I\217&\255GcS\024\233"
 301      68EBE1D7 
 301      3F750C49 
 301      8F26AD47 
 301      6353149B 
 302 02d2 E69371CE 		.ascii	"\346\223q\316]\373D\372\360\200.\270\015>\034\345C)"
 302      5DFB44FA 
ARM GAS  /tmp/ccaITzYq.s 			page 24


 302      F0802EB8 
 302      0D3E1CE5 
 302      4329
 303 02e4 74BA564B 		.ascii	"t\272VK\241\213\345-\205v\317\324^=~\264\372\020\315"
 303      A18BE52D 
 303      8576CFD4 
 303      5E3D7EB4 
 303      FA10CD
 304 02f7 5EA5D504 		.ascii	"^\245\325\004`\303\034X\2679\230\231.B\271>\366V\323"
 304      60C31C58 
 304      B7399899 
 304      2E42B93E 
 304      F656D3
 305 030a 410B0A3A 		.ascii	"A\013\012:{F+f\235\253\014\220\315\275w-\267\014<\331"
 305      7B462B66 
 305      9DAB0C90 
 305      CDBD772D 
 305      B70C3CD9 
 306 031e 6A6BB2D2 		.ascii	"jk\262\322G#p\353\225\201e\260\214\262\376cL\255v\327"
 306      472370EB 
 306      958165B0 
 306      8CB2FE63 
 306      4CAD76D7 
 307 0332 2B4796C1 		.ascii	"+G\226\3011\312u\251\264]\224\305\247\364UQ\256/\374"
 307      31CA75A9 
 307      B45D94C5 
 307      A7F45551 
 307      AE2FFC
 308 0345 DDBA2A36 		.ascii	"\335\272*6Id\324yU\370\360\257M\013[:YZ\231\317\032"
 308      4964D479 
 308      55F8F0AF 
 308      4D0B5B3A 
 308      595A99CF 
 309 035a E0666A8C 		.ascii	"\340fj\214\332\007O\177U\267\277s\265\211\212\035\243"
 309      DA074F7F 
 309      55B7BF73 
 309      B5898A1D 
 309      A3
 310 036b 2D0CC8D4 		.ascii	"-\014\310\324\341\216(\306a\320\214\274\326\212\334"
 310      E18E28C6 
 310      61D08CBC 
 310      D68ADC
 311 037a D7257208 		.ascii	"\327%r\010\027\035\035ym\376\035\003\354\247\031uD\376"
 311      171D1D79 
 311      6DFE1D03 
 311      ECA71975 
 311      44FE
 312 038c AB5BE4BE 		.ascii	"\253[\344\276\366\310\375\306a$#/A\2716Q\354v\375\260"
 312      F6C8FDC6 
 312      6124232F 
 312      41B93651 
 312      EC76FDB0 
 313 03a0 8EEBE701 		.ascii	"\216\353\347\001\214M\237\214L\330\344s\331K\267@\331"
 313      8C4D9F8C 
 313      4CD8E473 
 313      D94BB740 
 313      D9
ARM GAS  /tmp/ccaITzYq.s 			page 25


 314 03b1 95C0D7B2 		.ascii	"\225\300\327\262\331A\3757<:\230\037.\026\207\017\323"
 314      D941FD37 
 314      3C3A981F 
 314      2E16870F 
 314      D3
 315 03c2 E950BC7F 		.ascii	"\351P\274\177p\364\243\374`\376\340\301\003\271\221"
 315      70F4A3FC 
 315      60FEE0C1 
 315      03B991
 316 03d1 6C1ED891 		.ascii	"l\036\330\221\021<\354|<\222+\034\030u\016)a\253\347"
 316      113CEC7C 
 316      3C922B1C 
 316      18750E29 
 316      61ABE7
 317 03e4 FF413CAC 		.ascii	"\377A<\254^"
 317      5E
 318              		.text
 319              		.section	.gnu.lto_.symbol_nodes.e4a27268bee491c4,"",%progbits
 320 0000 789C4D8C 		.ascii	"x\234M\214\273\012\302P\020Dg\356\336\233\307W\344\267"
 320      BB0AC250 
 320      104467EE 
 320      DE9BC757 
 320      E4B7
 321 0012 FC9B8D04 		.ascii	"\374\233\215\004\324R\004\215/\264Hc\341_\330[\333\010"
 321      D452048D 
 321      2FB44863 
 321      E15FD85B 
 321      DB08
 322 0024 91148AA6 		.ascii	"\221\024\212\246\263\027\257\032L\2669\234\331a\014"
 322      B317AF1A 
 322      4CB6399C 
 322      D9610C
 323 0033 0CCE68CE 		.ascii	"\014\316h\316\314\250\300\370\010\250nFtS\302\252pE"
 323      CCA8C0F8 
 323      08A86E46 
 323      7453C2AA 
 323      7045
 324 0045 E52F4DFB 		.ascii	"\345/M\37349\325\264\0353\247JG\027T\333\321%\325\265"
 324      3439D5B4 
 324      1D33A74A 
 324      471754DB 
 324      D125D5B5 
 325 0059 CA353568 		.ascii	"\31255h\226RrK\015[\333P\243\277\011BT\345\213\"!\212"
 325      9652724B 
 325      0D5BDB50 
 325      A3BF0942 
 325      54E58B22 
 326 006f 419D888D 		.ascii	"A\235\210\215Q}\031\241\270\236z\037\036\356\345^\254"
 326      517D19A1 
 326      B89E7A1F 
 326      1EEEE55E 
 326      AC
 327 0080 C5F371DB 		.ascii	"\305\363q\333\211\270\030\331\320\027\234\177\344\236"
 327      89B818D9 
 327      D0179C7F 
 327      E49E
 328 008e 81F78B1F 		.ascii	"\201\367\213\037\010\"d\223:\301\033\265IC\210"
ARM GAS  /tmp/ccaITzYq.s 			page 26


 328      08226493 
 328      3AC11BB5 
 328      494388
 329              		.text
 330              		.section	.gnu.lto_.refs.e4a27268bee491c4,"",%progbits
 331 0000 789C6362 		.ascii	"x\234cb`b\020e\200\000V\006FF&&F \000\022,@\314\306"
 331      60621065 
 331      80005606 
 331      46462626 
 331      46200012 
 332 0018 C4C80000 		.ascii	"\304\310\000\000\004\212\000>"
 332      048A003E 
 333              		.text
 334              		.section	.gnu.lto_.decls.e4a27268bee491c4,"",%progbits
 335 0000 789CBD5A 		.ascii	"x\234\275Z\013pT\325\031>\347\356#\273IT\204\321A\253"
 335      0B7054D5 
 335      193EE7EE 
 335      23BB4954 
 335      84D141AB 
 336 0014 4374D4B1 		.ascii	"Ct\324\261V\010\326\027v\246\242C\247\342Lm;\3558\243"
 336      5608D617 
 336      76A6A243 
 336      A7E24C6D 
 336      3BED38A3 
 337 0028 3375D6CB 		.ascii	"3u\326\313\346\222,\356\253\2737<\234\251^\026\214!"
 337      E6922CEE 
 337      ABBB373C 
 337      9CA95E16 
 337      8C21
 338 003a 80098108 		.ascii	"\200\011\201\010\224\207A\015\005\013\205\360\250A,"
 338      9487410D 
 338      050B85F0 
 338      A8412C
 339 0049 2C080113 		.ascii	",\010\001\023\206g\221ZDV\001\255\017,i\014\017yl\377"
 339      8667915A 
 339      445601AD 
 339      0F2C690C 
 339      0F796CFF 
 340 005d 73EEB977 		.ascii	"s\356\271w\357=\271ws7\251\275\223{\356\353\374\337"
 340      EF3DB977 
 340      7337A9BD 
 340      937BEEEB 
 340      FCDF
 341 006f F9FFEFFF 		.ascii	"\371\377\357\377\317\371\3179\033\001\011\350n\027B"
 341      CFF9CF39 
 341      1B0109E8 
 341      6E1742
 342 007e 5938FE54 		.ascii	"Y8\376T\216P\255\007!/B\350a\244^\227\301\371:\234O"
 342      8E50AD07 
 342      212F42E8 
 342      61A45E97 
 342      C1F93A9C 
 343 0093 63847E07 		.ascii	"c\204~\007'|F\265p\205?T\003\205\037\2563\340:\033\316"
 343      277C46B5 
 343      70853F54 
 343      03851FAE 
 343      33E03A1B 
ARM GAS  /tmp/ccaITzYq.s 			page 27


 344 00a8 7A3817C1 		.ascii	"z8\027\301\331\002\347*8\333\340|\027\316-\254~\232"
 344      D902E72A 
 344      38DBE07C 
 344      17CE2DAC 
 344      7E9A
 345 00ba 148683C8 		.ascii	"\024\206\203\310\225\302\265\002\256\3170\374\011pN"
 345      95C2B502 
 345      AECF30FC 
 345      09704E
 346 00c9 8173229C 		.ascii	"\201s\"\234\021\254\266\273\035\347\364\330\204U\275"
 346      11ACB6BB 
 346      1DE7F4D8 
 346      8455BD
 347 00d8 82700DC3 		.ascii	"\202p\015\303Y\015\347d8\237\307\252>.\203>m6\355\022"
 347      590DE764 
 347      389FC7AA 
 347      3E2E833E 
 347      6D36ED12 
 348 00ec 3DAF46AA 		.ascii	"=\257F\252-\004w\012{\346u1\352@\332&z\364\325\276\300"
 348      2D04770A 
 348      7BE67531 
 348      EA40DA26 
 348      7AF4D5BE 
 349 0101 F049DB6E 		.ascii	"\360I\333n\270\237\017\327&8\027\302\371\036\247\007"
 349      B89F0FD7 
 349      263817C2 
 349      F91EA707 
 350 0111 E16A0852 		.ascii	"\341j\010R\353i\355Oa\355\2156\3507\201\351Ctx\006\347"
 350      EB69ED4F 
 350      61ED8D36 
 350      E83781E9 
 350      43747806 
 351 0126 F488301D 		.ascii	"\364\2100\035_\300\252\336\022\363G\215A\267\347\231"
 351      5FC0AADE 
 351      12F3478D 
 351      41B7E799 
 352 0136 7E7F8033 		.ascii	"~\177\2003\005\247\202U\335]\254\375-\314G\264-\270"
 352      05A78255 
 352      DD5DACFD 
 352      2DCC47B4 
 352      2DB8
 353 0148 BE41DA81 		.ascii	"\276A\332\201\363}\334\233\267\026\306\223\221/-&\210"
 353      F37DDC9B 
 353      B716C693 
 353      912F2D26 
 353      88
 354 0159 9E2F309D 		.ascii	"\236/0\235\236a6L\344x\363!U\017\205\351\2272\350X\303"
 354      9E61364C 
 354      E478F321 
 354      550F85E9 
 354      9732E858 
 355 016e F474B176 		.ascii	"\364t\261v4\275\010\237+\341\272\227\323e\225\205.O"
 355      34BD089F 
 355      2BE1BA97 
 355      D3659585 
 355      2E4F
 356 0180 B338F1A0 		.ascii	"\2638\361\240\374|\3252\235\255xr1l\255}\342\233up]"
ARM GAS  /tmp/ccaITzYq.s 			page 28


 356      FC7CD532 
 356      9DAD7872 
 356      316CAD7D 
 356      E29B7570 
 357 0195 0FE7460B 		.ascii	"\017\347F\013NJP\235\242\244\224\346\032e\354\356\253"
 357      4E4A509D 
 357      A2A494E6 
 357      1A65ECEE 
 357      AB
 358 01a6 07A3390A 		.ascii	"\007\2439\012\034e\273A\243\247\260\210\257\366\023"
 358      1C65BB41 
 358      A3A7B088 
 358      AFF613
 359 01b5 5BC95DA9 		.ascii	"[\311]\251\037\015\202\332\267\2437\025\245!\363\322"
 359      1F0D82DA 
 359      B7A33715 
 359      A521F3D2 
 360 01c5 D19B14B7 		.ascii	"\321\233\024\267\210_\307\203\301\276[1\272\013\255"
 360      885FC783 
 360      C1BE5B31 
 360      BA0BAD
 361 01d4 04B10645 		.ascii	"\004\261\006E\331~=\352}\364\211*\240{0\022\361r\200"
 361      D97E3DEA 
 361      7DF4892A 
 361      A07B3012 
 361      F17280
 362 01e7 13710BBE 		.ascii	"\023q\013\276KmFIw\213e\352[\304\336[\034\267\240fR"
 362      4B6D4649 
 362      778B65EA 
 362      5BC4DE5B 
 362      1CB7A066 
 363 01fc B5E7945F 		.ascii	"\265\347\224_i,\265h\351\021\255!_N\375\236e\263\037"
 363      692CB568 
 363      E911AD21 
 363      5F4EFD9E 
 363      65B31F
 364 020f 57149F88 		.ascii	"W\024\237\210\337\242\006\004\260\011\236\2014?b\207"
 364      DFA20604 
 364      B0099E81 
 364      343F6287 
 365 021f 22A01891 		.ascii	"\"\240\030\221X\315\251\233\231\323\261/\205\247*\012"
 365      58CDA99B 
 365      99D3B12F 
 365      85A72A0A 
 366 022f 56BFF5A5 		.ascii	"V\277\365\245t*}\240n\311\015J\363v\334\227\017\232"
 366      742A7DA0 
 366      6EC90D4A 
 366      F376DC97 
 366      0F9A
 367 0241 DD5AF33F 		.ascii	"\335Z\363?\313\031\361\355e\027\260\263\216Z\260\014"
 367      CB19F1ED 
 367      6517B0B3 
 367      8E5AB00C 
 368 0251 5B9A608F 		.ascii	"[\232`\217!\240\267\250\310\306^6\324\035\323l\330\350"
 368      21A0B7A8 
 368      C8C65E36 
 368      D41DD36C 
ARM GAS  /tmp/ccaITzYq.s 			page 29


 368      D8E8
 369 0263 88F8731D 		.ascii	"\210\370s\035\2131\261A#s\203\216kE\035\273U\017V\301"
 369      8B31B141 
 369      2373838E 
 369      6B451DBB 
 369      550F56C1 
 370 0277 CCC9F98E 		.ascii	"\314\311\371\216\322\006\321\217js\204\350\025\3134"
 370      D206D18F 
 370      6A7384E8 
 370      15CB34
 371 0286 71B7C195 		.ascii	"q\267\301\2253w\034\300\323\250\276\233\261\037\332"
 371      33771CC0 
 371      D3A8BE9B 
 371      B11FDA
 372 0295 EFE6A870 		.ascii	"\357\346\250p\016u\256~\3476\234\242P[(\324B\241\277"
 372      0E75AE7E 
 372      E7369CA2 
 372      505B28D4 
 372      42A1BF
 373 02a8 504D8776 		.ascii	"PM\207v\314aZm\243P\3739(\021\027\351\206\353\317Z\005"
 373      CC615A6D 
 373      A350FB39 
 373      281117E9 
 373      86EBCF5A 
 374 02bd 82473FB3 		.ascii	"\202G?\263\033\222\332\256A\337su\001\035\0258\317\231"
 374      1B92DAAE 
 374      41DF7375 
 374      011D1538 
 374      CF99
 375 02cf 2C3338D1 		.ascii	",38\321\322sJ\246\241\343ca\241\222\236\356\322:\220"
 375      D2734AA6 
 375      A1E36361 
 375      A1929EEE 
 375      D23A90
 376 02e2 D78E2501 		.ascii	"\327\216%\001eh[\355|\364m>\262G\213\276vG=hc\307|g"
 376      65685BED 
 376      7CF46D3E 
 376      B2478BBE 
 376      76473D68 
 377 02fa 3D48D0DA 		.ascii	"=H\320\332\277\215\266?\337E\332\357\344\333\237\177"
 377      BF8DB63F 
 377      DF45DAEF 
 377      E4DB9F7F 
 378 030a 74E734D6 		.ascii	"t\3474\326~\247\243\366\027\356\235\327\273}\021?|]"
 378      7EA7A3F6 
 378      17EE9DD7 
 378      BB7D113F 
 378      7C5D
 379 031c BEE8D87C 		.ascii	"\276\350\330|\344\263.\326\312>\220\024\320\001\027"
 379      E4B32ED6 
 379      CA3E9014 
 379      D00117
 380 032b 1F1DA34B 		.ascii	"\037\035\243K\314\376\203gC\005\001\375S\327?\217\257"
 380      CCFE8367 
 380      430501FD 
 380      53D73F8F 
 380      AF
ARM GAS  /tmp/ccaITzYq.s 			page 30


 381 033c 909DAF52 		.ascii	"\220\235\257R`h\373\\\3348M\331=R\323\341X\301\210e"
 381      6068FB5C 
 381      DC384DD9 
 381      3D52D3E1 
 381      58C18865 
 382 0350 262616EF 		.ascii	"&&\026\357\205~\253\201e\234\200\331\206R*\275\324\010"
 382      857EAB81 
 382      659C80D9 
 382      86522ABD 
 382      D408
 383 0362 76B26030 		.ascii	"v\262`0\263fk\215`\377r\0026\310^\263uF\260\257\012"
 383      B3666B8D 
 383      60FF7202 
 383      36C85EB3 
 383      7546B0AF 
 384 0377 06336BB6 		.ascii	"\0063k\266\301\010\366\215\023\260\241\366\232\375\325"
 384      C108F68D 
 384      13B0A1F6 
 384      9AFDD5
 385 0386 08D65530 		.ascii	"\010\326U0\230Y\2636#\330\267N\300\312,4\323\017+9\022"
 385      9859B336 
 385      23D8B74E 
 385      C0CA2C34 
 385      D30F2B39 
 386 039b D61D588F 		.ascii	"\326\035X\217s\001\235sicB\2011\215r\030\337\271\012"
 386      73019D73 
 386      69634281 
 386      318D7218 
 386      DFB90A
 387 03ae 1DC34C76 		.ascii	"\035\303LvC\012?\376:\236\253\366\213Vj\374\025'\210"
 387      430A3FFE 
 387      3A9EABF6 
 387      8B566AFC 
 387      152788
 388 03c1 7902A6A1 		.ascii	"y\002\246\241\2232\251\202Mw\027\012fv\313R\002f\032"
 388      9332A982 
 388      4D77170A 
 388      6676CB52 
 388      02661A
 389 03d4 6B584ECA 		.ascii	"kXN\312\264\244\207.\310\015w>\015\213L\366\324\261"
 389      B4A4872E 
 389      C80D773E 
 389      0D8B4CF6 
 389      D4B1
 390 03e6 0D266782 		.ascii	"\015&g\202^Y\031:\324\272\256\210\277\306\267Cy\032"
 390      5E59193A 
 390      D4BAAE88 
 390      BFC6B743 
 390      791A
 391 03f8 FB752DD4 		.ascii	"\373u-\324{\355.K\347\264unn\032\251\035}\211\332E\302"
 391      7BED2E4B 
 391      E7B4756E 
 391      6E1AA91D 
 391      7D89DA45 
 392 040d 97C648A8 		.ascii	"\227\306H\250wBS\236\256\260\337\216\246t\215R\213\247"
 392      7742539E 
 392      AEB0DF8E 
ARM GAS  /tmp/ccaITzYq.s 			page 31


 392      A6748D52 
 392      8BA7
 393 041f B6DE9477 		.ascii	"\266\336\224wv\270\371\3107\313\330<\340?4y\317s[\316"
 393      76B8F9C8 
 393      37CBD83C 
 393      E03F3479 
 393      CF735BCE 
 394 0433 031C819D 		.ascii	"\003\034\201\235\253\337\247M*z(\330k\003\000k:tL\233"
 394      ABDFA74D 
 394      2A7A28D8 
 394      6B03006B 
 394      3A744C9B 
 395 0447 569CA760 		.ascii	"V\234\247`+\334|\342\360s\323\012\2779\361\373\375\271"
 395      2BDC7CE2 
 395      F073D30A 
 395      BF39F1FB 
 395      FDB9
 396 0459 9BAC7698 		.ascii	"\233\254v\230]\371\275\312\330\271\277\313\350\376\365"
 396      5DF9BDCA 
 396      D8B9BFCB 
 396      E8FEF5
 397 0468 05BBDFD4 		.ascii	"\005\273\337\324K`\"rV\230\257\244\247\272\014\361\236"
 397      4B602272 
 397      5698AFA4 
 397      A7BA0CF1 
 397      9E
 398 0479 B773C034 		.ascii	"\267s\3004\262s\313O\351\212\3402\345\365\035k'9\000"
 398      B273CB4F 
 398      E98AE032 
 398      E5F51D6B 
 398      273900
 399 048c 3A57BFFA 		.ascii	":W\277\372G\024\210\3646\001\275\327o\240\246CKGQ\240"
 399      471488F4 
 399      3601BDD7 
 399      6FA0A643 
 399      4B4751A0 
 400 04a0 6914A8B3 		.ascii	"i\024\250\263\227\2471\347il\366\200\336\363X\307\373"
 400      97A731E7 
 400      696CF680 
 400      DEF358C7 
 400      FB
 401 04b1 BEEA0AE8 		.ascii	"\276\352\012\3500\357.\2239y\322\203>\346^j\304\335"
 401      30EF2E93 
 401      3979D283 
 401      3EE65E6A 
 401      C4DD
 402 04c3 2965C1C8 		.ascii	")e\301\310\002\3745\223\371\253\226\262s\264\027;\204"
 402      02FC3593 
 402      F9AB96B2 
 402      73B4173B 
 402      84
 403 04d4 FEC2CC38 		.ascii	"\376\302\3148Q\260\031>\263\031u\331~\230\261U5c65\343"
 403      51B0193E 
 403      B31975D9 
 403      7E98B155 
 403      35633635 
 404 04e9 8BFF8119 		.ascii	"\213\377\201\031]\005\2331\310`\006]\304\316S3\340\020"
ARM GAS  /tmp/ccaITzYq.s 			page 32


 404      5D059B31 
 404      C860065D 
 404      C4CE5333 
 404      E010
 405 04fb D4987F1A 		.ascii	"\324\230\177\032O\364i\024\206\230\327\354\207\367\342"
 405      4FF46914 
 405      8698D7EC 
 405      87F7E2
 406 050a 32F575DF 		.ascii	"2\365u\337k\307\356\275\213\351\354\231\022\2468Z\356"
 406      6BC7EEBD 
 406      8BE9EC99 
 406      12A6385A 
 406      EE
 407 051b 75EACBBD 		.ascii	"u\352\313\275&J\331Y\253\016\346\004\252\371\334\276"
 407      264AD959 
 407      AB0EE604 
 407      AAF9DCBE 
 408 052b EBC81EC6 		.ascii	"\353\310\036\306\002\012s\251\2770\320O\267\252\375"
 408      020A73A9 
 408      BF30D04F 
 408      B7AAFD
 409 053a 7411059A 		.ascii	"t\021\005\232\356\341]\350\345<\3505{\020\036IK\347"
 409      EEE15DE8 
 409      E53CE835 
 409      7B101E49 
 409      4BE7
 410 054c E900F922 		.ascii	"\351\000\371\"{C\036\212\320\377]N@\257P\365\211\367"
 410      7B431E8A 
 410      D0FF5D4E 
 410      40AF50F5 
 410      89F7
 411 055e 0A9C8369 		.ascii	"\012\234\203i\321Swr\2566\177R\035\3244 \304T\372\265"
 411      D1537772 
 411      AE367F52 
 411      1DD43420 
 411      C454FAB5 
 412 0572 7A758F84 		.ascii	"zu\217\204\256\201\004\264t\200p\357\356\343\247\006"
 412      AE8104B4 
 412      748070EF 
 412      EEE3A706 
 413 0582 DCD26D9D 		.ascii	"\334\322m\235M\332\321\002\260u\326\335\324\335-\002"
 413      4DDAD102 
 413      B075D6DD 
 413      D4DD2D02 
 414 0592 51A7A597 		.ascii	"Q\247\245\227\273[1\267t#/\014U\354:\322\233\202!\003"
 414      BB5B31B7 
 414      74232F0C 
 414      55EC3AD2 
 414      9B822103 
 415 05a6 B60DD40D 		.ascii	"\266\015\324\015\035=\234\033\266\014\220\267\013\365"
 415      1D3D9C1B 
 415      B60C90B7 
 415      0BF5
 416 05b4 CEB6AA9E 		.ascii	"\316\266\252\236\325\260J\251!\355\264\331\325\002\267"
 416      D5B04AA9 
 416      21EDB4D9 
 416      D502B7
ARM GAS  /tmp/ccaITzYq.s 			page 33


 417 05c3 CE3EF24D 		.ascii	"\316>\362M\246\206\315\212\310\267\276G\212\243t{O\335"
 417      A686CD8A 
 417      C8B7BE47 
 417      8AA3747B 
 417      4FDD
 418 05d5 6312F126 		.ascii	"c\022\361&,0T\253\311R\237\364\244?\226v\217,d\314i"
 418      2C3054AB 
 418      C9529FF4 
 418      A43F9676 
 418      8F2C64CC 
 419 05ea D7C69C75 		.ascii	"\327\306\234u\224\313\356^N_\300\017\323\005u\272\013"
 419      94CBEE5E 
 419      4E5FC00F 
 419      D30575BA 
 419      0B
 420 05fb 3A494E17 		.ascii	":IN\027-\374a\027T\253\214Auy`!\000A\325\376\246\032"
 420      2DFC6117 
 420      54AB8C41 
 420      75796021 
 420      0041D5FE 
 421 0611 545C9759 		.ascii	"T\\\227Yn\323e\210\006mF\015\246{\007\026\204\233\017"
 421      6ED36588 
 421      066D460D 
 421      A67B0716 
 421      849B0F
 422 0624 1AF285B3 		.ascii	"\032\362\205\263\355\301\316\235\372\366 \365\335L/"
 422      EDC1CE9D 
 422      FAF620F5 
 422      DD4C2F
 423 0633 EFBB2DFC 		.ascii	"\357\273-\374D\312\311^\331\374\376Z\242\0370\224y\035"
 423      44CAC95E 
 423      D9FCFE5A 
 423      A21F3094 
 423      791D
 424 0645 4C73CBCC 		.ascii	"Ls\313\314\3765D1\214\265\037\260L\335\347\206\233\306"
 424      FE354431 
 424      8CB51FB0 
 424      4CDDE786 
 424      9BC6
 425 0657 C6A95963 		.ascii	"\306\251Yc\351\340\265M [\265\315\034\027\016\366\355"
 425      E9E0B54D 
 425      205BB5CD 
 425      1C170EF6 
 425      ED
 426 0668 D650911D 		.ascii	"\326P\221\035|\177\236S\247\357\333\355p\320\237S\351"
 426      7C7F9E53 
 426      A7EFDBED 
 426      70D09F53 
 426      E9
 427 0679 F575DAA8 		.ascii	"\365u\332\250\256.\214\267\352\270\375\345\323\344\302"
 427      AE2E8CB7 
 427      EAB8FDE5 
 427      D3E4C2
 428 0688 9C82226E 		.ascii	"\234\202\"n\027\310\202v\227p\213\221\373\035N\270\277"
 428      17C88276 
 428      97708B91 
 428      FB1D4EB8 
ARM GAS  /tmp/ccaITzYq.s 			page 34


 428      BF
 429 0699 D32E1295 		.ascii	"\323.\022\225t\317A\363\256\367\036\036\317jD2\341\031"
 429      74CF41F3 
 429      AEF71E1E 
 429      CF6A4432 
 429      E119
 430 06ab 7D994A37 		.ascii	"}\231J7\034\242\273\004j\214\036v\242\334H{\260\327"
 430      1CA2BB04 
 430      6A8C1E76 
 430      A2DC487B 
 430      B0D7
 431 06bd E66AE4B6 		.ascii	"\346j\344\266\321$\365\261\023\274Qv\306\246\322o\037"
 431      D124F5B1 
 431      13BC5176 
 431      C6A6D26F 
 431      1F
 432 06ce 5ACCF0D4 		.ascii	"Z\314\360\324-\366\317\012\3063\353wx\256)\245\377\333"
 432      2DF6CF0A 
 432      C633EB77 
 432      78AE29A5 
 432      FFDB
 433 06e0 09DC238E 		.ascii	"\011\334#\216}\237\373IC\304o\323\315\2146|\013\224"
 433      7D9FFB49 
 433      43C46FD3 
 433      CD8C367C 
 433      0B94
 434 06f2 EFD07227 		.ascii	"\357\320r'-O\321\362sZ~A\3133\264\274D\313\227\005R"
 434      2D4FD1F2 
 434      735A7E41 
 434      CB33B4BC 
 434      44CB9705 
 435 0707 CEA2E51C 		.ascii	"\316\242\345\034Z\246i\331A\313=\264\334K\313\375\264"
 435      5AA669D9 
 435      41CB3DB4 
 435      DC4BCBFD 
 435      B4
 436 0718 3C688C2D 		.ascii	"<h\214-\273\201\220\233\006\210x\267@\223X\177\267p"
 436      BB81909B 
 436      068878B7 
 436      4093587F 
 436      B770
 437 072a D3073B0C 		.ascii	"\323\007;\014\033K=^\\ XY>\016W\0338\\C9\\K\231\371"
 437      1B4B3D5E 
 437      5C205859 
 437      3E0E571B 
 437      385C4339 
 438 0742 BBD1522D 		.ascii	"\273\321R-\017/\317\037\365\366&d\246\0377\230\360\235"
 438      0F2FCF1F 
 438      F5F62664 
 438      A61F3798 
 438      F09D
 439 0754 1723FB5C 		.ascii	"\027#\373\\\222'\0132>.Id\266\263\214\322\254r[\010"
 439      92270B32 
 439      3E2E4964 
 439      B6B38CD2 
 439      AC725B08 
 440 0768 565E3A96 		.ascii	"V^:\226\033\350XA\351XI\351\370\200\272\377\037N\334"
ARM GAS  /tmp/ccaITzYq.s 			page 35


 440      1BE85841 
 440      E95849E9 
 440      F880BAFF 
 440      1F4EDC
 441 077b BF2C372D 		.ascii	"\277,7-t\236\275\346|\227\371\311\032E\031$\342\017"
 441      749EBDE6 
 441      7C97F9C9 
 441      1A451924 
 441      E20F
 442 078d E9C0D05A 		.ascii	"\351\300\320Z\304'/\017\227\273<\346\334\345\361\347"
 442      C4272F0F 
 442      97BB3CE6 
 442      DCE5F1E7 
 443 079d 6E58EEB2 		.ascii	"nX\356\262\234\300\325\236\310\355\315(\372O%e9M\272"
 443      9CC0D59E 
 443      C8EDCD28 
 443      FA4F2565 
 443      394DBA
 444 07b0 2EA66F78 		.ascii	".\246ox\227jr\214\246\216\023E\226\251#\017\020\254"
 444      976A728C 
 444      A68E1345 
 444      96A9230F 
 444      10AC
 445 07c2 4CA94C86 		.ascii	"L\251L\206\313\035\351\271/\227\222uX\306"
 445      CB1DE9B9 
 445      2F979275 
 445      58C6
 446 07d0 51DE68DA 		.ascii	"Q\336h\332\265\270\3674\364z\324\304\246r\012\226\351"
 446      B5B8F734 
 446      F47AD4C4 
 446      A6720A96 
 446      E9
 447 07e1 A062E785 		.ascii	"\240b\347\205S\202\372\373\264\213\376,\217T^\365\007"
 447      5382FAFB 
 447      B48BFE2C 
 447      8F545EF5 
 447      07
 448 07f2 954C113F 		.ascii	"\225L\021?\351\312\353NF\311\305\354\371\241+)%'\351"
 448      E9CAEB4E 
 448      46C9C5EC 
 448      F9A12B29 
 448      2527E9
 449 0805 28FB679F 		.ascii	"(\373g\237\231\022n\222D\232\266S\353K\241\304\306\362"
 449      99126E92 
 449      449AB653 
 449      EB4BA1C4 
 449      C6F2
 450 0817 5EDF606D 		.ascii	"^\337`m\340\323h\354\337\332\240\353b\346\246M\033\024"
 450      E0D368EC 
 450      DFDAA0EB 
 450      62E6A64D 
 450      1B14
 451 0829 A5F559B6 		.ascii	"\245\365Y\266\300O{\215^3ua\325\324\364\346\366\233"
 451      C04F7B8D 
 451      5E337561 
 451      D5D4F4E6 
 451      F69B
ARM GAS  /tmp/ccaITzYq.s 			page 36


 452 083b 898B4EC3 		.ascii	"\211\213N\303tG@\3338;\373F\021\320>*s\246\327^A;\371"
 452      744740DB 
 452      383BFB46 
 452      11D03E2A 
 452      73A6D75E 
 453 0852 09FB8C83 		.ascii	"\011\373\214\203\275\202T\372HM\375\215J\363\254\241"
 453      BD8254FA 
 453      484DFD8D 
 453      4AF3ACA1 
 454 0862 DAA6EC51 		.ascii	"\332\246\354Q\035\262\177k\200\343\355\305\271\177\030"
 454      1DB27F6B 
 454      80E3EDC5 
 454      B97F18
 455 0871 B0FFAD9F 		.ascii	"\260\377\255\237(v\226\017\331\017\333\311\036\307Y"
 455      2876960F 
 455      D90FDBC9 
 455      1EC759
 456 0880 47117BB4 		.ascii	"G\021{\264\306b\341\244ri\027\016\027rsfm(;\333Ow\247"
 456      C662E1A4 
 456      7269170E 
 456      17727366 
 456      6D283BDB 
 457 0897 D2C7DAB5 		.ascii	"\322\307\332\265\344\255\216!\237P\336\012\301+\343"
 457      E4AD8E21 
 457      9F50DE0A 
 457      C12BE3
 458 08a6 0C13D0E7 		.ascii	"\014\023\320\347\003\344\376\234s\356\257\360\334wQ"
 458      03E4FE9C 
 458      73EEAFF0 
 458      DC7751
 459 08b5 EEAF38E2 		.ascii	"\356\2578\342\276\273F\233h|D\273\350\327T\357+\375"
 459      BEBB469B 
 459      687C44BB 
 459      E8D754EF 
 459      2BFD
 460 08c7 E6B287E3 		.ascii	"\346\262\207\343\262\253`\274\336\\\236\355/\227V\207"
 460      B2AB60BC 
 460      DE5C9EED 
 460      2F975687 
 461 08d7 B18F4147 		.ascii	"\261\217AG\2413\337n\232\244zhy\331<\013\276\310\017"
 461      A133DF6E 
 461      9AA47A68 
 461      79D93C0B 
 461      BEC80F
 462 08ea 25566DDB 		.ascii	"%Vm\333\377\342\237^\374\030I\337\352\177\001\245\374"
 462      FFE29F5E 
 462      FC1849DF 
 462      EA7F01A5 
 462      FC
 463 08fb 1C96F95F 		.ascii	"\034\226\371_|\014\267\316\014\311\030\246\360\237R"
 463      7C0CB7CE 
 463      0CC918A6 
 463      F09F52
 464 090a 434E5013 		.ascii	"CNP\023\276\246e\215\313A\316\375(\327\217\270\336G"
 464      BEA6658D 
 464      CB41CEFD 
 464      28D78FB8 
ARM GAS  /tmp/ccaITzYq.s 			page 37


 464      DE47
 465 091c DC672755 		.ascii	"\334g'U\353\322\245\206\241\245Js&\263\344\255\017o"
 465      EBD2A586 
 465      A1A54A73 
 465      26B3E4AD 
 465      0F6F
 466 092e 7E15D659 		.ascii	"~\025\326Y\312\031\222A\271lc\363S?A\252s]\317\356\264"
 466      CA199241 
 466      B96C63F3 
 466      533F41AA 
 466      735DCFEE 
 467 0943 8C22A0D5 		.ascii	"\214\"\240\325~\314\205\355\035\250\205\340)+\024\027"
 467      7ECC85ED 
 467      1DA885E0 
 467      292B1417 
 468 0953 4523F567 		.ascii	"E#\365g\270\206\231\331\230\351\022\214/\210b\031\222"
 468      B88699D9 
 468      98E9128C 
 468      2F886219 
 468      92
 469 0964 82CEDCB8 		.ascii	"\202\316\334\270p\2352}\206r%\373\"Vs\014$\210^M\250"
 469      709D327D 
 469      867225FB 
 469      2256730C 
 469      24885E4D 
 470 0979 18AFF4C6 		.ascii	"\030\257\364\306\240\306\035\270\263?\3065\270\270T"
 470      A0C61DB8 
 470      B33FC635 
 470      B8B854
 471 0988 4AD8D61F 		.ascii	"J\330\326\037\324\377_0\245Y\304\245V\001ur\212\336"
 471      D4FF5F30 
 471      A559C4A5 
 471      56017572 
 471      8ADE
 472 099a 86DE5094 		.ascii	"\206\336P\224Fe\2114V\353\260\037\321\032\365\300\206"
 472      46658934 
 472      56EBB01F 
 472      D11AF5C0 
 472      86
 473 09ab 951ACCC3 		.ascii	"\225\032\314\303L\354\010\021\243\013\212O\373\220\032"
 473      4CEC0811 
 473      A30B8A4F 
 473      FB901A
 474 09ba 9D13CA12 		.ascii	"\235\023\312\022!\242\235\210\247\271\204\274R\314\006"
 474      21A29D88 
 474      A7B984BC 
 474      52CC06
 475 09c9 E6AED9CA 		.ascii	"\346\256\331\312K\203\260\356\257z\336_\363,\374u&\275"
 475      4B83B0EE 
 475      AF7ADE5F 
 475      F32CFC75 
 475      26BD
 476 09db A4B31343 		.ascii	"\244\263\023C\243\227\262Y\027\317t\236I\313\342\274"
 476      A397B259 
 476      17CF749E 
 476      49CBE2BC 
 477 09eb 4C33B5F2 		.ascii	"L3\265\362Mb`\305f\315\364z\215i\021\277J\255_\344\210"
ARM GAS  /tmp/ccaITzYq.s 			page 38


 477      4D6260C5 
 477      66CDF47A 
 477      8D6911BF 
 477      4AAD5FE4 
 478 0a00 E9E33C69 		.ascii	"\351\343<i\366bT;\315\257\355\245\015\230MQ\277\025"
 478      F662543B 
 478      CDAFEDA5 
 478      0D984D51 
 478      BF15
 479 0a12 F2CB7972 		.ascii	"\362\313yr\\\247\22455/\015r\263\230\262\027bl5[Ey\372"
 479      5CA79435 
 479      352F0D72 
 479      B398B217 
 479      626C355B 
 480 0a29 62A32DF3 		.ascii	"b\243-\363yb|9\317<\3757\034\023\263\027\254\231=^\241"
 480      79627C39 
 480      CF3CFD37 
 480      1C13B317 
 480      AC993D5E 
 481 0a3e 05E3F462 		.ascii	"\005\343\364bZ!o0\332DU\013\037U+\254m{u\026d\245T:"
 481      5A216F30 
 481      DA44550B 
 481      1F552BAC 
 481      6D7B7516 
 482 0a56 9B1DCDDB 		.ascii	"\233\035\315\333\226o\234[\2357\254\330(\310?s\326\327"
 482      966F9C5B 
 482      9D37ACD8 
 482      28C83F73 
 482      D6D7
 483 0a68 145B5ABF 		.ascii	"\024[Z\277\220\217\253U\316{0iH@s)\260\275\030U\207"
 483      908FAB55 
 483      CE7B3069 
 483      48407329 
 483      B0BD1855 
 484 0a7d 89CD57E3 		.ascii	"\211\315W\343J\025\374\243\023A=\262ZO\376z\254\326"
 484      4A15FCA3 
 484      13413DB2 
 484      5A4FFE7A 
 484      ACD6
 485 0a8f 85ECA518 		.ascii	"\205\354\245\030a\255\226c\360\311\356\335\270\266\340"
 485      61AD9663 
 485      F0C9EEDD 
 485      B8B6E0
 486 0a9e C8DAC493 		.ascii	"\310\332\304\223\257\256[M\344\276Ql=\216o\266\322#"
 486      AFAE5B4D 
 486      E4BE516C 
 486      3D8E6FB6 
 486      D223
 487 0ab0 DDB66B96 		.ascii	"\335\266k\226\202\033\246f\262\331a*\274\200\326\333"
 487      821BA666 
 487      B2D9612A 
 487      BC80D6DB 
 488 0ac0 00FCCD12 		.ascii	"\000\374\315\022`mo\200\2556\000[\315\000\267\242eJ"
 488      606D6F80 
 488      AD36005B 
 488      CD00B7A2 
 488      654A
ARM GAS  /tmp/ccaITzYq.s 			page 39


 489 0ad2 7A3F6492 		.ascii	"z?d\222O~\360\227\024,,\200\202,\316\216\326\326\212"
 489      4F7EF097 
 489      142C2C80 
 489      822CCE8E 
 489      D6D68A
 490 0ae5 EFEB2896 		.ascii	"\357\353(\226\013C\002\270-\007\310ej\242\210\035\211"
 490      0B4302B8 
 490      2D07C865 
 490      6AA2881D 
 490      89
 491 0af6 DB73999A 		.ascii	"\333s\231\232\250\260\177\177zQ\307\014\005+5\312T\222"
 491      A8B07F7F 
 491      7A51C70C 
 491      052B35CA 
 491      5492
 492 0b08 CCAE450D 		.ascii	"\314\256E\015tM\272\000`\276\302zG\250\325\347%\327"
 492      744DBA00 
 492      60BEC27A 
 492      47A8D5E7 
 492      25D7
 493 0b1a 525163B5 		.ascii	"RQc\265\323\366\325D\274\323\245\336\231~9\2405\354"
 493      D3F6D544 
 493      BCD3A5DE 
 493      997E39A0 
 493      35EC
 494 0b2c 146C77E5 		.ascii	"\024lw\345\376\025\246\324\217\270Y\020\342j\001U\037"
 494      FE15A6D4 
 494      8FB85910 
 494      E26A0155 
 494      1F
 495 0b3d 1473998B 		.ascii	"\024s\231\213\327B@\307\2131\223#7\314\356\015\235\212"
 495      D74240C7 
 495      8B319323 
 495      37CCEE0D 
 495      9D8A
 496 0b4f 6FAD52AB 		.ascii	"o\255R\253d\263/\332X\275@\007\032\222\317j\276\232"
 496      64B32FDA 
 496      58BD4007 
 496      1A92CF6A 
 496      BE9A
 497 0b61 883B0BB6 		.ascii	"\210;\013\266z\217\215\325\203MVk\265\340v\027\237D"
 497      7A8F8DD5 
 497      834D566B 
 497      B5E07617 
 497      9F44
 498 0b73 782D0474 		.ascii	"x-\004t\332\312\352\306C}Y\375\224\206S\222\317h\256"
 498      DACAEAC6 
 498      437D59FD 
 498      94865392 
 498      CF68AE
 499 0b86 9688F717 		.ascii	"\226\210\367\027l\363\001\033\233\213M6\037\340m6\244"
 499      6CF3011B 
 499      9B8B4D36 
 499      1FE06D36 
 499      A4
 500 0b97 054E0998 		.ascii	"\005N\011\230\234\233LF\303F\214(W\377b\311\362\204"
 500      9C9B4C46 
ARM GAS  /tmp/ccaITzYq.s 			page 40


 500      C3468C28 
 500      57FF62C9 
 500      F284
 501 0ba9 5C1E8A06 		.ascii	"\\\036\212\006\303\325\025Ry\260*\"O\036Q\205\212\""
 501      C3D51552 
 501      79B02A22 
 501      4F1E5185 
 501      8A22
 502 0bbb D5B23439 		.ascii	"\325\26249 {\037\373\345\223ec\220/X\025\240on\263\225"
 502      207B1FFB 
 502      E5936563 
 502      902F5815 
 502      A06F6EB3 
 503 0bd0 4B4E49CA 		.ascii	"KNI\312S\342R\022\204\257\221\253\022\222X\221\014\374"
 503      53E25212 
 503      84AF91AB 
 503      12925891 
 503      0CFC
 504 0be2 BE5AAA96 		.ascii	"\276Z\252\226\002\362 \2206\275*\263G\011VU\000\202"
 504      02F22090 
 504      36BD2AB3 
 504      47095655 
 504      0082
 505 0bf4 4FAD1E90 		.ascii	"O\255\036\220\375\272\250\207J\2162J\006c\221H,Z\036"
 505      FDBAA887 
 505      4A8E324A 
 505      06639148 
 505      2C5A1E
 506 0c07 8F25E464 		.ascii	"\217%\344d\371\243\277yb\314\023\223\311\273x(,%\222"
 506      F9A3BF79 
 506      62CC1393 
 506      C9BB7828 
 506      2C2592
 507 0c1a E58F8D19 		.ascii	"\345\217\215\031\003\200\232NEr<\021\212\005\344\233"
 507      03809A4E 
 507      45723C11 
 507      8A05E49B 
 508 0c2a CBAB9309 		.ascii	"\313\253\223\011\275\301\2504)\034\032W\236\224+BQ\231"
 508      BDC1A834 
 508      291C1A57 
 508      9E942B42 
 508      5199
 509 0c3c B45B0DD7 		.ascii	"\264[\015\327{\177\034\220\207[U\213\210\301\252PT*"
 509      7B7F1C90 
 509      875B558B 
 509      88C1AA50 
 509      542A
 510 0c4e 0F5448E3 		.ascii	"\017TH\343\305\352\260\034\320\300\213\003\001M\320"
 510      C5EAB01C 
 510      D0C08B03 
 510      014DD0
 511 0c5d 4D9A2925 		.ascii	"M\232)%*\005\202\261(0&\377\260O\225\253\202\261\204"
 511      2A0582B1 
 511      283026FF 
 511      B04F95AB 
 511      82B184
 512 0c70 04302554 		.ascii	"\0040%T\014\200\202\362\344\341\316\244\002\023\037"
ARM GAS  /tmp/ccaITzYq.s 			page 41


 512      0C8082F2 
 512      E4E1CEA4 
 512      02131F
 513 0c7f 8810BD13 		.ascii	"\210\020\275\023R\245\230\210\004d!1JH<\344J\3343\022"
 513      52A59888 
 513      04642131 
 513      4A483CE4 
 513      4ADC3312 
 514 0c93 CE7B84C4 		.ascii	"\316{\204\304}B\342~!\361\200\220xP\010'\204d\334\005"
 514      7D42E27E 
 514      21F18090 
 514      78500827 
 514      8464DC05 
 515 0ca7 D01E3047 		.ascii	"\320\0360GJxb\341\012)\341\016V\211\011wT\214H\305I"
 515      4A7862E1 
 515      0A29E10E 
 515      56890977 
 515      548C48C5 
 516 0cbc F939311C 		.ascii	"\37191\034\252\214\006d\312\302\003\367\005df\027\271"
 516      AA8C0664 
 516      CAC203F7 
 516      05646617 
 516      B9
 517 0ccd F54E12C7 		.ascii	"\365N\022\307\211I\311''eQ\006\237\026\221\017\243\300"
 517      8949C927 
 517      27655106 
 517      9F16910F 
 517      A3C0
 518 0cdf 416A15B8 		.ascii	"Aj\025\270\363\320/Er$V\001\337=\343\303be\262HNH\343"
 518      F3D02F45 
 518      72245601 
 518      DF3DE3C3 
 518      6265B248 
 519 0cf6 93C00AB9 		.ascii	"\223\300\012\271x\"\311J\020dD\201 \273\363&*\246\300"
 519      7822C94A 
 519      10644481 
 519      20BBF326 
 519      2AA6C0
 520 0d09 279F3439 		.ascii	"'\23749$\007A\330;I\216\215\233\020\037\314b\000D\245"
 520      240741D8 
 520      3B498E8D 
 520      9B101FCC 
 520      620044A5 
 521 0d1d 84140D12 		.ascii	"\204\024\015\022\320I\262\234\210\027%\245\250\014\002"
 521      D049B29C 
 521      881725A5 
 521      A80C02
 522 0d2c A5101B49 		.ascii	"\245\020\033I)\"\306\253\200\010\373\200\206*\300\220"
 522      2922C6AB 
 522      8008FB80 
 522      862AC090 
 523 0d3c 2718057F 		.ascii	"'\030\005\177\271\240\004xx\025\207\013\204z\274D\232"
 523      B9A00478 
 523      7815870B 
 523      847ABC44 
 523      9A
 524 0d4d 48D0C4E4 		.ascii	"H\320\304\344s\240\2104\211\334\340\352\253\265h\015"
ARM GAS  /tmp/ccaITzYq.s 			page 42


 524      73A08834 
 524      89DCE0EA 
 524      ABB5680D 
 525 0d5d 87922075 		.ascii	"\207\222 u\215!~\311\033w\024\334Z4I\014\311\241h\245"
 525      8D217EC9 
 525      1B7714DC 
 525      5A34490C 
 525      C9A168A5 
 526 0d71 0F34A1A1 		.ascii	"\0174\241\241\351\223\342R\024\342\250\262\010pI5p\212"
 526      E993E252 
 526      14E2A8B2 
 526      08704935 
 526      708A
 527 0d83 1826E1E0 		.ascii	"\030&\341\340\211\304c\2610D\2064\321\023\233\024\225"
 527      89C463B1 
 527      30448634 
 527      D1139B14 
 527      95
 528 0d94 12236974 		.ascii	"\022#it\221\220\252\014\006\313\301q\303\243\261\250"
 528      9190AA0C 
 528      06CBC171 
 528      C3A3B1A8 
 529 0da4 345C12C7 		.ascii	"4\\\022\307\205\312\357\0331JW\036\342\022B\015\264"
 529      85CAEF1B 
 529      314A571E 
 529      E212420D 
 529      B4
 530 0db5 F72643CF 		.ascii	"\367&C\317\203\375wY\004E,Ipr\346VIb\034$\256\212H\221"
 530      83FD7759 
 530      04452C49 
 530      7072E656 
 530      49621C24 
 531 0dcd 58624A80 		.ascii	"XbJ\200<\006\344\022\303\223Ud\361 P\235\305d)\334V"
 531      3C06E412 
 531      C3935564 
 531      F120509D 
 531      C56429DC 
 532 0de2 4AF2F8EA 		.ascii	"J\362\370\352h\020\002#\236\210M\014A\330\\Ea\241\200"
 532      68100223 
 532      9E884D0C 
 532      41D85C45 
 532      61A180
 533 0df5 7B40373C 		.ascii	"{@7<yh\014y\342b\245\224t\217OH\222\233|t\023\375\335"
 533      79680C79 
 533      E262A594 
 533      748F4F48 
 533      929B7C74 
 534 0e0c D549A9C2 		.ascii	"\325I\251\302\253Vs\001Gw\330*\222L\0045K\202\320\271"
 534      AB567301 
 534      4777D82A 
 534      924C0435 
 534      4B82D0B9 
 535 0e20 287C281A 		.ascii	"(|(\032\222\007\007\253\306\200Z\217\206\303\261\340"
 535      920707AB 
 535      C6805A8F 
 535      86C3B1E0 
 536 0e30 A3A41DA9 		.ascii	"\243\244\035\251\002\306\226\261\360\371W\343&HA\371"
ARM GAS  /tmp/ccaITzYq.s 			page 43


 536      02C696B1 
 536      F0F957E3 
 536      264841F9 
 537 0e40 71A8E321 		.ascii	"q\250\343!\265\343\256q\325\343\007\253\237\214\265"
 537      B5E3AE71 
 537      D5E307AB 
 537      9F8CB5
 538 0e4f 8BD5573F 		.ascii	"\213\325W?\007\275p\274T}\370-\204mu\322+\307d\360\226"
 538      07BD70BC 
 538      547DF82D 
 538      846D75D2 
 538      2BC764F0 
 539 0e64 2F2C2640 		.ascii	"/,&@s9\016>\177B\236\234\203-\241\317OF\001\3539?\275"
 539      73390E3E 
 539      7F429E9C 
 539      832DA1CF 
 539      4F4601EB 
 540 0e7b FF05DC95 		.ascii	"\377\005\334\225j#\001i\324\027\010P\232\002Wi7#\356"
 540      6A230169 
 540      D4170850 
 540      9A025769 
 540      3723EE
 541 0e8e BFFFC191 		.ascii	"\277\377\301\221\246\247\207\214O\017\335\373_\257\222"
 541      A6A7878C 
 541      4F0FDDFB 
 541      5FAF92
 542 0e9d EEF8     		.ascii	"\356\370"
 543              		.text
 544              		.section	.gnu.lto_.symtab.e4a27268bee491c4,"",%progbits
 545 0000 5F686561 		.ascii	"_heap_init\000\000\000\000\000\000\000\000\000\000\000"
 545      705F696E 
 545      69740000 
 545      00000000 
 545      00000000 
 546 0015 00890100 		.ascii	"\000\211\001\000\000chHeapObjectInit\000\000\000\000"
 546      00636848 
 546      6561704F 
 546      626A6563 
 546      74496E69 
 547 002e 00000000 		.ascii	"\000\000\000\000\000\000\000\000\217\001\000\000chH"
 547      00000000 
 547      8F010000 
 547      636848
 548 003d 65617041 		.ascii	"eapAllocAligned\000\000\000\000\000\000\000\000\000"
 548      6C6C6F63 
 548      416C6967 
 548      6E656400 
 548      00000000 
 549 0055 0000009B 		.ascii	"\000\000\000\233\001\000\000chHeapFree\000\000\000\000"
 549      01000063 
 549      68486561 
 549      70467265 
 549      65000000 
 550 006a 00000000 		.ascii	"\000\000\000\000\000\000\000\000\245\001\000\000chH"
 550      00000000 
 550      A5010000 
 550      636848
ARM GAS  /tmp/ccaITzYq.s 			page 44


 551 0079 65617053 		.ascii	"eapStatus\000\000\000\000\000\000\000\000\000\000\000"
 551      74617475 
 551      73000000 
 551      00000000 
 551      00000000 
 552 008d 00AC0100 		.ascii	"\000\254\001\000\000chCoreAllocAligned\000\000\002\000"
 552      00636843 
 552      6F726541 
 552      6C6C6F63 
 552      416C6967 
 553 00a8 00000000 		.ascii	"\000\000\000\000\000\000\000\000\215\001\000\000chM"
 553      00000000 
 553      8D010000 
 553      63684D
 554 00b7 74784F62 		.ascii	"txObjectInit\000\000\002\000\000\000\000\000\000\000"
 554      6A656374 
 554      496E6974 
 554      00000200 
 554      00000000 
 555 00cd 0000B801 		.ascii	"\000\000\270\001\000\000chMtxUnlock\000\000\002\000"
 555      00006368 
 555      4D747855 
 555      6E6C6F63 
 555      6B000002 
 556 00e2 00000000 		.ascii	"\000\000\000\000\000\000\000\000\274\001\000\000chM"
 556      00000000 
 556      BC010000 
 556      63684D
 557 00f1 74784C6F 		.ascii	"txLock\000\000\002\000\000\000\000\000\000\000\000\000"
 557      636B0000 
 557      02000000 
 557      00000000 
 557      0000
 558 0103 BE010000 		.ascii	"\276\001\000\000"
 559              		.text
 560              		.section	.gnu.lto_.opts,"",%progbits
 561 0000 272D6D63 		.ascii	"'-mcpu=cortex-m0' '-mno-thumb-interwork' '-mthumb' "
 561      70753D63 
 561      6F727465 
 561      782D6D30 
 561      2720272D 
 562 0033 272D6767 		.ascii	"'-ggdb' '-O2' '-fomit-frame-pointer' '-falign-funct"
 562      64622720 
 562      272D4F32 
 562      2720272D 
 562      666F6D69 
 563 0066 696F6E73 		.ascii	"ions=16' '-ffunction-sections' '-fdata-sections' '-"
 563      3D313627 
 563      20272D66 
 563      66756E63 
 563      74696F6E 
 564 0099 666E6F2D 		.ascii	"fno-common' '-flto'\000"
 564      636F6D6D 
 564      6F6E2720 
 564      272D666C 
 564      746F2700 
 565              		.text
ARM GAS  /tmp/ccaITzYq.s 			page 45


 566              		.cfi_sections	.debug_frame
 567              		.section	.text._heap_init,"ax",%progbits
 568              		.align	2
 569              		.p2align 4,,15
 570              		.global	_heap_init
 571              		.code	16
 572              		.thumb_func
 573              		.type	_heap_init, %function
 574              	_heap_init:
 575              	.LFB149:
 576              		.file 1 "../../../os/common/oslib/src/chheap.c"
 577              		.loc 1 107 0
 578              		.cfi_startproc
 579 0000 08B5     		push	{r3, lr}
 580              		.cfi_def_cfa_offset 8
 581              		.cfi_offset 3, -8
 582              		.cfi_offset 14, -4
 583              		.loc 1 109 0
 584 0002 0548     		ldr	r0, .L2
 585 0004 054B     		ldr	r3, .L2+4
 586              		.loc 1 117 0
 587              		@ sp needed
 588              		.loc 1 109 0
 589 0006 0360     		str	r3, [r0]
 590              		.loc 1 110 0
 591 0008 0023     		mov	r3, #0
 592 000a 8360     		str	r3, [r0, #8]
 593              		.loc 1 111 0
 594 000c C360     		str	r3, [r0, #12]
 595              		.loc 1 113 0
 596 000e 1030     		add	r0, r0, #16
 597 0010 FFF7FEFF 		bl	chMtxObjectInit
 598              	.LVL0:
 599              		.loc 1 117 0
 600 0014 08BD     		pop	{r3, pc}
 601              	.L3:
 602 0016 C046     		.align	2
 603              	.L2:
 604 0018 00000000 		.word	.LANCHOR0
 605 001c 00000000 		.word	chCoreAllocAligned
 606              		.cfi_endproc
 607              	.LFE149:
 608              		.size	_heap_init, .-_heap_init
 609              		.section	.text.chHeapObjectInit,"ax",%progbits
 610              		.align	2
 611              		.p2align 4,,15
 612              		.global	chHeapObjectInit
 613              		.code	16
 614              		.thumb_func
 615              		.type	chHeapObjectInit, %function
 616              	chHeapObjectInit:
 617              	.LFB150:
 618              		.loc 1 130 0
 619              		.cfi_startproc
 620              	.LVL1:
 621 0000 08B5     		push	{r3, lr}
 622              		.cfi_def_cfa_offset 8
ARM GAS  /tmp/ccaITzYq.s 			page 46


 623              		.cfi_offset 3, -8
 624              		.cfi_offset 14, -4
 625              		.loc 1 141 0
 626 0002 083A     		sub	r2, r2, #8
 627              	.LVL2:
 628              		.loc 1 137 0
 629 0004 0023     		mov	r3, #0
 630              		.loc 1 141 0
 631 0006 D208     		lsr	r2, r2, #3
 632              	.LVL3:
 633              		.loc 1 137 0
 634 0008 0360     		str	r3, [r0]
 635              		.loc 1 138 0
 636 000a 8160     		str	r1, [r0, #8]
 637              		.loc 1 139 0
 638 000c C360     		str	r3, [r0, #12]
 639              		.loc 1 140 0
 640 000e 0B60     		str	r3, [r1]
 641              		.loc 1 141 0
 642 0010 4A60     		str	r2, [r1, #4]
 643              		.loc 1 143 0
 644 0012 1030     		add	r0, r0, #16
 645              	.LVL4:
 646 0014 FFF7FEFF 		bl	chMtxObjectInit
 647              	.LVL5:
 648              		.loc 1 147 0
 649              		@ sp needed
 650 0018 08BD     		pop	{r3, pc}
 651              		.cfi_endproc
 652              	.LFE150:
 653              		.size	chHeapObjectInit, .-chHeapObjectInit
 654 001a C046C046 		.section	.text.chHeapAllocAligned,"ax",%progbits
 654      C046
 655              		.align	2
 656              		.p2align 4,,15
 657              		.global	chHeapAllocAligned
 658              		.code	16
 659              		.thumb_func
 660              		.type	chHeapAllocAligned, %function
 661              	chHeapAllocAligned:
 662              	.LFB151:
 663              		.loc 1 166 0
 664              		.cfi_startproc
 665              	.LVL6:
 666 0000 F0B5     		push	{r4, r5, r6, r7, lr}
 667              		.cfi_def_cfa_offset 20
 668              		.cfi_offset 4, -20
 669              		.cfi_offset 5, -16
 670              		.cfi_offset 6, -12
 671              		.cfi_offset 7, -8
 672              		.cfi_offset 14, -4
 673 0002 5646     		mov	r6, r10
 674 0004 4D46     		mov	r5, r9
 675 0006 5F46     		mov	r7, fp
 676 0008 4446     		mov	r4, r8
 677 000a F0B4     		push	{r4, r5, r6, r7}
 678              		.cfi_def_cfa_offset 36
ARM GAS  /tmp/ccaITzYq.s 			page 47


 679              		.cfi_offset 8, -36
 680              		.cfi_offset 9, -32
 681              		.cfi_offset 10, -28
 682              		.cfi_offset 11, -24
 683 000c 83B0     		sub	sp, sp, #12
 684              		.cfi_def_cfa_offset 48
 685              		.loc 1 166 0
 686 000e 8146     		mov	r9, r0
 687 0010 0191     		str	r1, [sp, #4]
 688 0012 161C     		mov	r6, r2
 689              		.loc 1 173 0
 690 0014 0028     		cmp	r0, #0
 691 0016 00D1     		bne	.LCB93
 692 0018 75E0     		b	.L25	@long jump
 693              	.LCB93:
 694              	.LVL7:
 695              	.L6:
 696              		.loc 1 178 0
 697 001a 072E     		cmp	r6, #7
 698 001c 00D8     		bhi	.L7
 699              		.loc 1 179 0
 700 001e 0826     		mov	r6, #8
 701              	.L7:
 702              	.LVL8:
 703              		.loc 1 183 0
 704 0020 019B     		ldr	r3, [sp, #4]
 705              		.loc 1 186 0
 706 0022 1021     		mov	r1, #16
 707              	.LVL9:
 708 0024 8A46     		mov	r10, r1
 709              		.loc 1 183 0
 710 0026 0733     		add	r3, r3, #7
 711              		.loc 1 186 0
 712 0028 CA44     		add	r10, r10, r9
 713              		.loc 1 183 0
 714 002a DB08     		lsr	r3, r3, #3
 715              		.loc 1 186 0
 716 002c 5046     		mov	r0, r10
 717              		.loc 1 183 0
 718 002e 9846     		mov	r8, r3
 719              	.LVL10:
 720              		.loc 1 186 0
 721 0030 FFF7FEFF 		bl	chMtxLock
 722              	.LVL11:
 723              		.loc 1 189 0
 724 0034 4A46     		mov	r2, r9
 725              	.LBB2:
 726              		.loc 1 197 0
 727 0036 7342     		neg	r3, r6
 728              	.LBE2:
 729              		.loc 1 189 0
 730 0038 0832     		add	r2, r2, #8
 731              	.LVL12:
 732              	.LBB6:
 733              		.loc 1 197 0
 734 003a 9B46     		mov	fp, r3
 735              	.LBE6:
ARM GAS  /tmp/ccaITzYq.s 			page 48


 736              		.loc 1 190 0
 737 003c 1368     		ldr	r3, [r2]
 738 003e 002B     		cmp	r3, #0
 739 0040 18D0     		beq	.L26
 740              	.L15:
 741              	.LVL13:
 742              	.LBB7:
 743              		.loc 1 197 0
 744 0042 0820     		mov	r0, #8
 745 0044 C018     		add	r0, r0, r3
 746 0046 8446     		mov	ip, r0
 747 0048 D81D     		add	r0, r3, #7
 748 004a 5946     		mov	r1, fp
 749 004c 8019     		add	r0, r0, r6
 750 004e 0840     		and	r0, r1
 751              		.loc 1 199 0
 752 0050 5968     		ldr	r1, [r3, #4]
 753              		.loc 1 197 0
 754 0052 041C     		mov	r4, r0
 755              		.loc 1 199 0
 756 0054 4D1C     		add	r5, r1, #1
 757 0056 ED00     		lsl	r5, r5, #3
 758              		.loc 1 197 0
 759 0058 083C     		sub	r4, r4, #8
 760              	.LVL14:
 761              		.loc 1 199 0
 762 005a 5F19     		add	r7, r3, r5
 763 005c BC42     		cmp	r4, r7
 764 005e 05D2     		bcs	.L9
 765              		.loc 1 199 0 is_stmt 0 discriminator 1
 766 0060 083D     		sub	r5, r5, #8
 767 0062 1F1B     		sub	r7, r3, r4
 768 0064 7F19     		add	r7, r7, r5
 769 0066 FF10     		asr	r7, r7, #3
 770 0068 B845     		cmp	r8, r7
 771 006a 1DD9     		bls	.L27
 772              	.L9:
 773 006c 1A1C     		mov	r2, r3
 774              	.LVL15:
 775              	.LBE7:
 776              		.loc 1 190 0 is_stmt 1 discriminator 1
 777 006e 1368     		ldr	r3, [r2]
 778              	.LVL16:
 779 0070 002B     		cmp	r3, #0
 780 0072 E6D1     		bne	.L15
 781              	.LVL17:
 782              	.L26:
 783              		.loc 1 259 0
 784 0074 5046     		mov	r0, r10
 785 0076 FFF7FEFF 		bl	chMtxUnlock
 786              	.LVL18:
 787              		.loc 1 263 0
 788 007a 4946     		mov	r1, r9
 789 007c 0B68     		ldr	r3, [r1]
 790 007e 002B     		cmp	r3, #0
 791 0080 48D0     		beq	.L17
 792              	.LVL19:
ARM GAS  /tmp/ccaITzYq.s 			page 49


 793              		.loc 1 264 0
 794 0082 4046     		mov	r0, r8
 795 0084 0130     		add	r0, r0, #1
 796 0086 C000     		lsl	r0, r0, #3
 797 0088 311C     		mov	r1, r6
 798              	.LVL20:
 799 008a 9847     		blx	r3
 800              	.LVL21:
 801              		.loc 1 265 0
 802 008c 0028     		cmp	r0, #0
 803 008e 41D0     		beq	.L17
 804              		.loc 1 267 0
 805 0090 019E     		ldr	r6, [sp, #4]
 806              	.LVL22:
 807              		.loc 1 266 0
 808 0092 4A46     		mov	r2, r9
 809 0094 0260     		str	r2, [r0]
 810              		.loc 1 267 0
 811 0096 4660     		str	r6, [r0, #4]
 812              		.loc 1 270 0
 813 0098 0830     		add	r0, r0, #8
 814              	.LVL23:
 815              	.L14:
 816              		.loc 1 276 0
 817 009a 03B0     		add	sp, sp, #12
 818              		@ sp needed
 819              	.LVL24:
 820              	.LVL25:
 821              	.LVL26:
 822 009c 3CBC     		pop	{r2, r3, r4, r5}
 823 009e 9046     		mov	r8, r2
 824 00a0 9946     		mov	r9, r3
 825 00a2 A246     		mov	r10, r4
 826 00a4 AB46     		mov	fp, r5
 827 00a6 F0BD     		pop	{r4, r5, r6, r7, pc}
 828              	.LVL27:
 829              	.L27:
 830 00a8 3E1C     		mov	r6, r7
 831              	.LVL28:
 832 00aa 6746     		mov	r7, ip
 833 00ac AC46     		mov	ip, r5
 834 00ae 351C     		mov	r5, r6
 835              	.LBB8:
 836              		.loc 1 203 0
 837 00b0 9C42     		cmp	r4, r3
 838 00b2 16D8     		bhi	.L28
 839              		.loc 1 227 0
 840 00b4 8845     		cmp	r8, r1
 841 00b6 29D0     		beq	.L29
 842              	.LBB3:
 843              		.loc 1 235 0
 844 00b8 4146     		mov	r1, r8
 845 00ba 0131     		add	r1, r1, #1
 846              		.loc 1 236 0
 847 00bc 1868     		ldr	r0, [r3]
 848              		.loc 1 235 0
 849 00be C900     		lsl	r1, r1, #3
ARM GAS  /tmp/ccaITzYq.s 			page 50


 850 00c0 5918     		add	r1, r3, r1
 851              	.LVL29:
 852              		.loc 1 236 0
 853 00c2 0860     		str	r0, [r1]
 854              		.loc 1 237 0
 855 00c4 581A     		sub	r0, r3, r1
 856 00c6 6044     		add	r0, r0, ip
 857 00c8 C010     		asr	r0, r0, #3
 858 00ca 4860     		str	r0, [r1, #4]
 859              		.loc 1 238 0
 860 00cc 1C1C     		mov	r4, r3
 861              	.LVL30:
 862 00ce 1160     		str	r1, [r2]
 863              	.LVL31:
 864              	.L12:
 865              	.LBE3:
 866              		.loc 1 243 0
 867 00d0 019E     		ldr	r6, [sp, #4]
 868              		.loc 1 244 0
 869 00d2 4846     		mov	r0, r9
 870 00d4 2060     		str	r0, [r4]
 871              		.loc 1 243 0
 872 00d6 6660     		str	r6, [r4, #4]
 873              		.loc 1 247 0
 874 00d8 5046     		mov	r0, r10
 875 00da FFF7FEFF 		bl	chMtxUnlock
 876              	.LVL32:
 877              		.loc 1 250 0
 878 00de 381C     		mov	r0, r7
 879 00e0 DBE7     		b	.L14
 880              	.LVL33:
 881              	.L28:
 882              	.LBB4:
 883              		.loc 1 208 0
 884 00e2 E71B     		sub	r7, r4, r7
 885 00e4 FF10     		asr	r7, r7, #3
 886 00e6 5F60     		str	r7, [r3, #4]
 887              		.loc 1 209 0
 888 00e8 B045     		cmp	r8, r6
 889 00ea 0AD2     		bcs	.L23
 890              	.LBB5:
 891              		.loc 1 214 0
 892 00ec 4246     		mov	r2, r8
 893              	.LVL34:
 894              		.loc 1 215 0
 895 00ee 4646     		mov	r6, r8
 896 00f0 F143     		mvn	r1, r6
 897              		.loc 1 214 0
 898 00f2 0132     		add	r2, r2, #1
 899              		.loc 1 215 0
 900 00f4 4D19     		add	r5, r1, r5
 901              	.LVL35:
 902              		.loc 1 214 0
 903 00f6 D200     		lsl	r2, r2, #3
 904              		.loc 1 218 0
 905 00f8 1968     		ldr	r1, [r3]
 906              		.loc 1 214 0
ARM GAS  /tmp/ccaITzYq.s 			page 51


 907 00fa A218     		add	r2, r4, r2
 908              	.LVL36:
 909              		.loc 1 215 0
 910 00fc 5560     		str	r5, [r2, #4]
 911              		.loc 1 218 0
 912 00fe 1160     		str	r1, [r2]
 913              		.loc 1 219 0
 914 0100 1A60     		str	r2, [r3]
 915              	.LVL37:
 916              	.L23:
 917 0102 071C     		mov	r7, r0
 918 0104 E4E7     		b	.L12
 919              	.LVL38:
 920              	.L25:
 921              	.LBE5:
 922              	.LBE4:
 923              	.LBE8:
 924              		.loc 1 174 0
 925 0106 0448     		ldr	r0, .L30
 926              	.LVL39:
 927 0108 8146     		mov	r9, r0
 928              	.LVL40:
 929 010a 86E7     		b	.L6
 930              	.LVL41:
 931              	.L29:
 932              	.LBB9:
 933              		.loc 1 229 0
 934 010c 1E68     		ldr	r6, [r3]
 935 010e 1C1C     		mov	r4, r3
 936              	.LVL42:
 937 0110 1660     		str	r6, [r2]
 938 0112 DDE7     		b	.L12
 939              	.LVL43:
 940              	.L17:
 941              	.LBE9:
 942              		.loc 1 275 0
 943 0114 0020     		mov	r0, #0
 944 0116 C0E7     		b	.L14
 945              	.L31:
 946              		.align	2
 947              	.L30:
 948 0118 00000000 		.word	.LANCHOR0
 949              		.cfi_endproc
 950              	.LFE151:
 951              		.size	chHeapAllocAligned, .-chHeapAllocAligned
 952 011c C046C046 		.section	.text.chHeapFree,"ax",%progbits
 953              		.align	2
 954              		.p2align 4,,15
 955              		.global	chHeapFree
 956              		.code	16
 957              		.thumb_func
 958              		.type	chHeapFree, %function
 959              	chHeapFree:
 960              	.LFB152:
 961              		.loc 1 285 0
 962              		.cfi_startproc
 963              	.LVL44:
ARM GAS  /tmp/ccaITzYq.s 			page 52


 964 0000 70B5     		push	{r4, r5, r6, lr}
 965              		.cfi_def_cfa_offset 16
 966              		.cfi_offset 4, -16
 967              		.cfi_offset 5, -12
 968              		.cfi_offset 6, -8
 969              		.cfi_offset 14, -4
 970              		.loc 1 292 0
 971 0002 041C     		mov	r4, r0
 972 0004 083C     		sub	r4, r4, #8
 973              	.LVL45:
 974              		.loc 1 298 0
 975 0006 6368     		ldr	r3, [r4, #4]
 976              		.loc 1 294 0
 977 0008 2668     		ldr	r6, [r4]
 978              	.LVL46:
 979              		.loc 1 298 0
 980 000a 0733     		add	r3, r3, #7
 981              		.loc 1 299 0
 982 000c DB08     		lsr	r3, r3, #3
 983              		.loc 1 295 0
 984 000e 351C     		mov	r5, r6
 985              		.loc 1 302 0
 986 0010 1036     		add	r6, r6, #16
 987              	.LVL47:
 988              		.loc 1 298 0
 989 0012 6360     		str	r3, [r4, #4]
 990              		.loc 1 295 0
 991 0014 0835     		add	r5, r5, #8
 992              	.LVL48:
 993              		.loc 1 302 0
 994 0016 301C     		mov	r0, r6
 995              	.LVL49:
 996 0018 FFF7FEFF 		bl	chMtxLock
 997              	.LVL50:
 998              		.loc 1 295 0
 999 001c 2B1C     		mov	r3, r5
 1000              	.LVL51:
 1001              	.L39:
 1002              		.loc 1 307 0
 1003 001e AB42     		cmp	r3, r5
 1004 0020 04D0     		beq	.L33
 1005              	.L44:
 1006              		.loc 1 307 0 is_stmt 0 discriminator 2
 1007 0022 A342     		cmp	r3, r4
 1008 0024 02D3     		bcc	.L33
 1009 0026 1B68     		ldr	r3, [r3]
 1010              	.LVL52:
 1011              		.loc 1 307 0
 1012 0028 AB42     		cmp	r3, r5
 1013 002a FAD1     		bne	.L44
 1014              	.L33:
 1015              		.loc 1 308 0 is_stmt 1 discriminator 1
 1016 002c 1A68     		ldr	r2, [r3]
 1017              		.loc 1 307 0 discriminator 1
 1018 002e 002A     		cmp	r2, #0
 1019 0030 03D0     		beq	.L35
 1020              		.loc 1 308 0
ARM GAS  /tmp/ccaITzYq.s 			page 53


 1021 0032 9442     		cmp	r4, r2
 1022 0034 01D3     		bcc	.L35
 1023 0036 131C     		mov	r3, r2
 1024              	.LVL53:
 1025              		.loc 1 326 0
 1026 0038 F1E7     		b	.L39
 1027              	.LVL54:
 1028              	.L35:
 1029              		.loc 1 313 0
 1030 003a 6168     		ldr	r1, [r4, #4]
 1031              		.loc 1 310 0
 1032 003c 2260     		str	r2, [r4]
 1033              		.loc 1 311 0
 1034 003e 1C60     		str	r4, [r3]
 1035              		.loc 1 313 0
 1036 0040 4A1C     		add	r2, r1, #1
 1037 0042 D200     		lsl	r2, r2, #3
 1038 0044 2068     		ldr	r0, [r4]
 1039 0046 A218     		add	r2, r4, r2
 1040 0048 8242     		cmp	r2, r0
 1041 004a 09D0     		beq	.L45
 1042              		.loc 1 318 0
 1043 004c 5A68     		ldr	r2, [r3, #4]
 1044 004e 511C     		add	r1, r2, #1
 1045 0050 C900     		lsl	r1, r1, #3
 1046 0052 5918     		add	r1, r3, r1
 1047 0054 8C42     		cmp	r4, r1
 1048 0056 0FD0     		beq	.L46
 1049              	.LVL55:
 1050              	.L38:
 1051              		.loc 1 329 0
 1052 0058 301C     		mov	r0, r6
 1053 005a FFF7FEFF 		bl	chMtxUnlock
 1054              	.LVL56:
 1055              		.loc 1 332 0
 1056              		@ sp needed
 1057              	.LVL57:
 1058              	.LVL58:
 1059 005e 70BD     		pop	{r4, r5, r6, pc}
 1060              	.LVL59:
 1061              	.L45:
 1062              		.loc 1 315 0
 1063 0060 5068     		ldr	r0, [r2, #4]
 1064              		.loc 1 316 0
 1065 0062 1268     		ldr	r2, [r2]
 1066              		.loc 1 315 0
 1067 0064 0918     		add	r1, r1, r0
 1068 0066 0131     		add	r1, r1, #1
 1069 0068 6160     		str	r1, [r4, #4]
 1070              		.loc 1 316 0
 1071 006a 2260     		str	r2, [r4]
 1072              		.loc 1 318 0
 1073 006c 5A68     		ldr	r2, [r3, #4]
 1074 006e 511C     		add	r1, r2, #1
 1075 0070 C900     		lsl	r1, r1, #3
 1076 0072 5918     		add	r1, r3, r1
 1077 0074 8C42     		cmp	r4, r1
ARM GAS  /tmp/ccaITzYq.s 			page 54


 1078 0076 EFD1     		bne	.L38
 1079              	.L46:
 1080              		.loc 1 320 0
 1081 0078 6168     		ldr	r1, [r4, #4]
 1082              		.loc 1 321 0
 1083 007a 2468     		ldr	r4, [r4]
 1084              	.LVL60:
 1085              		.loc 1 320 0
 1086 007c 5218     		add	r2, r2, r1
 1087 007e 0132     		add	r2, r2, #1
 1088 0080 5A60     		str	r2, [r3, #4]
 1089              		.loc 1 321 0
 1090 0082 1C60     		str	r4, [r3]
 1091 0084 E8E7     		b	.L38
 1092              		.cfi_endproc
 1093              	.LFE152:
 1094              		.size	chHeapFree, .-chHeapFree
 1095 0086 C046C046 		.section	.text.chHeapStatus,"ax",%progbits
 1095      C046C046 
 1095      C046
 1096              		.align	2
 1097              		.p2align 4,,15
 1098              		.global	chHeapStatus
 1099              		.code	16
 1100              		.thumb_func
 1101              		.type	chHeapStatus, %function
 1102              	chHeapStatus:
 1103              	.LFB153:
 1104              		.loc 1 349 0
 1105              		.cfi_startproc
 1106              	.LVL61:
 1107 0000 F0B5     		push	{r4, r5, r6, r7, lr}
 1108              		.cfi_def_cfa_offset 20
 1109              		.cfi_offset 4, -20
 1110              		.cfi_offset 5, -16
 1111              		.cfi_offset 6, -12
 1112              		.cfi_offset 7, -8
 1113              		.cfi_offset 14, -4
 1114 0002 5746     		mov	r7, r10
 1115 0004 4E46     		mov	r6, r9
 1116 0006 4546     		mov	r5, r8
 1117 0008 E0B4     		push	{r5, r6, r7}
 1118              		.cfi_def_cfa_offset 32
 1119              		.cfi_offset 8, -32
 1120              		.cfi_offset 9, -28
 1121              		.cfi_offset 10, -24
 1122              		.loc 1 349 0
 1123 000a 041C     		mov	r4, r0
 1124 000c 8A46     		mov	r10, r1
 1125 000e 9146     		mov	r9, r2
 1126              		.loc 1 353 0
 1127 0010 27D0     		beq	.L65
 1128              	.L48:
 1129              	.LVL62:
 1130              		.loc 1 357 0
 1131 0012 1023     		mov	r3, #16
 1132 0014 1B19     		add	r3, r3, r4
ARM GAS  /tmp/ccaITzYq.s 			page 55


 1133 0016 181C     		mov	r0, r3
 1134 0018 9846     		mov	r8, r3
 1135 001a FFF7FEFF 		bl	chMtxLock
 1136              	.LVL63:
 1137              		.loc 1 362 0
 1138 001e A368     		ldr	r3, [r4, #8]
 1139              		.loc 1 359 0
 1140 0020 0027     		mov	r7, #0
 1141              		.loc 1 358 0
 1142 0022 0026     		mov	r6, #0
 1143              		.loc 1 360 0
 1144 0024 0025     		mov	r5, #0
 1145              		.loc 1 362 0
 1146 0026 002B     		cmp	r3, #0
 1147 0028 08D0     		beq	.L49
 1148              	.LVL64:
 1149              	.L51:
 1150              	.LBB10:
 1151              		.loc 1 363 0
 1152 002a 5C68     		ldr	r4, [r3, #4]
 1153              	.LVL65:
 1154              		.loc 1 366 0
 1155 002c 0135     		add	r5, r5, #1
 1156              	.LVL66:
 1157              		.loc 1 367 0
 1158 002e 3619     		add	r6, r6, r4
 1159              	.LVL67:
 1160 0030 A742     		cmp	r7, r4
 1161 0032 00D2     		bcs	.L50
 1162 0034 271C     		mov	r7, r4
 1163              	.LVL68:
 1164              	.L50:
 1165              	.LBE10:
 1166              		.loc 1 362 0
 1167 0036 1B68     		ldr	r3, [r3]
 1168              	.LVL69:
 1169 0038 002B     		cmp	r3, #0
 1170 003a F6D1     		bne	.L51
 1171              	.LVL70:
 1172              	.L49:
 1173              		.loc 1 376 0
 1174 003c 5346     		mov	r3, r10
 1175 003e 002B     		cmp	r3, #0
 1176 0040 01D0     		beq	.L52
 1177              	.LVL71:
 1178              		.loc 1 377 0
 1179 0042 F600     		lsl	r6, r6, #3
 1180 0044 1E60     		str	r6, [r3]
 1181              	.L52:
 1182              		.loc 1 381 0
 1183 0046 4B46     		mov	r3, r9
 1184              	.LVL72:
 1185 0048 002B     		cmp	r3, #0
 1186 004a 01D0     		beq	.L53
 1187              	.LVL73:
 1188              		.loc 1 382 0
 1189 004c FF00     		lsl	r7, r7, #3
ARM GAS  /tmp/ccaITzYq.s 			page 56


 1190 004e 1F60     		str	r7, [r3]
 1191              	.L53:
 1192              		.loc 1 384 0
 1193 0050 4046     		mov	r0, r8
 1194 0052 FFF7FEFF 		bl	chMtxUnlock
 1195              	.LVL74:
 1196              		.loc 1 387 0
 1197              		@ sp needed
 1198 0056 281C     		mov	r0, r5
 1199              	.LVL75:
 1200              	.LVL76:
 1201 0058 1CBC     		pop	{r2, r3, r4}
 1202 005a 9046     		mov	r8, r2
 1203 005c 9946     		mov	r9, r3
 1204 005e A246     		mov	r10, r4
 1205 0060 F0BD     		pop	{r4, r5, r6, r7, pc}
 1206              	.LVL77:
 1207              	.L65:
 1208              		.loc 1 354 0
 1209 0062 014C     		ldr	r4, .L66
 1210 0064 D5E7     		b	.L48
 1211              	.L67:
 1212 0066 C046     		.align	2
 1213              	.L66:
 1214 0068 00000000 		.word	.LANCHOR0
 1215              		.cfi_endproc
 1216              	.LFE153:
 1217              		.size	chHeapStatus, .-chHeapStatus
 1218 006c C046C046 		.section	.bss.default_heap,"aw",%nobits
 1219              		.align	3
 1220              		.set	.LANCHOR0,. + 0
 1221              		.type	default_heap, %object
 1222              		.size	default_heap, 32
 1223              	default_heap:
 1224 0000 00000000 		.space	32
 1224      00000000 
 1224      00000000 
 1224      00000000 
 1224      00000000 
 1225              		.text
 1226              	.Letext0:
 1227              		.file 2 "/usr/lib/gcc/arm-none-eabi/4.8/include/stddef.h"
 1228              		.file 3 "/usr/include/newlib/machine/_default_types.h"
 1229              		.file 4 "/usr/include/newlib/stdint.h"
 1230              		.file 5 "../../../os/common/ports/ARMCMx/compilers/GCC/chtypes.h"
 1231              		.file 6 "../../../os/rt/include/chsystypes.h"
 1232              		.file 7 "../../../os/rt/include/chschd.h"
 1233              		.file 8 "../../../os/common/ports/ARMCMx/chcore.h"
 1234              		.file 9 "../../../os/common/ports/ARMCMx/chcore_v6m.h"
 1235              		.file 10 "../../../os/rt/include/chsem.h"
 1236              		.file 11 "../../../os/rt/include/chmtx.h"
 1237              		.file 12 "../../../os/common/oslib/include/chmemcore.h"
 1238              		.file 13 "../../../os/common/oslib/include/chheap.h"