ARM GAS  /tmp/cc6IfO4p.s 			page 1


   1              		.cpu cortex-m0
   2              		.fpu softvfp
   3              		.eabi_attribute 20, 1
   4              		.eabi_attribute 21, 1
   5              		.eabi_attribute 23, 3
   6              		.eabi_attribute 24, 1
   7              		.eabi_attribute 25, 1
   8              		.eabi_attribute 26, 1
   9              		.eabi_attribute 30, 2
  10              		.eabi_attribute 34, 0
  11              		.eabi_attribute 18, 4
  12              		.code	16
  13              		.file	"chmemcore.c"
  14              		.text
  15              	.Ltext0:
  16              		.section	.gnu.lto_.jmpfuncs.ad333791aadb76c1,"",%progbits
  17 0000 789C6362 		.ascii	"x\234cb`b\300\006\270\2404\013\003\003+3\0333;\003\003"
  17      6062C006 
  17      B8A0340B 
  17      03032B33 
  17      1B333B03 
  18 0015 00021E00 		.ascii	"\000\002\036\000+"
  18      2B
  19              		.text
  20              		.section	.gnu.lto_.inline.ad333791aadb76c1,"",%progbits
  21 0000 789C6362 		.ascii	"x\234cb`b\300\006*\2404\013\003\003+\013#\003\023\313"
  21      6062C006 
  21      2AA0340B 
  21      03032B0B 
  21      230313CB 
  22 0014 027906B6 		.ascii	"\002y\006\266\005\362`\305\254\014\202\002\214L\214"
  22      05F260C5 
  22      AC0C8202 
  22      8C4C8C
  23 0023 8C203688 		.ascii	"\214 6\210`\021\2310\223\021\"\313\366A\217\207\201"
  23      60119930 
  23      931122CB 
  23      F6418F87 
  23      81
  24 0034 E9023F0B 		.ascii	"\351\002?\013H\216\215AX\210\221\011\254\004\254\230"
  24      488E8D41 
  24      58889109 
  24      AC04AC98 
  25 0044 4562C30E 		.ascii	"Eb\303\0164u\034 u\354\014l\254@+\200bp+\030\000\354"
  25      34751C20 
  25      75EC0C6C 
  25      AC402B80 
  25      62702B18 
  26 005a 3A0CF7   		.ascii	":\014\367"
  27              		.text
  28              		.section	.gnu.lto_.pureconst.ad333791aadb76c1,"",%progbits
  29 0000 789C6362 		.ascii	"x\234cb`b\340d\200\000\026\006\011V\0116+v\026\000\003"
  29      6062E064 
  29      80001606 
  29      09560936 
  29      2B761600 
  30 0015 380092   		.ascii	"8\000\222"
ARM GAS  /tmp/cc6IfO4p.s 			page 2


  31              		.text
  32              		.section	.gnu.lto__core_init.ad333791aadb76c1,"",%progbits
  33 0000 789C7D4E 		.ascii	"x\234}N?K\303@\024\177\277\213\005\007\005Wq\021\235"
  33      3F4BC340 
  33      147FBF8B 
  33      05070557 
  33      71119D
  34 0013 044976DD 		.ascii	"\004Iv\335\365\013T\320\351Hc\240\001\257\221ft\350"
  34      F50B54D0 
  34      E94863A0 
  34      01AF9166 
  34      74E8
  35 0025 8B8A7411 		.ascii	"\213\212t\021\342 \202\235\212\270\252\233\203P2uS\020"
  35      E220829D 
  35      8AB8AA9B 
  35      83503275 
  35      5310
  36 0037 FD0071F7 		.ascii	"\375\000q\367\023t\360\274\344j\221\202>\356\336{\367"
  36      1374F0BC 
  36      E46A9182 
  36      3EEEDE7B 
  36      F7
  37 0048 DEFDFE08 		.ascii	"\336\375\376\010\0224\035\213\346n\203h\313T8\004\221"
  37      12341D8B 
  37      E66E8368 
  37      CB543804 
  37      91
  38 0059 BD10A5B3 		.ascii	"\275\020\245\263\002(\033\002u\004:{\250\376\336\213"
  38      02281B02 
  38      75043A7B 
  38      A8FEDE8B 
  39 0069 BCD0FA6E 		.ascii	"\274\320\372n0\274\372DO\314\230I\215N\231\263\345\025"
  39      30BCFA44 
  39      4FCC9849 
  39      8D4E99B3 
  39      E515
  40 007b EA7391E5 		.ascii	"\352s\221\345og\227\340\017\276\340/\255\021\301\250"
  40      6F6797E0 
  40      0FBEE02F 
  40      AD11C1A8 
  41 008b AD83024C 		.ascii	"\255\203\002L\264|\334`\342`\214y\0372\343!\357\262"
  41      B47CDC60 
  41      E2608C79 
  41      1F32E321 
  41      EFB2
  42 009d D69D0AB2 		.ascii	"\326\235\012\2621\005\271\305/\323vS7\271t\267cV\246"
  42      3105B9C5 
  42      2FD37653 
  42      37B974B7 
  42      6356A6
  43 00b0 3ACF743C 		.ascii	":\317t<:y<_\362\321G\215zt\2352/D\300\021\215\270[v"
  43      3A793C5F 
  43      F2D1478D 
  43      7A749D32 
  43      2F44C011 
  44 00c8 4255B85D 		.ascii	"BU\270]c\312\222\331\015oFp\024\254ZE\362\364?\211\370"
  44      63CA92D9 
ARM GAS  /tmp/cc6IfO4p.s 			page 3


  44      0D6F4670 
  44      14AC5A45 
  44      F2F43F89 
  45 00dd 9BC4A946 		.ascii	"\233\304\251F\257\224\026\203UK\361\023u#`\\\226\230"
  45      AF941683 
  45      554BF113 
  45      7523605C 
  45      9698
  46 00ef 35D7F5EC 		.ascii	"5\327\365\354\211\023/\210\225\212[\246;\210\032^\322"
  46      89132F88 
  46      958A5BA6 
  46      3B881A5E 
  46      D2
  47 0100 0EBCA0A9 		.ascii	"\016\274\240\251B\025\304\355\320\015h^\312f\350\037"
  47      4215C4ED 
  47      D00D685E 
  47      CA66E81F 
  48 0110 CA869F84 		.ascii	"\312\206\237\204R\316\215_ak_\312o\216\225o\014"
  48      52CE8D5F 
  48      616B5FCA 
  48      6F8E956F 
  48      0C
  49              		.text
  50              		.section	.gnu.lto_chCoreAllocAlignedI.ad333791aadb76c1,"",%progbits
  51 0000 789C9D54 		.ascii	"x\234\235TMh\023Q\020\236yo\263I\363\323$\255\012\361"
  51      4D681351 
  51      109E796F 
  51      B349F3D3 
  51      24AD0AF1 
  52 0014 62E94D90 		.ascii	"b\351M\220D[\364\344\301\253W\261\240\240\207v\0151"
  52      445BF4E4 
  52      C1AB57B1 
  52      A0A08776 
  52      0D31
  53 0026 E026D2F6 		.ascii	"\340&\322\366 x\350K\267\320\372\203\011\342E\275\264"
  53      2078E84B 
  53      B7D0FA83 
  53      09E245BD 
  53      B4
  54 0037 88D85245 		.ascii	"\210\330RE\360$\0045\007Q+*z\024/\201R\020\024\321\233"
  54      F0240435 
  54      07512B2A 
  54      7A142F81 
  54      521014D1 
  55 004c B4E23AF3 		.ascii	"\264\342:\363\266\273m\322\242\301\307\356\314{\337"
  55      B6BB6DD2 
  55      A2C1C7EE 
  55      CC7BDF
  56 005b CC37336F 		.ascii	"\31473o2Y\001\002\332\327 \275\207\015\200\323\2441"
  56      32590102 
  56      DAD720BD 
  56      870D80D3 
  56      A431
  57 006d 04286AEF 		.ascii	"\004(j\357\000*\021!\214\317aPQ9\377\002@\305%\032\036"
  57      002A1121 
  57      8CCF6150 
  57      5139FF02 
ARM GAS  /tmp/cc6IfO4p.s 			page 4


  57      40C5251A 
  58 0082 6E20F206 		.ascii	"n \362\006\020&\2044p\342$r\020\263\037\346\224\272"
  58      10268434 
  58      70E22472 
  58      10B31FE6 
  58      94BA
  59 0094 DE5C597D 		.ascii	"\336\\Y}/n\336hL\315\252_\256\213XDJ\270\017\301B8A"
  59      2F6EDE68 
  59      4CCDAA5F 
  59      AE8B5844 
  59      4AB80FC1 
  60 00ab 07ECD34A 		.ascii	"\007\354\323J\030\255\025x\\\365h^ui\236,\242\024p\250"
  60      18AD1578 
  60      5CF5685E 
  60      75699E2C 
  60      A21470A8 
  61 00bf 335AE3D3 		.ascii	"3Z\343\323\364\325\314\345\331\311\232\372M\031u\302"
  61      F4D5CCE5 
  61      D9C99AFA 
  61      4D1975C2 
  62 00cf 23FF97F0 		.ascii	"#\377\227\360h\207\011\177\274\254f^\267$<\266-\323"
  62      6887097F 
  62      BCAC665E 
  62      B7243CB6 
  62      2DD3
  63 00e1 C62DD4FA 		.ascii	"\306-\324\372\364\265\214j\241\236\372W\322\207\242"
  63      F4B58C6A 
  63      A19EFA57 
  63      D287A2
  64 00f0 D174DD37 		.ascii	"\321t\3357\365\346\362\032\246w\"\024\321\220h#\032"
  64      F5E6F21A 
  64      A6772214 
  64      D1906823 
  64      1A
  65 0101 2444888E 		.ascii	"$D\210\216\322d\021f\021\241\234\"\012\3038\207\375"
  65      D2641166 
  65      11A19C22 
  65      0AC33887 
  65      FD
  66 0112 10237D87 		.ascii	"\020#}\207t\234-\011\026\335,\222\004/\022\234\"}\227"
  66      749C2D09 
  66      16DD2C92 
  66      042F129C 
  66      227D97
  67 0125 749AF43D 		.ascii	"t\232\364=\322=l\354\245\303\002\035h\205`J\251Z\237"
  67      D23D6CEC 
  67      A5C3021D 
  67      6885604A 
  67      A95A9F
  68 0138 E76CA304 		.ascii	"\347l\243\004\256\223\326q\222<\000C(X\313\267\340\314"
  68      AE93D671 
  68      923C0043 
  68      2858CBB7 
  68      E0CC
  69 014a 388BD5DD 		.ascii	"8\213\325\335\303\370\200\246\247\200\241\002\312\002"
  69      C3F880A6 
  69      A780A102 
ARM GAS  /tmp/cc6IfO4p.s 			page 5


  69      CA02
  70 0158 D225D820 		.ascii	"\322%\330 }\324$\003\337.\344\322J\002['\027\002k\270"
  70      7DD42403 
  70      DF2EE4D2 
  70      4A025B27 
  70      17026BB8 
  71 016c C0F18950 		.ascii	"\300\361\211PwF|,\242Ia\200%\020\036Fw#XS\227~\322\234"
  71      77467C2C 
  71      A2496180 
  71      25101E46 
  71      77235853 
  72 0184 F99ED1DB 		.ascii	"\371\236\321\333p\253\242T\212\372y\021V\325\014\357"
  72      70ABA254 
  72      8AFA7911 
  72      56D50CEF 
  73 0194 4CAFF99C 		.ascii	"L\257\371\234\322\\o$\321\276\005\031cDk+1\256\013\217"
  73      D25C6F24 
  73      D1BE0519 
  73      63446B2B 
  73      31AE0B8F 
  74 01a8 B5A10932 		.ascii	"\265\241\0112p\024\271Q\270S\017\254\335\272\366\204"
  74      7014B951 
  74      B8530FAC 
  74      DDBAF684 
  75 01b8 0EFEC5D9 		.ascii	"\016\376\305\331\345\303I\262l*\334\353!\301^\355\217"
  75      E5C349B2 
  75      6C2ADCEB 
  75      21C15EED 
  75      8F
  76 01c9 D71AE87B 		.ascii	"\327\032\350{\246\266\257\335\370[\355i\242\351:.9O"
  76      A6B6AFDD 
  76      F85BED69 
  76      A2E93A2E 
  76      394F
  77 01db 83403D1A 		.ascii	"\203@=\032\247\254\257\340\371J%\261\011\216l\314\322"
  77      A7ACAFE0 
  77      F94A25B1 
  77      098E6CCC 
  77      D2
  78 01ec 10B599FE 		.ascii	"\020\265\231\376\316\374\233]q\226\253{|\257^]\362z"
  78      CEFC9B5D 
  78      7196AB7B 
  78      7CAF5E5D 
  78      F27A
  79 01fe 6BBF9B1E 		.ascii	"k\277\233\036\334IW\211\352G6\3644|\240/\004\303\332"
  79      DC495789 
  79      EA4736F4 
  79      347CA02F 
  79      04C3DA
  80 0211 EF2320BB 		.ascii	"\357# \273\322e\304\327';(\207\274\377,\316\023\204"
  80      D265C4D7 
  80      273B2887 
  80      BCFF2CCE 
  80      1384
  81 0223 ECCB5FA2 		.ascii	"\354\313_\242\275\331l\316{\312c9\253l\333\345\022\355"
  81      BDD96CCE 
  81      7BCA6339 
ARM GAS  /tmp/cc6IfO4p.s 			page 6


  81      AB6CDBE5 
  81      12ED
  82 0235 CE154772 		.ascii	"\316\025Grc\243V\316:k\347m\253<\232\317Z\320U\312_"
  82      63A356CE 
  82      3A6BE76D 
  82      AB3C9ACF 
  82      5AD055CA 
  83 024a 18A76376 		.ascii	"\030\247cv\177\260;\020\311\227\316\360f\300\337\014"
  83      7FB03B10 
  83      C997CEF0 
  83      66C0DF0C 
  84 025a 06B68378 		.ascii	"\006\266\203x\376\017\315n\030\346"
  84      FE0FCD6E 
  84      18E6
  85              		.text
  86              		.section	.gnu.lto_chCoreAllocAligned.ad333791aadb76c1,"",%progbits
  87 0000 789C9D54 		.ascii	"x\234\235T]H\024Q\024>gf\326\335u]]\377\"%Rz*\250\335"
  87      5D481451 
  87      143E6766 
  87      D6DD755D 
  87      5DFF2225 
  88 0019 CCEA2D28 		.ascii	"\314\352-(\204\240\007\011\372\201z\222u\\\326\001w"
  88      84A00709 
  88      FA817A92 
  88      755CD601 
  88      77
  89 002a 57762CB4 		.ascii	"Wv,\264\036\234u\003\255$%\012\242\037J\312R*\214\""
  89      1E9C7503 
  89      AD24250A 
  89      A21F4ACA 
  89      522A8C22 
  90 003e 2AECC787 		.ascii	"*\354\307\207\250T\262\242\207\210\036ZX\210 \013\205"
  90      A854B2A2 
  90      87881E5A 
  90      5888200B 
  90      85
  91 004f 20B1703A 		.ascii	" \261p:w\356\316\354j\226K\203{\317\275\347\334\357"
  91      77EECEEC 
  91      6A964B83 
  91      7BCFBDE7 
  91      DCEF
  92 0061 7CDFB9F7 		.ascii	"|\337\271\367\036\005\020`\341WM\277\2159\000\002\002"
  92      1E051060 
  92      E1574DBF 
  92      8D390002 
  92      02
  93 0072 A00D50E8 		.ascii	"\240\015P\350\235\000\2109\004A\372l\007-W\034x\006"
  93      9D008839 
  93      0441FA6C 
  93      072D571C 
  93      7806
  94 0084 A0E58928 		.ascii	"\240\345\211(q\277\204\310&\200\320.\210\022\266\357"
  94      71BF84C8 
  94      2680D02E 
  94      8812B6EF 
  95 0094 4796C4BE 		.ascii	"G\226\304\276\012\3724\355d\242\377\352\2032\355RG\257"
  95      0AFA34ED 
ARM GAS  /tmp/cc6IfO4p.s 			page 7


  95      64A2FFEA 
  95      8332ED52 
  95      47AF
  96 00a6 36A7EBA8 		.ascii	"6\247\353\250 \321\255E\220\021\366\321\002+\015#H\363"
  96      20D1AD45 
  96      9011F6D1 
  96      022B0D23 
  96      48F3
  97 00b8 F9397264 		.ascii	"\3719rd\270\363D&R\024\240*K\344\364\363\236\262\261"
  97      B8F34426 
  97      5214A02A 
  97      4BE4F4F3 
  97      9EB2B1
  98 00cb 79C8EA45 		.ascii	"y\310\352E\221!\374\003\372\241\263\273\354X\032*\011"
  98      9121FC03 
  98      FAA1B3BB 
  98      EC581A2A 
  98      09
  99 00dc B0253B52 		.ascii	"\260%;R\355\366\200\346\274\244\375\322u\321`\334\236"
  99      EDF680E6 
  99      BCA4FDD2 
  99      75D160DC 
  99      9E
 100 00ed A5D6779D 		.ascii	"\245\326w\235\247\027\020\356\374?\302\375K\301\206"
 100      A71710EE 
 100      FC3FC2FD 
 100      4BC186
 101 00fc 849184AE 		.ascii	"\204\221\204\256\237\177\37309\210E\345\"\206\020%\032"
 101      9F7FFB30 
 101      398845E5 
 101      22861025 
 101      1A
 102 010d 043B10AD 		.ascii	"\004;\020\255\203\015N6\344\202\037\373p\025\270\310"
 102      830D4E36 
 102      E4821FFB 
 102      7015B8C8 
 103 011d DE249B47 		.ascii	"\336$\233G\366:Y7\013\346\263\241\200\015\036r_&w!\331"
 103      F63A5937 
 103      0BE6B3A1 
 103      800D1E72 
 103      5F267721 
 104 0132 41B24564 		.ascii	"A\262Ed\257\221-f\301\022Z\364\323\242\224\0266\242"
 104      AF912D66 
 104      C1125AF4 
 104      D3A29416 
 104      36A2
 105 0144 B6C1114D 		.ascii	"\266\301\021M\353\255L\225|w\254;\363bm~\274\202\302"
 105      EBAD4C95 
 105      7C77AC3B 
 105      F3626D7E 
 105      BC82C2
 106 0157 12E281C5 		.ascii	"\022\342\201\305\351\333C#{m{\011AV\234\200\330\364"
 106      E9DB4323 
 106      7B6D7B09 
 106      41569C80 
 106      D8F4
 107 0169 7832B93C 		.ascii	"x2\271<\305`R\215\334;\375\325\265\332Z\015\235\237"
ARM GAS  /tmp/cc6IfO4p.s 			page 8


 107      C560528D 
 107      DC3BFDD5 
 107      B5DA5A0D 
 107      9D9F
 108 017b 71ADB056 		.ascii	"q\255\260VG'\350\315\373q\210\244\311\310N\215\221\213"
 108      4727E8CD 
 108      FB7188A4 
 108      C9C84E8D 
 108      918B
 109 018d 9C052149 		.ascii	"\234\005!IS\243'V\302$^\320\316lU0\207\307F\241\303"
 109      53A32756 
 109      C2245ED0 
 109      CE6C5530 
 109      87C746A1 
 110 01a2 01A9D309 		.ascii	"\001\251\323\0112\000w\244\252\27236\216t+\261)]/0\356"
 110      320077A4 
 110      AABA3336 
 110      8E742BB1 
 110      295D2F30 
 111 01b7 F13B2E75 		.ascii	"\361;.u#A$\307K\210w\305\257\367\224\247*\340\247jj"
 111      234124C7 
 111      4B8877C5 
 111      AFF794A7 
 111      2AE0A76A 
 112 01cc D57E9CA2 		.ascii	"\325~\234\242\343\271G\036N\233\326-\361\004v\0222/"
 112      E3B9471E 
 112      4E9BD62D 
 112      F1047612 
 112      322F
 113 01de 8D1F1F50 		.ascii	"\215\037\037P<\210\016\2121N\320\351+\000\266\241cP"
 113      3C880E8A 
 113      314ED0E9 
 113      2B00B6A1 
 113      6350
 114 01f0 34A34E13 		.ascii	"4\243N\0233\034\2577}\271\006\310\311\312\022\270\317"
 114      331CAF37 
 114      7DB906C8 
 114      C9CA12B8 
 114      CF
 115 0201 2C35D740 		.ascii	",5\327@\217\316\314\276\026\314\315\256sp6\246i\036"
 115      8FCECCBE 
 115      16CCCDAE 
 115      737036A6 
 115      691E
 116 0213 7A7A8761 		.ascii	"zz\207aV\353b3;\357'\306jOUH\260o\026i\036\301\270P"
 116      56EB6233 
 116      3BEF27C6 
 116      6A4F5548 
 116      B06F1669 
 117 022b CBE5261D 		.ascii	"\313\345&\035\024X\340\315\247\000\313\"\245\265\307"
 117      1458E0CD 
 117      A700CB22 
 117      A5B5C7
 118 023a 87AD6881 		.ascii	"\207\255h\201!?\337H\376%\276\314t{(2O\373eC\273\207"
 118      213FDF48 
 118      FE25BECC 
 118      747B2832 
ARM GAS  /tmp/cc6IfO4p.s 			page 9


 118      4FFB6543 
 119 0250 6BBFFF73 		.ascii	"k\277\377s\004\315\235\205\213k\027\377\245\275\210"
 119      04CD9D85 
 119      8B6B17FF 
 119      A5BD88
 120 025f 60868EA3 		.ascii	"`\206\216\243\361\307V\242b\303O\254/\340\351\247\230"
 120      F1C756A2 
 120      62C34FAC 
 120      2FE0E9A7 
 120      98
 121 0270 3BE3208B 		.ascii	";\343 \213\323\227\274\227\022\323\177L\221\260\307"
 121      D397BC97 
 121      12D37F4C 
 121      91B0C7
 122 027f E3C99E0A 		.ascii	"\343\311\236\012sW\211!9u\264S9\334\235\315\251\022"
 122      73578921 
 122      3975B453 
 122      39DC9DCD 
 122      A912
 123 0291 D4CC2C19 		.ascii	"\324\314,\031=@\3170q\241\037\371\313\360\343-\343\235"
 123      3D40CF30 
 123      71A11FF9 
 123      CBF0E32D 
 123      E39D
 124 02a3 0018AD11 		.ascii	"\000\030\255\021\377\210\177\266\306\234\253\"\2435"
 124      FF887FB6 
 124      C69CAB22 
 124      A335
 125 02b1 2EBA575A 		.ascii	".\272WZ\035\232\356\221W\031=b\343\375\227C?\273\331"
 125      1D9AEE91 
 125      57193D62 
 125      E3FD9743 
 125      3FBBD9
 126 02c4 26B37F6D 		.ascii	"&\263\177m\2237\020K\014\00486\210\245\314\365\036J"
 126      9337104B 
 126      0C043836 
 126      88A5CCF5 
 126      1E4A
 127 02d6 997ECA23 		.ascii	"\231~\312#L>b\205\2137\236\344\261fFV\000K\263\306\353"
 127      4C3E6285 
 127      8B379EE4 
 127      B1664656 
 127      004BB3C6 
 128 02eb F5F1BF88 		.ascii	"\365\361\277\210\352\223#\241P$L\263&\245\336\247Fe"
 128      EA9323A1 
 128      50244CB3 
 128      26A5DEA7 
 128      4665
 129 02fd 9FDC180A 		.ascii	"\237\334\030\012\204\344H4\340\225AR\225C\001lv\206"
 129      84E44834 
 129      E0954152 
 129      9543016C 
 129      7686
 130 030f 03AD2DE4 		.ascii	"\003\255-\344\365nr\004\302\015lRmN6X\261*k\266\276"
 130      F56E7204 
 130      C20D6C52 
 130      6D4E3658 
ARM GAS  /tmp/cc6IfO4p.s 			page 10


 130      B12A6BB6 
 131 0324 6A11028A 		.ascii	"j\021\002\212\371jjw\357\330\355S\302r\323\201\206\200"
 131      F96A6A77 
 131      EFD8ED53 
 131      C272D381 
 131      8680
 132 0336 4F0EA98A 		.ascii	"O\016\251\212Z\027\224eo#\254[\004\321\034\211\266\250"
 132      5A179465 
 132      6F23AC5B 
 132      04D11C89 
 132      B6A8
 133 0348 BE6DBB6A 		.ascii	"\276m\273jkj[I\025\223Twps\210vWd\356\216\266\24436"
 133      6B6A5B49 
 133      15935477 
 133      70738876 
 133      5764EE8E 
 134 0360 AA6D2AC5 		.ascii	"\252m*\305\035r\263\2524T*`'9\221h\033\330\374MJ0l\270"
 134      1D72B3AA 
 134      34542A60 
 134      27399168 
 134      1BD8FC4D 
 135 0378 03E4FE0D 		.ascii	"\003\344\376\015t\030\311\322"
 135      7418C9D2 
 136              		.text
 137              		.section	.gnu.lto_chCoreGetStatusX.ad333791aadb76c1,"",%progbits
 138 0000 789C9D52 		.ascii	"x\234\235R\277K\303@\030\375\276\273\\\233.\"N\272\225"
 138      BF4BC340 
 138      18FDBEBB 
 138      5C9B2E22 
 138      4EBA95
 139 0013 6E822493 		.ascii	"n\202$\223\277\026g\035\205\012:\326\030j\301$\320:"
 139      BF16671D 
 139      850A3AD6 
 139      186AC124 
 139      D03A
 140 0025 080EBDDA 		.ascii	"\010\016\275\332\016\272\225\342b],RT\020\012Nnvu\250"
 140      0EBA95E2 
 140      625D2C52 
 140      54100A4E 
 140      6E7675A8 
 141 0039 D0C9B5CE 		.ascii	"\320\311\265\316\202\177\200\024\342wW\023\250\210\212"
 141      827F8014 
 141      E2775713 
 141      A8888A
 142 0048 4772EFBB 		.ascii	"Gr\357\273\227{\357}w\204\001\203\257c\206\336i\242"
 142      977BEF7D 
 142      77840183 
 142      AF6386DE 
 142      69A2
 143 005a D7099103 		.ascii	"\327\011\221\003\262\372\023@\305d\210\252\000\2042"
 143      B2FA1340 
 143      C56488AA 
 143      008432
 144 0069 C3F216AA 		.ascii	"\303\362\026\252\255F\006ZR6\006\355N\237\237\235vk"
 144      AD46065A 
 144      523606ED 
 144      4E9F9F9D 
ARM GAS  /tmp/cc6IfO4p.s 			page 11


 144      766B
 145 007b 17721886 		.ascii	"\027r\030\206\210\005$\3339\004\007a\223\026\230\326"
 145      880524DB 
 145      39040761 
 145      931698D6 
 146 008b C08CF11C 		.ascii	"\300\214\361\034\255\255\313\273k\231\322:^@\316`\376"
 146      ADADCBBB 
 146      6B99D23A 
 146      5E40CE60 
 146      FE
 147 009c 4FB2C698 		.ascii	"O\262\306\230\214\322V\376\227\266\372\233\254\303\272"
 147      8CD256FE 
 147      97B6FA9B 
 147      ACC3BA
 148 00ab 8330BC7D 		.ascii	"\2030\274}\036\276<\340\224\311 \207-\314\000'\274$"
 148      1EBE3CE0 
 148      94C92087 
 148      2DCC0027 
 148      BC24
 149 00bd 3408DB84 		.ascii	"4\010\333\204\202\360\2120\001\344\232\244I\271\010"
 149      82F08A30 
 149      01E49AA4 
 149      49B908
 150 00cc A851621A 		.ascii	"\250Qb\032T\002\215,\315\352\0027\220)\344=8z\274\247"
 150      54028D2C 
 150      CDEA0237 
 150      9029E43D 
 150      387ABCA7 
 151 00e0 7BCBE10D 		.ascii	"{\313\341\015\012\310#;\207fE\312I:\316!\274\313cU\011"
 151      0AC8233B 
 151      876645CA 
 151      493ACE21 
 151      BCCB6355 
 152 00f5 4F4B5563 		.ascii	"OKUc\342\263!\222\275\306\032N2M\255E\214\361\275\013"
 152      E2B32192 
 152      BDC61A4E 
 152      324DAD45 
 152      8CF1BD0B 
 153 0109 FEE422F2 		.ascii	"\376\344\"\362\252\337\036TOb*\241\275\205\336\370V"
 153      AADF1E54 
 153      4F622AA1 
 153      BD85DEF8 
 153      56
 154 011a 9D88E824 		.ascii	"\235\210\350$}\001\350\003\306\304\310.K\001t&\365/"
 154      7D01E803 
 154      C6C4C82E 
 154      4B017426 
 154      F52F
 155 012c CD5A963D 		.ascii	"\315Z\226=z\202\222\355\004\236\027\370T\355\025\266"
 155      7A8292ED 
 155      049E17F8 
 155      54ED15B6 
 156 013c ED52D1B1 		.ascii	"\355R\321\261\235]\317\365\234\240\350Z\016\230\256"
 156      9D5DCFF5 
 156      9CA0E85A 
 156      0E98AE
 157 014b BF432B6B 		.ascii	"\277C+k!*\026S\276{\260\257\252\245\270Z\376\000\336"
ARM GAS  /tmp/cc6IfO4p.s 			page 12


 157      212A1653 
 157      BE7BB0AF 
 157      AAA5B85A 
 157      FE00DE
 158 015e B592CE   		.ascii	"\265\222\316"
 159              		.text
 160              		.section	.gnu.lto_.symbol_nodes.ad333791aadb76c1,"",%progbits
 161 0000 789C4DCA 		.ascii	"x\234M\312\273\015\2000\020\004\321\335=\256I\232\331"
 161      BB0D8030 
 161      1004D1DD 
 161      3DAE499A 
 161      D9
 162 0011 D421093F 		.ascii	"\324!\011?\203\\\0225\001\022\222\231\354I#\010#\276"
 162      835C1235 
 162      01129299 
 162      EC492308 
 162      23BE
 163 0023 B4D2C074 		.ascii	"\264\322\300t\001v+\314\231\030\034y\2200r\241^\235"
 163      01762BCC 
 163      99181C79 
 163      903072A1 
 163      5E9D
 164 0035 8C47DA68 		.ascii	"\214G\332h\366U;\255\037+\035\235\270\001\360~\027e"
 164      F6553BAD 
 164      1F2B1D9D 
 164      B801F07E 
 164      1765
 165              		.text
 166              		.section	.gnu.lto_.refs.ad333791aadb76c1,"",%progbits
 167 0000 789C25C6 		.ascii	"x\234%\306\301\015\0000\010\303@'\001:G\367_\262\225"
 167      C10D0030 
 167      08C34027 
 167      013A47F7 
 167      5FB295
 168 0013 F0E76CCC 		.ascii	"\360\347l\314e+$[q\245\021\2212\253\017\371\367\000"
 168      652B245B 
 168      71A51191 
 168      32AB0FF9 
 168      F700
 169 0025 0A740064 		.ascii	"\012t\000d"
 170              		.text
 171              		.section	.gnu.lto_.decls.ad333791aadb76c1,"",%progbits
 172 0000 789C9556 		.ascii	"x\234\225V]l\024U\024>w\272mw\351\202(J0\306\024\215"
 172      5D6C1455 
 172      143E77BA 
 172      6D77E982 
 172      284A30C6 
 173 0016 9888B623 		.ascii	"\230\210\266#\011h\237 \244\017@\">\330\220\3606\271"
 173      09689F20 
 173      A40F4022 
 173      3ED890F0 
 173      36B9
 174 0028 9D1DD80D 		.ascii	"\235\035\330\015\273\263\2703\013\324\027oA\032D\211"
 174      BBB3B833 
 174      0BD4176F 
 174      411A4489 
 175 0038 05E54F23 		.ascii	"\005\345O#\266B\221> \377\006\0145\213\221\362\217\245"
ARM GAS  /tmp/cc6IfO4p.s 			page 13


 175      B642913E 
 175      20FF060C 
 175      358B91F2 
 175      8FA5
 176 004a 4A440866 		.ascii	"JD\010f\320\240(>`\014\341\001a<w\366\316\316\354tv"
 176      D0A0283E 
 176      600CE101 
 176      613C77F6 
 176      CECEEC74 
 177 005f 29373DDB 		.ascii	")7=\333\273s\317w\276\357\234{\356\335\221@\202n\002"
 177      BB73CF77 
 177      BEEF9C7B 
 177      EEDD9140 
 177      826E02
 178 0072 60E38837 		.ascii	"`\343\2107\000L\223\000j\001`&x#\202\326\213\266\023"
 178      004C9300 
 178      6A016026 
 178      782382D6 
 178      8BB613
 179 0085 ED00DA61 		.ascii	"\355\000\332a\361\354(\332q\264\223h\247\241|\364\012"
 179      F1EC28DA 
 179      71B49368 
 179      A7A17CF4 
 179      0A
 180 0096 9F41B401 		.ascii	"\237A\264\001\264\263h\347\304\032\361\255W\213\301"
 180      B4B368E7 
 180      C41AF1AD 
 180      578BC1
 181 00a5 F9EA057E 		.ascii	"\371\352\005~\034Z\034\212\332f\241\365\213\230n\274"
 181      1C5A1C8A 
 181      DA66A1F5 
 181      8B986EBC 
 182 00b5 9D628DC7 		.ascii	"\235b\215\307\333\213\366%\332y\021\327?\270\376\250"
 182      DB8BF625 
 182      DA7911D7 
 182      3FB8FEA8 
 183 00c5 C0BB3107 		.ascii	"\300\2731\007|q/\371\342F\205\377e\264\253h\226\340"
 183      7C712FF9 
 183      E24685FF 
 183      65B4AB68 
 183      96E0
 184 00d7 B98E7603 		.ascii	"\271\216v\003\355\246/\207Ch_\205\360\361Z\325\005r"
 184      EDA62F87 
 184      43685F85 
 184      F0F15AD5 
 184      0572
 185 00e9 8884E8E7 		.ascii	"\210\204\350\347~\222\300\037\015\304h\204m\254\307"
 185      7E92C01F 
 185      0DC46884 
 185      6DACC7
 186 00f8 B2AEFFB1 		.ascii	"\262\256\377\261\367I\326\263\262`\333\263`\"ld8z\272"
 186      F749D6B3 
 186      B260DBB3 
 186      60226C64 
 186      387ABA
 187 010b 18232625 		.ascii	"\030#&%3\237\200\205\204\222q1\230\354L\3421\207\004"
 187      339F8085 
ARM GAS  /tmp/cc6IfO4p.s 			page 14


 187      84927131 
 187      98EC4CE2 
 187      318704
 188 011e 8092CFC9 		.ascii	"\200\222\317\311D1[PS\014'\301K\004\246B?\342\273\031"
 188      44315B50 
 188      530C27C1 
 188      4B04A642 
 188      3FE2BB19 
 189 0132 FBF52908 		.ascii	"\373\365)\010\033\317C\037'`\273X\215\023\236\007\350"
 189      1BCF431F 
 189      2760BB58 
 189      8D139E07 
 189      E8
 190 0143 258D7E17 		.ascii	"%\215~\027J\266\023)\250\323\272U8r\342\014a\033\330"
 190      4AB61329 
 190      A8D3BA55 
 190      3872E20C 
 190      611BD8
 191 0156 7FB6BD2A 		.ascii	"\177\266\275*\032\024:\253\241\242\320/\204\320\032"
 191      1A143AAB 
 191      A1A2D02F 
 191      84D01A
 192 0165 A70E1083 		.ascii	"\247\016\020\2035\214\255\344\300\271'\261pa\250)\260"
 192      358CADE4 
 192      C0B927B1 
 192      7061A829 
 192      B0
 193 0176 0353B0EE 		.ascii	"\003S\260\356\355\373Tf,JI?\211!6K0\330\0162\265\244"
 193      EDFB5466 
 193      2C4A493F 
 193      8921364B 
 193      30D80E32 
 194 018c B23656AE 		.ascii	"\2626V\256\032\277\273\016<\230\263,&\374\024<R\222"
 194      1ABFBB0E 
 194      3C98B32C 
 194      26FC143C 
 194      5292
 195 019e E042BDD2 		.ascii	"\340B\275\3229\325[VN\360\034lgl\203\265\372\316Pd+"
 195      39D55B56 
 195      4EF01C6C 
 195      676C83B5 
 195      FACE5064 
 196 01b3 2B445C19 		.ascii	"+D\\\031k\011w\333\211%\013\223^\364\022X\366\2036\327"
 196      6B0977DB 
 196      89250B93 
 196      5EF41258 
 196      F68336D7 
 197 01c7 E192E083 		.ascii	"\341\222\340\203\007\240\212\202\234\315Y\311\366t\255"
 197      07A08A82 
 197      9CCD59C9 
 197      F674AD
 198 01d6 1E1F716A 		.ascii	"\036\037qj\012U@\"\353\335\241{\265\377t\274\273\323"
 198      0A554022 
 198      EBDDA17B 
 198      B5FF74BC 
 198      BBD3
 199 01e8 B2EDC662 		.ascii	"\262\355\306b\375%\330H\302\262c\037r\205\\2%{0\020"
ARM GAS  /tmp/cc6IfO4p.s 			page 15


 199      FD25D848 
 199      C2B2631F 
 199      72855C32 
 199      257B3010 
 200 01fc 25074695 		.ascii	"%\007F\225\330\005\221\030%\373\036\200\252\222X%\220"
 200      D8059118 
 200      25FB1E80 
 200      AA925825 
 200      90
 201 020d 48ECE0C8 		.ascii	"H\354\340\310\304z\254\302\355\265\357\273\207%\032"
 201      C47AACC2 
 201      EDB5EFBB 
 201      87251A
 202 021c E8412EB0 		.ascii	"\350A.\260R\023\036\0119-\273\002%)\311\334\277\213"
 202      52131E09 
 202      392DBB02 
 202      2529C9DC 
 202      BF8B
 203 022e C544BEE8 		.ascii	"\305D\276\350p\270\272\314\257\313e>\013\275\214\015"
 203      70B8BACC 
 203      AFCB653E 
 203      0BBD8C0D 
 204 023e 17ECBE53 		.ascii	"\027\354\276S\374\254\260[\330w\015\260\326\353x\321"
 204      FCACB05B 
 204      D8770DB0 
 204      D6EB78D1 
 205 024e FE561F9B 		.ascii	"\376V\037\233\264\305k\377\250\033\230x\355\377\357"
 205      B4C56BFF 
 205      A81B9878 
 205      EDFFEF
 206 025d 7BBB5F74 		.ascii	"{\273_t\332\377\033\247\357~\012\250\035} \373\374\266"
 206      DAFF1BA7 
 206      EF7E0AA8 
 206      1D7D20FB 
 206      FCB6
 207 026f 1627D031 		.ascii	"\026'\3201'\320:)x\220H\340 \221\362\203Db\336\304&"
 207      27D03A29 
 207      789048E0 
 207      2091F283 
 207      4462DEC4 
 208 0284 F050BE95 		.ascii	"\360P\276\225\366c\2004\2701$\330\\RT\311\375;\257\310"
 208      F6638034 
 208      B83124D8 
 208      5C5254C9 
 208      FD3BAFC8 
 209 0298 BCC056B7 		.ascii	"\274\300V\267\325\367\327\220\324\311\276\355d\374>"
 209      D5F7D790 
 209      D4C9BEED 
 209      64FC3E
 210 02a7 22E451E8 		.ascii	"\"\344Q\350\346\2550y\313\270b\275<\201\203\270\346"
 210      E6AD3079 
 210      CBB862BD 
 210      3C8183B8 
 210      E6
 211 02b8 1B127C26 		.ascii	"\033\022|&\371s\240\344Dyl\334\274\365\203\037\361\036"
 211      F973A0E4 
 211      44796CDC 
ARM GAS  /tmp/cc6IfO4p.s 			page 16


 211      BCF5831F 
 211      F11E
 212 02ca 63EC3E86 		.ascii	"c\354>\206.j\225`\367\003E\236\012\212,\\\354\332H\330"
 212      2E6A9560 
 212      F703459E 
 212      0A8A2C5C 
 212      ECDA48D8 
 213 02de 35E606E2 		.ascii	"5\346\006\342R$8\030\340?\343\301\312:\245H\\\211\354"
 213      52243818 
 213      E03FE3C1 
 213      CA3AA548 
 213      5C89EC
 214 02f1 AC57C000 		.ascii	"\254W\300\000\212\263TB\235\363P\\\342\320P\341\302"
 214      8AB35442 
 214      9DF3505C 
 214      E2D050E1 
 214      C2
 215 0302 89771961 		.ascii	"\211w\031a]\254\223w\252W\305Rw\025\252w\027\377\245"
 215      5DAC9377 
 215      AA57C552 
 215      7715AA77 
 215      17FFA5
 216 0315 917CAD38 		.ascii	"\221|\2558)\334\227\222\013d\012~\016\213\255\341K\303"
 216      29DC9792 
 216      0B640A7E 
 216      0E8BADE1 
 216      4BC3
 217 0327 A55E1916 		.ascii	"\245^\031\026\315\"\3011\251\274\277|e\252\016\025\244"
 217      CD22C131 
 217      A9BCBF7C 
 217      65AA0E15 
 217      A4
 218 0338 3DC4657D 		.ascii	"=\304e}\334q\366\267\305\260w=\004\335(\371Qt\211\223"
 218      DC71F6B7 
 218      C5B0773D 
 218      04DD28F9 
 218      51748993 
 219 034c 0A2BD532 		.ascii	"\012+\3252^\371F\271\350\323\023\217y\223\011e\252]"
 219      5EF946B9 
 219      E8D3138F 
 219      79930965 
 219      AA5D
 220 035e 2FCC6D50 		.ascii	"/\314mP\012\374\004\004UH\360\275H\237\2221\244\242"
 220      0AFC0404 
 220      5548F0BD 
 220      489F9231 
 220      A4A2
 221 0370 F8161755 		.ascii	"\370\026\027U/|/=\264\366\237+h\257\023\272\371][\270"
 221      2F7C2F3D 
 221      B4F69F2B 
 221      68AF13BA 
 221      F95D5BB8 
 222 0384 65DDDD74 		.ascii	"e\335\335t\3478\331\260\212\235t\256\261\236h\361\245"
 222      E738D9B0 
 222      8A9D74AE 
 222      B19E68F1 
 222      A5
ARM GAS  /tmp/cc6IfO4p.s 			page 17


 223 0395 43827B52 		.ascii	"C\202{R\350\305\031x\253\270\034|\253\2702\362BG\222"
 223      E8C51978 
 223      ABB81C7C 
 223      ABB832F2 
 223      424792
 224 03a8 6D976FD7 		.ascii	"m\227o\327\342\357\353;\314\266\337~\306e8T3\032\206"
 224      E2EFEB3B 
 224      CCB6DF7E 
 224      C6653854 
 224      331A86
 225 03bb AB41865F 		.ascii	"\253A\206_B\031\354+\203\353\311\346R\032k$\227\345"
 225      4219EC2B 
 225      83EBC9E6 
 225      521A6B24 
 225      97E5
 226 03cd 9F3216E7 		.ascii	"\2372\026\347\345@\002\273\206T\343\264\202\234\327"
 226      E54002BB 
 226      8654E3B4 
 226      829CD7
 227 03dc 4239EF6E 		.ascii	"B9\357n:>\030V\272u\221\321$v=H\362{x\351>\276?\262"
 227      3A3E1856 
 227      BA7591D1 
 227      24763D48 
 227      F27B78E9 
 228 03f4 745B47C5 		.ascii	"t[G\305p#\310\360gx\351>\031\350p\031zKI\364EF\324\215"
 228      7023C8F0 
 228      6778E93E 
 228      19E87019 
 228      7A4B49F4 
 229 040c 92DFBC00 		.ascii	"\222\337\274\000a\2047\203\204\177\227\023\302\013\315"
 229      61843783 
 229      847F9713 
 229      C20BCD
 230 041b CD72F12F 		.ascii	"\315r\361/k\310j6\223\311\3528K\247\332e#\247\312j2"
 230      6BC86A36 
 230      93C9EA38 
 230      4BA7DA65 
 230      23A7CA6A 
 231 0430 A365D46C 		.ascii	"\243e\324lNkVa\214\302'JJO\231us^_0\271\025^\226\363"
 231      4E6B5661 
 231      8CC2274A 
 231      4A4F9975 
 231      735E5F30 
 232 0449 464EE6BE 		.ascii	"FN\346\276\213UU\246\271L\223\236\325\265&\215\266\247"
 232      8B5555A6 
 232      B94C939E 
 232      D5B5268D 
 232      B6A7
 233 045b E4E9CD2D 		.ascii	"\344\351\315-rJW\323\371\204&\033f\"\241-jNB\235\221"
 233      724A57D3 
 233      F984261B 
 233      6622A12D 
 233      6A4E429D 
 234 0470 7A4B53CC 		.ascii	"zKS\314\011j\262\025C\315N\247\263\352\354tj\261\256"
 234      096AB215 
 234      43CD4EA7 
 234      B3EAEC74 
ARM GAS  /tmp/cc6IfO4p.s 			page 18


 234      6AB1AE
 235 0483 25E645F8 		.ascii	"%\346E\370R-\345\337\036\033\271<\276\370h\216f\266"
 235      522DE5DF 
 235      1E1BB93C 
 235      BEF8688E 
 235      66B6
 236 0495 99D4CC1B 		.ascii	"\231\324\314\033\013\237v\250]\002][\356(6\023)\335"
 236      0B9F76A8 
 236      5D025D5B 
 236      EE283613 
 236      29DD
 237 04a7 449EFA3C 		.ascii	"D\236\372<\376oQ\314\2460\257\014U\223)]\223\025\324"
 237      FE6F51CC 
 237      A630AF0C 
 237      5593295D 
 237      9315D4
 238 04ba 44F36953 		.ascii	"D\363iS1;\226j\006\242b\212\"p\365\272\266\302\304\314"
 238      313B966A 
 238      06A2628A 
 238      2270F5BA 
 238      B6C2C4CC 
 239 04ce C72A4A52 		.ascii	"\307*JR\243K\225vjh\212R\247\351\011|\030\027\017\361"
 239      A34B9576 
 239      6A688A52 
 239      A7E9097C 
 239      18170FF1 
 240 04e2 9BA244D4 		.ascii	"\233\242D\324$\315E\025eQ^W\025e\254;i\2361\343\325"
 240      24CD4515 
 240      65515E57 
 240      1565AC3B 
 240      699E31E3 
 241 04f7 E98DFED2 		.ascii	"\351\215\376\322\346\314\222\0165it8|j\262\255\303x"
 241      E6CC920E 
 241      35697438 
 241      7C6AB2AD 
 241      C378
 242 0509 2DAB2E69 		.ascii	"-\253.i\012\331\204\245\331\234i\310\263\337\230\337"
 242      0AD984A5 
 242      D99C69C8 
 242      B3DF98DF 
 243 0519 3A7F0542 		.ascii	":\177\005B\234\332/{%\303q|I\301\342,\231\026\202C\345"
 243      9CDA2F7B 
 243      25C3717C 
 243      49C1E22C 
 243      99168243 
 244 052e 72EBFCB6 		.ascii	"r\353\374\266ym\036_\306H\031\012n\021bQa\"e\320\366"
 244      796D1E5F 
 244      C648190A 
 244      6E116251 
 244      612265D0 
 245 0543 346E64EE 		.ascii	"4nd\356\315\2614\275\234v\030\270\247i\254H\203\243"
 245      CDB134BD 
 245      9C7618B8 
 245      A769AC48 
 245      83A3
 246 0555 6781CE23 		.ascii	"g\201\316#78\034yg\216\011k\272\013\371\037\314\334"
 246      37381C79 
ARM GAS  /tmp/cc6IfO4p.s 			page 19


 246      678E096B 
 246      BA0BF91F 
 246      CCDC
 247 0567 1C64     		.ascii	"\034d"
 248              		.text
 249              		.section	.gnu.lto_.symtab.ad333791aadb76c1,"",%progbits
 250 0000 5F636F72 		.ascii	"_core_init\000\000\000\000\000\000\000\000\000\000\000"
 250      655F696E 
 250      69740000 
 250      00000000 
 250      00000000 
 251 0015 00A10000 		.ascii	"\000\241\000\000\000chCoreAllocAlignedI\000\000\000"
 251      00636843 
 251      6F726541 
 251      6C6C6F63 
 251      416C6967 
 252 0030 00000000 		.ascii	"\000\000\000\000\000\000\000\000\000\246\000\000\000"
 252      00000000 
 252      00A60000 
 252      00
 253 003d 6368436F 		.ascii	"chCoreAllocAligned\000\000\000\000\000\000\000\000\000"
 253      7265416C 
 253      6C6F6341 
 253      6C69676E 
 253      65640000 
 254 0058 000000B3 		.ascii	"\000\000\000\263\000\000\000chCoreGetStatusX\000\000"
 254      00000063 
 254      68436F72 
 254      65476574 
 254      53746174 
 255 0071 00000000 		.ascii	"\000\000\000\000\000\000\000\000\000\000\270\000\000"
 255      00000000 
 255      0000B800 
 255      00
 256 007e 005F5F68 		.ascii	"\000__heap_base__\000\000\002\000\000\000\000\000\000"
 256      6561705F 
 256      62617365 
 256      5F5F0000 
 256      02000000 
 257 0095 000000C5 		.ascii	"\000\000\000\305\000\000\000__heap_end__\000\000\002"
 257      0000005F 
 257      5F686561 
 257      705F656E 
 257      645F5F00 
 258 00ab 00000000 		.ascii	"\000\000\000\000\000\000\000\000\000\312\000\000\000"
 258      00000000 
 258      00CA0000 
 258      00
 259              		.text
 260              		.section	.gnu.lto_.opts,"",%progbits
 261 0000 272D6D63 		.ascii	"'-mcpu=cortex-m0' '-mno-thumb-interwork' '-mthumb' "
 261      70753D63 
 261      6F727465 
 261      782D6D30 
 261      2720272D 
 262 0033 272D6767 		.ascii	"'-ggdb' '-O2' '-fomit-frame-pointer' '-falign-funct"
 262      64622720 
ARM GAS  /tmp/cc6IfO4p.s 			page 20


 262      272D4F32 
 262      2720272D 
 262      666F6D69 
 263 0066 696F6E73 		.ascii	"ions=16' '-ffunction-sections' '-fdata-sections' '-"
 263      3D313627 
 263      20272D66 
 263      66756E63 
 263      74696F6E 
 264 0099 666E6F2D 		.ascii	"fno-common' '-flto'\000"
 264      636F6D6D 
 264      6F6E2720 
 264      272D666C 
 264      746F2700 
 265              		.text
 266              		.cfi_sections	.debug_frame
 267              		.section	.text._core_init,"ax",%progbits
 268              		.align	2
 269              		.p2align 4,,15
 270              		.global	_core_init
 271              		.code	16
 272              		.thumb_func
 273              		.type	_core_init, %function
 274              	_core_init:
 275              	.LFB149:
 276              		.file 1 "../../../os/common/oslib/src/chmemcore.c"
 277              		.loc 1 79 0
 278              		.cfi_startproc
 279              		.loc 1 85 0
 280 0000 034A     		ldr	r2, .L2
 281 0002 044B     		ldr	r3, .L2+4
 282              		.loc 1 94 0
 283              		@ sp needed
 284              		.loc 1 85 0
 285 0004 1A60     		str	r2, [r3]
 286              		.loc 1 86 0
 287 0006 044A     		ldr	r2, .L2+8
 288 0008 044B     		ldr	r3, .L2+12
 289 000a 1A60     		str	r2, [r3]
 290              		.loc 1 94 0
 291 000c 7047     		bx	lr
 292              	.L3:
 293 000e C046     		.align	2
 294              	.L2:
 295 0010 00000000 		.word	__heap_base__
 296 0014 00000000 		.word	.LANCHOR0
 297 0018 00000000 		.word	__heap_end__
 298 001c 00000000 		.word	.LANCHOR1
 299              		.cfi_endproc
 300              	.LFE149:
 301              		.size	_core_init, .-_core_init
 302              		.section	.text.chCoreAllocAlignedI,"ax",%progbits
 303              		.align	2
 304              		.p2align 4,,15
 305              		.global	chCoreAllocAlignedI
 306              		.code	16
 307              		.thumb_func
 308              		.type	chCoreAllocAlignedI, %function
ARM GAS  /tmp/cc6IfO4p.s 			page 21


 309              	chCoreAllocAlignedI:
 310              	.LFB150:
 311              		.loc 1 108 0
 312              		.cfi_startproc
 313              	.LVL0:
 314              		.loc 1 115 0
 315 0000 0A4A     		ldr	r2, .L8
 316              		.loc 1 108 0
 317 0002 10B5     		push	{r4, lr}
 318              		.cfi_def_cfa_offset 8
 319              		.cfi_offset 4, -8
 320              		.cfi_offset 14, -4
 321              		.loc 1 115 0
 322 0004 1468     		ldr	r4, [r2]
 323              		.loc 1 114 0
 324 0006 0138     		sub	r0, r0, #1
 325              	.LVL1:
 326              		.loc 1 115 0
 327 0008 013C     		sub	r4, r4, #1
 328              		.loc 1 114 0
 329 000a 4B42     		neg	r3, r1
 330 000c 4018     		add	r0, r0, r1
 331              	.LVL2:
 332              		.loc 1 115 0
 333 000e 6118     		add	r1, r4, r1
 334              	.LVL3:
 335 0010 1940     		and	r1, r3
 336              		.loc 1 114 0
 337 0012 1840     		and	r0, r3
 338              	.LVL4:
 339              		.loc 1 117 0
 340 0014 064B     		ldr	r3, .L8+4
 341              	.LVL5:
 342 0016 1B68     		ldr	r3, [r3]
 343 0018 5B1A     		sub	r3, r3, r1
 344 001a 9842     		cmp	r0, r3
 345 001c 03D8     		bhi	.L6
 346              		.loc 1 120 0
 347 001e 0818     		add	r0, r1, r0
 348              	.LVL6:
 349 0020 1060     		str	r0, [r2]
 350              		.loc 1 122 0
 351 0022 081C     		mov	r0, r1
 352              	.L5:
 353              		.loc 1 123 0
 354              		@ sp needed
 355 0024 10BD     		pop	{r4, pc}
 356              	.LVL7:
 357              	.L6:
 358              		.loc 1 118 0
 359 0026 0020     		mov	r0, #0
 360              	.LVL8:
 361 0028 FCE7     		b	.L5
 362              	.L9:
 363 002a C046     		.align	2
 364              	.L8:
 365 002c 00000000 		.word	.LANCHOR0
ARM GAS  /tmp/cc6IfO4p.s 			page 22


 366 0030 00000000 		.word	.LANCHOR1
 367              		.cfi_endproc
 368              	.LFE150:
 369              		.size	chCoreAllocAlignedI, .-chCoreAllocAlignedI
 370 0034 C046C046 		.section	.text.chCoreAllocAligned,"ax",%progbits
 370      C046C046 
 370      C046C046 
 371              		.align	2
 372              		.p2align 4,,15
 373              		.global	chCoreAllocAligned
 374              		.code	16
 375              		.thumb_func
 376              		.type	chCoreAllocAligned, %function
 377              	chCoreAllocAligned:
 378              	.LFB151:
 379              		.loc 1 137 0
 380              		.cfi_startproc
 381              	.LVL9:
 382 0000 10B5     		push	{r4, lr}
 383              		.cfi_def_cfa_offset 8
 384              		.cfi_offset 4, -8
 385              		.cfi_offset 14, -4
 386              	.LBB26:
 387              	.LBB27:
 388              	.LBB28:
 389              	.LBB29:
 390              		.file 2 "../../../os/common/ext/CMSIS/include/cmsis_gcc.h"
 391              		.loc 2 71 0
 392              	@ 71 "../../../os/common/ext/CMSIS/include/cmsis_gcc.h" 1
 393 0002 72B6     		cpsid i
 394              	@ 0 "" 2
 395              	.LVL10:
 396              		.code	16
 397              	.LBE29:
 398              	.LBE28:
 399              	.LBE27:
 400              	.LBE26:
 401              	.LBB30:
 402              	.LBB31:
 403              		.loc 1 114 0
 404 0004 4A1E     		sub	r2, r1, #1
 405 0006 1018     		add	r0, r2, r0
 406              	.LVL11:
 407              		.loc 1 115 0
 408 0008 094A     		ldr	r2, .L13
 409              		.loc 1 114 0
 410 000a 4B42     		neg	r3, r1
 411              		.loc 1 115 0
 412 000c 1468     		ldr	r4, [r2]
 413              		.loc 1 114 0
 414 000e 1840     		and	r0, r3
 415              	.LVL12:
 416              		.loc 1 115 0
 417 0010 013C     		sub	r4, r4, #1
 418 0012 6118     		add	r1, r4, r1
 419              	.LVL13:
 420 0014 1940     		and	r1, r3
ARM GAS  /tmp/cc6IfO4p.s 			page 23


 421              	.LVL14:
 422              		.loc 1 117 0
 423 0016 074B     		ldr	r3, .L13+4
 424              	.LVL15:
 425 0018 1B68     		ldr	r3, [r3]
 426 001a 5B1A     		sub	r3, r3, r1
 427 001c 9842     		cmp	r0, r3
 428 001e 04D8     		bhi	.L12
 429              		.loc 1 120 0
 430 0020 0818     		add	r0, r1, r0
 431              	.LVL16:
 432 0022 1060     		str	r0, [r2]
 433              		.loc 1 122 0
 434 0024 081C     		mov	r0, r1
 435              	.L11:
 436              	.LBE31:
 437              	.LBE30:
 438              	.LBB33:
 439              	.LBB34:
 440              	.LBB35:
 441              	.LBB36:
 442              	.LBB37:
 443              		.loc 2 60 0
 444              	@ 60 "../../../os/common/ext/CMSIS/include/cmsis_gcc.h" 1
 445 0026 62B6     		cpsie i
 446              	@ 0 "" 2
 447              		.code	16
 448              	.LBE37:
 449              	.LBE36:
 450              	.LBE35:
 451              	.LBE34:
 452              	.LBE33:
 453              		.loc 1 145 0
 454              		@ sp needed
 455 0028 10BD     		pop	{r4, pc}
 456              	.LVL17:
 457              	.L12:
 458              	.LBB38:
 459              	.LBB32:
 460              		.loc 1 118 0
 461 002a 0020     		mov	r0, #0
 462              	.LVL18:
 463 002c FBE7     		b	.L11
 464              	.L14:
 465 002e C046     		.align	2
 466              	.L13:
 467 0030 00000000 		.word	.LANCHOR0
 468 0034 00000000 		.word	.LANCHOR1
 469              	.LBE32:
 470              	.LBE38:
 471              		.cfi_endproc
 472              	.LFE151:
 473              		.size	chCoreAllocAligned, .-chCoreAllocAligned
 474 0038 C046C046 		.section	.text.chCoreGetStatusX,"ax",%progbits
 474      C046C046 
 475              		.align	2
 476              		.p2align 4,,15
ARM GAS  /tmp/cc6IfO4p.s 			page 24


 477              		.global	chCoreGetStatusX
 478              		.code	16
 479              		.thumb_func
 480              		.type	chCoreGetStatusX, %function
 481              	chCoreGetStatusX:
 482              	.LFB152:
 483              		.loc 1 154 0
 484              		.cfi_startproc
 485              		.loc 1 157 0
 486 0000 024B     		ldr	r3, .L16
 487              		.loc 1 159 0
 488              		@ sp needed
 489              		.loc 1 157 0
 490 0002 1868     		ldr	r0, [r3]
 491 0004 024B     		ldr	r3, .L16+4
 492 0006 1B68     		ldr	r3, [r3]
 493 0008 C01A     		sub	r0, r0, r3
 494              		.loc 1 159 0
 495 000a 7047     		bx	lr
 496              	.L17:
 497              		.align	2
 498              	.L16:
 499 000c 00000000 		.word	.LANCHOR1
 500 0010 00000000 		.word	.LANCHOR0
 501              		.cfi_endproc
 502              	.LFE152:
 503              		.size	chCoreGetStatusX, .-chCoreGetStatusX
 504 0014 C046C046 		.section	.bss.endmem,"aw",%nobits
 504      C046C046 
 504      C046C046 
 505              		.align	2
 506              		.set	.LANCHOR1,. + 0
 507              		.type	endmem, %object
 508              		.size	endmem, 4
 509              	endmem:
 510 0000 00000000 		.space	4
 511              		.section	.bss.nextmem,"aw",%nobits
 512              		.align	2
 513              		.set	.LANCHOR0,. + 0
 514              		.type	nextmem, %object
 515              		.size	nextmem, 4
 516              	nextmem:
 517 0000 00000000 		.space	4
 518              		.text
 519              	.Letext0:
 520              		.file 3 "/usr/lib/gcc/arm-none-eabi/4.8/include/stddef.h"
 521              		.file 4 "/usr/include/newlib/machine/_default_types.h"
 522              		.file 5 "/usr/include/newlib/stdint.h"
 523              		.file 6 "../../../os/common/ports/ARMCMx/compilers/GCC/chtypes.h"
 524              		.file 7 "../../../os/rt/include/chsystypes.h"
 525              		.file 8 "../../../os/rt/include/chschd.h"
 526              		.file 9 "../../../os/common/ports/ARMCMx/chcore.h"
 527              		.file 10 "../../../os/common/ports/ARMCMx/chcore_v6m.h"
 528              		.file 11 "../../../os/rt/include/chsem.h"
 529              		.file 12 "../../../os/rt/include/chmtx.h"
 530              		.file 13 "../../../os/rt/include/chsys.h"