ARM GAS  /tmp/cc6IfO4p.s 			page 1


   1              		.cpu cortex-m0
   2              		.fpu softvfp
   3              		.eabi_attribute 20, 1
   4              		.eabi_attribute 21, 1
   5              		.eabi_attribute 23, 3
   6              		.eabi_attribute 24, 1
   7              		.eabi_attribute 25, 1
   8              		.eabi_attribute 26, 1
   9              		.eabi_attribute 30, 2
  10              		.eabi_attribute 34, 0
  11              		.eabi_attribute 18, 4
  12              		.code	16
  13              		.file	"chmemcore.c"
  14              		.text
  15              	.Ltext0:
  16              		.section	.gnu.lto_.jmpfuncs.ad333791aadb76c1,"",%progbits
  17 0000 789C6362 		.ascii	"x\234cb`b\300\006\270\2404\013\003\003+3\0333;\003\003"
  17      6062C006 
  17      B8A0340B 
  17      03032B33 
  17      1B333B03 
  18 0015 00021E00 		.ascii	"\000\002\036\000+"
  18      2B
  19              		.text
  20              		.section	.gnu.lto_.inline.ad333791aadb76c1,"",%progbits
  21 0000 789C6362 		.ascii	"x\234cb`b\300\006*\2404\013\003\003+\013#\003\023\313"
  21      6062C006 
  21      2AA0340B 
  21      03032B0B 
  21      230313CB 
  22 0014 027906B6 		.ascii	"\002y\006\266\005\362`\305\254\014\202\002\214L\214"
  22      05F260C5 
  22      AC0C8202 
  22      8C4C8C
  23 0023 8C203688 		.ascii	"\214 6\210`\021\2310\223\021\"\313\366A\217\207\201"
  23      60119930 
  23      931122CB 
  23      F6418F87 
  23      81
  24 0034 E9023F0B 		.ascii	"\351\002?\013H\216\215AX\210\221\011\254\004\254\230"
  24      488E8D41 
  24      58889109 
  24      AC04AC98 
  25 0044 4562C30E 		.ascii	"Eb\303\0164u\034 u\354\014l\254@+\200bp+\030\000\354"
  25      34751C20 
  25      75EC0C6C 
  25      AC402B80 
  25      62702B18 
  26 005a 3A0CF7   		.ascii	":\014\367"
  27              		.text
  28              		.section	.gnu.lto_.pureconst.ad333791aadb76c1,"",%progbits
  29 0000 789C6362 		.ascii	"x\234cb`b\340d\200\000\026\006\011V\0116+v\026\000\003"
  29      6062E064 
  29      80001606 
  29      09560936 
  29      2B761600 
  30 0015 380092   		.ascii	"8\000\222"
ARM GAS  /tmp/cc6IfO4p.s 			page 2


  31              		.text
  32              		.section	.gnu.lto__core_init.ad333791aadb76c1,"",%progbits
  33 0000 789C7D4E 		.ascii	"x\234}N?K\303@\024\177\277\213\005\007\005Wq\021\235"
  33      3F4BC340 
  33      147FBF8B 
  33      05070557 
  33      71119D
  34 0013 044976DD 		.ascii	"\004Iv\335\365\013T\320\351Hc\240\001\257\221ft\350"
  34      F50B54D0 
  34      E94863A0 
  34      01AF9166 
  34      74E8
  35 0025 8B8A7411 		.ascii	"\213\212t\021\342 \202\235\212\270\252\233\203P2uS\020"
  35      E220829D 
  35      8AB8AA9B 
  35      83503275 
  35      5310
  36 0037 FD0071F7 		.ascii	"\375\000q\367\023t\360\274\344j\221\202>\356\336{\367"
  36      1374F0BC 
  36      E46A9182 
  36      3EEEDE7B 
  36      F7
  37 0048 DEFDFE08 		.ascii	"\336\375\376\010\0224\035\213\346n\203h\313T8\004\221"
  37      12341D8B 
  37      E66E8368 
  37      CB543804 
  37      91
  38 0059 BD10A5B3 		.ascii	"\275\020\245\263\002(\033\002u\004:{\250\376\336\213"
  38      02281B02 
  38      75043A7B 
  38      A8FEDE8B 
  39 0069 BCD0FA6E 		.ascii	"\274\320\372n0\274\372DO\314\230I\215N\231\263\345\025"
  39      30BCFA44 
  39      4FCC9849 
  39      8D4E99B3 
  39      E515
  40 007b EA7391E5 		.ascii	"\352s\221\345og\227\340\017\276\340/\255\021\301\250"
  40      6F6797E0 
  40      0FBEE02F 
  40      AD11C1A8 
  41 008b AD83024C 		.ascii	"\255\203\002L\264|\334`\342`\214y\0372\343!\357\262"
  41      B47CDC60 
  41      E2608C79 
  41      1F32E321 
  41      EFB2
  42 009d D69D0AB2 		.ascii	"\326\235\012\2621\005\271\305/\323vS7\271t\267cV\246"
  42      3105B9C5 
  42      2FD37653 
  42      37B974B7 
  42      6356A6
  43 00b0 3ACF743C 		.ascii	":\317t<:y<_\362\321G\215zt\2352/D\300\021\215\270[v"
  43      3A793C5F 
  43      F2D1478D 
  43      7A749D32 
  43      2F44C011 
  44 00c8 4255B85D 		.ascii	"BU\270]c\312\222\331\015oFp\024\254ZE\362\364?\211\370"
  44      63CA92D9 
ARM GAS  /tmp/cc6IfO4p.s 			page 3


  44      0D6F4670 
  44      14AC5A45 
  44      F2F43F89 
  45 00dd 9BC4A946 		.ascii	"\233\304\251F\257\224\026\203UK\361\023u#`\\\226\230"
  45      AF941683 
  45      554BF113 
  45      7523605C 
  45      9698
  46 00ef 35D7F5EC 		.ascii	"5\327\365\354\211\023/\210\225\212[\246;\210\032^\322"
  46      89132F88 
  46      958A5BA6 
  46      3B881A5E 
  46      D2
  47 0100 0EBCA0A9 		.ascii	"\016\274\240\251B\025\304\355\320\015h^\312f\350\037"
  47      4215C4ED 
  47      D00D685E 
  47      CA66E81F 
  48 0110 CA869F84 		.ascii	"\312\206\237\204R\316\215_ak_\312o\216\225o\014"
  48      52CE8D5F 
  48      616B5FCA 
  48      6F8E956F 
  48      0C
  49              		.text
  50              		.section	.gnu.lto_chCoreAllocAlignedI.ad333791aadb76c1,"",%progbits
  51 0000 789C9D54 		.ascii	"x\234\235TMh\023Q\020\236yo\263I\363\323$\255\012\361"
  51      4D681351 
  51      109E796F 
  51      B349F3D3 
  51      24AD0AF1 
  52 0014 62E94D90 		.ascii	"b\351M\220D[\364\344\301\253W\261\240\240\207v\0151"
  52      445BF4E4 
  52      C1AB57B1 
  52      A0A08776 
  52      0D31
  53 0026 E026D2F6 		.ascii	"\340&\322\366 x\350K\267\320\372\203\011\342E\275\264"
  53      2078E84B 
  53      B7D0FA83 
  53      09E245BD 
  53      B4
  54 0037 88D85245 		.ascii	"\210\330RE\360$\0045\007Q+*z\024/\201R\020\024\321\233"
  54      F0240435 
  54      07512B2A 
  54      7A142F81 
  54      521014D1 
  55 004c B4E23AF3 		.ascii	"\264\342:\363\266\273m\322\242\301\307\356\314{\337"
  55      B6BB6DD2 
  55      A2C1C7EE 
  55      CC7BDF
  56 005b CC37336F 		.ascii	"\31473o2Y\001\002\332\327 \275\207\015\200\323\2441"
  56      32590102 
  56      DAD720BD 
  56      870D80D3 
  56      A431
  57 006d 04286AEF 		.ascii	"\004(j\357\000*\021!\214\317aPQ9\377\002@\305%\032\036"
  57      002A1121 
  57      8CCF6150 
  57      5139FF02 
ARM GAS  /tmp/cc6IfO4p.s 			page 4


  57      40C5251A 
  58 0082 6E20F206 		.ascii	"n \362\006\020&\2044p\342$r\020\263\037\346\224\272"
  58      10268434 
  58      70E22472 
  58      10B31FE6 
  58      94BA
  59 0094 DE5C597D 		.ascii	"\336\\Y}/n\336hL\315\252_\256\213XDJ\270\017\301B8A"
  59      2F6EDE68 
  59      4CCDAA5F 
  59      AE8B5844 
  59      4AB80FC1 
  60 00ab 07ECD34A 		.ascii	"\007\354\323J\030\255\025x\\\365h^ui\236,\242\024p\250"
  60      18AD1578 
  60      5CF5685E 
  60      75699E2C 
  60      A21470A8 
  61 00bf 335AE3D3 		.ascii	"3Z\343\323\364\325\314\345\331\311\232\372M\031u\302"
  61      F4D5CCE5 
  61      D9C99AFA 
  61      4D1975C2 
  62 00cf 23FF97F0 		.ascii	"#\377\227\360h\207\011\177\274\254f^\267$<\266-\323"
  62      6887097F 
  62      BCAC665E 
  62      B7243CB6 
  62      2DD3
  63 00e1 C62DD4FA 		.ascii	"\306-\324\372\364\265\214j\241\236\372W\322\207\242"
  63      F4B58C6A 
  63      A19EFA57 
  63      D287A2
  64 00f0 D174DD37 		.ascii	"\321t\3357\365\346\362\032\246w\"\024\321\220h#\032"
  64      F5E6F21A 
  64      A6772214 
  64      D1906823 
  64      1A
  65 0101 2444888E 		.ascii	"$D\210\216\322d\021f\021\241\234\"\012\3038\207\375"
  65      D2641166 
  65      11A19C22 
  65      0AC33887 
  65      FD
  66 0112 10237D87 		.ascii	"\020#}\207t\234-\011\026\335,\222\004/\022\234\"}\227"
  66      749C2D09 
  66      16DD2C92 
  66      042F129C 
  66      227D97
  67 0125 749AF43D 		.ascii	"t\232\364=\322=l\354\245\303\002\035h\205`J\251Z\237"
  67      D23D6CEC 
  67      A5C3021D 
  67      6885604A 
  67      A95A9F
  68 0138 E76CA304 		.ascii	"\347l\243\004\256\223\326q\222<\000C(X\313\267\340\314"
  68      AE93D671 
  68      923C0043 
  68      2858CBB7 
  68      E0CC
  69 014a 388BD5DD 		.ascii	"8\213\325\335\303\370\200\246\247\200\241\002\312\002"
  69      C3F880A6 
  69      A780A102 
ARM GAS  /tmp/cc6IfO4p.s 			page 5


  69      CA02
  70 0158 D225D820 		.ascii	"\322%\330 }\324$\003\337.\344\322J\002['\027\002k\270"
  70      7DD42403 
  70      DF2EE4D2 
  70      4A025B27 
  70      17026BB8 
  71 016c C0F18950 		.ascii	"\300\361\211PwF|,\242Ia\200%\020\036Fw#XS\227~\322\234"
  71      77467C2C 
  71      A2496180 
  71      25101E46 
  71      77235853 
  72 0184 F99ED1DB 		.ascii	"\371\236\321\333p\253\242T\212\372y\021V\325\014\357"
  72      70ABA254 
  72      8AFA7911 
  72      56D50CEF 
  73 0194 4CAFF99C 		.ascii	"L\257\371\234\322\\o$\321\276\005\031cDk+1\256\013\217"
  73      D25C6F24 
  73      D1BE0519 
  73      63446B2B 
  73      31AE0B8F 
  74 01a8 B5A10932 		.ascii	"\265\241\0112p\024\271Q\270S\017\254\335\272\366\204"
  74      7014B951 
  74      B8530FAC 
  74      DDBAF684 
  75 01b8 0EFEC5D9 		.ascii	"\016\376\305\331\345\303I\262l*\334\353!\301^\355\217"
  75      E5C349B2 
  75      6C2ADCEB 
  75      21C15EED 
  75      8F
  76 01c9 D71AE87B 		.ascii	"\327\032\350{\246\266\257\335\370[\355i\242\351:.9O"
  76      A6B6AFDD 
  76      F85BED69 
  76      A2E93A2E 
  76      394F
  77 01db 83403D1A 		.ascii	"\203@=\032\247\254\257\340\371J%\261\011\216l\314\322"
  77      A7ACAFE0 
  77      F94A25B1 
  77      098E6CCC 
  77      D2
  78 01ec 10B599FE 		.ascii	"\020\265\231\376\316\374\233]q\226\253{|\257^]\362z"
  78      CEFC9B5D 
  78      7196AB7B 
  78      7CAF5E5D 
  78      F27A
  79 01fe 6BBF9B1E 		.ascii	"k\277\233\036\334IW\211\352G6\3644|\240/\004\303\332"
  79      DC495789 
  79      EA4736F4 
  79      347CA02F 
  79      04C3DA
  80 0211 EF2320BB 		.ascii	"\357# \273\322e\304\327';(\207\274\377,\316\023\204"
  80      D265C4D7 
  80      273B2887 
  80      BCFF2CCE 
  80      1384
  81 0223 ECCB5FA2 		.ascii	"\354\313_\242\275\331l\316{\312c9\253l\333\345\022\355"
  81      BDD96CCE 
  81      7BCA6339 
ARM GAS  /tmp/cc6IfO4p.s 			page 6


  81      AB6CDBE5 
  81      12ED
  82 0235 CE154772 		.ascii	"\316\025Grc\243V\316:k\347m\253<\232\317Z\320U\312_"
  82      63A356CE 
  82      3A6BE76D 
  82      AB3C9ACF 
  82      5AD055CA 
  83 024a 18A76376 		.ascii	"\030\247cv\177\260;\020\311\227\316\360f\300\337\014"
  83      7FB03B10 
  83      C997CEF0 
  83      66C0DF0C 
  84 025a 06B68378 		.ascii	"\006\266\203x\376\017\315n\030\346"
  84      FE0FCD6E 
  84      18E6
  85              		.text
  86              		.section	.gnu.lto_chCoreAllocAligned.ad333791aadb76c1,"",%progbits
  87 0000 789C9D54 		.ascii	"x\234\235T]H\024Q\024>gf\326\335u]]\377\"%Rz*\250\335"
  87      5D481451 
  87      143E6766 
  87      D6DD755D 
  87      5DFF2225 
  88 0019 CCEA2D28 		.ascii	"\314\352-(\204\240\007\011\372\201z\222u\\\326\001w"
  88      84A00709 
  88      FA817A92 
  88      755CD601 
  88      77
  89 002a 57762CB4 		.ascii	"Wv,\264\036\234u\003\255$%\012\242\037J\312R*\214\""
  89      1E9C7503 
  89      AD24250A 
  89      A21F4ACA 
  89      522A8C22 
  90 003e 2AECC787 		.ascii	"*\354\307\207\250T\262\242\207\210\036ZX\210 \013\205"
  90      A854B2A2 
  90      87881E5A 
  90      5888200B 
  90      85
  91 004f 20B1703A 		.ascii	" \261p:w\356\316\354j\226K\203{\317\275\347\334\357"
  91      77EECEEC 
  91      6A964B83 
  91      7BCFBDE7 
  91      DCEF
  92 0061 7CDFB9F7 		.ascii	"|\337\271\367\036\005\020`\341WM\277\2159\000\002\002"
  92      1E051060 
  92      E1574DBF 
  92      8D390002 
  92      02
  93 0072 A00D50E8 		.ascii	"\240\015P\350\235\000\2109\004A\372l\007-W\034x\006"
  93      9D008839 
  93      0441FA6C 
  93      072D571C 
  93      7806
  94 0084 A0E58928 		.ascii	"\240\345\211(q\277\204\310&\200\320.\210\022\266\357"
  94      71BF84C8 
  94      2680D02E 
  94      8812B6EF 
  95 0094 4796C4BE 		.ascii	"G\226\304\276\012\3724\355d\242\377\352\2032\355RG\257"
  95      0AFA34ED 
ARM GAS  /tmp/cc6IfO4p.s 			page 7


  95      64A2FFEA 
  95      8332ED52 
  95      47AF
  96 00a6 36A7EBA8 		.ascii	"6\247\353\250 \321\255E\220\021\366\321\002+\015#H\363"
  96      20D1AD45 
  96      9011F6D1 
  96      022B0D23 
  96      48F3
  97 00b8 F9397264 		.ascii	"\3719rd\270\363D&R\024\240*K\344\364\363\236\262\261"
  97      B8F34426 
  97      5214A02A 
  97      4BE4F4F3 
  97      9EB2B1
  98 00cb 79C8EA45 		.ascii	"y\310\352E\221!\374\003\372\241\263\273\354X\032*\011"
  98      9121FC03 
  98      FAA1B3BB 
  98      EC581A2A 
  98      09
  99 00dc B0253B52 		.ascii	"\260%;R\355\366\200\346\274\244\375\322u\321`\334\236"
  99      EDF680E6 
  99      BCA4FDD2 
  99      75D160DC 
  99      9E
 100 00ed A5D6779D 		.ascii	"\245\326w\235\247\027\020\356\374?\302\375K\301\206"
 100      A71710EE 
 100      FC3FC2FD 
 100      4BC186
 101 00fc 849184AE 		.ascii	"\204\221\204\256\237\177\37309\210E\345\"\206\020%\032"
 101      9F7FFB30 
 101      398845E5 
 101      22861025 
 101      1A
 102 010d 043B10AD 		.ascii	"\004;\020\255\203\015N6\344\202\037\373p\025\270\310"
 102      830D4E36 
 102      E4821FFB 
 102      7015B8C8 
 103 011d DE249B47 		.ascii	"\336$\233G\366:Y7\013\346\263\241\200\015\036r_&w!\331"
 103      F63A5937 
 103      0BE6B3A1 
 103      800D1E72 
 103      5F267721 
 104 0132 41B24564 		.ascii	"A\262Ed\257\221-f\301\022Z\364\323\242\224\0266\242"
 104      AF912D66 
 104      C1125AF4 
 104      D3A29416 
 104      36A2
 105 0144 B6C1114D 		.ascii	"\266\301\021M\353\255L\225|w\254;\363bm~\274\202\302"
 105      EBAD4C95 
 105      7C77AC3B 
 105      F3626D7E 
 105      BC82C2
 106 0157 12E281C5 		.ascii	"\022\342\201\305\351\333C#{m{\011AV\234\200\330\364"
 106      E9DB4323 
 106      7B6D7B09 
 106      41569C80 
 106      D8F4
 107 0169 7832B93C 		.ascii	"x2\271<\305`R\215\334;\375\325\265\332Z\015\235\237"
ARM GAS  /tmp/cc6IfO4p.s 			page 8


 107      C560528D 
 107      DC3BFDD5 
 107      B5DA5A0D 
 107      9D9F
 108 017b 71ADB056 		.ascii	"q\255\260VG'\350\315\373q\210\244\311\310N\215\221\213"
 108      4727E8CD 
 108      FB7188A4 
 108      C9C84E8D 
 108      918B
 109 018d 9C052149 		.ascii	"\234\005!IS\243'V\302$^\320\316lU0\207\307F\241\303"
 109      53A32756 
 109      C2245ED0 
 109      CE6C5530 
 109      87C746A1 
 110 01a2 01A9D309 		.ascii	"\001\251\323\0112\000w\244\252\27236\216t+\261)]/0\356"
 110      320077A4 
 110      AABA3336 
 110      8E742BB1 
 110      295D2F30 
 111 01b7 F13B2E75 		.ascii	"\361;.u#A$\307K\210w\305\257\367\224\247*\340\247jj"
 111      234124C7 
 111      4B8877C5 
 111      AFF794A7 
 111      2AE0A76A 
 112 01cc D57E9CA2 		.ascii	"\325~\234\242\343\271G\036N\233\326-\361\004v\0222/"
 112      E3B9471E 
 112      4E9BD62D 
 112      F1047612 
 112      322F
 113 01de 8D1F1F50 		.ascii	"\215\037\037P<\210\016\2121N\320\351+\000\266\241cP"
 113      3C880E8A 
 113      314ED0E9 
 113      2B00B6A1 
 113      6350
 114 01f0 34A34E13 		.ascii	"4\243N\0233\034\2577}\271\006\310\311\312\022\270\317"
 114      331CAF37 
 114      7DB906C8 
 114      C9CA12B8 
 114      CF
 115 0201 2C35D740 		.ascii	",5\327@\217\316\314\276\026\314\315\256sp6\246i\036"
 115      8FCECCBE 
 115      16CCCDAE 
 115      737036A6 
 115      691E
 116 0213 7A7A8761 		.ascii	"zz\207aV\353b3;\357'\306jOUH\260o\026i\036\301\270P"
 116      56EB6233 
 116      3BEF27C6 
 116      6A4F5548 
 116      B06F1669 
 117 022b CBE5261D 		.ascii	"\313\345&\035\024X\340\315\247\000\313\"\245\265\307"
 117      1458E0CD 
 117      A700CB22 
 117      A5B5C7
 118 023a 87AD6881 		.ascii	"\207\255h\201!?\337H\376%\276\314t{(2O\373eC\273\207"
 118      213FDF48 
 118      FE25BECC 
 118      747B2832 
ARM GAS  /tmp/cc6IfO4p.s 			page 9


 118      4FFB6543 
 119 0250 6BBFFF73 		.ascii	"k\277\377s\004\315\235\205\213k\027\377\245\275\210"
 119      04CD9D85 
 119      8B6B17FF 
 119      A5BD88
 120 025f 60868EA3 		.ascii	"`\206\216\243\361\307V\242b\303O\254/\340\351\247\230"
 120      F1C756A2 
 120      62C34FAC 
 120      2FE0E9A7 
 120      98
 121 0270 3BE3208B 		.ascii	";\343 \213\323\227\274\227\022\323\177L\221\260\307"
 121      D397BC97 
 121      12D37F4C 
 121      91B0C7
 122 027f E3C99E0A 		.ascii	"\343\311\236\012sW\211!9u\264S9\334\235\315\251\022"
 122      73578921 
 122      3975B453 
 122      39DC9DCD 
 122      A912
 123 0291 D4CC2C19 		.ascii	"\324\314,\031=@\3170q\241\037\371\313\360\343-\343\235"
 123      3D40CF30 
 123      71A11FF9 
 123      CBF0E32D 
 123      E39D
 124 02a3 0018AD11 		.ascii	"\000\030\255\021\377\210\177\266\306\234\253\"\2435"
 124      FF887FB6 
 124      C69CAB22 
 124      A335
 125 02b1 2EBA575A 		.ascii	".\272WZ\035\232\356\221W\031=b\343\375\227C?\273\331"
 125      1D9AEE91 
 125      57193D62 
 125      E3FD9743 
 125      3FBBD9
 126 02c4 26B37F6D 		.ascii	"&\263\177m\2237\020K\014\00486\210\245\314\365\036J"
 126      9337104B 
 126      0C043836 
 126      88A5CCF5 
 126      1E4A
 127 02d6 997ECA23 		.ascii	"\231~\312#L>b\205\2137\236\344\261fFV\000K\263\306\353"
 127      4C3E6285 
 127      8B379EE4 
 127      B1664656 
 127      004BB3C6 
 128 02eb F5F1BF88 		.ascii	"\365\361\277\210\352\223#\241P$L\263&\245\336\247Fe"
 128      EA9323A1 
 128      50244CB3 
 128      26A5DEA7 
 128      4665
 129 02fd 9FDC180A 		.ascii	"\237\334\030\012\204\344H4\340\225AR\225C\001lv\206"
 129      84E44834 
 129      E0954152 
 129      9543016C 
 129      7686
 130 030f 03AD2DE4 		.ascii	"\003\255-\344\365nr\004\302\015lRmN6X\261*k\266\276"
 130      F56E7204 
 130      C20D6C52 
 130      6D4E3658 
ARM GAS  /tmp/cc6IfO4p.s 			page 10


 130      B12A6BB6 
 131 0324 6A11028A 		.ascii	"j\021\002\212\371jjw\357\330\355S\302r\323\201\206\200"
 131      F96A6A77 
 131      EFD8ED53 
 131      C272D381 
 131      8680
 132 0336 4F0EA98A 		.ascii	"O\016\251\212Z\027\224eo#\254[\004\321\034\211\266\250"
 132      5A179465 
 132      6F23AC5B 
 132      04D11C89 
 132      B6A8
 133 0348 BE6DBB6A 		.ascii	"\276m\273jkj[I\025\223Twps\210vWd\356\216\266\24436"
 133      6B6A5B49 
 133      15935477 
 133      70738876 
 133      5764EE8E 
 134 0360 AA6D2AC5 		.ascii	"\252m*\305\035r\263\2524T*`'9\221h\033\330\374MJ0l\270"
 134      1D72B3AA 
 134      34542A60 
 134      27399168 
 134      1BD8FC4D 
 135 0378 03E4FE0D 		.ascii	"\003\344\376\015t\030\311\322"
 135      7418C9D2 
 136              		.text
 137              		.section	.gnu.lto_chCoreGetStatusX.ad333791aadb76c1,"",%progbits
 138 0000 789C9D52 		.ascii	"x\234\235R\277K\303@\030\375\276\273\\\233.\"N\272\225"
 138      BF4BC340 
 138      18FDBEBB 
 138      5C9B2E22 
 138      4EBA95
 139 0013 6E822493 		.ascii	"n\202$\223\277\026g\035\205\012:\326\030j\301$\320:"
 139      BF16671D 
 139      850A3AD6 
 139      186AC124 
 139      D03A
 140 0025 080EBDDA 		.ascii	"\010\016\275\332\016\272\225\342b],RT\020\012Nnvu\250"
 140      0EBA95E2 
 140      625D2C52 
 140      54100A4E 
 140      6E7675A8 
 141 0039 D0C9B5CE 		.ascii	"\320\311\265\316\202\177\200\024\342wW\023\250\210\212"
 141      827F8014 
 141      E2775713 
 141      A8888A
 142 0048 4772EFBB 		.ascii	"Gr\357\273\227{\357}w\204\001\203\257c\206\336i\242"
 142      977BEF7D 
 142      77840183 
 142      AF6386DE 
 142      69A2
 143 005a D7099103 		.ascii	"\327\011\221\003\262\372\023@\305d\210\252\000\2042"
 143      B2FA1340 
 143      C56488AA 
 143      008432
 144 0069 C3F216AA 		.ascii	"\303\362\026\252\255F\006ZR6\006\355N\237\237\235vk"
 144      AD46065A 
 144      523606ED 
 144      4E9F9F9D 
ARM GAS  /tmp/cc6IfO4p.s 			page 11


 144      766B
 145 007b 17721886 		.ascii	"\027r\030\206\210\005$\3339\004\007a\223\026\230\326"
 145      880524DB 
 145      39040761 
 145      931698D6 
 146 008b C08CF11C 		.ascii	"\300\214\361\034\255\255\313\273k\231\322:^@\316`\376"
 146      ADADCBBB 
 146      6B99D23A 
 146      5E40CE60 
 146      FE
 147 009c 4FB2C698 		.ascii	"O\262\306\230\214\322V\376\227\266\372\233\254\303\272"
 147      8CD256FE 
 147      97B6FA9B 
 147      ACC3BA
 148 00ab 8330BC7D 		.ascii	"\2030\274}\036\276<\340\224\311 \207-\314\000'\274$"
 148      1EBE3CE0 
 148      94C92087 
 148      2DCC0027 
 148      BC24
 149 00bd 3408DB84 		.ascii	"4\010\333\204\202\360\2120\001\344\232\244I\271\010"
 149      82F08A30 
 149      01E49AA4 
 149      49B908
 150 00cc A851621A 		.ascii	"\250Qb\032T\002\215,\315\352\0027\220)\344=8z\274\247"
 150      54028D2C 
 150      CDEA0237 
 150      9029E43D 
 150      387ABCA7 
 151 00e0 7BCBE10D 		.ascii	"{\313\341\015\012\310#;\207fE\312I:\316!\274\313cU\011"
 151      0AC8233B 
 151      876645CA 
 151      493ACE21 
 151      BCCB6355 
 152 00f5 4F4B5563 		.ascii	"OKUc\342\263!\222\275\306\032N2M\255E\214\361\275\013"
 152      E2B32192 
 152      BDC61A4E 
 152      324DAD45 
 152      8CF1BD0B 
 153 0109 FEE422F2 		.ascii	"\376\344\"\362\252\337\036TOb*\241\275\205\336\370V"
 153      AADF1E54 
 153      4F622AA1 
 153      BD85DEF8 
 153      56
 154 011a 9D88E824 		.ascii	"\235\210\350$}\001\350\003\306\304\310.K\001t&\365/"
 154      7D01E803 
 154      C6C4C82E 
 154      4B017426 
 154      F52F
 155 012c CD5A963D 		.ascii	"\315Z\226=z\202\222\355\004\236\027\370T\355\025\266"
 155      7A8292ED 
 155      049E17F8 
 155      54ED15B6 
 156 013c ED52D1B1 		.ascii	"\355R\321\261\235]\317\365\234\240\350Z\016\230\256"
 156      9D5DCFF5 
 156      9CA0E85A 
 156      0E98AE
 157 014b BF432B6B 		.ascii	"\277C+k!*\026S\276{\260\257\252\245\270Z\376\000\336"
ARM GAS  /tmp/cc6IfO4p.s 			page 12


 157      212A1653 
 157      BE7BB0AF 
 157      AAA5B85A 
 157      FE00DE
 158 015e B592CE   		.ascii	"\265\222\316"
 159              		.text
 160              		.section	.gnu.lto_.symbol_nodes.ad333791aadb76c1,"",%progbits
 161 0000 789C4DCA 		.ascii	"x\234M\312\273\015\2000\020\004\321\335=\256I\232\331"
 161      BB0D8030 
 161      1004D1DD 
 161      3DAE499A 
 161      D9
 162 0011 D421093F 		.ascii	"\324!\011?\203\\\0225\001\022\222\231\354I#\010#\276"
 162      835C1235 
 162      01129299 
 162      EC492308 
 162      23BE
 163 0023 B4D2C074 		.ascii	"\264\322\300t\001v+\314\231\030\034y\2200r\241^\235"
 163      01762BCC 
 163      99181C79 
 163      903072A1 
 163      5E9D
 164 0035 8C47DA68 		.ascii	"\214G\332h\366U;\255\037+\035\235\270\001\360~\027e"
 164      F6553BAD 
 164      1F2B1D9D 
 164      B801F07E 
 164      1765
 165              		.text
 166              		.section	.gnu.lto_.refs.ad333791aadb76c1,"",%progbits
 167 0000 789C25C6 		.ascii	"x\234%\306\301\015\0000\010\303@'\001:G\367_\262\225"
 167      C10D0030 
 167      08C34027 
 167      013A47F7 
 167      5FB295
 168 0013 F0E76CCC 		.ascii	"\360\347l\314e+$[q\245\021\2212\253\017\371\367\000"
 168      652B245B 
 168      71A51191 
 168      32AB0FF9 
 168      F700
 169 0025 0A740064 		.ascii	"\012t\000d"
 170              		.text
 171              		.section	.gnu.lto_.decls.ad333791aadb76c1,"",%progbits
 172 0000 789C9556 		.ascii	"x\234\225V]l\024U\024>w\272mw\351\202(J0\306\024\215"
 172      5D6C1455 
 172      143E77BA 
 172      6D77E982 
 172      284A30C6 
 173 0016 9888B623 		.ascii	"\230\210\266#\011h\237 \244\017@\">\330\220\3606\271"
 173      09689F20 
 173      A40F4022 
 173      3ED890F0 
 173      36B9
 174 0028 9D1DD80D 		.ascii	"\235\035\330\015\273\263\2703\013\324\027oA\032D\211"
 174      BBB3B833 
 174      0BD4176F 
 174      411A4489 
 175 0038 05E54F23 		.ascii	"\005\345O#\266B\221> \377\006\0145\213\221\362\217\245"
ARM GAS  /tmp/cc6IfO4p.s 			page 13


 175      B642913E 
 175      20FF060C 
 175      358B91F2 
 175      8FA5
 176 004a 4A440866 		.ascii	"JD\010f\320\240(>`\014\341\001a<w\366\316\316\354tv"
 176      D0A0283E 
 176      600CE101 
 176      613C77F6 
 176      CECEEC74 
 177 005f 29373DDB 		.ascii	")7=\333\273s\317w\276\357\234{\356\335\221@\202n\002"
 177      BB73CF77 
 177      BEEF9C7B 
 177      EEDD9140 
 177      826E02
 178 0072 60E38837 		.ascii	"`\343\2107\000L\223\000j\001`&x#\202\326\213\266\023"
 178      004C9300 
 178      6A016026 
 178      782382D6 
 178      8BB613
 179 0085 ED00DA61 		.ascii	"\355\000\332a\361\354(\332q\264\223h\247\241|\364\012"
 179      F1EC28DA 
 179      71B49368 
 179      A7A17CF4 
 179      0A
 180 0096 9F41B401 		.ascii	"\237A\264\001\264\263h\347\304\032\361\255W\213\301"
 180      B4B368E7 
 180      C41AF1AD 
 180      578BC1
 181 00a5 F9EA057E 		.ascii	"\371\352\005~\034Z\034\212\332f\241\365\213\230n\274"
 181      1C5A1C8A 
 181      DA66A1F5 
 181      8B986EBC 
 182 00b5 9D628DC7 		.ascii	"\235b\215\307\333\213\366%\332y\021\327?\270\376\250"
 182      DB8BF625 
 182      DA7911D7 
 182      3FB8FEA8 
 183 00c5 C0BB3107 		.ascii	"\300\2731\007|q/\371\342F\205\377e\264\253h\226\340"
 183      7C712FF9 
 183      E24685FF 
 183      65B4AB68 
 183      96E0
 184 00d7 B98E7603 		.ascii	"\271\216v\003\355\246/\207Ch_\205\360\361Z\325\005r"
 184      EDA62F87 
 184      43685F85 
 184      F0F15AD5 
 184      0572
 185 00e9 8884E8E7 		.ascii	"\210\204\350\347~\222\300\037\015\304h\204m\254\307"
 185      7E92C01F 
 185      0DC46884 
 185      6DACC7
 186 00f8 B2AEFFB1 		.ascii	"\262\256\377\261\367I\326\263\262`\333\263`\"ld8z\272"
 186      F749D6B3 
 186      B260DBB3 
 186      60226C64 
 186      387ABA
 187 010b 18232625 		.ascii	"\030#&%3\237\200\205\204\222q1\230\354L\3421\207\004"
 187      339F8085 
ARM GAS  /tmp/cc6IfO4p.s 			page 14


 187      84927131 
 187      98EC4CE2 
 187      318704
 188 011e 8092CFC9 		.ascii	"\200\222\317\311D1[PS\014'\301K\004\246B?\342\273\031"
 188      44315B50 
 188      530C27C1 
 188      4B04A642 
 188      3FE2BB19 
 189 0132 FBF52908 		.ascii	"\373\365)\010\033\317C\037'`\273X\215\023\236\007\350"
 189      1BCF431F 
 189      2760BB58 
 189      8D139E07 
 189      E8
 190 0143 258D7E17 		.ascii	"%\215~\027J\266\023)\250\323\272U8r\342\014a\033\330"
 190      4AB61329 
 190      A8D3BA55 
 190      3872E20C 
 190      611BD8
 191 0156 7FB6BD2A 		.ascii	"\177\266\275*\032\024:\253\241\242\320/\204\320\032"
 191      1A143AAB 
 191      A1A2D02F 
 191      84D01A
 192 0165 A70E1083 		.ascii	"\247\016\020\2035\214\255\344\300\271'\261pa\250)\260"
 192      358CADE4 
 192      C0B927B1 
 192      7061A829 
 192      B0
 193 0176 0353B0EE 		.ascii	"\003S\260\356\355\373Tf,JI?\211!6K0\330\0162\265\244"
 193      EDFB5466 
 193      2C4A493F 
 193      8921364B 
 193      30D80E32 
 194 018c B23656AE 		.ascii	"\2626V\256\032\277\273\016<\230\263,&\374\024<R\222"
 194      1ABFBB0E 
 194      3C98B32C 
 194      26FC143C 
 194      5292
 195 019e E042BDD2 		.ascii	"\340B\275\3229\325[VN\360\034lgl\203\265\372\316Pd+"
 195      39D55B56 
 195      4EF01C6C 
 195      676C83B5 
 195      FACE5064 
 196 01b3 2B445C19 		.ascii	"+D\\\031k\011w\333\211%\013\223^\364\022X\366\2036\327"
 196      6B0977DB 
 196      89250B93 
 196      5EF41258 
 196      F68336D7 
 197 01c7 E192E083 		.ascii	"\341\222\340\203\007\240\212\202\234\315Y\311\366t\255"
 197      07A08A82 
 197      9CCD59C9 
 197      F674AD
 198 01d6 1E1F716A 		.ascii	"\036\037qj\012U@\"\353\335\241{\265\377t\274\273\323"
 198      0A554022 
 198      EBDDA17B 
 198      B5FF74BC 
 198      BBD3
 199 01e8 B2EDC662 		.ascii	"\262\355\306b\375%\330H\302\262c\037r\205\\2%{0\020"
ARM GAS  /tmp/cc6IfO4p.s 			page 15


 199      FD25D848 
 199      C2B2631F 
 199      72855C32 
 199      257B3010 
 200 01fc 25074695 		.ascii	"%\007F\225\330\005\221\030%\373\036\200\252\222X%\220"
 200      D8059118 
 200      25FB1E80 
 200      AA925825 
 200      90
 201 020d 48ECE0C8 		.ascii	"H\354\340\310\304z\254\302\355\265\357\273\207%\032"
 201      C47AACC2 
 201      EDB5EFBB 
 201      87251A
 202 021c E8412EB0 		.ascii	"\350A.\260R\023\036\0119-\273\002%)\311\334\277\213"
 202      52131E09 
 202      392DBB02 
 202      2529C9DC 
 202      BF8B
 203 022e C544BEE8 		.ascii	"\305D\276\350p\270\272\314\257\313e>\013\275\214\015"
 203      70B8BACC 
 203      AFCB653E 
 203      0BBD8C0D 
 204 023e 17ECBE53 		.ascii	"\027\354\276S\374\254\260[\330w\015\260\326\353x\321"
 204      FCACB05B 
 204      D8770DB0 
 204      D6EB78D1 
 205 024e FE561F9B 		.ascii	"\376V\037\233\264\305k\377\250\033\230x\355\377\357"
 205      B4C56BFF 
 205      A81B9878 
 205      EDFFEF
 206 025d 7BBB5F74 		.ascii	"{\273_t\332\377\033\247\357~\012\250\035} \373\374\266"
 206      DAFF1BA7 
 206      EF7E0AA8 
 206      1D7D20FB 
 206      FCB6
 207 026f 1627D031 		.ascii	"\026'\3201'\320:)x\220H\340 \221\362\203Db\336\304&"
 207      27D03A29 
 207      789048E0 
 207      2091F283 
 207      4462DEC4 
 208 0284 F050BE95 		.ascii	"\360P\276\225\366c\2004\2701$\330\\RT\311\375;\257\310"
 208      F6638034 
 208      B83124D8 
 208      5C5254C9 
 208      FD3BAFC8 
 209 0298 BCC056B7 		.ascii	"\274\300V\267\325\367\327\220\324\311\276\355d\374>"
 209      D5F7D790 
 209      D4C9BEED 
 209      64FC3E
 210 02a7 22E451E8 		.ascii	"\"\344Q\350\346\2550y\313\270b\275<\201\203\270\346"
 210      E6AD3079 
 210      CBB862BD 
 210      3C8183B8 
 210      E6
 211 02b8 1B127C26 		.ascii	"\033\022|&\371s\240\344Dyl\334\274\365\203\037\361\036"
 211      F973A0E4 
 211      44796CDC 
ARM GAS  /tmp/cc6IfO4p.s 			page 16


 211      BCF5831F 
 211      F11E
 212 02ca 63EC3E86 		.ascii	"c\354>\206.j\225`\367\003E\236\012\212,\\\354\332H\330"
 212      2E6A9560 
 212      F703459E 
 212      0A8A2C5C 
 212      ECDA48D8 
 213 02de 35E606E2 		.ascii	"5\346\006\342R$8\030\340?\343\301\312:\245H\\\211\354"
 213      52243818 
 213      E03FE3C1 
 213      CA3AA548 
 213      5C89EC
 214 02f1 AC57C000 		.ascii	"\254W\300\000\212\263TB\235\363P\\\342\320P\341\302"
 214      8AB35442 
 214      9DF3505C 
 214      E2D050E1 
 214      C2
 215 0302 89771961 		.ascii	"\211w\031a]\254\223w\252W\305Rw\025\252w\027\377\245"
 215      5DAC9377 
 215      AA57C552 
 215      7715AA77 
 215      17FFA5
 216 0315 917CAD38 		.ascii	"\221|\2558)\334\227\222\013d\012~\016\213\255\341K\303"
 216      29DC9792 
 216      0B640A7E 
 216      0E8BADE1 
 216      4BC3
 217 0327 A55E1916 		.ascii	"\245^\031\026\315\"\3011\251\274\277|e\252\016\025\244"
 217      CD22C131 
 217      A9BCBF7C 
 217      65AA0E15 
 217      A4
 218 0338 3DC4657D 		.ascii	"=\304e}\334q\366\267\305\260w=\004\335(\371Qt\211\223"
 218      DC71F6B7 
 218      C5B0773D 
 218      04DD28F9 
 218      51748993 
 219 034c 0A2BD532 		.ascii	"\012+\3252^\371F\271\350\323\023\217y\223\011e\252]"
 219      5EF946B9 
 219      E8D3138F 
 219      79930965 
 219      AA5D
 220 035e 2FCC6D50 		.ascii	"/\314mP\012\374\004\004UH\360\275H\237\2221\244\242"
 220      0AFC0404 
 220      5548F0BD 
 220      489F9231 
 220      A4A2
 221 0370 F8161755 		.ascii	"\370\026\027U/|/=\264\366\237+h\257\023\272\371][\270"
 221      2F7C2F3D 
 221      B4F69F2B 
 221      68AF13BA 
 221      F95D5BB8 
 222 0384 65DDDD74 		.ascii	"e\335\335t\3478\331\260\212\235t\256\261\236h\361\245"
 222      E738D9B0 
 222      8A9D74AE 
 222      B19E68F1 
 222      A5
ARM GAS  /tmp/cc6IfO4p.s 			page 17


 223 0395 43827B52 		.ascii	"C\202{R\350\305\031x\253\270\034|\253\2702\362BG\222"
 223      E8C51978 
 223      ABB81C7C 
 223      ABB832F2 
 223      424792
 224 03a8 6D976FD7 		.ascii	"m\227o\327\342\357\353;\314\266\337~\306e8T3\032\206"
 224      E2EFEB3B 
 224      CCB6DF7E 
 224      C6653854 
 224      331A86
 225 03bb AB41865F 		.ascii	"\253A\206_B\031\354+\203\353\311\346R\032k$\227\345"
 225      4219EC2B 
 225      83EBC9E6 
 225      521A6B24 
 225      97E5
 226 03cd 9F3216E7 		.ascii	"\2372\026\347\345@\002\273\206T\343\264\202\234\327"
 226      E54002BB 
 226      8654E3B4 
 226      829CD7
 227 03dc 4239EF6E 		.ascii	"B9\357n:>\030V\272u\221\321$v=H\362{x\351>\276?\262"
 227      3A3E1856 
 227      BA7591D1 
 227      24763D48 
 227      F27B78E9 
 228 03f4 745B47C5 		.ascii	"t[G\305p#\310\360gx\351>\031\350p\031zKI\364EF\324\215"
 228      7023C8F0 
 228      6778E93E 
 228      19E87019 
 228      7A4B49F4 
 229 040c 92DFBC00 		.ascii	"\222\337\274\000a\2047\203\204\177\227\023\302\013\315"
 229      61843783 
 229      847F9713 
 229      C20BCD
 230 041b CD72F12F 		.ascii	"\315r\361/k\310j6\223\311\3528K\247\332e#\247\312j2"
 230      6BC86A36 
 230      93C9EA38 
 230      4BA7DA65 
 230      23A7CA6A 
 231 0430 A365D46C 		.ascii	"\243e\324lNkVa\214\302'JJO\231us^_0\271\025^\226\363"
 231      4E6B5661 
 231      8CC2274A 
 231      4A4F9975 
 231      735E5F30 
 232 0449 464EE6BE 		.ascii	"FN\346\276\213UU\246\271L\223\236\325\265&\215\266\247"
 232      8B5555A6 
 232      B94C939E 
 232      D5B5268D 
 232      B6A7
 233 045b E4E9CD2D 		.ascii	"\344\351\315-rJW\323\371\204&\033f\"\241-jNB\235\221"
 233      724A57D3 
 233      F984261B 
 233      6622A12D 
 233      6A4E429D 
 234 0470 7A4B53CC 		.ascii	"zKS\314\011j\262\025C\315N\247\263\352\354tj\261\256"
 234      096AB215 
 234      43CD4EA7 
 234      B3EAEC74 
ARM GAS  /tmp/cc6IfO4p.s 			page 18


 234      6AB1AE
 235 0483 25E645F8 		.ascii	"%\346E\370R-\345\337\036\033\271<\276\370h\216f\266"
 235      522DE5DF 
 235      1E1BB93C 
 235      BEF8688E 
 235      66B6
 236 0495 99D4CC1B 		.ascii	"\231\324\314\033\013\237v\250]\002][\356(6\023)\335"
 236      0B9F76A8 
 236      5D025D5B 
 236      EE283613 
 236      29DD
 237 04a7 449EFA3C 		.ascii	"D\236\372<\376oQ\314\2460\257\014U\223)]\223\025\324"
 237      FE6F51CC 
 237      A630AF0C 
 237      5593295D 
 237      9315D4
 238 04ba 44F36953 		.ascii	"D\363iS1;\226j\006\242b\212\"p\365\272\266\302\304\314"
 238      313B966A 
 238      06A2628A 
 238      2270F5BA 
 238      B6C2C4CC 
 239 04ce C72A4A52 		.ascii	"\307*JR\243K\225vjh\212R\247\351\011|\030\027\017\361"
 239      A34B9576 
 239      6A688A52 
 239      A7E9097C 
 239      18170FF1 
 240 04e2 9BA244D4 		.ascii	"\233\242D\324$\315E\025eQ^W\025e\254;i\2361\343\325"
 240      24CD4515 
 240      65515E57 
 240      1565AC3B 
 240      699E31E3 
 241 04f7 E98DFED2 		.ascii	"\351\215\376\322\346\314\222\0165it8|j\262\255\303x"
 241      E6CC920E 
 241      35697438 
 241      7C6AB2AD 
 241      C378
 242 0509 2DAB2E69 		.ascii	"-\253.i\012\331\204\245\331\234i\310\263\337\230\337"
 242      0AD984A5 
 242      D99C69C8 
 242      B3DF98DF 
 243 0519 3A7F0542 		.ascii	":\177\005B\234\332/{%\303q|I\301\342,\231\026\202C\345"
 243      9CDA2F7B 
 243      25C3717C 
 243      49C1E22C 
 243      99168243 
 244 052e 72EBFCB6 		.ascii	"r\353\374\266ym\036_\306H\031\012n\021bQa\"e\320\366"
 244      796D1E5F 
 244      C648190A 
 244      6E116251 
 244      612265D0 
 245 0543 346E64EE 		.ascii	"4nd\356\315\2614\275\234v\030\270\247i\254H\203\243"
 245      CDB134BD 
 245      9C7618B8 
 245      A769AC48 
 245      83A3
 246 0555 6781CE23 		.ascii	"g\201\316#78\034yg\216\011k\272\013\371\037\314\334"
 246      37381C79 
ARM GAS  /tmp/cc6IfO4p.s 			page 19


 246      678E096B 
 246      BA0BF91F 
 246      CCDC
 247 0567 1C64     		.ascii	"\034d"
 248              		.text
 249              		.section	.gnu.lto_.symtab.ad333791aadb76c1,"",%progbits
 250 0000 5F636F72 		.ascii	"_core_init\000\000\000\000\000\000\000\000\000\000\000"
 250      655F696E 
 250      69740000 
 250      00000000 
 250      00000000 
 251 0015 00A10000 		.ascii	"\000\241\000\000\000chCoreAllocAlignedI\000\000\000"
 251      00636843 
 251      6F726541 
 251      6C6C6F63 
 251      416C6967 
 252 0030 00000000 		.ascii	"\000\000\000\000\000\000\000\000\000\246\000\000\000"
 252      00000000 
 252      00A60000 
 252      00
 253 003d 6368436F 		.ascii	"chCoreAllocAligned\000\000\000\000\000\000\000\000\000"
 253      7265416C 
 253      6C6F6341 
 253      6C69676E 
 253      65640000 
 254 0058 000000B3 		.ascii	"\000\000\000\263\000\000\000chCoreGetStatusX\000\000"
 254      00000063 
 254      68436F72 
 254      65476574 
 254      53746174 
 255 0071 00000000 		.ascii	"\000\000\000\000\000\000\000\000\000\000\270\000\000"
 255      00000000 
 255      0000B800 
 255      00
 256 007e 005F5F68 		.ascii	"\000__heap_base__\000\000\002\000\000\000\000\000\000"
 256      6561705F 
 256      62617365 
 256      5F5F0000 
 256      02000000 
 257 0095 000000C5 		.ascii	"\000\000\000\305\000\000\000__heap_end__\000\000\002"
 257      0000005F 
 257      5F686561 
 257      705F656E 
 257      645F5F00 
 258 00ab 00000000 		.ascii	"\000\000\000\000\000\000\000\000\000\312\000\000\000"
 258      00000000 
 258      00CA0000 
 258      00
 259              		.text
 260              		.section	.gnu.lto_.opts,"",%progbits
 261 0000 272D6D63 		.ascii	"'-mcpu=cortex-m0' '-mno-thumb-interwork' '-mthumb' "
 261      70753D63 
 261      6F727465 
 261      782D6D30 
 261      2720272D 
 262 0033 272D6767 		.ascii	"'-ggdb' '-O2' '-fomit-frame-pointer' '-falign-funct"
 262      64622720 
ARM GAS  /tmp/cc6IfO4p.s 			page 20


 262      272D4F32 
 262      2720272D 
 262      666F6D69 
 263 0066 696F6E73 		.ascii	"ions=16' '-ffunction-sections' '-fdata-sections' '-"
 263      3D313627 
 263      20272D66 
 263      66756E63 
 263      74696F6E 
 264 0099 666E6F2D 		.ascii	"fno-common' '-flto'\000"
 264      636F6D6D 
 264      6F6E2720 
 264      272D666C 
 264      746F2700 
 265              		.text
 266              		.cfi_sections	.debug_frame
 267              		.section	.text._core_init,"ax",%progbits
 268              		.align	2
 269              		.p2align 4,,15
 270              		.global	_core_init
 271              		.code	16
 272              		.thumb_func
 273              		.type	_core_init, %function
 274              	_core_init:
 275              	.LFB149:
 276              		.file 1 "../../../os/common/oslib/src/chmemcore.c"
 277              		.loc 1 79 0
 278              		.cfi_startproc
 279              		.loc 1 85 0
 280 0000 034A     		ldr	r2, .L2
 281 0002 044B     		ldr	r3, .L2+4
 282              		.loc 1 94 0
 283              		@ sp needed
 284              		.loc 1 85 0
 285 0004 1A60     		str	r2, [r3]
 286              		.loc 1 86 0
 287 0006 044A     		ldr	r2, .L2+8
 288 0008 044B     		ldr	r3, .L2+12
 289 000a 1A60     		str	r2, [r3]
 290              		.loc 1 94 0
 291 000c 7047     		bx	lr
 292              	.L3:
 293 000e C046     		.align	2
 294              	.L2:
 295 0010 00000000 		.word	__heap_base__
 296 0014 00000000 		.word	.LANCHOR0
 297 0018 00000000 		.word	__heap_end__
 298 001c 00000000 		.word	.LANCHOR1
 299              		.cfi_endproc
 300              	.LFE149:
 301              		.size	_core_init, .-_core_init
 302              		.section	.text.chCoreAllocAlignedI,"ax",%progbits
 303              		.align	2
 304              		.p2align 4,,15
 305              		.global	chCoreAllocAlignedI
 306              		.code	16
 307              		.thumb_func
 308              		.type	chCoreAllocAlignedI, %function
ARM GAS  /tmp/cc6IfO4p.s 			page 21


 309              	chCoreAllocAlignedI:
 310              	.LFB150:
 311              		.loc 1 108 0
 312              		.cfi_startproc
 313              	.LVL0:
 314              		.loc 1 115 0
 315 0000 0A4A     		ldr	r2, .L8
 316              		.loc 1 108 0
 317 0002 10B5     		push	{r4, lr}
 318              		.cfi_def_cfa_offset 8
 319              		.cfi_offset 4, -8
 320              		.cfi_offset 14, -4
 321              		.loc 1 115 0
 322 0004 1468     		ldr	r4, [r2]
 323              		.loc 1 114 0
 324 0006 0138     		sub	r0, r0, #1
 325              	.LVL1:
 326              		.loc 1 115 0
 327 0008 013C     		sub	r4, r4, #1
 328              		.loc 1 114 0
 329 000a 4B42     		neg	r3, r1
 330 000c 4018     		add	r0, r0, r1
 331              	.LVL2:
 332              		.loc 1 115 0
 333 000e 6118     		add	r1, r4, r1
 334              	.LVL3:
 335 0010 1940     		and	r1, r3
 336              		.loc 1 114 0
 337 0012 1840     		and	r0, r3
 338              	.LVL4:
 339              		.loc 1 117 0
 340 0014 064B     		ldr	r3, .L8+4
 341              	.LVL5:
 342 0016 1B68     		ldr	r3, [r3]
 343 0018 5B1A     		sub	r3, r3, r1
 344 001a 9842     		cmp	r0, r3
 345 001c 03D8     		bhi	.L6
 346              		.loc 1 120 0
 347 001e 0818     		add	r0, r1, r0
 348              	.LVL6:
 349 0020 1060     		str	r0, [r2]
 350              		.loc 1 122 0
 351 0022 081C     		mov	r0, r1
 352              	.L5:
 353              		.loc 1 123 0
 354              		@ sp needed
 355 0024 10BD     		pop	{r4, pc}
 356              	.LVL7:
 357              	.L6:
 358              		.loc 1 118 0
 359 0026 0020     		mov	r0, #0
 360              	.LVL8:
 361 0028 FCE7     		b	.L5
 362              	.L9:
 363 002a C046     		.align	2
 364              	.L8:
 365 002c 00000000 		.word	.LANCHOR0
ARM GAS  /tmp/cc6IfO4p.s 			page 22


 366 0030 00000000 		.word	.LANCHOR1
 367              		.cfi_endproc
 368              	.LFE150:
 369              		.size	chCoreAllocAlignedI, .-chCoreAllocAlignedI
 370 0034 C046C046 		.section	.text.chCoreAllocAligned,"ax",%progbits
 370      C046C046 
 370      C046C046 
 371              		.align	2
 372              		.p2align 4,,15
 373              		.global	chCoreAllocAligned
 374              		.code	16
 375              		.thumb_func
 376              		.type	chCoreAllocAligned, %function
 377              	chCoreAllocAligned:
 378              	.LFB151:
 379              		.loc 1 137 0
 380              		.cfi_startproc
 381              	.LVL9:
 382 0000 10B5     		push	{r4, lr}
 383              		.cfi_def_cfa_offset 8
 384              		.cfi_offset 4, -8
 385              		.cfi_offset 14, -4
 386              	.LBB26:
 387              	.LBB27:
 388              	.LBB28:
 389              	.LBB29:
 390              		.file 2 "../../../os/common/ext/CMSIS/include/cmsis_gcc.h"
 391              		.loc 2 71 0
 392              	@ 71 "../../../os/common/ext/CMSIS/include/cmsis_gcc.h" 1
 393 0002 72B6     		cpsid i
 394              	@ 0 "" 2
 395              	.LVL10:
 396              		.code	16
 397              	.LBE29:
 398              	.LBE28:
 399              	.LBE27:
 400              	.LBE26:
 401              	.LBB30:
 402              	.LBB31:
 403              		.loc 1 114 0
 404 0004 4A1E     		sub	r2, r1, #1
 405 0006 1018     		add	r0, r2, r0
 406              	.LVL11:
 407              		.loc 1 115 0
 408 0008 094A     		ldr	r2, .L13
 409              		.loc 1 114 0
 410 000a 4B42     		neg	r3, r1
 411              		.loc 1 115 0
 412 000c 1468     		ldr	r4, [r2]
 413              		.loc 1 114 0
 414 000e 1840     		and	r0, r3
 415              	.LVL12:
 416              		.loc 1 115 0
 417 0010 013C     		sub	r4, r4, #1
 418 0012 6118     		add	r1, r4, r1
 419              	.LVL13:
 420 0014 1940     		and	r1, r3
ARM GAS  /tmp/cc6IfO4p.s 			page 23


 421              	.LVL14:
 422              		.loc 1 117 0
 423 0016 074B     		ldr	r3, .L13+4
 424              	.LVL15:
 425 0018 1B68     		ldr	r3, [r3]
 426 001a 5B1A     		sub	r3, r3, r1
 427 001c 9842     		cmp	r0, r3
 428 001e 04D8     		bhi	.L12
 429              		.loc 1 120 0
 430 0020 0818     		add	r0, r1, r0
 431              	.LVL16:
 432 0022 1060     		str	r0, [r2]
 433              		.loc 1 122 0
 434 0024 081C     		mov	r0, r1
 435              	.L11:
 436              	.LBE31:
 437              	.LBE30:
 438              	.LBB33:
 439              	.LBB34:
 440              	.LBB35:
 441              	.LBB36:
 442              	.LBB37:
 443              		.loc 2 60 0
 444              	@ 60 "../../../os/common/ext/CMSIS/include/cmsis_gcc.h" 1
 445 0026 62B6     		cpsie i
 446              	@ 0 "" 2
 447              		.code	16
 448              	.LBE37:
 449              	.LBE36:
 450              	.LBE35:
 451              	.LBE34:
 452              	.LBE33:
 453              		.loc 1 145 0
 454              		@ sp needed
 455 0028 10BD     		pop	{r4, pc}
 456              	.LVL17:
 457              	.L12:
 458              	.LBB38:
 459              	.LBB32:
 460              		.loc 1 118 0
 461 002a 0020     		mov	r0, #0
 462              	.LVL18:
 463 002c FBE7     		b	.L11
 464              	.L14:
 465 002e C046     		.align	2
 466              	.L13:
 467 0030 00000000 		.word	.LANCHOR0
 468 0034 00000000 		.word	.LANCHOR1
 469              	.LBE32:
 470              	.LBE38:
 471              		.cfi_endproc
 472              	.LFE151:
 473              		.size	chCoreAllocAligned, .-chCoreAllocAligned
 474 0038 C046C046 		.section	.text.chCoreGetStatusX,"ax",%progbits
 474      C046C046 
 475              		.align	2
 476              		.p2align 4,,15
ARM GAS  /tmp/cc6IfO4p.s 			page 24


 477              		.global	chCoreGetStatusX
 478              		.code	16
 479              		.thumb_func
 480              		.type	chCoreGetStatusX, %function
 481              	chCoreGetStatusX:
 482              	.LFB152:
 483              		.loc 1 154 0
 484              		.cfi_startproc
 485              		.loc 1 157 0
 486 0000 024B     		ldr	r3, .L16
 487              		.loc 1 159 0
 488              		@ sp needed
 489              		.loc 1 157 0
 490 0002 1868     		ldr	r0, [r3]
 491 0004 024B     		ldr	r3, .L16+4
 492 0006 1B68     		ldr	r3, [r3]
 493 0008 C01A     		sub	r0, r0, r3
 494              		.loc 1 159 0
 495 000a 7047     		bx	lr
 496              	.L17:
 497              		.align	2
 498              	.L16:
 499 000c 00000000 		.word	.LANCHOR1
 500 0010 00000000 		.word	.LANCHOR0
 501              		.cfi_endproc
 502              	.LFE152:
 503              		.size	chCoreGetStatusX, .-chCoreGetStatusX
 504 0014 C046C046 		.section	.bss.endmem,"aw",%nobits
 504      C046C046 
 504      C046C046 
 505              		.align	2
 506              		.set	.LANCHOR1,. + 0
 507              		.type	endmem, %object
 508              		.size	endmem, 4
 509              	endmem:
 510 0000 00000000 		.space	4
 511              		.section	.bss.nextmem,"aw",%nobits
 512              		.align	2
 513              		.set	.LANCHOR0,. + 0
 514              		.type	nextmem, %object
 515              		.size	nextmem, 4
 516              	nextmem:
 517 0000 00000000 		.space	4
 518              		.text
 519              	.Letext0:
 520              		.file 3 "/usr/lib/gcc/arm-none-eabi/4.8/include/stddef.h"
 521              		.file 4 "/usr/include/newlib/machine/_default_types.h"
 522              		.file 5 "/usr/include/newlib/stdint.h"
 523              		.file 6 "../../../os/common/ports/ARMCMx/compilers/GCC/chtypes.h"
 524              		.file 7 "../../../os/rt/include/chsystypes.h"
 525              		.file 8 "../../../os/rt/include/chschd.h"
 526              		.file 9 "../../../os/common/ports/ARMCMx/chcore.h"
 527              		.file 10 "../../../os/common/ports/ARMCMx/chcore_v6m.h"
 528              		.file 11 "../../../os/rt/include/chsem.h"
 529              		.file 12 "../../../os/rt/include/chmtx.h"
 530              		.file 13 "../../../os/rt/include/chsys.h"
 531              		.section	.debug_info,"",%progbits
ARM GAS  /tmp/cc6IfO4p.s 			page 25


 532              	.Ldebug_info0:
 533 0000 34080000 		.4byte	0x834
 534 0004 0400     		.2byte	0x4
 535 0006 00000000 		.4byte	.Ldebug_abbrev0
 536 000a 04       		.byte	0x4
 537 000b 01       		.uleb128 0x1
 538 000c 13010000 		.4byte	.LASF104
 539 0010 01       		.byte	0x1
 540 0011 B0040000 		.4byte	.LASF105
 541 0015 F9040000 		.4byte	.LASF106
 542 0019 18000000 		.4byte	.Ldebug_ranges0+0x18
 543 001d 00000000 		.4byte	0
 544 0021 00000000 		.4byte	.Ldebug_line0
 545 0025 02       		.uleb128 0x2
 546 0026 04       		.byte	0x4
 547 0027 05       		.byte	0x5
 548 0028 696E7400 		.ascii	"int\000"
 549 002c 03       		.uleb128 0x3
 550 002d 84020000 		.4byte	.LASF2
 551 0031 03       		.byte	0x3
 552 0032 D4       		.byte	0xd4
 553 0033 37000000 		.4byte	0x37
 554 0037 04       		.uleb128 0x4
 555 0038 04       		.byte	0x4
 556 0039 07       		.byte	0x7
 557 003a 64000000 		.4byte	.LASF0
 558 003e 04       		.uleb128 0x4
 559 003f 01       		.byte	0x1
 560 0040 06       		.byte	0x6
 561 0041 71040000 		.4byte	.LASF1
 562 0045 03       		.uleb128 0x3
 563 0046 B2030000 		.4byte	.LASF3
 564 004a 04       		.byte	0x4
 565 004b 1D       		.byte	0x1d
 566 004c 50000000 		.4byte	0x50
 567 0050 04       		.uleb128 0x4
 568 0051 01       		.byte	0x1
 569 0052 08       		.byte	0x8
 570 0053 22040000 		.4byte	.LASF4
 571 0057 04       		.uleb128 0x4
 572 0058 02       		.byte	0x2
 573 0059 05       		.byte	0x5
 574 005a 64030000 		.4byte	.LASF5
 575 005e 03       		.uleb128 0x3
 576 005f 10020000 		.4byte	.LASF6
 577 0063 04       		.byte	0x4
 578 0064 2B       		.byte	0x2b
 579 0065 69000000 		.4byte	0x69
 580 0069 04       		.uleb128 0x4
 581 006a 02       		.byte	0x2
 582 006b 07       		.byte	0x7
 583 006c 83040000 		.4byte	.LASF7
 584 0070 03       		.uleb128 0x3
 585 0071 85000000 		.4byte	.LASF8
 586 0075 04       		.byte	0x4
 587 0076 3F       		.byte	0x3f
 588 0077 7B000000 		.4byte	0x7b
ARM GAS  /tmp/cc6IfO4p.s 			page 26


 589 007b 04       		.uleb128 0x4
 590 007c 04       		.byte	0x4
 591 007d 05       		.byte	0x5
 592 007e 6E030000 		.4byte	.LASF9
 593 0082 03       		.uleb128 0x3
 594 0083 30040000 		.4byte	.LASF10
 595 0087 04       		.byte	0x4
 596 0088 41       		.byte	0x41
 597 0089 8D000000 		.4byte	0x8d
 598 008d 04       		.uleb128 0x4
 599 008e 04       		.byte	0x4
 600 008f 07       		.byte	0x7
 601 0090 E0030000 		.4byte	.LASF11
 602 0094 04       		.uleb128 0x4
 603 0095 08       		.byte	0x8
 604 0096 05       		.byte	0x5
 605 0097 15030000 		.4byte	.LASF12
 606 009b 03       		.uleb128 0x3
 607 009c A9020000 		.4byte	.LASF13
 608 00a0 04       		.byte	0x4
 609 00a1 5B       		.byte	0x5b
 610 00a2 A6000000 		.4byte	0xa6
 611 00a6 04       		.uleb128 0x4
 612 00a7 08       		.byte	0x8
 613 00a8 07       		.byte	0x7
 614 00a9 F9010000 		.4byte	.LASF14
 615 00ad 03       		.uleb128 0x3
 616 00ae EB020000 		.4byte	.LASF15
 617 00b2 05       		.byte	0x5
 618 00b3 2A       		.byte	0x2a
 619 00b4 45000000 		.4byte	0x45
 620 00b8 03       		.uleb128 0x3
 621 00b9 5B030000 		.4byte	.LASF16
 622 00bd 05       		.byte	0x5
 623 00be 36       		.byte	0x36
 624 00bf 5E000000 		.4byte	0x5e
 625 00c3 03       		.uleb128 0x3
 626 00c4 05040000 		.4byte	.LASF17
 627 00c8 05       		.byte	0x5
 628 00c9 41       		.byte	0x41
 629 00ca 70000000 		.4byte	0x70
 630 00ce 03       		.uleb128 0x3
 631 00cf B6010000 		.4byte	.LASF18
 632 00d3 05       		.byte	0x5
 633 00d4 42       		.byte	0x42
 634 00d5 82000000 		.4byte	0x82
 635 00d9 03       		.uleb128 0x3
 636 00da A3030000 		.4byte	.LASF19
 637 00de 05       		.byte	0x5
 638 00df 4E       		.byte	0x4e
 639 00e0 9B000000 		.4byte	0x9b
 640 00e4 03       		.uleb128 0x3
 641 00e5 48030000 		.4byte	.LASF20
 642 00e9 06       		.byte	0x6
 643 00ea 3C       		.byte	0x3c
 644 00eb AD000000 		.4byte	0xad
 645 00ef 03       		.uleb128 0x3
ARM GAS  /tmp/cc6IfO4p.s 			page 27


 646 00f0 E2020000 		.4byte	.LASF21
 647 00f4 06       		.byte	0x6
 648 00f5 3D       		.byte	0x3d
 649 00f6 AD000000 		.4byte	0xad
 650 00fa 03       		.uleb128 0x3
 651 00fb D8030000 		.4byte	.LASF22
 652 00ff 06       		.byte	0x6
 653 0100 3E       		.byte	0x3e
 654 0101 AD000000 		.4byte	0xad
 655 0105 03       		.uleb128 0x3
 656 0106 E0010000 		.4byte	.LASF23
 657 010a 06       		.byte	0x6
 658 010b 40       		.byte	0x40
 659 010c CE000000 		.4byte	0xce
 660 0110 03       		.uleb128 0x3
 661 0111 23030000 		.4byte	.LASF24
 662 0115 06       		.byte	0x6
 663 0116 41       		.byte	0x41
 664 0117 C3000000 		.4byte	0xc3
 665 011b 03       		.uleb128 0x3
 666 011c C7010000 		.4byte	.LASF25
 667 0120 06       		.byte	0x6
 668 0121 43       		.byte	0x43
 669 0122 CE000000 		.4byte	0xce
 670 0126 03       		.uleb128 0x3
 671 0127 1B020000 		.4byte	.LASF26
 672 012b 06       		.byte	0x6
 673 012c 45       		.byte	0x45
 674 012d C3000000 		.4byte	0xc3
 675 0131 03       		.uleb128 0x3
 676 0132 48000000 		.4byte	.LASF27
 677 0136 07       		.byte	0x7
 678 0137 35       		.byte	0x35
 679 0138 B8000000 		.4byte	0xb8
 680 013c 03       		.uleb128 0x3
 681 013d 62020000 		.4byte	.LASF28
 682 0141 07       		.byte	0x7
 683 0142 3F       		.byte	0x3f
 684 0143 47010000 		.4byte	0x147
 685 0147 05       		.uleb128 0x5
 686 0148 FC020000 		.4byte	.LASF46
 687 014c 44       		.byte	0x44
 688 014d 08       		.byte	0x8
 689 014e 9A       		.byte	0x9a
 690 014f 25020000 		.4byte	0x225
 691 0153 06       		.uleb128 0x6
 692 0154 FF030000 		.4byte	.LASF29
 693 0158 08       		.byte	0x8
 694 0159 9B       		.byte	0x9b
 695 015a 5A020000 		.4byte	0x25a
 696 015e 00       		.byte	0
 697 015f 06       		.uleb128 0x6
 698 0160 BE020000 		.4byte	.LASF30
 699 0164 08       		.byte	0x8
 700 0165 9C       		.byte	0x9c
 701 0166 05010000 		.4byte	0x105
 702 016a 08       		.byte	0x8
ARM GAS  /tmp/cc6IfO4p.s 			page 28


 703 016b 07       		.uleb128 0x7
 704 016c 63747800 		.ascii	"ctx\000"
 705 0170 08       		.byte	0x8
 706 0171 9D       		.byte	0x9d
 707 0172 46040000 		.4byte	0x446
 708 0176 0C       		.byte	0xc
 709 0177 06       		.uleb128 0x6
 710 0178 1C040000 		.4byte	.LASF31
 711 017c 08       		.byte	0x8
 712 017d 9F       		.byte	0x9f
 713 017e 30020000 		.4byte	0x230
 714 0182 10       		.byte	0x10
 715 0183 06       		.uleb128 0x6
 716 0184 EB040000 		.4byte	.LASF32
 717 0188 08       		.byte	0x8
 718 0189 A0       		.byte	0xa0
 719 018a 30020000 		.4byte	0x230
 720 018e 14       		.byte	0x14
 721 018f 06       		.uleb128 0x6
 722 0190 CA030000 		.4byte	.LASF33
 723 0194 08       		.byte	0x8
 724 0195 A7       		.byte	0xa7
 725 0196 A1050000 		.4byte	0x5a1
 726 019a 18       		.byte	0x18
 727 019b 06       		.uleb128 0x6
 728 019c DB020000 		.4byte	.LASF34
 729 01a0 08       		.byte	0x8
 730 01a1 B0       		.byte	0xb0
 731 01a2 B3050000 		.4byte	0x5b3
 732 01a6 1C       		.byte	0x1c
 733 01a7 06       		.uleb128 0x6
 734 01a8 59040000 		.4byte	.LASF35
 735 01ac 08       		.byte	0x8
 736 01ad B5       		.byte	0xb5
 737 01ae EF000000 		.4byte	0xef
 738 01b2 20       		.byte	0x20
 739 01b3 06       		.uleb128 0x6
 740 01b4 42000000 		.4byte	.LASF36
 741 01b8 08       		.byte	0x8
 742 01b9 B9       		.byte	0xb9
 743 01ba E4000000 		.4byte	0xe4
 744 01be 21       		.byte	0x21
 745 01bf 06       		.uleb128 0x6
 746 01c0 8F000000 		.4byte	.LASF37
 747 01c4 08       		.byte	0x8
 748 01c5 BE       		.byte	0xbe
 749 01c6 FA000000 		.4byte	0xfa
 750 01ca 22       		.byte	0x22
 751 01cb 08       		.uleb128 0x8
 752 01cc 7500     		.ascii	"u\000"
 753 01ce 08       		.byte	0x8
 754 01cf 0F01     		.2byte	0x10f
 755 01d1 D6040000 		.4byte	0x4d6
 756 01d5 24       		.byte	0x24
 757 01d6 09       		.uleb128 0x9
 758 01d7 3B040000 		.4byte	.LASF38
 759 01db 08       		.byte	0x8
ARM GAS  /tmp/cc6IfO4p.s 			page 29


 760 01dc 1401     		.2byte	0x114
 761 01de 36020000 		.4byte	0x236
 762 01e2 28       		.byte	0x28
 763 01e3 09       		.uleb128 0x9
 764 01e4 F3020000 		.4byte	.LASF39
 765 01e8 08       		.byte	0x8
 766 01e9 1A01     		.2byte	0x11a
 767 01eb 5A020000 		.4byte	0x25a
 768 01ef 2C       		.byte	0x2c
 769 01f0 09       		.uleb128 0x9
 770 01f1 5B000000 		.4byte	.LASF40
 771 01f5 08       		.byte	0x8
 772 01f6 2001     		.2byte	0x120
 773 01f8 1B010000 		.4byte	0x11b
 774 01fc 34       		.byte	0x34
 775 01fd 09       		.uleb128 0x9
 776 01fe 43020000 		.4byte	.LASF41
 777 0202 08       		.byte	0x8
 778 0203 2701     		.2byte	0x127
 779 0205 9B050000 		.4byte	0x59b
 780 0209 38       		.byte	0x38
 781 020a 09       		.uleb128 0x9
 782 020b 52000000 		.4byte	.LASF42
 783 020f 08       		.byte	0x8
 784 0210 2B01     		.2byte	0x12b
 785 0212 05010000 		.4byte	0x105
 786 0216 3C       		.byte	0x3c
 787 0217 09       		.uleb128 0x9
 788 0218 4B050000 		.4byte	.LASF43
 789 021c 08       		.byte	0x8
 790 021d 3201     		.2byte	0x132
 791 021f 0D030000 		.4byte	0x30d
 792 0223 40       		.byte	0x40
 793 0224 00       		.byte	0
 794 0225 03       		.uleb128 0x3
 795 0226 C8020000 		.4byte	.LASF44
 796 022a 07       		.byte	0x7
 797 022b 44       		.byte	0x44
 798 022c 30020000 		.4byte	0x230
 799 0230 0A       		.uleb128 0xa
 800 0231 04       		.byte	0x4
 801 0232 3C010000 		.4byte	0x13c
 802 0236 03       		.uleb128 0x3
 803 0237 76000000 		.4byte	.LASF45
 804 023b 07       		.byte	0x7
 805 023c 49       		.byte	0x49
 806 023d 41020000 		.4byte	0x241
 807 0241 05       		.uleb128 0x5
 808 0242 00000000 		.4byte	.LASF47
 809 0246 04       		.byte	0x4
 810 0247 08       		.byte	0x8
 811 0248 88       		.byte	0x88
 812 0249 5A020000 		.4byte	0x25a
 813 024d 06       		.uleb128 0x6
 814 024e 71000000 		.4byte	.LASF48
 815 0252 08       		.byte	0x8
 816 0253 89       		.byte	0x89
ARM GAS  /tmp/cc6IfO4p.s 			page 30


 817 0254 30020000 		.4byte	0x230
 818 0258 00       		.byte	0
 819 0259 00       		.byte	0
 820 025a 03       		.uleb128 0x3
 821 025b 33020000 		.4byte	.LASF49
 822 025f 07       		.byte	0x7
 823 0260 50       		.byte	0x50
 824 0261 65020000 		.4byte	0x265
 825 0265 05       		.uleb128 0x5
 826 0266 D8000000 		.4byte	.LASF50
 827 026a 08       		.byte	0x8
 828 026b 08       		.byte	0x8
 829 026c 8F       		.byte	0x8f
 830 026d 8A020000 		.4byte	0x28a
 831 0271 06       		.uleb128 0x6
 832 0272 71000000 		.4byte	.LASF48
 833 0276 08       		.byte	0x8
 834 0277 90       		.byte	0x90
 835 0278 30020000 		.4byte	0x230
 836 027c 00       		.byte	0
 837 027d 06       		.uleb128 0x6
 838 027e D3000000 		.4byte	.LASF51
 839 0282 08       		.byte	0x8
 840 0283 91       		.byte	0x91
 841 0284 30020000 		.4byte	0x230
 842 0288 04       		.byte	0x4
 843 0289 00       		.byte	0
 844 028a 03       		.uleb128 0x3
 845 028b F2030000 		.4byte	.LASF52
 846 028f 07       		.byte	0x7
 847 0290 57       		.byte	0x57
 848 0291 95020000 		.4byte	0x295
 849 0295 0B       		.uleb128 0xb
 850 0296 B9000000 		.4byte	.LASF53
 851 029a 1C       		.byte	0x1c
 852 029b 08       		.byte	0x8
 853 029c 6A01     		.2byte	0x16a
 854 029e F1020000 		.4byte	0x2f1
 855 02a2 09       		.uleb128 0x9
 856 02a3 FF030000 		.4byte	.LASF29
 857 02a7 08       		.byte	0x8
 858 02a8 6B01     		.2byte	0x16b
 859 02aa 5A020000 		.4byte	0x25a
 860 02ae 00       		.byte	0
 861 02af 09       		.uleb128 0x9
 862 02b0 BE020000 		.4byte	.LASF30
 863 02b4 08       		.byte	0x8
 864 02b5 6C01     		.2byte	0x16c
 865 02b7 05010000 		.4byte	0x105
 866 02bb 08       		.byte	0x8
 867 02bc 08       		.uleb128 0x8
 868 02bd 63747800 		.ascii	"ctx\000"
 869 02c1 08       		.byte	0x8
 870 02c2 6E01     		.2byte	0x16e
 871 02c4 46040000 		.4byte	0x446
 872 02c8 0C       		.byte	0xc
 873 02c9 09       		.uleb128 0x9
ARM GAS  /tmp/cc6IfO4p.s 			page 31


 874 02ca 1C040000 		.4byte	.LASF31
 875 02ce 08       		.byte	0x8
 876 02cf 7101     		.2byte	0x171
 877 02d1 30020000 		.4byte	0x230
 878 02d5 10       		.byte	0x10
 879 02d6 09       		.uleb128 0x9
 880 02d7 EB040000 		.4byte	.LASF32
 881 02db 08       		.byte	0x8
 882 02dc 7201     		.2byte	0x172
 883 02de 30020000 		.4byte	0x230
 884 02e2 14       		.byte	0x14
 885 02e3 09       		.uleb128 0x9
 886 02e4 A8040000 		.4byte	.LASF54
 887 02e8 08       		.byte	0x8
 888 02e9 7501     		.2byte	0x175
 889 02eb 30020000 		.4byte	0x230
 890 02ef 18       		.byte	0x18
 891 02f0 00       		.byte	0
 892 02f1 03       		.uleb128 0x3
 893 02f2 E9000000 		.4byte	.LASF55
 894 02f6 07       		.byte	0x7
 895 02f7 5C       		.byte	0x5c
 896 02f8 FC020000 		.4byte	0x2fc
 897 02fc 0A       		.uleb128 0xa
 898 02fd 04       		.byte	0x4
 899 02fe 02030000 		.4byte	0x302
 900 0302 0C       		.uleb128 0xc
 901 0303 0D030000 		.4byte	0x30d
 902 0307 0D       		.uleb128 0xd
 903 0308 0D030000 		.4byte	0x30d
 904 030c 00       		.byte	0
 905 030d 0E       		.uleb128 0xe
 906 030e 04       		.byte	0x4
 907 030f 03       		.uleb128 0x3
 908 0310 29030000 		.4byte	.LASF56
 909 0314 07       		.byte	0x7
 910 0315 61       		.byte	0x61
 911 0316 1A030000 		.4byte	0x31a
 912 031a 0B       		.uleb128 0xb
 913 031b E8010000 		.4byte	.LASF57
 914 031f 14       		.byte	0x14
 915 0320 08       		.byte	0x8
 916 0321 4501     		.2byte	0x145
 917 0323 69030000 		.4byte	0x369
 918 0327 09       		.uleb128 0x9
 919 0328 71000000 		.4byte	.LASF48
 920 032c 08       		.byte	0x8
 921 032d 4601     		.2byte	0x146
 922 032f B9050000 		.4byte	0x5b9
 923 0333 00       		.byte	0
 924 0334 09       		.uleb128 0x9
 925 0335 D3000000 		.4byte	.LASF51
 926 0339 08       		.byte	0x8
 927 033a 4701     		.2byte	0x147
 928 033c B9050000 		.4byte	0x5b9
 929 0340 04       		.byte	0x4
 930 0341 09       		.uleb128 0x9
ARM GAS  /tmp/cc6IfO4p.s 			page 32


 931 0342 7D040000 		.4byte	.LASF58
 932 0346 08       		.byte	0x8
 933 0347 4801     		.2byte	0x148
 934 0349 31010000 		.4byte	0x131
 935 034d 08       		.byte	0x8
 936 034e 09       		.uleb128 0x9
 937 034f C7000000 		.4byte	.LASF59
 938 0353 08       		.byte	0x8
 939 0354 4901     		.2byte	0x149
 940 0356 F1020000 		.4byte	0x2f1
 941 035a 0C       		.byte	0xc
 942 035b 08       		.uleb128 0x8
 943 035c 70617200 		.ascii	"par\000"
 944 0360 08       		.byte	0x8
 945 0361 4B01     		.2byte	0x14b
 946 0363 0D030000 		.4byte	0x30d
 947 0367 10       		.byte	0x10
 948 0368 00       		.byte	0
 949 0369 03       		.uleb128 0x3
 950 036a 43040000 		.4byte	.LASF60
 951 036e 07       		.byte	0x7
 952 036f 66       		.byte	0x66
 953 0370 74030000 		.4byte	0x374
 954 0374 0B       		.uleb128 0xb
 955 0375 4B020000 		.4byte	.LASF61
 956 0379 0C       		.byte	0xc
 957 037a 08       		.byte	0x8
 958 037b 5501     		.2byte	0x155
 959 037d B6030000 		.4byte	0x3b6
 960 0381 09       		.uleb128 0x9
 961 0382 71000000 		.4byte	.LASF48
 962 0386 08       		.byte	0x8
 963 0387 5601     		.2byte	0x156
 964 0389 B9050000 		.4byte	0x5b9
 965 038d 00       		.byte	0
 966 038e 09       		.uleb128 0x9
 967 038f D3000000 		.4byte	.LASF51
 968 0393 08       		.byte	0x8
 969 0394 5801     		.2byte	0x158
 970 0396 B9050000 		.4byte	0x5b9
 971 039a 04       		.byte	0x4
 972 039b 09       		.uleb128 0x9
 973 039c 7D040000 		.4byte	.LASF58
 974 03a0 08       		.byte	0x8
 975 03a1 5A01     		.2byte	0x15a
 976 03a3 31010000 		.4byte	0x131
 977 03a7 08       		.byte	0x8
 978 03a8 09       		.uleb128 0x9
 979 03a9 9A030000 		.4byte	.LASF62
 980 03ad 08       		.byte	0x8
 981 03ae 6201     		.2byte	0x162
 982 03b0 31010000 		.4byte	0x131
 983 03b4 0A       		.byte	0xa
 984 03b5 00       		.byte	0
 985 03b6 03       		.uleb128 0x3
 986 03b7 06030000 		.4byte	.LASF63
 987 03bb 07       		.byte	0x7
ARM GAS  /tmp/cc6IfO4p.s 			page 33


 988 03bc 6B       		.byte	0x6b
 989 03bd C1030000 		.4byte	0x3c1
 990 03c1 0B       		.uleb128 0xb
 991 03c2 03010000 		.4byte	.LASF64
 992 03c6 04       		.byte	0x4
 993 03c7 08       		.byte	0x8
 994 03c8 7C01     		.2byte	0x17c
 995 03ca DC030000 		.4byte	0x3dc
 996 03ce 09       		.uleb128 0x9
 997 03cf 3E030000 		.4byte	.LASF65
 998 03d3 08       		.byte	0x8
 999 03d4 8401     		.2byte	0x184
 1000 03d6 BF050000 		.4byte	0x5bf
 1001 03da 00       		.byte	0
 1002 03db 00       		.byte	0
 1003 03dc 03       		.uleb128 0x3
 1004 03dd 5F040000 		.4byte	.LASF66
 1005 03e1 07       		.byte	0x7
 1006 03e2 70       		.byte	0x70
 1007 03e3 E7030000 		.4byte	0x3e7
 1008 03e7 0B       		.uleb128 0xb
 1009 03e8 90030000 		.4byte	.LASF67
 1010 03ec 70       		.byte	0x70
 1011 03ed 08       		.byte	0x8
 1012 03ee 9C01     		.2byte	0x19c
 1013 03f0 29040000 		.4byte	0x429
 1014 03f4 09       		.uleb128 0x9
 1015 03f5 AC030000 		.4byte	.LASF68
 1016 03f9 08       		.byte	0x8
 1017 03fa A001     		.2byte	0x1a0
 1018 03fc 8A020000 		.4byte	0x28a
 1019 0400 00       		.byte	0
 1020 0401 09       		.uleb128 0x9
 1021 0402 A5000000 		.4byte	.LASF69
 1022 0406 08       		.byte	0x8
 1023 0407 A401     		.2byte	0x1a4
 1024 0409 69030000 		.4byte	0x369
 1025 040d 1C       		.byte	0x1c
 1026 040e 08       		.uleb128 0x8
 1027 040f 64626700 		.ascii	"dbg\000"
 1028 0413 08       		.byte	0x8
 1029 0414 A801     		.2byte	0x1a8
 1030 0416 B6030000 		.4byte	0x3b6
 1031 041a 28       		.byte	0x28
 1032 041b 09       		.uleb128 0x9
 1033 041c 50030000 		.4byte	.LASF70
 1034 0420 08       		.byte	0x8
 1035 0421 AC01     		.2byte	0x1ac
 1036 0423 3C010000 		.4byte	0x13c
 1037 0427 2C       		.byte	0x2c
 1038 0428 00       		.byte	0
 1039 0429 04       		.uleb128 0x4
 1040 042a 04       		.byte	0x4
 1041 042b 07       		.byte	0x7
 1042 042c CF030000 		.4byte	.LASF71
 1043 0430 03       		.uleb128 0x3
 1044 0431 25000000 		.4byte	.LASF72
ARM GAS  /tmp/cc6IfO4p.s 			page 34


 1045 0435 09       		.byte	0x9
 1046 0436 65       		.byte	0x65
 1047 0437 0D030000 		.4byte	0x30d
 1048 043b 03       		.uleb128 0x3
 1049 043c 96040000 		.4byte	.LASF73
 1050 0440 09       		.byte	0x9
 1051 0441 6D       		.byte	0x6d
 1052 0442 D9000000 		.4byte	0xd9
 1053 0446 05       		.uleb128 0x5
 1054 0447 AC000000 		.4byte	.LASF74
 1055 044b 04       		.byte	0x4
 1056 044c 09       		.byte	0x9
 1057 044d 89       		.byte	0x89
 1058 044e 5E040000 		.4byte	0x45e
 1059 0452 07       		.uleb128 0x7
 1060 0453 737000   		.ascii	"sp\000"
 1061 0456 09       		.byte	0x9
 1062 0457 8A       		.byte	0x8a
 1063 0458 D0040000 		.4byte	0x4d0
 1064 045c 00       		.byte	0
 1065 045d 00       		.byte	0
 1066 045e 05       		.uleb128 0x5
 1067 045f 77030000 		.4byte	.LASF75
 1068 0463 24       		.byte	0x24
 1069 0464 0A       		.byte	0xa
 1070 0465 C3       		.byte	0xc3
 1071 0466 D0040000 		.4byte	0x4d0
 1072 046a 07       		.uleb128 0x7
 1073 046b 723800   		.ascii	"r8\000"
 1074 046e 0A       		.byte	0xa
 1075 046f C4       		.byte	0xc4
 1076 0470 30040000 		.4byte	0x430
 1077 0474 00       		.byte	0
 1078 0475 07       		.uleb128 0x7
 1079 0476 723900   		.ascii	"r9\000"
 1080 0479 0A       		.byte	0xa
 1081 047a C5       		.byte	0xc5
 1082 047b 30040000 		.4byte	0x430
 1083 047f 04       		.byte	0x4
 1084 0480 07       		.uleb128 0x7
 1085 0481 72313000 		.ascii	"r10\000"
 1086 0485 0A       		.byte	0xa
 1087 0486 C6       		.byte	0xc6
 1088 0487 30040000 		.4byte	0x430
 1089 048b 08       		.byte	0x8
 1090 048c 07       		.uleb128 0x7
 1091 048d 72313100 		.ascii	"r11\000"
 1092 0491 0A       		.byte	0xa
 1093 0492 C7       		.byte	0xc7
 1094 0493 30040000 		.4byte	0x430
 1095 0497 0C       		.byte	0xc
 1096 0498 07       		.uleb128 0x7
 1097 0499 723400   		.ascii	"r4\000"
 1098 049c 0A       		.byte	0xa
 1099 049d C8       		.byte	0xc8
 1100 049e 30040000 		.4byte	0x430
 1101 04a2 10       		.byte	0x10
ARM GAS  /tmp/cc6IfO4p.s 			page 35


 1102 04a3 07       		.uleb128 0x7
 1103 04a4 723500   		.ascii	"r5\000"
 1104 04a7 0A       		.byte	0xa
 1105 04a8 C9       		.byte	0xc9
 1106 04a9 30040000 		.4byte	0x430
 1107 04ad 14       		.byte	0x14
 1108 04ae 07       		.uleb128 0x7
 1109 04af 723600   		.ascii	"r6\000"
 1110 04b2 0A       		.byte	0xa
 1111 04b3 CA       		.byte	0xca
 1112 04b4 30040000 		.4byte	0x430
 1113 04b8 18       		.byte	0x18
 1114 04b9 07       		.uleb128 0x7
 1115 04ba 723700   		.ascii	"r7\000"
 1116 04bd 0A       		.byte	0xa
 1117 04be CB       		.byte	0xcb
 1118 04bf 30040000 		.4byte	0x430
 1119 04c3 1C       		.byte	0x1c
 1120 04c4 07       		.uleb128 0x7
 1121 04c5 6C7200   		.ascii	"lr\000"
 1122 04c8 0A       		.byte	0xa
 1123 04c9 CC       		.byte	0xcc
 1124 04ca 30040000 		.4byte	0x430
 1125 04ce 20       		.byte	0x20
 1126 04cf 00       		.byte	0
 1127 04d0 0A       		.uleb128 0xa
 1128 04d1 04       		.byte	0x4
 1129 04d2 5E040000 		.4byte	0x45e
 1130 04d6 0F       		.uleb128 0xf
 1131 04d7 04       		.byte	0x4
 1132 04d8 08       		.byte	0x8
 1133 04d9 D2       		.byte	0xd2
 1134 04da 39050000 		.4byte	0x539
 1135 04de 10       		.uleb128 0x10
 1136 04df 8B020000 		.4byte	.LASF76
 1137 04e3 08       		.byte	0x8
 1138 04e4 D9       		.byte	0xd9
 1139 04e5 10010000 		.4byte	0x110
 1140 04e9 10       		.uleb128 0x10
 1141 04ea 35050000 		.4byte	.LASF77
 1142 04ee 08       		.byte	0x8
 1143 04ef E0       		.byte	0xe0
 1144 04f0 10010000 		.4byte	0x110
 1145 04f4 10       		.uleb128 0x10
 1146 04f5 94000000 		.4byte	.LASF78
 1147 04f9 08       		.byte	0x8
 1148 04fa E7       		.byte	0xe7
 1149 04fb 0D030000 		.4byte	0x30d
 1150 04ff 10       		.uleb128 0x10
 1151 0500 6B040000 		.4byte	.LASF79
 1152 0504 08       		.byte	0x8
 1153 0505 EE       		.byte	0xee
 1154 0506 39050000 		.4byte	0x539
 1155 050a 10       		.uleb128 0x10
 1156 050b BF010000 		.4byte	.LASF80
 1157 050f 08       		.byte	0x8
 1158 0510 F3       		.byte	0xf3
ARM GAS  /tmp/cc6IfO4p.s 			page 36


 1159 0511 10010000 		.4byte	0x110
 1160 0515 10       		.uleb128 0x10
 1161 0516 0D040000 		.4byte	.LASF81
 1162 051a 08       		.byte	0x8
 1163 051b FC       		.byte	0xfc
 1164 051c 64050000 		.4byte	0x564
 1165 0520 11       		.uleb128 0x11
 1166 0521 1E000000 		.4byte	.LASF82
 1167 0525 08       		.byte	0x8
 1168 0526 0501     		.2byte	0x105
 1169 0528 9B050000 		.4byte	0x59b
 1170 052c 11       		.uleb128 0x11
 1171 052d CC000000 		.4byte	.LASF83
 1172 0531 08       		.byte	0x8
 1173 0532 0D01     		.2byte	0x10d
 1174 0534 1B010000 		.4byte	0x11b
 1175 0538 00       		.byte	0
 1176 0539 0A       		.uleb128 0xa
 1177 053a 04       		.byte	0x4
 1178 053b 25020000 		.4byte	0x225
 1179 053f 05       		.uleb128 0x5
 1180 0540 D3010000 		.4byte	.LASF84
 1181 0544 0C       		.byte	0xc
 1182 0545 0B       		.byte	0xb
 1183 0546 34       		.byte	0x34
 1184 0547 64050000 		.4byte	0x564
 1185 054b 06       		.uleb128 0x6
 1186 054c FF030000 		.4byte	.LASF29
 1187 0550 0B       		.byte	0xb
 1188 0551 35       		.byte	0x35
 1189 0552 5A020000 		.4byte	0x25a
 1190 0556 00       		.byte	0
 1191 0557 07       		.uleb128 0x7
 1192 0558 636E7400 		.ascii	"cnt\000"
 1193 055c 0B       		.byte	0xb
 1194 055d 37       		.byte	0x37
 1195 055e 26010000 		.4byte	0x126
 1196 0562 08       		.byte	0x8
 1197 0563 00       		.byte	0
 1198 0564 0A       		.uleb128 0xa
 1199 0565 04       		.byte	0x4
 1200 0566 3F050000 		.4byte	0x53f
 1201 056a 05       		.uleb128 0x5
 1202 056b A0020000 		.4byte	.LASF85
 1203 056f 10       		.byte	0x10
 1204 0570 0C       		.byte	0xc
 1205 0571 39       		.byte	0x39
 1206 0572 9B050000 		.4byte	0x59b
 1207 0576 06       		.uleb128 0x6
 1208 0577 FF030000 		.4byte	.LASF29
 1209 057b 0C       		.byte	0xc
 1210 057c 3A       		.byte	0x3a
 1211 057d 5A020000 		.4byte	0x25a
 1212 0581 00       		.byte	0
 1213 0582 06       		.uleb128 0x6
 1214 0583 2D020000 		.4byte	.LASF86
 1215 0587 0C       		.byte	0xc
ARM GAS  /tmp/cc6IfO4p.s 			page 37


 1216 0588 3C       		.byte	0x3c
 1217 0589 30020000 		.4byte	0x230
 1218 058d 08       		.byte	0x8
 1219 058e 06       		.uleb128 0x6
 1220 058f 71000000 		.4byte	.LASF48
 1221 0593 0C       		.byte	0xc
 1222 0594 3E       		.byte	0x3e
 1223 0595 CF050000 		.4byte	0x5cf
 1224 0599 0C       		.byte	0xc
 1225 059a 00       		.byte	0
 1226 059b 0A       		.uleb128 0xa
 1227 059c 04       		.byte	0x4
 1228 059d 6A050000 		.4byte	0x56a
 1229 05a1 0A       		.uleb128 0xa
 1230 05a2 04       		.byte	0x4
 1231 05a3 A7050000 		.4byte	0x5a7
 1232 05a7 12       		.uleb128 0x12
 1233 05a8 AC050000 		.4byte	0x5ac
 1234 05ac 04       		.uleb128 0x4
 1235 05ad 01       		.byte	0x1
 1236 05ae 08       		.byte	0x8
 1237 05af C3020000 		.4byte	.LASF87
 1238 05b3 0A       		.uleb128 0xa
 1239 05b4 04       		.byte	0x4
 1240 05b5 3B040000 		.4byte	0x43b
 1241 05b9 0A       		.uleb128 0xa
 1242 05ba 04       		.byte	0x4
 1243 05bb 0F030000 		.4byte	0x30f
 1244 05bf 13       		.uleb128 0x13
 1245 05c0 A1050000 		.4byte	0x5a1
 1246 05c4 03       		.uleb128 0x3
 1247 05c5 14040000 		.4byte	.LASF88
 1248 05c9 0C       		.byte	0xc
 1249 05ca 34       		.byte	0x34
 1250 05cb 6A050000 		.4byte	0x56a
 1251 05cf 0A       		.uleb128 0xa
 1252 05d0 04       		.byte	0x4
 1253 05d1 C4050000 		.4byte	0x5c4
 1254 05d5 14       		.uleb128 0x14
 1255 05d6 92020000 		.4byte	.LASF89
 1256 05da 02       		.byte	0x2
 1257 05db 45       		.byte	0x45
 1258 05dc 03       		.byte	0x3
 1259 05dd 14       		.uleb128 0x14
 1260 05de 83030000 		.4byte	.LASF90
 1261 05e2 02       		.byte	0x2
 1262 05e3 3A       		.byte	0x3a
 1263 05e4 03       		.byte	0x3
 1264 05e5 15       		.uleb128 0x15
 1265 05e6 9B000000 		.4byte	.LASF91
 1266 05ea 0A       		.byte	0xa
 1267 05eb 7301     		.2byte	0x173
 1268 05ed 03       		.byte	0x3
 1269 05ee 15       		.uleb128 0x15
 1270 05ef D9040000 		.4byte	.LASF92
 1271 05f3 0A       		.byte	0xa
 1272 05f4 7C01     		.2byte	0x17c
ARM GAS  /tmp/cc6IfO4p.s 			page 38


 1273 05f6 03       		.byte	0x3
 1274 05f7 15       		.uleb128 0x15
 1275 05f8 B4020000 		.4byte	.LASF93
 1276 05fc 0D       		.byte	0xd
 1277 05fd 7601     		.2byte	0x176
 1278 05ff 03       		.byte	0x3
 1279 0600 16       		.uleb128 0x16
 1280 0601 2E000000 		.4byte	.LASF98
 1281 0605 01       		.byte	0x1
 1282 0606 6C       		.byte	0x6c
 1283 0607 0D030000 		.4byte	0x30d
 1284 060b 01       		.byte	0x1
 1285 060c 3D060000 		.4byte	0x63d
 1286 0610 17       		.uleb128 0x17
 1287 0611 39030000 		.4byte	.LASF94
 1288 0615 01       		.byte	0x1
 1289 0616 6C       		.byte	0x6c
 1290 0617 2C000000 		.4byte	0x2c
 1291 061b 17       		.uleb128 0x17
 1292 061c E5040000 		.4byte	.LASF95
 1293 0620 01       		.byte	0x1
 1294 0621 6C       		.byte	0x6c
 1295 0622 37000000 		.4byte	0x37
 1296 0626 18       		.uleb128 0x18
 1297 0627 7000     		.ascii	"p\000"
 1298 0629 01       		.byte	0x1
 1299 062a 6D       		.byte	0x6d
 1300 062b 3D060000 		.4byte	0x63d
 1301 062f 19       		.uleb128 0x19
 1302 0630 10000000 		.4byte	.LASF96
 1303 0634 53060000 		.4byte	0x653
 1304 0638 2E000000 		.4byte	.LASF98
 1305 063c 00       		.byte	0
 1306 063d 0A       		.uleb128 0xa
 1307 063e 04       		.byte	0x4
 1308 063f AD000000 		.4byte	0xad
 1309 0643 1A       		.uleb128 0x1a
 1310 0644 AC050000 		.4byte	0x5ac
 1311 0648 53060000 		.4byte	0x653
 1312 064c 1B       		.uleb128 0x1b
 1313 064d 29040000 		.4byte	0x429
 1314 0651 13       		.byte	0x13
 1315 0652 00       		.byte	0
 1316 0653 12       		.uleb128 0x12
 1317 0654 43060000 		.4byte	0x643
 1318 0658 1C       		.uleb128 0x1c
 1319 0659 21020000 		.4byte	.LASF99
 1320 065d 0D       		.byte	0xd
 1321 065e 8201     		.2byte	0x182
 1322 0660 03       		.byte	0x3
 1323 0661 73060000 		.4byte	0x673
 1324 0665 19       		.uleb128 0x19
 1325 0666 BC030000 		.4byte	.LASF97
 1326 066a 83060000 		.4byte	0x683
 1327 066e 21020000 		.4byte	.LASF99
 1328 0672 00       		.byte	0
 1329 0673 1A       		.uleb128 0x1a
ARM GAS  /tmp/cc6IfO4p.s 			page 39


 1330 0674 AC050000 		.4byte	0x5ac
 1331 0678 83060000 		.4byte	0x683
 1332 067c 1B       		.uleb128 0x1b
 1333 067d 29040000 		.4byte	0x429
 1334 0681 0B       		.byte	0xb
 1335 0682 00       		.byte	0
 1336 0683 12       		.uleb128 0x12
 1337 0684 73060000 		.4byte	0x673
 1338 0688 1D       		.uleb128 0x1d
 1339 0689 6B020000 		.4byte	.LASF107
 1340 068d 01       		.byte	0x1
 1341 068e 4F       		.byte	0x4f
 1342 068f 00000000 		.4byte	.LFB149
 1343 0693 20000000 		.4byte	.LFE149-.LFB149
 1344 0697 01       		.uleb128 0x1
 1345 0698 9C       		.byte	0x9c
 1346 0699 B4060000 		.4byte	0x6b4
 1347 069d 1E       		.uleb128 0x1e
 1348 069e 76020000 		.4byte	.LASF100
 1349 06a2 01       		.byte	0x1
 1350 06a3 51       		.byte	0x51
 1351 06a4 B4060000 		.4byte	0x6b4
 1352 06a8 1E       		.uleb128 0x1e
 1353 06a9 3E050000 		.4byte	.LASF101
 1354 06ad 01       		.byte	0x1
 1355 06ae 52       		.byte	0x52
 1356 06af B4060000 		.4byte	0x6b4
 1357 06b3 00       		.byte	0
 1358 06b4 1A       		.uleb128 0x1a
 1359 06b5 AD000000 		.4byte	0xad
 1360 06b9 BF060000 		.4byte	0x6bf
 1361 06bd 1F       		.uleb128 0x1f
 1362 06be 00       		.byte	0
 1363 06bf 20       		.uleb128 0x20
 1364 06c0 00060000 		.4byte	0x600
 1365 06c4 00000000 		.4byte	.LFB150
 1366 06c8 34000000 		.4byte	.LFE150-.LFB150
 1367 06cc 01       		.uleb128 0x1
 1368 06cd 9C       		.byte	0x9c
 1369 06ce F1060000 		.4byte	0x6f1
 1370 06d2 21       		.uleb128 0x21
 1371 06d3 10060000 		.4byte	0x610
 1372 06d7 00000000 		.4byte	.LLST0
 1373 06db 21       		.uleb128 0x21
 1374 06dc 1B060000 		.4byte	0x61b
 1375 06e0 76000000 		.4byte	.LLST1
 1376 06e4 22       		.uleb128 0x22
 1377 06e5 26060000 		.4byte	0x626
 1378 06e9 01       		.uleb128 0x1
 1379 06ea 51       		.byte	0x51
 1380 06eb 23       		.uleb128 0x23
 1381 06ec 2F060000 		.4byte	0x62f
 1382 06f0 00       		.byte	0
 1383 06f1 24       		.uleb128 0x24
 1384 06f2 51050000 		.4byte	.LASF108
 1385 06f6 01       		.byte	0x1
 1386 06f7 89       		.byte	0x89
ARM GAS  /tmp/cc6IfO4p.s 			page 40


 1387 06f8 0D030000 		.4byte	0x30d
 1388 06fc 00000000 		.4byte	.LFB151
 1389 0700 38000000 		.4byte	.LFE151-.LFB151
 1390 0704 01       		.uleb128 0x1
 1391 0705 9C       		.byte	0x9c
 1392 0706 DF070000 		.4byte	0x7df
 1393 070a 25       		.uleb128 0x25
 1394 070b 39030000 		.4byte	.LASF94
 1395 070f 01       		.byte	0x1
 1396 0710 89       		.byte	0x89
 1397 0711 2C000000 		.4byte	0x2c
 1398 0715 A5000000 		.4byte	.LLST2
 1399 0719 25       		.uleb128 0x25
 1400 071a E5040000 		.4byte	.LASF95
 1401 071e 01       		.byte	0x1
 1402 071f 89       		.byte	0x89
 1403 0720 37000000 		.4byte	0x37
 1404 0724 C6000000 		.4byte	.LLST3
 1405 0728 18       		.uleb128 0x18
 1406 0729 7000     		.ascii	"p\000"
 1407 072b 01       		.byte	0x1
 1408 072c 8A       		.byte	0x8a
 1409 072d 0D030000 		.4byte	0x30d
 1410 0731 26       		.uleb128 0x26
 1411 0732 F7050000 		.4byte	0x5f7
 1412 0736 02000000 		.4byte	.LBB26
 1413 073a 02000000 		.4byte	.LBE26-.LBB26
 1414 073e 01       		.byte	0x1
 1415 073f 8C       		.byte	0x8c
 1416 0740 66070000 		.4byte	0x766
 1417 0744 27       		.uleb128 0x27
 1418 0745 E5050000 		.4byte	0x5e5
 1419 0749 02000000 		.4byte	.LBB27
 1420 074d 02000000 		.4byte	.LBE27-.LBB27
 1421 0751 0D       		.byte	0xd
 1422 0752 7801     		.2byte	0x178
 1423 0754 28       		.uleb128 0x28
 1424 0755 D5050000 		.4byte	0x5d5
 1425 0759 02000000 		.4byte	.LBB28
 1426 075d 02000000 		.4byte	.LBE28-.LBB28
 1427 0761 0A       		.byte	0xa
 1428 0762 7501     		.2byte	0x175
 1429 0764 00       		.byte	0
 1430 0765 00       		.byte	0
 1431 0766 29       		.uleb128 0x29
 1432 0767 00060000 		.4byte	0x600
 1433 076b 04000000 		.4byte	.LBB30
 1434 076f 00000000 		.4byte	.Ldebug_ranges0+0
 1435 0773 01       		.byte	0x1
 1436 0774 8D       		.byte	0x8d
 1437 0775 9E070000 		.4byte	0x79e
 1438 0779 21       		.uleb128 0x21
 1439 077a 1B060000 		.4byte	0x61b
 1440 077e F5000000 		.4byte	.LLST4
 1441 0782 21       		.uleb128 0x21
 1442 0783 10060000 		.4byte	0x610
 1443 0787 24010000 		.4byte	.LLST5
ARM GAS  /tmp/cc6IfO4p.s 			page 41


 1444 078b 2A       		.uleb128 0x2a
 1445 078c 00000000 		.4byte	.Ldebug_ranges0+0
 1446 0790 22       		.uleb128 0x22
 1447 0791 26060000 		.4byte	0x626
 1448 0795 01       		.uleb128 0x1
 1449 0796 51       		.byte	0x51
 1450 0797 23       		.uleb128 0x23
 1451 0798 2F060000 		.4byte	0x62f
 1452 079c 00       		.byte	0
 1453 079d 00       		.byte	0
 1454 079e 2B       		.uleb128 0x2b
 1455 079f 58060000 		.4byte	0x658
 1456 07a3 26000000 		.4byte	.LBB33
 1457 07a7 02000000 		.4byte	.LBE33-.LBB33
 1458 07ab 01       		.byte	0x1
 1459 07ac 8E       		.byte	0x8e
 1460 07ad 2C       		.uleb128 0x2c
 1461 07ae 26000000 		.4byte	.LBB34
 1462 07b2 02000000 		.4byte	.LBE34-.LBB34
 1463 07b6 23       		.uleb128 0x23
 1464 07b7 65060000 		.4byte	0x665
 1465 07bb 27       		.uleb128 0x27
 1466 07bc EE050000 		.4byte	0x5ee
 1467 07c0 26000000 		.4byte	.LBB35
 1468 07c4 02000000 		.4byte	.LBE35-.LBB35
 1469 07c8 0D       		.byte	0xd
 1470 07c9 8F01     		.2byte	0x18f
 1471 07cb 28       		.uleb128 0x28
 1472 07cc DD050000 		.4byte	0x5dd
 1473 07d0 26000000 		.4byte	.LBB36
 1474 07d4 02000000 		.4byte	.LBE36-.LBB36
 1475 07d8 0A       		.byte	0xa
 1476 07d9 7E01     		.2byte	0x17e
 1477 07db 00       		.byte	0
 1478 07dc 00       		.byte	0
 1479 07dd 00       		.byte	0
 1480 07de 00       		.byte	0
 1481 07df 2D       		.uleb128 0x2d
 1482 07e0 F2000000 		.4byte	.LASF109
 1483 07e4 01       		.byte	0x1
 1484 07e5 9A       		.byte	0x9a
 1485 07e6 2C000000 		.4byte	0x2c
 1486 07ea 00000000 		.4byte	.LFB152
 1487 07ee 14000000 		.4byte	.LFE152-.LFB152
 1488 07f2 01       		.uleb128 0x1
 1489 07f3 9C       		.byte	0x9c
 1490 07f4 2E       		.uleb128 0x2e
 1491 07f5 F1040000 		.4byte	.LASF102
 1492 07f9 01       		.byte	0x1
 1493 07fa 3F       		.byte	0x3f
 1494 07fb 3D060000 		.4byte	0x63d
 1495 07ff 05       		.uleb128 0x5
 1496 0800 03       		.byte	0x3
 1497 0801 00000000 		.4byte	nextmem
 1498 0805 2E       		.uleb128 0x2e
 1499 0806 A1040000 		.4byte	.LASF103
 1500 080a 01       		.byte	0x1
ARM GAS  /tmp/cc6IfO4p.s 			page 42


 1501 080b 40       		.byte	0x40
 1502 080c 3D060000 		.4byte	0x63d
 1503 0810 05       		.uleb128 0x5
 1504 0811 03       		.byte	0x3
 1505 0812 00000000 		.4byte	endmem
 1506 0816 2F       		.uleb128 0x2f
 1507 0817 636800   		.ascii	"ch\000"
 1508 081a 08       		.byte	0x8
 1509 081b D201     		.2byte	0x1d2
 1510 081d DC030000 		.4byte	0x3dc
 1511 0821 1E       		.uleb128 0x1e
 1512 0822 76020000 		.4byte	.LASF100
 1513 0826 01       		.byte	0x1
 1514 0827 51       		.byte	0x51
 1515 0828 B4060000 		.4byte	0x6b4
 1516 082c 1E       		.uleb128 0x1e
 1517 082d 3E050000 		.4byte	.LASF101
 1518 0831 01       		.byte	0x1
 1519 0832 52       		.byte	0x52
 1520 0833 B4060000 		.4byte	0x6b4
 1521 0837 00       		.byte	0
 1522              		.section	.debug_abbrev,"",%progbits
 1523              	.Ldebug_abbrev0:
 1524 0000 01       		.uleb128 0x1
 1525 0001 11       		.uleb128 0x11
 1526 0002 01       		.byte	0x1
 1527 0003 25       		.uleb128 0x25
 1528 0004 0E       		.uleb128 0xe
 1529 0005 13       		.uleb128 0x13
 1530 0006 0B       		.uleb128 0xb
 1531 0007 03       		.uleb128 0x3
 1532 0008 0E       		.uleb128 0xe
 1533 0009 1B       		.uleb128 0x1b
 1534 000a 0E       		.uleb128 0xe
 1535 000b 55       		.uleb128 0x55
 1536 000c 17       		.uleb128 0x17
 1537 000d 11       		.uleb128 0x11
 1538 000e 01       		.uleb128 0x1
 1539 000f 10       		.uleb128 0x10
 1540 0010 17       		.uleb128 0x17
 1541 0011 00       		.byte	0
 1542 0012 00       		.byte	0
 1543 0013 02       		.uleb128 0x2
 1544 0014 24       		.uleb128 0x24
 1545 0015 00       		.byte	0
 1546 0016 0B       		.uleb128 0xb
 1547 0017 0B       		.uleb128 0xb
 1548 0018 3E       		.uleb128 0x3e
 1549 0019 0B       		.uleb128 0xb
 1550 001a 03       		.uleb128 0x3
 1551 001b 08       		.uleb128 0x8
 1552 001c 00       		.byte	0
 1553 001d 00       		.byte	0
 1554 001e 03       		.uleb128 0x3
 1555 001f 16       		.uleb128 0x16
 1556 0020 00       		.byte	0
 1557 0021 03       		.uleb128 0x3
ARM GAS  /tmp/cc6IfO4p.s 			page 43


 1558 0022 0E       		.uleb128 0xe
 1559 0023 3A       		.uleb128 0x3a
 1560 0024 0B       		.uleb128 0xb
 1561 0025 3B       		.uleb128 0x3b
 1562 0026 0B       		.uleb128 0xb
 1563 0027 49       		.uleb128 0x49
 1564 0028 13       		.uleb128 0x13
 1565 0029 00       		.byte	0
 1566 002a 00       		.byte	0
 1567 002b 04       		.uleb128 0x4
 1568 002c 24       		.uleb128 0x24
 1569 002d 00       		.byte	0
 1570 002e 0B       		.uleb128 0xb
 1571 002f 0B       		.uleb128 0xb
 1572 0030 3E       		.uleb128 0x3e
 1573 0031 0B       		.uleb128 0xb
 1574 0032 03       		.uleb128 0x3
 1575 0033 0E       		.uleb128 0xe
 1576 0034 00       		.byte	0
 1577 0035 00       		.byte	0
 1578 0036 05       		.uleb128 0x5
 1579 0037 13       		.uleb128 0x13
 1580 0038 01       		.byte	0x1
 1581 0039 03       		.uleb128 0x3
 1582 003a 0E       		.uleb128 0xe
 1583 003b 0B       		.uleb128 0xb
 1584 003c 0B       		.uleb128 0xb
 1585 003d 3A       		.uleb128 0x3a
 1586 003e 0B       		.uleb128 0xb
 1587 003f 3B       		.uleb128 0x3b
 1588 0040 0B       		.uleb128 0xb
 1589 0041 01       		.uleb128 0x1
 1590 0042 13       		.uleb128 0x13
 1591 0043 00       		.byte	0
 1592 0044 00       		.byte	0
 1593 0045 06       		.uleb128 0x6
 1594 0046 0D       		.uleb128 0xd
 1595 0047 00       		.byte	0
 1596 0048 03       		.uleb128 0x3
 1597 0049 0E       		.uleb128 0xe
 1598 004a 3A       		.uleb128 0x3a
 1599 004b 0B       		.uleb128 0xb
 1600 004c 3B       		.uleb128 0x3b
 1601 004d 0B       		.uleb128 0xb
 1602 004e 49       		.uleb128 0x49
 1603 004f 13       		.uleb128 0x13
 1604 0050 38       		.uleb128 0x38
 1605 0051 0B       		.uleb128 0xb
 1606 0052 00       		.byte	0
 1607 0053 00       		.byte	0
 1608 0054 07       		.uleb128 0x7
 1609 0055 0D       		.uleb128 0xd
 1610 0056 00       		.byte	0
 1611 0057 03       		.uleb128 0x3
 1612 0058 08       		.uleb128 0x8
 1613 0059 3A       		.uleb128 0x3a
 1614 005a 0B       		.uleb128 0xb
ARM GAS  /tmp/cc6IfO4p.s 			page 44


 1615 005b 3B       		.uleb128 0x3b
 1616 005c 0B       		.uleb128 0xb
 1617 005d 49       		.uleb128 0x49
 1618 005e 13       		.uleb128 0x13
 1619 005f 38       		.uleb128 0x38
 1620 0060 0B       		.uleb128 0xb
 1621 0061 00       		.byte	0
 1622 0062 00       		.byte	0
 1623 0063 08       		.uleb128 0x8
 1624 0064 0D       		.uleb128 0xd
 1625 0065 00       		.byte	0
 1626 0066 03       		.uleb128 0x3
 1627 0067 08       		.uleb128 0x8
 1628 0068 3A       		.uleb128 0x3a
 1629 0069 0B       		.uleb128 0xb
 1630 006a 3B       		.uleb128 0x3b
 1631 006b 05       		.uleb128 0x5
 1632 006c 49       		.uleb128 0x49
 1633 006d 13       		.uleb128 0x13
 1634 006e 38       		.uleb128 0x38
 1635 006f 0B       		.uleb128 0xb
 1636 0070 00       		.byte	0
 1637 0071 00       		.byte	0
 1638 0072 09       		.uleb128 0x9
 1639 0073 0D       		.uleb128 0xd
 1640 0074 00       		.byte	0
 1641 0075 03       		.uleb128 0x3
 1642 0076 0E       		.uleb128 0xe
 1643 0077 3A       		.uleb128 0x3a
 1644 0078 0B       		.uleb128 0xb
 1645 0079 3B       		.uleb128 0x3b
 1646 007a 05       		.uleb128 0x5
 1647 007b 49       		.uleb128 0x49
 1648 007c 13       		.uleb128 0x13
 1649 007d 38       		.uleb128 0x38
 1650 007e 0B       		.uleb128 0xb
 1651 007f 00       		.byte	0
 1652 0080 00       		.byte	0
 1653 0081 0A       		.uleb128 0xa
 1654 0082 0F       		.uleb128 0xf
 1655 0083 00       		.byte	0
 1656 0084 0B       		.uleb128 0xb
 1657 0085 0B       		.uleb128 0xb
 1658 0086 49       		.uleb128 0x49
 1659 0087 13       		.uleb128 0x13
 1660 0088 00       		.byte	0
 1661 0089 00       		.byte	0
 1662 008a 0B       		.uleb128 0xb
 1663 008b 13       		.uleb128 0x13
 1664 008c 01       		.byte	0x1
 1665 008d 03       		.uleb128 0x3
 1666 008e 0E       		.uleb128 0xe
 1667 008f 0B       		.uleb128 0xb
 1668 0090 0B       		.uleb128 0xb
 1669 0091 3A       		.uleb128 0x3a
 1670 0092 0B       		.uleb128 0xb
 1671 0093 3B       		.uleb128 0x3b
ARM GAS  /tmp/cc6IfO4p.s 			page 45


 1672 0094 05       		.uleb128 0x5
 1673 0095 01       		.uleb128 0x1
 1674 0096 13       		.uleb128 0x13
 1675 0097 00       		.byte	0
 1676 0098 00       		.byte	0
 1677 0099 0C       		.uleb128 0xc
 1678 009a 15       		.uleb128 0x15
 1679 009b 01       		.byte	0x1
 1680 009c 27       		.uleb128 0x27
 1681 009d 19       		.uleb128 0x19
 1682 009e 01       		.uleb128 0x1
 1683 009f 13       		.uleb128 0x13
 1684 00a0 00       		.byte	0
 1685 00a1 00       		.byte	0
 1686 00a2 0D       		.uleb128 0xd
 1687 00a3 05       		.uleb128 0x5
 1688 00a4 00       		.byte	0
 1689 00a5 49       		.uleb128 0x49
 1690 00a6 13       		.uleb128 0x13
 1691 00a7 00       		.byte	0
 1692 00a8 00       		.byte	0
 1693 00a9 0E       		.uleb128 0xe
 1694 00aa 0F       		.uleb128 0xf
 1695 00ab 00       		.byte	0
 1696 00ac 0B       		.uleb128 0xb
 1697 00ad 0B       		.uleb128 0xb
 1698 00ae 00       		.byte	0
 1699 00af 00       		.byte	0
 1700 00b0 0F       		.uleb128 0xf
 1701 00b1 17       		.uleb128 0x17
 1702 00b2 01       		.byte	0x1
 1703 00b3 0B       		.uleb128 0xb
 1704 00b4 0B       		.uleb128 0xb
 1705 00b5 3A       		.uleb128 0x3a
 1706 00b6 0B       		.uleb128 0xb
 1707 00b7 3B       		.uleb128 0x3b
 1708 00b8 0B       		.uleb128 0xb
 1709 00b9 01       		.uleb128 0x1
 1710 00ba 13       		.uleb128 0x13
 1711 00bb 00       		.byte	0
 1712 00bc 00       		.byte	0
 1713 00bd 10       		.uleb128 0x10
 1714 00be 0D       		.uleb128 0xd
 1715 00bf 00       		.byte	0
 1716 00c0 03       		.uleb128 0x3
 1717 00c1 0E       		.uleb128 0xe
 1718 00c2 3A       		.uleb128 0x3a
 1719 00c3 0B       		.uleb128 0xb
 1720 00c4 3B       		.uleb128 0x3b
 1721 00c5 0B       		.uleb128 0xb
 1722 00c6 49       		.uleb128 0x49
 1723 00c7 13       		.uleb128 0x13
 1724 00c8 00       		.byte	0
 1725 00c9 00       		.byte	0
 1726 00ca 11       		.uleb128 0x11
 1727 00cb 0D       		.uleb128 0xd
 1728 00cc 00       		.byte	0
ARM GAS  /tmp/cc6IfO4p.s 			page 46


 1729 00cd 03       		.uleb128 0x3
 1730 00ce 0E       		.uleb128 0xe
 1731 00cf 3A       		.uleb128 0x3a
 1732 00d0 0B       		.uleb128 0xb
 1733 00d1 3B       		.uleb128 0x3b
 1734 00d2 05       		.uleb128 0x5
 1735 00d3 49       		.uleb128 0x49
 1736 00d4 13       		.uleb128 0x13
 1737 00d5 00       		.byte	0
 1738 00d6 00       		.byte	0
 1739 00d7 12       		.uleb128 0x12
 1740 00d8 26       		.uleb128 0x26
 1741 00d9 00       		.byte	0
 1742 00da 49       		.uleb128 0x49
 1743 00db 13       		.uleb128 0x13
 1744 00dc 00       		.byte	0
 1745 00dd 00       		.byte	0
 1746 00de 13       		.uleb128 0x13
 1747 00df 35       		.uleb128 0x35
 1748 00e0 00       		.byte	0
 1749 00e1 49       		.uleb128 0x49
 1750 00e2 13       		.uleb128 0x13
 1751 00e3 00       		.byte	0
 1752 00e4 00       		.byte	0
 1753 00e5 14       		.uleb128 0x14
 1754 00e6 2E       		.uleb128 0x2e
 1755 00e7 00       		.byte	0
 1756 00e8 03       		.uleb128 0x3
 1757 00e9 0E       		.uleb128 0xe
 1758 00ea 3A       		.uleb128 0x3a
 1759 00eb 0B       		.uleb128 0xb
 1760 00ec 3B       		.uleb128 0x3b
 1761 00ed 0B       		.uleb128 0xb
 1762 00ee 27       		.uleb128 0x27
 1763 00ef 19       		.uleb128 0x19
 1764 00f0 20       		.uleb128 0x20
 1765 00f1 0B       		.uleb128 0xb
 1766 00f2 00       		.byte	0
 1767 00f3 00       		.byte	0
 1768 00f4 15       		.uleb128 0x15
 1769 00f5 2E       		.uleb128 0x2e
 1770 00f6 00       		.byte	0
 1771 00f7 03       		.uleb128 0x3
 1772 00f8 0E       		.uleb128 0xe
 1773 00f9 3A       		.uleb128 0x3a
 1774 00fa 0B       		.uleb128 0xb
 1775 00fb 3B       		.uleb128 0x3b
 1776 00fc 05       		.uleb128 0x5
 1777 00fd 27       		.uleb128 0x27
 1778 00fe 19       		.uleb128 0x19
 1779 00ff 20       		.uleb128 0x20
 1780 0100 0B       		.uleb128 0xb
 1781 0101 00       		.byte	0
 1782 0102 00       		.byte	0
 1783 0103 16       		.uleb128 0x16
 1784 0104 2E       		.uleb128 0x2e
 1785 0105 01       		.byte	0x1
ARM GAS  /tmp/cc6IfO4p.s 			page 47


 1786 0106 3F       		.uleb128 0x3f
 1787 0107 19       		.uleb128 0x19
 1788 0108 03       		.uleb128 0x3
 1789 0109 0E       		.uleb128 0xe
 1790 010a 3A       		.uleb128 0x3a
 1791 010b 0B       		.uleb128 0xb
 1792 010c 3B       		.uleb128 0x3b
 1793 010d 0B       		.uleb128 0xb
 1794 010e 27       		.uleb128 0x27
 1795 010f 19       		.uleb128 0x19
 1796 0110 49       		.uleb128 0x49
 1797 0111 13       		.uleb128 0x13
 1798 0112 20       		.uleb128 0x20
 1799 0113 0B       		.uleb128 0xb
 1800 0114 01       		.uleb128 0x1
 1801 0115 13       		.uleb128 0x13
 1802 0116 00       		.byte	0
 1803 0117 00       		.byte	0
 1804 0118 17       		.uleb128 0x17
 1805 0119 05       		.uleb128 0x5
 1806 011a 00       		.byte	0
 1807 011b 03       		.uleb128 0x3
 1808 011c 0E       		.uleb128 0xe
 1809 011d 3A       		.uleb128 0x3a
 1810 011e 0B       		.uleb128 0xb
 1811 011f 3B       		.uleb128 0x3b
 1812 0120 0B       		.uleb128 0xb
 1813 0121 49       		.uleb128 0x49
 1814 0122 13       		.uleb128 0x13
 1815 0123 00       		.byte	0
 1816 0124 00       		.byte	0
 1817 0125 18       		.uleb128 0x18
 1818 0126 34       		.uleb128 0x34
 1819 0127 00       		.byte	0
 1820 0128 03       		.uleb128 0x3
 1821 0129 08       		.uleb128 0x8
 1822 012a 3A       		.uleb128 0x3a
 1823 012b 0B       		.uleb128 0xb
 1824 012c 3B       		.uleb128 0x3b
 1825 012d 0B       		.uleb128 0xb
 1826 012e 49       		.uleb128 0x49
 1827 012f 13       		.uleb128 0x13
 1828 0130 00       		.byte	0
 1829 0131 00       		.byte	0
 1830 0132 19       		.uleb128 0x19
 1831 0133 34       		.uleb128 0x34
 1832 0134 00       		.byte	0
 1833 0135 03       		.uleb128 0x3
 1834 0136 0E       		.uleb128 0xe
 1835 0137 49       		.uleb128 0x49
 1836 0138 13       		.uleb128 0x13
 1837 0139 34       		.uleb128 0x34
 1838 013a 19       		.uleb128 0x19
 1839 013b 1C       		.uleb128 0x1c
 1840 013c 0E       		.uleb128 0xe
 1841 013d 00       		.byte	0
 1842 013e 00       		.byte	0
ARM GAS  /tmp/cc6IfO4p.s 			page 48


 1843 013f 1A       		.uleb128 0x1a
 1844 0140 01       		.uleb128 0x1
 1845 0141 01       		.byte	0x1
 1846 0142 49       		.uleb128 0x49
 1847 0143 13       		.uleb128 0x13
 1848 0144 01       		.uleb128 0x1
 1849 0145 13       		.uleb128 0x13
 1850 0146 00       		.byte	0
 1851 0147 00       		.byte	0
 1852 0148 1B       		.uleb128 0x1b
 1853 0149 21       		.uleb128 0x21
 1854 014a 00       		.byte	0
 1855 014b 49       		.uleb128 0x49
 1856 014c 13       		.uleb128 0x13
 1857 014d 2F       		.uleb128 0x2f
 1858 014e 0B       		.uleb128 0xb
 1859 014f 00       		.byte	0
 1860 0150 00       		.byte	0
 1861 0151 1C       		.uleb128 0x1c
 1862 0152 2E       		.uleb128 0x2e
 1863 0153 01       		.byte	0x1
 1864 0154 03       		.uleb128 0x3
 1865 0155 0E       		.uleb128 0xe
 1866 0156 3A       		.uleb128 0x3a
 1867 0157 0B       		.uleb128 0xb
 1868 0158 3B       		.uleb128 0x3b
 1869 0159 05       		.uleb128 0x5
 1870 015a 27       		.uleb128 0x27
 1871 015b 19       		.uleb128 0x19
 1872 015c 20       		.uleb128 0x20
 1873 015d 0B       		.uleb128 0xb
 1874 015e 01       		.uleb128 0x1
 1875 015f 13       		.uleb128 0x13
 1876 0160 00       		.byte	0
 1877 0161 00       		.byte	0
 1878 0162 1D       		.uleb128 0x1d
 1879 0163 2E       		.uleb128 0x2e
 1880 0164 01       		.byte	0x1
 1881 0165 3F       		.uleb128 0x3f
 1882 0166 19       		.uleb128 0x19
 1883 0167 03       		.uleb128 0x3
 1884 0168 0E       		.uleb128 0xe
 1885 0169 3A       		.uleb128 0x3a
 1886 016a 0B       		.uleb128 0xb
 1887 016b 3B       		.uleb128 0x3b
 1888 016c 0B       		.uleb128 0xb
 1889 016d 27       		.uleb128 0x27
 1890 016e 19       		.uleb128 0x19
 1891 016f 11       		.uleb128 0x11
 1892 0170 01       		.uleb128 0x1
 1893 0171 12       		.uleb128 0x12
 1894 0172 06       		.uleb128 0x6
 1895 0173 40       		.uleb128 0x40
 1896 0174 18       		.uleb128 0x18
 1897 0175 9742     		.uleb128 0x2117
 1898 0177 19       		.uleb128 0x19
 1899 0178 01       		.uleb128 0x1
ARM GAS  /tmp/cc6IfO4p.s 			page 49


 1900 0179 13       		.uleb128 0x13
 1901 017a 00       		.byte	0
 1902 017b 00       		.byte	0
 1903 017c 1E       		.uleb128 0x1e
 1904 017d 34       		.uleb128 0x34
 1905 017e 00       		.byte	0
 1906 017f 03       		.uleb128 0x3
 1907 0180 0E       		.uleb128 0xe
 1908 0181 3A       		.uleb128 0x3a
 1909 0182 0B       		.uleb128 0xb
 1910 0183 3B       		.uleb128 0x3b
 1911 0184 0B       		.uleb128 0xb
 1912 0185 49       		.uleb128 0x49
 1913 0186 13       		.uleb128 0x13
 1914 0187 3F       		.uleb128 0x3f
 1915 0188 19       		.uleb128 0x19
 1916 0189 3C       		.uleb128 0x3c
 1917 018a 19       		.uleb128 0x19
 1918 018b 00       		.byte	0
 1919 018c 00       		.byte	0
 1920 018d 1F       		.uleb128 0x1f
 1921 018e 21       		.uleb128 0x21
 1922 018f 00       		.byte	0
 1923 0190 00       		.byte	0
 1924 0191 00       		.byte	0
 1925 0192 20       		.uleb128 0x20
 1926 0193 2E       		.uleb128 0x2e
 1927 0194 01       		.byte	0x1
 1928 0195 31       		.uleb128 0x31
 1929 0196 13       		.uleb128 0x13
 1930 0197 11       		.uleb128 0x11
 1931 0198 01       		.uleb128 0x1
 1932 0199 12       		.uleb128 0x12
 1933 019a 06       		.uleb128 0x6
 1934 019b 40       		.uleb128 0x40
 1935 019c 18       		.uleb128 0x18
 1936 019d 9742     		.uleb128 0x2117
 1937 019f 19       		.uleb128 0x19
 1938 01a0 01       		.uleb128 0x1
 1939 01a1 13       		.uleb128 0x13
 1940 01a2 00       		.byte	0
 1941 01a3 00       		.byte	0
 1942 01a4 21       		.uleb128 0x21
 1943 01a5 05       		.uleb128 0x5
 1944 01a6 00       		.byte	0
 1945 01a7 31       		.uleb128 0x31
 1946 01a8 13       		.uleb128 0x13
 1947 01a9 02       		.uleb128 0x2
 1948 01aa 17       		.uleb128 0x17
 1949 01ab 00       		.byte	0
 1950 01ac 00       		.byte	0
 1951 01ad 22       		.uleb128 0x22
 1952 01ae 34       		.uleb128 0x34
 1953 01af 00       		.byte	0
 1954 01b0 31       		.uleb128 0x31
 1955 01b1 13       		.uleb128 0x13
 1956 01b2 02       		.uleb128 0x2
ARM GAS  /tmp/cc6IfO4p.s 			page 50


 1957 01b3 18       		.uleb128 0x18
 1958 01b4 00       		.byte	0
 1959 01b5 00       		.byte	0
 1960 01b6 23       		.uleb128 0x23
 1961 01b7 34       		.uleb128 0x34
 1962 01b8 00       		.byte	0
 1963 01b9 31       		.uleb128 0x31
 1964 01ba 13       		.uleb128 0x13
 1965 01bb 00       		.byte	0
 1966 01bc 00       		.byte	0
 1967 01bd 24       		.uleb128 0x24
 1968 01be 2E       		.uleb128 0x2e
 1969 01bf 01       		.byte	0x1
 1970 01c0 3F       		.uleb128 0x3f
 1971 01c1 19       		.uleb128 0x19
 1972 01c2 03       		.uleb128 0x3
 1973 01c3 0E       		.uleb128 0xe
 1974 01c4 3A       		.uleb128 0x3a
 1975 01c5 0B       		.uleb128 0xb
 1976 01c6 3B       		.uleb128 0x3b
 1977 01c7 0B       		.uleb128 0xb
 1978 01c8 27       		.uleb128 0x27
 1979 01c9 19       		.uleb128 0x19
 1980 01ca 49       		.uleb128 0x49
 1981 01cb 13       		.uleb128 0x13
 1982 01cc 11       		.uleb128 0x11
 1983 01cd 01       		.uleb128 0x1
 1984 01ce 12       		.uleb128 0x12
 1985 01cf 06       		.uleb128 0x6
 1986 01d0 40       		.uleb128 0x40
 1987 01d1 18       		.uleb128 0x18
 1988 01d2 9742     		.uleb128 0x2117
 1989 01d4 19       		.uleb128 0x19
 1990 01d5 01       		.uleb128 0x1
 1991 01d6 13       		.uleb128 0x13
 1992 01d7 00       		.byte	0
 1993 01d8 00       		.byte	0
 1994 01d9 25       		.uleb128 0x25
 1995 01da 05       		.uleb128 0x5
 1996 01db 00       		.byte	0
 1997 01dc 03       		.uleb128 0x3
 1998 01dd 0E       		.uleb128 0xe
 1999 01de 3A       		.uleb128 0x3a
 2000 01df 0B       		.uleb128 0xb
 2001 01e0 3B       		.uleb128 0x3b
 2002 01e1 0B       		.uleb128 0xb
 2003 01e2 49       		.uleb128 0x49
 2004 01e3 13       		.uleb128 0x13
 2005 01e4 02       		.uleb128 0x2
 2006 01e5 17       		.uleb128 0x17
 2007 01e6 00       		.byte	0
 2008 01e7 00       		.byte	0
 2009 01e8 26       		.uleb128 0x26
 2010 01e9 1D       		.uleb128 0x1d
 2011 01ea 01       		.byte	0x1
 2012 01eb 31       		.uleb128 0x31
 2013 01ec 13       		.uleb128 0x13
ARM GAS  /tmp/cc6IfO4p.s 			page 51


 2014 01ed 11       		.uleb128 0x11
 2015 01ee 01       		.uleb128 0x1
 2016 01ef 12       		.uleb128 0x12
 2017 01f0 06       		.uleb128 0x6
 2018 01f1 58       		.uleb128 0x58
 2019 01f2 0B       		.uleb128 0xb
 2020 01f3 59       		.uleb128 0x59
 2021 01f4 0B       		.uleb128 0xb
 2022 01f5 01       		.uleb128 0x1
 2023 01f6 13       		.uleb128 0x13
 2024 01f7 00       		.byte	0
 2025 01f8 00       		.byte	0
 2026 01f9 27       		.uleb128 0x27
 2027 01fa 1D       		.uleb128 0x1d
 2028 01fb 01       		.byte	0x1
 2029 01fc 31       		.uleb128 0x31
 2030 01fd 13       		.uleb128 0x13
 2031 01fe 11       		.uleb128 0x11
 2032 01ff 01       		.uleb128 0x1
 2033 0200 12       		.uleb128 0x12
 2034 0201 06       		.uleb128 0x6
 2035 0202 58       		.uleb128 0x58
 2036 0203 0B       		.uleb128 0xb
 2037 0204 59       		.uleb128 0x59
 2038 0205 05       		.uleb128 0x5
 2039 0206 00       		.byte	0
 2040 0207 00       		.byte	0
 2041 0208 28       		.uleb128 0x28
 2042 0209 1D       		.uleb128 0x1d
 2043 020a 00       		.byte	0
 2044 020b 31       		.uleb128 0x31
 2045 020c 13       		.uleb128 0x13
 2046 020d 11       		.uleb128 0x11
 2047 020e 01       		.uleb128 0x1
 2048 020f 12       		.uleb128 0x12
 2049 0210 06       		.uleb128 0x6
 2050 0211 58       		.uleb128 0x58
 2051 0212 0B       		.uleb128 0xb
 2052 0213 59       		.uleb128 0x59
 2053 0214 05       		.uleb128 0x5
 2054 0215 00       		.byte	0
 2055 0216 00       		.byte	0
 2056 0217 29       		.uleb128 0x29
 2057 0218 1D       		.uleb128 0x1d
 2058 0219 01       		.byte	0x1
 2059 021a 31       		.uleb128 0x31
 2060 021b 13       		.uleb128 0x13
 2061 021c 52       		.uleb128 0x52
 2062 021d 01       		.uleb128 0x1
 2063 021e 55       		.uleb128 0x55
 2064 021f 17       		.uleb128 0x17
 2065 0220 58       		.uleb128 0x58
 2066 0221 0B       		.uleb128 0xb
 2067 0222 59       		.uleb128 0x59
 2068 0223 0B       		.uleb128 0xb
 2069 0224 01       		.uleb128 0x1
 2070 0225 13       		.uleb128 0x13
ARM GAS  /tmp/cc6IfO4p.s 			page 52


 2071 0226 00       		.byte	0
 2072 0227 00       		.byte	0
 2073 0228 2A       		.uleb128 0x2a
 2074 0229 0B       		.uleb128 0xb
 2075 022a 01       		.byte	0x1
 2076 022b 55       		.uleb128 0x55
 2077 022c 17       		.uleb128 0x17
 2078 022d 00       		.byte	0
 2079 022e 00       		.byte	0
 2080 022f 2B       		.uleb128 0x2b
 2081 0230 1D       		.uleb128 0x1d
 2082 0231 01       		.byte	0x1
 2083 0232 31       		.uleb128 0x31
 2084 0233 13       		.uleb128 0x13
 2085 0234 11       		.uleb128 0x11
 2086 0235 01       		.uleb128 0x1
 2087 0236 12       		.uleb128 0x12
 2088 0237 06       		.uleb128 0x6
 2089 0238 58       		.uleb128 0x58
 2090 0239 0B       		.uleb128 0xb
 2091 023a 59       		.uleb128 0x59
 2092 023b 0B       		.uleb128 0xb
 2093 023c 00       		.byte	0
 2094 023d 00       		.byte	0
 2095 023e 2C       		.uleb128 0x2c
 2096 023f 0B       		.uleb128 0xb
 2097 0240 01       		.byte	0x1
 2098 0241 11       		.uleb128 0x11
 2099 0242 01       		.uleb128 0x1
 2100 0243 12       		.uleb128 0x12
 2101 0244 06       		.uleb128 0x6
 2102 0245 00       		.byte	0
 2103 0246 00       		.byte	0
 2104 0247 2D       		.uleb128 0x2d
 2105 0248 2E       		.uleb128 0x2e
 2106 0249 00       		.byte	0
 2107 024a 3F       		.uleb128 0x3f
 2108 024b 19       		.uleb128 0x19
 2109 024c 03       		.uleb128 0x3
 2110 024d 0E       		.uleb128 0xe
 2111 024e 3A       		.uleb128 0x3a
 2112 024f 0B       		.uleb128 0xb
 2113 0250 3B       		.uleb128 0x3b
 2114 0251 0B       		.uleb128 0xb
 2115 0252 27       		.uleb128 0x27
 2116 0253 19       		.uleb128 0x19
 2117 0254 49       		.uleb128 0x49
 2118 0255 13       		.uleb128 0x13
 2119 0256 11       		.uleb128 0x11
 2120 0257 01       		.uleb128 0x1
 2121 0258 12       		.uleb128 0x12
 2122 0259 06       		.uleb128 0x6
 2123 025a 40       		.uleb128 0x40
 2124 025b 18       		.uleb128 0x18
 2125 025c 9742     		.uleb128 0x2117
 2126 025e 19       		.uleb128 0x19
 2127 025f 00       		.byte	0
ARM GAS  /tmp/cc6IfO4p.s 			page 53


 2128 0260 00       		.byte	0
 2129 0261 2E       		.uleb128 0x2e
 2130 0262 34       		.uleb128 0x34
 2131 0263 00       		.byte	0
 2132 0264 03       		.uleb128 0x3
 2133 0265 0E       		.uleb128 0xe
 2134 0266 3A       		.uleb128 0x3a
 2135 0267 0B       		.uleb128 0xb
 2136 0268 3B       		.uleb128 0x3b
 2137 0269 0B       		.uleb128 0xb
 2138 026a 49       		.uleb128 0x49
 2139 026b 13       		.uleb128 0x13
 2140 026c 02       		.uleb128 0x2
 2141 026d 18       		.uleb128 0x18
 2142 026e 00       		.byte	0
 2143 026f 00       		.byte	0
 2144 0270 2F       		.uleb128 0x2f
 2145 0271 34       		.uleb128 0x34
 2146 0272 00       		.byte	0
 2147 0273 03       		.uleb128 0x3
 2148 0274 08       		.uleb128 0x8
 2149 0275 3A       		.uleb128 0x3a
 2150 0276 0B       		.uleb128 0xb
 2151 0277 3B       		.uleb128 0x3b
 2152 0278 05       		.uleb128 0x5
 2153 0279 49       		.uleb128 0x49
 2154 027a 13       		.uleb128 0x13
 2155 027b 3F       		.uleb128 0x3f
 2156 027c 19       		.uleb128 0x19
 2157 027d 3C       		.uleb128 0x3c
 2158 027e 19       		.uleb128 0x19
 2159 027f 00       		.byte	0
 2160 0280 00       		.byte	0
 2161 0281 00       		.byte	0
 2162              		.section	.debug_loc,"",%progbits
 2163              	.Ldebug_loc0:
 2164              	.LLST0:
 2165 0000 00000000 		.4byte	.LVL0
 2166 0004 08000000 		.4byte	.LVL1
 2167 0008 0100     		.2byte	0x1
 2168 000a 50       		.byte	0x50
 2169 000b 08000000 		.4byte	.LVL1
 2170 000f 0E000000 		.4byte	.LVL2
 2171 0013 0300     		.2byte	0x3
 2172 0015 70       		.byte	0x70
 2173 0016 01       		.sleb128 1
 2174 0017 9F       		.byte	0x9f
 2175 0018 0E000000 		.4byte	.LVL2
 2176 001c 14000000 		.4byte	.LVL4
 2177 0020 0400     		.2byte	0x4
 2178 0022 F3       		.byte	0xf3
 2179 0023 01       		.uleb128 0x1
 2180 0024 50       		.byte	0x50
 2181 0025 9F       		.byte	0x9f
 2182 0026 14000000 		.4byte	.LVL4
 2183 002a 20000000 		.4byte	.LVL6
 2184 002e 0100     		.2byte	0x1
ARM GAS  /tmp/cc6IfO4p.s 			page 54


 2185 0030 50       		.byte	0x50
 2186 0031 20000000 		.4byte	.LVL6
 2187 0035 26000000 		.4byte	.LVL7
 2188 0039 0F00     		.2byte	0xf
 2189 003b F3       		.byte	0xf3
 2190 003c 01       		.uleb128 0x1
 2191 003d 50       		.byte	0x50
 2192 003e F3       		.byte	0xf3
 2193 003f 01       		.uleb128 0x1
 2194 0040 51       		.byte	0x51
 2195 0041 22       		.byte	0x22
 2196 0042 31       		.byte	0x31
 2197 0043 1C       		.byte	0x1c
 2198 0044 F3       		.byte	0xf3
 2199 0045 01       		.uleb128 0x1
 2200 0046 51       		.byte	0x51
 2201 0047 1F       		.byte	0x1f
 2202 0048 1A       		.byte	0x1a
 2203 0049 9F       		.byte	0x9f
 2204 004a 26000000 		.4byte	.LVL7
 2205 004e 28000000 		.4byte	.LVL8
 2206 0052 0100     		.2byte	0x1
 2207 0054 50       		.byte	0x50
 2208 0055 28000000 		.4byte	.LVL8
 2209 0059 34000000 		.4byte	.LFE150
 2210 005d 0F00     		.2byte	0xf
 2211 005f F3       		.byte	0xf3
 2212 0060 01       		.uleb128 0x1
 2213 0061 50       		.byte	0x50
 2214 0062 F3       		.byte	0xf3
 2215 0063 01       		.uleb128 0x1
 2216 0064 51       		.byte	0x51
 2217 0065 22       		.byte	0x22
 2218 0066 31       		.byte	0x31
 2219 0067 1C       		.byte	0x1c
 2220 0068 F3       		.byte	0xf3
 2221 0069 01       		.uleb128 0x1
 2222 006a 51       		.byte	0x51
 2223 006b 1F       		.byte	0x1f
 2224 006c 1A       		.byte	0x1a
 2225 006d 9F       		.byte	0x9f
 2226 006e 00000000 		.4byte	0
 2227 0072 00000000 		.4byte	0
 2228              	.LLST1:
 2229 0076 00000000 		.4byte	.LVL0
 2230 007a 10000000 		.4byte	.LVL3
 2231 007e 0100     		.2byte	0x1
 2232 0080 51       		.byte	0x51
 2233 0081 10000000 		.4byte	.LVL3
 2234 0085 16000000 		.4byte	.LVL5
 2235 0089 0400     		.2byte	0x4
 2236 008b 73       		.byte	0x73
 2237 008c 00       		.sleb128 0
 2238 008d 1F       		.byte	0x1f
 2239 008e 9F       		.byte	0x9f
 2240 008f 16000000 		.4byte	.LVL5
 2241 0093 34000000 		.4byte	.LFE150
ARM GAS  /tmp/cc6IfO4p.s 			page 55


 2242 0097 0400     		.2byte	0x4
 2243 0099 F3       		.byte	0xf3
 2244 009a 01       		.uleb128 0x1
 2245 009b 51       		.byte	0x51
 2246 009c 9F       		.byte	0x9f
 2247 009d 00000000 		.4byte	0
 2248 00a1 00000000 		.4byte	0
 2249              	.LLST2:
 2250 00a5 00000000 		.4byte	.LVL9
 2251 00a9 08000000 		.4byte	.LVL11
 2252 00ad 0100     		.2byte	0x1
 2253 00af 50       		.byte	0x50
 2254 00b0 08000000 		.4byte	.LVL11
 2255 00b4 38000000 		.4byte	.LFE151
 2256 00b8 0400     		.2byte	0x4
 2257 00ba F3       		.byte	0xf3
 2258 00bb 01       		.uleb128 0x1
 2259 00bc 50       		.byte	0x50
 2260 00bd 9F       		.byte	0x9f
 2261 00be 00000000 		.4byte	0
 2262 00c2 00000000 		.4byte	0
 2263              	.LLST3:
 2264 00c6 00000000 		.4byte	.LVL9
 2265 00ca 14000000 		.4byte	.LVL13
 2266 00ce 0100     		.2byte	0x1
 2267 00d0 51       		.byte	0x51
 2268 00d1 14000000 		.4byte	.LVL13
 2269 00d5 18000000 		.4byte	.LVL15
 2270 00d9 0400     		.2byte	0x4
 2271 00db 73       		.byte	0x73
 2272 00dc 00       		.sleb128 0
 2273 00dd 1F       		.byte	0x1f
 2274 00de 9F       		.byte	0x9f
 2275 00df 18000000 		.4byte	.LVL15
 2276 00e3 38000000 		.4byte	.LFE151
 2277 00e7 0400     		.2byte	0x4
 2278 00e9 F3       		.byte	0xf3
 2279 00ea 01       		.uleb128 0x1
 2280 00eb 51       		.byte	0x51
 2281 00ec 9F       		.byte	0x9f
 2282 00ed 00000000 		.4byte	0
 2283 00f1 00000000 		.4byte	0
 2284              	.LLST4:
 2285 00f5 04000000 		.4byte	.LVL10
 2286 00f9 14000000 		.4byte	.LVL13
 2287 00fd 0100     		.2byte	0x1
 2288 00ff 51       		.byte	0x51
 2289 0100 14000000 		.4byte	.LVL13
 2290 0104 18000000 		.4byte	.LVL15
 2291 0108 0400     		.2byte	0x4
 2292 010a 73       		.byte	0x73
 2293 010b 00       		.sleb128 0
 2294 010c 1F       		.byte	0x1f
 2295 010d 9F       		.byte	0x9f
 2296 010e 18000000 		.4byte	.LVL15
 2297 0112 38000000 		.4byte	.LFE151
 2298 0116 0400     		.2byte	0x4
ARM GAS  /tmp/cc6IfO4p.s 			page 56


 2299 0118 F3       		.byte	0xf3
 2300 0119 01       		.uleb128 0x1
 2301 011a 51       		.byte	0x51
 2302 011b 9F       		.byte	0x9f
 2303 011c 00000000 		.4byte	0
 2304 0120 00000000 		.4byte	0
 2305              	.LLST5:
 2306 0124 04000000 		.4byte	.LVL10
 2307 0128 08000000 		.4byte	.LVL11
 2308 012c 0100     		.2byte	0x1
 2309 012e 50       		.byte	0x50
 2310 012f 08000000 		.4byte	.LVL11
 2311 0133 10000000 		.4byte	.LVL12
 2312 0137 0400     		.2byte	0x4
 2313 0139 F3       		.byte	0xf3
 2314 013a 01       		.uleb128 0x1
 2315 013b 50       		.byte	0x50
 2316 013c 9F       		.byte	0x9f
 2317 013d 10000000 		.4byte	.LVL12
 2318 0141 22000000 		.4byte	.LVL16
 2319 0145 0100     		.2byte	0x1
 2320 0147 50       		.byte	0x50
 2321 0148 22000000 		.4byte	.LVL16
 2322 014c 2A000000 		.4byte	.LVL17
 2323 0150 0F00     		.2byte	0xf
 2324 0152 F3       		.byte	0xf3
 2325 0153 01       		.uleb128 0x1
 2326 0154 51       		.byte	0x51
 2327 0155 F3       		.byte	0xf3
 2328 0156 01       		.uleb128 0x1
 2329 0157 50       		.byte	0x50
 2330 0158 22       		.byte	0x22
 2331 0159 31       		.byte	0x31
 2332 015a 1C       		.byte	0x1c
 2333 015b F3       		.byte	0xf3
 2334 015c 01       		.uleb128 0x1
 2335 015d 51       		.byte	0x51
 2336 015e 1F       		.byte	0x1f
 2337 015f 1A       		.byte	0x1a
 2338 0160 9F       		.byte	0x9f
 2339 0161 2A000000 		.4byte	.LVL17
 2340 0165 2C000000 		.4byte	.LVL18
 2341 0169 0100     		.2byte	0x1
 2342 016b 50       		.byte	0x50
 2343 016c 2C000000 		.4byte	.LVL18
 2344 0170 38000000 		.4byte	.LFE151
 2345 0174 0F00     		.2byte	0xf
 2346 0176 F3       		.byte	0xf3
 2347 0177 01       		.uleb128 0x1
 2348 0178 51       		.byte	0x51
 2349 0179 F3       		.byte	0xf3
 2350 017a 01       		.uleb128 0x1
 2351 017b 50       		.byte	0x50
 2352 017c 22       		.byte	0x22
 2353 017d 31       		.byte	0x31
 2354 017e 1C       		.byte	0x1c
 2355 017f F3       		.byte	0xf3
ARM GAS  /tmp/cc6IfO4p.s 			page 57


 2356 0180 01       		.uleb128 0x1
 2357 0181 51       		.byte	0x51
 2358 0182 1F       		.byte	0x1f
 2359 0183 1A       		.byte	0x1a
 2360 0184 9F       		.byte	0x9f
 2361 0185 00000000 		.4byte	0
 2362 0189 00000000 		.4byte	0
 2363              		.section	.debug_aranges,"",%progbits
 2364 0000 34000000 		.4byte	0x34
 2365 0004 0200     		.2byte	0x2
 2366 0006 00000000 		.4byte	.Ldebug_info0
 2367 000a 04       		.byte	0x4
 2368 000b 00       		.byte	0
 2369 000c 0000     		.2byte	0
 2370 000e 0000     		.2byte	0
 2371 0010 00000000 		.4byte	.LFB149
 2372 0014 20000000 		.4byte	.LFE149-.LFB149
 2373 0018 00000000 		.4byte	.LFB150
 2374 001c 34000000 		.4byte	.LFE150-.LFB150
 2375 0020 00000000 		.4byte	.LFB151
 2376 0024 38000000 		.4byte	.LFE151-.LFB151
 2377 0028 00000000 		.4byte	.LFB152
 2378 002c 14000000 		.4byte	.LFE152-.LFB152
 2379 0030 00000000 		.4byte	0
 2380 0034 00000000 		.4byte	0
 2381              		.section	.debug_ranges,"",%progbits
 2382              	.Ldebug_ranges0:
 2383 0000 04000000 		.4byte	.LBB30
 2384 0004 26000000 		.4byte	.LBE30
 2385 0008 2A000000 		.4byte	.LBB38
 2386 000c 38000000 		.4byte	.LBE38
 2387 0010 00000000 		.4byte	0
 2388 0014 00000000 		.4byte	0
 2389 0018 00000000 		.4byte	.LFB149
 2390 001c 20000000 		.4byte	.LFE149
 2391 0020 00000000 		.4byte	.LFB150
 2392 0024 34000000 		.4byte	.LFE150
 2393 0028 00000000 		.4byte	.LFB151
 2394 002c 38000000 		.4byte	.LFE151
 2395 0030 00000000 		.4byte	.LFB152
 2396 0034 14000000 		.4byte	.LFE152
 2397 0038 00000000 		.4byte	0
 2398 003c 00000000 		.4byte	0
 2399              		.section	.debug_line,"",%progbits
 2400              	.Ldebug_line0:
 2401 0000 44020000 		.section	.debug_str,"MS",%progbits,1
 2401      0200C101 
 2401      00000201 
 2401      FB0E0D00 
 2401      01010101 
 2402              	.LASF47:
 2403 0000 63685F74 		.ascii	"ch_threads_list\000"
 2403      68726561 
 2403      64735F6C 
 2403      69737400 
 2404              	.LASF96:
 2405 0010 5F5F6675 		.ascii	"__func__.5574\000"
ARM GAS  /tmp/cc6IfO4p.s 			page 58


 2405      6E635F5F 
 2405      2E353537 
 2405      3400
 2406              	.LASF82:
 2407 001e 77746D74 		.ascii	"wtmtxp\000"
 2407      787000
 2408              	.LASF72:
 2409 0025 72656761 		.ascii	"regarm_t\000"
 2409      726D5F74 
 2409      00
 2410              	.LASF98:
 2411 002e 6368436F 		.ascii	"chCoreAllocAlignedI\000"
 2411      7265416C 
 2411      6C6F6341 
 2411      6C69676E 
 2411      65644900 
 2412              	.LASF36:
 2413 0042 666C6167 		.ascii	"flags\000"
 2413      7300
 2414              	.LASF27:
 2415 0048 73797374 		.ascii	"systime_t\000"
 2415      696D655F 
 2415      7400
 2416              	.LASF42:
 2417 0052 7265616C 		.ascii	"realprio\000"
 2417      7072696F 
 2417      00
 2418              	.LASF40:
 2419 005b 6570656E 		.ascii	"epending\000"
 2419      64696E67 
 2419      00
 2420              	.LASF0:
 2421 0064 756E7369 		.ascii	"unsigned int\000"
 2421      676E6564 
 2421      20696E74 
 2421      00
 2422              	.LASF48:
 2423 0071 6E657874 		.ascii	"next\000"
 2423      00
 2424              	.LASF45:
 2425 0076 74687265 		.ascii	"threads_list_t\000"
 2425      6164735F 
 2425      6C697374 
 2425      5F7400
 2426              	.LASF8:
 2427 0085 5F5F696E 		.ascii	"__int32_t\000"
 2427      7433325F 
 2427      7400
 2428              	.LASF37:
 2429 008f 72656673 		.ascii	"refs\000"
 2429      00
 2430              	.LASF78:
 2431 0094 77746F62 		.ascii	"wtobjp\000"
 2431      6A7000
 2432              	.LASF91:
 2433 009b 706F7274 		.ascii	"port_lock\000"
 2433      5F6C6F63 
ARM GAS  /tmp/cc6IfO4p.s 			page 59


 2433      6B00
 2434              	.LASF69:
 2435 00a5 76746C69 		.ascii	"vtlist\000"
 2435      737400
 2436              	.LASF74:
 2437 00ac 706F7274 		.ascii	"port_context\000"
 2437      5F636F6E 
 2437      74657874 
 2437      00
 2438              	.LASF53:
 2439 00b9 63685F72 		.ascii	"ch_ready_list\000"
 2439      65616479 
 2439      5F6C6973 
 2439      7400
 2440              	.LASF59:
 2441 00c7 66756E63 		.ascii	"func\000"
 2441      00
 2442              	.LASF83:
 2443 00cc 65776D61 		.ascii	"ewmask\000"
 2443      736B00
 2444              	.LASF51:
 2445 00d3 70726576 		.ascii	"prev\000"
 2445      00
 2446              	.LASF50:
 2447 00d8 63685F74 		.ascii	"ch_threads_queue\000"
 2447      68726561 
 2447      64735F71 
 2447      75657565 
 2447      00
 2448              	.LASF55:
 2449 00e9 76746675 		.ascii	"vtfunc_t\000"
 2449      6E635F74 
 2449      00
 2450              	.LASF109:
 2451 00f2 6368436F 		.ascii	"chCoreGetStatusX\000"
 2451      72654765 
 2451      74537461 
 2451      74757358 
 2451      00
 2452              	.LASF64:
 2453 0103 63685F73 		.ascii	"ch_system_debug\000"
 2453      79737465 
 2453      6D5F6465 
 2453      62756700 
 2454              	.LASF104:
 2455 0113 474E5520 		.ascii	"GNU C 4.8.3 -mcpu=cortex-m0 -mno-thumb-interwork -m"
 2455      4320342E 
 2455      382E3320 
 2455      2D6D6370 
 2455      753D636F 
 2456 0146 7468756D 		.ascii	"thumb -ggdb -O2 -fomit-frame-pointer -falign-functi"
 2456      62202D67 
 2456      67646220 
 2456      2D4F3220 
 2456      2D666F6D 
 2457 0179 6F6E733D 		.ascii	"ons=16 -ffunction-sections -fdata-sections -fno-com"
 2457      3136202D 
ARM GAS  /tmp/cc6IfO4p.s 			page 60


 2457      6666756E 
 2457      6374696F 
 2457      6E2D7365 
 2458 01ac 6D6F6E20 		.ascii	"mon -flto\000"
 2458      2D666C74 
 2458      6F00
 2459              	.LASF18:
 2460 01b6 75696E74 		.ascii	"uint32_t\000"
 2460      33325F74 
 2460      00
 2461              	.LASF80:
 2462 01bf 73656E74 		.ascii	"sentmsg\000"
 2462      6D736700 
 2463              	.LASF25:
 2464 01c7 6576656E 		.ascii	"eventmask_t\000"
 2464      746D6173 
 2464      6B5F7400 
 2465              	.LASF84:
 2466 01d3 63685F73 		.ascii	"ch_semaphore\000"
 2466      656D6170 
 2466      686F7265 
 2466      00
 2467              	.LASF23:
 2468 01e0 74707269 		.ascii	"tprio_t\000"
 2468      6F5F7400 
 2469              	.LASF57:
 2470 01e8 63685F76 		.ascii	"ch_virtual_timer\000"
 2470      69727475 
 2470      616C5F74 
 2470      696D6572 
 2470      00
 2471              	.LASF14:
 2472 01f9 6C6F6E67 		.ascii	"long long unsigned int\000"
 2472      206C6F6E 
 2472      6720756E 
 2472      7369676E 
 2472      65642069 
 2473              	.LASF6:
 2474 0210 5F5F7569 		.ascii	"__uint16_t\000"
 2474      6E743136 
 2474      5F7400
 2475              	.LASF26:
 2476 021b 636E745F 		.ascii	"cnt_t\000"
 2476      7400
 2477              	.LASF99:
 2478 0221 63685379 		.ascii	"chSysUnlock\000"
 2478      73556E6C 
 2478      6F636B00 
 2479              	.LASF86:
 2480 022d 6F776E65 		.ascii	"owner\000"
 2480      7200
 2481              	.LASF49:
 2482 0233 74687265 		.ascii	"threads_queue_t\000"
 2482      6164735F 
 2482      71756575 
 2482      655F7400 
 2483              	.LASF41:
ARM GAS  /tmp/cc6IfO4p.s 			page 61


 2484 0243 6D74786C 		.ascii	"mtxlist\000"
 2484      69737400 
 2485              	.LASF61:
 2486 024b 63685F76 		.ascii	"ch_virtual_timers_list\000"
 2486      69727475 
 2486      616C5F74 
 2486      696D6572 
 2486      735F6C69 
 2487              	.LASF28:
 2488 0262 74687265 		.ascii	"thread_t\000"
 2488      61645F74 
 2488      00
 2489              	.LASF107:
 2490 026b 5F636F72 		.ascii	"_core_init\000"
 2490      655F696E 
 2490      697400
 2491              	.LASF100:
 2492 0276 5F5F6865 		.ascii	"__heap_base__\000"
 2492      61705F62 
 2492      6173655F 
 2492      5F00
 2493              	.LASF2:
 2494 0284 73697A65 		.ascii	"size_t\000"
 2494      5F7400
 2495              	.LASF76:
 2496 028b 7264796D 		.ascii	"rdymsg\000"
 2496      736700
 2497              	.LASF89:
 2498 0292 5F5F6469 		.ascii	"__disable_irq\000"
 2498      7361626C 
 2498      655F6972 
 2498      7100
 2499              	.LASF85:
 2500 02a0 63685F6D 		.ascii	"ch_mutex\000"
 2500      75746578 
 2500      00
 2501              	.LASF13:
 2502 02a9 5F5F7569 		.ascii	"__uint64_t\000"
 2502      6E743634 
 2502      5F7400
 2503              	.LASF93:
 2504 02b4 63685379 		.ascii	"chSysLock\000"
 2504      734C6F63 
 2504      6B00
 2505              	.LASF30:
 2506 02be 7072696F 		.ascii	"prio\000"
 2506      00
 2507              	.LASF87:
 2508 02c3 63686172 		.ascii	"char\000"
 2508      00
 2509              	.LASF44:
 2510 02c8 74687265 		.ascii	"thread_reference_t\000"
 2510      61645F72 
 2510      65666572 
 2510      656E6365 
 2510      5F7400
 2511              	.LASF34:
ARM GAS  /tmp/cc6IfO4p.s 			page 62


 2512 02db 77616261 		.ascii	"wabase\000"
 2512      736500
 2513              	.LASF21:
 2514 02e2 74737461 		.ascii	"tstate_t\000"
 2514      74655F74 
 2514      00
 2515              	.LASF15:
 2516 02eb 75696E74 		.ascii	"uint8_t\000"
 2516      385F7400 
 2517              	.LASF39:
 2518 02f3 6D736771 		.ascii	"msgqueue\000"
 2518      75657565 
 2518      00
 2519              	.LASF46:
 2520 02fc 63685F74 		.ascii	"ch_thread\000"
 2520      68726561 
 2520      6400
 2521              	.LASF63:
 2522 0306 73797374 		.ascii	"system_debug_t\000"
 2522      656D5F64 
 2522      65627567 
 2522      5F7400
 2523              	.LASF12:
 2524 0315 6C6F6E67 		.ascii	"long long int\000"
 2524      206C6F6E 
 2524      6720696E 
 2524      7400
 2525              	.LASF24:
 2526 0323 6D73675F 		.ascii	"msg_t\000"
 2526      7400
 2527              	.LASF56:
 2528 0329 76697274 		.ascii	"virtual_timer_t\000"
 2528      75616C5F 
 2528      74696D65 
 2528      725F7400 
 2529              	.LASF94:
 2530 0339 73697A65 		.ascii	"size\000"
 2530      00
 2531              	.LASF65:
 2532 033e 70616E69 		.ascii	"panic_msg\000"
 2532      635F6D73 
 2532      6700
 2533              	.LASF20:
 2534 0348 746D6F64 		.ascii	"tmode_t\000"
 2534      655F7400 
 2535              	.LASF70:
 2536 0350 6D61696E 		.ascii	"mainthread\000"
 2536      74687265 
 2536      616400
 2537              	.LASF16:
 2538 035b 75696E74 		.ascii	"uint16_t\000"
 2538      31365F74 
 2538      00
 2539              	.LASF5:
 2540 0364 73686F72 		.ascii	"short int\000"
 2540      7420696E 
 2540      7400
ARM GAS  /tmp/cc6IfO4p.s 			page 63


 2541              	.LASF9:
 2542 036e 6C6F6E67 		.ascii	"long int\000"
 2542      20696E74 
 2542      00
 2543              	.LASF75:
 2544 0377 706F7274 		.ascii	"port_intctx\000"
 2544      5F696E74 
 2544      63747800 
 2545              	.LASF90:
 2546 0383 5F5F656E 		.ascii	"__enable_irq\000"
 2546      61626C65 
 2546      5F697271 
 2546      00
 2547              	.LASF67:
 2548 0390 63685F73 		.ascii	"ch_system\000"
 2548      79737465 
 2548      6D00
 2549              	.LASF62:
 2550 039a 6C617374 		.ascii	"lasttime\000"
 2550      74696D65 
 2550      00
 2551              	.LASF19:
 2552 03a3 75696E74 		.ascii	"uint64_t\000"
 2552      36345F74 
 2552      00
 2553              	.LASF68:
 2554 03ac 726C6973 		.ascii	"rlist\000"
 2554      7400
 2555              	.LASF3:
 2556 03b2 5F5F7569 		.ascii	"__uint8_t\000"
 2556      6E74385F 
 2556      7400
 2557              	.LASF97:
 2558 03bc 5F5F6675 		.ascii	"__func__.4890\000"
 2558      6E635F5F 
 2558      2E343839 
 2558      3000
 2559              	.LASF33:
 2560 03ca 6E616D65 		.ascii	"name\000"
 2560      00
 2561              	.LASF71:
 2562 03cf 73697A65 		.ascii	"sizetype\000"
 2562      74797065 
 2562      00
 2563              	.LASF22:
 2564 03d8 74726566 		.ascii	"trefs_t\000"
 2564      735F7400 
 2565              	.LASF11:
 2566 03e0 6C6F6E67 		.ascii	"long unsigned int\000"
 2566      20756E73 
 2566      69676E65 
 2566      6420696E 
 2566      7400
 2567              	.LASF52:
 2568 03f2 72656164 		.ascii	"ready_list_t\000"
 2568      795F6C69 
 2568      73745F74 
ARM GAS  /tmp/cc6IfO4p.s 			page 64


 2568      00
 2569              	.LASF29:
 2570 03ff 71756575 		.ascii	"queue\000"
 2570      6500
 2571              	.LASF17:
 2572 0405 696E7433 		.ascii	"int32_t\000"
 2572      325F7400 
 2573              	.LASF81:
 2574 040d 77747365 		.ascii	"wtsemp\000"
 2574      6D7000
 2575              	.LASF88:
 2576 0414 6D757465 		.ascii	"mutex_t\000"
 2576      785F7400 
 2577              	.LASF31:
 2578 041c 6E657765 		.ascii	"newer\000"
 2578      7200
 2579              	.LASF4:
 2580 0422 756E7369 		.ascii	"unsigned char\000"
 2580      676E6564 
 2580      20636861 
 2580      7200
 2581              	.LASF10:
 2582 0430 5F5F7569 		.ascii	"__uint32_t\000"
 2582      6E743332 
 2582      5F7400
 2583              	.LASF38:
 2584 043b 77616974 		.ascii	"waiting\000"
 2584      696E6700 
 2585              	.LASF60:
 2586 0443 76697274 		.ascii	"virtual_timers_list_t\000"
 2586      75616C5F 
 2586      74696D65 
 2586      72735F6C 
 2586      6973745F 
 2587              	.LASF35:
 2588 0459 73746174 		.ascii	"state\000"
 2588      6500
 2589              	.LASF66:
 2590 045f 63685F73 		.ascii	"ch_system_t\000"
 2590      79737465 
 2590      6D5F7400 
 2591              	.LASF79:
 2592 046b 77747472 		.ascii	"wttrp\000"
 2592      7000
 2593              	.LASF1:
 2594 0471 7369676E 		.ascii	"signed char\000"
 2594      65642063 
 2594      68617200 
 2595              	.LASF58:
 2596 047d 64656C74 		.ascii	"delta\000"
 2596      6100
 2597              	.LASF7:
 2598 0483 73686F72 		.ascii	"short unsigned int\000"
 2598      7420756E 
 2598      7369676E 
 2598      65642069 
 2598      6E7400
ARM GAS  /tmp/cc6IfO4p.s 			page 65


 2599              	.LASF73:
 2600 0496 73746B61 		.ascii	"stkalign_t\000"
 2600      6C69676E 
 2600      5F7400
 2601              	.LASF103:
 2602 04a1 656E646D 		.ascii	"endmem\000"
 2602      656D00
 2603              	.LASF54:
 2604 04a8 63757272 		.ascii	"current\000"
 2604      656E7400 
 2605              	.LASF105:
 2606 04b0 2E2E2F2E 		.ascii	"../../../os/common/oslib/src/chmemcore.c\000"
 2606      2E2F2E2E 
 2606      2F6F732F 
 2606      636F6D6D 
 2606      6F6E2F6F 
 2607              	.LASF92:
 2608 04d9 706F7274 		.ascii	"port_unlock\000"
 2608      5F756E6C 
 2608      6F636B00 
 2609              	.LASF95:
 2610 04e5 616C6967 		.ascii	"align\000"
 2610      6E00
 2611              	.LASF32:
 2612 04eb 6F6C6465 		.ascii	"older\000"
 2612      7200
 2613              	.LASF102:
 2614 04f1 6E657874 		.ascii	"nextmem\000"
 2614      6D656D00 
 2615              	.LASF106:
 2616 04f9 2F686F6D 		.ascii	"/home/awygle/ChibiOS-RT/demos/STM32/RT-STM32F030R8-"
 2616      652F6177 
 2616      79676C65 
 2616      2F436869 
 2616      62694F53 
 2617 052c 4E55434C 		.ascii	"NUCLEO64\000"
 2617      454F3634 
 2617      00
 2618              	.LASF77:
 2619 0535 65786974 		.ascii	"exitcode\000"
 2619      636F6465 
 2619      00
 2620              	.LASF101:
 2621 053e 5F5F6865 		.ascii	"__heap_end__\000"
 2621      61705F65 
 2621      6E645F5F 
 2621      00
 2622              	.LASF43:
 2623 054b 6D706F6F 		.ascii	"mpool\000"
 2623      6C00
 2624              	.LASF108:
 2625 0551 6368436F 		.ascii	"chCoreAllocAligned\000"
 2625      7265416C 
 2625      6C6F6341 
 2625      6C69676E 
 2625      656400
 2626              		.comm	__gnu_lto_v1,1,1
ARM GAS  /tmp/cc6IfO4p.s 			page 66


 2627              		.ident	"GCC: (4.8.3-18ubuntu2+12) 4.8.3"
ARM GAS  /tmp/cc6IfO4p.s 			page 67


DEFINED SYMBOLS
                            *ABS*:0000000000000000 chmemcore.c
     /tmp/cc6IfO4p.s:268    .text._core_init:0000000000000000 $t
     /tmp/cc6IfO4p.s:274    .text._core_init:0000000000000000 _core_init
     /tmp/cc6IfO4p.s:295    .text._core_init:0000000000000010 $d
     /tmp/cc6IfO4p.s:303    .text.chCoreAllocAlignedI:0000000000000000 $t
     /tmp/cc6IfO4p.s:309    .text.chCoreAllocAlignedI:0000000000000000 chCoreAllocAlignedI
     /tmp/cc6IfO4p.s:365    .text.chCoreAllocAlignedI:000000000000002c $d
     /tmp/cc6IfO4p.s:371    .text.chCoreAllocAligned:0000000000000000 $t
     /tmp/cc6IfO4p.s:377    .text.chCoreAllocAligned:0000000000000000 chCoreAllocAligned
     /tmp/cc6IfO4p.s:467    .text.chCoreAllocAligned:0000000000000030 $d
     /tmp/cc6IfO4p.s:475    .text.chCoreGetStatusX:0000000000000000 $t
     /tmp/cc6IfO4p.s:481    .text.chCoreGetStatusX:0000000000000000 chCoreGetStatusX
     /tmp/cc6IfO4p.s:499    .text.chCoreGetStatusX:000000000000000c $d
     /tmp/cc6IfO4p.s:505    .bss.endmem:0000000000000000 $d
     /tmp/cc6IfO4p.s:509    .bss.endmem:0000000000000000 endmem
     /tmp/cc6IfO4p.s:512    .bss.nextmem:0000000000000000 $d
     /tmp/cc6IfO4p.s:516    .bss.nextmem:0000000000000000 nextmem
                            *COM*:0000000000000001 __gnu_lto_v1
                     .debug_frame:0000000000000010 $d
     /tmp/cc6IfO4p.s:370    .text.chCoreAllocAlignedI:0000000000000034 $t
     /tmp/cc6IfO4p.s:474    .text.chCoreAllocAligned:0000000000000038 $t
     /tmp/cc6IfO4p.s:504    .text.chCoreGetStatusX:0000000000000014 $t

UNDEFINED SYMBOLS
__heap_base__
__heap_end__
