ARM GAS  /tmp/ccOjc5ii.s 			page 1


   1              		.cpu cortex-m0
   2              		.fpu softvfp
   3              		.eabi_attribute 20, 1
   4              		.eabi_attribute 21, 1
   5              		.eabi_attribute 23, 3
   6              		.eabi_attribute 24, 1
   7              		.eabi_attribute 25, 1
   8              		.eabi_attribute 26, 1
   9              		.eabi_attribute 30, 2
  10              		.eabi_attribute 34, 0
  11              		.eabi_attribute 18, 4
  12              		.code	16
  13              		.file	"chmsg.c"
  14              		.text
  15              	.Ltext0:
  16              		.section	.gnu.lto_.jmpfuncs.6d57a9e53d0d0a49,"",%progbits
  17 0000 789C6362 		.ascii	"x\234cb`b\300\0064\24143\0033#S\004c&#\003\017\003\003"
  17      6062C006 
  17      34A13433 
  17      03332353 
  17      04632623 
  18 0018 23035035 		.ascii	"#\003P5\224\313\007\224cf\002)``,\003*\004\0009\234"
  18      94CB0794 
  18      63660229 
  18      60602C03 
  18      2A040039 
  19 002d 025F     		.ascii	"\002_"
  20              		.text
  21              		.section	.gnu.lto_.inline.6d57a9e53d0d0a49,"",%progbits
  22 0000 789C6362 		.ascii	"x\234cb`b\300\006\342\24043\003\203\210\014##\003#\220"
  22      6062C006 
  22      E2A03433 
  22      0383880C 
  22      23230323 
  23 0015 CD247E63 		.ascii	"\315$~c3#\003\347\0153\260\026&n\006\240(\230\234\340"
  23      332303E7 
  23      0D33B016 
  23      266E06A0 
  23      28989CE0 
  24 0029 C7C420C8 		.ascii	"\307\304 \310\017\344H\034\330\315\310\300\266@\036"
  24      0FE4481C 
  24      D8CDC8C0 
  24      B6401E
  25 0038 49013303 		.ascii	"I\0013\003\207\000P\206e\201<\\\202\231\007(9\301o\202"
  25      87005086 
  25      65813C5C 
  25      82990728 
  25      39C16F82 
  26 004c 1F0300E2 		.ascii	"\037\003\000\342\275\012T"
  26      BD0A54
  27              		.text
  28              		.section	.gnu.lto_.pureconst.6d57a9e53d0d0a49,"",%progbits
  29 0000 789C6362 		.ascii	"x\234cb`b`g\200\000f\006+&+f+\000\002\361\000\302"
  29      60626067 
  29      80006606 
  29      2B262B66 
  29      2B0002F1 
ARM GAS  /tmp/ccOjc5ii.s 			page 2


  30              		.text
  31              		.section	.gnu.lto_chMsgSend.6d57a9e53d0d0a49,"",%progbits
  32 0000 789C9D54 		.ascii	"x\234\235TKL\324P\024\275\267\355\320q\206\241\2721"
  32      4B4CD450 
  32      14BDB7ED 
  32      D07186A1 
  32      BA31
  33 0012 21221257 		.ascii	"!\"\022WF\224FM\214lP\303\312\0306\242QWfxL\206&\226"
  33      4694464D 
  33      8C6C50C3 
  33      CA1836A2 
  33      51576678 
  34 002a 19A7A3F1 		.ascii	"\031\247\243\361\263\240\003\230h\204\204\020\027\370"
  34      B3A00398 
  34      68848410 
  34      17F8
  35 0038 FFED74E1 		.ascii	"\377\355t\341B%\270!\223h\010\237\010\270S$:\321\370"
  35      4225B821 
  35      9368089F 
  35      08B85324 
  35      3AD1F8
  36 004b D9F88F09 		.ascii	"\331\370\217\011Q\342x__[\206\361\003\261i\337{}\355"
  36      51E2785F 
  36      5F5B86F1 
  36      03B169DF 
  36      7B7DED
  37 005e 39EFDCF3 		.ascii	"9\357\334\363\356\273\022HP|m\244\347g\000\340\025\365"
  37      EEBB1248 
  37      507C6DA4 
  37      E76700E0 
  37      15F5
  38 0070 1800947A 		.ascii	"\030\000\224z\306\0012AI\222\2074\260C\312h\035\330"
  38      C6013241 
  38      49928734 
  38      B043CA68 
  38      1DD8
  39 0082 A5322A62 		.ascii	"\2452*bZA\344\003@h\223d\005\333\366#\347\300\325p\315"
  39      5A41E403 
  39      40689364 
  39      05DBF623 
  39      E7C0D570 
  40 0097 B67B7327 		.ascii	"\266{s'?\274\303sv\266\363\252=\233\317#\032H\353U\""
  40      3FBCC373 
  40      76B6F3AA 
  40      3D9BCF23 
  40      1A48EB55 
  41 00ac 30847DF4 		.ascii	"0\204}\364\202UN')\363\005\334\226\262\271|~\366\336"
  41      82554E27 
  41      29F305DC 
  41      96B2B97C 
  41      7EF6DE
  42 00bf BB9713B8 		.ascii	"\273\227\023\270l\271\014Q\274F|\0014\021Tj0\010\006"
  42      6CB90C51 
  42      BC467C01 
  42      3411546A 
  42      300806
  43 00d2 CA216A94 		.ascii	"\312!j\224\010\320\234F#\016\013@\247m\367T\211\277"
ARM GAS  /tmp/ccOjc5ii.s 			page 3


  43      08D09C46 
  43      230E0B40 
  43      A76DF754 
  43      89BF
  44 00e4 4DA4C098 		.ascii	"M\244\300\2303\277\233Z.q\017MQ/?\202\366\251>\322\025"
  44      33BF9B5A 
  44      2E710F4D 
  44      512F3F82 
  44      F6A93ED2 
  45 00f9 C51B145E 		.ascii	"\305\033\024^\034\345j\270i\323\265\227h\252a\255\201"
  45      1CE56AB8 
  45      69D3B597 
  45      68AA61AD 
  45      81
  46 010a 810B703E 		.ascii	"\201\013p>c\333K\015,9\001\337\355S|\244\232(\023\027"
  46      63DB4B0D 
  46      2C3901DF 
  46      ED537CA4 
  46      9A281317 
  47 011e 97AB3A22 		.ascii	"\227\253:\"\233\020\334\336\035\300\010\264gW\012R\241"
  47      9B10DCDE 
  47      1DC008B4 
  47      67570A52 
  47      A1
  48 012f 21CE21E3 		.ascii	"!\316!\343\220\371<zy\010]u\236\314\354\235\356\367"
  48      90F93C7A 
  48      79085D75 
  48      9ECCEC9D 
  48      EEF7
  49 0141 E135FEDB 		.ascii	"\3415\376\333\255\2633\341\012\377\355\364s\342\024"
  49      ADB333E1 
  49      0AFFEDF4 
  49      73E214
  50 0150 4C0CB95B 		.ascii	"L\014\271[\022=\262X\005\341:\015\235]\253\204[x\311"
  50      123DB258 
  50      05E13A0D 
  50      9D5DAB84 
  50      5B78C9
  51 0163 EEDB6690 		.ascii	"\356\333f\220#\316E\221\215\015|\234\224\004\324\015"
  51      23CE4591 
  51      8D0D7C9C 
  51      9404D40D 
  52 0173 6B93814B 		.ascii	"k\223\201K\334a\304\300\020\305F1\204I\033\217\305\213"
  52      DC61C4C0 
  52      10C54631 
  52      84491B8F 
  52      C58B
  53 0185 41727BB1 		.ascii	"Ar{\261H\234\320\234\354{\307\217n\331\263)x\002\216"
  53      489CD09C 
  53      EC7BC78F 
  53      6ED9B329 
  53      78028E
  54 0198 1BDC2C72 		.ascii	"\033\334,r\250\324gQ\013Y\012\366q\004\\\025\"\021\262"
  54      A8D46751 
  54      0B590AF6 
  54      71045C15 
  54      2211B2
ARM GAS  /tmp/ccOjc5ii.s 			page 4


  55 01ab 2F86C6D0 		.ascii	"/\206\306\320\356\2653\237\362y\315\311\202;\270P\032"
  55      EEB5339F 
  55      F279CDC9 
  55      823BB850 
  55      1A
  56 01bc 38F691A9 		.ascii	"8\366\221\251\271A\366\017*Y\202\376EP\005\205;\323"
  56      B941F60F 
  56      2A5982FE 
  56      45500585 
  56      3BD3
  57 01ce 834F2F3E 		.ascii	"\203O/>\320\212\367\342\314\213\015Q\354\247\035\213"
  57      D08AF7E2 
  57      CC8B0D51 
  57      ECA71D8B 
  58 01de E25D6AE7 		.ascii	"\342]j\347\274wh\204y\271oc\257\313+\234\024q\274\014"
  58      BC776884 
  58      79B96F63 
  58      AFCB2B9C 
  58      1471BC0C 
  59 01f2 0B17449E 		.ascii	"\013\027D\236\024\333\031\340\024\367y\327\204%\376"
  59      14DB19E0 
  59      14F779D7 
  59      8425FE
  60 0201 D85331D5 		.ascii	"\330S1\325\367\265kg\024\007\034[5\307P\360\251J]O\345"
  60      F7B56B67 
  60      14071C5B 
  60      35C750F0 
  60      A94A5D4F 
  61 0216 75824AF5 		.ascii	"u\202J\365\341\016vdR\023HWF\355\177(R\013\024in\326"
  61      E10E7664 
  61      52134857 
  61      46ED7F28 
  61      520B1469 
  62 022c 7CEDAA9B 		.ascii	"|\355\252\233\307{h\216\267\261\210W[L\244\262\340}"
  62      C77B688E 
  62      B7B18857 
  62      5B4CA4B2 
  62      E07D
  63 023e 52CC1B59 		.ascii	"R\314\033Y\\\254\036\301\324\364lw\271\227\201!\307"
  63      5CAC1EC1 
  63      D4F46C77 
  63      B9978121 
  63      C7
  64 024f AAC89F73 		.ascii	"\252\310\237s\317=\0020\014\017\337f\">\204\377\242"
  64      CF3D0230 
  64      0C0FDF66 
  64      223E84FF 
  64      A2
  65 0260 9415A4C2 		.ascii	"\224\025\244\302\036b\036\322\344\011\350\314\015\337"
  65      1E621ED2 
  65      E409E8CC 
  65      0DDF
  66 026e 706B0080 		.ascii	"pk\000\200\177\316\313\230\260\232\260\252\301\335\021"
  66      7FCECB98 
  66      B09AB0AA 
  66      C1DD11
  67 027d 18C5A91C 		.ascii	"\030\305\251\034\0344\332\021\372\015\264\224\361\330"
ARM GAS  /tmp/ccOjc5ii.s 			page 5


  67      1C34DA11 
  67      FA0DB494 
  67      F1D8
  68 028b DDF2A094 		.ascii	"\335\362\240\224R=Z&\324\317|\331\342)\211\270\006l"
  68      523D5A26 
  68      D4CF7CD9 
  68      E22989B8 
  68      066C
  69 029d 9D3B8EB5 		.ascii	"\235;\216\265\013\036\307%\005\245E\025LT\360\210\314"
  69      0B1EC725 
  69      05A54515 
  69      4C54F088 
  69      CC
  70 02ae AD2B3391 		.ascii	"\255+3\221\337\313\312\317\360\252\202\262r%R\351W\306"
  70      DFCBCACF 
  70      F0AA82B2 
  70      722552E9 
  70      57C6
  71 02c0 B9FAF2A6 		.ascii	"\271\372\362\246\240\2768\345\214\221\177\314[\016\341"
  71      A0BE38E5 
  71      8C917FCC 
  71      5B0EE1
  72 02cf D95F4BCC 		.ascii	"\331_K\314c\310\344\306\231\037\224\230\334M\007\220"
  72      63C8E4C6 
  72      991F9498 
  72      DC4D0790 
  73 02df FCE18815 		.ascii	"\374\341\210\02555\272\270\023\226\236J\353V\212\351"
  73      3535BAB8 
  73      13969E4A 
  73      EB568AE9 
  74 02ef ACC5B4E2 		.ascii	"\254\305\264\3425\014d\226Nn(\374\316\022\246\231h\325"
  74      350C6496 
  74      4E6E28FC 
  74      CE12A699 
  74      68D5
  75 0301 6347D37A 		.ascii	"cG\323z}C\343\216F\335he\007\0177\307tfZ\206u \316X"
  75      7D43E38E 
  75      46DD6865 
  75      070F37C7 
  75      74665A86 
  76 0319 4D0BACFF 		.ascii	"M\013\254\377\003\"\231H\245-}\373\256\206\372\206\243"
  76      03229948 
  76      A52D7DFB 
  76      AE86FA86 
  76      A3
  77 032a 44CF12A9 		.ascii	"D\317\022\251\330\201#\233M\372{U\321\372>c\213u\314"
  77      D881239B 
  77      4DFA7B55 
  77      D1FA3E63 
  77      8B75CC
  78 033d A2EF4196 		.ascii	"\242\357A\226\264\214\346*\003T3f&R\307@J'\345\364\241"
  78      B48CE62A 
  78      03543366 
  78      2652C740 
  78      4A27E5F4 
  79 0352 64D5DF71 		.ascii	"d\325\337q\254\245\331\003\306\010\370\0134\272\253"
  79      ACA5D903 
ARM GAS  /tmp/ccOjc5ii.s 			page 6


  79      C608F80B 
  79      34BAAB
  80 0361 51       		.ascii	"Q"
  81              		.text
  82              		.section	.gnu.lto_chMsgWait.6d57a9e53d0d0a49,"",%progbits
  83 0000 789C9D54 		.ascii	"x\234\235TKh\023A\030\376\377\335M6m\232\"z\261\250"
  83      4B681341 
  83      18FEFFDD 
  83      4D366D9A 
  83      227AB1A8 
  84 0014 B578121F 		.ascii	"\265x\022\037]E\020zSzQ\260\027\037\250'Y\267!Y0\246"
  84      5D45107A 
  84      537A51B0 
  84      171FA827 
  84      59B72159 
  85 002a CD46A9ED 		.ascii	"\315F\251\355\301i\255\340\233*\036|\340\243z\020z\260"
  85      C169ADE0 
  85      9B2A1E7C 
  85      E0A37A10 
  85      7AB0
  86 003c E2490431 		.ascii	"\342I\0041>PK\261RA\360\211\251\240\026T\260\007i\220"
  86      3E504BB1 
  86      5241F089 
  86      A9A01654 
  86      B0076990 
  87 0050 9AF8CFCC 		.ascii	"\232\370\317\314\356\246\211\266\026\207\335\235\331"
  87      EEA689B6 
  87      1687DD9D 
  87      D9
  88 005d D9FDBFFF 		.ascii	"\331\375\277\377\373\277\371f\024P\240\274\255\242{"
  88      FBBFF966 
  88      1450A0BC 
  88      ADA27B
  89 006c 5D10A040 		.ascii	"]\020\240@=\006\000\225\236!\200\316\220\242\250?t`"
  89      3D060095 
  89      9E2180CE 
  89      90A2A83F 
  89      7460
  90 007e 95DAF947 		.ascii	"\225\332\371G\000\254JEM\316k\210|\000\010\373\025U"
  90      00AC4A45 
  90      4DCE6B88 
  90      7C0008FB 
  90      1555
  91 0090 C3FDDB91 		.ascii	"\303\375\333\221\203\340\"\350e\354T\366`~\024\317\262"
  91      83E022E8 
  91      65EC54F6 
  91      607E14CF 
  91      B2
  92 00a1 4CF76536 		.ascii	"L\367e6Q( \332H\011k\021,\204m\364\202u\242S\264R\006"
  92      512820DA 
  92      48096B11 
  92      2C846DF4 
  92      8275A253 
  93 00b8 FD4A265B 		.ascii	"\375J&[(L\334\371:r\024g\317\321\200\242\202\374\241"
  93      284CDCF9 
  93      3A721467 
  93      CFD180A2 
ARM GAS  /tmp/ccOjc5ii.s 			page 7


  93      82FCA1
  94 00cb D3430DF3 		.ascii	"\323C\015\363Q\025\037E\300\304^JT\315g\250\005\240"
  94      51151F45 
  94      C0C45E4A 
  94      54CD67A8 
  94      05A0
  95 00dd 9BB19E3A 		.ascii	"\233\261\236:9\011<\007\265\315\364\344\374\266\240"
  95      39093C07 
  95      B5CDF4E4 
  95      FCB6A0
  96 00ec C27B7508 		.ascii	"\302{u\010:\307\006.>B\367g/*\323\177\374[x\261\377"
  96      3AC7062E 
  96      3E42F767 
  96      2F2AD37F 
  96      FC5B78B1 
  97 0101 76ED742E 		.ascii	"v\355t.<\337\177;\374\213@L\274JA\026r\362\012\335\252"
  97      3CDF7F3B 
  97      FC8B404C 
  97      BC4A4116 
  97      72F20ADD 
  98 0116 E48AD04B 		.ascii	"\344\212\320KC\241b-\364\341\005vf\215\215n=O\241\353"
  98      43A1622D 
  98      F4E10576 
  98      668D8D6E 
  98      3D4FA1EB 
  99 012a 752E9F53 		.ascii	"u.\237Sdh\014\265\245\260\204\250.\205>F\255\325\306"
  99      64680CB5 
  99      A5B084A8 
  99      2E853E46 
  99      ADD5C6
 100 013d C07938D7 		.ascii	"\300y8\327\311\330,\033\203\035\360\223\035\342#=!x"
 100      C9D82C1B 
 100      831DF093 
 100      1DE2233D 
 100      2178
 101 014f 735D7481 		.ascii	"s]t\201\262\023\301\355\335\001\014@W\306\220\240R\346"
 101      B213C1ED 
 101      DD010C40 
 101      57C690A0 
 101      52E6
 102 0161 CCFBC7C7 		.ascii	"\314\373\307\307k\330\345\256\036\226'\225)\205\211"
 102      6BD8E5AE 
 102      1E962795 
 102      298589
 103 0170 5704C9E9 		.ascii	"W\004\311\351T\216q\232\234\342\333\333\257\316\265"
 103      548E719A 
 103      9CE2DBDB 
 103      AFCEB5
 104 017f 97EB31F8 		.ascii	"\227\3531\370k,`\342u\241\244W\272&\303\302\262\200"
 104      6B2C60E2 
 104      75A1A457 
 104      BA26C3C2 
 104      B280
 105 0191 EC8BC117 		.ascii	"\354\213\301\027\303\250\026\013\332jc\310/\250\202"
 105      C3A8160B 
 105      DA6A63C8 
 105      2FA882
ARM GAS  /tmp/ccOjc5ii.s 			page 8


 106 01a0 E079568F 		.ascii	"\340yV\217\273\302an\020\014\215U\177,\010\374<\320"
 106      BBC2616E 
 106      100C8D55 
 106      7F2C08FC 
 106      3CD0
 107 01b2 A79AD82F 		.ascii	"\247\232\330/$\252\352\200vZZ\027\361\015\316\014\322"
 107      24AAEA80 
 107      765A5A17 
 107      F10DCE0C 
 107      D2
 108 01c3 477B020F 		.ascii	"G{\002\017?\217|\314\257\360\024\017\023b\261\342-\224"
 108      3F8F7CCC 
 108      AFF0140F 
 108      1362B1E2 
 108      2D94
 109 01d5 F987AE3E 		.ascii	"\371\207\256>\203\356\354\304\203J\371\017\200\257|"
 109      83EEECC4 
 109      834AF90F 
 109      80AF7C
 110 01e4 A5254184 		.ascii	"\245%A\204Za\356\252*/N\023\336\341b\275,\274T=\364"
 110      5A61EEAA 
 110      2A2F4E13 
 110      DEE162BD 
 110      2CBC543D 
 111 01f9 A0B79E4B 		.ascii	"\240\267\236K\376{)E\371\237\320C\324K\312?\351\226"
 111      FE7B2945 
 111      F99FD043 
 111      D44BCA3F 
 111      E996
 112 020b 8FA2F660 		.ascii	"\217\242\366`Y\355^\343nh\230\316\015\252\002\317\361"
 112      59ED5EE3 
 112      6E6898CE 
 112      0DAA02CF 
 112      F1
 113 021c 5F7B2EC6 		.ascii	"_{.\306)\0127|\031\276pUw\355 \001\331M\306*\304\016"
 113      290A377C 
 113      19BE7055 
 113      77ED2001 
 113      D94DC62A 
 114 0232 5667E82D 		.ascii	"Vg\350-\337FG\013\246\211wK\\\024\224\351\"\256\213"
 114      DF46470B 
 114      A689774B 
 114      5C1494E9 
 114      22AE8B
 115 0245 DE9DF856 		.ascii	"\336\235\370V\263\234`}\375Bn\251\3522Y\252p\313\003"
 115      B39C607D 
 115      FD426EA9 
 115      EA3259AA 
 115      70CB03
 116 0258 B934BCD6 		.ascii	"\2714\274\326\005&\336\2437\023\357\023,\341H\332g\306"
 116      0526DEA3 
 116      3713EF13 
 116      2CE148DA 
 116      67C6
 117 026a 8F6D901F 		.ascii	"\217m\220\037bX]\262\317:\312<\024\231\254\243\346\203"
 117      62585DB2 
 117      CF3ACA3C 
ARM GAS  /tmp/ccOjc5ii.s 			page 9


 117      1499ACA3 
 117      E683
 118 027c 972622C8 		.ascii	"\227&\"\310\201\033\325\022\320\305\211\314\214$\245"
 118      811BD512 
 118      D0C589CC 
 118      8C24A5
 119 028b 17E183B7 		.ascii	"\027\341\203\267\306\2175\224\000l-rj(\343T=\025\247"
 119      C68F3594 
 119      006C2D72 
 119      6A28E354 
 119      3D15A7
 120 029e C0245C5D 		.ascii	"\300$\\]\324\377\375\303\335\271RJ\357\240\023\351n"
 120      D4FFFDC3 
 120      DDB9524A 
 120      EFA013E9 
 120      6E
 121 02af E50AA3AE 		.ascii	"\345\012\243\256\215\334\034a\033#\276yJ\212\016\026"
 121      8DDC1C61 
 121      1B23BE79 
 121      4A8A0E16 
 122 02bf 5D4EEA81 		.ascii	"]N\352\2018\022s\221?O\304|x\341\244\023\361R\244\326"
 122      38127391 
 122      3F4FC47C 
 122      78E1A413 
 122      F152A4D6 
 123 02d3 3F638B47 		.ascii	"?c\213G\343C\245\270\262\302\344\026\206\350\256\220"
 123      E343A5B8 
 123      B2C2E416 
 123      86E8AE90 
 124 02e3 B910C6A7 		.ascii	"\271\020\306\247<\035\207\2413{$\3529?\"'7\223Qi\253"
 124      3C1D87A1 
 124      337B24EA 
 124      393F2227 
 124      37935169 
 125 02f8 F18879F5 		.ascii	"\361\210y\365\365\206\274\222\216\221J\033N\3122\254"
 125      F586BC92 
 125      8E914A1B 
 125      4ECA32AC 
 126 0308 78C289D5 		.ascii	"x\302\211\325[\240\244[VN\376l%\023\211\344n#\332\226"
 126      5BA0A45B 
 126      564EFE6C 
 126      251389E4 
 126      6E23DA96 
 127 031c 361A9B36 		.ascii	"6\032\2336\255\337d\330\273\255]{\232\243\206\225pl"
 127      ADDF64D8 
 127      BBAD5D7B 
 127      9AA38695 
 127      706C
 128 032e 6747CCB2 		.ascii	"gG\314\262\352\343\260\374/\021-\311T\3321\326nljlj"
 128      EAE3B0FC 
 128      2F112DC9 
 128      54DA31D6 
 128      6E6C6A6C 
 129 0343 23742B99 		.ascii	"#t+\231\212\356\330\273:A\177/,K\357#\306\235}\016}"
 129      8AEED8BB 
 129      3A417F2F 
 129      2C4BEF23 
ARM GAS  /tmp/ccOjc5ii.s 			page 10


 129      C69D7D0E 
 130 0358 0F592D8E 		.ascii	"\017Y-\216\335\\g\203\236\210&\222\251}\323\004p\316"
 130      DD5C6783 
 130      9E882692 
 130      A97DD304 
 130      70CE
 131 036a 7150D3AD 		.ascii	"qP\323\255-uS\203Z\361f\0175J\250\277\001\022\205\320"
 131      2D755383 
 131      5AF1660F 
 131      354AA8BF 
 131      011285D0 
 132 037e BA       		.ascii	"\272"
 133              		.text
 134              		.section	.gnu.lto_chMsgRelease.6d57a9e53d0d0a49,"",%progbits
 135 0000 789C8D51 		.ascii	"x\234\215Q\315K[A\020\237\331\227hj\220\366*\026\015"
 135      CD4B5B41 
 135      109FD997 
 135      686A90F6 
 135      2A160D
 136 0013 01A13D34 		.ascii	"\001\241=4K/=W<\365\220\213\037PO\"\353#Yp}\341mZ\224"
 136      4B2F3D57 
 136      3CF5908B 
 136      1F504F22 
 136      EB235970 
 137 002c 1EDC8885 		.ascii	"\036\334\210\205V\020\203\247^\374\242HK \012\376\001"
 137      561083A7 
 137      5EFCA248 
 137      4B200AFE 
 137      01
 138 003d 36272108 		.ascii	"6'!\010J\241\365$\305\177@\261\267\240\322\327y/\311"
 138      4AA1F524 
 138      C57F40B1 
 138      B7A0D2D7 
 138      792FC9
 139 0050 6BEA07B8 		.ascii	"k\352\007\270\354\316\356\316\314\357\2673\277e\300"
 139      ECCEEECE 
 139      CCEFB733 
 139      BF65C0
 140 005f E0FAE8A2 		.ascii	"\340\372\350\242\365\224\334\277hG\013\220\025\017\000"
 140      F594DCBF 
 140      68470B90 
 140      150F00
 141 006e 0A3186E8 		.ascii	"\0121\206\350\037\000a\226\341\354(\006\271\333\254"
 141      1F006196 
 141      E1EC2806 
 141      B9DBAC
 142 007d 72E2795B 		.ascii	"r\342y[\273\013[\307Xb\035\026*\204\010\031?\032\205"
 142      BB0B5BC7 
 142      58621D16 
 142      2A840819 
 142      3F1A85
 143 0090 79638A09 		.ascii	"yc\212\011\205\304%\202\364a\262>\307\010\271h\267\016"
 143      85C42582 
 143      F461B23E 
 143      C708B968 
 143      B70E
 144 00a2 A0F07B77 		.ascii	"\240\360{wu\017\033\231MH\345\363\342i\374Ix\273\\\252"
ARM GAS  /tmp/ccOjc5ii.s 			page 11


 144      750F1B99 
 144      4D48E5F3 
 144      E269FC49 
 144      78BB5CAA 
 145 00b6 C51F87B7 		.ascii	"\305\037\207\267\352\017\242\033\307\015\002\011zF\020"
 145      EA0FA21B 
 145      C70D0209 
 145      7A4610
 146 00c5 95A02A83 		.ascii	"\225\240*\203\201\260J\307\240\243\036\370\202+\346"
 146      81B04AC7 
 146      A0A31EF8 
 146      822BE6
 147 00d4 D34B898D 		.ascii	"\323K\211\215\256\2520\027\003H\302\2061\313\225o\013"
 147      AEAA3017 
 147      0348C286 
 147      31CB956F 
 147      0B
 148 00e5 FB68964D 		.ascii	"\373h\226M\341\334\363\036J$\212\355\200\012^\243D\226"
 148      E1DCF31E 
 148      4A248AED 
 148      800A5EA3 
 148      4496
 149 00f7 08362BF2 		.ascii	"\0106+\362\277*\031\377\221\026\222\242\3311\346\301"
 149      BF2A19FF 
 149      911692A2 
 149      D931E6C1 
 150 0107 BAB9F23C 		.ascii	"\272\271\362<Kb\204\301\316=(\310q\010\357\317\3176"
 150      4B6284C1 
 150      CE3D28C8 
 150      7108EFCF 
 150      CF36
 151 0119 2F6B379A 		.ascii	"/k7\232\336\3779\027\035\307\022&\251\273\257d\377u"
 151      DEFF3917 
 151      1DC71226 
 151      A9BBAF64 
 151      FF75
 152 012b D9A07907 		.ascii	"\331\240y\007\027\346\203y$1*\2202\313\024\253\327E"
 152      17E68379 
 152      24312A90 
 152      32CB14AB 
 152      D745
 153 013d BC12DB00 		.ascii	"\274\022\333\000\0029k\2357\325\374\023\357mQs\255\263"
 153      02396B9D 
 153      37D5FC13 
 153      EF6D5173 
 153      ADB3
 154 014f 27FC9CD0 		.ascii	"'\374\234\320\375\361\250E\3266\237X`;\255XS\331\243"
 154      FDF1A845 
 154      D6369F58 
 154      603BAD58 
 154      53D9A3
 155 0162 3B95FD0E 		.ascii	";\225\375\016\205\223r_\035\333\034\303$\006\375\260"
 155      8593725F 
 155      1DDB1CC3 
 155      2406FDB0 
 156 0172 0FE84EA5 		.ascii	"\017\350N\245x}:\232\273y\256]\301EV\351LJ\300\363\326"
 156      787D3A9A 
ARM GAS  /tmp/ccOjc5ii.s 			page 12


 156      BB79AE5D 
 156      C14556E9 
 156      4C4AC0F3 
 157 0187 98709472 		.ascii	"\230p\224r\246\270=\235\347\003\351\241WC\\N\211\311"
 157      A6B83D9D 
 157      E703E9A1 
 157      57435C4E 
 157      89C9
 158 0199 37133617 		.ascii	"7\0236\027JK=\226\021\"\225\205g\267 r\216\233\327\274"
 158      4A4B3D96 
 158      11229585 
 158      67B72072 
 158      8E9BD7BC 
 159 01ad 7F303D90 		.ascii	"\1770=\220\236&j\341\270\366\330\333\027\212\262{\257"
 159      9E266AE1 
 159      B8F6D8DB 
 159      178AB27B 
 159      AF
 160 01be BD1D3266 		.ascii	"\275\0352f\365\214\246xL\344\264\234HHhW\266r\334\031"
 160      F58CA678 
 160      4CE4B49C 
 160      48486857 
 160      B672DC19 
 161 01d2 60F99C45 		.ascii	"`\371\234E\245\335\215\363\353n\340l\302\375\005\010"
 161      A5DD8DF3 
 161      EB6EE06C 
 161      C2FD0508 
 162 01e2 5CCC97   		.ascii	"\\\314\227"
 163              		.text
 164              		.section	.gnu.lto_.symbol_nodes.6d57a9e53d0d0a49,"",%progbits
 165 0000 789C45C8 		.ascii	"x\234E\310\273\015\2000\020\203a\373.\241d\005F=:(i"
 165      BB0D8030 
 165      108361FB 
 165      2EA16405 
 165      463D3A28 
 166 0015 7816D982 		.ascii	"x\026\331\202\011(\3221\003RZf@ \201\210\253\377\263"
 166      0928D231 
 166      03525A66 
 166      40208188 
 166      ABFFB3
 167 0028 4060F826 		.ascii	"@`\370&=\237\356v\300,\264\364\023\237\202\0144\346"
 167      3D9FEE76 
 167      C02CB4F4 
 167      139F820C 
 167      34E6
 168 003a 57469A64 		.ascii	"WF\232dr\241\351\313\272&g\232\313\0124\377K\341\261"
 168      72A1E9CB 
 168      BA26679A 
 168      CB0A34FF 
 168      4BE1B1
 169 004d C5A80A87 		.ascii	"\305\250\012\207\324\234\225\212\303\266\226\252\005"
 169      D49C958A 
 169      C3B696AA 
 169      05
 170 005a D2711137 		.ascii	"\322q\0217\030k$\244"
 170      186B24A4 
 171              		.text
ARM GAS  /tmp/ccOjc5ii.s 			page 13


 172              		.section	.gnu.lto_.refs.6d57a9e53d0d0a49,"",%progbits
 173 0000 789C6362 		.ascii	"x\234cb`b\340f\200\000F bb\002R\214\014\000\001s\000"
 173      6062E066 
 173      80004620 
 173      62620252 
 173      8C0C0001 
 174 0016 18       		.ascii	"\030"
 175              		.text
 176              		.section	.gnu.lto_.decls.6d57a9e53d0d0a49,"",%progbits
 177 0000 789CBD5A 		.ascii	"x\234\275Z{t\024U\232\257[\325Iw\223\346\241\256\236"
 177      7B741455 
 177      9AAF5BD5 
 177      497793E6 
 177      A1AE9E
 178 0013 70E6619C 		.ascii	"p\346a\234\243\273\256\263\022\234U\006\377\330\321"
 178      A3BBAEB3 
 178      129C5506 
 178      FFD8D1
 179 0022 19F61CF5 		.ascii	"\031\366\034\365\234q\217G\216\307\375\313\266\350\024"
 179      9C718F47 
 179      8EC7FDCB 
 179      B6E814
 180 0031 498FFDB2 		.ascii	"I\217\375\262\273B\310\376c\245\003\204A\204@\344\021"
 180      BB42C8FE 
 180      63A50384 
 180      418440E4 
 180      11
 181 0042 41080F5F 		.ascii	"A\010\017_\370@\324\020\021&6\256`\210$\001\024\242"
 181      F840D410 
 181      112636AE 
 181      60882401 
 181      14A2
 182 0054 B0405C41 		.ascii	"\260@\\At\030\230\010D\311\010d\277\373UUw\325\355\252"
 182      74189808 
 182      44C90864 
 182      BFFB5555 
 182      77D5EDAA 
 183 0068 EEAAB04E 		.ascii	"\356\252\260N\235\334\233\333U\367\373\335\357}\037"
 183      9DDC9BDB 
 183      55F7FBDD 
 183      EF7D1F
 184 0077 553CC773 		.ascii	"U<\307s\345<\307\215\3005t7\307\375\262\224\343<\034"
 184      E53CC78D 
 184      C0357437 
 184      C7FDB294 
 184      E33C1C
 185 008a C7FD060A 		.ascii	"\307\375\006\012\321\012\275\3406\267\016J\010nTC\211"
 185      D10ABDE0 
 185      36B70E4A 
 185      086E5443 
 185      89
 186 009b 434941A9 		.ascii	"CIA\251#j\237z\275\243v\321\276\327By\003\3128(\001"
 186      236A9F7A 
 186      BDA376D1 
 186      BED74279 
 186      03CA3828 
 187 00b0 285D5ADF 		.ascii	"(]Z\337\006\250\376\013\312\036(\335P6\300\275\211\360"
ARM GAS  /tmp/ccOjc5ii.s 			page 14


 187      06A8FE0B 
 187      CA1E28DD 
 187      5036C0BD 
 187      89F0
 188 00c2 7F33FCDF 		.ascii	"\1773\374\337\012\305\003\355\275Pd(=P\022P\306\300"
 188      0AC503ED 
 188      BD506428 
 188      3D501250 
 188      C6C0
 189 00d4 7D05FE2F 		.ascii	"}\005\376/\204R\016\345\237\240<\014\245\035\356\357"
 189      84520EE5 
 189      9FA03C0C 
 189      A51DEEEF 
 190 00e4 80D20945 		.ascii	"\200\322\011E\200\337?\321\372\322\361{\241}\000\312"
 190      80DF3FD1 
 190      FAD2F17B 
 190      A17D00CA 
 191 00f4 41288735 		.ascii	"A(\2075~)\337_B\371\012\3127D\225\365q\370\377\030\224"
 191      7E29DF5F 
 191      42F90ACA 
 191      374495F5 
 191      71F8FF18 
 192 0109 33245F0E 		.ascii	"3$_\016*\3578\0139(\337F9(\337\224\377\036MF\3123\225"
 192      2AEF380B 
 192      3928DF46 
 192      3928DF94 
 192      FF1E4D46 
 193 0120 C36BE09B 		.ascii	"\303k\340\233\362Kym7\360;F\033\303\310\353y\215\317"
 193      F24B796D 
 193      37F03B46 
 193      1BC3C8EB 
 193      798DCF
 194 0133 4B0CAF56 		.ascii	"K\014\257Vz\256\326\306\240\374\030y\244:\345\301\256"
 194      7AAED6C6 
 194      A0FC1879 
 194      A43AE5C1 
 194      AE
 195 0144 355A7FBF 		.ascii	"5Z\177\277\326\3278\216\300\253\3663\216!@\277\010\374"
 195      D6D7388E 
 195      C0ABF633 
 195      8E2140BF 
 195      08FC
 196 0156 8F42F1F1 		.ascii	"\217B\361\361\346\261n\344\326(m\003\003'O\277;QiKg"
 196      E6B16EE4 
 196      D6286D03 
 196      03274FBF 
 196      3B51694B 
 197 016b 4646EEE1 		.ascii	"FF\356\341n\340\226)p\265\315S\024\"\373\271\371\332"
 197      6EE09629 
 197      70B5CD53 
 197      1422FBB9 
 197      F9DA
 198 017d 8FFBBB80 		.ascii	"\217\373\273\200\217\377$\"\031\347\347*\260\021\360"
 198      8FFF2422 
 198      19E7E72A 
 198      B011F0
 199 018c A3AA6FE1 		.ascii	"\243\252o\3416*J\363\300\345\215\013\377MQ|\"\331@\374"
ARM GAS  /tmp/ccOjc5ii.s 			page 15


 199      362A4AF3 
 199      C0E58D0B 
 199      FF4D517C 
 199      22D940FC 
 200 01a0 E0808F12 		.ascii	"\340\200\217\022\3566\356\025 mV\224\365\225\214\204"
 200      EE36EE15 
 200      206D5694 
 200      F5958C84 
 201 01b0 1AFB0EA1 		.ascii	"\032\373\016\241\333Z?\272^\361\210\344%\004N\023\302"
 201      DB5A3FBA 
 201      5EF188E4 
 201      25044E13 
 201      C2
 202 01c1 89E44572 		.ascii	"\211\344Er\233[\230\201\366\356\367\247\"\207\233\020"
 202      9B5B9881 
 202      F6EEF7A7 
 202      22879B10 
 203 01d1 E85D0648 		.ascii	"\350]\006H$\245~#\177\370[\357@\321\340'\035\351\"\215"
 203      24A57E23 
 203      7FF85BEF 
 203      40D1E027 
 203      1DE9228D 
 204 01e5 2BF29476 		.ascii	"+\362\224v\207\376\360r\177w:+1)\304zr\003\266\004\016"
 204      87FEF072 
 204      7F773A2B 
 204      3129C47A 
 204      7203B604 
 205 01fa 0D5DC62D 		.ascii	"\015]\306-P\224\264\246\234k\271%\024\257\302\240\246"
 205      5094B4A6 
 205      9C6BB925 
 205      14AFC2A0 
 205      A6
 206 020b 368F0EF0 		.ascii	"6\217\016\360\3579u/[\3643\252\356\315\344Z\0009\305"
 206      EF39752F 
 206      5BF433AA 
 206      EECDE45A 
 206      0039C5
 207 021e 68A92808 		.ascii	"h\251(\010\317\015\"\311[@\256\022\"\25420\264\370h"
 207      CF0D22C9 
 207      5B40AE12 
 207      22AC3230 
 207      B4F868
 208 0231 9A348053 		.ascii	"\2324\200S\251\3178\023\254\351\272\211k\003\202\314"
 208      A9CF3813 
 208      ACE9BA89 
 208      6B0382CC 
 209 0241 F7DDAB89 		.ascii	"\367\335\253\211\322\366\001\261\030\362^}D_\316\274"
 209      D2F601B1 
 209      18F25E7D 
 209      445FCEBC 
 210 0251 CB167DBA 		.ascii	"\313\026}\272\204\314A\374\255\310\372*\336\222\365"
 210      84CC41FC 
 210      ADC8FA2A 
 210      DE92F5
 211 0260 B67BED80 		.ascii	"\266{\355\200x\356U$\331\226\307z_\237\316\3726\007"
 211      78EE5524 
 211      D996C77A 
ARM GAS  /tmp/ccOjc5ii.s 			page 16


 211      5F9FCEFA 
 211      3607
 212 0272 ACA733FB 		.ascii	"\254\2473\373\027<?\221\262.\2227H\031\340\356\310\342"
 212      173C3F91 
 212      B22E9237 
 212      4819E0EE 
 212      C8E2
 213 0284 5A194E6B 		.ascii	"Z\031Nk\252\227\326\301\214w\240;\320,\352`;]\203UX"
 213      AA97D6C1 
 213      8C77A03B 
 213      D02CEA60 
 213      3B5D8355 
 214 0299 B1AA7B5D 		.ascii	"\261\252{]NZ\221l'\267@\275\203\334\004u'\324\331\213"
 214      4E5A916C 
 214      27B740BD 
 214      83DC0475 
 214      27D4D98B 
 215 02ad E776F3BA 		.ascii	"\347v\363\272U\255TW\\\204\341\356\325\250\022\214\327"
 215      55AD5457 
 215      5C84E1EE 
 215      D5A8128C 
 215      D7
 216 02be B4A38CD2 		.ascii	"\264\243\214\322\246e\224\0170^\367\362\026\201\357"
 216      A665940F 
 216      305EF7F2 
 216      1681EF
 217 02cd 08A8B569 		.ascii	"\010\250\265i\327N\222F\363\355B\250OG\015\325\336\375"
 217      D74E9246 
 217      F3ED42A8 
 217      4F470DD5 
 217      DEFD
 218 02df E112D288 		.ascii	"\341\022\322\210P]\010u\224g\263\210\227\311\"^sT\343"
 218      505D0875 
 218      9467B388 
 218      97C9225E 
 218      7354E3
 219 02f2 63AD4183 		.ascii	"c\255A\203y<\367#w\347\271\257Y\323Y9\214\317\316t\312"
 219      793CF723 
 219      77E7B9AF 
 219      59D35939 
 219      8CCFCE74 
 220 0307 C085BE63 		.ascii	"\300\205\276c|\253\222\231#\350\021Tj\247%\236;\203"
 220      7CAB9299 
 220      23E81154 
 220      6AA7259E 
 220      3B83
 221 0319 63F5E445 		.ascii	"c\365\344EP\377^=\202z\034EP{\367\012t\227\242\031\214"
 221      50FF5E3D 
 221      827A1C45 
 221      507BF70A 
 221      7497A219 
 222 032e D7C7BF19 		.ascii	"\327\307\277\031\307\337(\320\361\017\260\343\357?\262"
 222      C7DF28D0 
 222      F10FB0E3 
 222      EF3FB2
 223 033d AB511BFF 		.ascii	"\253Q\033\377\200\243\361[{\237\315\037_$\277\271\276"
 223      80A3F15B 
ARM GAS  /tmp/ccOjc5ii.s 			page 17


 223      7B9FCD1F 
 223      5F24BFB9 
 223      BE
 224 034e 90770CF5 		.ascii	"\220w\014\365\177\365\2556\312!\014\325c\002\353\035"
 224      7FF5AD36 
 224      CA210CD5 
 224      6302EB1D 
 225 035e F79499ED 		.ascii	"\367\224\231\355\007\277\015\035 \337f\371\037U\246"
 225      07BF0D1D 
 225      20DF66F9 
 225      1F55A6
 226 036d 004177B7 		.ascii	"\000Aw\267\220\245\215J\327d\235\207?\273F\2540ibu/"
 226      90A58D4A 
 226      D7649D87 
 226      3FBB46AC 
 226      30696275 
 227 0382 E61E15EC 		.ascii	"\346\036\025\354\214\0230[WJg\326\030\301\276u\015f"
 227      8C13305B 
 227      574A67D6 
 227      18C1BE75 
 227      0D66
 228 0394 E6EC4D23 		.ascii	"\346\354M#\330\220\023\260\011\366\234\275e\004\273"
 228      D89013B0 
 228      09F69CBD 
 228      6504BB
 229 03a3 E81ACCCC 		.ascii	"\350\032\314\314\331;F\260\037\234\200\225\333s\266"
 229      D93B46B0 
 229      1F9C8095 
 229      DB73B6
 230 03b2 D50876C5 		.ascii	"\325\010v\3055\230\231\263w\215`\015\036\007`\025\026"
 230      359899B3 
 230      778D600D 
 230      1E076015 
 230      16
 231 03c3 9C652FBB 		.ascii	"\234e/\273u\310~\222\365s\236\233\343\321s\202K\237"
 231      75C87E92 
 231      F5739E9B 
 231      E3D17382 
 231      4B9F
 232 03d5 E672184D 		.ascii	"\346r\030M\036\2679\314$7L\341\307\327\223\0265.\324"
 232      1EB739CC 
 232      24374CE1 
 232      C7D79316 
 232      352ED4
 233 03e8 69F46927 		.ascii	"i\364i'\210\005\034\246\371c\303\234\274\3045\230\331"
 233      88051CA6 
 233      F963C39C 
 233      BCC43598 
 233      D9
 234 03f9 2C6B2898 		.ascii	",k(\230)\327hs\322\300\013\231\362\225\271t\347\323"
 234      29D76873 
 234      D2C00B99 
 234      F295B974 
 234      E7D3
 235 040b B1E88A5A 		.ascii	"\261\350\212Z\315m\260\300\346\263\235\225\362r\353"
 235      CD6DB0C0 
 235      E6B39D95 
ARM GAS  /tmp/ccOjc5ii.s 			page 18


 235      F272EB
 236 041a BE22398F 		.ascii	"\276\"9\217s\373\005\342\317r\241\266\365\326\010\241"
 236      73FB05E2 
 236      CF72A1B6 
 236      F5D608A1 
 237 042a 7A5EE1B1 		.ascii	"z^\341\261Z\253#@aR;O\370\326\350\011\253\235\250\251"
 237      5AAB2340 
 237      61523B4F 
 237      F8D6E809 
 237      AB9DA8A9 
 238 043e 4028ECB3 		.ascii	"@(\354\263SSf\2362\2374l\371i\301\025\342P\377\331u"
 238      5353669E 
 238      329F346C 
 238      F969C115 
 238      E250FFD9 
 239 0453 DA3A6018 		.ascii	"\332:`\030'\357u\036\313u\200#\260\326\246>}Qq\011\301"
 239      27EF751E 
 239      CB758023 
 239      B0D6A63E 
 239      7D517109 
 240 0468 5EBB0AB0 		.ascii	"^\273\012\260\366\356\243\372\262b\004\301\332=\354"
 240      F6EEA3FA 
 240      B26204C1 
 240      DA3DEC
 241 0477 C4E16796 		.ascii	"\304\341g\226\025~\363\304\357\367\347\032#\372e6\345"
 241      157EF3C4 
 241      EFF7E71A 
 241      23FA6536 
 241      E5
 242 0488 8F4A6367 		.ascii	"\217Jcg\376\213F\363g\\\233\337\024%\260\020\371\216"
 242      FE8B46F3 
 242      675C9BDF 
 242      1425B010 
 242      F98E
 243 049a 5FA1641A 		.ascii	"_\241d\032\004\203\277\027\014\016XD^8-\340\"r\016O"
 243      0483BF17 
 243      0C0E5844 
 243      5E382DE0 
 243      22720E4F 
 244 04ae F5FA91B5 		.ascii	"\365\372\221\265\221\034\000\2656\275\376K\004jB\240"
 244      911C00B5 
 244      36BDFE4B 
 244      046A42A0 
 245 04be 7DA3066A 		.ascii	"}\243\006j\357^\243nC\027 \320gy\226&\214\245\211\331"
 245      EF5EA36E 
 245      431720D0 
 245      67799626 
 245      8CA589D9 
 246 04d2 02D9C8D3 		.ascii	"\002\331\310\323\002\357\307\352\313s\377\313\232\313"
 246      02EFC7EA 
 246      CB73FFCB 
 246      9ACB
 247 04e0 244E81E9 		.ascii	"$N\201\351!\233s/-%\347\323\312\312\311.\3545\250\331"
 247      219B732F 
 247      2D25E7D3 
 247      CACAC92E 
 247      EC35A8D9 
ARM GAS  /tmp/ccOjc5ii.s 			page 19


 248 04f4 6B316AE7 		.ascii	"k1j\347\353<\355P\365\273\023c\320\265\030>\263\030"
 248      EB3CED50 
 248      F5BB1363 
 248      D0B5183E 
 248      B318
 249 0506 8B47DC8B 		.ascii	"\213G\334\213qQ\023\343Y\024\343\273\377\0071\256\270"
 249      715113E3 
 249      5914E3BB 
 249      FF0731AE 
 249      B8
 250 0517 16638241 		.ascii	"\026c\202A\014\334\304>\253\316\200\327qK\013/\343)"
 250      0CDCC43E 
 250      ABCE80D7 
 250      714B0B2F 
 250      E329
 251 0529 3FADFC75 		.ascii	"?\255\374u\246%t\346`/\251Po\027\337\272\237\357]\255"
 251      A62574E6 
 251      602FA950 
 251      6F17DFBA 
 251      9FEF5DAD 
 252 053d ED7FD5D3 		.ascii	"\355\177\325\323\240\306\022\242A\216fU\253d\232\373"
 252      A0C612A2 
 252      418E6655 
 252      AB649AFB 
 253 054d 70AE55C1 		.ascii	"p\256U\301\026\\\025X:\263v\261\2769\277\207N\335-W"
 253      165C1558 
 253      3AB376B1 
 253      BE39BF87 
 253      4EDD2D57 
 254 0561 09B7A38F 		.ascii	"\011\267\243\217\235\223\230=\303f\233|\227=\267\330"
 254      9D93983D 
 254      C3669B7C 
 254      973DB7D8 
 255 0571 AD4F241B 		.ascii	"\255O$\033x\312\320s%\254\263\274A\230]\003\275a\350"
 255      78CAD073 
 255      25ACB3BC 
 255      41985D03 
 255      BD61E8
 256 0584 6267C3F5 		.ascii	"bg\303\365\274!\371\276~u6\000\377\031j\321WP\252!\336"
 256      BC21F9BE 
 256      7E753600 
 256      FF196AD1 
 256      5750AA21 
 257 0599 BE4ACD0D 		.ascii	"\276J\315\015k\206(\266\307{\\\307\012\240 \333q\330"
 257      6B8628B6 
 257      C77B5CC7 
 257      0AA020DB 
 257      71D8
 258 05ab 5779668B 		.ascii	"Wyf\213\267\345\354\300<M\217\364Yq'=r\322\257,\015"
 258      B7E5ECC0 
 258      3C4D8FF4 
 258      5971273D 
 258      72D2AF2C 
 259 05c0 A8A74522 		.ascii	"\250\247E\"\311\020^C\265\232\247\213\273\3501\251k"
 259      C9105E43 
 259      B59AA78B 
 259      BBE831A9 
ARM GAS  /tmp/ccOjc5ii.s 			page 20


 259      6B
 260 05d1 B28BD3D2 		.ascii	"\262\213\323\322w\264\263\2157\3254\227g\362\227\330"
 260      77B4B38D 
 260      37D53497 
 260      67F297D8 
 261 05e1 59C0C5E1 		.ascii	"Y\300\305\341 \317\235\315\252\310\351j\231\275\354"
 261      20CF9DCD 
 261      AAC8E96A 
 261      99BDEC
 262 05f0 5C6A93D1 		.ascii	"\\j\223\321\245\316]\235\003\200K\355\336\250\272T1"
 262      A5CE5D9D 
 262      03804BED 
 262      DEA8BA54 
 262      31
 263 0601 17508871 		.ascii	"\027P\210q\021\315s\3038r\007\353\003\313\316u5i\033"
 263      11CD73C3 
 263      387207EB 
 263      03CBCE75 
 263      35691B
 264 0614 F00E473E 		.ascii	"\360\016G>0d\341\003\035\243\364\001p\350o\366\020\204"
 264      3064E103 
 264      1DA3F401 
 264      70E86FF6 
 264      1084
 265 0626 533705EB 		.ascii	"S7\005\353K\211\031\316\345f\371\222\344V1\252we>?I"
 265      4B8919CE 
 265      E566F992 
 265      E45631AA 
 265      77653E3F 
 266 063b 53F5FB3C 		.ascii	"S\365\373<=\005}\271\224u-U3\006\327\312\251Q$\333x"
 266      3D057DB9 
 266      94752D55 
 266      3306D7CA 
 266      A95124DB 
 267 0650 BA4B788F 		.ascii	"\272Kx\217\247'\200\333\261\376\023o8\007\264s\213\316"
 267      A72780DB 
 267      B1FE136F 
 267      3807B473 
 267      8BCE
 268 0662 9C5B0005 		.ascii	"\234[\000\005\253F\247{\265\242\303l5z\337\233\245W"
 268      AB46A77B 
 268      B5A2C36C 
 268      357ADF9B 
 268      A557
 269 0674 E77D17FA 		.ascii	"\347}\027\372z=x\254\345\342H\3625-l?\304\260\355\310"
 269      7A3D78AC 
 269      E5E248F2 
 269      352D6C3F 
 269      C4B0EDC8 
 270 0688 D3ED2E36 		.ascii	"\323\355.6l\235\234\317\375\367h\005\311^<\327]\352"
 270      6C9D9CCF 
 270      FDF76805 
 270      C95E3CD7 
 270      5DEA
 271 069a 60695D61 		.ascii	"`i]a\241s=\273/>\244\255\016\212\036\362\351\363V\357"
 271      A1733DBB 
 271      2F3EA4AD 
ARM GAS  /tmp/ccOjc5ii.s 			page 21


 271      0E8A1EF2 
 271      E9F356EF 
 272 06ae DE06EDBC 		.ascii	"\336\006\355\274\275\033=m/\243\015\007\247\205G\220"
 272      BD1B3D6D 
 272      2FA30D07 
 272      A7854790 
 273 06be A4870DE3 		.ascii	"\244\207\015\343\241\305\271\323B\007a\234\316\274m"
 273      A1C5B9D3 
 273      4207619C 
 273      CEBC6D
 274 06cd 3A6FD73D 		.ascii	":o\327=\260\247\260\007\026\324\250\311\210=\206\000"
 274      B0A7B007 
 274      16D4A8C9 
 274      883D8600 
 275 06dd E9C300D9 		.ascii	"\351\303\000\331g\014\012\236;\355D\373\267\332\271"
 275      670C0A9E 
 275      3BED44FB 
 275      B7DAB9
 276 06ec 22A4A103 		.ascii	"\"\244\241\003\352\253\016\375\325\305y\026\317*\021"
 276      EAAB0EFD 
 276      D5C57916 
 276      CF2A11
 277 06fb 99F08CD6 		.ascii	"\231\360\214\326Lg\232?\301\365\222\352\245\227\234"
 277      4C679A3F 
 277      C1F592EA 
 277      A5979C
 278 070a 3037D91E 		.ascii	"07\331\036lm\213\256\334\255\270>\231\353u\2007\325"
 278      6C6D8BAE 
 278      DCADB83E 
 278      99EB7580 
 278      37D5
 279 071c 4ED874A6 		.ascii	"N\330t\246\343\023}q\250\036\354?\343\032\317\314\337"
 279      E3137D71 
 279      A81EEC3F 
 279      E31ACFCC 
 279      DF
 280 072d C116D37A 		.ascii	"\301\026\323zn\271\023\270{\035\333>\367\036K$\357\340"
 280      6EB913B8 
 280      7B1DDB3E 
 280      F71E4B24 
 280      EFE0
 281 073f 114A3BBE 		.ascii	"\021J;\276\036\331\211\365^\254\377\202\365Y\254\007"
 281      1ED989F5 
 281      5EACFF82 
 281      F559AC07 
 282 074f B1FE1EEB 		.ascii	"\261\376\036\353FL\240\213\260n\301z%\326{\260>\200"
 282      464CA08B 
 282      B06EC17A 
 282      25D67BB0 
 282      3E80
 283 0761 F5A7581F 		.ascii	"\365\247X\037\302\3723\254\017;I\270\314\012P{\337\247"
 283      C2FA33AC 
 283      0F3B49B8 
 283      CC0A507B 
 283      DFA7
 284 0773 AECCB0F1 		.ascii	"\256\314\260\361\210`\360\317\325^sh\336\314mP\224\245"
 284      8860F0CF 
ARM GAS  /tmp/ccOjc5ii.s 			page 22


 284      D55E7368 
 284      DECC6D50 
 284      94A5
 285 0785 03274F7F 		.ascii	"\003'O\177&@\006\364\350\023\326\213\330m\035\271\321"
 285      264006F4 
 285      E813D68B 
 285      D86D1DB9 
 285      D1
 286 0796 72586D1D 		.ascii	"rXm\035\212\264\315\312*\351~}\035\370J\0212\215\247"
 286      8AB4CDCA 
 286      2AE97E7D 
 286      1DF84A11 
 286      328DA7
 287 07a9 7FE45EA0 		.ascii	"\177\344^\240\371`\363\274\271\023<\372M{2M\316\243"
 287      F960F3BC 
 287      B9133CFA 
 287      4D7B324D 
 287      CEA3
 288 07bb BCE98DB5 		.ascii	"\274\351\215\265\372\276:s\374\243g\254\337W\253<\332"
 288      FABE3A73 
 288      FCA367AC 
 288      DF57AB3C 
 288      DA
 289 07cc 29ED047F 		.ascii	")\355\004\177"
 290 07d0 0367D60E 		.ascii	"\003g\326\016,\213\031\325h|\246\225\267^V\374\372\322"
 290      2C8B19D5 
 290      687CA695 
 290      B75E56FC 
 290      FAD2
 291 07e2 5B245FF2 		.ascii	"[$_\362\005\331<i\311\346\373\013>\206\365\200ridD`"
 291      05D93C69 
 291      C9E6FB0B 
 291      3E86F580 
 291      72696444 
 292 07f7 D9B47991 		.ascii	"\331\264y\221@\261\276\346M\357pU\036\212\030\270\303"
 292      40B1BEE6 
 292      4DEF7055 
 292      1E8A18B8 
 292      C3
 293 0808 D2C0CA0F 		.ascii	"\322\300\312\017U\367\353\256r\234\247)\361\224\215"
 293      55F7EBAE 
 293      729CA729 
 293      F1948D
 294 0817 1866DBAE 		.ascii	"\030f\333\256\325m+\222/\212\220\231m\373\2142w\002"
 294      D56D2B92 
 294      2F8A9099 
 294      6DFB8C32 
 294      7702
 295 0829 41E1388D 		.ascii	"A\3418\215\312\024K\247\363\2654\320\014\331\376x\023"
 295      CA144BA7 
 295      F3B534D0 
 295      0CD9FE78 
 295      13
 296 083a 59D2D8D6 		.ascii	"Y\322\330\326\245\014\322\011\321\271\242\006YE\321"
 296      A50CD209 
 296      D1B9A206 
 296      5945D1
ARM GAS  /tmp/ccOjc5ii.s 			page 23


 297 0849 331E4631 		.ascii	"3\036F1\037\346\231W\355z\316\212\225\314\360\261E\023"
 297      1FE69957 
 297      ED7ACE8A 
 297      95CCF0B1 
 297      4513
 298 085b 9575AEFD 		.ascii	"\225u\256\375\352\202\225\305\030F\016\3300\362\235"
 298      EA8295C5 
 298      18460ED8 
 298      30F29D
 299 086a 25234BD6 		.ascii	"%#K\326.\3142\242z\004\317\035\263A\270hF\370\005\267"
 299      2ECC32A2 
 299      7A04CF1D 
 299      B341B868 
 299      46F805B7 
 300 087e 8E221C5C 		.ascii	"\216\"\034\\\263\234\000\202\242\\\201\015\202\325\302"
 300      B39C0082 
 300      A25C810D 
 300      82D5C2
 301 088d D1AB4B91 		.ascii	"\321\253K\221\340\014{\321\013\353\264s\310\277\341"
 301      E00C7BD1 
 301      0BEBB473 
 301      C8BFE1
 302 089c 9C7EDA6B 		.ascii	"\234~\332k9\247\333\003\361\334\367Hr9\177N?6O\233\323"
 302      39A7DB03 
 302      F1DCF748 
 302      72397F4E 
 302      3F364F9B 
 303 08b1 2F3B5A9A 		.ascii	"/;Z\232/9b\373\372\177 \273\350\375\251\201\367\336"
 303      2F3962FB 
 303      FA7F20BB 
 303      E8FDA981 
 303      F7DE
 304 08c3 FE2F34DE 		.ascii	"\376/4\336\033\004\312{\203\257(\357f \236[\204$\364"
 304      1B04CA7B 
 304      83AF28EF 
 304      66209E5B 
 304      8424F4
 305 08d6 4527C3FB 		.ascii	"E'\303\373\231\271\032\357\364Yq\336;\372\215\363\271"
 305      99B91AEF 
 305      F45971DE 
 305      3BFA8DF3 
 305      B9
 306 08e7 BEB1A0B4 		.ascii	"\276\261\240\264\243\333X\274\333\217\363\371\007\030"
 306      A3DB58BC 
 306      DB8FF3F9 
 306      0718
 307 08f5 921FB360 		.ascii	"\222\037\263`\256\266\025Jf\207\012\246\276\243=\355"
 307      AEB6154A 
 307      66870AA6 
 307      BEA33DED 
 308 0905 1AACC2C4 		.ascii	"\032\254\302\304\331'+\314+\2573N\360\012\274U\371\264"
 308      D9272BCC 
 308      2BAF334E 
 308      F00ABC55 
 308      F9B4
 309 0917 3FFB5645 		.ascii	"?\373VE$\177u\015ff\356p\277\341\025\315\352\254m\013"
 309      247F750D 
ARM GAS  /tmp/ccOjc5ii.s 			page 24


 309      6666EE70 
 309      BFE115CD 
 309      EAAC6D0B 
 310 092b 8059BD7B 		.ascii	"\200Y\275{\260\272\214N\"\222y\002]\0274\011t\366\236"
 310      B0BA8C4E 
 310      22927902 
 310      5D173409 
 310      74F69E
 311 093e 8FF51FB1 		.ascii	"\217\365\037\261^\200\365\323X/\024L+\306\215>=J,]\261"
 311      5E80F5D3 
 311      582F144C 
 311      2BC68D3E 
 311      3D4A2C5D 
 312 0953 984B2899 		.ascii	"\230K(\231V\373\3600\235\227d#\373T\003\231\213.\334"
 312      56FBF030 
 312      9D976423 
 312      FB540399 
 312      8B2EDC
 313 0966 8CD1B1A9 		.ascii	"\214\321\261\251xt0\347.\031\244h\311\013\216\276Cz"
 313      787430E7 
 313      2E19A468 
 313      C90B8EBE 
 313      437A
 314 0978 70B43808 		.ascii	"p\2648\010\216t\346\350rg\307>mY\215\374\203A\216\336"
 314      8E74E6E8 
 314      7267C73E 
 314      6D598DFC 
 314      83418EDE 
 315 098c 13FA573E 		.ascii	"\023\372W>+Q\216\376\342r\230\201x\356\024\222\254\312"
 315      2B518EFE 
 315      E2729881 
 315      78EE1492 
 315      ACCA
 316 099e 1764B72E 		.ascii	"\027d\267.\310*G\202<\277\\\367\375\025Bn\327\261\252"
 316      C82A4782 
 316      3CBF5CF7 
 316      FD15426E 
 316      D7B1AA
 317 09b1 B087D99A 		.ascii	"\260\207\331\2324\235Ys\010\335U\005{\3375\230\331\367"
 317      349D5973 
 317      08DD5505 
 317      7BDF3598 
 317      D9F7
 318 09c3 B71C5A5D 		.ascii	"\267\034Z]\256\264\355\324\277\267Q\346)\267\276\234"
 318      AEB4EDD4 
 318      BFB751E6 
 318      29B7BE9C 
 319 09d3 53C9041D 		.ascii	"S\311\004\035\2017\252v\353m\270\271]'\320\373\027\031"
 319      8137AA76 
 319      EB6DB8B9 
 319      5D27D0FB 
 319      1719
 320 09e5 C53A076A 		.ascii	"\305:\007jm\352\370\027\004\332\210@i\377h\201\332\273"
 320      6DEAF817 
 320      04DA8840 
 320      69FF6881 
 320      DABB
ARM GAS  /tmp/ccOjc5ii.s 			page 25


 321 09f7 5FBF1B81 		.ascii	"_\277\033\201^B\240\247\031 \221\010\314n[0\357\266"
 321      5E42A0A7 
 321      19209108 
 321      CC6E5B30 
 321      EFB6
 322 0a09 057FAE41 		.ascii	"\005\177\256A\327`?bg\330w\370\211\331`&\211\212\245"
 322      D7603F62 
 322      67D877F8 
 322      89D96026 
 322      898AA5
 323 0a1c 657A1CB1 		.ascii	"ez\034\261\267\004\217#Lq\341|5\364\272\300,B\356a\326"
 323      B7048F23 
 323      4C71E17C 
 323      35F4BAC0 
 323      2C42EE61 
 324 0a31 2085F6F2 		.ascii	" \205\366\362\213\2165hg\247\257\011\230,\031U3G\332"
 324      8B8E3568 
 324      67A7AF09 
 324      982C1955 
 324      3347DA
 325 0a44 742C3B3E 		.ascii	"t,;>\266\010e6\221\223\367\214\347^`\225\346n\372\201"
 325      B6086536 
 325      9193F78C 
 325      E75E6095 
 325      E66EFA81 
 326 0a58 98ED7941 		.ascii	"\230\355yA?\224\306\335\337&'\200V\363\217\325eL\022"
 326      3F94C6DD 
 326      DF262780 
 326      56F38FD5 
 326      654C12
 327 0a6b 22791EB3 		.ascii	"\"y\036\263\374\032\314\346k\261n\303\372U\254\337\026"
 327      FC1ACCE6 
 327      6BB16EC3 
 327      FA55ACDF 
 327      16
 328 0a7c 1CECDA68 		.ascii	"\034\354\332hhg\261\325t\3212\352t1\230\237.\334\200"
 328      6867B1D5 
 328      74D132EA 
 328      7431989F 
 328      2EDC80
 329 0a8f 99149919 		.ascii	"\231\024\231\031\322\322\205\032\375\"\331$0x\356\274"
 329      D2D2851A 
 329      FD22D924 
 329      3078EEBC 
 330 0a9f 39F3EC8A 		.ascii	"9\363\354\212\300\276\307\365T\362\206\237\270\004\233"
 330      C0BEC7F5 
 330      54F2869F 
 330      B8049B
 331 0aae 50C8282D 		.ascii	"P\310(-\006\243,C\243,G\023\264c\275\025\353\016\363"
 331      06A32C43 
 331      A32C4713 
 331      B463BD15 
 331      EB0EF3
 332 0ac1 74DBE167 		.ascii	"t\333\341g\246[\323\334f5\371\033\325\243d\336<\002"
 332      A65BD3DC 
 332      6635F91B 
 332      D5A364DE 
ARM GAS  /tmp/ccOjc5ii.s 			page 26


 332      3C02
 333 0ad3 BA767E32 		.ascii	"\272v~2vF?\031\333\216sT\247\337r\216*t2\326\203$\235"
 333      76463F19 
 333      DB8E7354 
 333      A7DF728E 
 333      2A7432D6 
 334 0aea F92BD12B 		.ascii	"\371+\321+\372\034\325Y|\216\232\323\230i}\356\305\334"
 334      FA1CD559 
 334      7C8E9AD3 
 334      98697DEE 
 334      C5DC
 335 0afc 64DB980D 		.ascii	"d\333\230\015\340s0/\3309\251\351\213\215\243Y>\\:\251"
 335      E073302F 
 335      D839A9E9 
 335      8B8DA359 
 335      3E5C3AA9 
 336 0b10 B5E93A0D 		.ascii	"\265\351:\015\246\313\240\351v\232\015u\2125\224\313"
 336      A6CBA0E9 
 336      769A0D75 
 336      8A3594CB 
 337 0b20 93B46D47 		.ascii	"\223\264mG\364\225\267\372\375\362i\026\257\315\364"
 337      F495B7FA 
 337      FDF26916 
 337      AFCDF4
 338 0b2f B5B21560 		.ascii	"\265\262\025`E!\001.\033\216\002G\360(PA\177[\214\365"
 338      4521012E 
 338      1B8E0247 
 338      F0285041 
 338      7F5B8CF5 
 339 0b43 7B58EF32 		.ascii	"{X\3572\213\364]\326\372\226;&\212\372\221\220\335\302"
 339      8BF45DD6 
 339      FA963B26 
 339      8AFA9190 
 339      DDC2
 340 0b55 319976AB 		.ascii	"1\231v\253\3159\026\245\352\312e\023\206\352o6\372\243"
 340      CD3916A5 
 340      EACA6513 
 340      86EA6F36 
 340      FAA3
 341 0b67 547B7254 		.ascii	"T{rT\327p\315\270VZ9N\375\216G#\231\252\223x5\222n\341"
 341      D770CDB8 
 341      565A394E 
 341      FD8E4723 
 341      99AA9378 
 342 0b7f 1A6C99DE 		.ascii	"\032l\231\336oa\017\273A>\026r\337\012\005\374\271F"
 342      6F610FBB 
 342      413E1672 
 342      DF0A05FC 
 342      B946
 343 0b91 A935BF74 		.ascii	"\2515\277t\003m\007\265\327V\312\301\002T=9*\272\245"
 343      036D07B5 
 343      D756CAC1 
 343      02543D39 
 343      2ABAA5
 344 0ba4 CE0C0E9C 		.ascii	"\316\014\016\234\337\374\355c\257\275\245(\177\204\035"
 344      DFFCED63 
 344      AFBDA528 
ARM GAS  /tmp/ccOjc5ii.s 			page 27


 344      7F841D
 345 0bb3 F1530D73 		.ascii	"\361S\015s\210\363\231\265O\310?6j\035cyl\004\327\313"
 345      88F399B5 
 345      4FC83F36 
 345      6A1D6379 
 345      6C04D7CB 
 346 0bc7 8A903D01 		.ascii	"\212\220=\001\351\025\230\023\220}B\336n\037X\333wd"
 346      E9159813 
 346      907D42DE 
 346      6E1F58DB 
 346      7764
 347 0bd9 08A77E65 		.ascii	"\010\247~ed\344\251\233\324\361xn\203\243\021\016\260"
 347      64E4A99B 
 347      D4F1786E 
 347      83A3110E 
 347      B0
 348 0bea 237C6239 		.ascii	"#|b9\302\366\267\277)\037\316\011\237\035\344\270i\020"
 348      C2F6B7BF 
 348      291FCE09 
 348      9F1DE4B8 
 348      6910
 349 0bfc 5C3AF0DC 		.ascii	"\\:\360\334\2311\244\320\220\007\331!\017Y\0169\324"
 349      9931A4D0 
 349      9007D921 
 349      0F590E39 
 349      D4
 350 0c0d 7762E2E8 		.ascii	"wb\342\350\364}\204]\311\230\016\3004\257g\216W~`\264"
 350      F47D845D 
 350      C9980EC0 
 350      34AF678E 
 350      577E60B4 
 351 0c21 A51D8075 		.ascii	"\245\035\200uH\314\001\330a\241\370\001\330Re\311\356"
 351      48CC01D8 
 351      61A1F801 
 351      D85265C9 
 351      EE
 352 0c32 40335187 		.ascii	"@3Q\207\342\271\371e\244 \241\306\220\246\252\317\225"
 352      E2B9F965 
 352      A420A1C6 
 352      90A6AACF 
 352      95
 353 0c43 87CAB3AA 		.ascii	"\207\312\263\252:\314\252\352\230\245\252\316m\336_"
 353      3ACCAAEA 
 353      98A5AACE 
 353      6DDE5F
 354 0c52 9367FF85 		.ascii	"\223g\377\205eN\354\377%;\302\011k\017[u%\337\303V:"
 354      654EECFF 
 354      253BC209 
 354      6B0F5B75 
 354      25DFC356 
 355 0c67 1AE12B76 		.ascii	"\032\341+v\204S6\036\266\177\005Y\001+1<\305k\233\317"
 355      8453361E 
 355      B67F0559 
 355      012B313C 
 355      C56B9BCF 
 356 0c7b EBA36C2C 		.ascii	"\353\243l,\313s1\221|\226\303\260\032\363\033v\314?"
 356      CB733191 
ARM GAS  /tmp/ccOjc5ii.s 			page 28


 356      7C96C3B0 
 356      1AF31B76 
 356      CC3F
 357 0c8d 0B79675C 		.ascii	"\013yg\\\373\366\015\354:\273\222\314\037P\232\361\214"
 357      FBF60DEC 
 357      3ABB92CC 
 357      1F509AF1 
 357      8C
 358 0c9e CB98CC0C 		.ascii	"\313\230\314\014\323\333C\272\261\306 \245M\312cz\211"
 358      D3DB43BA 
 358      B1C620A5 
 358      4DCA637A 
 358      89
 359 0caf E4AFAE53 		.ascii	"\344\257\256S\336\240M\3123\316\210\271^\240\206-e\314"
 359      DEA04DCA 
 359      33CE88B9 
 359      5EA0862D 
 359      65CC
 360 0cc1 B139C304 		.ascii	"\2619\303\004\317\275WF42\032\221\232\242\267t\016\033"
 360      CFBD5746 
 360      34321A91 
 360      9AA2B774 
 360      0E1B
 361 0cd3 E3EAB7A6 		.ascii	"\343\352\267\246\270\362qM\370\205\322\\\245\201<\231"
 361      B8F2714D 
 361      F885D25C 
 361      A5813C99 
 362 0ce3 9DD16CBE 		.ascii	"\235\321l\276\032\025\311\220\340\243_\037\224\331~"
 362      1A15C990 
 362      E0A35F1F 
 362      94D97E
 363 0cf2 F3493BE8 		.ascii	"\363I;\350B\251m\275U\340\233\277\013V\361\313\304\353"
 363      42A96DBD 
 363      55E09BBF 
 363      0B56F1CB 
 363      C4EB
 364 0d04 D932CB78 		.ascii	"\3312\313x\375\023\033\257\347\013\307k\366\264\376"
 364      FD131BAF 
 364      E70BC76B 
 364      F6B4FE
 365 0d13 F3FFA161 		.ascii	"\363\377\241a\247\262h\2422\311\25618l\223\260\3762"
 365      A7B268A2 
 365      32C9AE31 
 365      386C93B0 
 365      FE32
 366 0d25 719B7DC2 		.ascii	"q\233}\302*t\000|\231\225\270K\310\223\370\212\265\304"
 366      2A74007C 
 366      9995B84B 
 366      C893F88A 
 366      B5C4
 367 0d37 C35462B5 		.ascii	"\303Tb\265\373\027\270\346\276\344(\321\244\225\363"
 367      FB17B8E6 
 367      BEE428D1 
 367      A495F3
 368 0d46 271EBA3F 		.ascii	"'\036\272?\367~\302\216Jcp\304,13\221~]`\"M{\330\211"
 368      F77EC28E 
 368      4A6370C4 
ARM GAS  /tmp/ccOjc5ii.s 			page 29


 368      2C313391 
 368      7E5D6022 
 369 0d5e 744BE79E 		.ascii	"tK\347\236\237\033\023\273~>\335\034\260\024p\033k\322"
 369      9F1B13BB 
 369      7E3EDD1C 
 369      B014701B 
 369      6BD2
 370 0d70 468F9377 		.ascii	"F\217\223w\020G\331w\020\366d\346w\020\246\004L\211"
 370      1047D977 
 370      10F664E6 
 370      7710A604 
 370      4C89
 371 0d82 4C0E3DC7 		.ascii	"L\016=\307c\231H6\265\026M$5\372\240c\221\322&\2210"
 371      63994836 
 371      B5164D24 
 371      35FAA063 
 371      91D22691 
 372 0d97 BD44B2C0 		.ascii	"\275D\262\300\3436\221<\355\261N$\001\223 z/\272`\027"
 372      E336913C 
 372      EDB14E24 
 372      0193207A 
 372      2FBA6017 
 373 0dab 9877340C 		.ascii	"\230w4\014\023<\267&`L$\334O&M\252T\377\342\251\312"
 373      133CB726 
 373      604C24DC 
 373      4F264DAA 
 373      54FFE2A9 
 374 0dc0 A45C994A 		.ascii	"\244\\\231J\206*C5\321T\365\244\0207\325\370,\024\217"
 374      862A4335 
 374      D154F5A4 
 374      1037D5F8 
 374      2C148F
 375 0dd3 46E3B1CA 		.ascii	"F\343\261\312D<)\247*\177\373\360\203\323\036\234M\357"
 375      443C29A7 
 375      2A7FFBF0 
 375      83D31E9C 
 375      4DEF
 376 0de5 25C21129 		.ascii	"%\302\021)\231\252\274o\3324 \223\353\023RjR\015W\002"
 376      99AABC6F 
 376      DA342093 
 376      EB13526A 
 376      520D5702 
 377 0df9 F441B9F4 		.ascii	"\364A\271\364\276\377x\244b\032\367\263\312\332T\262"
 377      BEFF78A4 
 377      621AF7B3 
 377      CADA54B2 
 378 0e09 321C0B45 		.ascii	"2\034\013Ej\253\244\312\230T\027\011\317\250L\311U\341"
 378      6AABA4CA 
 378      98541709 
 378      CFA84CC9 
 378      55E1
 379 0e1b 980C5DBD 		.ascii	"\230\014]\275\360\357_\177\025\224o\267\352\025\025"
 379      F0EF5F7F 
 379      15946FB7 
 379      EA1515
 380 0e2a 4335E198 		.ascii	"C5\341\230T\031\254\222f\212\265\0219\250\017\340\017"
 380      5419AC92 
ARM GAS  /tmp/ccOjc5ii.s 			page 30


 380      668AB511 
 380      39A80FE0 
 380      0F
 381 0e3b 0635BA9B 		.ascii	"\0065\272\233\031\376u\204PM\252>\245w\367\3115II\254"
 381      19FE7584 
 381      504DAA3E 
 381      A577F7C9 
 381      354949AC 
 382 0e4f 0ACAFE50 		.ascii	"\012\312\376PMPmW\330\323\205j\252\200f\274\332/\025"
 382      4D506D57 
 382      D8D3856A 
 382      AA8066BC 
 382      DA2F15
 383 0e62 7CB256AA 		.ascii	"|\262V\252\225\202\362\204,\251v\313\023\223f\313\236"
 383      9582F284 
 383      2CA976CB 
 383      139366CB 
 383      9E
 384 0e73 44529A55 		.ascii	"DR\232U\202\277\275r\"\031\216\007e_\255\306\332\230"
 384      82BFBD72 
 384      22198E07 
 384      655FADC6 
 384      DA98
 385 0e85 60506F7A 		.ascii	"`Poz\350\243\000\325]0\024\217\311@\370\317Eu[\023\212"
 385      E8A300D5 
 385      5D30148F 
 385      C940F8CF 
 385      45755B13 
 386 0e9a 272560A4 		.ascii	"'%`\244\014\311\000($\317\276\335\031Up\326\224(\025"
 386      0CC90028 
 386      24CFBEDD 
 386      195570D6 
 386      942815
 387 0ead 3B29558B 		.ascii	";)U\213\311hP\346\223S\371\344\335B\362\216\311P\356"
 387      C96850E6 
 387      9353F9E4 
 387      DD42F28E 
 387      C950EE
 388 0ec0 E09377F2 		.ascii	"\340\223w\362\311\273\370\344\024>\371k>\222\344S\011"
 388      C9BBF8E4 
 388      143EF96B 
 388      3E92E453 
 388      09
 389 0ed1 01A04B40 		.ascii	"\001\240K@\347R\262$\036\251\222\222\236P\215\230\364"
 389      E752B224 
 389      1EA99292 
 389      9E508D98 
 389      F4
 390 0ee2 C4C4A834 		.ascii	"\304\304\2504&%?!F\302\3251M\256)wf\345\242\315\322"
 390      26253F21 
 390      46C2D531 
 390      4DAE2977 
 390      66E5A2CD 
 391 0ef7 3A718698 		.ascii	":q\206\230\222|rJ\026eP\222\227>\230\012zV\273@\253"
 391      927C724A 
 391      16655092 
 391      973E980A 
ARM GAS  /tmp/ccOjc5ii.s 			page 31


 391      7A56BB40 
 392 0f0c 049F78E5 		.ascii	"\004\237x\345h\274\012\236\227\314\214\210\325)\257"
 392      68BC0A9E 
 392      97CC8C88 
 392      D529AF
 393 0f1b 9C9466A6 		.ascii	"\234\224f\246@+\364_i\262\252\036\334\305'\315\016\313"
 393      402BF45F 
 393      69B2AA1E 
 393      DCC527CD 
 393      0ECB
 394 0f2d 21E8545A 		.ascii	"!\350TZ'\307g\374!q\255f2\350\"%\245X\210\022\327\311"
 394      27C767FC 
 394      2171AD66 
 394      32E82225 
 394      A5588812 
 395 0f43 7232E14D 		.ascii	"r2\341MI1\031\010\002`\217\224\024\025\0235 \360\215"
 395      49311908 
 395      02608F94 
 395      14151335 
 395      20F08D
 396 0f56 F6D694A8 		.ascii	"\366\326\224\250&JB1p\036\001j\200\207[\011\037PGk\301"
 396      264A4231 
 396      701E016A 
 396      80875B09 
 396      1F50476B 
 397 0f6b 10F69451 		.ascii	"\020\366\224Qy6\245\214\327\305\244\244\027\373Rye\270"
 397      7936A58C 
 397      D7C5A4A4 
 397      17FB5279 
 397      65B8
 398 0f7d 9D289366 		.ascii	"\235(\223fQ&\304\324\023pK\252\243\015R;N\367\216H8"
 398      5126C4D4 
 398      13704BAA 
 398      A30D523B 
 398      4EF78E48 
 399 0f92 05838D37 		.ascii	"\005\203\2157\370\013\275\343\255\023\303r8V"
 399      F80BBDE3 
 399      AD13C372 
 399      3856
 400 0fa0 ED03DED1 		.ascii	"\355\003\336\321_|RB\212A\024T{\001\222\366\000s\211"
 400      5F7C5242 
 400      8A411454 
 400      7B0192F6 
 400      007389
 401 0fb3 11EA2825 		.ascii	"\021\352(%\321D<\036\001_}0U=\035\372\360rB\000*\365"
 401      D1443C1E 
 401      015F7D30 
 401      553D1DFA 
 401      F0724200 
 402 0fc9 C6A30013 		.ascii	"\306\243\000\023\300\326\303RD\002\345\217\015\325L"
 402      C0D6C352 
 402      4402E58F 
 402      0DD54C
 403 0fd8 0FD5DC17 		.ascii	"\017\325\334\027\237\036\221\244\304\3642\374\3650\014"
 403      9F1E91A4 
 403      C4F432FC 
 403      F5300C
ARM GAS  /tmp/ccOjc5ii.s 			page 32


 404 0fe7 5BFF4000 		.ascii	"[\377@\000\333\217\212OH\265\370 HCB\212\252a\240\266"
 404      DB8F8A4F 
 404      48B5F820 
 404      4843428A 
 404      AA61A0B6 
 405 0ffb 0394C17A 		.ascii	"\003\224\301z\215"
 405      8D
 406 1000 65400AE6 		.ascii	"e@\012\346~{C\265I\320\274\\\222\244\277\256\237\025"
 406      7E7B43B5 
 406      49D0BC5C 
 406      92A4BFAE 
 406      9F15
 407 1012 4ECAB562 		.ascii	"N\312\265b$(\207\243\020\360\032\305\015@a\361`\274"
 407      242887A3 
 407      10F01AC5 
 407      0D4061F1 
 407      60BC
 408 1024 E99E1A3B 		.ascii	"\351\236\032;\246[~::44\257\272cJ\326\253h\263\244J"
 408      A65B7E3A 
 408      3A3434AF 
 408      BA634AD6 
 408      AB68B3A4 
 409 1039 8AC8A26F 		.ascii	"\212\310\242o\226<\2636\026\0027\241\377\204\204\230"
 409      963CB336 
 409      160237A1 
 409      FF848498 
 410 1049 F445C494 		.ascii	"\364E\304\224L\311Jg\311t\230q\232<U\322\214\332jU\343"
 410      4CC94A67 
 410      C9749871 
 410      9A3C55D2 
 410      8CDA6A55 
 411 105e C63BFE84 		.ascii	"\306;\376\204\030\013\207\202\2409\241jF\365\230\250"
 411      180B8782 
 411      A039A16A 
 411      46F598A8 
 412 106e 08F06810 		.ascii	"\010\360h\020>TS\300a\3521\301\200\352\352S\277\217"
 412      3E5453C0 
 412      61EA31C1 
 412      80EAEA53 
 412      BF8F
 413 1080 879EF063 		.ascii	"\207\236\360c\370E\240u\207E\360A$WN{p\372\003\323s"
 413      F845A075 
 413      8745F041 
 413      24574E7B 
 413      70FA03D3 
 414 1095 08D15438 		.ascii	"\010\321T8\025\254\016\205\000el0X\025N\2113\"R0\234"
 414      15AC0E85 
 414      00656C30 
 414      58154E89 
 414      33225230 
 415 10aa 7C72AC18 		.ascii	"|r\254\030\251\023\353S\020\312\021Hj\0015\257\204c"
 415      A913EB53 
 415      10CA1148 
 415      6A0135AF 
 415      8463
 416 10bc 2929290B 		.ascii	")))\013\362\223\2112\034\362\221\030\035J\215\371Zl"
 416      F2938932 
ARM GAS  /tmp/ccOjc5ii.s 			page 33


 416      1CF29118 
 416      1D4A8DF9 
 416      5A6C
 417 10ce 07824129 		.ascii	"\007\202A)\246c\370\202ATJp\254\336\230t\327]S\356*"
 417      A663F882 
 417      41544A70 
 417      ACDE9874 
 417      D75D53EE 
 418 10e3 E0C590C9 		.ascii	"\340\305\220\311\301\213\203\277\003\217\032\217n\363"
 418      C18B83BF 
 418      038F1A8F 
 418      6EF3
 419 10f1 40EA21D5 		.ascii	"@\352!\325\357\036\270Feafxf\034\354\036\215\317\242"
 419      EF1EB846 
 419      65616678 
 419      661CEC1E 
 419      8DCFA2
 420 1104 BE9473AC 		.ascii	"\276\224s\254\351\3061~}\347\377\001a\271\037\330"
 420      E9C6317E 
 420      7DE7FF01 
 420      61B91FD8 
 421              		.text
 422              		.section	.gnu.lto_.symtab.6d57a9e53d0d0a49,"",%progbits
 423 0000 63684D73 		.ascii	"chMsgSend\000\000\000\000\000\000\000\000\000\000\000"
 423      6753656E 
 423      64000000 
 423      00000000 
 423      00000000 
 424 0014 00A10000 		.ascii	"\000\241\000\000\000chMsgWait\000\000\000\000\000\000"
 424      0063684D 
 424      73675761 
 424      69740000 
 424      00000000 
 425 0028 00000000 		.ascii	"\000\000\000\000\000\000c\001\000\000chMsgRelease\000"
 425      00006301 
 425      00006368 
 425      4D736752 
 425      656C6561 
 426 003f 00000000 		.ascii	"\000\000\000\000\000\000\000\000\000\000\000g\001\000"
 426      00000000 
 426      00000067 
 426      0100
 427 004d 00636800 		.ascii	"\000ch\000\000\002\000\000\000\000\000\000\000\000\000"
 427      00020000 
 427      00000000 
 427      000000
 428 005c 79010000 		.ascii	"y\001\000\000chSchGoSleepS\000\000\002\000\000\000\000"
 428      63685363 
 428      68476F53 
 428      6C656570 
 428      53000002 
 429 0074 00000000 		.ascii	"\000\000\000\000\000o\001\000\000chSchReadyI\000\000"
 429      006F0100 
 429      00636853 
 429      63685265 
 429      61647949 
 430 008a 02000000 		.ascii	"\002\000\000\000\000\000\000\000\000\000s\001\000\000"
ARM GAS  /tmp/ccOjc5ii.s 			page 34


 430      00000000 
 430      00007301 
 430      0000
 431 0098 63685363 		.ascii	"chSchWakeupS\000\000\002\000\000\000\000\000\000\000"
 431      6857616B 
 431      65757053 
 431      00000200 
 431      00000000 
 432 00ae 00007701 		.ascii	"\000\000w\001\000\000"
 432      0000
 433              		.text
 434              		.section	.gnu.lto_.opts,"",%progbits
 435 0000 272D6D63 		.ascii	"'-mcpu=cortex-m0' '-mno-thumb-interwork' '-mthumb' "
 435      70753D63 
 435      6F727465 
 435      782D6D30 
 435      2720272D 
 436 0033 272D6767 		.ascii	"'-ggdb' '-O2' '-fomit-frame-pointer' '-falign-funct"
 436      64622720 
 436      272D4F32 
 436      2720272D 
 436      666F6D69 
 437 0066 696F6E73 		.ascii	"ions=16' '-ffunction-sections' '-fdata-sections' '-"
 437      3D313627 
 437      20272D66 
 437      66756E63 
 437      74696F6E 
 438 0099 666E6F2D 		.ascii	"fno-common' '-flto'\000"
 438      636F6D6D 
 438      6F6E2720 
 438      272D666C 
 438      746F2700 
 439              		.text
 440              		.cfi_sections	.debug_frame
 441              		.section	.text.chMsgSend,"ax",%progbits
 442              		.align	2
 443              		.p2align 4,,15
 444              		.global	chMsgSend
 445              		.code	16
 446              		.thumb_func
 447              		.type	chMsgSend, %function
 448              	chMsgSend:
 449              	.LFB149:
 450              		.file 1 "../../../os/rt/src/chmsg.c"
 451              		.loc 1 87 0
 452              		.cfi_startproc
 453              	.LVL0:
 454              		.loc 1 88 0
 455 0000 0C4B     		ldr	r3, .L5
 456              		.loc 1 87 0
 457 0002 10B5     		push	{r4, lr}
 458              		.cfi_def_cfa_offset 8
 459              		.cfi_offset 4, -8
 460              		.cfi_offset 14, -4
 461              		.loc 1 88 0
 462 0004 9C69     		ldr	r4, [r3, #24]
 463              	.LVL1:
ARM GAS  /tmp/ccOjc5ii.s 			page 35


 464              	.LBB52:
 465              	.LBB53:
 466              	.LBB54:
 467              	.LBB55:
 468              		.file 2 "../../../os/common/ext/CMSIS/include/cmsis_gcc.h"
 469              		.loc 2 71 0
 470              	@ 71 "../../../os/common/ext/CMSIS/include/cmsis_gcc.h" 1
 471 0006 72B6     		cpsid i
 472              	@ 0 "" 2
 473              		.code	16
 474              	.LBE55:
 475              	.LBE54:
 476              	.LBE53:
 477              	.LBE52:
 478              		.loc 1 94 0
 479 0008 031C     		mov	r3, r0
 480              		.loc 1 93 0
 481 000a 6162     		str	r1, [r4, #36]
 482              	.LVL2:
 483              		.loc 1 94 0
 484 000c 2C33     		add	r3, r3, #44
 485              	.LVL3:
 486              	.LBB56:
 487              	.LBB57:
 488              		.file 3 "../../../os/rt/include/chschd.h"
 489              		.loc 3 611 0
 490 000e 2360     		str	r3, [r4]
 491              		.loc 3 612 0
 492 0010 036B     		ldr	r3, [r0, #48]
 493              	.LVL4:
 494 0012 6360     		str	r3, [r4, #4]
 495              		.loc 3 613 0
 496 0014 1C60     		str	r4, [r3]
 497              	.LVL5:
 498              		.loc 3 614 0
 499 0016 0463     		str	r4, [r0, #48]
 500              	.LBE57:
 501              	.LBE56:
 502              		.loc 1 95 0
 503 0018 2023     		mov	r3, #32
 504 001a C35C     		ldrb	r3, [r0, r3]
 505 001c 0E2B     		cmp	r3, #14
 506 001e 05D0     		beq	.L4
 507              	.LVL6:
 508              	.L2:
 509              		.loc 1 98 0
 510 0020 0C20     		mov	r0, #12
 511 0022 FFF7FEFF 		bl	chSchGoSleepS
 512              	.LVL7:
 513              		.loc 1 99 0
 514 0026 606A     		ldr	r0, [r4, #36]
 515              	.LVL8:
 516              	.LBB58:
 517              	.LBB59:
 518              	.LBB60:
 519              	.LBB61:
 520              	.LBB62:
ARM GAS  /tmp/ccOjc5ii.s 			page 36


 521              		.loc 2 60 0
 522              	@ 60 "../../../os/common/ext/CMSIS/include/cmsis_gcc.h" 1
 523 0028 62B6     		cpsie i
 524              	@ 0 "" 2
 525              		.code	16
 526              	.LBE62:
 527              	.LBE61:
 528              	.LBE60:
 529              	.LBE59:
 530              	.LBE58:
 531              		.loc 1 103 0
 532              		@ sp needed
 533              	.LVL9:
 534 002a 10BD     		pop	{r4, pc}
 535              	.LVL10:
 536              	.L4:
 537              		.loc 1 96 0
 538 002c FFF7FEFF 		bl	chSchReadyI
 539              	.LVL11:
 540 0030 F6E7     		b	.L2
 541              	.L6:
 542 0032 C046     		.align	2
 543              	.L5:
 544 0034 00000000 		.word	ch
 545              		.cfi_endproc
 546              	.LFE149:
 547              		.size	chMsgSend, .-chMsgSend
 548 0038 C046C046 		.section	.text.chMsgWait,"ax",%progbits
 548      C046C046 
 549              		.align	2
 550              		.p2align 4,,15
 551              		.global	chMsgWait
 552              		.code	16
 553              		.thumb_func
 554              		.type	chMsgWait, %function
 555              	chMsgWait:
 556              	.LFB150:
 557              		.loc 1 119 0
 558              		.cfi_startproc
 559 0000 10B5     		push	{r4, lr}
 560              		.cfi_def_cfa_offset 8
 561              		.cfi_offset 4, -8
 562              		.cfi_offset 14, -4
 563              	.LBB63:
 564              	.LBB64:
 565              	.LBB65:
 566              	.LBB66:
 567              		.loc 2 71 0
 568              	@ 71 "../../../os/common/ext/CMSIS/include/cmsis_gcc.h" 1
 569 0002 72B6     		cpsid i
 570              	@ 0 "" 2
 571              		.code	16
 572              	.LBE66:
 573              	.LBE65:
 574              	.LBE64:
 575              	.LBE63:
 576              		.loc 1 123 0
ARM GAS  /tmp/ccOjc5ii.s 			page 37


 577 0004 0B4C     		ldr	r4, .L10
 578 0006 A369     		ldr	r3, [r4, #24]
 579              	.LVL12:
 580              	.LBB67:
 581              	.LBB68:
 582              		.file 4 "../../../os/rt/include/chmsg.h"
 583              		.loc 4 83 0
 584 0008 1A1C     		mov	r2, r3
 585 000a D86A     		ldr	r0, [r3, #44]
 586 000c 2C32     		add	r2, r2, #44
 587              	.LBE68:
 588              	.LBE67:
 589              		.loc 1 123 0
 590 000e 9042     		cmp	r0, r2
 591 0010 07D0     		beq	.L9
 592              	.LVL13:
 593              	.L8:
 594              	.LBB69:
 595              	.LBB70:
 596              		.loc 3 620 0
 597 0012 0168     		ldr	r1, [r0]
 598 0014 D962     		str	r1, [r3, #44]
 599              		.loc 3 621 0
 600 0016 4A60     		str	r2, [r1, #4]
 601              	.LBE70:
 602              	.LBE69:
 603              		.loc 1 127 0
 604 0018 2023     		mov	r3, #32
 605 001a 0D22     		mov	r2, #13
 606              	.LVL14:
 607 001c C254     		strb	r2, [r0, r3]
 608              	.LBB71:
 609              	.LBB72:
 610              	.LBB73:
 611              	.LBB74:
 612              	.LBB75:
 613              		.loc 2 60 0
 614              	@ 60 "../../../os/common/ext/CMSIS/include/cmsis_gcc.h" 1
 615 001e 62B6     		cpsie i
 616              	@ 0 "" 2
 617              		.code	16
 618              	.LBE75:
 619              	.LBE74:
 620              	.LBE73:
 621              	.LBE72:
 622              	.LBE71:
 623              		.loc 1 131 0
 624              		@ sp needed
 625 0020 10BD     		pop	{r4, pc}
 626              	.LVL15:
 627              	.L9:
 628              		.loc 1 124 0
 629 0022 0E20     		mov	r0, #14
 630 0024 FFF7FEFF 		bl	chSchGoSleepS
 631              	.LVL16:
 632 0028 A369     		ldr	r3, [r4, #24]
 633 002a 1A1C     		mov	r2, r3
ARM GAS  /tmp/ccOjc5ii.s 			page 38


 634 002c 2C32     		add	r2, r2, #44
 635 002e D86A     		ldr	r0, [r3, #44]
 636 0030 EFE7     		b	.L8
 637              	.L11:
 638 0032 C046     		.align	2
 639              	.L10:
 640 0034 00000000 		.word	ch
 641              		.cfi_endproc
 642              	.LFE150:
 643              		.size	chMsgWait, .-chMsgWait
 644 0038 C046C046 		.section	.text.chMsgRelease,"ax",%progbits
 644      C046C046 
 645              		.align	2
 646              		.p2align 4,,15
 647              		.global	chMsgRelease
 648              		.code	16
 649              		.thumb_func
 650              		.type	chMsgRelease, %function
 651              	chMsgRelease:
 652              	.LFB151:
 653              		.loc 1 143 0
 654              		.cfi_startproc
 655              	.LVL17:
 656 0000 08B5     		push	{r3, lr}
 657              		.cfi_def_cfa_offset 8
 658              		.cfi_offset 3, -8
 659              		.cfi_offset 14, -4
 660              	.LBB76:
 661              	.LBB77:
 662              	.LBB78:
 663              	.LBB79:
 664              		.loc 2 71 0
 665              	@ 71 "../../../os/common/ext/CMSIS/include/cmsis_gcc.h" 1
 666 0002 72B6     		cpsid i
 667              	@ 0 "" 2
 668              	.LVL18:
 669              		.code	16
 670              	.LBE79:
 671              	.LBE78:
 672              	.LBE77:
 673              	.LBE76:
 674              	.LBB80:
 675              	.LBB81:
 676              		.loc 4 117 0
 677 0004 FFF7FEFF 		bl	chSchWakeupS
 678              	.LVL19:
 679              	.LBE81:
 680              	.LBE80:
 681              	.LBB82:
 682              	.LBB83:
 683              	.LBB84:
 684              	.LBB85:
 685              	.LBB86:
 686              		.loc 2 60 0
 687              	@ 60 "../../../os/common/ext/CMSIS/include/cmsis_gcc.h" 1
 688 0008 62B6     		cpsie i
 689              	@ 0 "" 2
ARM GAS  /tmp/ccOjc5ii.s 			page 39


 690              		.code	16
 691              	.LBE86:
 692              	.LBE85:
 693              	.LBE84:
 694              	.LBE83:
 695              	.LBE82:
 696              		.loc 1 149 0
 697              		@ sp needed
 698 000a 08BD     		pop	{r3, pc}
 699              		.cfi_endproc
 700              	.LFE151:
 701              		.size	chMsgRelease, .-chMsgRelease
 702 000c C046C046 		.text
 703              	.Letext0:
 704              		.file 5 "/usr/include/newlib/machine/_default_types.h"
 705              		.file 6 "/usr/include/newlib/stdint.h"
 706              		.file 7 "../../../os/common/ports/ARMCMx/compilers/GCC/chtypes.h"
 707              		.file 8 "../../../os/rt/include/chsystypes.h"
 708              		.file 9 "../../../os/common/ports/ARMCMx/chcore.h"
 709              		.file 10 "../../../os/common/ports/ARMCMx/chcore_v6m.h"
 710              		.file 11 "../../../os/rt/include/chsem.h"
 711              		.file 12 "../../../os/rt/include/chmtx.h"
 712              		.file 13 "../../../os/rt/include/chsys.h"