ARM GAS  /tmp/ccOjc5ii.s 			page 1


   1              		.cpu cortex-m0
   2              		.fpu softvfp
   3              		.eabi_attribute 20, 1
   4              		.eabi_attribute 21, 1
   5              		.eabi_attribute 23, 3
   6              		.eabi_attribute 24, 1
   7              		.eabi_attribute 25, 1
   8              		.eabi_attribute 26, 1
   9              		.eabi_attribute 30, 2
  10              		.eabi_attribute 34, 0
  11              		.eabi_attribute 18, 4
  12              		.code	16
  13              		.file	"chmsg.c"
  14              		.text
  15              	.Ltext0:
  16              		.section	.gnu.lto_.jmpfuncs.6d57a9e53d0d0a49,"",%progbits
  17 0000 789C6362 		.ascii	"x\234cb`b\300\0064\24143\0033#S\004c&#\003\017\003\003"
  17      6062C006 
  17      34A13433 
  17      03332353 
  17      04632623 
  18 0018 23035035 		.ascii	"#\003P5\224\313\007\224cf\002)``,\003*\004\0009\234"
  18      94CB0794 
  18      63660229 
  18      60602C03 
  18      2A040039 
  19 002d 025F     		.ascii	"\002_"
  20              		.text
  21              		.section	.gnu.lto_.inline.6d57a9e53d0d0a49,"",%progbits
  22 0000 789C6362 		.ascii	"x\234cb`b\300\006\342\24043\003\203\210\014##\003#\220"
  22      6062C006 
  22      E2A03433 
  22      0383880C 
  22      23230323 
  23 0015 CD247E63 		.ascii	"\315$~c3#\003\347\0153\260\026&n\006\240(\230\234\340"
  23      332303E7 
  23      0D33B016 
  23      266E06A0 
  23      28989CE0 
  24 0029 C7C420C8 		.ascii	"\307\304 \310\017\344H\034\330\315\310\300\266@\036"
  24      0FE4481C 
  24      D8CDC8C0 
  24      B6401E
  25 0038 49013303 		.ascii	"I\0013\003\207\000P\206e\201<\\\202\231\007(9\301o\202"
  25      87005086 
  25      65813C5C 
  25      82990728 
  25      39C16F82 
  26 004c 1F0300E2 		.ascii	"\037\003\000\342\275\012T"
  26      BD0A54
  27              		.text
  28              		.section	.gnu.lto_.pureconst.6d57a9e53d0d0a49,"",%progbits
  29 0000 789C6362 		.ascii	"x\234cb`b`g\200\000f\006+&+f+\000\002\361\000\302"
  29      60626067 
  29      80006606 
  29      2B262B66 
  29      2B0002F1 
ARM GAS  /tmp/ccOjc5ii.s 			page 2


  30              		.text
  31              		.section	.gnu.lto_chMsgSend.6d57a9e53d0d0a49,"",%progbits
  32 0000 789C9D54 		.ascii	"x\234\235TKL\324P\024\275\267\355\320q\206\241\2721"
  32      4B4CD450 
  32      14BDB7ED 
  32      D07186A1 
  32      BA31
  33 0012 21221257 		.ascii	"!\"\022WF\224FM\214lP\303\312\0306\242QWfxL\206&\226"
  33      4694464D 
  33      8C6C50C3 
  33      CA1836A2 
  33      51576678 
  34 002a 19A7A3F1 		.ascii	"\031\247\243\361\263\240\003\230h\204\204\020\027\370"
  34      B3A00398 
  34      68848410 
  34      17F8
  35 0038 FFED74E1 		.ascii	"\377\355t\341B%\270!\223h\010\237\010\270S$:\321\370"
  35      4225B821 
  35      9368089F 
  35      08B85324 
  35      3AD1F8
  36 004b D9F88F09 		.ascii	"\331\370\217\011Q\342x__[\206\361\003\261i\337{}\355"
  36      51E2785F 
  36      5F5B86F1 
  36      03B169DF 
  36      7B7DED
  37 005e 39EFDCF3 		.ascii	"9\357\334\363\356\273\022HP|m\244\347g\000\340\025\365"
  37      EEBB1248 
  37      507C6DA4 
  37      E76700E0 
  37      15F5
  38 0070 1800947A 		.ascii	"\030\000\224z\306\0012AI\222\2074\260C\312h\035\330"
  38      C6013241 
  38      49928734 
  38      B043CA68 
  38      1DD8
  39 0082 A5322A62 		.ascii	"\2452*bZA\344\003@h\223d\005\333\366#\347\300\325p\315"
  39      5A41E403 
  39      40689364 
  39      05DBF623 
  39      E7C0D570 
  40 0097 B67B7327 		.ascii	"\266{s'?\274\303sv\266\363\252=\233\317#\032H\353U\""
  40      3FBCC373 
  40      76B6F3AA 
  40      3D9BCF23 
  40      1A48EB55 
  41 00ac 30847DF4 		.ascii	"0\204}\364\202UN')\363\005\334\226\262\271|~\366\336"
  41      82554E27 
  41      29F305DC 
  41      96B2B97C 
  41      7EF6DE
  42 00bf BB9713B8 		.ascii	"\273\227\023\270l\271\014Q\274F|\0014\021Tj0\010\006"
  42      6CB90C51 
  42      BC467C01 
  42      3411546A 
  42      300806
  43 00d2 CA216A94 		.ascii	"\312!j\224\010\320\234F#\016\013@\247m\367T\211\277"
ARM GAS  /tmp/ccOjc5ii.s 			page 3


  43      08D09C46 
  43      230E0B40 
  43      A76DF754 
  43      89BF
  44 00e4 4DA4C098 		.ascii	"M\244\300\2303\277\233Z.q\017MQ/?\202\366\251>\322\025"
  44      33BF9B5A 
  44      2E710F4D 
  44      512F3F82 
  44      F6A93ED2 
  45 00f9 C51B145E 		.ascii	"\305\033\024^\034\345j\270i\323\265\227h\252a\255\201"
  45      1CE56AB8 
  45      69D3B597 
  45      68AA61AD 
  45      81
  46 010a 810B703E 		.ascii	"\201\013p>c\333K\015,9\001\337\355S|\244\232(\023\027"
  46      63DB4B0D 
  46      2C3901DF 
  46      ED537CA4 
  46      9A281317 
  47 011e 97AB3A22 		.ascii	"\227\253:\"\233\020\334\336\035\300\010\264gW\012R\241"
  47      9B10DCDE 
  47      1DC008B4 
  47      67570A52 
  47      A1
  48 012f 21CE21E3 		.ascii	"!\316!\343\220\371<zy\010]u\236\314\354\235\356\367"
  48      90F93C7A 
  48      79085D75 
  48      9ECCEC9D 
  48      EEF7
  49 0141 E135FEDB 		.ascii	"\3415\376\333\255\2633\341\012\377\355\364s\342\024"
  49      ADB333E1 
  49      0AFFEDF4 
  49      73E214
  50 0150 4C0CB95B 		.ascii	"L\014\271[\022=\262X\005\341:\015\235]\253\204[x\311"
  50      123DB258 
  50      05E13A0D 
  50      9D5DAB84 
  50      5B78C9
  51 0163 EEDB6690 		.ascii	"\356\333f\220#\316E\221\215\015|\234\224\004\324\015"
  51      23CE4591 
  51      8D0D7C9C 
  51      9404D40D 
  52 0173 6B93814B 		.ascii	"k\223\201K\334a\304\300\020\305F1\204I\033\217\305\213"
  52      DC61C4C0 
  52      10C54631 
  52      84491B8F 
  52      C58B
  53 0185 41727BB1 		.ascii	"Ar{\261H\234\320\234\354{\307\217n\331\263)x\002\216"
  53      489CD09C 
  53      EC7BC78F 
  53      6ED9B329 
  53      78028E
  54 0198 1BDC2C72 		.ascii	"\033\334,r\250\324gQ\013Y\012\366q\004\\\025\"\021\262"
  54      A8D46751 
  54      0B590AF6 
  54      71045C15 
  54      2211B2
ARM GAS  /tmp/ccOjc5ii.s 			page 4


  55 01ab 2F86C6D0 		.ascii	"/\206\306\320\356\2653\237\362y\315\311\202;\270P\032"
  55      EEB5339F 
  55      F279CDC9 
  55      823BB850 
  55      1A
  56 01bc 38F691A9 		.ascii	"8\366\221\251\271A\366\017*Y\202\376EP\005\205;\323"
  56      B941F60F 
  56      2A5982FE 
  56      45500585 
  56      3BD3
  57 01ce 834F2F3E 		.ascii	"\203O/>\320\212\367\342\314\213\015Q\354\247\035\213"
  57      D08AF7E2 
  57      CC8B0D51 
  57      ECA71D8B 
  58 01de E25D6AE7 		.ascii	"\342]j\347\274wh\204y\271oc\257\313+\234\024q\274\014"
  58      BC776884 
  58      79B96F63 
  58      AFCB2B9C 
  58      1471BC0C 
  59 01f2 0B17449E 		.ascii	"\013\027D\236\024\333\031\340\024\367y\327\204%\376"
  59      14DB19E0 
  59      14F779D7 
  59      8425FE
  60 0201 D85331D5 		.ascii	"\330S1\325\367\265kg\024\007\034[5\307P\360\251J]O\345"
  60      F7B56B67 
  60      14071C5B 
  60      35C750F0 
  60      A94A5D4F 
  61 0216 75824AF5 		.ascii	"u\202J\365\341\016vdR\023HWF\355\177(R\013\024in\326"
  61      E10E7664 
  61      52134857 
  61      46ED7F28 
  61      520B1469 
  62 022c 7CEDAA9B 		.ascii	"|\355\252\233\307{h\216\267\261\210W[L\244\262\340}"
  62      C77B688E 
  62      B7B18857 
  62      5B4CA4B2 
  62      E07D
  63 023e 52CC1B59 		.ascii	"R\314\033Y\\\254\036\301\324\364lw\271\227\201!\307"
  63      5CAC1EC1 
  63      D4F46C77 
  63      B9978121 
  63      C7
  64 024f AAC89F73 		.ascii	"\252\310\237s\317=\0020\014\017\337f\">\204\377\242"
  64      CF3D0230 
  64      0C0FDF66 
  64      223E84FF 
  64      A2
  65 0260 9415A4C2 		.ascii	"\224\025\244\302\036b\036\322\344\011\350\314\015\337"
  65      1E621ED2 
  65      E409E8CC 
  65      0DDF
  66 026e 706B0080 		.ascii	"pk\000\200\177\316\313\230\260\232\260\252\301\335\021"
  66      7FCECB98 
  66      B09AB0AA 
  66      C1DD11
  67 027d 18C5A91C 		.ascii	"\030\305\251\034\0344\332\021\372\015\264\224\361\330"
ARM GAS  /tmp/ccOjc5ii.s 			page 5


  67      1C34DA11 
  67      FA0DB494 
  67      F1D8
  68 028b DDF2A094 		.ascii	"\335\362\240\224R=Z&\324\317|\331\342)\211\270\006l"
  68      523D5A26 
  68      D4CF7CD9 
  68      E22989B8 
  68      066C
  69 029d 9D3B8EB5 		.ascii	"\235;\216\265\013\036\307%\005\245E\025LT\360\210\314"
  69      0B1EC725 
  69      05A54515 
  69      4C54F088 
  69      CC
  70 02ae AD2B3391 		.ascii	"\255+3\221\337\313\312\317\360\252\202\262r%R\351W\306"
  70      DFCBCACF 
  70      F0AA82B2 
  70      722552E9 
  70      57C6
  71 02c0 B9FAF2A6 		.ascii	"\271\372\362\246\240\2768\345\214\221\177\314[\016\341"
  71      A0BE38E5 
  71      8C917FCC 
  71      5B0EE1
  72 02cf D95F4BCC 		.ascii	"\331_K\314c\310\344\306\231\037\224\230\334M\007\220"
  72      63C8E4C6 
  72      991F9498 
  72      DC4D0790 
  73 02df FCE18815 		.ascii	"\374\341\210\02555\272\270\023\226\236J\353V\212\351"
  73      3535BAB8 
  73      13969E4A 
  73      EB568AE9 
  74 02ef ACC5B4E2 		.ascii	"\254\305\264\3425\014d\226Nn(\374\316\022\246\231h\325"
  74      350C6496 
  74      4E6E28FC 
  74      CE12A699 
  74      68D5
  75 0301 6347D37A 		.ascii	"cG\323z}C\343\216F\335he\007\0177\307tfZ\206u \316X"
  75      7D43E38E 
  75      46DD6865 
  75      070F37C7 
  75      74665A86 
  76 0319 4D0BACFF 		.ascii	"M\013\254\377\003\"\231H\245-}\373\256\206\372\206\243"
  76      03229948 
  76      A52D7DFB 
  76      AE86FA86 
  76      A3
  77 032a 44CF12A9 		.ascii	"D\317\022\251\330\201#\233M\372{U\321\372>c\213u\314"
  77      D881239B 
  77      4DFA7B55 
  77      D1FA3E63 
  77      8B75CC
  78 033d A2EF4196 		.ascii	"\242\357A\226\264\214\346*\003T3f&R\307@J'\345\364\241"
  78      B48CE62A 
  78      03543366 
  78      2652C740 
  78      4A27E5F4 
  79 0352 64D5DF71 		.ascii	"d\325\337q\254\245\331\003\306\010\370\0134\272\253"
  79      ACA5D903 
ARM GAS  /tmp/ccOjc5ii.s 			page 6


  79      C608F80B 
  79      34BAAB
  80 0361 51       		.ascii	"Q"
  81              		.text
  82              		.section	.gnu.lto_chMsgWait.6d57a9e53d0d0a49,"",%progbits
  83 0000 789C9D54 		.ascii	"x\234\235TKh\023A\030\376\377\335M6m\232\"z\261\250"
  83      4B681341 
  83      18FEFFDD 
  83      4D366D9A 
  83      227AB1A8 
  84 0014 B578121F 		.ascii	"\265x\022\037]E\020zSzQ\260\027\037\250'Y\267!Y0\246"
  84      5D45107A 
  84      537A51B0 
  84      171FA827 
  84      59B72159 
  85 002a CD46A9ED 		.ascii	"\315F\251\355\301i\255\340\233*\036|\340\243z\020z\260"
  85      C169ADE0 
  85      9B2A1E7C 
  85      E0A37A10 
  85      7AB0
  86 003c E2490431 		.ascii	"\342I\0041>PK\261RA\360\211\251\240\026T\260\007i\220"
  86      3E504BB1 
  86      5241F089 
  86      A9A01654 
  86      B0076990 
  87 0050 9AF8CFCC 		.ascii	"\232\370\317\314\356\246\211\266\026\207\335\235\331"
  87      EEA689B6 
  87      1687DD9D 
  87      D9
  88 005d D9FDBFFF 		.ascii	"\331\375\277\377\373\277\371f\024P\240\274\255\242{"
  88      FBBFF966 
  88      1450A0BC 
  88      ADA27B
  89 006c 5D10A040 		.ascii	"]\020\240@=\006\000\225\236!\200\316\220\242\250?t`"
  89      3D060095 
  89      9E2180CE 
  89      90A2A83F 
  89      7460
  90 007e 95DAF947 		.ascii	"\225\332\371G\000\254JEM\316k\210|\000\010\373\025U"
  90      00AC4A45 
  90      4DCE6B88 
  90      7C0008FB 
  90      1555
  91 0090 C3FDDB91 		.ascii	"\303\375\333\221\203\340\"\350e\354T\366`~\024\317\262"
  91      83E022E8 
  91      65EC54F6 
  91      607E14CF 
  91      B2
  92 00a1 4CF76536 		.ascii	"L\367e6Q( \332H\011k\021,\204m\364\202u\242S\264R\006"
  92      512820DA 
  92      48096B11 
  92      2C846DF4 
  92      8275A253 
  93 00b8 FD4A265B 		.ascii	"\375J&[(L\334\371:r\024g\317\321\200\242\202\374\241"
  93      284CDCF9 
  93      3A721467 
  93      CFD180A2 
ARM GAS  /tmp/ccOjc5ii.s 			page 7


  93      82FCA1
  94 00cb D3430DF3 		.ascii	"\323C\015\363Q\025\037E\300\304^JT\315g\250\005\240"
  94      51151F45 
  94      C0C45E4A 
  94      54CD67A8 
  94      05A0
  95 00dd 9BB19E3A 		.ascii	"\233\261\236:9\011<\007\265\315\364\344\374\266\240"
  95      39093C07 
  95      B5CDF4E4 
  95      FCB6A0
  96 00ec C27B7508 		.ascii	"\302{u\010:\307\006.>B\367g/*\323\177\374[x\261\377"
  96      3AC7062E 
  96      3E42F767 
  96      2F2AD37F 
  96      FC5B78B1 
  97 0101 76ED742E 		.ascii	"v\355t.<\337\177;\374\213@L\274JA\026r\362\012\335\252"
  97      3CDF7F3B 
  97      FC8B404C 
  97      BC4A4116 
  97      72F20ADD 
  98 0116 E48AD04B 		.ascii	"\344\212\320KC\241b-\364\341\005vf\215\215n=O\241\353"
  98      43A1622D 
  98      F4E10576 
  98      668D8D6E 
  98      3D4FA1EB 
  99 012a 752E9F53 		.ascii	"u.\237Sdh\014\265\245\260\204\250.\205>F\255\325\306"
  99      64680CB5 
  99      A5B084A8 
  99      2E853E46 
  99      ADD5C6
 100 013d C07938D7 		.ascii	"\300y8\327\311\330,\033\203\035\360\223\035\342#=!x"
 100      C9D82C1B 
 100      831DF093 
 100      1DE2233D 
 100      2178
 101 014f 735D7481 		.ascii	"s]t\201\262\023\301\355\335\001\014@W\306\220\240R\346"
 101      B213C1ED 
 101      DD010C40 
 101      57C690A0 
 101      52E6
 102 0161 CCFBC7C7 		.ascii	"\314\373\307\307k\330\345\256\036\226'\225)\205\211"
 102      6BD8E5AE 
 102      1E962795 
 102      298589
 103 0170 5704C9E9 		.ascii	"W\004\311\351T\216q\232\234\342\333\333\257\316\265"
 103      548E719A 
 103      9CE2DBDB 
 103      AFCEB5
 104 017f 97EB31F8 		.ascii	"\227\3531\370k,`\342u\241\244W\272&\303\302\262\200"
 104      6B2C60E2 
 104      75A1A457 
 104      BA26C3C2 
 104      B280
 105 0191 EC8BC117 		.ascii	"\354\213\301\027\303\250\026\013\332jc\310/\250\202"
 105      C3A8160B 
 105      DA6A63C8 
 105      2FA882
ARM GAS  /tmp/ccOjc5ii.s 			page 8


 106 01a0 E079568F 		.ascii	"\340yV\217\273\302an\020\014\215U\177,\010\374<\320"
 106      BBC2616E 
 106      100C8D55 
 106      7F2C08FC 
 106      3CD0
 107 01b2 A79AD82F 		.ascii	"\247\232\330/$\252\352\200vZZ\027\361\015\316\014\322"
 107      24AAEA80 
 107      765A5A17 
 107      F10DCE0C 
 107      D2
 108 01c3 477B020F 		.ascii	"G{\002\017?\217|\314\257\360\024\017\023b\261\342-\224"
 108      3F8F7CCC 
 108      AFF0140F 
 108      1362B1E2 
 108      2D94
 109 01d5 F987AE3E 		.ascii	"\371\207\256>\203\356\354\304\203J\371\017\200\257|"
 109      83EEECC4 
 109      834AF90F 
 109      80AF7C
 110 01e4 A5254184 		.ascii	"\245%A\204Za\356\252*/N\023\336\341b\275,\274T=\364"
 110      5A61EEAA 
 110      2A2F4E13 
 110      DEE162BD 
 110      2CBC543D 
 111 01f9 A0B79E4B 		.ascii	"\240\267\236K\376{)E\371\237\320C\324K\312?\351\226"
 111      FE7B2945 
 111      F99FD043 
 111      D44BCA3F 
 111      E996
 112 020b 8FA2F660 		.ascii	"\217\242\366`Y\355^\343nh\230\316\015\252\002\317\361"
 112      59ED5EE3 
 112      6E6898CE 
 112      0DAA02CF 
 112      F1
 113 021c 5F7B2EC6 		.ascii	"_{.\306)\0127|\031\276pUw\355 \001\331M\306*\304\016"
 113      290A377C 
 113      19BE7055 
 113      77ED2001 
 113      D94DC62A 
 114 0232 5667E82D 		.ascii	"Vg\350-\337FG\013\246\211wK\\\024\224\351\"\256\213"
 114      DF46470B 
 114      A689774B 
 114      5C1494E9 
 114      22AE8B
 115 0245 DE9DF856 		.ascii	"\336\235\370V\263\234`}\375Bn\251\3522Y\252p\313\003"
 115      B39C607D 
 115      FD426EA9 
 115      EA3259AA 
 115      70CB03
 116 0258 B934BCD6 		.ascii	"\2714\274\326\005&\336\2437\023\357\023,\341H\332g\306"
 116      0526DEA3 
 116      3713EF13 
 116      2CE148DA 
 116      67C6
 117 026a 8F6D901F 		.ascii	"\217m\220\037bX]\262\317:\312<\024\231\254\243\346\203"
 117      62585DB2 
 117      CF3ACA3C 
ARM GAS  /tmp/ccOjc5ii.s 			page 9


 117      1499ACA3 
 117      E683
 118 027c 972622C8 		.ascii	"\227&\"\310\201\033\325\022\320\305\211\314\214$\245"
 118      811BD512 
 118      D0C589CC 
 118      8C24A5
 119 028b 17E183B7 		.ascii	"\027\341\203\267\306\2175\224\000l-rj(\343T=\025\247"
 119      C68F3594 
 119      006C2D72 
 119      6A28E354 
 119      3D15A7
 120 029e C0245C5D 		.ascii	"\300$\\]\324\377\375\303\335\271RJ\357\240\023\351n"
 120      D4FFFDC3 
 120      DDB9524A 
 120      EFA013E9 
 120      6E
 121 02af E50AA3AE 		.ascii	"\345\012\243\256\215\334\034a\033#\276yJ\212\016\026"
 121      8DDC1C61 
 121      1B23BE79 
 121      4A8A0E16 
 122 02bf 5D4EEA81 		.ascii	"]N\352\2018\022s\221?O\304|x\341\244\023\361R\244\326"
 122      38127391 
 122      3F4FC47C 
 122      78E1A413 
 122      F152A4D6 
 123 02d3 3F638B47 		.ascii	"?c\213G\343C\245\270\262\302\344\026\206\350\256\220"
 123      E343A5B8 
 123      B2C2E416 
 123      86E8AE90 
 124 02e3 B910C6A7 		.ascii	"\271\020\306\247<\035\207\2413{$\3529?\"'7\223Qi\253"
 124      3C1D87A1 
 124      337B24EA 
 124      393F2227 
 124      37935169 
 125 02f8 F18879F5 		.ascii	"\361\210y\365\365\206\274\222\216\221J\033N\3122\254"
 125      F586BC92 
 125      8E914A1B 
 125      4ECA32AC 
 126 0308 78C289D5 		.ascii	"x\302\211\325[\240\244[VN\376l%\023\211\344n#\332\226"
 126      5BA0A45B 
 126      564EFE6C 
 126      251389E4 
 126      6E23DA96 
 127 031c 361A9B36 		.ascii	"6\032\2336\255\337d\330\273\255]{\232\243\206\225pl"
 127      ADDF64D8 
 127      BBAD5D7B 
 127      9AA38695 
 127      706C
 128 032e 6747CCB2 		.ascii	"gG\314\262\352\343\260\374/\021-\311T\3321\326nljlj"
 128      EAE3B0FC 
 128      2F112DC9 
 128      54DA31D6 
 128      6E6C6A6C 
 129 0343 23742B99 		.ascii	"#t+\231\212\356\330\273:A\177/,K\357#\306\235}\016}"
 129      8AEED8BB 
 129      3A417F2F 
 129      2C4BEF23 
ARM GAS  /tmp/ccOjc5ii.s 			page 10


 129      C69D7D0E 
 130 0358 0F592D8E 		.ascii	"\017Y-\216\335\\g\203\236\210&\222\251}\323\004p\316"
 130      DD5C6783 
 130      9E882692 
 130      A97DD304 
 130      70CE
 131 036a 7150D3AD 		.ascii	"qP\323\255-uS\203Z\361f\0175J\250\277\001\022\205\320"
 131      2D755383 
 131      5AF1660F 
 131      354AA8BF 
 131      011285D0 
 132 037e BA       		.ascii	"\272"
 133              		.text
 134              		.section	.gnu.lto_chMsgRelease.6d57a9e53d0d0a49,"",%progbits
 135 0000 789C8D51 		.ascii	"x\234\215Q\315K[A\020\237\331\227hj\220\366*\026\015"
 135      CD4B5B41 
 135      109FD997 
 135      686A90F6 
 135      2A160D
 136 0013 01A13D34 		.ascii	"\001\241=4K/=W<\365\220\213\037PO\"\353#Yp}\341mZ\224"
 136      4B2F3D57 
 136      3CF5908B 
 136      1F504F22 
 136      EB235970 
 137 002c 1EDC8885 		.ascii	"\036\334\210\205V\020\203\247^\374\242HK \012\376\001"
 137      561083A7 
 137      5EFCA248 
 137      4B200AFE 
 137      01
 138 003d 36272108 		.ascii	"6'!\010J\241\365$\305\177@\261\267\240\322\327y/\311"
 138      4AA1F524 
 138      C57F40B1 
 138      B7A0D2D7 
 138      792FC9
 139 0050 6BEA07B8 		.ascii	"k\352\007\270\354\316\356\316\314\357\2673\277e\300"
 139      ECCEEECE 
 139      CCEFB733 
 139      BF65C0
 140 005f E0FAE8A2 		.ascii	"\340\372\350\242\365\224\334\277hG\013\220\025\017\000"
 140      F594DCBF 
 140      68470B90 
 140      150F00
 141 006e 0A3186E8 		.ascii	"\0121\206\350\037\000a\226\341\354(\006\271\333\254"
 141      1F006196 
 141      E1EC2806 
 141      B9DBAC
 142 007d 72E2795B 		.ascii	"r\342y[\273\013[\307Xb\035\026*\204\010\031?\032\205"
 142      BB0B5BC7 
 142      58621D16 
 142      2A840819 
 142      3F1A85
 143 0090 79638A09 		.ascii	"yc\212\011\205\304%\202\364a\262>\307\010\271h\267\016"
 143      85C42582 
 143      F461B23E 
 143      C708B968 
 143      B70E
 144 00a2 A0F07B77 		.ascii	"\240\360{wu\017\033\231MH\345\363\342i\374Ix\273\\\252"
ARM GAS  /tmp/ccOjc5ii.s 			page 11


 144      750F1B99 
 144      4D48E5F3 
 144      E269FC49 
 144      78BB5CAA 
 145 00b6 C51F87B7 		.ascii	"\305\037\207\267\352\017\242\033\307\015\002\011zF\020"
 145      EA0FA21B 
 145      C70D0209 
 145      7A4610
 146 00c5 95A02A83 		.ascii	"\225\240*\203\201\260J\307\240\243\036\370\202+\346"
 146      81B04AC7 
 146      A0A31EF8 
 146      822BE6
 147 00d4 D34B898D 		.ascii	"\323K\211\215\256\2520\027\003H\302\2061\313\225o\013"
 147      AEAA3017 
 147      0348C286 
 147      31CB956F 
 147      0B
 148 00e5 FB68964D 		.ascii	"\373h\226M\341\334\363\036J$\212\355\200\012^\243D\226"
 148      E1DCF31E 
 148      4A248AED 
 148      800A5EA3 
 148      4496
 149 00f7 08362BF2 		.ascii	"\0106+\362\277*\031\377\221\026\222\242\3311\346\301"
 149      BF2A19FF 
 149      911692A2 
 149      D931E6C1 
 150 0107 BAB9F23C 		.ascii	"\272\271\362<Kb\204\301\316=(\310q\010\357\317\3176"
 150      4B6284C1 
 150      CE3D28C8 
 150      7108EFCF 
 150      CF36
 151 0119 2F6B379A 		.ascii	"/k7\232\336\3779\027\035\307\022&\251\273\257d\377u"
 151      DEFF3917 
 151      1DC71226 
 151      A9BBAF64 
 151      FF75
 152 012b D9A07907 		.ascii	"\331\240y\007\027\346\203y$1*\2202\313\024\253\327E"
 152      17E68379 
 152      24312A90 
 152      32CB14AB 
 152      D745
 153 013d BC12DB00 		.ascii	"\274\022\333\000\0029k\2357\325\374\023\357mQs\255\263"
 153      02396B9D 
 153      37D5FC13 
 153      EF6D5173 
 153      ADB3
 154 014f 27FC9CD0 		.ascii	"'\374\234\320\375\361\250E\3266\237X`;\255XS\331\243"
 154      FDF1A845 
 154      D6369F58 
 154      603BAD58 
 154      53D9A3
 155 0162 3B95FD0E 		.ascii	";\225\375\016\205\223r_\035\333\034\303$\006\375\260"
 155      8593725F 
 155      1DDB1CC3 
 155      2406FDB0 
 156 0172 0FE84EA5 		.ascii	"\017\350N\245x}:\232\273y\256]\301EV\351LJ\300\363\326"
 156      787D3A9A 
ARM GAS  /tmp/ccOjc5ii.s 			page 12


 156      BB79AE5D 
 156      C14556E9 
 156      4C4AC0F3 
 157 0187 98709472 		.ascii	"\230p\224r\246\270=\235\347\003\351\241WC\\N\211\311"
 157      A6B83D9D 
 157      E703E9A1 
 157      57435C4E 
 157      89C9
 158 0199 37133617 		.ascii	"7\0236\027JK=\226\021\"\225\205g\267 r\216\233\327\274"
 158      4A4B3D96 
 158      11229585 
 158      67B72072 
 158      8E9BD7BC 
 159 01ad 7F303D90 		.ascii	"\1770=\220\236&j\341\270\366\330\333\027\212\262{\257"
 159      9E266AE1 
 159      B8F6D8DB 
 159      178AB27B 
 159      AF
 160 01be BD1D3266 		.ascii	"\275\0352f\365\214\246xL\344\264\234HHhW\266r\334\031"
 160      F58CA678 
 160      4CE4B49C 
 160      48486857 
 160      B672DC19 
 161 01d2 60F99C45 		.ascii	"`\371\234E\245\335\215\363\353n\340l\302\375\005\010"
 161      A5DD8DF3 
 161      EB6EE06C 
 161      C2FD0508 
 162 01e2 5CCC97   		.ascii	"\\\314\227"
 163              		.text
 164              		.section	.gnu.lto_.symbol_nodes.6d57a9e53d0d0a49,"",%progbits
 165 0000 789C45C8 		.ascii	"x\234E\310\273\015\2000\020\203a\373.\241d\005F=:(i"
 165      BB0D8030 
 165      108361FB 
 165      2EA16405 
 165      463D3A28 
 166 0015 7816D982 		.ascii	"x\026\331\202\011(\3221\003RZf@ \201\210\253\377\263"
 166      0928D231 
 166      03525A66 
 166      40208188 
 166      ABFFB3
 167 0028 4060F826 		.ascii	"@`\370&=\237\356v\300,\264\364\023\237\202\0144\346"
 167      3D9FEE76 
 167      C02CB4F4 
 167      139F820C 
 167      34E6
 168 003a 57469A64 		.ascii	"WF\232dr\241\351\313\272&g\232\313\0124\377K\341\261"
 168      72A1E9CB 
 168      BA26679A 
 168      CB0A34FF 
 168      4BE1B1
 169 004d C5A80A87 		.ascii	"\305\250\012\207\324\234\225\212\303\266\226\252\005"
 169      D49C958A 
 169      C3B696AA 
 169      05
 170 005a D2711137 		.ascii	"\322q\0217\030k$\244"
 170      186B24A4 
 171              		.text
ARM GAS  /tmp/ccOjc5ii.s 			page 13


 172              		.section	.gnu.lto_.refs.6d57a9e53d0d0a49,"",%progbits
 173 0000 789C6362 		.ascii	"x\234cb`b\340f\200\000F bb\002R\214\014\000\001s\000"
 173      6062E066 
 173      80004620 
 173      62620252 
 173      8C0C0001 
 174 0016 18       		.ascii	"\030"
 175              		.text
 176              		.section	.gnu.lto_.decls.6d57a9e53d0d0a49,"",%progbits
 177 0000 789CBD5A 		.ascii	"x\234\275Z{t\024U\232\257[\325Iw\223\346\241\256\236"
 177      7B741455 
 177      9AAF5BD5 
 177      497793E6 
 177      A1AE9E
 178 0013 70E6619C 		.ascii	"p\346a\234\243\273\256\263\022\234U\006\377\330\321"
 178      A3BBAEB3 
 178      129C5506 
 178      FFD8D1
 179 0022 19F61CF5 		.ascii	"\031\366\034\365\234q\217G\216\307\375\313\266\350\024"
 179      9C718F47 
 179      8EC7FDCB 
 179      B6E814
 180 0031 498FFDB2 		.ascii	"I\217\375\262\273B\310\376c\245\003\204A\204@\344\021"
 180      BB42C8FE 
 180      63A50384 
 180      418440E4 
 180      11
 181 0042 41080F5F 		.ascii	"A\010\017_\370@\324\020\021&6\256`\210$\001\024\242"
 181      F840D410 
 181      112636AE 
 181      60882401 
 181      14A2
 182 0054 B0405C41 		.ascii	"\260@\\At\030\230\010D\311\010d\277\373UUw\325\355\252"
 182      74189808 
 182      44C90864 
 182      BFFB5555 
 182      77D5EDAA 
 183 0068 EEAAB04E 		.ascii	"\356\252\260N\235\334\233\333U\367\373\335\357}\037"
 183      9DDC9BDB 
 183      55F7FBDD 
 183      EF7D1F
 184 0077 553CC773 		.ascii	"U<\307s\345<\307\215\3005t7\307\375\262\224\343<\034"
 184      E53CC78D 
 184      C0357437 
 184      C7FDB294 
 184      E33C1C
 185 008a C7FD060A 		.ascii	"\307\375\006\012\321\012\275\3406\267\016J\010nTC\211"
 185      D10ABDE0 
 185      36B70E4A 
 185      086E5443 
 185      89
 186 009b 434941A9 		.ascii	"CIA\251#j\237z\275\243v\321\276\327By\003\3128(\001"
 186      236A9F7A 
 186      BDA376D1 
 186      BED74279 
 186      03CA3828 
 187 00b0 285D5ADF 		.ascii	"(]Z\337\006\250\376\013\312\036(\335P6\300\275\211\360"
ARM GAS  /tmp/ccOjc5ii.s 			page 14


 187      06A8FE0B 
 187      CA1E28DD 
 187      5036C0BD 
 187      89F0
 188 00c2 7F33FCDF 		.ascii	"\1773\374\337\012\305\003\355\275Pd(=P\022P\306\300"
 188      0AC503ED 
 188      BD506428 
 188      3D501250 
 188      C6C0
 189 00d4 7D05FE2F 		.ascii	"}\005\376/\204R\016\345\237\240<\014\245\035\356\357"
 189      84520EE5 
 189      9FA03C0C 
 189      A51DEEEF 
 190 00e4 80D20945 		.ascii	"\200\322\011E\200\337?\321\372\322\361{\241}\000\312"
 190      80DF3FD1 
 190      FAD2F17B 
 190      A17D00CA 
 191 00f4 41288735 		.ascii	"A(\2075~)\337_B\371\012\3127D\225\365q\370\377\030\224"
 191      7E29DF5F 
 191      42F90ACA 
 191      374495F5 
 191      71F8FF18 
 192 0109 33245F0E 		.ascii	"3$_\016*\3578\0139(\337F9(\337\224\377\036MF\3123\225"
 192      2AEF380B 
 192      3928DF46 
 192      3928DF94 
 192      FF1E4D46 
 193 0120 C36BE09B 		.ascii	"\303k\340\233\362Kym7\360;F\033\303\310\353y\215\317"
 193      F24B796D 
 193      37F03B46 
 193      1BC3C8EB 
 193      798DCF
 194 0133 4B0CAF56 		.ascii	"K\014\257Vz\256\326\306\240\374\030y\244:\345\301\256"
 194      7AAED6C6 
 194      A0FC1879 
 194      A43AE5C1 
 194      AE
 195 0144 355A7FBF 		.ascii	"5Z\177\277\326\3278\216\300\253\3663\216!@\277\010\374"
 195      D6D7388E 
 195      C0ABF633 
 195      8E2140BF 
 195      08FC
 196 0156 8F42F1F1 		.ascii	"\217B\361\361\346\261n\344\326(m\003\003'O\277;QiKg"
 196      E6B16EE4 
 196      D6286D03 
 196      03274FBF 
 196      3B51694B 
 197 016b 4646EEE1 		.ascii	"FF\356\341n\340\226)p\265\315S\024\"\373\271\371\332"
 197      6EE09629 
 197      70B5CD53 
 197      1422FBB9 
 197      F9DA
 198 017d 8FFBBB80 		.ascii	"\217\373\273\200\217\377$\"\031\347\347*\260\021\360"
 198      8FFF2422 
 198      19E7E72A 
 198      B011F0
 199 018c A3AA6FE1 		.ascii	"\243\252o\3416*J\363\300\345\215\013\377MQ|\"\331@\374"
ARM GAS  /tmp/ccOjc5ii.s 			page 15


 199      362A4AF3 
 199      C0E58D0B 
 199      FF4D517C 
 199      22D940FC 
 200 01a0 E0808F12 		.ascii	"\340\200\217\022\3566\356\025 mV\224\365\225\214\204"
 200      EE36EE15 
 200      206D5694 
 200      F5958C84 
 201 01b0 1AFB0EA1 		.ascii	"\032\373\016\241\333Z?\272^\361\210\344%\004N\023\302"
 201      DB5A3FBA 
 201      5EF188E4 
 201      25044E13 
 201      C2
 202 01c1 89E44572 		.ascii	"\211\344Er\233[\230\201\366\356\367\247\"\207\233\020"
 202      9B5B9881 
 202      F6EEF7A7 
 202      22879B10 
 203 01d1 E85D0648 		.ascii	"\350]\006H$\245~#\177\370[\357@\321\340'\035\351\"\215"
 203      24A57E23 
 203      7FF85BEF 
 203      40D1E027 
 203      1DE9228D 
 204 01e5 2BF29476 		.ascii	"+\362\224v\207\376\360r\177w:+1)\304zr\003\266\004\016"
 204      87FEF072 
 204      7F773A2B 
 204      3129C47A 
 204      7203B604 
 205 01fa 0D5DC62D 		.ascii	"\015]\306-P\224\264\246\234k\271%\024\257\302\240\246"
 205      5094B4A6 
 205      9C6BB925 
 205      14AFC2A0 
 205      A6
 206 020b 368F0EF0 		.ascii	"6\217\016\360\3579u/[\3643\252\356\315\344Z\0009\305"
 206      EF39752F 
 206      5BF433AA 
 206      EECDE45A 
 206      0039C5
 207 021e 68A92808 		.ascii	"h\251(\010\317\015\"\311[@\256\022\"\25420\264\370h"
 207      CF0D22C9 
 207      5B40AE12 
 207      22AC3230 
 207      B4F868
 208 0231 9A348053 		.ascii	"\2324\200S\251\3178\023\254\351\272\211k\003\202\314"
 208      A9CF3813 
 208      ACE9BA89 
 208      6B0382CC 
 209 0241 F7DDAB89 		.ascii	"\367\335\253\211\322\366\001\261\030\362^}D_\316\274"
 209      D2F601B1 
 209      18F25E7D 
 209      445FCEBC 
 210 0251 CB167DBA 		.ascii	"\313\026}\272\204\314A\374\255\310\372*\336\222\365"
 210      84CC41FC 
 210      ADC8FA2A 
 210      DE92F5
 211 0260 B67BED80 		.ascii	"\266{\355\200x\356U$\331\226\307z_\237\316\3726\007"
 211      78EE5524 
 211      D996C77A 
ARM GAS  /tmp/ccOjc5ii.s 			page 16


 211      5F9FCEFA 
 211      3607
 212 0272 ACA733FB 		.ascii	"\254\2473\373\027<?\221\262.\2227H\031\340\356\310\342"
 212      173C3F91 
 212      B22E9237 
 212      4819E0EE 
 212      C8E2
 213 0284 5A194E6B 		.ascii	"Z\031Nk\252\227\326\301\214w\240;\320,\352`;]\203UX"
 213      AA97D6C1 
 213      8C77A03B 
 213      D02CEA60 
 213      3B5D8355 
 214 0299 B1AA7B5D 		.ascii	"\261\252{]NZ\221l'\267@\275\203\334\004u'\324\331\213"
 214      4E5A916C 
 214      27B740BD 
 214      83DC0475 
 214      27D4D98B 
 215 02ad E776F3BA 		.ascii	"\347v\363\272U\255TW\\\204\341\356\325\250\022\214\327"
 215      55AD5457 
 215      5C84E1EE 
 215      D5A8128C 
 215      D7
 216 02be B4A38CD2 		.ascii	"\264\243\214\322\246e\224\0170^\367\362\026\201\357"
 216      A665940F 
 216      305EF7F2 
 216      1681EF
 217 02cd 08A8B569 		.ascii	"\010\250\265i\327N\222F\363\355B\250OG\015\325\336\375"
 217      D74E9246 
 217      F3ED42A8 
 217      4F470DD5 
 217      DEFD
 218 02df E112D288 		.ascii	"\341\022\322\210P]\010u\224g\263\210\227\311\"^sT\343"
 218      505D0875 
 218      9467B388 
 218      97C9225E 
 218      7354E3
 219 02f2 63AD4183 		.ascii	"c\255A\203y<\367#w\347\271\257Y\323Y9\214\317\316t\312"
 219      793CF723 
 219      77E7B9AF 
 219      59D35939 
 219      8CCFCE74 
 220 0307 C085BE63 		.ascii	"\300\205\276c|\253\222\231#\350\021Tj\247%\236;\203"
 220      7CAB9299 
 220      23E81154 
 220      6AA7259E 
 220      3B83
 221 0319 63F5E445 		.ascii	"c\365\344EP\377^=\202z\034EP{\367\012t\227\242\031\214"
 221      50FF5E3D 
 221      827A1C45 
 221      507BF70A 
 221      7497A219 
 222 032e D7C7BF19 		.ascii	"\327\307\277\031\307\337(\320\361\017\260\343\357?\262"
 222      C7DF28D0 
 222      F10FB0E3 
 222      EF3FB2
 223 033d AB511BFF 		.ascii	"\253Q\033\377\200\243\361[{\237\315\037_$\277\271\276"
 223      80A3F15B 
ARM GAS  /tmp/ccOjc5ii.s 			page 17


 223      7B9FCD1F 
 223      5F24BFB9 
 223      BE
 224 034e 90770CF5 		.ascii	"\220w\014\365\177\365\2556\312!\014\325c\002\353\035"
 224      7FF5AD36 
 224      CA210CD5 
 224      6302EB1D 
 225 035e F79499ED 		.ascii	"\367\224\231\355\007\277\015\035 \337f\371\037U\246"
 225      07BF0D1D 
 225      20DF66F9 
 225      1F55A6
 226 036d 004177B7 		.ascii	"\000Aw\267\220\245\215J\327d\235\207?\273F\2540ibu/"
 226      90A58D4A 
 226      D7649D87 
 226      3FBB46AC 
 226      30696275 
 227 0382 E61E15EC 		.ascii	"\346\036\025\354\214\0230[WJg\326\030\301\276u\015f"
 227      8C13305B 
 227      574A67D6 
 227      18C1BE75 
 227      0D66
 228 0394 E6EC4D23 		.ascii	"\346\354M#\330\220\023\260\011\366\234\275e\004\273"
 228      D89013B0 
 228      09F69CBD 
 228      6504BB
 229 03a3 E81ACCCC 		.ascii	"\350\032\314\314\331;F\260\037\234\200\225\333s\266"
 229      D93B46B0 
 229      1F9C8095 
 229      DB73B6
 230 03b2 D50876C5 		.ascii	"\325\010v\3055\230\231\263w\215`\015\036\007`\025\026"
 230      359899B3 
 230      778D600D 
 230      1E076015 
 230      16
 231 03c3 9C652FBB 		.ascii	"\234e/\273u\310~\222\365s\236\233\343\321s\202K\237"
 231      75C87E92 
 231      F5739E9B 
 231      E3D17382 
 231      4B9F
 232 03d5 E672184D 		.ascii	"\346r\030M\036\2679\314$7L\341\307\327\223\0265.\324"
 232      1EB739CC 
 232      24374CE1 
 232      C7D79316 
 232      352ED4
 233 03e8 69F46927 		.ascii	"i\364i'\210\005\034\246\371c\303\234\274\3045\230\331"
 233      88051CA6 
 233      F963C39C 
 233      BCC43598 
 233      D9
 234 03f9 2C6B2898 		.ascii	",k(\230)\327hs\322\300\013\231\362\225\271t\347\323"
 234      29D76873 
 234      D2C00B99 
 234      F295B974 
 234      E7D3
 235 040b B1E88A5A 		.ascii	"\261\350\212Z\315m\260\300\346\263\235\225\362r\353"
 235      CD6DB0C0 
 235      E6B39D95 
ARM GAS  /tmp/ccOjc5ii.s 			page 18


 235      F272EB
 236 041a BE22398F 		.ascii	"\276\"9\217s\373\005\342\317r\241\266\365\326\010\241"
 236      73FB05E2 
 236      CF72A1B6 
 236      F5D608A1 
 237 042a 7A5EE1B1 		.ascii	"z^\341\261Z\253#@aR;O\370\326\350\011\253\235\250\251"
 237      5AAB2340 
 237      61523B4F 
 237      F8D6E809 
 237      AB9DA8A9 
 238 043e 4028ECB3 		.ascii	"@(\354\263SSf\2362\2374l\371i\301\025\342P\377\331u"
 238      5353669E 
 238      329F346C 
 238      F969C115 
 238      E250FFD9 
 239 0453 DA3A6018 		.ascii	"\332:`\030'\357u\036\313u\200#\260\326\246>}Qq\011\301"
 239      27EF751E 
 239      CB758023 
 239      B0D6A63E 
 239      7D517109 
 240 0468 5EBB0AB0 		.ascii	"^\273\012\260\366\356\243\372\262b\004\301\332=\354"
 240      F6EEA3FA 
 240      B26204C1 
 240      DA3DEC
 241 0477 C4E16796 		.ascii	"\304\341g\226\025~\363\304\357\367\347\032#\372e6\345"
 241      157EF3C4 
 241      EFF7E71A 
 241      23FA6536 
 241      E5
 242 0488 8F4A6367 		.ascii	"\217Jcg\376\213F\363g\\\233\337\024%\260\020\371\216"
 242      FE8B46F3 
 242      675C9BDF 
 242      1425B010 
 242      F98E
 243 049a 5FA1641A 		.ascii	"_\241d\032\004\203\277\027\014\016XD^8-\340\"r\016O"
 243      0483BF17 
 243      0C0E5844 
 243      5E382DE0 
 243      22720E4F 
 244 04ae F5FA91B5 		.ascii	"\365\372\221\265\221\034\000\2656\275\376K\004jB\240"
 244      911C00B5 
 244      36BDFE4B 
 244      046A42A0 
 245 04be 7DA3066A 		.ascii	"}\243\006j\357^\243nC\027 \320gy\226&\214\245\211\331"
 245      EF5EA36E 
 245      431720D0 
 245      67799626 
 245      8CA589D9 
 246 04d2 02D9C8D3 		.ascii	"\002\331\310\323\002\357\307\352\313s\377\313\232\313"
 246      02EFC7EA 
 246      CB73FFCB 
 246      9ACB
 247 04e0 244E81E9 		.ascii	"$N\201\351!\233s/-%\347\323\312\312\311.\3545\250\331"
 247      219B732F 
 247      2D25E7D3 
 247      CACAC92E 
 247      EC35A8D9 
ARM GAS  /tmp/ccOjc5ii.s 			page 19


 248 04f4 6B316AE7 		.ascii	"k1j\347\353<\355P\365\273\023c\320\265\030>\263\030"
 248      EB3CED50 
 248      F5BB1363 
 248      D0B5183E 
 248      B318
 249 0506 8B47DC8B 		.ascii	"\213G\334\213qQ\023\343Y\024\343\273\377\0071\256\270"
 249      715113E3 
 249      5914E3BB 
 249      FF0731AE 
 249      B8
 250 0517 16638241 		.ascii	"\026c\202A\014\334\304>\253\316\200\327qK\013/\343)"
 250      0CDCC43E 
 250      ABCE80D7 
 250      714B0B2F 
 250      E329
 251 0529 3FADFC75 		.ascii	"?\255\374u\246%t\346`/\251Po\027\337\272\237\357]\255"
 251      A62574E6 
 251      602FA950 
 251      6F17DFBA 
 251      9FEF5DAD 
 252 053d ED7FD5D3 		.ascii	"\355\177\325\323\240\306\022\242A\216fU\253d\232\373"
 252      A0C612A2 
 252      418E6655 
 252      AB649AFB 
 253 054d 70AE55C1 		.ascii	"p\256U\301\026\\\025X:\263v\261\2769\277\207N\335-W"
 253      165C1558 
 253      3AB376B1 
 253      BE39BF87 
 253      4EDD2D57 
 254 0561 09B7A38F 		.ascii	"\011\267\243\217\235\223\230=\303f\233|\227=\267\330"
 254      9D93983D 
 254      C3669B7C 
 254      973DB7D8 
 255 0571 AD4F241B 		.ascii	"\255O$\033x\312\320s%\254\263\274A\230]\003\275a\350"
 255      78CAD073 
 255      25ACB3BC 
 255      41985D03 
 255      BD61E8
 256 0584 6267C3F5 		.ascii	"bg\303\365\274!\371\276~u6\000\377\031j\321WP\252!\336"
 256      BC21F9BE 
 256      7E753600 
 256      FF196AD1 
 256      5750AA21 
 257 0599 BE4ACD0D 		.ascii	"\276J\315\015k\206(\266\307{\\\307\012\240 \333q\330"
 257      6B8628B6 
 257      C77B5CC7 
 257      0AA020DB 
 257      71D8
 258 05ab 5779668B 		.ascii	"Wyf\213\267\345\354\300<M\217\364Yq'=r\322\257,\015"
 258      B7E5ECC0 
 258      3C4D8FF4 
 258      5971273D 
 258      72D2AF2C 
 259 05c0 A8A74522 		.ascii	"\250\247E\"\311\020^C\265\232\247\213\273\3501\251k"
 259      C9105E43 
 259      B59AA78B 
 259      BBE831A9 
ARM GAS  /tmp/ccOjc5ii.s 			page 20


 259      6B
 260 05d1 B28BD3D2 		.ascii	"\262\213\323\322w\264\263\2157\3254\227g\362\227\330"
 260      77B4B38D 
 260      37D53497 
 260      67F297D8 
 261 05e1 59C0C5E1 		.ascii	"Y\300\305\341 \317\235\315\252\310\351j\231\275\354"
 261      20CF9DCD 
 261      AAC8E96A 
 261      99BDEC
 262 05f0 5C6A93D1 		.ascii	"\\j\223\321\245\316]\235\003\200K\355\336\250\272T1"
 262      A5CE5D9D 
 262      03804BED 
 262      DEA8BA54 
 262      31
 263 0601 17508871 		.ascii	"\027P\210q\021\315s\3038r\007\353\003\313\316u5i\033"
 263      11CD73C3 
 263      387207EB 
 263      03CBCE75 
 263      35691B
 264 0614 F00E473E 		.ascii	"\360\016G>0d\341\003\035\243\364\001p\350o\366\020\204"
 264      3064E103 
 264      1DA3F401 
 264      70E86FF6 
 264      1084
 265 0626 533705EB 		.ascii	"S7\005\353K\211\031\316\345f\371\222\344V1\252we>?I"
 265      4B8919CE 
 265      E566F992 
 265      E45631AA 
 265      77653E3F 
 266 063b 53F5FB3C 		.ascii	"S\365\373<=\005}\271\224u-U3\006\327\312\251Q$\333x"
 266      3D057DB9 
 266      94752D55 
 266      3306D7CA 
 266      A95124DB 
 267 0650 BA4B788F 		.ascii	"\272Kx\217\247'\200\333\261\376\023o8\007\264s\213\316"
 267      A72780DB 
 267      B1FE136F 
 267      3807B473 
 267      8BCE
 268 0662 9C5B0005 		.ascii	"\234[\000\005\253F\247{\265\242\303l5z\337\233\245W"
 268      AB46A77B 
 268      B5A2C36C 
 268      357ADF9B 
 268      A557
 269 0674 E77D17FA 		.ascii	"\347}\027\372z=x\254\345\342H\3625-l?\304\260\355\310"
 269      7A3D78AC 
 269      E5E248F2 
 269      352D6C3F 
 269      C4B0EDC8 
 270 0688 D3ED2E36 		.ascii	"\323\355.6l\235\234\317\375\367h\005\311^<\327]\352"
 270      6C9D9CCF 
 270      FDF76805 
 270      C95E3CD7 
 270      5DEA
 271 069a 60695D61 		.ascii	"`i]a\241s=\273/>\244\255\016\212\036\362\351\363V\357"
 271      A1733DBB 
 271      2F3EA4AD 
ARM GAS  /tmp/ccOjc5ii.s 			page 21


 271      0E8A1EF2 
 271      E9F356EF 
 272 06ae DE06EDBC 		.ascii	"\336\006\355\274\275\033=m/\243\015\007\247\205G\220"
 272      BD1B3D6D 
 272      2FA30D07 
 272      A7854790 
 273 06be A4870DE3 		.ascii	"\244\207\015\343\241\305\271\323B\007a\234\316\274m"
 273      A1C5B9D3 
 273      4207619C 
 273      CEBC6D
 274 06cd 3A6FD73D 		.ascii	":o\327=\260\247\260\007\026\324\250\311\210=\206\000"
 274      B0A7B007 
 274      16D4A8C9 
 274      883D8600 
 275 06dd E9C300D9 		.ascii	"\351\303\000\331g\014\012\236;\355D\373\267\332\271"
 275      670C0A9E 
 275      3BED44FB 
 275      B7DAB9
 276 06ec 22A4A103 		.ascii	"\"\244\241\003\352\253\016\375\325\305y\026\317*\021"
 276      EAAB0EFD 
 276      D5C57916 
 276      CF2A11
 277 06fb 99F08CD6 		.ascii	"\231\360\214\326Lg\232?\301\365\222\352\245\227\234"
 277      4C679A3F 
 277      C1F592EA 
 277      A5979C
 278 070a 3037D91E 		.ascii	"07\331\036lm\213\256\334\255\270>\231\353u\2007\325"
 278      6C6D8BAE 
 278      DCADB83E 
 278      99EB7580 
 278      37D5
 279 071c 4ED874A6 		.ascii	"N\330t\246\343\023}q\250\036\354?\343\032\317\314\337"
 279      E3137D71 
 279      A81EEC3F 
 279      E31ACFCC 
 279      DF
 280 072d C116D37A 		.ascii	"\301\026\323zn\271\023\270{\035\333>\367\036K$\357\340"
 280      6EB913B8 
 280      7B1DDB3E 
 280      F71E4B24 
 280      EFE0
 281 073f 114A3BBE 		.ascii	"\021J;\276\036\331\211\365^\254\377\202\365Y\254\007"
 281      1ED989F5 
 281      5EACFF82 
 281      F559AC07 
 282 074f B1FE1EEB 		.ascii	"\261\376\036\353FL\240\213\260n\301z%\326{\260>\200"
 282      464CA08B 
 282      B06EC17A 
 282      25D67BB0 
 282      3E80
 283 0761 F5A7581F 		.ascii	"\365\247X\037\302\3723\254\017;I\270\314\012P{\337\247"
 283      C2FA33AC 
 283      0F3B49B8 
 283      CC0A507B 
 283      DFA7
 284 0773 AECCB0F1 		.ascii	"\256\314\260\361\210`\360\317\325^sh\336\314mP\224\245"
 284      8860F0CF 
ARM GAS  /tmp/ccOjc5ii.s 			page 22


 284      D55E7368 
 284      DECC6D50 
 284      94A5
 285 0785 03274F7F 		.ascii	"\003'O\177&@\006\364\350\023\326\213\330m\035\271\321"
 285      264006F4 
 285      E813D68B 
 285      D86D1DB9 
 285      D1
 286 0796 72586D1D 		.ascii	"rXm\035\212\264\315\312*\351~}\035\370J\0212\215\247"
 286      8AB4CDCA 
 286      2AE97E7D 
 286      1DF84A11 
 286      328DA7
 287 07a9 7FE45EA0 		.ascii	"\177\344^\240\371`\363\274\271\023<\372M{2M\316\243"
 287      F960F3BC 
 287      B9133CFA 
 287      4D7B324D 
 287      CEA3
 288 07bb BCE98DB5 		.ascii	"\274\351\215\265\372\276:s\374\243g\254\337W\253<\332"
 288      FABE3A73 
 288      FCA367AC 
 288      DF57AB3C 
 288      DA
 289 07cc 29ED047F 		.ascii	")\355\004\177"
 290 07d0 0367D60E 		.ascii	"\003g\326\016,\213\031\325h|\246\225\267^V\374\372\322"
 290      2C8B19D5 
 290      687CA695 
 290      B75E56FC 
 290      FAD2
 291 07e2 5B245FF2 		.ascii	"[$_\362\005\331<i\311\346\373\013>\206\365\200ridD`"
 291      05D93C69 
 291      C9E6FB0B 
 291      3E86F580 
 291      72696444 
 292 07f7 D9B47991 		.ascii	"\331\264y\221@\261\276\346M\357pU\036\212\030\270\303"
 292      40B1BEE6 
 292      4DEF7055 
 292      1E8A18B8 
 292      C3
 293 0808 D2C0CA0F 		.ascii	"\322\300\312\017U\367\353\256r\234\247)\361\224\215"
 293      55F7EBAE 
 293      729CA729 
 293      F1948D
 294 0817 1866DBAE 		.ascii	"\030f\333\256\325m+\222/\212\220\231m\373\2142w\002"
 294      D56D2B92 
 294      2F8A9099 
 294      6DFB8C32 
 294      7702
 295 0829 41E1388D 		.ascii	"A\3418\215\312\024K\247\363\2654\320\014\331\376x\023"
 295      CA144BA7 
 295      F3B534D0 
 295      0CD9FE78 
 295      13
 296 083a 59D2D8D6 		.ascii	"Y\322\330\326\245\014\322\011\321\271\242\006YE\321"
 296      A50CD209 
 296      D1B9A206 
 296      5945D1
ARM GAS  /tmp/ccOjc5ii.s 			page 23


 297 0849 331E4631 		.ascii	"3\036F1\037\346\231W\355z\316\212\225\314\360\261E\023"
 297      1FE69957 
 297      ED7ACE8A 
 297      95CCF0B1 
 297      4513
 298 085b 9575AEFD 		.ascii	"\225u\256\375\352\202\225\305\030F\016\3300\362\235"
 298      EA8295C5 
 298      18460ED8 
 298      30F29D
 299 086a 25234BD6 		.ascii	"%#K\326.\3142\242z\004\317\035\263A\270hF\370\005\267"
 299      2ECC32A2 
 299      7A04CF1D 
 299      B341B868 
 299      46F805B7 
 300 087e 8E221C5C 		.ascii	"\216\"\034\\\263\234\000\202\242\\\201\015\202\325\302"
 300      B39C0082 
 300      A25C810D 
 300      82D5C2
 301 088d D1AB4B91 		.ascii	"\321\253K\221\340\014{\321\013\353\264s\310\277\341"
 301      E00C7BD1 
 301      0BEBB473 
 301      C8BFE1
 302 089c 9C7EDA6B 		.ascii	"\234~\332k9\247\333\003\361\334\367Hr9\177N?6O\233\323"
 302      39A7DB03 
 302      F1DCF748 
 302      72397F4E 
 302      3F364F9B 
 303 08b1 2F3B5A9A 		.ascii	"/;Z\232/9b\373\372\177 \273\350\375\251\201\367\336"
 303      2F3962FB 
 303      FA7F20BB 
 303      E8FDA981 
 303      F7DE
 304 08c3 FE2F34DE 		.ascii	"\376/4\336\033\004\312{\203\257(\357f \236[\204$\364"
 304      1B04CA7B 
 304      83AF28EF 
 304      66209E5B 
 304      8424F4
 305 08d6 4527C3FB 		.ascii	"E'\303\373\231\271\032\357\364Yq\336;\372\215\363\271"
 305      99B91AEF 
 305      F45971DE 
 305      3BFA8DF3 
 305      B9
 306 08e7 BEB1A0B4 		.ascii	"\276\261\240\264\243\333X\274\333\217\363\371\007\030"
 306      A3DB58BC 
 306      DB8FF3F9 
 306      0718
 307 08f5 921FB360 		.ascii	"\222\037\263`\256\266\025Jf\207\012\246\276\243=\355"
 307      AEB6154A 
 307      66870AA6 
 307      BEA33DED 
 308 0905 1AACC2C4 		.ascii	"\032\254\302\304\331'+\314+\2573N\360\012\274U\371\264"
 308      D9272BCC 
 308      2BAF334E 
 308      F00ABC55 
 308      F9B4
 309 0917 3FFB5645 		.ascii	"?\373VE$\177u\015ff\356p\277\341\025\315\352\254m\013"
 309      247F750D 
ARM GAS  /tmp/ccOjc5ii.s 			page 24


 309      6666EE70 
 309      BFE115CD 
 309      EAAC6D0B 
 310 092b 8059BD7B 		.ascii	"\200Y\275{\260\272\214N\"\222y\002]\0274\011t\366\236"
 310      B0BA8C4E 
 310      22927902 
 310      5D173409 
 310      74F69E
 311 093e 8FF51FB1 		.ascii	"\217\365\037\261^\200\365\323X/\024L+\306\215>=J,]\261"
 311      5E80F5D3 
 311      582F144C 
 311      2BC68D3E 
 311      3D4A2C5D 
 312 0953 984B2899 		.ascii	"\230K(\231V\373\3600\235\227d#\373T\003\231\213.\334"
 312      56FBF030 
 312      9D976423 
 312      FB540399 
 312      8B2EDC
 313 0966 8CD1B1A9 		.ascii	"\214\321\261\251xt0\347.\031\244h\311\013\216\276Cz"
 313      787430E7 
 313      2E19A468 
 313      C90B8EBE 
 313      437A
 314 0978 70B43808 		.ascii	"p\2648\010\216t\346\350rg\307>mY\215\374\203A\216\336"
 314      8E74E6E8 
 314      7267C73E 
 314      6D598DFC 
 314      83418EDE 
 315 098c 13FA573E 		.ascii	"\023\372W>+Q\216\376\342r\230\201x\356\024\222\254\312"
 315      2B518EFE 
 315      E2729881 
 315      78EE1492 
 315      ACCA
 316 099e 1764B72E 		.ascii	"\027d\267.\310*G\202<\277\\\367\375\025Bn\327\261\252"
 316      C82A4782 
 316      3CBF5CF7 
 316      FD15426E 
 316      D7B1AA
 317 09b1 B087D99A 		.ascii	"\260\207\331\2324\235Ys\010\335U\005{\3375\230\331\367"
 317      349D5973 
 317      08DD5505 
 317      7BDF3598 
 317      D9F7
 318 09c3 B71C5A5D 		.ascii	"\267\034Z]\256\264\355\324\277\267Q\346)\267\276\234"
 318      AEB4EDD4 
 318      BFB751E6 
 318      29B7BE9C 
 319 09d3 53C9041D 		.ascii	"S\311\004\035\2017\252v\353m\270\271]'\320\373\027\031"
 319      8137AA76 
 319      EB6DB8B9 
 319      5D27D0FB 
 319      1719
 320 09e5 C53A076A 		.ascii	"\305:\007jm\352\370\027\004\332\210@i\377h\201\332\273"
 320      6DEAF817 
 320      04DA8840 
 320      69FF6881 
 320      DABB
ARM GAS  /tmp/ccOjc5ii.s 			page 25


 321 09f7 5FBF1B81 		.ascii	"_\277\033\201^B\240\247\031 \221\010\314n[0\357\266"
 321      5E42A0A7 
 321      19209108 
 321      CC6E5B30 
 321      EFB6
 322 0a09 057FAE41 		.ascii	"\005\177\256A\327`?bg\330w\370\211\331`&\211\212\245"
 322      D7603F62 
 322      67D877F8 
 322      89D96026 
 322      898AA5
 323 0a1c 657A1CB1 		.ascii	"ez\034\261\267\004\217#Lq\341|5\364\272\300,B\356a\326"
 323      B7048F23 
 323      4C71E17C 
 323      35F4BAC0 
 323      2C42EE61 
 324 0a31 2085F6F2 		.ascii	" \205\366\362\213\2165hg\247\257\011\230,\031U3G\332"
 324      8B8E3568 
 324      67A7AF09 
 324      982C1955 
 324      3347DA
 325 0a44 742C3B3E 		.ascii	"t,;>\266\010e6\221\223\367\214\347^`\225\346n\372\201"
 325      B6086536 
 325      9193F78C 
 325      E75E6095 
 325      E66EFA81 
 326 0a58 98ED7941 		.ascii	"\230\355yA?\224\306\335\337&'\200V\363\217\325eL\022"
 326      3F94C6DD 
 326      DF262780 
 326      56F38FD5 
 326      654C12
 327 0a6b 22791EB3 		.ascii	"\"y\036\263\374\032\314\346k\261n\303\372U\254\337\026"
 327      FC1ACCE6 
 327      6BB16EC3 
 327      FA55ACDF 
 327      16
 328 0a7c 1CECDA68 		.ascii	"\034\354\332hhg\261\325t\3212\352t1\230\237.\334\200"
 328      6867B1D5 
 328      74D132EA 
 328      7431989F 
 328      2EDC80
 329 0a8f 99149919 		.ascii	"\231\024\231\031\322\322\205\032\375\"\331$0x\356\274"
 329      D2D2851A 
 329      FD22D924 
 329      3078EEBC 
 330 0a9f 39F3EC8A 		.ascii	"9\363\354\212\300\276\307\365T\362\206\237\270\004\233"
 330      C0BEC7F5 
 330      54F2869F 
 330      B8049B
 331 0aae 50C8282D 		.ascii	"P\310(-\006\243,C\243,G\023\264c\275\025\353\016\363"
 331      06A32C43 
 331      A32C4713 
 331      B463BD15 
 331      EB0EF3
 332 0ac1 74DBE167 		.ascii	"t\333\341g\246[\323\334f5\371\033\325\243d\336<\002"
 332      A65BD3DC 
 332      6635F91B 
 332      D5A364DE 
ARM GAS  /tmp/ccOjc5ii.s 			page 26


 332      3C02
 333 0ad3 BA767E32 		.ascii	"\272v~2vF?\031\333\216sT\247\337r\216*t2\326\203$\235"
 333      76463F19 
 333      DB8E7354 
 333      A7DF728E 
 333      2A7432D6 
 334 0aea F92BD12B 		.ascii	"\371+\321+\372\034\325Y|\216\232\323\230i}\356\305\334"
 334      FA1CD559 
 334      7C8E9AD3 
 334      98697DEE 
 334      C5DC
 335 0afc 64DB980D 		.ascii	"d\333\230\015\340s0/\3309\251\351\213\215\243Y>\\:\251"
 335      E073302F 
 335      D839A9E9 
 335      8B8DA359 
 335      3E5C3AA9 
 336 0b10 B5E93A0D 		.ascii	"\265\351:\015\246\313\240\351v\232\015u\2125\224\313"
 336      A6CBA0E9 
 336      769A0D75 
 336      8A3594CB 
 337 0b20 93B46D47 		.ascii	"\223\264mG\364\225\267\372\375\362i\026\257\315\364"
 337      F495B7FA 
 337      FDF26916 
 337      AFCDF4
 338 0b2f B5B21560 		.ascii	"\265\262\025`E!\001.\033\216\002G\360(PA\177[\214\365"
 338      4521012E 
 338      1B8E0247 
 338      F0285041 
 338      7F5B8CF5 
 339 0b43 7B58EF32 		.ascii	"{X\3572\213\364]\326\372\226;&\212\372\221\220\335\302"
 339      8BF45DD6 
 339      FA963B26 
 339      8AFA9190 
 339      DDC2
 340 0b55 319976AB 		.ascii	"1\231v\253\3159\026\245\352\312e\023\206\352o6\372\243"
 340      CD3916A5 
 340      EACA6513 
 340      86EA6F36 
 340      FAA3
 341 0b67 547B7254 		.ascii	"T{rT\327p\315\270VZ9N\375\216G#\231\252\223x5\222n\341"
 341      D770CDB8 
 341      565A394E 
 341      FD8E4723 
 341      99AA9378 
 342 0b7f 1A6C99DE 		.ascii	"\032l\231\336oa\017\273A>\026r\337\012\005\374\271F"
 342      6F610FBB 
 342      413E1672 
 342      DF0A05FC 
 342      B946
 343 0b91 A935BF74 		.ascii	"\2515\277t\003m\007\265\327V\312\301\002T=9*\272\245"
 343      036D07B5 
 343      D756CAC1 
 343      02543D39 
 343      2ABAA5
 344 0ba4 CE0C0E9C 		.ascii	"\316\014\016\234\337\374\355c\257\275\245(\177\204\035"
 344      DFFCED63 
 344      AFBDA528 
ARM GAS  /tmp/ccOjc5ii.s 			page 27


 344      7F841D
 345 0bb3 F1530D73 		.ascii	"\361S\015s\210\363\231\265O\310?6j\035cyl\004\327\313"
 345      88F399B5 
 345      4FC83F36 
 345      6A1D6379 
 345      6C04D7CB 
 346 0bc7 8A903D01 		.ascii	"\212\220=\001\351\025\230\023\220}B\336n\037X\333wd"
 346      E9159813 
 346      907D42DE 
 346      6E1F58DB 
 346      7764
 347 0bd9 08A77E65 		.ascii	"\010\247~ed\344\251\233\324\361xn\203\243\021\016\260"
 347      64E4A99B 
 347      D4F1786E 
 347      83A3110E 
 347      B0
 348 0bea 237C6239 		.ascii	"#|b9\302\366\267\277)\037\316\011\237\035\344\270i\020"
 348      C2F6B7BF 
 348      291FCE09 
 348      9F1DE4B8 
 348      6910
 349 0bfc 5C3AF0DC 		.ascii	"\\:\360\334\2311\244\320\220\007\331!\017Y\0169\324"
 349      9931A4D0 
 349      9007D921 
 349      0F590E39 
 349      D4
 350 0c0d 7762E2E8 		.ascii	"wb\342\350\364}\204]\311\230\016\3004\257g\216W~`\264"
 350      F47D845D 
 350      C9980EC0 
 350      34AF678E 
 350      577E60B4 
 351 0c21 A51D8075 		.ascii	"\245\035\200uH\314\001\330a\241\370\001\330Re\311\356"
 351      48CC01D8 
 351      61A1F801 
 351      D85265C9 
 351      EE
 352 0c32 40335187 		.ascii	"@3Q\207\342\271\371e\244 \241\306\220\246\252\317\225"
 352      E2B9F965 
 352      A420A1C6 
 352      90A6AACF 
 352      95
 353 0c43 87CAB3AA 		.ascii	"\207\312\263\252:\314\252\352\230\245\252\316m\336_"
 353      3ACCAAEA 
 353      98A5AACE 
 353      6DDE5F
 354 0c52 9367FF85 		.ascii	"\223g\377\205eN\354\377%;\302\011k\017[u%\337\303V:"
 354      654EECFF 
 354      253BC209 
 354      6B0F5B75 
 354      25DFC356 
 355 0c67 1AE12B76 		.ascii	"\032\341+v\204S6\036\266\177\005Y\001+1<\305k\233\317"
 355      8453361E 
 355      B67F0559 
 355      012B313C 
 355      C56B9BCF 
 356 0c7b EBA36C2C 		.ascii	"\353\243l,\313s1\221|\226\303\260\032\363\033v\314?"
 356      CB733191 
ARM GAS  /tmp/ccOjc5ii.s 			page 28


 356      7C96C3B0 
 356      1AF31B76 
 356      CC3F
 357 0c8d 0B79675C 		.ascii	"\013yg\\\373\366\015\354:\273\222\314\037P\232\361\214"
 357      FBF60DEC 
 357      3ABB92CC 
 357      1F509AF1 
 357      8C
 358 0c9e CB98CC0C 		.ascii	"\313\230\314\014\323\333C\272\261\306 \245M\312cz\211"
 358      D3DB43BA 
 358      B1C620A5 
 358      4DCA637A 
 358      89
 359 0caf E4AFAE53 		.ascii	"\344\257\256S\336\240M\3123\316\210\271^\240\206-e\314"
 359      DEA04DCA 
 359      33CE88B9 
 359      5EA0862D 
 359      65CC
 360 0cc1 B139C304 		.ascii	"\2619\303\004\317\275WF42\032\221\232\242\267t\016\033"
 360      CFBD5746 
 360      34321A91 
 360      9AA2B774 
 360      0E1B
 361 0cd3 E3EAB7A6 		.ascii	"\343\352\267\246\270\362qM\370\205\322\\\245\201<\231"
 361      B8F2714D 
 361      F885D25C 
 361      A5813C99 
 362 0ce3 9DD16CBE 		.ascii	"\235\321l\276\032\025\311\220\340\243_\037\224\331~"
 362      1A15C990 
 362      E0A35F1F 
 362      94D97E
 363 0cf2 F3493BE8 		.ascii	"\363I;\350B\251m\275U\340\233\277\013V\361\313\304\353"
 363      42A96DBD 
 363      55E09BBF 
 363      0B56F1CB 
 363      C4EB
 364 0d04 D932CB78 		.ascii	"\3312\313x\375\023\033\257\347\013\307k\366\264\376"
 364      FD131BAF 
 364      E70BC76B 
 364      F6B4FE
 365 0d13 F3FFA161 		.ascii	"\363\377\241a\247\262h\2422\311\25618l\223\260\3762"
 365      A7B268A2 
 365      32C9AE31 
 365      386C93B0 
 365      FE32
 366 0d25 719B7DC2 		.ascii	"q\233}\302*t\000|\231\225\270K\310\223\370\212\265\304"
 366      2A74007C 
 366      9995B84B 
 366      C893F88A 
 366      B5C4
 367 0d37 C35462B5 		.ascii	"\303Tb\265\373\027\270\346\276\344(\321\244\225\363"
 367      FB17B8E6 
 367      BEE428D1 
 367      A495F3
 368 0d46 271EBA3F 		.ascii	"'\036\272?\367~\302\216Jcp\304,13\221~]`\"M{\330\211"
 368      F77EC28E 
 368      4A6370C4 
ARM GAS  /tmp/ccOjc5ii.s 			page 29


 368      2C313391 
 368      7E5D6022 
 369 0d5e 744BE79E 		.ascii	"tK\347\236\237\033\023\273~>\335\034\260\024p\033k\322"
 369      9F1B13BB 
 369      7E3EDD1C 
 369      B014701B 
 369      6BD2
 370 0d70 468F9377 		.ascii	"F\217\223w\020G\331w\020\366d\346w\020\246\004L\211"
 370      1047D977 
 370      10F664E6 
 370      7710A604 
 370      4C89
 371 0d82 4C0E3DC7 		.ascii	"L\016=\307c\231H6\265\026M$5\372\240c\221\322&\2210"
 371      63994836 
 371      B5164D24 
 371      35FAA063 
 371      91D22691 
 372 0d97 BD44B2C0 		.ascii	"\275D\262\300\3436\221<\355\261N$\001\223 z/\272`\027"
 372      E336913C 
 372      EDB14E24 
 372      0193207A 
 372      2FBA6017 
 373 0dab 9877340C 		.ascii	"\230w4\014\023<\267&`L$\334O&M\252T\377\342\251\312"
 373      133CB726 
 373      604C24DC 
 373      4F264DAA 
 373      54FFE2A9 
 374 0dc0 A45C994A 		.ascii	"\244\\\231J\206*C5\321T\365\244\0207\325\370,\024\217"
 374      862A4335 
 374      D154F5A4 
 374      1037D5F8 
 374      2C148F
 375 0dd3 46E3B1CA 		.ascii	"F\343\261\312D<)\247*\177\373\360\203\323\036\234M\357"
 375      443C29A7 
 375      2A7FFBF0 
 375      83D31E9C 
 375      4DEF
 376 0de5 25C21129 		.ascii	"%\302\021)\231\252\274o\3324 \223\353\023RjR\015W\002"
 376      99AABC6F 
 376      DA342093 
 376      EB13526A 
 376      520D5702 
 377 0df9 F441B9F4 		.ascii	"\364A\271\364\276\377x\244b\032\367\263\312\332T\262"
 377      BEFF78A4 
 377      621AF7B3 
 377      CADA54B2 
 378 0e09 321C0B45 		.ascii	"2\034\013Ej\253\244\312\230T\027\011\317\250L\311U\341"
 378      6AABA4CA 
 378      98541709 
 378      CFA84CC9 
 378      55E1
 379 0e1b 980C5DBD 		.ascii	"\230\014]\275\360\357_\177\025\224o\267\352\025\025"
 379      F0EF5F7F 
 379      15946FB7 
 379      EA1515
 380 0e2a 4335E198 		.ascii	"C5\341\230T\031\254\222f\212\265\0219\250\017\340\017"
 380      5419AC92 
ARM GAS  /tmp/ccOjc5ii.s 			page 30


 380      668AB511 
 380      39A80FE0 
 380      0F
 381 0e3b 0635BA9B 		.ascii	"\0065\272\233\031\376u\204PM\252>\245w\367\3115II\254"
 381      19FE7584 
 381      504DAA3E 
 381      A577F7C9 
 381      354949AC 
 382 0e4f 0ACAFE50 		.ascii	"\012\312\376PMPmW\330\323\205j\252\200f\274\332/\025"
 382      4D506D57 
 382      D8D3856A 
 382      AA8066BC 
 382      DA2F15
 383 0e62 7CB256AA 		.ascii	"|\262V\252\225\202\362\204,\251v\313\023\223f\313\236"
 383      9582F284 
 383      2CA976CB 
 383      139366CB 
 383      9E
 384 0e73 44529A55 		.ascii	"DR\232U\202\277\275r\"\031\216\007e_\255\306\332\230"
 384      82BFBD72 
 384      22198E07 
 384      655FADC6 
 384      DA98
 385 0e85 60506F7A 		.ascii	"`Poz\350\243\000\325]0\024\217\311@\370\317Eu[\023\212"
 385      E8A300D5 
 385      5D30148F 
 385      C940F8CF 
 385      45755B13 
 386 0e9a 272560A4 		.ascii	"'%`\244\014\311\000($\317\276\335\031Up\326\224(\025"
 386      0CC90028 
 386      24CFBEDD 
 386      195570D6 
 386      942815
 387 0ead 3B29558B 		.ascii	";)U\213\311hP\346\223S\371\344\335B\362\216\311P\356"
 387      C96850E6 
 387      9353F9E4 
 387      DD42F28E 
 387      C950EE
 388 0ec0 E09377F2 		.ascii	"\340\223w\362\311\273\370\344\024>\371k>\222\344S\011"
 388      C9BBF8E4 
 388      143EF96B 
 388      3E92E453 
 388      09
 389 0ed1 01A04B40 		.ascii	"\001\240K@\347R\262$\036\251\222\222\236P\215\230\364"
 389      E752B224 
 389      1EA99292 
 389      9E508D98 
 389      F4
 390 0ee2 C4C4A834 		.ascii	"\304\304\2504&%?!F\302\3251M\256)wf\345\242\315\322"
 390      26253F21 
 390      46C2D531 
 390      4DAE2977 
 390      66E5A2CD 
 391 0ef7 3A718698 		.ascii	":q\206\230\222|rJ\026eP\222\227>\230\012zV\273@\253"
 391      927C724A 
 391      16655092 
 391      973E980A 
ARM GAS  /tmp/ccOjc5ii.s 			page 31


 391      7A56BB40 
 392 0f0c 049F78E5 		.ascii	"\004\237x\345h\274\012\236\227\314\214\210\325)\257"
 392      68BC0A9E 
 392      97CC8C88 
 392      D529AF
 393 0f1b 9C9466A6 		.ascii	"\234\224f\246@+\364_i\262\252\036\334\305'\315\016\313"
 393      402BF45F 
 393      69B2AA1E 
 393      DCC527CD 
 393      0ECB
 394 0f2d 21E8545A 		.ascii	"!\350TZ'\307g\374!q\255f2\350\"%\245X\210\022\327\311"
 394      27C767FC 
 394      2171AD66 
 394      32E82225 
 394      A5588812 
 395 0f43 7232E14D 		.ascii	"r2\341MI1\031\010\002`\217\224\024\025\0235 \360\215"
 395      49311908 
 395      02608F94 
 395      14151335 
 395      20F08D
 396 0f56 F6D694A8 		.ascii	"\366\326\224\250&JB1p\036\001j\200\207[\011\037PGk\301"
 396      264A4231 
 396      701E016A 
 396      80875B09 
 396      1F50476B 
 397 0f6b 10F69451 		.ascii	"\020\366\224Qy6\245\214\327\305\244\244\027\373Rye\270"
 397      7936A58C 
 397      D7C5A4A4 
 397      17FB5279 
 397      65B8
 398 0f7d 9D289366 		.ascii	"\235(\223fQ&\304\324\023pK\252\243\015R;N\367\216H8"
 398      5126C4D4 
 398      13704BAA 
 398      A30D523B 
 398      4EF78E48 
 399 0f92 05838D37 		.ascii	"\005\203\2157\370\013\275\343\255\023\303r8V"
 399      F80BBDE3 
 399      AD13C372 
 399      3856
 400 0fa0 ED03DED1 		.ascii	"\355\003\336\321_|RB\212A\024T{\001\222\366\000s\211"
 400      5F7C5242 
 400      8A411454 
 400      7B0192F6 
 400      007389
 401 0fb3 11EA2825 		.ascii	"\021\352(%\321D<\036\001_}0U=\035\372\360rB\000*\365"
 401      D1443C1E 
 401      015F7D30 
 401      553D1DFA 
 401      F0724200 
 402 0fc9 C6A30013 		.ascii	"\306\243\000\023\300\326\303RD\002\345\217\015\325L"
 402      C0D6C352 
 402      4402E58F 
 402      0DD54C
 403 0fd8 0FD5DC17 		.ascii	"\017\325\334\027\237\036\221\244\304\3642\374\3650\014"
 403      9F1E91A4 
 403      C4F432FC 
 403      F5300C
ARM GAS  /tmp/ccOjc5ii.s 			page 32


 404 0fe7 5BFF4000 		.ascii	"[\377@\000\333\217\212OH\265\370 HCB\212\252a\240\266"
 404      DB8F8A4F 
 404      48B5F820 
 404      4843428A 
 404      AA61A0B6 
 405 0ffb 0394C17A 		.ascii	"\003\224\301z\215"
 405      8D
 406 1000 65400AE6 		.ascii	"e@\012\346~{C\265I\320\274\\\222\244\277\256\237\025"
 406      7E7B43B5 
 406      49D0BC5C 
 406      92A4BFAE 
 406      9F15
 407 1012 4ECAB562 		.ascii	"N\312\265b$(\207\243\020\360\032\305\015@a\361`\274"
 407      242887A3 
 407      10F01AC5 
 407      0D4061F1 
 407      60BC
 408 1024 E99E1A3B 		.ascii	"\351\236\032;\246[~::44\257\272cJ\326\253h\263\244J"
 408      A65B7E3A 
 408      3A3434AF 
 408      BA634AD6 
 408      AB68B3A4 
 409 1039 8AC8A26F 		.ascii	"\212\310\242o\226<\2636\026\0027\241\377\204\204\230"
 409      963CB336 
 409      160237A1 
 409      FF848498 
 410 1049 F445C494 		.ascii	"\364E\304\224L\311Jg\311t\230q\232<U\322\214\332jU\343"
 410      4CC94A67 
 410      C9749871 
 410      9A3C55D2 
 410      8CDA6A55 
 411 105e C63BFE84 		.ascii	"\306;\376\204\030\013\207\202\2409\241jF\365\230\250"
 411      180B8782 
 411      A039A16A 
 411      46F598A8 
 412 106e 08F06810 		.ascii	"\010\360h\020>TS\300a\3521\301\200\352\352S\277\217"
 412      3E5453C0 
 412      61EA31C1 
 412      80EAEA53 
 412      BF8F
 413 1080 879EF063 		.ascii	"\207\236\360c\370E\240u\207E\360A$WN{p\372\003\323s"
 413      F845A075 
 413      8745F041 
 413      24574E7B 
 413      70FA03D3 
 414 1095 08D15438 		.ascii	"\010\321T8\025\254\016\205\000el0X\025N\2113\"R0\234"
 414      15AC0E85 
 414      00656C30 
 414      58154E89 
 414      33225230 
 415 10aa 7C72AC18 		.ascii	"|r\254\030\251\023\353S\020\312\021Hj\0015\257\204c"
 415      A913EB53 
 415      10CA1148 
 415      6A0135AF 
 415      8463
 416 10bc 2929290B 		.ascii	")))\013\362\223\2112\034\362\221\030\035J\215\371Zl"
 416      F2938932 
ARM GAS  /tmp/ccOjc5ii.s 			page 33


 416      1CF29118 
 416      1D4A8DF9 
 416      5A6C
 417 10ce 07824129 		.ascii	"\007\202A)\246c\370\202ATJp\254\336\230t\327]S\356*"
 417      A663F882 
 417      41544A70 
 417      ACDE9874 
 417      D75D53EE 
 418 10e3 E0C590C9 		.ascii	"\340\305\220\311\301\213\203\277\003\217\032\217n\363"
 418      C18B83BF 
 418      038F1A8F 
 418      6EF3
 419 10f1 40EA21D5 		.ascii	"@\352!\325\357\036\270Feafxf\034\354\036\215\317\242"
 419      EF1EB846 
 419      65616678 
 419      661CEC1E 
 419      8DCFA2
 420 1104 BE9473AC 		.ascii	"\276\224s\254\351\3061~}\347\377\001a\271\037\330"
 420      E9C6317E 
 420      7DE7FF01 
 420      61B91FD8 
 421              		.text
 422              		.section	.gnu.lto_.symtab.6d57a9e53d0d0a49,"",%progbits
 423 0000 63684D73 		.ascii	"chMsgSend\000\000\000\000\000\000\000\000\000\000\000"
 423      6753656E 
 423      64000000 
 423      00000000 
 423      00000000 
 424 0014 00A10000 		.ascii	"\000\241\000\000\000chMsgWait\000\000\000\000\000\000"
 424      0063684D 
 424      73675761 
 424      69740000 
 424      00000000 
 425 0028 00000000 		.ascii	"\000\000\000\000\000\000c\001\000\000chMsgRelease\000"
 425      00006301 
 425      00006368 
 425      4D736752 
 425      656C6561 
 426 003f 00000000 		.ascii	"\000\000\000\000\000\000\000\000\000\000\000g\001\000"
 426      00000000 
 426      00000067 
 426      0100
 427 004d 00636800 		.ascii	"\000ch\000\000\002\000\000\000\000\000\000\000\000\000"
 427      00020000 
 427      00000000 
 427      000000
 428 005c 79010000 		.ascii	"y\001\000\000chSchGoSleepS\000\000\002\000\000\000\000"
 428      63685363 
 428      68476F53 
 428      6C656570 
 428      53000002 
 429 0074 00000000 		.ascii	"\000\000\000\000\000o\001\000\000chSchReadyI\000\000"
 429      006F0100 
 429      00636853 
 429      63685265 
 429      61647949 
 430 008a 02000000 		.ascii	"\002\000\000\000\000\000\000\000\000\000s\001\000\000"
ARM GAS  /tmp/ccOjc5ii.s 			page 34


 430      00000000 
 430      00007301 
 430      0000
 431 0098 63685363 		.ascii	"chSchWakeupS\000\000\002\000\000\000\000\000\000\000"
 431      6857616B 
 431      65757053 
 431      00000200 
 431      00000000 
 432 00ae 00007701 		.ascii	"\000\000w\001\000\000"
 432      0000
 433              		.text
 434              		.section	.gnu.lto_.opts,"",%progbits
 435 0000 272D6D63 		.ascii	"'-mcpu=cortex-m0' '-mno-thumb-interwork' '-mthumb' "
 435      70753D63 
 435      6F727465 
 435      782D6D30 
 435      2720272D 
 436 0033 272D6767 		.ascii	"'-ggdb' '-O2' '-fomit-frame-pointer' '-falign-funct"
 436      64622720 
 436      272D4F32 
 436      2720272D 
 436      666F6D69 
 437 0066 696F6E73 		.ascii	"ions=16' '-ffunction-sections' '-fdata-sections' '-"
 437      3D313627 
 437      20272D66 
 437      66756E63 
 437      74696F6E 
 438 0099 666E6F2D 		.ascii	"fno-common' '-flto'\000"
 438      636F6D6D 
 438      6F6E2720 
 438      272D666C 
 438      746F2700 
 439              		.text
 440              		.cfi_sections	.debug_frame
 441              		.section	.text.chMsgSend,"ax",%progbits
 442              		.align	2
 443              		.p2align 4,,15
 444              		.global	chMsgSend
 445              		.code	16
 446              		.thumb_func
 447              		.type	chMsgSend, %function
 448              	chMsgSend:
 449              	.LFB149:
 450              		.file 1 "../../../os/rt/src/chmsg.c"
 451              		.loc 1 87 0
 452              		.cfi_startproc
 453              	.LVL0:
 454              		.loc 1 88 0
 455 0000 0C4B     		ldr	r3, .L5
 456              		.loc 1 87 0
 457 0002 10B5     		push	{r4, lr}
 458              		.cfi_def_cfa_offset 8
 459              		.cfi_offset 4, -8
 460              		.cfi_offset 14, -4
 461              		.loc 1 88 0
 462 0004 9C69     		ldr	r4, [r3, #24]
 463              	.LVL1:
ARM GAS  /tmp/ccOjc5ii.s 			page 35


 464              	.LBB52:
 465              	.LBB53:
 466              	.LBB54:
 467              	.LBB55:
 468              		.file 2 "../../../os/common/ext/CMSIS/include/cmsis_gcc.h"
 469              		.loc 2 71 0
 470              	@ 71 "../../../os/common/ext/CMSIS/include/cmsis_gcc.h" 1
 471 0006 72B6     		cpsid i
 472              	@ 0 "" 2
 473              		.code	16
 474              	.LBE55:
 475              	.LBE54:
 476              	.LBE53:
 477              	.LBE52:
 478              		.loc 1 94 0
 479 0008 031C     		mov	r3, r0
 480              		.loc 1 93 0
 481 000a 6162     		str	r1, [r4, #36]
 482              	.LVL2:
 483              		.loc 1 94 0
 484 000c 2C33     		add	r3, r3, #44
 485              	.LVL3:
 486              	.LBB56:
 487              	.LBB57:
 488              		.file 3 "../../../os/rt/include/chschd.h"
 489              		.loc 3 611 0
 490 000e 2360     		str	r3, [r4]
 491              		.loc 3 612 0
 492 0010 036B     		ldr	r3, [r0, #48]
 493              	.LVL4:
 494 0012 6360     		str	r3, [r4, #4]
 495              		.loc 3 613 0
 496 0014 1C60     		str	r4, [r3]
 497              	.LVL5:
 498              		.loc 3 614 0
 499 0016 0463     		str	r4, [r0, #48]
 500              	.LBE57:
 501              	.LBE56:
 502              		.loc 1 95 0
 503 0018 2023     		mov	r3, #32
 504 001a C35C     		ldrb	r3, [r0, r3]
 505 001c 0E2B     		cmp	r3, #14
 506 001e 05D0     		beq	.L4
 507              	.LVL6:
 508              	.L2:
 509              		.loc 1 98 0
 510 0020 0C20     		mov	r0, #12
 511 0022 FFF7FEFF 		bl	chSchGoSleepS
 512              	.LVL7:
 513              		.loc 1 99 0
 514 0026 606A     		ldr	r0, [r4, #36]
 515              	.LVL8:
 516              	.LBB58:
 517              	.LBB59:
 518              	.LBB60:
 519              	.LBB61:
 520              	.LBB62:
ARM GAS  /tmp/ccOjc5ii.s 			page 36


 521              		.loc 2 60 0
 522              	@ 60 "../../../os/common/ext/CMSIS/include/cmsis_gcc.h" 1
 523 0028 62B6     		cpsie i
 524              	@ 0 "" 2
 525              		.code	16
 526              	.LBE62:
 527              	.LBE61:
 528              	.LBE60:
 529              	.LBE59:
 530              	.LBE58:
 531              		.loc 1 103 0
 532              		@ sp needed
 533              	.LVL9:
 534 002a 10BD     		pop	{r4, pc}
 535              	.LVL10:
 536              	.L4:
 537              		.loc 1 96 0
 538 002c FFF7FEFF 		bl	chSchReadyI
 539              	.LVL11:
 540 0030 F6E7     		b	.L2
 541              	.L6:
 542 0032 C046     		.align	2
 543              	.L5:
 544 0034 00000000 		.word	ch
 545              		.cfi_endproc
 546              	.LFE149:
 547              		.size	chMsgSend, .-chMsgSend
 548 0038 C046C046 		.section	.text.chMsgWait,"ax",%progbits
 548      C046C046 
 549              		.align	2
 550              		.p2align 4,,15
 551              		.global	chMsgWait
 552              		.code	16
 553              		.thumb_func
 554              		.type	chMsgWait, %function
 555              	chMsgWait:
 556              	.LFB150:
 557              		.loc 1 119 0
 558              		.cfi_startproc
 559 0000 10B5     		push	{r4, lr}
 560              		.cfi_def_cfa_offset 8
 561              		.cfi_offset 4, -8
 562              		.cfi_offset 14, -4
 563              	.LBB63:
 564              	.LBB64:
 565              	.LBB65:
 566              	.LBB66:
 567              		.loc 2 71 0
 568              	@ 71 "../../../os/common/ext/CMSIS/include/cmsis_gcc.h" 1
 569 0002 72B6     		cpsid i
 570              	@ 0 "" 2
 571              		.code	16
 572              	.LBE66:
 573              	.LBE65:
 574              	.LBE64:
 575              	.LBE63:
 576              		.loc 1 123 0
ARM GAS  /tmp/ccOjc5ii.s 			page 37


 577 0004 0B4C     		ldr	r4, .L10
 578 0006 A369     		ldr	r3, [r4, #24]
 579              	.LVL12:
 580              	.LBB67:
 581              	.LBB68:
 582              		.file 4 "../../../os/rt/include/chmsg.h"
 583              		.loc 4 83 0
 584 0008 1A1C     		mov	r2, r3
 585 000a D86A     		ldr	r0, [r3, #44]
 586 000c 2C32     		add	r2, r2, #44
 587              	.LBE68:
 588              	.LBE67:
 589              		.loc 1 123 0
 590 000e 9042     		cmp	r0, r2
 591 0010 07D0     		beq	.L9
 592              	.LVL13:
 593              	.L8:
 594              	.LBB69:
 595              	.LBB70:
 596              		.loc 3 620 0
 597 0012 0168     		ldr	r1, [r0]
 598 0014 D962     		str	r1, [r3, #44]
 599              		.loc 3 621 0
 600 0016 4A60     		str	r2, [r1, #4]
 601              	.LBE70:
 602              	.LBE69:
 603              		.loc 1 127 0
 604 0018 2023     		mov	r3, #32
 605 001a 0D22     		mov	r2, #13
 606              	.LVL14:
 607 001c C254     		strb	r2, [r0, r3]
 608              	.LBB71:
 609              	.LBB72:
 610              	.LBB73:
 611              	.LBB74:
 612              	.LBB75:
 613              		.loc 2 60 0
 614              	@ 60 "../../../os/common/ext/CMSIS/include/cmsis_gcc.h" 1
 615 001e 62B6     		cpsie i
 616              	@ 0 "" 2
 617              		.code	16
 618              	.LBE75:
 619              	.LBE74:
 620              	.LBE73:
 621              	.LBE72:
 622              	.LBE71:
 623              		.loc 1 131 0
 624              		@ sp needed
 625 0020 10BD     		pop	{r4, pc}
 626              	.LVL15:
 627              	.L9:
 628              		.loc 1 124 0
 629 0022 0E20     		mov	r0, #14
 630 0024 FFF7FEFF 		bl	chSchGoSleepS
 631              	.LVL16:
 632 0028 A369     		ldr	r3, [r4, #24]
 633 002a 1A1C     		mov	r2, r3
ARM GAS  /tmp/ccOjc5ii.s 			page 38


 634 002c 2C32     		add	r2, r2, #44
 635 002e D86A     		ldr	r0, [r3, #44]
 636 0030 EFE7     		b	.L8
 637              	.L11:
 638 0032 C046     		.align	2
 639              	.L10:
 640 0034 00000000 		.word	ch
 641              		.cfi_endproc
 642              	.LFE150:
 643              		.size	chMsgWait, .-chMsgWait
 644 0038 C046C046 		.section	.text.chMsgRelease,"ax",%progbits
 644      C046C046 
 645              		.align	2
 646              		.p2align 4,,15
 647              		.global	chMsgRelease
 648              		.code	16
 649              		.thumb_func
 650              		.type	chMsgRelease, %function
 651              	chMsgRelease:
 652              	.LFB151:
 653              		.loc 1 143 0
 654              		.cfi_startproc
 655              	.LVL17:
 656 0000 08B5     		push	{r3, lr}
 657              		.cfi_def_cfa_offset 8
 658              		.cfi_offset 3, -8
 659              		.cfi_offset 14, -4
 660              	.LBB76:
 661              	.LBB77:
 662              	.LBB78:
 663              	.LBB79:
 664              		.loc 2 71 0
 665              	@ 71 "../../../os/common/ext/CMSIS/include/cmsis_gcc.h" 1
 666 0002 72B6     		cpsid i
 667              	@ 0 "" 2
 668              	.LVL18:
 669              		.code	16
 670              	.LBE79:
 671              	.LBE78:
 672              	.LBE77:
 673              	.LBE76:
 674              	.LBB80:
 675              	.LBB81:
 676              		.loc 4 117 0
 677 0004 FFF7FEFF 		bl	chSchWakeupS
 678              	.LVL19:
 679              	.LBE81:
 680              	.LBE80:
 681              	.LBB82:
 682              	.LBB83:
 683              	.LBB84:
 684              	.LBB85:
 685              	.LBB86:
 686              		.loc 2 60 0
 687              	@ 60 "../../../os/common/ext/CMSIS/include/cmsis_gcc.h" 1
 688 0008 62B6     		cpsie i
 689              	@ 0 "" 2
ARM GAS  /tmp/ccOjc5ii.s 			page 39


 690              		.code	16
 691              	.LBE86:
 692              	.LBE85:
 693              	.LBE84:
 694              	.LBE83:
 695              	.LBE82:
 696              		.loc 1 149 0
 697              		@ sp needed
 698 000a 08BD     		pop	{r3, pc}
 699              		.cfi_endproc
 700              	.LFE151:
 701              		.size	chMsgRelease, .-chMsgRelease
 702 000c C046C046 		.text
 703              	.Letext0:
 704              		.file 5 "/usr/include/newlib/machine/_default_types.h"
 705              		.file 6 "/usr/include/newlib/stdint.h"
 706              		.file 7 "../../../os/common/ports/ARMCMx/compilers/GCC/chtypes.h"
 707              		.file 8 "../../../os/rt/include/chsystypes.h"
 708              		.file 9 "../../../os/common/ports/ARMCMx/chcore.h"
 709              		.file 10 "../../../os/common/ports/ARMCMx/chcore_v6m.h"
 710              		.file 11 "../../../os/rt/include/chsem.h"
 711              		.file 12 "../../../os/rt/include/chmtx.h"
 712              		.file 13 "../../../os/rt/include/chsys.h"
 713              		.section	.debug_info,"",%progbits
 714              	.Ldebug_info0:
 715 0000 1C0A0000 		.4byte	0xa1c
 716 0004 0400     		.2byte	0x4
 717 0006 00000000 		.4byte	.Ldebug_abbrev0
 718 000a 04       		.byte	0x4
 719 000b 01       		.uleb128 0x1
 720 000c 2C010000 		.4byte	.LASF104
 721 0010 01       		.byte	0x1
 722 0011 2E000000 		.4byte	.LASF105
 723 0015 25050000 		.4byte	.LASF106
 724 0019 00000000 		.4byte	.Ldebug_ranges0+0
 725 001d 00000000 		.4byte	0
 726 0021 00000000 		.4byte	.Ldebug_line0
 727 0025 02       		.uleb128 0x2
 728 0026 04       		.byte	0x4
 729 0027 05       		.byte	0x5
 730 0028 696E7400 		.ascii	"int\000"
 731 002c 03       		.uleb128 0x3
 732 002d 04       		.byte	0x4
 733 002e 07       		.byte	0x7
 734 002f 6B000000 		.4byte	.LASF0
 735 0033 03       		.uleb128 0x3
 736 0034 01       		.byte	0x1
 737 0035 06       		.byte	0x6
 738 0036 C0040000 		.4byte	.LASF1
 739 003a 04       		.uleb128 0x4
 740 003b D8030000 		.4byte	.LASF4
 741 003f 05       		.byte	0x5
 742 0040 1D       		.byte	0x1d
 743 0041 45000000 		.4byte	0x45
 744 0045 03       		.uleb128 0x3
 745 0046 01       		.byte	0x1
 746 0047 08       		.byte	0x8
ARM GAS  /tmp/ccOjc5ii.s 			page 40


 747 0048 56040000 		.4byte	.LASF2
 748 004c 03       		.uleb128 0x3
 749 004d 02       		.byte	0x2
 750 004e 05       		.byte	0x5
 751 004f 8A030000 		.4byte	.LASF3
 752 0053 04       		.uleb128 0x4
 753 0054 29020000 		.4byte	.LASF5
 754 0058 05       		.byte	0x5
 755 0059 2B       		.byte	0x2b
 756 005a 5E000000 		.4byte	0x5e
 757 005e 03       		.uleb128 0x3
 758 005f 02       		.byte	0x2
 759 0060 07       		.byte	0x7
 760 0061 D2040000 		.4byte	.LASF6
 761 0065 04       		.uleb128 0x4
 762 0066 8C000000 		.4byte	.LASF7
 763 006a 05       		.byte	0x5
 764 006b 3F       		.byte	0x3f
 765 006c 70000000 		.4byte	0x70
 766 0070 03       		.uleb128 0x3
 767 0071 04       		.byte	0x4
 768 0072 05       		.byte	0x5
 769 0073 94030000 		.4byte	.LASF8
 770 0077 04       		.uleb128 0x4
 771 0078 64040000 		.4byte	.LASF9
 772 007c 05       		.byte	0x5
 773 007d 41       		.byte	0x41
 774 007e 82000000 		.4byte	0x82
 775 0082 03       		.uleb128 0x3
 776 0083 04       		.byte	0x4
 777 0084 07       		.byte	0x7
 778 0085 14040000 		.4byte	.LASF10
 779 0089 03       		.uleb128 0x3
 780 008a 08       		.byte	0x8
 781 008b 05       		.byte	0x5
 782 008c 24030000 		.4byte	.LASF11
 783 0090 04       		.uleb128 0x4
 784 0091 A8020000 		.4byte	.LASF12
 785 0095 05       		.byte	0x5
 786 0096 5B       		.byte	0x5b
 787 0097 9B000000 		.4byte	0x9b
 788 009b 03       		.uleb128 0x3
 789 009c 08       		.byte	0x8
 790 009d 07       		.byte	0x7
 791 009e 12020000 		.4byte	.LASF13
 792 00a2 04       		.uleb128 0x4
 793 00a3 FA020000 		.4byte	.LASF14
 794 00a7 06       		.byte	0x6
 795 00a8 2A       		.byte	0x2a
 796 00a9 3A000000 		.4byte	0x3a
 797 00ad 04       		.uleb128 0x4
 798 00ae 81030000 		.4byte	.LASF15
 799 00b2 06       		.byte	0x6
 800 00b3 36       		.byte	0x36
 801 00b4 53000000 		.4byte	0x53
 802 00b8 04       		.uleb128 0x4
 803 00b9 39040000 		.4byte	.LASF16
ARM GAS  /tmp/ccOjc5ii.s 			page 41


 804 00bd 06       		.byte	0x6
 805 00be 41       		.byte	0x41
 806 00bf 65000000 		.4byte	0x65
 807 00c3 04       		.uleb128 0x4
 808 00c4 CF010000 		.4byte	.LASF17
 809 00c8 06       		.byte	0x6
 810 00c9 42       		.byte	0x42
 811 00ca 77000000 		.4byte	0x77
 812 00ce 04       		.uleb128 0x4
 813 00cf C9030000 		.4byte	.LASF18
 814 00d3 06       		.byte	0x6
 815 00d4 4E       		.byte	0x4e
 816 00d5 90000000 		.4byte	0x90
 817 00d9 04       		.uleb128 0x4
 818 00da 6E030000 		.4byte	.LASF19
 819 00de 07       		.byte	0x7
 820 00df 3C       		.byte	0x3c
 821 00e0 A2000000 		.4byte	0xa2
 822 00e4 04       		.uleb128 0x4
 823 00e5 F1020000 		.4byte	.LASF20
 824 00e9 07       		.byte	0x7
 825 00ea 3D       		.byte	0x3d
 826 00eb A2000000 		.4byte	0xa2
 827 00ef 04       		.uleb128 0x4
 828 00f0 0C040000 		.4byte	.LASF21
 829 00f4 07       		.byte	0x7
 830 00f5 3E       		.byte	0x3e
 831 00f6 A2000000 		.4byte	0xa2
 832 00fa 04       		.uleb128 0x4
 833 00fb F9010000 		.4byte	.LASF22
 834 00ff 07       		.byte	0x7
 835 0100 40       		.byte	0x40
 836 0101 C3000000 		.4byte	0xc3
 837 0105 04       		.uleb128 0x4
 838 0106 32030000 		.4byte	.LASF23
 839 010a 07       		.byte	0x7
 840 010b 41       		.byte	0x41
 841 010c B8000000 		.4byte	0xb8
 842 0110 04       		.uleb128 0x4
 843 0111 E0010000 		.4byte	.LASF24
 844 0115 07       		.byte	0x7
 845 0116 43       		.byte	0x43
 846 0117 C3000000 		.4byte	0xc3
 847 011b 04       		.uleb128 0x4
 848 011c 34020000 		.4byte	.LASF25
 849 0120 07       		.byte	0x7
 850 0121 45       		.byte	0x45
 851 0122 B8000000 		.4byte	0xb8
 852 0126 04       		.uleb128 0x4
 853 0127 4F000000 		.4byte	.LASF26
 854 012b 08       		.byte	0x8
 855 012c 35       		.byte	0x35
 856 012d AD000000 		.4byte	0xad
 857 0131 04       		.uleb128 0x4
 858 0132 7B020000 		.4byte	.LASF27
 859 0136 08       		.byte	0x8
 860 0137 3F       		.byte	0x3f
ARM GAS  /tmp/ccOjc5ii.s 			page 42


 861 0138 3C010000 		.4byte	0x13c
 862 013c 05       		.uleb128 0x5
 863 013d 0B030000 		.4byte	.LASF45
 864 0141 44       		.byte	0x44
 865 0142 03       		.byte	0x3
 866 0143 9A       		.byte	0x9a
 867 0144 1A020000 		.4byte	0x21a
 868 0148 06       		.uleb128 0x6
 869 0149 33040000 		.4byte	.LASF28
 870 014d 03       		.byte	0x3
 871 014e 9B       		.byte	0x9b
 872 014f 4F020000 		.4byte	0x24f
 873 0153 00       		.byte	0
 874 0154 06       		.uleb128 0x6
 875 0155 CD020000 		.4byte	.LASF29
 876 0159 03       		.byte	0x3
 877 015a 9C       		.byte	0x9c
 878 015b FA000000 		.4byte	0xfa
 879 015f 08       		.byte	0x8
 880 0160 07       		.uleb128 0x7
 881 0161 63747800 		.ascii	"ctx\000"
 882 0165 03       		.byte	0x3
 883 0166 9D       		.byte	0x9d
 884 0167 3B040000 		.4byte	0x43b
 885 016b 0C       		.byte	0xc
 886 016c 06       		.uleb128 0x6
 887 016d 50040000 		.4byte	.LASF30
 888 0171 03       		.byte	0x3
 889 0172 9F       		.byte	0x9f
 890 0173 25020000 		.4byte	0x225
 891 0177 10       		.byte	0x10
 892 0178 06       		.uleb128 0x6
 893 0179 1F050000 		.4byte	.LASF31
 894 017d 03       		.byte	0x3
 895 017e A0       		.byte	0xa0
 896 017f 25020000 		.4byte	0x225
 897 0183 14       		.byte	0x14
 898 0184 06       		.uleb128 0x6
 899 0185 F0030000 		.4byte	.LASF32
 900 0189 03       		.byte	0x3
 901 018a A7       		.byte	0xa7
 902 018b 96050000 		.4byte	0x596
 903 018f 18       		.byte	0x18
 904 0190 06       		.uleb128 0x6
 905 0191 EA020000 		.4byte	.LASF33
 906 0195 03       		.byte	0x3
 907 0196 B0       		.byte	0xb0
 908 0197 A8050000 		.4byte	0x5a8
 909 019b 1C       		.byte	0x1c
 910 019c 06       		.uleb128 0x6
 911 019d A8040000 		.4byte	.LASF34
 912 01a1 03       		.byte	0x3
 913 01a2 B5       		.byte	0xb5
 914 01a3 E4000000 		.4byte	0xe4
 915 01a7 20       		.byte	0x20
 916 01a8 06       		.uleb128 0x6
 917 01a9 49000000 		.4byte	.LASF35
ARM GAS  /tmp/ccOjc5ii.s 			page 43


 918 01ad 03       		.byte	0x3
 919 01ae B9       		.byte	0xb9
 920 01af D9000000 		.4byte	0xd9
 921 01b3 21       		.byte	0x21
 922 01b4 06       		.uleb128 0x6
 923 01b5 96000000 		.4byte	.LASF36
 924 01b9 03       		.byte	0x3
 925 01ba BE       		.byte	0xbe
 926 01bb EF000000 		.4byte	0xef
 927 01bf 22       		.byte	0x22
 928 01c0 08       		.uleb128 0x8
 929 01c1 7500     		.ascii	"u\000"
 930 01c3 03       		.byte	0x3
 931 01c4 0F01     		.2byte	0x10f
 932 01c6 CB040000 		.4byte	0x4cb
 933 01ca 24       		.byte	0x24
 934 01cb 09       		.uleb128 0x9
 935 01cc 6F040000 		.4byte	.LASF37
 936 01d0 03       		.byte	0x3
 937 01d1 1401     		.2byte	0x114
 938 01d3 2B020000 		.4byte	0x22b
 939 01d7 28       		.byte	0x28
 940 01d8 09       		.uleb128 0x9
 941 01d9 02030000 		.4byte	.LASF38
 942 01dd 03       		.byte	0x3
 943 01de 1A01     		.2byte	0x11a
 944 01e0 4F020000 		.4byte	0x24f
 945 01e4 2C       		.byte	0x2c
 946 01e5 09       		.uleb128 0x9
 947 01e6 62000000 		.4byte	.LASF39
 948 01ea 03       		.byte	0x3
 949 01eb 2001     		.2byte	0x120
 950 01ed 10010000 		.4byte	0x110
 951 01f1 34       		.byte	0x34
 952 01f2 09       		.uleb128 0x9
 953 01f3 5C020000 		.4byte	.LASF40
 954 01f7 03       		.byte	0x3
 955 01f8 2701     		.2byte	0x127
 956 01fa 90050000 		.4byte	0x590
 957 01fe 38       		.byte	0x38
 958 01ff 09       		.uleb128 0x9
 959 0200 59000000 		.4byte	.LASF41
 960 0204 03       		.byte	0x3
 961 0205 2B01     		.2byte	0x12b
 962 0207 FA000000 		.4byte	0xfa
 963 020b 3C       		.byte	0x3c
 964 020c 09       		.uleb128 0x9
 965 020d 6A050000 		.4byte	.LASF42
 966 0211 03       		.byte	0x3
 967 0212 3201     		.2byte	0x132
 968 0214 02030000 		.4byte	0x302
 969 0218 40       		.byte	0x40
 970 0219 00       		.byte	0
 971 021a 04       		.uleb128 0x4
 972 021b D7020000 		.4byte	.LASF43
 973 021f 08       		.byte	0x8
 974 0220 44       		.byte	0x44
ARM GAS  /tmp/ccOjc5ii.s 			page 44


 975 0221 25020000 		.4byte	0x225
 976 0225 0A       		.uleb128 0xa
 977 0226 04       		.byte	0x4
 978 0227 31010000 		.4byte	0x131
 979 022b 04       		.uleb128 0x4
 980 022c 7D000000 		.4byte	.LASF44
 981 0230 08       		.byte	0x8
 982 0231 49       		.byte	0x49
 983 0232 36020000 		.4byte	0x236
 984 0236 05       		.uleb128 0x5
 985 0237 00000000 		.4byte	.LASF46
 986 023b 04       		.byte	0x4
 987 023c 03       		.byte	0x3
 988 023d 88       		.byte	0x88
 989 023e 4F020000 		.4byte	0x24f
 990 0242 06       		.uleb128 0x6
 991 0243 78000000 		.4byte	.LASF47
 992 0247 03       		.byte	0x3
 993 0248 89       		.byte	0x89
 994 0249 25020000 		.4byte	0x225
 995 024d 00       		.byte	0
 996 024e 00       		.byte	0
 997 024f 04       		.uleb128 0x4
 998 0250 4C020000 		.4byte	.LASF48
 999 0254 08       		.byte	0x8
 1000 0255 50       		.byte	0x50
 1001 0256 5A020000 		.4byte	0x25a
 1002 025a 05       		.uleb128 0x5
 1003 025b E9000000 		.4byte	.LASF49
 1004 025f 08       		.byte	0x8
 1005 0260 03       		.byte	0x3
 1006 0261 8F       		.byte	0x8f
 1007 0262 7F020000 		.4byte	0x27f
 1008 0266 06       		.uleb128 0x6
 1009 0267 78000000 		.4byte	.LASF47
 1010 026b 03       		.byte	0x3
 1011 026c 90       		.byte	0x90
 1012 026d 25020000 		.4byte	0x225
 1013 0271 00       		.byte	0
 1014 0272 06       		.uleb128 0x6
 1015 0273 E4000000 		.4byte	.LASF50
 1016 0277 03       		.byte	0x3
 1017 0278 91       		.byte	0x91
 1018 0279 25020000 		.4byte	0x225
 1019 027d 04       		.byte	0x4
 1020 027e 00       		.byte	0
 1021 027f 04       		.uleb128 0x4
 1022 0280 26040000 		.4byte	.LASF51
 1023 0284 08       		.byte	0x8
 1024 0285 57       		.byte	0x57
 1025 0286 8A020000 		.4byte	0x28a
 1026 028a 0B       		.uleb128 0xb
 1027 028b CA000000 		.4byte	.LASF52
 1028 028f 1C       		.byte	0x1c
 1029 0290 03       		.byte	0x3
 1030 0291 6A01     		.2byte	0x16a
 1031 0293 E6020000 		.4byte	0x2e6
ARM GAS  /tmp/ccOjc5ii.s 			page 45


 1032 0297 09       		.uleb128 0x9
 1033 0298 33040000 		.4byte	.LASF28
 1034 029c 03       		.byte	0x3
 1035 029d 6B01     		.2byte	0x16b
 1036 029f 4F020000 		.4byte	0x24f
 1037 02a3 00       		.byte	0
 1038 02a4 09       		.uleb128 0x9
 1039 02a5 CD020000 		.4byte	.LASF29
 1040 02a9 03       		.byte	0x3
 1041 02aa 6C01     		.2byte	0x16c
 1042 02ac FA000000 		.4byte	0xfa
 1043 02b0 08       		.byte	0x8
 1044 02b1 08       		.uleb128 0x8
 1045 02b2 63747800 		.ascii	"ctx\000"
 1046 02b6 03       		.byte	0x3
 1047 02b7 6E01     		.2byte	0x16e
 1048 02b9 3B040000 		.4byte	0x43b
 1049 02bd 0C       		.byte	0xc
 1050 02be 09       		.uleb128 0x9
 1051 02bf 50040000 		.4byte	.LASF30
 1052 02c3 03       		.byte	0x3
 1053 02c4 7101     		.2byte	0x171
 1054 02c6 25020000 		.4byte	0x225
 1055 02ca 10       		.byte	0x10
 1056 02cb 09       		.uleb128 0x9
 1057 02cc 1F050000 		.4byte	.LASF31
 1058 02d0 03       		.byte	0x3
 1059 02d1 7201     		.2byte	0x172
 1060 02d3 25020000 		.4byte	0x225
 1061 02d7 14       		.byte	0x14
 1062 02d8 09       		.uleb128 0x9
 1063 02d9 FD040000 		.4byte	.LASF53
 1064 02dd 03       		.byte	0x3
 1065 02de 7501     		.2byte	0x175
 1066 02e0 25020000 		.4byte	0x225
 1067 02e4 18       		.byte	0x18
 1068 02e5 00       		.byte	0
 1069 02e6 04       		.uleb128 0x4
 1070 02e7 FA000000 		.4byte	.LASF54
 1071 02eb 08       		.byte	0x8
 1072 02ec 5C       		.byte	0x5c
 1073 02ed F1020000 		.4byte	0x2f1
 1074 02f1 0A       		.uleb128 0xa
 1075 02f2 04       		.byte	0x4
 1076 02f3 F7020000 		.4byte	0x2f7
 1077 02f7 0C       		.uleb128 0xc
 1078 02f8 02030000 		.4byte	0x302
 1079 02fc 0D       		.uleb128 0xd
 1080 02fd 02030000 		.4byte	0x302
 1081 0301 00       		.byte	0
 1082 0302 0E       		.uleb128 0xe
 1083 0303 04       		.byte	0x4
 1084 0304 04       		.uleb128 0x4
 1085 0305 42030000 		.4byte	.LASF55
 1086 0309 08       		.byte	0x8
 1087 030a 61       		.byte	0x61
 1088 030b 0F030000 		.4byte	0x30f
ARM GAS  /tmp/ccOjc5ii.s 			page 46


 1089 030f 0B       		.uleb128 0xb
 1090 0310 01020000 		.4byte	.LASF56
 1091 0314 14       		.byte	0x14
 1092 0315 03       		.byte	0x3
 1093 0316 4501     		.2byte	0x145
 1094 0318 5E030000 		.4byte	0x35e
 1095 031c 09       		.uleb128 0x9
 1096 031d 78000000 		.4byte	.LASF47
 1097 0321 03       		.byte	0x3
 1098 0322 4601     		.2byte	0x146
 1099 0324 AE050000 		.4byte	0x5ae
 1100 0328 00       		.byte	0
 1101 0329 09       		.uleb128 0x9
 1102 032a E4000000 		.4byte	.LASF50
 1103 032e 03       		.byte	0x3
 1104 032f 4701     		.2byte	0x147
 1105 0331 AE050000 		.4byte	0x5ae
 1106 0335 04       		.byte	0x4
 1107 0336 09       		.uleb128 0x9
 1108 0337 CC040000 		.4byte	.LASF57
 1109 033b 03       		.byte	0x3
 1110 033c 4801     		.2byte	0x148
 1111 033e 26010000 		.4byte	0x126
 1112 0342 08       		.byte	0x8
 1113 0343 09       		.uleb128 0x9
 1114 0344 D8000000 		.4byte	.LASF58
 1115 0348 03       		.byte	0x3
 1116 0349 4901     		.2byte	0x149
 1117 034b E6020000 		.4byte	0x2e6
 1118 034f 0C       		.byte	0xc
 1119 0350 08       		.uleb128 0x8
 1120 0351 70617200 		.ascii	"par\000"
 1121 0355 03       		.byte	0x3
 1122 0356 4B01     		.2byte	0x14b
 1123 0358 02030000 		.4byte	0x302
 1124 035c 10       		.byte	0x10
 1125 035d 00       		.byte	0
 1126 035e 04       		.uleb128 0x4
 1127 035f 77040000 		.4byte	.LASF59
 1128 0363 08       		.byte	0x8
 1129 0364 66       		.byte	0x66
 1130 0365 69030000 		.4byte	0x369
 1131 0369 0B       		.uleb128 0xb
 1132 036a 64020000 		.4byte	.LASF60
 1133 036e 0C       		.byte	0xc
 1134 036f 03       		.byte	0x3
 1135 0370 5501     		.2byte	0x155
 1136 0372 AB030000 		.4byte	0x3ab
 1137 0376 09       		.uleb128 0x9
 1138 0377 78000000 		.4byte	.LASF47
 1139 037b 03       		.byte	0x3
 1140 037c 5601     		.2byte	0x156
 1141 037e AE050000 		.4byte	0x5ae
 1142 0382 00       		.byte	0
 1143 0383 09       		.uleb128 0x9
 1144 0384 E4000000 		.4byte	.LASF50
 1145 0388 03       		.byte	0x3
ARM GAS  /tmp/ccOjc5ii.s 			page 47


 1146 0389 5801     		.2byte	0x158
 1147 038b AE050000 		.4byte	0x5ae
 1148 038f 04       		.byte	0x4
 1149 0390 09       		.uleb128 0x9
 1150 0391 CC040000 		.4byte	.LASF57
 1151 0395 03       		.byte	0x3
 1152 0396 5A01     		.2byte	0x15a
 1153 0398 26010000 		.4byte	0x126
 1154 039c 08       		.byte	0x8
 1155 039d 09       		.uleb128 0x9
 1156 039e C0030000 		.4byte	.LASF61
 1157 03a2 03       		.byte	0x3
 1158 03a3 6201     		.2byte	0x162
 1159 03a5 26010000 		.4byte	0x126
 1160 03a9 0A       		.byte	0xa
 1161 03aa 00       		.byte	0
 1162 03ab 04       		.uleb128 0x4
 1163 03ac 15030000 		.4byte	.LASF62
 1164 03b0 08       		.byte	0x8
 1165 03b1 6B       		.byte	0x6b
 1166 03b2 B6030000 		.4byte	0x3b6
 1167 03b6 0B       		.uleb128 0xb
 1168 03b7 1C010000 		.4byte	.LASF63
 1169 03bb 04       		.byte	0x4
 1170 03bc 03       		.byte	0x3
 1171 03bd 7C01     		.2byte	0x17c
 1172 03bf D1030000 		.4byte	0x3d1
 1173 03c3 09       		.uleb128 0x9
 1174 03c4 64030000 		.4byte	.LASF64
 1175 03c8 03       		.byte	0x3
 1176 03c9 8401     		.2byte	0x184
 1177 03cb B4050000 		.4byte	0x5b4
 1178 03cf 00       		.byte	0
 1179 03d0 00       		.byte	0
 1180 03d1 04       		.uleb128 0x4
 1181 03d2 AE040000 		.4byte	.LASF65
 1182 03d6 08       		.byte	0x8
 1183 03d7 70       		.byte	0x70
 1184 03d8 DC030000 		.4byte	0x3dc
 1185 03dc 0B       		.uleb128 0xb
 1186 03dd B6030000 		.4byte	.LASF66
 1187 03e1 70       		.byte	0x70
 1188 03e2 03       		.byte	0x3
 1189 03e3 9C01     		.2byte	0x19c
 1190 03e5 1E040000 		.4byte	0x41e
 1191 03e9 09       		.uleb128 0x9
 1192 03ea D2030000 		.4byte	.LASF67
 1193 03ee 03       		.byte	0x3
 1194 03ef A001     		.2byte	0x1a0
 1195 03f1 7F020000 		.4byte	0x27f
 1196 03f5 00       		.byte	0
 1197 03f6 09       		.uleb128 0x9
 1198 03f7 B6000000 		.4byte	.LASF68
 1199 03fb 03       		.byte	0x3
 1200 03fc A401     		.2byte	0x1a4
 1201 03fe 5E030000 		.4byte	0x35e
 1202 0402 1C       		.byte	0x1c
ARM GAS  /tmp/ccOjc5ii.s 			page 48


 1203 0403 08       		.uleb128 0x8
 1204 0404 64626700 		.ascii	"dbg\000"
 1205 0408 03       		.byte	0x3
 1206 0409 A801     		.2byte	0x1a8
 1207 040b AB030000 		.4byte	0x3ab
 1208 040f 28       		.byte	0x28
 1209 0410 09       		.uleb128 0x9
 1210 0411 76030000 		.4byte	.LASF69
 1211 0415 03       		.byte	0x3
 1212 0416 AC01     		.2byte	0x1ac
 1213 0418 31010000 		.4byte	0x131
 1214 041c 2C       		.byte	0x2c
 1215 041d 00       		.byte	0
 1216 041e 03       		.uleb128 0x3
 1217 041f 04       		.byte	0x4
 1218 0420 07       		.byte	0x7
 1219 0421 03040000 		.4byte	.LASF70
 1220 0425 04       		.uleb128 0x4
 1221 0426 25000000 		.4byte	.LASF71
 1222 042a 09       		.byte	0x9
 1223 042b 65       		.byte	0x65
 1224 042c 02030000 		.4byte	0x302
 1225 0430 04       		.uleb128 0x4
 1226 0431 F2040000 		.4byte	.LASF72
 1227 0435 09       		.byte	0x9
 1228 0436 6D       		.byte	0x6d
 1229 0437 CE000000 		.4byte	0xce
 1230 043b 05       		.uleb128 0x5
 1231 043c BD000000 		.4byte	.LASF73
 1232 0440 04       		.byte	0x4
 1233 0441 09       		.byte	0x9
 1234 0442 89       		.byte	0x89
 1235 0443 53040000 		.4byte	0x453
 1236 0447 07       		.uleb128 0x7
 1237 0448 737000   		.ascii	"sp\000"
 1238 044b 09       		.byte	0x9
 1239 044c 8A       		.byte	0x8a
 1240 044d C5040000 		.4byte	0x4c5
 1241 0451 00       		.byte	0
 1242 0452 00       		.byte	0
 1243 0453 05       		.uleb128 0x5
 1244 0454 9D030000 		.4byte	.LASF74
 1245 0458 24       		.byte	0x24
 1246 0459 0A       		.byte	0xa
 1247 045a C3       		.byte	0xc3
 1248 045b C5040000 		.4byte	0x4c5
 1249 045f 07       		.uleb128 0x7
 1250 0460 723800   		.ascii	"r8\000"
 1251 0463 0A       		.byte	0xa
 1252 0464 C4       		.byte	0xc4
 1253 0465 25040000 		.4byte	0x425
 1254 0469 00       		.byte	0
 1255 046a 07       		.uleb128 0x7
 1256 046b 723900   		.ascii	"r9\000"
 1257 046e 0A       		.byte	0xa
 1258 046f C5       		.byte	0xc5
 1259 0470 25040000 		.4byte	0x425
ARM GAS  /tmp/ccOjc5ii.s 			page 49


 1260 0474 04       		.byte	0x4
 1261 0475 07       		.uleb128 0x7
 1262 0476 72313000 		.ascii	"r10\000"
 1263 047a 0A       		.byte	0xa
 1264 047b C6       		.byte	0xc6
 1265 047c 25040000 		.4byte	0x425
 1266 0480 08       		.byte	0x8
 1267 0481 07       		.uleb128 0x7
 1268 0482 72313100 		.ascii	"r11\000"
 1269 0486 0A       		.byte	0xa
 1270 0487 C7       		.byte	0xc7
 1271 0488 25040000 		.4byte	0x425
 1272 048c 0C       		.byte	0xc
 1273 048d 07       		.uleb128 0x7
 1274 048e 723400   		.ascii	"r4\000"
 1275 0491 0A       		.byte	0xa
 1276 0492 C8       		.byte	0xc8
 1277 0493 25040000 		.4byte	0x425
 1278 0497 10       		.byte	0x10
 1279 0498 07       		.uleb128 0x7
 1280 0499 723500   		.ascii	"r5\000"
 1281 049c 0A       		.byte	0xa
 1282 049d C9       		.byte	0xc9
 1283 049e 25040000 		.4byte	0x425
 1284 04a2 14       		.byte	0x14
 1285 04a3 07       		.uleb128 0x7
 1286 04a4 723600   		.ascii	"r6\000"
 1287 04a7 0A       		.byte	0xa
 1288 04a8 CA       		.byte	0xca
 1289 04a9 25040000 		.4byte	0x425
 1290 04ad 18       		.byte	0x18
 1291 04ae 07       		.uleb128 0x7
 1292 04af 723700   		.ascii	"r7\000"
 1293 04b2 0A       		.byte	0xa
 1294 04b3 CB       		.byte	0xcb
 1295 04b4 25040000 		.4byte	0x425
 1296 04b8 1C       		.byte	0x1c
 1297 04b9 07       		.uleb128 0x7
 1298 04ba 6C7200   		.ascii	"lr\000"
 1299 04bd 0A       		.byte	0xa
 1300 04be CC       		.byte	0xcc
 1301 04bf 25040000 		.4byte	0x425
 1302 04c3 20       		.byte	0x20
 1303 04c4 00       		.byte	0
 1304 04c5 0A       		.uleb128 0xa
 1305 04c6 04       		.byte	0x4
 1306 04c7 53040000 		.4byte	0x453
 1307 04cb 0F       		.uleb128 0xf
 1308 04cc 04       		.byte	0x4
 1309 04cd 03       		.byte	0x3
 1310 04ce D2       		.byte	0xd2
 1311 04cf 2E050000 		.4byte	0x52e
 1312 04d3 10       		.uleb128 0x10
 1313 04d4 84020000 		.4byte	.LASF75
 1314 04d8 03       		.byte	0x3
 1315 04d9 D9       		.byte	0xd9
 1316 04da 05010000 		.4byte	0x105
ARM GAS  /tmp/ccOjc5ii.s 			page 50


 1317 04de 10       		.uleb128 0x10
 1318 04df 61050000 		.4byte	.LASF76
 1319 04e3 03       		.byte	0x3
 1320 04e4 E0       		.byte	0xe0
 1321 04e5 05010000 		.4byte	0x105
 1322 04e9 10       		.uleb128 0x10
 1323 04ea A5000000 		.4byte	.LASF77
 1324 04ee 03       		.byte	0x3
 1325 04ef E7       		.byte	0xe7
 1326 04f0 02030000 		.4byte	0x302
 1327 04f4 10       		.uleb128 0x10
 1328 04f5 BA040000 		.4byte	.LASF78
 1329 04f9 03       		.byte	0x3
 1330 04fa EE       		.byte	0xee
 1331 04fb 2E050000 		.4byte	0x52e
 1332 04ff 10       		.uleb128 0x10
 1333 0500 D8010000 		.4byte	.LASF79
 1334 0504 03       		.byte	0x3
 1335 0505 F3       		.byte	0xf3
 1336 0506 05010000 		.4byte	0x105
 1337 050a 10       		.uleb128 0x10
 1338 050b 41040000 		.4byte	.LASF80
 1339 050f 03       		.byte	0x3
 1340 0510 FC       		.byte	0xfc
 1341 0511 59050000 		.4byte	0x559
 1342 0515 11       		.uleb128 0x11
 1343 0516 1E000000 		.4byte	.LASF81
 1344 051a 03       		.byte	0x3
 1345 051b 0501     		.2byte	0x105
 1346 051d 90050000 		.4byte	0x590
 1347 0521 11       		.uleb128 0x11
 1348 0522 DD000000 		.4byte	.LASF82
 1349 0526 03       		.byte	0x3
 1350 0527 0D01     		.2byte	0x10d
 1351 0529 10010000 		.4byte	0x110
 1352 052d 00       		.byte	0
 1353 052e 0A       		.uleb128 0xa
 1354 052f 04       		.byte	0x4
 1355 0530 1A020000 		.4byte	0x21a
 1356 0534 05       		.uleb128 0x5
 1357 0535 EC010000 		.4byte	.LASF83
 1358 0539 0C       		.byte	0xc
 1359 053a 0B       		.byte	0xb
 1360 053b 34       		.byte	0x34
 1361 053c 59050000 		.4byte	0x559
 1362 0540 06       		.uleb128 0x6
 1363 0541 33040000 		.4byte	.LASF28
 1364 0545 0B       		.byte	0xb
 1365 0546 35       		.byte	0x35
 1366 0547 4F020000 		.4byte	0x24f
 1367 054b 00       		.byte	0
 1368 054c 07       		.uleb128 0x7
 1369 054d 636E7400 		.ascii	"cnt\000"
 1370 0551 0B       		.byte	0xb
 1371 0552 37       		.byte	0x37
 1372 0553 1B010000 		.4byte	0x11b
 1373 0557 08       		.byte	0x8
ARM GAS  /tmp/ccOjc5ii.s 			page 51


 1374 0558 00       		.byte	0
 1375 0559 0A       		.uleb128 0xa
 1376 055a 04       		.byte	0x4
 1377 055b 34050000 		.4byte	0x534
 1378 055f 05       		.uleb128 0x5
 1379 0560 9F020000 		.4byte	.LASF84
 1380 0564 10       		.byte	0x10
 1381 0565 0C       		.byte	0xc
 1382 0566 39       		.byte	0x39
 1383 0567 90050000 		.4byte	0x590
 1384 056b 06       		.uleb128 0x6
 1385 056c 33040000 		.4byte	.LASF28
 1386 0570 0C       		.byte	0xc
 1387 0571 3A       		.byte	0x3a
 1388 0572 4F020000 		.4byte	0x24f
 1389 0576 00       		.byte	0
 1390 0577 06       		.uleb128 0x6
 1391 0578 46020000 		.4byte	.LASF85
 1392 057c 0C       		.byte	0xc
 1393 057d 3C       		.byte	0x3c
 1394 057e 25020000 		.4byte	0x225
 1395 0582 08       		.byte	0x8
 1396 0583 06       		.uleb128 0x6
 1397 0584 78000000 		.4byte	.LASF47
 1398 0588 0C       		.byte	0xc
 1399 0589 3E       		.byte	0x3e
 1400 058a C4050000 		.4byte	0x5c4
 1401 058e 0C       		.byte	0xc
 1402 058f 00       		.byte	0
 1403 0590 0A       		.uleb128 0xa
 1404 0591 04       		.byte	0x4
 1405 0592 5F050000 		.4byte	0x55f
 1406 0596 0A       		.uleb128 0xa
 1407 0597 04       		.byte	0x4
 1408 0598 9C050000 		.4byte	0x59c
 1409 059c 12       		.uleb128 0x12
 1410 059d A1050000 		.4byte	0x5a1
 1411 05a1 03       		.uleb128 0x3
 1412 05a2 01       		.byte	0x1
 1413 05a3 08       		.byte	0x8
 1414 05a4 D2020000 		.4byte	.LASF86
 1415 05a8 0A       		.uleb128 0xa
 1416 05a9 04       		.byte	0x4
 1417 05aa 30040000 		.4byte	0x430
 1418 05ae 0A       		.uleb128 0xa
 1419 05af 04       		.byte	0x4
 1420 05b0 04030000 		.4byte	0x304
 1421 05b4 13       		.uleb128 0x13
 1422 05b5 96050000 		.4byte	0x596
 1423 05b9 04       		.uleb128 0x4
 1424 05ba 48040000 		.4byte	.LASF87
 1425 05be 0C       		.byte	0xc
 1426 05bf 34       		.byte	0x34
 1427 05c0 5F050000 		.4byte	0x55f
 1428 05c4 0A       		.uleb128 0xa
 1429 05c5 04       		.byte	0x4
 1430 05c6 B9050000 		.4byte	0x5b9
ARM GAS  /tmp/ccOjc5ii.s 			page 52


 1431 05ca 14       		.uleb128 0x14
 1432 05cb 8B020000 		.4byte	.LASF88
 1433 05cf 02       		.byte	0x2
 1434 05d0 45       		.byte	0x45
 1435 05d1 03       		.byte	0x3
 1436 05d2 14       		.uleb128 0x14
 1437 05d3 A9030000 		.4byte	.LASF89
 1438 05d7 02       		.byte	0x2
 1439 05d8 3A       		.byte	0x3a
 1440 05d9 03       		.byte	0x3
 1441 05da 15       		.uleb128 0x15
 1442 05db AC000000 		.4byte	.LASF90
 1443 05df 0A       		.byte	0xa
 1444 05e0 7301     		.2byte	0x173
 1445 05e2 03       		.byte	0x3
 1446 05e3 15       		.uleb128 0x15
 1447 05e4 05050000 		.4byte	.LASF91
 1448 05e8 0A       		.byte	0xa
 1449 05e9 7C01     		.2byte	0x17c
 1450 05eb 03       		.byte	0x3
 1451 05ec 15       		.uleb128 0x15
 1452 05ed B3020000 		.4byte	.LASF92
 1453 05f1 0D       		.byte	0xd
 1454 05f2 7601     		.2byte	0x176
 1455 05f4 03       		.byte	0x3
 1456 05f5 16       		.uleb128 0x16
 1457 05f6 E5040000 		.4byte	.LASF93
 1458 05fa 03       		.byte	0x3
 1459 05fb 6102     		.2byte	0x261
 1460 05fd 03       		.byte	0x3
 1461 05fe 1A060000 		.4byte	0x61a
 1462 0602 17       		.uleb128 0x17
 1463 0603 747000   		.ascii	"tp\000"
 1464 0606 03       		.byte	0x3
 1465 0607 6102     		.2byte	0x261
 1466 0609 25020000 		.4byte	0x225
 1467 060d 17       		.uleb128 0x17
 1468 060e 74717000 		.ascii	"tqp\000"
 1469 0612 03       		.byte	0x3
 1470 0613 6102     		.2byte	0x261
 1471 0615 1A060000 		.4byte	0x61a
 1472 0619 00       		.byte	0
 1473 061a 0A       		.uleb128 0xa
 1474 061b 04       		.byte	0x4
 1475 061c 4F020000 		.4byte	0x24f
 1476 0620 16       		.uleb128 0x16
 1477 0621 3A020000 		.4byte	.LASF94
 1478 0625 0D       		.byte	0xd
 1479 0626 8201     		.2byte	0x182
 1480 0628 03       		.byte	0x3
 1481 0629 3B060000 		.4byte	0x63b
 1482 062d 18       		.uleb128 0x18
 1483 062e E2030000 		.4byte	.LASF98
 1484 0632 4B060000 		.4byte	0x64b
 1485 0636 3A020000 		.4byte	.LASF94
 1486 063a 00       		.byte	0
 1487 063b 19       		.uleb128 0x19
ARM GAS  /tmp/ccOjc5ii.s 			page 53


 1488 063c A1050000 		.4byte	0x5a1
 1489 0640 4B060000 		.4byte	0x64b
 1490 0644 1A       		.uleb128 0x1a
 1491 0645 1E040000 		.4byte	0x41e
 1492 0649 0B       		.byte	0xb
 1493 064a 00       		.byte	0
 1494 064b 12       		.uleb128 0x12
 1495 064c 3B060000 		.4byte	0x63b
 1496 0650 1B       		.uleb128 0x1b
 1497 0651 BD020000 		.4byte	.LASF96
 1498 0655 04       		.byte	0x4
 1499 0656 4F       		.byte	0x4f
 1500 0657 6B060000 		.4byte	0x66b
 1501 065b 03       		.byte	0x3
 1502 065c 6B060000 		.4byte	0x66b
 1503 0660 1C       		.uleb128 0x1c
 1504 0661 747000   		.ascii	"tp\000"
 1505 0664 04       		.byte	0x4
 1506 0665 4F       		.byte	0x4f
 1507 0666 25020000 		.4byte	0x225
 1508 066a 00       		.byte	0
 1509 066b 03       		.uleb128 0x3
 1510 066c 01       		.byte	0x1
 1511 066d 02       		.byte	0x2
 1512 066e 99020000 		.4byte	.LASF95
 1513 0672 1D       		.uleb128 0x1d
 1514 0673 52030000 		.4byte	.LASF97
 1515 0677 03       		.byte	0x3
 1516 0678 6902     		.2byte	0x269
 1517 067a 25020000 		.4byte	0x225
 1518 067e 03       		.byte	0x3
 1519 067f 9B060000 		.4byte	0x69b
 1520 0683 17       		.uleb128 0x17
 1521 0684 74717000 		.ascii	"tqp\000"
 1522 0688 03       		.byte	0x3
 1523 0689 6902     		.2byte	0x269
 1524 068b 1A060000 		.4byte	0x61a
 1525 068f 1E       		.uleb128 0x1e
 1526 0690 747000   		.ascii	"tp\000"
 1527 0693 03       		.byte	0x3
 1528 0694 6A02     		.2byte	0x26a
 1529 0696 25020000 		.4byte	0x225
 1530 069a 00       		.byte	0
 1531 069b 1F       		.uleb128 0x1f
 1532 069c 8D040000 		.4byte	.LASF99
 1533 06a0 04       		.byte	0x4
 1534 06a1 71       		.byte	0x71
 1535 06a2 03       		.byte	0x3
 1536 06a3 BD060000 		.4byte	0x6bd
 1537 06a7 1C       		.uleb128 0x1c
 1538 06a8 747000   		.ascii	"tp\000"
 1539 06ab 04       		.byte	0x4
 1540 06ac 71       		.byte	0x71
 1541 06ad 25020000 		.4byte	0x225
 1542 06b1 1C       		.uleb128 0x1c
 1543 06b2 6D736700 		.ascii	"msg\000"
 1544 06b6 04       		.byte	0x4
ARM GAS  /tmp/ccOjc5ii.s 			page 54


 1545 06b7 71       		.byte	0x71
 1546 06b8 05010000 		.4byte	0x105
 1547 06bc 00       		.byte	0
 1548 06bd 20       		.uleb128 0x20
 1549 06be 9B000000 		.4byte	.LASF100
 1550 06c2 01       		.byte	0x1
 1551 06c3 57       		.byte	0x57
 1552 06c4 05010000 		.4byte	0x105
 1553 06c8 00000000 		.4byte	.LFB149
 1554 06cc 38000000 		.4byte	.LFE149-.LFB149
 1555 06d0 01       		.uleb128 0x1
 1556 06d1 9C       		.byte	0x9c
 1557 06d2 C7070000 		.4byte	0x7c7
 1558 06d6 21       		.uleb128 0x21
 1559 06d7 747000   		.ascii	"tp\000"
 1560 06da 01       		.byte	0x1
 1561 06db 57       		.byte	0x57
 1562 06dc 25020000 		.4byte	0x225
 1563 06e0 00000000 		.4byte	.LLST0
 1564 06e4 21       		.uleb128 0x21
 1565 06e5 6D736700 		.ascii	"msg\000"
 1566 06e9 01       		.byte	0x1
 1567 06ea 57       		.byte	0x57
 1568 06eb 05010000 		.4byte	0x105
 1569 06ef 3A000000 		.4byte	.LLST1
 1570 06f3 22       		.uleb128 0x22
 1571 06f4 63747000 		.ascii	"ctp\000"
 1572 06f8 01       		.byte	0x1
 1573 06f9 58       		.byte	0x58
 1574 06fa 25020000 		.4byte	0x225
 1575 06fe 7F000000 		.4byte	.LLST2
 1576 0702 23       		.uleb128 0x23
 1577 0703 11050000 		.4byte	.LASF102
 1578 0707 D7070000 		.4byte	0x7d7
 1579 070b 24       		.uleb128 0x24
 1580 070c EC050000 		.4byte	0x5ec
 1581 0710 06000000 		.4byte	.LBB52
 1582 0714 02000000 		.4byte	.LBE52-.LBB52
 1583 0718 01       		.byte	0x1
 1584 0719 5C       		.byte	0x5c
 1585 071a 40070000 		.4byte	0x740
 1586 071e 25       		.uleb128 0x25
 1587 071f DA050000 		.4byte	0x5da
 1588 0723 06000000 		.4byte	.LBB53
 1589 0727 02000000 		.4byte	.LBE53-.LBB53
 1590 072b 0D       		.byte	0xd
 1591 072c 7801     		.2byte	0x178
 1592 072e 26       		.uleb128 0x26
 1593 072f CA050000 		.4byte	0x5ca
 1594 0733 06000000 		.4byte	.LBB54
 1595 0737 02000000 		.4byte	.LBE54-.LBB54
 1596 073b 0A       		.byte	0xa
 1597 073c 7501     		.2byte	0x175
 1598 073e 00       		.byte	0
 1599 073f 00       		.byte	0
 1600 0740 24       		.uleb128 0x24
 1601 0741 F5050000 		.4byte	0x5f5
ARM GAS  /tmp/ccOjc5ii.s 			page 55


 1602 0745 0E000000 		.4byte	.LBB56
 1603 0749 0A000000 		.4byte	.LBE56-.LBB56
 1604 074d 01       		.byte	0x1
 1605 074e 5E       		.byte	0x5e
 1606 074f 66070000 		.4byte	0x766
 1607 0753 27       		.uleb128 0x27
 1608 0754 0D060000 		.4byte	0x60d
 1609 0758 9D000000 		.4byte	.LLST3
 1610 075c 27       		.uleb128 0x27
 1611 075d 02060000 		.4byte	0x602
 1612 0761 03010000 		.4byte	.LLST4
 1613 0765 00       		.byte	0
 1614 0766 24       		.uleb128 0x24
 1615 0767 20060000 		.4byte	0x620
 1616 076b 28000000 		.4byte	.LBB58
 1617 076f 02000000 		.4byte	.LBE58-.LBB58
 1618 0773 01       		.byte	0x1
 1619 0774 64       		.byte	0x64
 1620 0775 AA070000 		.4byte	0x7aa
 1621 0779 28       		.uleb128 0x28
 1622 077a 28000000 		.4byte	.LBB59
 1623 077e 02000000 		.4byte	.LBE59-.LBB59
 1624 0782 29       		.uleb128 0x29
 1625 0783 2D060000 		.4byte	0x62d
 1626 0787 25       		.uleb128 0x25
 1627 0788 E3050000 		.4byte	0x5e3
 1628 078c 28000000 		.4byte	.LBB60
 1629 0790 02000000 		.4byte	.LBE60-.LBB60
 1630 0794 0D       		.byte	0xd
 1631 0795 8F01     		.2byte	0x18f
 1632 0797 26       		.uleb128 0x26
 1633 0798 D2050000 		.4byte	0x5d2
 1634 079c 28000000 		.4byte	.LBB61
 1635 07a0 02000000 		.4byte	.LBE61-.LBB61
 1636 07a4 0A       		.byte	0xa
 1637 07a5 7E01     		.2byte	0x17e
 1638 07a7 00       		.byte	0
 1639 07a8 00       		.byte	0
 1640 07a9 00       		.byte	0
 1641 07aa 2A       		.uleb128 0x2a
 1642 07ab 26000000 		.4byte	.LVL7
 1643 07af E4090000 		.4byte	0x9e4
 1644 07b3 BD070000 		.4byte	0x7bd
 1645 07b7 2B       		.uleb128 0x2b
 1646 07b8 01       		.uleb128 0x1
 1647 07b9 50       		.byte	0x50
 1648 07ba 01       		.uleb128 0x1
 1649 07bb 3C       		.byte	0x3c
 1650 07bc 00       		.byte	0
 1651 07bd 2C       		.uleb128 0x2c
 1652 07be 30000000 		.4byte	.LVL11
 1653 07c2 F6090000 		.4byte	0x9f6
 1654 07c6 00       		.byte	0
 1655 07c7 19       		.uleb128 0x19
 1656 07c8 A1050000 		.4byte	0x5a1
 1657 07cc D7070000 		.4byte	0x7d7
 1658 07d0 1A       		.uleb128 0x1a
ARM GAS  /tmp/ccOjc5ii.s 			page 56


 1659 07d1 1E040000 		.4byte	0x41e
 1660 07d5 09       		.byte	0x9
 1661 07d6 00       		.byte	0
 1662 07d7 12       		.uleb128 0x12
 1663 07d8 C7070000 		.4byte	0x7c7
 1664 07dc 20       		.uleb128 0x20
 1665 07dd 38030000 		.4byte	.LASF101
 1666 07e1 01       		.byte	0x1
 1667 07e2 77       		.byte	0x77
 1668 07e3 25020000 		.4byte	0x225
 1669 07e7 00000000 		.4byte	.LFB150
 1670 07eb 38000000 		.4byte	.LFE150-.LFB150
 1671 07ef 01       		.uleb128 0x1
 1672 07f0 9C       		.byte	0x9c
 1673 07f1 D5080000 		.4byte	0x8d5
 1674 07f5 2D       		.uleb128 0x2d
 1675 07f6 747000   		.ascii	"tp\000"
 1676 07f9 01       		.byte	0x1
 1677 07fa 78       		.byte	0x78
 1678 07fb 25020000 		.4byte	0x225
 1679 07ff 24       		.uleb128 0x24
 1680 0800 EC050000 		.4byte	0x5ec
 1681 0804 02000000 		.4byte	.LBB63
 1682 0808 02000000 		.4byte	.LBE63-.LBB63
 1683 080c 01       		.byte	0x1
 1684 080d 7A       		.byte	0x7a
 1685 080e 34080000 		.4byte	0x834
 1686 0812 25       		.uleb128 0x25
 1687 0813 DA050000 		.4byte	0x5da
 1688 0817 02000000 		.4byte	.LBB64
 1689 081b 02000000 		.4byte	.LBE64-.LBB64
 1690 081f 0D       		.byte	0xd
 1691 0820 7801     		.2byte	0x178
 1692 0822 26       		.uleb128 0x26
 1693 0823 CA050000 		.4byte	0x5ca
 1694 0827 02000000 		.4byte	.LBB65
 1695 082b 02000000 		.4byte	.LBE65-.LBB65
 1696 082f 0A       		.byte	0xa
 1697 0830 7501     		.2byte	0x175
 1698 0832 00       		.byte	0
 1699 0833 00       		.byte	0
 1700 0834 24       		.uleb128 0x24
 1701 0835 50060000 		.4byte	0x650
 1702 0839 08000000 		.4byte	.LBB67
 1703 083d 06000000 		.4byte	.LBE67-.LBB67
 1704 0841 01       		.byte	0x1
 1705 0842 7B       		.byte	0x7b
 1706 0843 51080000 		.4byte	0x851
 1707 0847 27       		.uleb128 0x27
 1708 0848 60060000 		.4byte	0x660
 1709 084c 21010000 		.4byte	.LLST5
 1710 0850 00       		.byte	0
 1711 0851 24       		.uleb128 0x24
 1712 0852 72060000 		.4byte	0x672
 1713 0856 12000000 		.4byte	.LBB69
 1714 085a 06000000 		.4byte	.LBE69-.LBB69
 1715 085e 01       		.byte	0x1
ARM GAS  /tmp/ccOjc5ii.s 			page 57


 1716 085f 7E       		.byte	0x7e
 1717 0860 81080000 		.4byte	0x881
 1718 0864 27       		.uleb128 0x27
 1719 0865 83060000 		.4byte	0x683
 1720 0869 3F010000 		.4byte	.LLST6
 1721 086d 28       		.uleb128 0x28
 1722 086e 12000000 		.4byte	.LBB70
 1723 0872 06000000 		.4byte	.LBE70-.LBB70
 1724 0876 2E       		.uleb128 0x2e
 1725 0877 8F060000 		.4byte	0x68f
 1726 087b 5E010000 		.4byte	.LLST7
 1727 087f 00       		.byte	0
 1728 0880 00       		.byte	0
 1729 0881 24       		.uleb128 0x24
 1730 0882 20060000 		.4byte	0x620
 1731 0886 1E000000 		.4byte	.LBB71
 1732 088a 02000000 		.4byte	.LBE71-.LBB71
 1733 088e 01       		.byte	0x1
 1734 088f 80       		.byte	0x80
 1735 0890 C5080000 		.4byte	0x8c5
 1736 0894 28       		.uleb128 0x28
 1737 0895 1E000000 		.4byte	.LBB72
 1738 0899 02000000 		.4byte	.LBE72-.LBB72
 1739 089d 29       		.uleb128 0x29
 1740 089e 2D060000 		.4byte	0x62d
 1741 08a2 25       		.uleb128 0x25
 1742 08a3 E3050000 		.4byte	0x5e3
 1743 08a7 1E000000 		.4byte	.LBB73
 1744 08ab 02000000 		.4byte	.LBE73-.LBB73
 1745 08af 0D       		.byte	0xd
 1746 08b0 8F01     		.2byte	0x18f
 1747 08b2 26       		.uleb128 0x26
 1748 08b3 D2050000 		.4byte	0x5d2
 1749 08b7 1E000000 		.4byte	.LBB74
 1750 08bb 02000000 		.4byte	.LBE74-.LBB74
 1751 08bf 0A       		.byte	0xa
 1752 08c0 7E01     		.2byte	0x17e
 1753 08c2 00       		.byte	0
 1754 08c3 00       		.byte	0
 1755 08c4 00       		.byte	0
 1756 08c5 2F       		.uleb128 0x2f
 1757 08c6 28000000 		.4byte	.LVL16
 1758 08ca E4090000 		.4byte	0x9e4
 1759 08ce 2B       		.uleb128 0x2b
 1760 08cf 01       		.uleb128 0x1
 1761 08d0 50       		.byte	0x50
 1762 08d1 01       		.uleb128 0x1
 1763 08d2 3E       		.byte	0x3e
 1764 08d3 00       		.byte	0
 1765 08d4 00       		.byte	0
 1766 08d5 30       		.uleb128 0x30
 1767 08d6 03010000 		.4byte	.LASF107
 1768 08da 01       		.byte	0x1
 1769 08db 8F       		.byte	0x8f
 1770 08dc 00000000 		.4byte	.LFB151
 1771 08e0 0C000000 		.4byte	.LFE151-.LFB151
 1772 08e4 01       		.uleb128 0x1
ARM GAS  /tmp/ccOjc5ii.s 			page 58


 1773 08e5 9C       		.byte	0x9c
 1774 08e6 C4090000 		.4byte	0x9c4
 1775 08ea 21       		.uleb128 0x21
 1776 08eb 747000   		.ascii	"tp\000"
 1777 08ee 01       		.byte	0x1
 1778 08ef 8F       		.byte	0x8f
 1779 08f0 25020000 		.4byte	0x225
 1780 08f4 71010000 		.4byte	.LLST8
 1781 08f8 21       		.uleb128 0x21
 1782 08f9 6D736700 		.ascii	"msg\000"
 1783 08fd 01       		.byte	0x1
 1784 08fe 8F       		.byte	0x8f
 1785 08ff 05010000 		.4byte	0x105
 1786 0903 92010000 		.4byte	.LLST9
 1787 0907 23       		.uleb128 0x23
 1788 0908 10000000 		.4byte	.LASF103
 1789 090c D4090000 		.4byte	0x9d4
 1790 0910 24       		.uleb128 0x24
 1791 0911 EC050000 		.4byte	0x5ec
 1792 0915 02000000 		.4byte	.LBB76
 1793 0919 02000000 		.4byte	.LBE76-.LBB76
 1794 091d 01       		.byte	0x1
 1795 091e 91       		.byte	0x91
 1796 091f 45090000 		.4byte	0x945
 1797 0923 25       		.uleb128 0x25
 1798 0924 DA050000 		.4byte	0x5da
 1799 0928 02000000 		.4byte	.LBB77
 1800 092c 02000000 		.4byte	.LBE77-.LBB77
 1801 0930 0D       		.byte	0xd
 1802 0931 7801     		.2byte	0x178
 1803 0933 26       		.uleb128 0x26
 1804 0934 CA050000 		.4byte	0x5ca
 1805 0938 02000000 		.4byte	.LBB78
 1806 093c 02000000 		.4byte	.LBE78-.LBB78
 1807 0940 0A       		.byte	0xa
 1808 0941 7501     		.2byte	0x175
 1809 0943 00       		.byte	0
 1810 0944 00       		.byte	0
 1811 0945 24       		.uleb128 0x24
 1812 0946 9B060000 		.4byte	0x69b
 1813 094a 04000000 		.4byte	.LBB80
 1814 094e 04000000 		.4byte	.LBE80-.LBB80
 1815 0952 01       		.byte	0x1
 1816 0953 93       		.byte	0x93
 1817 0954 83090000 		.4byte	0x983
 1818 0958 27       		.uleb128 0x27
 1819 0959 B1060000 		.4byte	0x6b1
 1820 095d B3010000 		.4byte	.LLST10
 1821 0961 27       		.uleb128 0x27
 1822 0962 A7060000 		.4byte	0x6a7
 1823 0966 D4010000 		.4byte	.LLST11
 1824 096a 2F       		.uleb128 0x2f
 1825 096b 08000000 		.4byte	.LVL19
 1826 096f 0C0A0000 		.4byte	0xa0c
 1827 0973 2B       		.uleb128 0x2b
 1828 0974 01       		.uleb128 0x1
 1829 0975 51       		.byte	0x51
ARM GAS  /tmp/ccOjc5ii.s 			page 59


 1830 0976 03       		.uleb128 0x3
 1831 0977 F3       		.byte	0xf3
 1832 0978 01       		.uleb128 0x1
 1833 0979 51       		.byte	0x51
 1834 097a 2B       		.uleb128 0x2b
 1835 097b 01       		.uleb128 0x1
 1836 097c 50       		.byte	0x50
 1837 097d 03       		.uleb128 0x3
 1838 097e F3       		.byte	0xf3
 1839 097f 01       		.uleb128 0x1
 1840 0980 50       		.byte	0x50
 1841 0981 00       		.byte	0
 1842 0982 00       		.byte	0
 1843 0983 31       		.uleb128 0x31
 1844 0984 20060000 		.4byte	0x620
 1845 0988 08000000 		.4byte	.LBB82
 1846 098c 02000000 		.4byte	.LBE82-.LBB82
 1847 0990 01       		.byte	0x1
 1848 0991 94       		.byte	0x94
 1849 0992 28       		.uleb128 0x28
 1850 0993 08000000 		.4byte	.LBB83
 1851 0997 02000000 		.4byte	.LBE83-.LBB83
 1852 099b 29       		.uleb128 0x29
 1853 099c 2D060000 		.4byte	0x62d
 1854 09a0 25       		.uleb128 0x25
 1855 09a1 E3050000 		.4byte	0x5e3
 1856 09a5 08000000 		.4byte	.LBB84
 1857 09a9 02000000 		.4byte	.LBE84-.LBB84
 1858 09ad 0D       		.byte	0xd
 1859 09ae 8F01     		.2byte	0x18f
 1860 09b0 26       		.uleb128 0x26
 1861 09b1 D2050000 		.4byte	0x5d2
 1862 09b5 08000000 		.4byte	.LBB85
 1863 09b9 02000000 		.4byte	.LBE85-.LBB85
 1864 09bd 0A       		.byte	0xa
 1865 09be 7E01     		.2byte	0x17e
 1866 09c0 00       		.byte	0
 1867 09c1 00       		.byte	0
 1868 09c2 00       		.byte	0
 1869 09c3 00       		.byte	0
 1870 09c4 19       		.uleb128 0x19
 1871 09c5 A1050000 		.4byte	0x5a1
 1872 09c9 D4090000 		.4byte	0x9d4
 1873 09cd 1A       		.uleb128 0x1a
 1874 09ce 1E040000 		.4byte	0x41e
 1875 09d2 0C       		.byte	0xc
 1876 09d3 00       		.byte	0
 1877 09d4 12       		.uleb128 0x12
 1878 09d5 C4090000 		.4byte	0x9c4
 1879 09d9 32       		.uleb128 0x32
 1880 09da 636800   		.ascii	"ch\000"
 1881 09dd 03       		.byte	0x3
 1882 09de D201     		.2byte	0x1d2
 1883 09e0 D1030000 		.4byte	0x3d1
 1884 09e4 33       		.uleb128 0x33
 1885 09e5 F5030000 		.4byte	.LASF108
 1886 09e9 03       		.byte	0x3
ARM GAS  /tmp/ccOjc5ii.s 			page 60


 1887 09ea DE01     		.2byte	0x1de
 1888 09ec F6090000 		.4byte	0x9f6
 1889 09f0 0D       		.uleb128 0xd
 1890 09f1 E4000000 		.4byte	0xe4
 1891 09f5 00       		.byte	0
 1892 09f6 34       		.uleb128 0x34
 1893 09f7 10010000 		.4byte	.LASF109
 1894 09fb 03       		.byte	0x3
 1895 09fc DC01     		.2byte	0x1dc
 1896 09fe 25020000 		.4byte	0x225
 1897 0a02 0C0A0000 		.4byte	0xa0c
 1898 0a06 0D       		.uleb128 0xd
 1899 0a07 25020000 		.4byte	0x225
 1900 0a0b 00       		.byte	0
 1901 0a0c 35       		.uleb128 0x35
 1902 0a0d 9B040000 		.4byte	.LASF110
 1903 0a11 03       		.byte	0x3
 1904 0a12 E001     		.2byte	0x1e0
 1905 0a14 0D       		.uleb128 0xd
 1906 0a15 25020000 		.4byte	0x225
 1907 0a19 0D       		.uleb128 0xd
 1908 0a1a 05010000 		.4byte	0x105
 1909 0a1e 00       		.byte	0
 1910 0a1f 00       		.byte	0
 1911              		.section	.debug_abbrev,"",%progbits
 1912              	.Ldebug_abbrev0:
 1913 0000 01       		.uleb128 0x1
 1914 0001 11       		.uleb128 0x11
 1915 0002 01       		.byte	0x1
 1916 0003 25       		.uleb128 0x25
 1917 0004 0E       		.uleb128 0xe
 1918 0005 13       		.uleb128 0x13
 1919 0006 0B       		.uleb128 0xb
 1920 0007 03       		.uleb128 0x3
 1921 0008 0E       		.uleb128 0xe
 1922 0009 1B       		.uleb128 0x1b
 1923 000a 0E       		.uleb128 0xe
 1924 000b 55       		.uleb128 0x55
 1925 000c 17       		.uleb128 0x17
 1926 000d 11       		.uleb128 0x11
 1927 000e 01       		.uleb128 0x1
 1928 000f 10       		.uleb128 0x10
 1929 0010 17       		.uleb128 0x17
 1930 0011 00       		.byte	0
 1931 0012 00       		.byte	0
 1932 0013 02       		.uleb128 0x2
 1933 0014 24       		.uleb128 0x24
 1934 0015 00       		.byte	0
 1935 0016 0B       		.uleb128 0xb
 1936 0017 0B       		.uleb128 0xb
 1937 0018 3E       		.uleb128 0x3e
 1938 0019 0B       		.uleb128 0xb
 1939 001a 03       		.uleb128 0x3
 1940 001b 08       		.uleb128 0x8
 1941 001c 00       		.byte	0
 1942 001d 00       		.byte	0
 1943 001e 03       		.uleb128 0x3
ARM GAS  /tmp/ccOjc5ii.s 			page 61


 1944 001f 24       		.uleb128 0x24
 1945 0020 00       		.byte	0
 1946 0021 0B       		.uleb128 0xb
 1947 0022 0B       		.uleb128 0xb
 1948 0023 3E       		.uleb128 0x3e
 1949 0024 0B       		.uleb128 0xb
 1950 0025 03       		.uleb128 0x3
 1951 0026 0E       		.uleb128 0xe
 1952 0027 00       		.byte	0
 1953 0028 00       		.byte	0
 1954 0029 04       		.uleb128 0x4
 1955 002a 16       		.uleb128 0x16
 1956 002b 00       		.byte	0
 1957 002c 03       		.uleb128 0x3
 1958 002d 0E       		.uleb128 0xe
 1959 002e 3A       		.uleb128 0x3a
 1960 002f 0B       		.uleb128 0xb
 1961 0030 3B       		.uleb128 0x3b
 1962 0031 0B       		.uleb128 0xb
 1963 0032 49       		.uleb128 0x49
 1964 0033 13       		.uleb128 0x13
 1965 0034 00       		.byte	0
 1966 0035 00       		.byte	0
 1967 0036 05       		.uleb128 0x5
 1968 0037 13       		.uleb128 0x13
 1969 0038 01       		.byte	0x1
 1970 0039 03       		.uleb128 0x3
 1971 003a 0E       		.uleb128 0xe
 1972 003b 0B       		.uleb128 0xb
 1973 003c 0B       		.uleb128 0xb
 1974 003d 3A       		.uleb128 0x3a
 1975 003e 0B       		.uleb128 0xb
 1976 003f 3B       		.uleb128 0x3b
 1977 0040 0B       		.uleb128 0xb
 1978 0041 01       		.uleb128 0x1
 1979 0042 13       		.uleb128 0x13
 1980 0043 00       		.byte	0
 1981 0044 00       		.byte	0
 1982 0045 06       		.uleb128 0x6
 1983 0046 0D       		.uleb128 0xd
 1984 0047 00       		.byte	0
 1985 0048 03       		.uleb128 0x3
 1986 0049 0E       		.uleb128 0xe
 1987 004a 3A       		.uleb128 0x3a
 1988 004b 0B       		.uleb128 0xb
 1989 004c 3B       		.uleb128 0x3b
 1990 004d 0B       		.uleb128 0xb
 1991 004e 49       		.uleb128 0x49
 1992 004f 13       		.uleb128 0x13
 1993 0050 38       		.uleb128 0x38
 1994 0051 0B       		.uleb128 0xb
 1995 0052 00       		.byte	0
 1996 0053 00       		.byte	0
 1997 0054 07       		.uleb128 0x7
 1998 0055 0D       		.uleb128 0xd
 1999 0056 00       		.byte	0
 2000 0057 03       		.uleb128 0x3
ARM GAS  /tmp/ccOjc5ii.s 			page 62


 2001 0058 08       		.uleb128 0x8
 2002 0059 3A       		.uleb128 0x3a
 2003 005a 0B       		.uleb128 0xb
 2004 005b 3B       		.uleb128 0x3b
 2005 005c 0B       		.uleb128 0xb
 2006 005d 49       		.uleb128 0x49
 2007 005e 13       		.uleb128 0x13
 2008 005f 38       		.uleb128 0x38
 2009 0060 0B       		.uleb128 0xb
 2010 0061 00       		.byte	0
 2011 0062 00       		.byte	0
 2012 0063 08       		.uleb128 0x8
 2013 0064 0D       		.uleb128 0xd
 2014 0065 00       		.byte	0
 2015 0066 03       		.uleb128 0x3
 2016 0067 08       		.uleb128 0x8
 2017 0068 3A       		.uleb128 0x3a
 2018 0069 0B       		.uleb128 0xb
 2019 006a 3B       		.uleb128 0x3b
 2020 006b 05       		.uleb128 0x5
 2021 006c 49       		.uleb128 0x49
 2022 006d 13       		.uleb128 0x13
 2023 006e 38       		.uleb128 0x38
 2024 006f 0B       		.uleb128 0xb
 2025 0070 00       		.byte	0
 2026 0071 00       		.byte	0
 2027 0072 09       		.uleb128 0x9
 2028 0073 0D       		.uleb128 0xd
 2029 0074 00       		.byte	0
 2030 0075 03       		.uleb128 0x3
 2031 0076 0E       		.uleb128 0xe
 2032 0077 3A       		.uleb128 0x3a
 2033 0078 0B       		.uleb128 0xb
 2034 0079 3B       		.uleb128 0x3b
 2035 007a 05       		.uleb128 0x5
 2036 007b 49       		.uleb128 0x49
 2037 007c 13       		.uleb128 0x13
 2038 007d 38       		.uleb128 0x38
 2039 007e 0B       		.uleb128 0xb
 2040 007f 00       		.byte	0
 2041 0080 00       		.byte	0
 2042 0081 0A       		.uleb128 0xa
 2043 0082 0F       		.uleb128 0xf
 2044 0083 00       		.byte	0
 2045 0084 0B       		.uleb128 0xb
 2046 0085 0B       		.uleb128 0xb
 2047 0086 49       		.uleb128 0x49
 2048 0087 13       		.uleb128 0x13
 2049 0088 00       		.byte	0
 2050 0089 00       		.byte	0
 2051 008a 0B       		.uleb128 0xb
 2052 008b 13       		.uleb128 0x13
 2053 008c 01       		.byte	0x1
 2054 008d 03       		.uleb128 0x3
 2055 008e 0E       		.uleb128 0xe
 2056 008f 0B       		.uleb128 0xb
 2057 0090 0B       		.uleb128 0xb
ARM GAS  /tmp/ccOjc5ii.s 			page 63


 2058 0091 3A       		.uleb128 0x3a
 2059 0092 0B       		.uleb128 0xb
 2060 0093 3B       		.uleb128 0x3b
 2061 0094 05       		.uleb128 0x5
 2062 0095 01       		.uleb128 0x1
 2063 0096 13       		.uleb128 0x13
 2064 0097 00       		.byte	0
 2065 0098 00       		.byte	0
 2066 0099 0C       		.uleb128 0xc
 2067 009a 15       		.uleb128 0x15
 2068 009b 01       		.byte	0x1
 2069 009c 27       		.uleb128 0x27
 2070 009d 19       		.uleb128 0x19
 2071 009e 01       		.uleb128 0x1
 2072 009f 13       		.uleb128 0x13
 2073 00a0 00       		.byte	0
 2074 00a1 00       		.byte	0
 2075 00a2 0D       		.uleb128 0xd
 2076 00a3 05       		.uleb128 0x5
 2077 00a4 00       		.byte	0
 2078 00a5 49       		.uleb128 0x49
 2079 00a6 13       		.uleb128 0x13
 2080 00a7 00       		.byte	0
 2081 00a8 00       		.byte	0
 2082 00a9 0E       		.uleb128 0xe
 2083 00aa 0F       		.uleb128 0xf
 2084 00ab 00       		.byte	0
 2085 00ac 0B       		.uleb128 0xb
 2086 00ad 0B       		.uleb128 0xb
 2087 00ae 00       		.byte	0
 2088 00af 00       		.byte	0
 2089 00b0 0F       		.uleb128 0xf
 2090 00b1 17       		.uleb128 0x17
 2091 00b2 01       		.byte	0x1
 2092 00b3 0B       		.uleb128 0xb
 2093 00b4 0B       		.uleb128 0xb
 2094 00b5 3A       		.uleb128 0x3a
 2095 00b6 0B       		.uleb128 0xb
 2096 00b7 3B       		.uleb128 0x3b
 2097 00b8 0B       		.uleb128 0xb
 2098 00b9 01       		.uleb128 0x1
 2099 00ba 13       		.uleb128 0x13
 2100 00bb 00       		.byte	0
 2101 00bc 00       		.byte	0
 2102 00bd 10       		.uleb128 0x10
 2103 00be 0D       		.uleb128 0xd
 2104 00bf 00       		.byte	0
 2105 00c0 03       		.uleb128 0x3
 2106 00c1 0E       		.uleb128 0xe
 2107 00c2 3A       		.uleb128 0x3a
 2108 00c3 0B       		.uleb128 0xb
 2109 00c4 3B       		.uleb128 0x3b
 2110 00c5 0B       		.uleb128 0xb
 2111 00c6 49       		.uleb128 0x49
 2112 00c7 13       		.uleb128 0x13
 2113 00c8 00       		.byte	0
 2114 00c9 00       		.byte	0
ARM GAS  /tmp/ccOjc5ii.s 			page 64


 2115 00ca 11       		.uleb128 0x11
 2116 00cb 0D       		.uleb128 0xd
 2117 00cc 00       		.byte	0
 2118 00cd 03       		.uleb128 0x3
 2119 00ce 0E       		.uleb128 0xe
 2120 00cf 3A       		.uleb128 0x3a
 2121 00d0 0B       		.uleb128 0xb
 2122 00d1 3B       		.uleb128 0x3b
 2123 00d2 05       		.uleb128 0x5
 2124 00d3 49       		.uleb128 0x49
 2125 00d4 13       		.uleb128 0x13
 2126 00d5 00       		.byte	0
 2127 00d6 00       		.byte	0
 2128 00d7 12       		.uleb128 0x12
 2129 00d8 26       		.uleb128 0x26
 2130 00d9 00       		.byte	0
 2131 00da 49       		.uleb128 0x49
 2132 00db 13       		.uleb128 0x13
 2133 00dc 00       		.byte	0
 2134 00dd 00       		.byte	0
 2135 00de 13       		.uleb128 0x13
 2136 00df 35       		.uleb128 0x35
 2137 00e0 00       		.byte	0
 2138 00e1 49       		.uleb128 0x49
 2139 00e2 13       		.uleb128 0x13
 2140 00e3 00       		.byte	0
 2141 00e4 00       		.byte	0
 2142 00e5 14       		.uleb128 0x14
 2143 00e6 2E       		.uleb128 0x2e
 2144 00e7 00       		.byte	0
 2145 00e8 03       		.uleb128 0x3
 2146 00e9 0E       		.uleb128 0xe
 2147 00ea 3A       		.uleb128 0x3a
 2148 00eb 0B       		.uleb128 0xb
 2149 00ec 3B       		.uleb128 0x3b
 2150 00ed 0B       		.uleb128 0xb
 2151 00ee 27       		.uleb128 0x27
 2152 00ef 19       		.uleb128 0x19
 2153 00f0 20       		.uleb128 0x20
 2154 00f1 0B       		.uleb128 0xb
 2155 00f2 00       		.byte	0
 2156 00f3 00       		.byte	0
 2157 00f4 15       		.uleb128 0x15
 2158 00f5 2E       		.uleb128 0x2e
 2159 00f6 00       		.byte	0
 2160 00f7 03       		.uleb128 0x3
 2161 00f8 0E       		.uleb128 0xe
 2162 00f9 3A       		.uleb128 0x3a
 2163 00fa 0B       		.uleb128 0xb
 2164 00fb 3B       		.uleb128 0x3b
 2165 00fc 05       		.uleb128 0x5
 2166 00fd 27       		.uleb128 0x27
 2167 00fe 19       		.uleb128 0x19
 2168 00ff 20       		.uleb128 0x20
 2169 0100 0B       		.uleb128 0xb
 2170 0101 00       		.byte	0
 2171 0102 00       		.byte	0
ARM GAS  /tmp/ccOjc5ii.s 			page 65


 2172 0103 16       		.uleb128 0x16
 2173 0104 2E       		.uleb128 0x2e
 2174 0105 01       		.byte	0x1
 2175 0106 03       		.uleb128 0x3
 2176 0107 0E       		.uleb128 0xe
 2177 0108 3A       		.uleb128 0x3a
 2178 0109 0B       		.uleb128 0xb
 2179 010a 3B       		.uleb128 0x3b
 2180 010b 05       		.uleb128 0x5
 2181 010c 27       		.uleb128 0x27
 2182 010d 19       		.uleb128 0x19
 2183 010e 20       		.uleb128 0x20
 2184 010f 0B       		.uleb128 0xb
 2185 0110 01       		.uleb128 0x1
 2186 0111 13       		.uleb128 0x13
 2187 0112 00       		.byte	0
 2188 0113 00       		.byte	0
 2189 0114 17       		.uleb128 0x17
 2190 0115 05       		.uleb128 0x5
 2191 0116 00       		.byte	0
 2192 0117 03       		.uleb128 0x3
 2193 0118 08       		.uleb128 0x8
 2194 0119 3A       		.uleb128 0x3a
 2195 011a 0B       		.uleb128 0xb
 2196 011b 3B       		.uleb128 0x3b
 2197 011c 05       		.uleb128 0x5
 2198 011d 49       		.uleb128 0x49
 2199 011e 13       		.uleb128 0x13
 2200 011f 00       		.byte	0
 2201 0120 00       		.byte	0
 2202 0121 18       		.uleb128 0x18
 2203 0122 34       		.uleb128 0x34
 2204 0123 00       		.byte	0
 2205 0124 03       		.uleb128 0x3
 2206 0125 0E       		.uleb128 0xe
 2207 0126 49       		.uleb128 0x49
 2208 0127 13       		.uleb128 0x13
 2209 0128 34       		.uleb128 0x34
 2210 0129 19       		.uleb128 0x19
 2211 012a 1C       		.uleb128 0x1c
 2212 012b 0E       		.uleb128 0xe
 2213 012c 00       		.byte	0
 2214 012d 00       		.byte	0
 2215 012e 19       		.uleb128 0x19
 2216 012f 01       		.uleb128 0x1
 2217 0130 01       		.byte	0x1
 2218 0131 49       		.uleb128 0x49
 2219 0132 13       		.uleb128 0x13
 2220 0133 01       		.uleb128 0x1
 2221 0134 13       		.uleb128 0x13
 2222 0135 00       		.byte	0
 2223 0136 00       		.byte	0
 2224 0137 1A       		.uleb128 0x1a
 2225 0138 21       		.uleb128 0x21
 2226 0139 00       		.byte	0
 2227 013a 49       		.uleb128 0x49
 2228 013b 13       		.uleb128 0x13
ARM GAS  /tmp/ccOjc5ii.s 			page 66


 2229 013c 2F       		.uleb128 0x2f
 2230 013d 0B       		.uleb128 0xb
 2231 013e 00       		.byte	0
 2232 013f 00       		.byte	0
 2233 0140 1B       		.uleb128 0x1b
 2234 0141 2E       		.uleb128 0x2e
 2235 0142 01       		.byte	0x1
 2236 0143 03       		.uleb128 0x3
 2237 0144 0E       		.uleb128 0xe
 2238 0145 3A       		.uleb128 0x3a
 2239 0146 0B       		.uleb128 0xb
 2240 0147 3B       		.uleb128 0x3b
 2241 0148 0B       		.uleb128 0xb
 2242 0149 27       		.uleb128 0x27
 2243 014a 19       		.uleb128 0x19
 2244 014b 49       		.uleb128 0x49
 2245 014c 13       		.uleb128 0x13
 2246 014d 20       		.uleb128 0x20
 2247 014e 0B       		.uleb128 0xb
 2248 014f 01       		.uleb128 0x1
 2249 0150 13       		.uleb128 0x13
 2250 0151 00       		.byte	0
 2251 0152 00       		.byte	0
 2252 0153 1C       		.uleb128 0x1c
 2253 0154 05       		.uleb128 0x5
 2254 0155 00       		.byte	0
 2255 0156 03       		.uleb128 0x3
 2256 0157 08       		.uleb128 0x8
 2257 0158 3A       		.uleb128 0x3a
 2258 0159 0B       		.uleb128 0xb
 2259 015a 3B       		.uleb128 0x3b
 2260 015b 0B       		.uleb128 0xb
 2261 015c 49       		.uleb128 0x49
 2262 015d 13       		.uleb128 0x13
 2263 015e 00       		.byte	0
 2264 015f 00       		.byte	0
 2265 0160 1D       		.uleb128 0x1d
 2266 0161 2E       		.uleb128 0x2e
 2267 0162 01       		.byte	0x1
 2268 0163 03       		.uleb128 0x3
 2269 0164 0E       		.uleb128 0xe
 2270 0165 3A       		.uleb128 0x3a
 2271 0166 0B       		.uleb128 0xb
 2272 0167 3B       		.uleb128 0x3b
 2273 0168 05       		.uleb128 0x5
 2274 0169 27       		.uleb128 0x27
 2275 016a 19       		.uleb128 0x19
 2276 016b 49       		.uleb128 0x49
 2277 016c 13       		.uleb128 0x13
 2278 016d 20       		.uleb128 0x20
 2279 016e 0B       		.uleb128 0xb
 2280 016f 01       		.uleb128 0x1
 2281 0170 13       		.uleb128 0x13
 2282 0171 00       		.byte	0
 2283 0172 00       		.byte	0
 2284 0173 1E       		.uleb128 0x1e
 2285 0174 34       		.uleb128 0x34
ARM GAS  /tmp/ccOjc5ii.s 			page 67


 2286 0175 00       		.byte	0
 2287 0176 03       		.uleb128 0x3
 2288 0177 08       		.uleb128 0x8
 2289 0178 3A       		.uleb128 0x3a
 2290 0179 0B       		.uleb128 0xb
 2291 017a 3B       		.uleb128 0x3b
 2292 017b 05       		.uleb128 0x5
 2293 017c 49       		.uleb128 0x49
 2294 017d 13       		.uleb128 0x13
 2295 017e 00       		.byte	0
 2296 017f 00       		.byte	0
 2297 0180 1F       		.uleb128 0x1f
 2298 0181 2E       		.uleb128 0x2e
 2299 0182 01       		.byte	0x1
 2300 0183 03       		.uleb128 0x3
 2301 0184 0E       		.uleb128 0xe
 2302 0185 3A       		.uleb128 0x3a
 2303 0186 0B       		.uleb128 0xb
 2304 0187 3B       		.uleb128 0x3b
 2305 0188 0B       		.uleb128 0xb
 2306 0189 27       		.uleb128 0x27
 2307 018a 19       		.uleb128 0x19
 2308 018b 20       		.uleb128 0x20
 2309 018c 0B       		.uleb128 0xb
 2310 018d 01       		.uleb128 0x1
 2311 018e 13       		.uleb128 0x13
 2312 018f 00       		.byte	0
 2313 0190 00       		.byte	0
 2314 0191 20       		.uleb128 0x20
 2315 0192 2E       		.uleb128 0x2e
 2316 0193 01       		.byte	0x1
 2317 0194 3F       		.uleb128 0x3f
 2318 0195 19       		.uleb128 0x19
 2319 0196 03       		.uleb128 0x3
 2320 0197 0E       		.uleb128 0xe
 2321 0198 3A       		.uleb128 0x3a
 2322 0199 0B       		.uleb128 0xb
 2323 019a 3B       		.uleb128 0x3b
 2324 019b 0B       		.uleb128 0xb
 2325 019c 27       		.uleb128 0x27
 2326 019d 19       		.uleb128 0x19
 2327 019e 49       		.uleb128 0x49
 2328 019f 13       		.uleb128 0x13
 2329 01a0 11       		.uleb128 0x11
 2330 01a1 01       		.uleb128 0x1
 2331 01a2 12       		.uleb128 0x12
 2332 01a3 06       		.uleb128 0x6
 2333 01a4 40       		.uleb128 0x40
 2334 01a5 18       		.uleb128 0x18
 2335 01a6 9742     		.uleb128 0x2117
 2336 01a8 19       		.uleb128 0x19
 2337 01a9 01       		.uleb128 0x1
 2338 01aa 13       		.uleb128 0x13
 2339 01ab 00       		.byte	0
 2340 01ac 00       		.byte	0
 2341 01ad 21       		.uleb128 0x21
 2342 01ae 05       		.uleb128 0x5
ARM GAS  /tmp/ccOjc5ii.s 			page 68


 2343 01af 00       		.byte	0
 2344 01b0 03       		.uleb128 0x3
 2345 01b1 08       		.uleb128 0x8
 2346 01b2 3A       		.uleb128 0x3a
 2347 01b3 0B       		.uleb128 0xb
 2348 01b4 3B       		.uleb128 0x3b
 2349 01b5 0B       		.uleb128 0xb
 2350 01b6 49       		.uleb128 0x49
 2351 01b7 13       		.uleb128 0x13
 2352 01b8 02       		.uleb128 0x2
 2353 01b9 17       		.uleb128 0x17
 2354 01ba 00       		.byte	0
 2355 01bb 00       		.byte	0
 2356 01bc 22       		.uleb128 0x22
 2357 01bd 34       		.uleb128 0x34
 2358 01be 00       		.byte	0
 2359 01bf 03       		.uleb128 0x3
 2360 01c0 08       		.uleb128 0x8
 2361 01c1 3A       		.uleb128 0x3a
 2362 01c2 0B       		.uleb128 0xb
 2363 01c3 3B       		.uleb128 0x3b
 2364 01c4 0B       		.uleb128 0xb
 2365 01c5 49       		.uleb128 0x49
 2366 01c6 13       		.uleb128 0x13
 2367 01c7 02       		.uleb128 0x2
 2368 01c8 17       		.uleb128 0x17
 2369 01c9 00       		.byte	0
 2370 01ca 00       		.byte	0
 2371 01cb 23       		.uleb128 0x23
 2372 01cc 34       		.uleb128 0x34
 2373 01cd 00       		.byte	0
 2374 01ce 03       		.uleb128 0x3
 2375 01cf 0E       		.uleb128 0xe
 2376 01d0 49       		.uleb128 0x49
 2377 01d1 13       		.uleb128 0x13
 2378 01d2 34       		.uleb128 0x34
 2379 01d3 19       		.uleb128 0x19
 2380 01d4 00       		.byte	0
 2381 01d5 00       		.byte	0
 2382 01d6 24       		.uleb128 0x24
 2383 01d7 1D       		.uleb128 0x1d
 2384 01d8 01       		.byte	0x1
 2385 01d9 31       		.uleb128 0x31
 2386 01da 13       		.uleb128 0x13
 2387 01db 11       		.uleb128 0x11
 2388 01dc 01       		.uleb128 0x1
 2389 01dd 12       		.uleb128 0x12
 2390 01de 06       		.uleb128 0x6
 2391 01df 58       		.uleb128 0x58
 2392 01e0 0B       		.uleb128 0xb
 2393 01e1 59       		.uleb128 0x59
 2394 01e2 0B       		.uleb128 0xb
 2395 01e3 01       		.uleb128 0x1
 2396 01e4 13       		.uleb128 0x13
 2397 01e5 00       		.byte	0
 2398 01e6 00       		.byte	0
 2399 01e7 25       		.uleb128 0x25
ARM GAS  /tmp/ccOjc5ii.s 			page 69


 2400 01e8 1D       		.uleb128 0x1d
 2401 01e9 01       		.byte	0x1
 2402 01ea 31       		.uleb128 0x31
 2403 01eb 13       		.uleb128 0x13
 2404 01ec 11       		.uleb128 0x11
 2405 01ed 01       		.uleb128 0x1
 2406 01ee 12       		.uleb128 0x12
 2407 01ef 06       		.uleb128 0x6
 2408 01f0 58       		.uleb128 0x58
 2409 01f1 0B       		.uleb128 0xb
 2410 01f2 59       		.uleb128 0x59
 2411 01f3 05       		.uleb128 0x5
 2412 01f4 00       		.byte	0
 2413 01f5 00       		.byte	0
 2414 01f6 26       		.uleb128 0x26
 2415 01f7 1D       		.uleb128 0x1d
 2416 01f8 00       		.byte	0
 2417 01f9 31       		.uleb128 0x31
 2418 01fa 13       		.uleb128 0x13
 2419 01fb 11       		.uleb128 0x11
 2420 01fc 01       		.uleb128 0x1
 2421 01fd 12       		.uleb128 0x12
 2422 01fe 06       		.uleb128 0x6
 2423 01ff 58       		.uleb128 0x58
 2424 0200 0B       		.uleb128 0xb
 2425 0201 59       		.uleb128 0x59
 2426 0202 05       		.uleb128 0x5
 2427 0203 00       		.byte	0
 2428 0204 00       		.byte	0
 2429 0205 27       		.uleb128 0x27
 2430 0206 05       		.uleb128 0x5
 2431 0207 00       		.byte	0
 2432 0208 31       		.uleb128 0x31
 2433 0209 13       		.uleb128 0x13
 2434 020a 02       		.uleb128 0x2
 2435 020b 17       		.uleb128 0x17
 2436 020c 00       		.byte	0
 2437 020d 00       		.byte	0
 2438 020e 28       		.uleb128 0x28
 2439 020f 0B       		.uleb128 0xb
 2440 0210 01       		.byte	0x1
 2441 0211 11       		.uleb128 0x11
 2442 0212 01       		.uleb128 0x1
 2443 0213 12       		.uleb128 0x12
 2444 0214 06       		.uleb128 0x6
 2445 0215 00       		.byte	0
 2446 0216 00       		.byte	0
 2447 0217 29       		.uleb128 0x29
 2448 0218 34       		.uleb128 0x34
 2449 0219 00       		.byte	0
 2450 021a 31       		.uleb128 0x31
 2451 021b 13       		.uleb128 0x13
 2452 021c 00       		.byte	0
 2453 021d 00       		.byte	0
 2454 021e 2A       		.uleb128 0x2a
 2455 021f 898201   		.uleb128 0x4109
 2456 0222 01       		.byte	0x1
ARM GAS  /tmp/ccOjc5ii.s 			page 70


 2457 0223 11       		.uleb128 0x11
 2458 0224 01       		.uleb128 0x1
 2459 0225 31       		.uleb128 0x31
 2460 0226 13       		.uleb128 0x13
 2461 0227 01       		.uleb128 0x1
 2462 0228 13       		.uleb128 0x13
 2463 0229 00       		.byte	0
 2464 022a 00       		.byte	0
 2465 022b 2B       		.uleb128 0x2b
 2466 022c 8A8201   		.uleb128 0x410a
 2467 022f 00       		.byte	0
 2468 0230 02       		.uleb128 0x2
 2469 0231 18       		.uleb128 0x18
 2470 0232 9142     		.uleb128 0x2111
 2471 0234 18       		.uleb128 0x18
 2472 0235 00       		.byte	0
 2473 0236 00       		.byte	0
 2474 0237 2C       		.uleb128 0x2c
 2475 0238 898201   		.uleb128 0x4109
 2476 023b 00       		.byte	0
 2477 023c 11       		.uleb128 0x11
 2478 023d 01       		.uleb128 0x1
 2479 023e 31       		.uleb128 0x31
 2480 023f 13       		.uleb128 0x13
 2481 0240 00       		.byte	0
 2482 0241 00       		.byte	0
 2483 0242 2D       		.uleb128 0x2d
 2484 0243 34       		.uleb128 0x34
 2485 0244 00       		.byte	0
 2486 0245 03       		.uleb128 0x3
 2487 0246 08       		.uleb128 0x8
 2488 0247 3A       		.uleb128 0x3a
 2489 0248 0B       		.uleb128 0xb
 2490 0249 3B       		.uleb128 0x3b
 2491 024a 0B       		.uleb128 0xb
 2492 024b 49       		.uleb128 0x49
 2493 024c 13       		.uleb128 0x13
 2494 024d 00       		.byte	0
 2495 024e 00       		.byte	0
 2496 024f 2E       		.uleb128 0x2e
 2497 0250 34       		.uleb128 0x34
 2498 0251 00       		.byte	0
 2499 0252 31       		.uleb128 0x31
 2500 0253 13       		.uleb128 0x13
 2501 0254 02       		.uleb128 0x2
 2502 0255 17       		.uleb128 0x17
 2503 0256 00       		.byte	0
 2504 0257 00       		.byte	0
 2505 0258 2F       		.uleb128 0x2f
 2506 0259 898201   		.uleb128 0x4109
 2507 025c 01       		.byte	0x1
 2508 025d 11       		.uleb128 0x11
 2509 025e 01       		.uleb128 0x1
 2510 025f 31       		.uleb128 0x31
 2511 0260 13       		.uleb128 0x13
 2512 0261 00       		.byte	0
 2513 0262 00       		.byte	0
ARM GAS  /tmp/ccOjc5ii.s 			page 71


 2514 0263 30       		.uleb128 0x30
 2515 0264 2E       		.uleb128 0x2e
 2516 0265 01       		.byte	0x1
 2517 0266 3F       		.uleb128 0x3f
 2518 0267 19       		.uleb128 0x19
 2519 0268 03       		.uleb128 0x3
 2520 0269 0E       		.uleb128 0xe
 2521 026a 3A       		.uleb128 0x3a
 2522 026b 0B       		.uleb128 0xb
 2523 026c 3B       		.uleb128 0x3b
 2524 026d 0B       		.uleb128 0xb
 2525 026e 27       		.uleb128 0x27
 2526 026f 19       		.uleb128 0x19
 2527 0270 11       		.uleb128 0x11
 2528 0271 01       		.uleb128 0x1
 2529 0272 12       		.uleb128 0x12
 2530 0273 06       		.uleb128 0x6
 2531 0274 40       		.uleb128 0x40
 2532 0275 18       		.uleb128 0x18
 2533 0276 9742     		.uleb128 0x2117
 2534 0278 19       		.uleb128 0x19
 2535 0279 01       		.uleb128 0x1
 2536 027a 13       		.uleb128 0x13
 2537 027b 00       		.byte	0
 2538 027c 00       		.byte	0
 2539 027d 31       		.uleb128 0x31
 2540 027e 1D       		.uleb128 0x1d
 2541 027f 01       		.byte	0x1
 2542 0280 31       		.uleb128 0x31
 2543 0281 13       		.uleb128 0x13
 2544 0282 11       		.uleb128 0x11
 2545 0283 01       		.uleb128 0x1
 2546 0284 12       		.uleb128 0x12
 2547 0285 06       		.uleb128 0x6
 2548 0286 58       		.uleb128 0x58
 2549 0287 0B       		.uleb128 0xb
 2550 0288 59       		.uleb128 0x59
 2551 0289 0B       		.uleb128 0xb
 2552 028a 00       		.byte	0
 2553 028b 00       		.byte	0
 2554 028c 32       		.uleb128 0x32
 2555 028d 34       		.uleb128 0x34
 2556 028e 00       		.byte	0
 2557 028f 03       		.uleb128 0x3
 2558 0290 08       		.uleb128 0x8
 2559 0291 3A       		.uleb128 0x3a
 2560 0292 0B       		.uleb128 0xb
 2561 0293 3B       		.uleb128 0x3b
 2562 0294 05       		.uleb128 0x5
 2563 0295 49       		.uleb128 0x49
 2564 0296 13       		.uleb128 0x13
 2565 0297 3F       		.uleb128 0x3f
 2566 0298 19       		.uleb128 0x19
 2567 0299 3C       		.uleb128 0x3c
 2568 029a 19       		.uleb128 0x19
 2569 029b 00       		.byte	0
 2570 029c 00       		.byte	0
ARM GAS  /tmp/ccOjc5ii.s 			page 72


 2571 029d 33       		.uleb128 0x33
 2572 029e 2E       		.uleb128 0x2e
 2573 029f 01       		.byte	0x1
 2574 02a0 3F       		.uleb128 0x3f
 2575 02a1 19       		.uleb128 0x19
 2576 02a2 03       		.uleb128 0x3
 2577 02a3 0E       		.uleb128 0xe
 2578 02a4 3A       		.uleb128 0x3a
 2579 02a5 0B       		.uleb128 0xb
 2580 02a6 3B       		.uleb128 0x3b
 2581 02a7 05       		.uleb128 0x5
 2582 02a8 27       		.uleb128 0x27
 2583 02a9 19       		.uleb128 0x19
 2584 02aa 3C       		.uleb128 0x3c
 2585 02ab 19       		.uleb128 0x19
 2586 02ac 01       		.uleb128 0x1
 2587 02ad 13       		.uleb128 0x13
 2588 02ae 00       		.byte	0
 2589 02af 00       		.byte	0
 2590 02b0 34       		.uleb128 0x34
 2591 02b1 2E       		.uleb128 0x2e
 2592 02b2 01       		.byte	0x1
 2593 02b3 3F       		.uleb128 0x3f
 2594 02b4 19       		.uleb128 0x19
 2595 02b5 03       		.uleb128 0x3
 2596 02b6 0E       		.uleb128 0xe
 2597 02b7 3A       		.uleb128 0x3a
 2598 02b8 0B       		.uleb128 0xb
 2599 02b9 3B       		.uleb128 0x3b
 2600 02ba 05       		.uleb128 0x5
 2601 02bb 27       		.uleb128 0x27
 2602 02bc 19       		.uleb128 0x19
 2603 02bd 49       		.uleb128 0x49
 2604 02be 13       		.uleb128 0x13
 2605 02bf 3C       		.uleb128 0x3c
 2606 02c0 19       		.uleb128 0x19
 2607 02c1 01       		.uleb128 0x1
 2608 02c2 13       		.uleb128 0x13
 2609 02c3 00       		.byte	0
 2610 02c4 00       		.byte	0
 2611 02c5 35       		.uleb128 0x35
 2612 02c6 2E       		.uleb128 0x2e
 2613 02c7 01       		.byte	0x1
 2614 02c8 3F       		.uleb128 0x3f
 2615 02c9 19       		.uleb128 0x19
 2616 02ca 03       		.uleb128 0x3
 2617 02cb 0E       		.uleb128 0xe
 2618 02cc 3A       		.uleb128 0x3a
 2619 02cd 0B       		.uleb128 0xb
 2620 02ce 3B       		.uleb128 0x3b
 2621 02cf 05       		.uleb128 0x5
 2622 02d0 27       		.uleb128 0x27
 2623 02d1 19       		.uleb128 0x19
 2624 02d2 3C       		.uleb128 0x3c
 2625 02d3 19       		.uleb128 0x19
 2626 02d4 00       		.byte	0
 2627 02d5 00       		.byte	0
ARM GAS  /tmp/ccOjc5ii.s 			page 73


 2628 02d6 00       		.byte	0
 2629              		.section	.debug_loc,"",%progbits
 2630              	.Ldebug_loc0:
 2631              	.LLST0:
 2632 0000 00000000 		.4byte	.LVL0
 2633 0004 20000000 		.4byte	.LVL6
 2634 0008 0100     		.2byte	0x1
 2635 000a 50       		.byte	0x50
 2636 000b 20000000 		.4byte	.LVL6
 2637 000f 2C000000 		.4byte	.LVL10
 2638 0013 0400     		.2byte	0x4
 2639 0015 F3       		.byte	0xf3
 2640 0016 01       		.uleb128 0x1
 2641 0017 50       		.byte	0x50
 2642 0018 9F       		.byte	0x9f
 2643 0019 2C000000 		.4byte	.LVL10
 2644 001d 2F000000 		.4byte	.LVL11-1
 2645 0021 0100     		.2byte	0x1
 2646 0023 50       		.byte	0x50
 2647 0024 2F000000 		.4byte	.LVL11-1
 2648 0028 38000000 		.4byte	.LFE149
 2649 002c 0400     		.2byte	0x4
 2650 002e F3       		.byte	0xf3
 2651 002f 01       		.uleb128 0x1
 2652 0030 50       		.byte	0x50
 2653 0031 9F       		.byte	0x9f
 2654 0032 00000000 		.4byte	0
 2655 0036 00000000 		.4byte	0
 2656              	.LLST1:
 2657 003a 00000000 		.4byte	.LVL0
 2658 003e 20000000 		.4byte	.LVL6
 2659 0042 0100     		.2byte	0x1
 2660 0044 51       		.byte	0x51
 2661 0045 20000000 		.4byte	.LVL6
 2662 0049 28000000 		.4byte	.LVL8
 2663 004d 0400     		.2byte	0x4
 2664 004f F3       		.byte	0xf3
 2665 0050 01       		.uleb128 0x1
 2666 0051 51       		.byte	0x51
 2667 0052 9F       		.byte	0x9f
 2668 0053 28000000 		.4byte	.LVL8
 2669 0057 2C000000 		.4byte	.LVL10
 2670 005b 0100     		.2byte	0x1
 2671 005d 50       		.byte	0x50
 2672 005e 2C000000 		.4byte	.LVL10
 2673 0062 2F000000 		.4byte	.LVL11-1
 2674 0066 0100     		.2byte	0x1
 2675 0068 51       		.byte	0x51
 2676 0069 2F000000 		.4byte	.LVL11-1
 2677 006d 38000000 		.4byte	.LFE149
 2678 0071 0400     		.2byte	0x4
 2679 0073 F3       		.byte	0xf3
 2680 0074 01       		.uleb128 0x1
 2681 0075 51       		.byte	0x51
 2682 0076 9F       		.byte	0x9f
 2683 0077 00000000 		.4byte	0
 2684 007b 00000000 		.4byte	0
ARM GAS  /tmp/ccOjc5ii.s 			page 74


 2685              	.LLST2:
 2686 007f 06000000 		.4byte	.LVL1
 2687 0083 2A000000 		.4byte	.LVL9
 2688 0087 0100     		.2byte	0x1
 2689 0089 54       		.byte	0x54
 2690 008a 2C000000 		.4byte	.LVL10
 2691 008e 38000000 		.4byte	.LFE149
 2692 0092 0100     		.2byte	0x1
 2693 0094 54       		.byte	0x54
 2694 0095 00000000 		.4byte	0
 2695 0099 00000000 		.4byte	0
 2696              	.LLST3:
 2697 009d 0C000000 		.4byte	.LVL2
 2698 00a1 0E000000 		.4byte	.LVL3
 2699 00a5 0300     		.2byte	0x3
 2700 00a7 70       		.byte	0x70
 2701 00a8 2C       		.sleb128 44
 2702 00a9 9F       		.byte	0x9f
 2703 00aa 0E000000 		.4byte	.LVL3
 2704 00ae 12000000 		.4byte	.LVL4
 2705 00b2 0100     		.2byte	0x1
 2706 00b4 53       		.byte	0x53
 2707 00b5 12000000 		.4byte	.LVL4
 2708 00b9 16000000 		.4byte	.LVL5
 2709 00bd 0200     		.2byte	0x2
 2710 00bf 74       		.byte	0x74
 2711 00c0 00       		.sleb128 0
 2712 00c1 16000000 		.4byte	.LVL5
 2713 00c5 20000000 		.4byte	.LVL6
 2714 00c9 0300     		.2byte	0x3
 2715 00cb 70       		.byte	0x70
 2716 00cc 2C       		.sleb128 44
 2717 00cd 9F       		.byte	0x9f
 2718 00ce 20000000 		.4byte	.LVL6
 2719 00d2 2C000000 		.4byte	.LVL10
 2720 00d6 0600     		.2byte	0x6
 2721 00d8 F3       		.byte	0xf3
 2722 00d9 01       		.uleb128 0x1
 2723 00da 50       		.byte	0x50
 2724 00db 23       		.byte	0x23
 2725 00dc 2C       		.uleb128 0x2c
 2726 00dd 9F       		.byte	0x9f
 2727 00de 2C000000 		.4byte	.LVL10
 2728 00e2 2F000000 		.4byte	.LVL11-1
 2729 00e6 0300     		.2byte	0x3
 2730 00e8 70       		.byte	0x70
 2731 00e9 2C       		.sleb128 44
 2732 00ea 9F       		.byte	0x9f
 2733 00eb 2F000000 		.4byte	.LVL11-1
 2734 00ef 38000000 		.4byte	.LFE149
 2735 00f3 0600     		.2byte	0x6
 2736 00f5 F3       		.byte	0xf3
 2737 00f6 01       		.uleb128 0x1
 2738 00f7 50       		.byte	0x50
 2739 00f8 23       		.byte	0x23
 2740 00f9 2C       		.uleb128 0x2c
 2741 00fa 9F       		.byte	0x9f
ARM GAS  /tmp/ccOjc5ii.s 			page 75


 2742 00fb 00000000 		.4byte	0
 2743 00ff 00000000 		.4byte	0
 2744              	.LLST4:
 2745 0103 0C000000 		.4byte	.LVL2
 2746 0107 2A000000 		.4byte	.LVL9
 2747 010b 0100     		.2byte	0x1
 2748 010d 54       		.byte	0x54
 2749 010e 2C000000 		.4byte	.LVL10
 2750 0112 38000000 		.4byte	.LFE149
 2751 0116 0100     		.2byte	0x1
 2752 0118 54       		.byte	0x54
 2753 0119 00000000 		.4byte	0
 2754 011d 00000000 		.4byte	0
 2755              	.LLST5:
 2756 0121 08000000 		.4byte	.LVL12
 2757 0125 12000000 		.4byte	.LVL13
 2758 0129 0100     		.2byte	0x1
 2759 012b 53       		.byte	0x53
 2760 012c 22000000 		.4byte	.LVL15
 2761 0130 27000000 		.4byte	.LVL16-1
 2762 0134 0100     		.2byte	0x1
 2763 0136 53       		.byte	0x53
 2764 0137 00000000 		.4byte	0
 2765 013b 00000000 		.4byte	0
 2766              	.LLST6:
 2767 013f 12000000 		.4byte	.LVL13
 2768 0143 1C000000 		.4byte	.LVL14
 2769 0147 0100     		.2byte	0x1
 2770 0149 52       		.byte	0x52
 2771 014a 1C000000 		.4byte	.LVL14
 2772 014e 22000000 		.4byte	.LVL15
 2773 0152 0200     		.2byte	0x2
 2774 0154 71       		.byte	0x71
 2775 0155 04       		.sleb128 4
 2776 0156 00000000 		.4byte	0
 2777 015a 00000000 		.4byte	0
 2778              	.LLST7:
 2779 015e 12000000 		.4byte	.LVL13
 2780 0162 22000000 		.4byte	.LVL15
 2781 0166 0100     		.2byte	0x1
 2782 0168 50       		.byte	0x50
 2783 0169 00000000 		.4byte	0
 2784 016d 00000000 		.4byte	0
 2785              	.LLST8:
 2786 0171 00000000 		.4byte	.LVL17
 2787 0175 07000000 		.4byte	.LVL19-1
 2788 0179 0100     		.2byte	0x1
 2789 017b 50       		.byte	0x50
 2790 017c 07000000 		.4byte	.LVL19-1
 2791 0180 0C000000 		.4byte	.LFE151
 2792 0184 0400     		.2byte	0x4
 2793 0186 F3       		.byte	0xf3
 2794 0187 01       		.uleb128 0x1
 2795 0188 50       		.byte	0x50
 2796 0189 9F       		.byte	0x9f
 2797 018a 00000000 		.4byte	0
 2798 018e 00000000 		.4byte	0
ARM GAS  /tmp/ccOjc5ii.s 			page 76


 2799              	.LLST9:
 2800 0192 00000000 		.4byte	.LVL17
 2801 0196 07000000 		.4byte	.LVL19-1
 2802 019a 0100     		.2byte	0x1
 2803 019c 51       		.byte	0x51
 2804 019d 07000000 		.4byte	.LVL19-1
 2805 01a1 0C000000 		.4byte	.LFE151
 2806 01a5 0400     		.2byte	0x4
 2807 01a7 F3       		.byte	0xf3
 2808 01a8 01       		.uleb128 0x1
 2809 01a9 51       		.byte	0x51
 2810 01aa 9F       		.byte	0x9f
 2811 01ab 00000000 		.4byte	0
 2812 01af 00000000 		.4byte	0
 2813              	.LLST10:
 2814 01b3 04000000 		.4byte	.LVL18
 2815 01b7 07000000 		.4byte	.LVL19-1
 2816 01bb 0100     		.2byte	0x1
 2817 01bd 51       		.byte	0x51
 2818 01be 07000000 		.4byte	.LVL19-1
 2819 01c2 0C000000 		.4byte	.LFE151
 2820 01c6 0400     		.2byte	0x4
 2821 01c8 F3       		.byte	0xf3
 2822 01c9 01       		.uleb128 0x1
 2823 01ca 51       		.byte	0x51
 2824 01cb 9F       		.byte	0x9f
 2825 01cc 00000000 		.4byte	0
 2826 01d0 00000000 		.4byte	0
 2827              	.LLST11:
 2828 01d4 04000000 		.4byte	.LVL18
 2829 01d8 07000000 		.4byte	.LVL19-1
 2830 01dc 0100     		.2byte	0x1
 2831 01de 50       		.byte	0x50
 2832 01df 07000000 		.4byte	.LVL19-1
 2833 01e3 0C000000 		.4byte	.LFE151
 2834 01e7 0400     		.2byte	0x4
 2835 01e9 F3       		.byte	0xf3
 2836 01ea 01       		.uleb128 0x1
 2837 01eb 50       		.byte	0x50
 2838 01ec 9F       		.byte	0x9f
 2839 01ed 00000000 		.4byte	0
 2840 01f1 00000000 		.4byte	0
 2841              		.section	.debug_aranges,"",%progbits
 2842 0000 2C000000 		.4byte	0x2c
 2843 0004 0200     		.2byte	0x2
 2844 0006 00000000 		.4byte	.Ldebug_info0
 2845 000a 04       		.byte	0x4
 2846 000b 00       		.byte	0
 2847 000c 0000     		.2byte	0
 2848 000e 0000     		.2byte	0
 2849 0010 00000000 		.4byte	.LFB149
 2850 0014 38000000 		.4byte	.LFE149-.LFB149
 2851 0018 00000000 		.4byte	.LFB150
 2852 001c 38000000 		.4byte	.LFE150-.LFB150
 2853 0020 00000000 		.4byte	.LFB151
 2854 0024 0C000000 		.4byte	.LFE151-.LFB151
 2855 0028 00000000 		.4byte	0
ARM GAS  /tmp/ccOjc5ii.s 			page 77


 2856 002c 00000000 		.4byte	0
 2857              		.section	.debug_ranges,"",%progbits
 2858              	.Ldebug_ranges0:
 2859 0000 00000000 		.4byte	.LFB149
 2860 0004 38000000 		.4byte	.LFE149
 2861 0008 00000000 		.4byte	.LFB150
 2862 000c 38000000 		.4byte	.LFE150
 2863 0010 00000000 		.4byte	.LFB151
 2864 0014 0C000000 		.4byte	.LFE151
 2865 0018 00000000 		.4byte	0
 2866 001c 00000000 		.4byte	0
 2867              		.section	.debug_line,"",%progbits
 2868              	.Ldebug_line0:
 2869 0000 34020000 		.section	.debug_str,"MS",%progbits,1
 2869      02008B01 
 2869      00000201 
 2869      FB0E0D00 
 2869      01010101 
 2870              	.LASF46:
 2871 0000 63685F74 		.ascii	"ch_threads_list\000"
 2871      68726561 
 2871      64735F6C 
 2871      69737400 
 2872              	.LASF103:
 2873 0010 5F5F6675 		.ascii	"__func__.5574\000"
 2873      6E635F5F 
 2873      2E353537 
 2873      3400
 2874              	.LASF81:
 2875 001e 77746D74 		.ascii	"wtmtxp\000"
 2875      787000
 2876              	.LASF71:
 2877 0025 72656761 		.ascii	"regarm_t\000"
 2877      726D5F74 
 2877      00
 2878              	.LASF105:
 2879 002e 2E2E2F2E 		.ascii	"../../../os/rt/src/chmsg.c\000"
 2879      2E2F2E2E 
 2879      2F6F732F 
 2879      72742F73 
 2879      72632F63 
 2880              	.LASF35:
 2881 0049 666C6167 		.ascii	"flags\000"
 2881      7300
 2882              	.LASF26:
 2883 004f 73797374 		.ascii	"systime_t\000"
 2883      696D655F 
 2883      7400
 2884              	.LASF41:
 2885 0059 7265616C 		.ascii	"realprio\000"
 2885      7072696F 
 2885      00
 2886              	.LASF39:
 2887 0062 6570656E 		.ascii	"epending\000"
 2887      64696E67 
 2887      00
 2888              	.LASF0:
ARM GAS  /tmp/ccOjc5ii.s 			page 78


 2889 006b 756E7369 		.ascii	"unsigned int\000"
 2889      676E6564 
 2889      20696E74 
 2889      00
 2890              	.LASF47:
 2891 0078 6E657874 		.ascii	"next\000"
 2891      00
 2892              	.LASF44:
 2893 007d 74687265 		.ascii	"threads_list_t\000"
 2893      6164735F 
 2893      6C697374 
 2893      5F7400
 2894              	.LASF7:
 2895 008c 5F5F696E 		.ascii	"__int32_t\000"
 2895      7433325F 
 2895      7400
 2896              	.LASF36:
 2897 0096 72656673 		.ascii	"refs\000"
 2897      00
 2898              	.LASF100:
 2899 009b 63684D73 		.ascii	"chMsgSend\000"
 2899      6753656E 
 2899      6400
 2900              	.LASF77:
 2901 00a5 77746F62 		.ascii	"wtobjp\000"
 2901      6A7000
 2902              	.LASF90:
 2903 00ac 706F7274 		.ascii	"port_lock\000"
 2903      5F6C6F63 
 2903      6B00
 2904              	.LASF68:
 2905 00b6 76746C69 		.ascii	"vtlist\000"
 2905      737400
 2906              	.LASF73:
 2907 00bd 706F7274 		.ascii	"port_context\000"
 2907      5F636F6E 
 2907      74657874 
 2907      00
 2908              	.LASF52:
 2909 00ca 63685F72 		.ascii	"ch_ready_list\000"
 2909      65616479 
 2909      5F6C6973 
 2909      7400
 2910              	.LASF58:
 2911 00d8 66756E63 		.ascii	"func\000"
 2911      00
 2912              	.LASF82:
 2913 00dd 65776D61 		.ascii	"ewmask\000"
 2913      736B00
 2914              	.LASF50:
 2915 00e4 70726576 		.ascii	"prev\000"
 2915      00
 2916              	.LASF49:
 2917 00e9 63685F74 		.ascii	"ch_threads_queue\000"
 2917      68726561 
 2917      64735F71 
 2917      75657565 
ARM GAS  /tmp/ccOjc5ii.s 			page 79


 2917      00
 2918              	.LASF54:
 2919 00fa 76746675 		.ascii	"vtfunc_t\000"
 2919      6E635F74 
 2919      00
 2920              	.LASF107:
 2921 0103 63684D73 		.ascii	"chMsgRelease\000"
 2921      6752656C 
 2921      65617365 
 2921      00
 2922              	.LASF109:
 2923 0110 63685363 		.ascii	"chSchReadyI\000"
 2923      68526561 
 2923      64794900 
 2924              	.LASF63:
 2925 011c 63685F73 		.ascii	"ch_system_debug\000"
 2925      79737465 
 2925      6D5F6465 
 2925      62756700 
 2926              	.LASF104:
 2927 012c 474E5520 		.ascii	"GNU C 4.8.3 -mcpu=cortex-m0 -mno-thumb-interwork -m"
 2927      4320342E 
 2927      382E3320 
 2927      2D6D6370 
 2927      753D636F 
 2928 015f 7468756D 		.ascii	"thumb -ggdb -O2 -fomit-frame-pointer -falign-functi"
 2928      62202D67 
 2928      67646220 
 2928      2D4F3220 
 2928      2D666F6D 
 2929 0192 6F6E733D 		.ascii	"ons=16 -ffunction-sections -fdata-sections -fno-com"
 2929      3136202D 
 2929      6666756E 
 2929      6374696F 
 2929      6E2D7365 
 2930 01c5 6D6F6E20 		.ascii	"mon -flto\000"
 2930      2D666C74 
 2930      6F00
 2931              	.LASF17:
 2932 01cf 75696E74 		.ascii	"uint32_t\000"
 2932      33325F74 
 2932      00
 2933              	.LASF79:
 2934 01d8 73656E74 		.ascii	"sentmsg\000"
 2934      6D736700 
 2935              	.LASF24:
 2936 01e0 6576656E 		.ascii	"eventmask_t\000"
 2936      746D6173 
 2936      6B5F7400 
 2937              	.LASF83:
 2938 01ec 63685F73 		.ascii	"ch_semaphore\000"
 2938      656D6170 
 2938      686F7265 
 2938      00
 2939              	.LASF22:
 2940 01f9 74707269 		.ascii	"tprio_t\000"
 2940      6F5F7400 
ARM GAS  /tmp/ccOjc5ii.s 			page 80


 2941              	.LASF56:
 2942 0201 63685F76 		.ascii	"ch_virtual_timer\000"
 2942      69727475 
 2942      616C5F74 
 2942      696D6572 
 2942      00
 2943              	.LASF13:
 2944 0212 6C6F6E67 		.ascii	"long long unsigned int\000"
 2944      206C6F6E 
 2944      6720756E 
 2944      7369676E 
 2944      65642069 
 2945              	.LASF5:
 2946 0229 5F5F7569 		.ascii	"__uint16_t\000"
 2946      6E743136 
 2946      5F7400
 2947              	.LASF25:
 2948 0234 636E745F 		.ascii	"cnt_t\000"
 2948      7400
 2949              	.LASF94:
 2950 023a 63685379 		.ascii	"chSysUnlock\000"
 2950      73556E6C 
 2950      6F636B00 
 2951              	.LASF85:
 2952 0246 6F776E65 		.ascii	"owner\000"
 2952      7200
 2953              	.LASF48:
 2954 024c 74687265 		.ascii	"threads_queue_t\000"
 2954      6164735F 
 2954      71756575 
 2954      655F7400 
 2955              	.LASF40:
 2956 025c 6D74786C 		.ascii	"mtxlist\000"
 2956      69737400 
 2957              	.LASF60:
 2958 0264 63685F76 		.ascii	"ch_virtual_timers_list\000"
 2958      69727475 
 2958      616C5F74 
 2958      696D6572 
 2958      735F6C69 
 2959              	.LASF27:
 2960 027b 74687265 		.ascii	"thread_t\000"
 2960      61645F74 
 2960      00
 2961              	.LASF75:
 2962 0284 7264796D 		.ascii	"rdymsg\000"
 2962      736700
 2963              	.LASF88:
 2964 028b 5F5F6469 		.ascii	"__disable_irq\000"
 2964      7361626C 
 2964      655F6972 
 2964      7100
 2965              	.LASF95:
 2966 0299 5F426F6F 		.ascii	"_Bool\000"
 2966      6C00
 2967              	.LASF84:
 2968 029f 63685F6D 		.ascii	"ch_mutex\000"
ARM GAS  /tmp/ccOjc5ii.s 			page 81


 2968      75746578 
 2968      00
 2969              	.LASF12:
 2970 02a8 5F5F7569 		.ascii	"__uint64_t\000"
 2970      6E743634 
 2970      5F7400
 2971              	.LASF92:
 2972 02b3 63685379 		.ascii	"chSysLock\000"
 2972      734C6F63 
 2972      6B00
 2973              	.LASF96:
 2974 02bd 63684D73 		.ascii	"chMsgIsPendingI\000"
 2974      67497350 
 2974      656E6469 
 2974      6E674900 
 2975              	.LASF29:
 2976 02cd 7072696F 		.ascii	"prio\000"
 2976      00
 2977              	.LASF86:
 2978 02d2 63686172 		.ascii	"char\000"
 2978      00
 2979              	.LASF43:
 2980 02d7 74687265 		.ascii	"thread_reference_t\000"
 2980      61645F72 
 2980      65666572 
 2980      656E6365 
 2980      5F7400
 2981              	.LASF33:
 2982 02ea 77616261 		.ascii	"wabase\000"
 2982      736500
 2983              	.LASF20:
 2984 02f1 74737461 		.ascii	"tstate_t\000"
 2984      74655F74 
 2984      00
 2985              	.LASF14:
 2986 02fa 75696E74 		.ascii	"uint8_t\000"
 2986      385F7400 
 2987              	.LASF38:
 2988 0302 6D736771 		.ascii	"msgqueue\000"
 2988      75657565 
 2988      00
 2989              	.LASF45:
 2990 030b 63685F74 		.ascii	"ch_thread\000"
 2990      68726561 
 2990      6400
 2991              	.LASF62:
 2992 0315 73797374 		.ascii	"system_debug_t\000"
 2992      656D5F64 
 2992      65627567 
 2992      5F7400
 2993              	.LASF11:
 2994 0324 6C6F6E67 		.ascii	"long long int\000"
 2994      206C6F6E 
 2994      6720696E 
 2994      7400
 2995              	.LASF23:
 2996 0332 6D73675F 		.ascii	"msg_t\000"
ARM GAS  /tmp/ccOjc5ii.s 			page 82


 2996      7400
 2997              	.LASF101:
 2998 0338 63684D73 		.ascii	"chMsgWait\000"
 2998      67576169 
 2998      7400
 2999              	.LASF55:
 3000 0342 76697274 		.ascii	"virtual_timer_t\000"
 3000      75616C5F 
 3000      74696D65 
 3000      725F7400 
 3001              	.LASF97:
 3002 0352 71756575 		.ascii	"queue_fifo_remove\000"
 3002      655F6669 
 3002      666F5F72 
 3002      656D6F76 
 3002      6500
 3003              	.LASF64:
 3004 0364 70616E69 		.ascii	"panic_msg\000"
 3004      635F6D73 
 3004      6700
 3005              	.LASF19:
 3006 036e 746D6F64 		.ascii	"tmode_t\000"
 3006      655F7400 
 3007              	.LASF69:
 3008 0376 6D61696E 		.ascii	"mainthread\000"
 3008      74687265 
 3008      616400
 3009              	.LASF15:
 3010 0381 75696E74 		.ascii	"uint16_t\000"
 3010      31365F74 
 3010      00
 3011              	.LASF3:
 3012 038a 73686F72 		.ascii	"short int\000"
 3012      7420696E 
 3012      7400
 3013              	.LASF8:
 3014 0394 6C6F6E67 		.ascii	"long int\000"
 3014      20696E74 
 3014      00
 3015              	.LASF74:
 3016 039d 706F7274 		.ascii	"port_intctx\000"
 3016      5F696E74 
 3016      63747800 
 3017              	.LASF89:
 3018 03a9 5F5F656E 		.ascii	"__enable_irq\000"
 3018      61626C65 
 3018      5F697271 
 3018      00
 3019              	.LASF66:
 3020 03b6 63685F73 		.ascii	"ch_system\000"
 3020      79737465 
 3020      6D00
 3021              	.LASF61:
 3022 03c0 6C617374 		.ascii	"lasttime\000"
 3022      74696D65 
 3022      00
 3023              	.LASF18:
ARM GAS  /tmp/ccOjc5ii.s 			page 83


 3024 03c9 75696E74 		.ascii	"uint64_t\000"
 3024      36345F74 
 3024      00
 3025              	.LASF67:
 3026 03d2 726C6973 		.ascii	"rlist\000"
 3026      7400
 3027              	.LASF4:
 3028 03d8 5F5F7569 		.ascii	"__uint8_t\000"
 3028      6E74385F 
 3028      7400
 3029              	.LASF98:
 3030 03e2 5F5F6675 		.ascii	"__func__.4890\000"
 3030      6E635F5F 
 3030      2E343839 
 3030      3000
 3031              	.LASF32:
 3032 03f0 6E616D65 		.ascii	"name\000"
 3032      00
 3033              	.LASF108:
 3034 03f5 63685363 		.ascii	"chSchGoSleepS\000"
 3034      68476F53 
 3034      6C656570 
 3034      5300
 3035              	.LASF70:
 3036 0403 73697A65 		.ascii	"sizetype\000"
 3036      74797065 
 3036      00
 3037              	.LASF21:
 3038 040c 74726566 		.ascii	"trefs_t\000"
 3038      735F7400 
 3039              	.LASF10:
 3040 0414 6C6F6E67 		.ascii	"long unsigned int\000"
 3040      20756E73 
 3040      69676E65 
 3040      6420696E 
 3040      7400
 3041              	.LASF51:
 3042 0426 72656164 		.ascii	"ready_list_t\000"
 3042      795F6C69 
 3042      73745F74 
 3042      00
 3043              	.LASF28:
 3044 0433 71756575 		.ascii	"queue\000"
 3044      6500
 3045              	.LASF16:
 3046 0439 696E7433 		.ascii	"int32_t\000"
 3046      325F7400 
 3047              	.LASF80:
 3048 0441 77747365 		.ascii	"wtsemp\000"
 3048      6D7000
 3049              	.LASF87:
 3050 0448 6D757465 		.ascii	"mutex_t\000"
 3050      785F7400 
 3051              	.LASF30:
 3052 0450 6E657765 		.ascii	"newer\000"
 3052      7200
 3053              	.LASF2:
ARM GAS  /tmp/ccOjc5ii.s 			page 84


 3054 0456 756E7369 		.ascii	"unsigned char\000"
 3054      676E6564 
 3054      20636861 
 3054      7200
 3055              	.LASF9:
 3056 0464 5F5F7569 		.ascii	"__uint32_t\000"
 3056      6E743332 
 3056      5F7400
 3057              	.LASF37:
 3058 046f 77616974 		.ascii	"waiting\000"
 3058      696E6700 
 3059              	.LASF59:
 3060 0477 76697274 		.ascii	"virtual_timers_list_t\000"
 3060      75616C5F 
 3060      74696D65 
 3060      72735F6C 
 3060      6973745F 
 3061              	.LASF99:
 3062 048d 63684D73 		.ascii	"chMsgReleaseS\000"
 3062      6752656C 
 3062      65617365 
 3062      5300
 3063              	.LASF110:
 3064 049b 63685363 		.ascii	"chSchWakeupS\000"
 3064      6857616B 
 3064      65757053 
 3064      00
 3065              	.LASF34:
 3066 04a8 73746174 		.ascii	"state\000"
 3066      6500
 3067              	.LASF65:
 3068 04ae 63685F73 		.ascii	"ch_system_t\000"
 3068      79737465 
 3068      6D5F7400 
 3069              	.LASF78:
 3070 04ba 77747472 		.ascii	"wttrp\000"
 3070      7000
 3071              	.LASF1:
 3072 04c0 7369676E 		.ascii	"signed char\000"
 3072      65642063 
 3072      68617200 
 3073              	.LASF57:
 3074 04cc 64656C74 		.ascii	"delta\000"
 3074      6100
 3075              	.LASF6:
 3076 04d2 73686F72 		.ascii	"short unsigned int\000"
 3076      7420756E 
 3076      7369676E 
 3076      65642069 
 3076      6E7400
 3077              	.LASF93:
 3078 04e5 71756575 		.ascii	"queue_insert\000"
 3078      655F696E 
 3078      73657274 
 3078      00
 3079              	.LASF72:
 3080 04f2 73746B61 		.ascii	"stkalign_t\000"
ARM GAS  /tmp/ccOjc5ii.s 			page 85


 3080      6C69676E 
 3080      5F7400
 3081              	.LASF53:
 3082 04fd 63757272 		.ascii	"current\000"
 3082      656E7400 
 3083              	.LASF91:
 3084 0505 706F7274 		.ascii	"port_unlock\000"
 3084      5F756E6C 
 3084      6F636B00 
 3085              	.LASF102:
 3086 0511 5F5F6675 		.ascii	"__func__.5565\000"
 3086      6E635F5F 
 3086      2E353536 
 3086      3500
 3087              	.LASF31:
 3088 051f 6F6C6465 		.ascii	"older\000"
 3088      7200
 3089              	.LASF106:
 3090 0525 2F686F6D 		.ascii	"/home/awygle/ChibiOS-RT/demos/STM32/RT-STM32F030R8-"
 3090      652F6177 
 3090      79676C65 
 3090      2F436869 
 3090      62694F53 
 3091 0558 4E55434C 		.ascii	"NUCLEO64\000"
 3091      454F3634 
 3091      00
 3092              	.LASF76:
 3093 0561 65786974 		.ascii	"exitcode\000"
 3093      636F6465 
 3093      00
 3094              	.LASF42:
 3095 056a 6D706F6F 		.ascii	"mpool\000"
 3095      6C00
 3096              		.comm	__gnu_lto_v1,1,1
 3097              		.ident	"GCC: (4.8.3-18ubuntu2+12) 4.8.3"
ARM GAS  /tmp/ccOjc5ii.s 			page 86


DEFINED SYMBOLS
                            *ABS*:0000000000000000 chmsg.c
     /tmp/ccOjc5ii.s:442    .text.chMsgSend:0000000000000000 $t
     /tmp/ccOjc5ii.s:448    .text.chMsgSend:0000000000000000 chMsgSend
     /tmp/ccOjc5ii.s:544    .text.chMsgSend:0000000000000034 $d
     /tmp/ccOjc5ii.s:549    .text.chMsgWait:0000000000000000 $t
     /tmp/ccOjc5ii.s:555    .text.chMsgWait:0000000000000000 chMsgWait
     /tmp/ccOjc5ii.s:640    .text.chMsgWait:0000000000000034 $d
     /tmp/ccOjc5ii.s:645    .text.chMsgRelease:0000000000000000 $t
     /tmp/ccOjc5ii.s:651    .text.chMsgRelease:0000000000000000 chMsgRelease
                            *COM*:0000000000000001 __gnu_lto_v1
                     .debug_frame:0000000000000010 $d
     /tmp/ccOjc5ii.s:548    .text.chMsgSend:0000000000000038 $t
     /tmp/ccOjc5ii.s:644    .text.chMsgWait:0000000000000038 $t

UNDEFINED SYMBOLS
chSchGoSleepS
chSchReadyI
ch
chSchWakeupS
