ARM GAS  /tmp/ccdWlSBO.s 			page 1


   1              		.cpu cortex-m0
   2              		.fpu softvfp
   3              		.eabi_attribute 20, 1
   4              		.eabi_attribute 21, 1
   5              		.eabi_attribute 23, 3
   6              		.eabi_attribute 24, 1
   7              		.eabi_attribute 25, 1
   8              		.eabi_attribute 26, 1
   9              		.eabi_attribute 30, 2
  10              		.eabi_attribute 34, 0
  11              		.eabi_attribute 18, 4
  12              		.code	16
  13              		.file	"chregistry.c"
  14              		.text
  15              	.Ltext0:
  16              		.section	.gnu.lto_.jmpfuncs.6c2c6828e09f013,"",%progbits
  17 0000 789C6362 		.ascii	"x\234cb`b\300\006\224\2404+\003\003\023##\003\0033\210"
  17      6062C006 
  17      94A0342B 
  17      03031323 
  17      23030333 
  18 0015 002A6506 		.ascii	"\000*e\006\212\22510\260\200\270\254 \202\001\000\017"
  18      8A953130 
  18      B080B8AC 
  18      20820100 
  18      0F
  19 0026 B600BD   		.ascii	"\266\000\275"
  20              		.text
  21              		.section	.gnu.lto_.inline.6c2c6828e09f013,"",%progbits
  22 0000 789C6362 		.ascii	"x\234cb`b\300\006z\2404+\003\003'\007#\003\023\317\203"
  22      6062C006 
  22      7AA0342B 
  22      03032707 
  22      230313CF 
  23 0015 5806B605 		.ascii	"X\006\266\005\362`\305L\014\274\242@!\376\005%\014\354"
  23      F260C54C 
  23      0CBCA240 
  23      21FE0525 
  23      0CEC
  24 0027 1DEA1021 		.ascii	"\035\352\020!n\006\006\306\011~\314\014\242\327\230"
  24      6E0606C6 
  24      097ECC0C 
  24      A2D798
  25 0036 80526287 		.ascii	"\200Rb\207\216\262\303\2253\3630\202\344Xx\201\022\023"
  25      8EB2C395 
  25      33F33082 
  25      E4587881 
  25      1213
  26 0048 FC3EB0B1 		.ascii	"\374>\260\2610\010lg\004\262E\376LfCW\304\312 x\210"
  26      30086C67 
  26      04B245FE 
  26      4C664357 
  26      C4CA2078 
  27 005d 1187010C 		.ascii	"\021\207\001\014\000r-\024A"
  27      00722D14 
  27      41
  28              		.text
ARM GAS  /tmp/ccdWlSBO.s 			page 2


  29              		.section	.gnu.lto_.pureconst.6c2c6828e09f013,"",%progbits
  30 0000 789C6362 		.ascii	"x\234cb`b\340f\200\000V\006+&+f+\026+V+\000\007]\001"
  30      6062E066 
  30      80005606 
  30      2B262B66 
  30      2B162B56 
  31 0019 45       		.ascii	"E"
  32              		.text
  33              		.section	.gnu.lto_chRegFirstThread.6c2c6828e09f013,"",%progbits
  34 0000 789C8551 		.ascii	"x\234\205Q=h\024A\024~o\366\376\364\010\210\235 \311"
  34      3D681441 
  34      147E6FF6 
  34      FEF40888 
  34      9D20C9
  35 0013 A18D1A72 		.ascii	"\241\215\032rC\012\255\225T)\256\320D\320*\304\311r"
  35      430AAD95 
  35      5429AED0 
  35      44D02AC4 
  35      C972
  36 0025 37E0DE1E 		.ascii	"7\340\336\036;\253\344\260\310\\rE,\204 \026Q\361'\004"
  36      3BABE4B0 
  36      C85C7245 
  36      2C842016 
  36      51F12704 
  37 0039 62B44969 		.ascii	"b\264Iia\341UB\300\234\244\023\253CI!ha\027D<\337\354"
  37      61E15542 
  37      C09CA413 
  37      AB434921 
  37      68611744 
  38 0050 EC2E6754 		.ascii	"\354.gT\034v\347\275y\363\276\357\275\367\015\003\006"
  38      1C76E7BD 
  38      79F3BEEF 
  38      BDF70D03 
  38      06
  39 0061 07D731FA 		.ascii	"\007\3271\372\333\024~M\026\035@\266\322\005h\025\030"
  39      DB147E4D 
  39      161D40B6 
  39      D2056815 
  39      18
  40 0072 A2710061 		.ascii	"\242q\000a\201\341\302U4\251x\002\326\264\276\333\333"
  40      81E1C255 
  40      34A97802 
  40      D6B4BEDB 
  40      DB
  41 0083 5BFF8CF7 		.ascii	"[\377\214\367u\247\375T\377\350\367\021%\022\355I\004"
  41      75A7FD54 
  41      FFE8F711 
  41      2512ED49 
  41      04
  42 0094 8170850E 		.ascii	"\201p\205\016X\212\014\313\374^g\213uz\375\376\227\335"
  42      588A0CCB 
  42      FC5E678B 
  42      757AFDFE 
  42      97DD
  43 00a6 CD8FCFF1 		.ascii	"\315\217\317\361\350a\007fq\215\3702 \321\311\232\215"
  43      E8610766 
  43      718DF832 
ARM GAS  /tmp/ccdWlSBO.s 			page 3


  43      20D1C99A 
  43      8D
  44 00b7 52B2D0D6 		.ascii	"R\262\320\326z\245do\300\360\321\232\246\335tr\031\231"
  44      7AA5646F 
  44      C0F0D19A 
  44      A6DD7472 
  44      1999
  45 00c9 B14E175A 		.ascii	"\261N\027Z\337\272\217\337`\234\234\240:\237\356|-\236"
  45      DFBA8FDF 
  45      609C9CA0 
  45      3A9FEE7C 
  45      2D9E
  46 00db 4A4FAFEE 		.ascii	"JO\257\356\355\027\217\247\247\355\2674\340,\256\023"
  46      ED178FA7 
  46      A7EDB734 
  46      E02CAE13 
  47 00eb 48A06994 		.ascii	"H\240i\224\321\357\330\276\0206\310\215t\031\206-|\244"
  47      D1EFD8BE 
  47      1036C88D 
  47      7419862D 
  47      7CA4
  48 00fd 57CF4B8C 		.ascii	"W\317K\214{\337\201\305\017\3577\306-\262\212\316(\274"
  48      7BDF81C5 
  48      0FEF37C6 
  48      2DB28ACE 
  48      28BC
  49 010f D0B42ED2 		.ascii	"\320\264.\322\304\261{Vb\366!<hi}Db\356\026|\327\313"
  49      C4B17B56 
  49      62F6213C 
  49      68697D44 
  49      62EE167C 
  50 0125 C6CB7B51 		.ascii	"\306\313{Q\357F\207|\304t\015!\266\261\003\333\260\330"
  50      EF46877C 
  50      C4740D21 
  50      B6B103DB 
  50      B0D8
  51 0137 C959663B 		.ascii	"\311Yf;p\325td*\256>;\235T\314\214\302\031\211\005\252"
  51      70D57464 
  51      2AAE3E3B 
  51      9D54CC8C 
  51      C2198905 
  52 014c 404C8728 		.ascii	"@L\207(\3030&L\311[\356\300\322\362R=\201d\011e\262"
  52      C330264C 
  52      C95BEEC0 
  52      D2F2523D 
  52      81640965 
  53 0161 0A680798 		.ascii	"\012h\007\230\264\027q\277\305\377\260\021\036 \222"
  53      B41771BF 
  53      C5FFB011 
  53      1E2092
  54 0170 787FE84F 		.ascii	"x\177\350O\205\177\026G\006\024~24\234\276Y\032\276"
  54      857F1647 
  54      06147E32 
  54      349CBE59 
  54      1ABE
  55 0182 FD6E40EA 		.ascii	"\375n@\352HF\021\271\271D\355\227\377T{\027Z\275M7\025"
  55      484611B9 
ARM GAS  /tmp/ccdWlSBO.s 			page 4


  55      B944ED97 
  55      FF547B17 
  55      5ABD4D37 
  56 0197 DB06A749 		.ascii	"\333\006\247I0zv\203(\225\313\334~\276\342A\310U \270"
  56      307A7683 
  56      2895CBDC 
  56      7EBEE241 
  56      C85520B8 
  57 01ab A8056E55 		.ascii	"\250\005nU\2520h\226\005\260\2601>\230#|\317\363\353"
  57      AA306896 
  57      05B0B031 
  57      3E98237C 
  57      CFF3EB
  58 01be DC9D0FF9 		.ascii	"\334\235\017\371Dejr\212\313\272\270~c\316\345\302S"
  58      44656A72 
  58      8ACBBAB8 
  58      7E63CEE5 
  58      C253
  59 01d0 52CD5485 		.ascii	"R\315T\205(\327`\354/\210\206\037\204\212_\270T\231"
  59      28D760EC 
  59      2F88861F 
  59      848A5FB8 
  59      5499
  60 01e2 A8CC5309 		.ascii	"\250\314S\011\341\007\356\314\315s\036e\217\034\350"
  60      E107EECC 
  60      CD731E65 
  60      8F1CE8
  61 01f1 2165ACA9 		.ascii	"!e\254\251\246\242\373\202h(9W\222\220\367\\\317\017"
  61      A6A2FB82 
  61      68283957 
  61      9290F75C 
  61      CF0F
  62 0203 9A36E052 		.ascii	"\2326\340R\340\027\021J\323R"
  62      E017114A 
  62      D352
  63              		.text
  64              		.section	.gnu.lto_chRegNextThread.6c2c6828e09f013,"",%progbits
  65 0000 789C8552 		.ascii	"x\234\205RKh\023Q\024\275w>\231\261\261\"\342\262\264"
  65      4B681351 
  65      14BD773E 
  65      99B1B122 
  65      E2B2B4
  66 0013 41376231 		.ascii	"A7b1C\021\024wJW]dc-\350\252\264/C\362\300I\302L*\215"
  66      43111477 
  66      4A575D64 
  66      632DE8AA 
  66      B42F43F2 
  67 002d 5DF4A5CD 		.ascii	"]\364\245\315\242\"B\021\027V\361S\\\010\"T\\\210;\247"
  67      A2224211 
  67      1756F153 
  67      5C082254 
  67      5C883BA7 
  68 0041 2062C1B6 		.ascii	" b\301\266\272\322\270\012\322R\305\210t\027D\214w\276"
  68      BAD2B80A 
  68      D252C588 
  68      7417448C 
  68      77BE
ARM GAS  /tmp/ccdWlSBO.s 			page 5


  69 0053 C456F131 		.ascii	"\304V\3611\363\276\367\334w\316=O\002\011v\266\343\364"
  69      F3BEF7DC 
  69      77CE3D4F 
  69      020976B6 
  69      E3F4
  70 0065 1F94015C 		.ascii	"\037\224\001\\\032Q\005\224\346\327\000\252\272$).\202"
  70      1A510594 
  70      E6D700AA 
  70      BA24292E 
  70      82
  71 0076 E892DFBE 		.ascii	"\350\222\337\276\001\020{eT\202}\005\321\233\000\302"
  71      01107B65 
  71      54827D05 
  71      D19B00C2 
  72 0086 B4242B38 		.ascii	"\264$+8}\001\275$x\010\026\205\270\336\330\\\372\202"
  72      7D01BD24 
  72      78081685 
  72      B8DED85C 
  72      FA82
  73 0098 0BC2ADDD 		.ascii	"\013\302\255\335\027?\333mD\216t\341a\004\206p\236\026"
  73      173FDB6D 
  73      448E74E1 
  73      61048670 
  73      9E16
  74 00aa 98F20749 		.ascii	"\230\362\007I\371\223\301\222\3446\332\355\346\373\215"
  74      F993C192 
  74      E436DAED 
  74      E6FB8D
  75 00b9 4F4D3CB0 		.ascii	"OM<\260\017a\014\027)\237\212\026B\"\\h\300Q\326\275"
  75      0F610C17 
  75      299F8A16 
  75      42225C68 
  75      C051D6BD 
  76 00cd 8EE255A8 		.ascii	"\216\342U\250\0111\237\012N,$\002\314'q\216z\217\333"
  76      09319F0A 
  76      4E2C2402 
  76      CC27718E 
  76      7A8FDB
  77 00e0 084ADE28 		.ascii	"\010J\336(\257Au{\375\356+\014\343#\240\273u\355[\362"
  77      AF41757B 
  77      FDEE2B0C 
  77      E323A0BB 
  77      75ED5BF2 
  78 00f4 48BC7A71 		.ascii	"H\274zq\243\225\354\211W+\033T\2411|@ \206\036q\211"
  78      A395EC89 
  78      572B1B54 
  78      A1317C40 
  78      20861E71 
  79 0109 7E39E089 		.ascii	"~9\340\211\360\220\246~\005{\341\011\336\0217Os\014"
  79      F090A67E 
  79      057BE109 
  79      DE11374F 
  79      730C
  80 011b B5ACC2CC 		.ascii	"\265\254\302\314\307\017OO\005\310\034&\372\341\221"
  80      C70F4F4F 
  80      05C81C26 
  80      FAE191
ARM GAS  /tmp/ccdWlSBO.s 			page 6


  81 012a A076922A 		.ascii	"\240v\222*p\033n\221h5\207\252'>\010\037\307H\374\012"
  81      701B6E91 
  81      683587AA 
  81      273E081F 
  81      C748FC0A 
  82 013e CCB85A00 		.ascii	"\314\270Z\000\013\004\021\030\3405\274\334Z^\270*\307"
  82      0B041118 
  82      E035BCDC 
  82      5A5EB82A 
  82      C7
  83 014f F9A6E087 		.ascii	"\371\246\340\207\230\023b\202\307\251\2478j\026J\343"
  83      98136282 
  83      C7A9A738 
  83      6A164AE3 
  84 015f 88B0AB8D 		.ascii	"\210\260\253\215\020O\362M\366X\265\236-c\224F\353\207"
  84      104FF24D 
  84      F658B59E 
  84      2D639446 
  84      EB87
  85 0171 A31CF598 		.ascii	"\243\034\365\230Q\242\223Q\3644Vavn\366r\004\321\011"
  85      51A29351 
  85      F4345661 
  85      766EF672 
  85      04D109
  86 0184 E545E918 		.ascii	"\345E\351\030\250\034\012\016B\022\003\377\311F\370"
  86      A81C0A0E 
  86      421203FF 
  86      C946F8
  87 0193 8891E27B 		.ascii	"\210\221\342{Bru\210\225R\264oR\253{\267G\277\222}\035"
  87      42727588 
  87      9552B46F 
  87      52AB7BB7 
  87      47BF927D 
  88 01a8 1EDDEBEE 		.ascii	"\036\335\353\356\215\215\217\267\257|\3570\3137\202"
  88      8D8D8FB7 
  88      AF7CEF30 
  88      CB3782
  89 01b7 F9D344E4 		.ascii	"\371\323D\344\327\363\177\372\265\016\265\306\347\315"
  89      D7F37FFA 
  89      B50EB5C6 
  89      E7CD
  90 01c5 B0F00041 		.ascii	"\260\360\000Ay\367s\334\303P\013\231\253\034\273\000"
  90      79F773DC 
  90      C3500B99 
  90      AB1CBB00 
  91 01d5 DE41B5F1 		.ascii	"\336A\265\361\325\214\252\341\313\253\003\206J\245f"
  91      D58CAAE1 
  91      CBAB0386 
  91      4AA566
  92 01e4 3D4BBAE5 		.ascii	"=K\272\345\307\365\036\357\371\241'\321\273/\225N\033"
  92      C7F51EEF 
  92      F9A127D1 
  92      BB2F954E 
  92      1B
  93 01f5 C157740C 		.ascii	"\301Wt\014\273l863X\3366s\334)\333\2254\003\271P.\015"
  93      BB6C3836 
  93      3358DE36 
ARM GAS  /tmp/ccdWlSBO.s 			page 7


  93      73DC29DB 
  93      953403B9 
  94 020c 7406B1A2 		.ascii	"t\006\261\242e\025\013\2069Y6\0063\303C\303\006/\260"
  94      65150B86 
  94      39593606 
  94      33C343C3 
  94      062FB0
  95 021f 8B1359D3 		.ascii	"\213\023Y\323`\226\303\235\321\034c\351<\034\373\013"
  95      6096C39D 
  95      D11C63E9 
  95      3C1CFB0B 
  96 022f A254B4CB 		.ascii	"\242T\264\313\216q\346lf03Iw\260\242m\216^:aQt\337\016"
  96      8E71E66C 
  96      66303349 
  96      77B0A26D 
  96      8E5E3A61 
  97 0247 1271C6BC 		.ascii	"\022q\306\274Sq\350\\g%\207gS\0344\313\264\212v%\330"
  97      5371E85C 
  97      67258767 
  97      531C34CB 
  97      B48A7625 
  98 025c 3069E337 		.ascii	"0i\3437\312V\371\205"
  98      CA56F985 
  99              		.text
 100              		.section	.gnu.lto_chRegFindThreadByName.6c2c6828e09f013,"",%progbits
 101 0000 789C8D54 		.ascii	"x\234\215TMHTQ\024>\347\2767?:3\026\265)0\225jQI>\\"
 101      4D485451 
 101      143EE7BE 
 101      373F3A33 
 101      16B52930 
 102 001a D4BA7025 		.ascii	"\324\272p%\344\242T\250\225\350u\030\037\364\234a\336"
 102      E4A254A8 
 102      95E87518 
 102      1FF49C61 
 102      DE
 103 002b 144A81D7 		.ascii	"\024J\201\327?\250E\"\325B\313R\011\322L\020jU\006M"
 103      3FA84522 
 103      D542CB52 
 103      09D24C10 
 103      6A55064D 
 104 003f 11A59223 		.ascii	"\021\245\222#\355*ZH\021\026\030(n$B;\367\3357\317\311"
 104      ED2A5A48 
 104      11161828 
 104      6E24423B 
 104      F7DD37CF 
 105 0054 B2BABC77 		.ascii	"\262\272\274w\377\3169\337\371\3169\367^\006\0146\267"
 105      FFCE39DF 
 105      F9CE39F7 
 105      5E060C36 
 105      B7
 106 0065 13F48FE8 		.ascii	"\023\364\217\350\000_h\304\000 \353\315\000\264\007"
 106      005F68C4 
 106      0020EBCD 
 106      00B407
 107 0074 196A6AA2 		.ascii	"\031jj\2421\337s\015D\276\236\231\001\020a\235\371\235"
 107      31DF730D 
 107      44BE9E99 
ARM GAS  /tmp/ccdWlSBO.s 			page 8


 107      0110619D 
 107      F99D
 108 0086 49BEB31B 		.ascii	"I\276\263\033\366+5\364!\312\021\020\332\230\246\373"
 108      F62B35F4 
 108      21CA1110 
 108      DA98A6FB 
 109 0096 7DD87606 		.ascii	"}\330v\006%:\356\205a!\256\316\177\376\370\025\373E"
 109      253AEE85 
 109      6121AECE 
 109      7FFEF815 
 109      FB45
 110 00a8 BA6B48FC 		.ascii	"\272kH\374X_G4\221\230\354C\340\010\247i\201%\316\300"
 110      585F4734 
 110      9198EC43 
 110      E008A769 
 110      8125CEC0 
 111 00bc F45FA94D 		.ascii	"\364_\251M\260\364\374\372\372\370\362\370\247A\334"
 111      B0F4FCFA 
 111      FAF8F2F8 
 111      A741DC
 112 00cb B903A11E 		.ascii	"\271\003\241\036\207\011\217\001Y\007\250\323\202h!"
 112      87098F01 
 112      5907A8D3 
 112      826821
 113 00da E4D14C0F 		.ascii	"\344\321L\017\271\262\260;Fh\323W ;\202\361A\227\020"
 113      B9B2B03B 
 113      4668D357 
 113      203B82F1 
 113      419710
 114 00ed BD254A02 		.ascii	"\275%J\002\322'\265\032\352\227\374P\213\214\006-\003"
 114      D227B51A 
 114      EA97FC50 
 114      8B8C062D 
 114      03
 115 00fe EDCB73B7 		.ascii	"\355\313s\267_\242\253\232\265I/\\\371\026:\340\255"
 115      5FA2AB9A 
 115      B5492F5C 
 115      F9163AE0 
 115      AD
 116 010f 9E5E5F0D 		.ascii	"\236^_\015\025z\253\351\327\314\303VQ\246\007gzv\213"
 116      157AABE9 
 116      D7CCC356 
 116      51A60767 
 116      7A768B
 117 0122 A18E5EB1 		.ascii	"\241\216^\261FA:1\216\340\277\202\314b\210\311\201\000"
 117      46413A31 
 117      8EE0BF82 
 117      CC6288C9 
 117      8100
 118 0134 10FD3B44 		.ascii	"\020\375;D\202\243\303\221\0239\216\032\375\256\015"
 118      82A3C391 
 118      13398E1A 
 118      FDAE0D
 119 0143 C2182D9D 		.ascii	"\302\030-\235\032\026\301C\274%\372\216\231\350W\262"
 119      1A16C143 
 119      BC25FA8E 
 119      99E857B2 
ARM GAS  /tmp/ccdWlSBO.s 			page 9


 120 0153 59E878FF 		.ascii	"Y\350x\377\366ny=\216\022@\014\303\2450&\250\235$\032"
 120      F66E793D 
 120      8E12400C 
 120      C3A53026 
 120      A89D241A 
 121 0167 EEF48889 		.ascii	"\356\364\210\211\201\233p\243]\210\355&\006/\300wqI"
 121      819B70A3 
 121      5D88ED26 
 121      062FC077 
 121      7149
 122 0179 CEF22CC7 		.ascii	"\316\362,\307\233\344\226\347 5\310e=\336\227\311k\220"
 122      9BE496E7 
 122      2035C865 
 122      3DDE97C9 
 122      6B90
 123 018b 32770E30 		.ascii	"2w\0160\015\035i\277\362P\217\367(\233\344Gy\356\033"
 123      0D1D69BF 
 123      F2508FF7 
 123      289BE447 
 123      79EE1B
 124 019e 3998F51C 		.ascii	"9\230\365\034)\205C&\346{\236B\244$\301\301\005g9\200"
 124      29854326 
 124      E67B9E42 
 124      A424C1C1 
 124      05673980 
 125 01b2 B3D079A9 		.ascii	"\263\320y\251\2639kY@\306R3\037U<\225J\340\322\017\375"
 125      B3396B59 
 125      40C65233 
 125      1F553C95 
 125      4AE0D20F 
 126 01c7 1F28C100 		.ascii	"\037(\301\0008\365\\\215\374^\316\265PqN9\007#E^\011"
 126      38F55C8D 
 126      FC5ECEB5 
 126      50714E39 
 126      0723455E 
 127 01dc BDEDCB73 		.ascii	"\275\355\313s\016\330\250S\007\237\252\203\237\376@"
 127      0ED8A853 
 127      079FAA83 
 127      9FFE40
 128 01eb B606935B 		.ascii	"\266\006\223[\326\200\3623\337\263\200\252\210\331\363"
 128      D680F233 
 128      DFB380AA 
 128      88D9F3
 129 01fa A65A2D19 		.ascii	"\246Z-\031\321\015\321H%\010\256,&\223Kq>\356\236\030"
 129      D10DD148 
 129      2508AE2C 
 129      26934B71 
 129      3EEE9E18 
 130 020e D82399CB 		.ascii	"\330#\231\313\362PP\032\011\234\340vm\300\366-\004\024"
 130      F250501A 
 130      099CE076 
 130      6DC0F62D 
 130      0414
 131 0220 AC85CCB1 		.ascii	"\254\205\314\261S@\356\365\352\317|x\200\327:\305\224"
 131      5340EEF5 
 131      EACF7C78 
 131      80D73AC5 
ARM GAS  /tmp/ccdWlSBO.s 			page 10


 131      94
 132 0231 E84AD3D1 		.ascii	"\350J\323\321+6\345e\031s\216\317\337\316\236%\3636"
 132      2B36E565 
 132      19738ECF 
 132      DFCE9E25 
 132      F336
 133 0243 07DD4B1D 		.ascii	"\007\335K\035+\027\025z\014\363\274\203\021\346\030"
 133      2B17157A 
 133      0CF3BC83 
 133      11E618
 134 0252 74D48858 		.ascii	"t\324\210X\014\203&F\000\246\340\305B{\271\247+As0\337"
 134      0C832646 
 134      00A6E0C5 
 134      427BB9A7 
 134      2B417330 
 135 0267 01525DD8 		.ascii	"\001R]\330\342ra\014C\376'+\2152n\035\350\301\320\346"
 135      E272610C 
 135      43FE272B 
 135      8D326E1D 
 135      E8C1D0E6 
 136 027b 40CF5A85 		.ascii	"@\317Z\205<\017\005\334=r1\371$l\223A\261\334\344\221"
 136      3C0F05DC 
 136      3D7231F9 
 136      246C9341 
 136      B1DCE491 
 137 028f AE74D9B5 		.ascii	"\256t\331\265\370\354Q\006=\363\215\272\273\255\206"
 137      F8EC5106 
 137      3DF38DBA 
 137      BBAD86
 138 029e F23FF40A 		.ascii	"\362?\364\012\260\226\344t\231\337\320\253%!\231\242"
 138      B096E474 
 138      99DFD0AB 
 138      252199A2 
 139 02ae 24D3A50D 		.ascii	"$\323\245\015\254\024\272f\372\342JX\232 \251J\215\222"
 139      AC14BA66 
 139      FAE24A58 
 139      9A20A94A 
 139      8D92
 140 02c0 B232437D 		.ascii	"\2622C}q\333H\246\014;\311\015\336\224\214\306L;\225"
 140      71DB48A6 
 140      0C3BC90D 
 140      DE948CC6 
 140      4C3B95
 141 02d3 6C2DE3A0 		.ascii	"l-\343\240\361T\242<W\211\307-+\336lD[RFEUue\265a6\363"
 141      F154A23C 
 141      5789C72D 
 141      2BDE6C44 
 141      5B524645 
 142 02ee B3E71AA3 		.ascii	"\263\347\032\243\006\267l\323\256\213q^\326\004\207"
 142      06B76CD3 
 142      AE8B715E 
 142      D60487
 143 02fd FF609188 		.ascii	"\377`\221\210'S\266q\374TUEU\013\371\340\361d\264\356"
 143      2753B671 
 143      FC545545 
 143      550BF9E0 
 143      F164B4EE 
ARM GAS  /tmp/ccdWlSBO.s 			page 11


 144 0311 FC518BB4 		.ascii	"\374Q\213\264\2137\221\360\020\233\354V\233\344,\225"
 144      8B3791F0 
 144      109BEC56 
 144      9BE42C95 
 145 0321 08F2846D 		.ascii	"\010\362\204m6\226\230\020\260\242V<\331\012\316F\224"
 145      36969810 
 145      B0A2563C 
 145      D90ACE46 
 145      94
 146 0332 36F66F69 		.ascii	"6\366oi\354E\321\004?\001APc\237"
 146      EC45D104 
 146      3F014150 
 146      639F
 147              		.text
 148              		.section	.gnu.lto_chRegFindThreadByPointer.6c2c6828e09f013,"",%progbits
 149 0000 789C8D53 		.ascii	"x\234\215S=L\024A\024~o\366n\357g\217\204\304\312\204"
 149      3D4C1441 
 149      147E6FF6 
 149      6EEF678F 
 149      84C4CA84 
 150 0014 C0451B95 		.ascii	"\300E\033\225x\033\012\255%T$R(\220hE\316\341\262l\342"
 150      781B0AAD 
 150      25542452 
 150      28906845 
 150      CEE1B26C 
 151 0029 7297DBD3 		.ascii	"r\227\333\323@,\230\003\012,TbLDE~b\"\210\205\205\245"
 151      402C9803 
 151      0A2C5462 
 151      4C44457E 
 151      62228885 
 152 003f 8587FF10 		.ascii	"\205\207\377\020\340b\247\304\202\304\202\230@\324J"
 152      E062A7C4 
 152      82C48298 
 152      40D44A
 153 004e 50C3F966 		.ascii	"P\303\371f\377<Q\243\223\335\235\231\367\336\367\275"
 153      FF3C51A3 
 153      93DD9D99 
 153      F7DEF7BD 
 154 005e EFCDDB61 		.ascii	"\357\315\333a\300`\3678N\357\246\002\360\224f\214\000"
 154      C060F738 
 154      4EEFA602 
 154      F094668C 
 154      00
 155 006f B2D11580 		.ascii	"\262\321\025\200b\224\241\342.\024\026~\242\200\210"
 155      6294A1E2 
 155      2E14167E 
 155      A28088
 156 007e 87561601 		.ascii	"\207V\026\001D\"\304Tg\021w\254\011\325\015k\016#\312"
 156      4422C454 
 156      671177AC 
 156      09D50D6B 
 156      0E23CA
 157 0091 19100698 		.ascii	"\031\020\006\230\022R\3038p\032%;\356\203i!\256\256"
 157      1252C338 
 157      701A253B 
 157      EE836921 
 157      AEAE
ARM GAS  /tmp/ccdWlSBO.s 			page 12


 158 00a3 3DFFF801 		.ascii	"=\377\370\001o\210\322\360\224\370^\251 \232HJ\366#"
 158      6F88D2F0 
 158      94F85EA9 
 158      209A484A 
 158      F623
 159 00b5 708453B4 		.ascii	"p\204S\264\301\2443\261\320\257\322\036\260\322Z\245"
 159      C1A433B1 
 159      D0AFD21E 
 159      B0D25AA5 
 160 00c5 F2EECBEC 		.ascii	"\362\356\313\354\373U\334S\213\220\306i\342c@\350\010"
 160      FB55DC53 
 160      8B90C669 
 160      E26340E8 
 160      08
 161 00d6 5A0831CF 		.ascii	"Z\0101\317\022\367f\215<JB~\010\034\206a!F\223\256\007"
 161      12F7668D 
 161      3C4A427E 
 161      081C8661 
 161      214693AE 
 162 00eb 64261A1D 		.ascii	"d&\032\035\364\375\244B'2\232\224\025(~.O\274@/\324"
 162      F4FDA442 
 162      27329A94 
 162      15287E2E 
 162      4FBC402F 
 163 0100 C794D62F 		.ascii	"\307\224\326/mj\007\202\335\343k[Z]\260[Xb\001\267["
 163      6D6A0782 
 163      DDE36B5B 
 163      5A5DB05B 
 163      586201B7 
 164 0115 5B6972F1 		.ascii	"[ir\361\362^158*v\2504\247\262\031\374Wi>\207\230\231"
 164      F25E3135 
 164      382A76A8 
 164      34A7B219 
 164      FC57693E 
 165 012c 8800C9BF 		.ascii	"\210\000\311\277C\"8:\0329\211\343T\002G\017\2030G["
 165      4322383A 
 165      1A3989E3 
 165      5402470F 
 165      8330475B 
 166 0140 A773F5F0 		.ascii	"\247s\365\360\020o\213\261c\246\357[\206\301\3257w\233"
 166      106F8BB1 
 166      63A6EF5B 
 166      86C1D537 
 166      779B
 167 0152 D2384B04 		.ascii	"\3228K\004\006\306\033aN\3208A2\274\345\021\023\303"
 167      06C61B61 
 167      4ED03841 
 167      32BCE511 
 167      13C3
 168 0164 B7E06651 		.ascii	"\267\340fQ\210Z\023\325\013\360U\214\310U\304r\262I"
 168      885A13D5 
 168      0BF0558C 
 168      C855C472 
 168      B249
 169 0176 6D1187E9 		.ascii	"m\021\207\351\214\334\246\361>\361\320\032\2035\300"
 169      8CDCA6F1 
 169      3EF1D01A 
ARM GAS  /tmp/ccdWlSBO.s 			page 13


 169      8335C0
 170 0185 020C9654 		.ascii	"\002\014\226T7C\032\357\321iR\0367\363\330\314A?\263"
 170      37431AEF 
 170      D169521E 
 170      37F3D8CC 
 170      413FB3
 171 0198 D608874C 		.ascii	"\326\010\207L\214\006\231b\024$\311\301#gU\204\3130"
 171      8C069962 
 171      1424C9C1 
 171      23675584 
 171      CB30
 172 01aa 3432D4EB 		.ascii	"42\324\353#\023\004\226\221Qt\353iu\035\236|\355\377"
 172      23130496 
 172      915174EB 
 172      69751D9E 
 172      7CEDFF
 173 01bd 488906C0 		.ascii	"H\211\006\300\351\347V\315\357\355\334\321\032\252\332"
 173      E9E756CD 
 173      EFEDDCD1 
 173      1AAADA
 174 01cc 3959531F 		.ascii	"9YS\037\26400_,;d\263N\037\302n\037Tz#~\017\036\375"
 174      B430305F 
 174      2C3B64B3 
 174      4E1FC26E 
 174      1F547A23 
 175 01e4 B507743E 		.ascii	"\265\007t>k\013\353\3506\321\377\337\334\321I \272\027"
 175      6B0BEBE8 
 175      36D1FFDF 
 175      DCD14920 
 175      BA17
 176 01f6 0A8544C1 		.ascii	"\012\205D\301\363\031\362p_\301\263\365\371\353W\022"
 176      F319F270 
 176      5FC1B3F5 
 176      F9EB5712 
 177 0206 2E884C86 		.ascii	".\210L\206\237\011\340-\320.\316\306\267\353\014\214"
 177      9F09E02D 
 177      D02ECEC6 
 177      B7EB0C8C 
 178 0216 A91BDBDD 		.ascii	"\251\033\333\335\222'\004t\355\2242\204|D,he\234c\324"
 178      92270474 
 178      ED943284 
 178      7C442C68 
 178      659C63D4 
 179 022a 011AF262 		.ascii	"\001\032\362biR\020\253\026C\2612\341\360\306\374d\031"
 179      695210AB 
 179      1643B132 
 179      E1F0C6FC 
 179      6419
 180 023c 03F8CF73 		.ascii	"\003\370\317s\364F\007\325;\365\022\260\223\374t9^\323"
 180      F44607D5 
 180      3BF512B0 
 180      93FC7439 
 180      5ED3
 181 024e DD9794CC 		.ascii	"\335\227\224\314\225\304\210\\Y\332\256\363`\241\361"
 181      95C4885C 
 181      59DAAEF3 
 181      60A1F1
ARM GAS  /tmp/ccdWlSBO.s 			page 14


 182 025d 6F090941 		.ascii	"o\011\011A\012\225\021\311TJw\237\254\255\347\013\272"
 182      0A9511C9 
 182      544A779F 
 182      ACADE70B 
 182      BA
 183 026e 9DE73AEF 		.ascii	"\235\347:\357\311g\014\323.\344\373S\034\024^\3105U"
 183      C9670CD3 
 183      2EE4FB53 
 183      1C145EC8 
 183      3555
 184 0280 07F1AC65 		.ascii	"\007\361\254ee{\365L_Aoikom\327\315^~\366\\wF\347\226"
 184      657BF54C 
 184      5F416F69 
 184      6B6F6DD7 
 184      CD5E7EF6 
 185 0299 6DDA5D06 		.ascii	"m\332]\006\347\251\0368\374\007D.\233/\330z\363\311"
 185      E7A91E38 
 185      FC07442E 
 185      9B2FD87A 
 185      F3C9
 186 02ab B696B63E 		.ascii	"\266\226\266>\312\301\263\371L\327\371\243\026E7\354"
 186      CAC1B3F9 
 186      4CD7F9A3 
 186      164537EC 
 187 02bb 121130F6 		.ascii	"\022\0210\366\330\3756\371Y!\027\3459\333\354N\232\020"
 187      D8FD36F9 
 187      592117E5 
 187      39DBEC4E 
 187      9A10
 188 02cd B1325636 		.ascii	"\2612V6\337\017\216!C\206\037\3448.\214"
 188      DF0F8E21 
 188      43861FE4 
 188      382E8C
 189              		.text
 190              		.section	.gnu.lto_chRegFindThreadByWorkingArea.6c2c6828e09f013,"",%progbits
 191 0000 789C8D54 		.ascii	"x\234\215TKL\023a\020\236\371w\373\240\217\250\211\027"
 191      4B4C1361 
 191      109EF977 
 191      FBA08FA8 
 191      8917
 192 0012 131E8D5C 		.ascii	"\023\036\215\\Tb7\034\364,\341D\"\007\005\022=\221\262"
 192      5462371C 
 192      F42CE144 
 192      22070512 
 192      3D91B2
 193 0025 34651397 		.ascii	"4e\023\2276\335j \036\370\201\222\340A\004\365\000\276"
 193      36DD6A20 
 193      1EF88192 
 193      E04104F5 
 193      00BE
 194 0037 0A9AC843 		.ascii	"\012\232\310C\023\017\306\213\232X\011Q \002\321\223"
 194      130FC68B 
 194      9A580951 
 194      2002D193 
 195 0047 7AAA31A6 		.ascii	"z\2521\2461\301\2507\242\246u\376\335\355RQ\324I\367"
 195      31C1A837 
 195      A2A675FE 
ARM GAS  /tmp/ccdWlSBO.s 			page 15


 195      DDED5251 
 195      D449F7
 196 005a 7FCDCC37 		.ascii	"\177\315\3147\337\314\374\177\0310\330*G\351K\311\000"
 196      DFCCFC7F 
 196      1930D82A 
 196      47E94BC9 
 196      00
 197 006b 799AD103 		.ascii	"y\232\321\003\310FW\001\372\275\014%k!1\327\274\004"
 197      C8465701 
 197      FABD0C25 
 197      6B2131D7 
 197      BC04
 198 007d DC27AF2E 		.ascii	"\334'\257.\003\360\200\314\334\346\302g\236\006\334"
 198      03F080CC 
 198      DCE6C267 
 198      9E06DC
 199 008c 9659830B 		.ascii	"\226Y\203\013Q\314\200\320\307$\331\355\302\276\223"
 199      51CC80D0 
 199      C724D9ED 
 199      C2BE93
 200 009b 28D0712F 		.ascii	"(\320q/Lq~1\367\241\360\021'x6=\311\177\024\213\210"
 200      4C717E31 
 200      F7A1F011 
 200      2778363D 
 200      C97F148B 
 201 00b0 1A12935A 		.ascii	"\032\022\223Z\004\025\341\004m0dNL\376\225\332=\226"
 201      0415E104 
 201      6D30644E 
 201      4CFE95DA 
 201      3D96
 202 00c2 CD158B77 		.ascii	"\315\025\213w\213\271\367\027p\367.\204\010N\021\036"
 202      8BB9F717 
 202      70F72E84 
 202      084E111E 
 203 00d2 03F2F6D0 		.ascii	"\003\362\366\320 yQG\360\331\307~{\016\220F\016\212"
 203      20795147 
 203      F0D9C77E 
 203      7B0E9046 
 203      0E8A
 204 00e4 81105C90 		.ascii	"\201\020\\\220\346|4di@\204#i\245\361\213\033\332\220"
 204      E67C3464 
 204      69408423 
 204      69A5F18B 
 204      1BDA90
 205 00f7 D124AD42 		.ascii	"\321$\255B\377\327\265\033\317\3206-\371d\363\347?\371"
 205      FFD7B51B 
 205      CFD0362D 
 205      F964F3E7 
 205      3FF9
 206 0109 F739BB27 		.ascii	"\3679\273'\2277\374\225\316n\351\005s\260\255\004\263"
 206      9737FC95 
 206      CE6EE905 
 206      73B0AD04 
 206      B3
 207 011a 99E5913D 		.ascii	"\231\345\221=|r`\224\027(?3\275i\374W~%\014\376=\343"
 207      7C726094 
 207      17283F33 
ARM GAS  /tmp/ccdWlSBO.s 			page 16


 207      BD69FC57 
 207      7E250CFE 
 208 0130 01A27F8B 		.ascii	"\001\242\177\213H\250hrT\211\234\212\022}\266\017\302"
 208      48A86872 
 208      54899C8A 
 208      127DB60F 
 208      C2
 209 0141 1C6DCDF6 		.ascii	"\034m\315\366U\303}\274\316\307\217hdn\312\012\014\274"
 209      55C37DBC 
 209      CEC78F68 
 209      646ECA0A 
 209      0CBC
 210 0153 7D7DBB3E 		.ascii	"}}\273>\2023t\022C\177\035\314q\222cD\303^\036\322\320"
 210      82337412 
 210      437F1DCC 
 210      71926344 
 210      C35E1ED2 
 211 0168 7D15AEF4 		.ascii	"}\025\256\364s\276SC\317Y\370\306\207\305\312\253\233"
 211      73BE5343 
 211      CF59F8C6 
 211      87C5CAAB 
 211      9B
 212 0179 D10437AF 		.ascii	"\321\0047\257\211\324!\266\021\274#\220;\204\316^\003"
 212      89D421B6 
 212      11BC2390 
 212      3B84CE5E 
 212      03
 213 018a 2CC140D6 		.ascii	",\301@\326mE\210\340,U\223\342X\221\307\247\367\227"
 213      6D4588E0 
 213      2C5593E2 
 213      5891C7A7 
 213      F797
 214 019c 2207EAE0 		.ascii	"\"\007\352\340\200\206\025N$\037\031\011p\260\301Y\031"
 214      8086154E 
 214      241F1909 
 214      70B0C159 
 214      19
 215 01ad E00A0C0E 		.ascii	"\340\012\014\016\017v\227<\203\344,,+\320\312\247\311"
 215      0F76973C 
 215      83E42C2C 
 215      2BD0CAA7 
 215      C9
 216 01be 52D8F4FD 		.ascii	"R\330\364\375\377\007J0\000f?7\202\277\267\263\340\257"
 216      FF074A30 
 216      00663F37 
 216      82BFB7B3 
 216      E0AF
 217 01d0 296B6726 		.ascii	")kg&X\355\264\3209>\267f\202\315\230}pY}p\323\347)\365"
 217      58EDB4D0 
 217      393EB766 
 217      82CD987D 
 217      70597D70 
 218 01e8 E0D1B63D 		.ascii	"\340\321\266=\240\372\344\012y\264\232X\272o\226\264"
 218      A0FAE40A 
 218      79B49A58 
 218      BA6F96B4 
 219 01f8 91133D0E 		.ascii	"\221\023=\016\211L\274`\353b\242\270\224\347\303\241"
ARM GAS  /tmp/ccdWlSBO.s 			page 17


 219      894CBC60 
 219      EB62A2B8 
 219      94E7C3A1 
 220 0208 CF992AC1 		.ascii	"\317\231*\301\334C\371QR\022)\314\344*7a\207gwX\260"
 220      DC43F951 
 220      521229CC 
 220      E42A3761 
 220      87677758 
 221 021d 3A32D3CF 		.ascii	":2\323\317\002\262_\326\304\310\302\003\2744\310\027"
 221      02B25FD6 
 221      C4C8C203 
 221      BC34C817 
 222 022d 793A4B57 		.ascii	"y:KW\257F\023\357d\316\274>\177\273{\272\250\333\","
 222      AF4613EF 
 222      64CEBC3E 
 222      7FBB7BBA 
 222      A8DB222C 
 223 0241 E4DF0DDD 		.ascii	"\344\337\015\335\234\267i\023\213\230}\021H\336\000"
 223      9CB76913 
 223      8B987D11 
 223      48DE00
 224 0250 52A5D97A 		.ascii	"R\245\331z\2612\206>\367\343\261\250\310D\006z\375\322"
 224      B132863E 
 224      F7E3B1A8 
 224      C844067A 
 224      FDD2
 225 0262 1AC8250F 		.ascii	"\032\310%\017\237s\231\374\252\355\033\023\357; h\262"
 225      9F7399FC 
 225      AAED1B13 
 225      EF3B2068 
 225      B2
 226 0273 F27290AD 		.ascii	"\362r\220\255\210\230^\177:\361\312\011\350\333\354"
 226      88985E7F 
 226      3AF1CA09 
 226      E8DBEC
 227 0282 A42DAD54 		.ascii	"\244-\255T\361\311\347\200m\244\247\347\371\222\376"
 227      F1C9E780 
 227      6DA4A7E7 
 227      F992FE
 228 0291 820424B3 		.ascii	"\202\004$\263(\211\002H\327\306\252l7y},(\\\220L\205"
 228      28890248 
 228      D7C6AA6C 
 228      37797D2C 
 228      285C904C 
 229 02a6 45281C56 		.ascii	"E(\034V\254_\334P\222)\305H\252\212\332\225\214\306"
 229      AC5FDC50 
 229      9229C548 
 229      AA8ADA95 
 229      8CC6
 230 02b8 342395EC 		.ascii	"4#\225\354\015\253 \251\251D}\271\221\032\327\365x\267"
 230      0DAB20A9 
 230      A9447DB9 
 230      911AD7F5 
 230      78B7
 231 02ca 12ED4929 		.ascii	"\022\355I)\215\315-M-\212\326\255\236:\335\031UT\335"
 231      8DCD2D4D 
 231      2D8AD6AD 
ARM GAS  /tmp/ccdWlSBO.s 			page 18


 231      9E3ADD19 
 231      5554DD
 232 02dd D08CF698 		.ascii	"\320\214\366\230\252\206\273\340\340\037<\022\361d\312"
 232      AA86BBE0 
 232      E01F3C12 
 232      F164CA
 233 02ec 501A8E37 		.ascii	"P\032\216776\367P\0145\236\214\266\2379\254\223u\315"
 233      3736F750 
 233      0C359E8C 
 233      B69F39AC 
 233      9375CD
 234 02ff 16120E62 		.ascii	"\026\022\016b\227\321k\220\236\245\022^5ah\235!\015"
 234      97D16B90 
 234      9EA5125E 
 234      3561689D 
 234      210D
 235 0311 3C7A548F 		.ascii	"<zT\217'{\301<\210\322A\355\266\316)\312#\322)\000~"
 235      277BC13C 
 235      88D241ED 
 235      B6CE29CA 
 235      23D22900 
 236 0326 02B9C758 		.ascii	"\002\271\307X\306"
 236      C6
 237              		.text
 238              		.section	.gnu.lto_.symbol_nodes.6c2c6828e09f013,"",%progbits
 239 0000 789C4D8C 		.ascii	"x\234M\214=\012\302`\024\004w\367\345\251\267\360\250"
 239      3D0AC260 
 239      140477F7 
 239      E5A9B7F0 
 239      A8
 240 0011 1B10A2A5 		.ascii	"\033\020\242\245\215\377\250`nbcg\357\001\024\004\017"
 240      8DFFA860 
 240      6E626367 
 240      EF011404 
 240      0F
 241 0022 6182A2DF 		.ascii	"a\202\242\337V3S\254 \264\370NK\032\230_\001\3730c\356"
 241      563353AC 
 241      20B4F84E 
 241      4B1A985F 
 241      01FB3063 
 242 0037 D811B4A2 		.ascii	"\330\021\264\242\371\257Z\323*tCG\241[\272*.\026d\032"
 242      F9AF5AD3 
 242      2A744347 
 242      A15BBA2A 
 242      2E16641A 
 243 004b DCD3F9A9 		.ascii	"\334\323\371\251uM\036\351\301\317BC\264\315k\0341\302"
 243      754D1EE9 
 243      C1CF4243 
 243      B4CD6B1C 
 243      31C2
 244 005d E4727F66 		.ascii	"\344r\177f\204p\236>n\031U\007M\017)\234\372\20270,"
 244      84709E3E 
 244      6E195507 
 244      4D0F299C 
 244      FA823730 
 245 0072 3094     		.ascii	"0\224"
 246              		.text
ARM GAS  /tmp/ccdWlSBO.s 			page 19


 247              		.section	.gnu.lto_.refs.6c2c6828e09f013,"",%progbits
 248 0000 789C6362 		.ascii	"x\234cb`b\020e\200\000F bdbbdd\006\322,@\314\012\024"
 248      60621065 
 248      80004620 
 248      62646262 
 248      646406D2 
 249 0019 0200040B 		.ascii	"\002\000\004\013\0004"
 249      0034
 250              		.text
 251              		.section	.gnu.lto_.decls.6c2c6828e09f013,"",%progbits
 252 0000 789CC55B 		.ascii	"x\234\305[{p\024\307\231\237\231]iw\245E(Np\351\352"
 252      7B7014C7 
 252      999F995D 
 252      6977A545 
 252      284E70E9 
 253 0015 7C879C73 		.ascii	"|\207\234s\022\342\273 \270s|\370\252b\223#u!UgW\312"
 253      12E2BB20 
 253      B8737CF8 
 253      AA629323 
 253      75215567 
 254 002b 8EEBF28F 		.ascii	"\216\353\362\217\263\036V\203\264\361jw3;B\310\377d"
 254      B31E5683 
 254      B4F16A77 
 254      333B42C8 
 254      FF64
 255 003d 1004616C 		.ascii	"\020\004al\220\204x\010\203ay\331861`\363\360\003\274"
 255      90847808 
 255      836179D9 
 255      38363160 
 255      F3F003BC 
 256 0051 06831420 		.ascii	"\006\203\024 \274A\0052D~`b80\330\006#\202\321}\375"
 256      BC410532 
 256      447E6062 
 256      3830D806 
 256      2382D17D 
 257 0066 4DCFECF4 		.ascii	"M\317\354\364\354\314\356\2148\337Miz\273{\272\177\375"
 257      ECCCEE8C 
 257      38DF4D69 
 257      7ABB7BBA 
 257      7FFD
 258 0078 3DBBBFEE 		.ascii	"=\273\277\356\031\011\234\300]\0238n\020\256\337>\300"
 258      19099CC0 
 258      5D13386E 
 258      10AEDF3E 
 258      C0
 259 0089 71F70738 		.ascii	"q\367\0078\256\224\203_.wA\025\267\002\356\307x\216"
 259      AE94835F 
 259      2E774115 
 259      B702EEC7 
 259      788E
 260 009b AB85FBD7 		.ascii	"\253\205\373\327p'\340n\204\273\031n\350\316\315\204"
 260      7027E06E 
 260      84BB196E 
 260      E8CECD84 
 261 00ab DF633CC7 		.ascii	"\337c<\307\\\244O\031\334\253\340\256\200;\0147iR\012"
 261      5CA44F19 
 261      DCABE0AE 
ARM GAS  /tmp/ccdWlSBO.s 			page 20


 261      803B0C37 
 261      69520A
 262 00be 1DE642A6 		.ascii	"\035\346B\246\025\356 \344\313\340w5\324\373\340\236"
 262      15EE20E4 
 262      CBE07735 
 262      D4FBE09E 
 263 00ce 03F94570 		.ascii	"\003\371Ep\207\370\334\270!h3\014\356J\270G\300]\005"
 263      87F8DCB8 
 263      2168330C 
 263      EE4AB847 
 263      C05D05
 264 00e1 F7DF0A1A 		.ascii	"\367\337\012\032\326L\313\230\204\306r\2071\311\030"
 264      D64CCB98 
 264      84C67287 
 264      31C918
 265 00f0 23E9D864 		.ascii	"#\351\330d\314j\310O\341\265q?\240c\223q\203\024\307"
 265      CC6AC84F 
 265      E1B5713F 
 265      A0639371 
 265      8314C7
 266 0103 69DC46DA 		.ascii	"i\334F\332G\204\337;\205|\032\210\214*-4\234\205\333"
 266      4784DF3B 
 266      857C1A88 
 266      8C2A2D34 
 266      9C85DB
 267 0116 5F84FFEF 		.ascii	"_\204\377\357A\376I\310\217\202\337_\361\371\362(\243"
 267      41FE49C8 
 267      8F82DF5F 
 267      F1F9F228 
 267      A3
 268 0127 D8856442 		.ascii	"\330\205dB\364\361\030\355[\317k\264}_`\351#\372\013"
 268      F4F118ED 
 268      5BCF6BB4 
 268      7D5F60E9 
 268      23FA0B
 269 013a 7BD08B13 		.ascii	"{\320\213\023=!\212U\210\236\307\250}\304\371|9\021"
 269      3D218A55 
 269      889EC7A8 
 269      7DC4F97C 
 269      3911
 270 014c 1B1A66A1 		.ascii	"\033\032f\241\343\342-\320\222pA\013\351'SZ\356\266"
 270      E3E22DD0 
 270      9270410B 
 270      E927535A 
 270      EEB6
 271 015e C86524B7 		.ascii	"\310e$\267L\355\277\324\277k\325\011~\261\232\235\241"
 271      4CEDBFD4 
 271      BF6BD509 
 271      7EB19A9D 
 271      A1
 272 016f 8247F0B7 		.ascii	"\202G\360\267s\013T\27023U\225W\312\271\331\252\332"
 272      730B54B8 
 272      32335595 
 272      57CAB9D9 
 272      AADA
 273 0181 420A137B 		.ascii	"B\012\023{*n\343:\310\223\352\036 \375\227\274\310W"
 273      2A6EE33A 
ARM GAS  /tmp/ccdWlSBO.s 			page 21


 273      C893EA1E 
 273      20FD97BC 
 273      C857
 274 0193 84B88C1F 		.ascii	"\204\270\214\037s\341\020\367\023\200\373\016\267ZU"
 274      73E110F7 
 274      1380FB0E 
 274      B75A55
 275 01a2 DBFB177D 		.ascii	"\333\373\027}u\304\247\252A\221_\315\337\006\242\230"
 275      75C4A7AA 
 275      41915FCD 
 275      DF06A298 
 276 01b2 C8737773 		.ascii	"\310sws/B\307vU]y\267E\"x\025\005\026\240\000\306\267"
 276      2F42C776 
 276      555D79B7 
 276      45227815 
 276      0516A000 
 277 01c8 16F044FE 		.ascii	"\026\360D\376\005\376nm$\265\177A\353\251\026~\032\020"
 277      05FE6E6D 
 277      24B57F41 
 277      EBA9167E 
 277      1A10
 278 01da AA3DE3E8 		.ascii	"\252=\343\350S\233\353N.\003\035\262_\356Y\312\253\231"
 278      539BEB4E 
 278      2E031DB2 
 278      5FEE59CA 
 278      AB99
 279 01ec 1DBCCD88 		.ascii	"\035\274\315\210\343\365\001\203&NV\314\371\031r\362"
 279      E3F50183 
 279      264E56CC 
 279      F91972F2 
 280 01fc 3272329D 		.ascii	"2r2\235\347\231\021(Jf\274\023\214\300ub\227W\362\010"
 280      E7991128 
 280      4A66BC13 
 280      8CC07562 
 280      9757F208 
 281 0210 EF3EA013 		.ascii	"\357>\240\023\376\212\013\302[\262\207f?\3677\204p\221"
 281      FE8A0BC2 
 281      5BB28766 
 281      3FF73784 
 281      7091
 282 0222 5FC59703 		.ascii	"_\305\227\003\356j\003\227\216[\255\217K|\216f\265\213"
 282      EE6A0397 
 282      8E5BAD8F 
 282      4B7C8E66 
 282      B58B
 283 0234 3660F10E 		.ascii	"6`\361\016\357\011\267\213:\330\213\236\301\252\355"
 283      EF09B78B 
 283      3AD88B9E 
 283      C1AAED
 284 0243 48D52E33 		.ascii	"H\325.3\267\"\277\201\377\016\244\033\371;!}\015R\343"
 284      B722BF81 
 284      FF0EA41B 
 284      F93B217D 
 284      0D52E3
 285 0256 12B83FF0 		.ascii	"\022\270?\360\272N\355DW\234\205\201=KQ$!nV\316F9[\026"
 285      BA4EED44 
 285      579C8581 
ARM GAS  /tmp/ccdWlSBO.s 			page 22


 285      3D4B5124 
 285      216E56CE 
 286 026e A83A4F3C 		.ascii	"\250:O<\375\356!~:J}+t\023\270\013\026\205\272\207\352"
 286      FDEE217E 
 286      3A4A7D2B 
 286      7413B80B 
 286      1685BA87 
 287 0283 6BDBF50E 		.ascii	"k\333\365\016\337\202Po\"T\2470T\250\201\303\357vP\252"
 287      DF82506F 
 287      2254A730 
 287      54A881C3 
 287      EF7650AA 
 288 0297 B623D41E 		.ascii	"\266#\324\036\013\224\310\007\014\336\215\262\336\200"
 288      0B94C807 
 288      0CDE8DB2 
 288      DE80
 289 02a5 E0E1639A 		.ascii	"\340\341c\232!\313\332p\356kn.p\307\004\213\362\354"
 289      21CBDA70 
 289      EE6B6E2E 
 289      70C7048B 
 289      F2EC
 290 02b7 4C26E8A4 		.ascii	"L&\350\244<\265\177~\367i\201L9>\335\207J\235\244$p"
 290      3CB57F7E 
 290      F769814C 
 290      393EDD87 
 290      4A9DA424 
 291 02cc 2771AC9D 		.ascii	"'q\254\235V\037Z\336\273O\367\241\235\256|h\323\236"
 291      561F5ADE 
 291      BB4FF7A1 
 291      9DAE7C68 
 291      D39E
 292 02de 45683045 		.ascii	"Eh0E'5A\037\377.\034\277\303G\306\357\261\216\377\327"
 292      2735411F 
 292      FF2E1CBF 
 292      C347C6EF 
 292      B18EFFD7 
 293 02f2 93BBA6D3 		.ascii	"\223\273\246\323\361{\\\215\277x\377\374\374\361E\376"
 293      F17B5C8D 
 293      BF78FFFC 
 293      FCF145FE 
 294 0302 FE1185AC 		.ascii	"\376\021\205\254cy\357\307\227\351(\373\320Y\367\372"
 294      6379EFC7 
 294      97E928FB 
 294      D059F7FA 
 295 0312 ACD6F140 		.ascii	"\254\326\361@9\253?(\233\032\010\334Q\203\376!\315\025"
 295      39AB3F28 
 295      9B1A08DC 
 295      5183FE21 
 295      CD15
 296 0324 C0E8EE4E 		.ascii	"\300\350\356N~\336t\265g\214NC\257g\304jF\022K\367\343"
 296      7EDE74B5 
 296      678C4E43 
 296      AF67C46A 
 296      46124BF7 
 297 0339 ECA3819D 		.ascii	"\354\243\201\235t\003\346hJ-\331ef\260\323\236\301X"
 297      7403E668 
 297      4A2DD965 
ARM GAS  /tmp/ccdWlSBO.s 			page 23


 297      66B0D39E 
 297      C158
 298 034b CAD69BC1 		.ascii	"\312\326\233\301>p\003V\351L\331F3\330\031\317`,e\257"
 298      3E700356 
 298      E94CD946 
 298      33D819CF 
 298      602C65AF 
 299 035f 99C1FEE2 		.ascii	"\231\301\376\342\006\254\312\231\262\315f\260\363\236"
 299      06ACCA99 
 299      B2CD66B0 
 299      F39E
 300 036d C158CAB6 		.ascii	"\301X\312\266\232\301.\272\001\253\266\241\314\270\354"
 300      9AC12EBA 
 300      01ABB6A1 
 300      CCB8EC
 301 037c FA11B3EE 		.ascii	"\372\021\263\356\346\015;\027\270\313>}N\360h\323\\"
 301      E60D3B17 
 301      B8CB3E7D 
 301      4EF068D3 
 301      5C
 302 038d 0EE30B9F 		.ascii	"\016\343\013\237\3279\214\341\033\026\361?\257\344;"
 302      D7398CE1 
 302      1B16F13F 
 302      AFE43B
 303 039c 35BFD016 		.ascii	"5\277\320\026\322kn\020\013\030L\373^\323\252|\3233"
 303      D26B6E10 
 303      0B184CFB 
 303      5ED3AA7C 
 303      D333
 304 03ae 18AB9665 		.ascii	"\030\253\226e\004\214\231k\350\232\324\277&[\325\225"
 304      048C996B 
 304      E89AD4BF 
 304      265BD595 
 305 03be 9BEE823A 		.ascii	"\233\356\202:\026\011\315\264\271\015\"5\301h\254VU"
 305      1609CDB4 
 305      B90D2235 
 305      C168AC56 
 305      55
 306 03cf D9B715F9 		.ascii	"\331\267\025\371Opu?\307\207\014*\264\274\236\033\304"
 306      4F70753F 
 306      C7870C2A 
 306      B4BC9E1B 
 306      C4
 307 03e0 587886DF 		.ascii	"Xx\206\337.\350C\200\302]\235,\341\254\331\022\236\362"
 307      2EE84380 
 307      C25D9D2C 
 307      E1ACD912 
 307      9EF2
 308 03f2 BB105301 		.ascii	"\273\020S\001W8\350$\246\354Lu\026?m\303\035\005#\304"
 308      5738E824 
 308      A6EC4C75 
 308      163F6DC3 
 308      1D0523C4 
 309 0406 E5BD1757 		.ascii	"\345\275\027W\3208\340S\\\274\347\372m\343\000W`}m\007"
 309      D038E053 
 309      5CBCE7FA 
 309      6DE30057 
ARM GAS  /tmp/ccdWlSBO.s 			page 24


 309      607D6D07 
 310 041a F4A0E233 		.ascii	"\364\240\3423\004[|\013`\003\207O\351a\305\025\004["
 310      045B7C0B 
 310      6003874F 
 310      E961C515 
 310      045B
 311 042c E9B72E1C 		.ascii	"\351\267.\034!KX\021b\027\376P(\227\031\324/V\225_k"
 311      214B5811 
 311      6217FE50 
 311      289719D4 
 311      2F56955F 
 312 0441 1F27F55F 		.ascii	"\037'\365_4\253\177\235g\3653^\002\201\310Ua\221\232"
 312      34AB7F9D 
 312      67F5335E 
 312      0281C855 
 312      61919A
 313 0454 9DE633D9 		.ascii	"\235\3463\331{A\347\2000r\357\366\037\341\256\340:\312"
 313      7B41E780 
 313      3072EFF6 
 313      1FE1AEE0 
 313      3ACA
 314 0466 F5357B25 		.ascii	"\3655{%\271\000\352k[\367\217\010\364\025\002m\0332"
 314      B900EA6B 
 314      5BF78F08 
 314      F415026D 
 314      1B32
 315 0478 D0C0E165 		.ascii	"\320\300\341e\343\020\210\270\255\300\355\312\3234o"
 315      E31088B8 
 315      ADC0EDCA 
 315      D3346F
 316 0487 D134CF6A 		.ascii	"\3214\317j\300\360<\352x_W[\201;`U\027\303N\201\345"
 316      C0F03CEA 
 316      785F575B 
 316      813B6055 
 316      17C34E81 
 317 049c C198736F 		.ascii	"\301\230so\314\343?oQ\273\306x\320\327\323T_\277C\351"
 317      CCE33F6F 
 317      51BBC678 
 317      D0D7D354 
 317      5FBF43E9 
 318 04b0 1CCB93CE 		.ascii	"\034\313\223\316W\036\305#p\247<\263\021d\331h\035\034"
 318      571EC523 
 318      70A73CB3 
 318      1164D968 
 318      1D1C
 319 04c2 021B6F6B 		.ascii	"\002\033okl\314F6>\374_`\343\274g6*Ml\3406v\276\266"
 319      6CCC4636 
 319      3EFC5F60 
 319      E3BC6736 
 319      2A4D6CE0 
 320 04da 027E939B 		.ascii	"\002~\223\233W8\214'\364\264\011\337dB\350\354\261\375"
 320      57388C27 
 320      F4B409DF 
 320      6442E8EC 
 320      B1FD
 321 04ec 7CB5565D 		.ascii	"|\265V]|\353\376\371~\323vOu\265\335\333kl\367\346\241"
 321      7CEBFEF9 
ARM GAS  /tmp/ccdWlSBO.s 			page 25


 321      7ED3764F 
 321      75B5DDDB 
 321      6B6CF7E6 
 322 0501 C82ED939 		.ascii	"\310.\3319\230\033\250L\337\201\021\252_\344\027 \314"
 322      981BA84C 
 322      DF8111AA 
 322      5FE41720 
 322      CC
 323 0512 D5A1C280 		.ascii	"\325\241\302\200\237\276\255\371i\027\002\335\314Sa"
 323      9FBEADF9 
 323      691702DD 
 323      CC5361
 324 0521 A94583A5 		.ascii	"\251E\203\245\254\006\241HF\272\206\023\344oi\015)\004"
 324      AC06A148 
 324      46BA8613 
 324      E46F690D 
 324      2904
 325 0533 B8FFF37E 		.ascii	"\270\377\363~\0027\253\204\247J\365\030\203\351\326"
 325      0237AB84 
 325      A74AF518 
 325      83E9D6
 326 0542 D3FA51A7 		.ascii	"\323\372Q\247\036?i\012j\273%\304\226\354\3626\375\224"
 326      1E3F690A 
 326      6ABB25C4 
 326      96ECF236 
 326      FD94
 327 0554 E4011241 		.ascii	"\344\001\022Au\335\"\334[\007\254\241\201e\353\266\332"
 327      75DD22DC 
 327      5B07ACA1 
 327      8165EBB6 
 327      DA
 328 0565 61D9D18F 		.ascii	"a\331\321\217\2176<\363O\250\356\225\002!gy\211U\335"
 328      8F363CF3 
 328      4FA8EE95 
 328      02216779 
 328      8955DD
 329 0578 AB78CBD6 		.ascii	"\253x\313\326\215T\230\23289\322\012\301\264\002n\274"
 329      8D54989A 
 329      3839D20A 
 329      C1B4026E 
 329      BC
 330 0589 5535745F 		.ascii	"U5t_\261\250a\353-\312m\200\252\241\330F\373q\035+\214"
 330      B1A861EB 
 330      2DCA6D80 
 330      AAA1D846 
 330      FB711D2B 
 331 059e 8C6471D8 		.ascii	"\214dq\330\337\013\226}\366\233\027\373g\322\250\210"
 331      DF0B967D 
 331      F69B17FB 
 331      67D2A888 
 332 05ae 3C2B3E53 		.ascii	"<+>S\364\235\011\251\363\302\332\241\235\310o\346\005"
 332      F49D09A9 
 332      F3C2DAA1 
 332      9DC86FE6 
 332      05
 333 05bf 8A6A172C 		.ascii	"\212j\027,\025\025O\366\264\3243\306\313\234\263[\237"
 333      15154FF6 
ARM GAS  /tmp/ccdWlSBO.s 			page 26


 333      B4D433C6 
 333      CB9CB35B 
 333      9F
 334 05d0 735E4159 		.ascii	"s^AY^\310S:\231D\030\245{r\272\317\015!\271\335\264"
 334      5EC8533A 
 334      994418A5 
 334      7B72BACF 
 334      0D21B9DD 
 335 05e5 582F27A3 		.ascii	"X/'\243z\321lT_\336\232\011\200Q\355^\255\031U1#Py\363"
 335      7AD16C54 
 335      5FDE9A09 
 335      8051ED5E 
 335      AD195531 
 336 05fd 5E062645 		.ascii	"^\006&E\034y\263\325\012\226\177\326\323J\317A6\273"
 336      1C79B3D5 
 336      0A967FD6 
 336      D34ACF41 
 336      36BB
 337 060f B2822B36 		.ascii	"\262\202+6V\260y\210V\000&\375\311\037y\204\323\366"
 337      56B07988 
 337      560026FD 
 337      C91F7984 
 337      D3F6
 338 0621 662F94F2 		.ascii	"f/\224\362,\234[-P\270\033\222W\301h\366\225=q\206\254"
 338      2C9C5B2D 
 338      50B81B92 
 338      57C168F6 
 338      953D7186 
 339 0636 98DB0572 		.ascii	"\230\333\005r\034\275\256\324jZ\232dL\246\225\023\243"
 339      1CBDAED4 
 339      6A5A9A64 
 339      4CA69513 
 339      A3
 340 0647 C86F15C8 		.ascii	"\310o\025\310f\355u\201\034\305\276\201\351[\202\351"
 340      66ED7581 
 340      1CC5BE81 
 340      E95B82E9 
 341 0657 40D6C92C 		.ascii	"@\326\311,\266\345\314B\344_\265\212\321\355\226\271"
 341      B6E5CC42 
 341      E45FB58A 
 341      D1ED96B9 
 342 0667 E8309BCC 		.ascii	"\3500\233\314\326\267\251\364\326\254o~\367~?\236.z"
 342      D6B7A9F4 
 342      D6AC6F7E 
 342      F77E3F9E 
 342      2E7A
 343 0679 381BDEBB 		.ascii	"8\033\336\273Kw\334\235\350\270o\345I\367Mk|\345\346"
 343      4B77DC9D 
 343      E8B86FE5 
 343      49F74D6B 
 343      7CE5E6
 344 068c A0B467A8 		.ascii	"\240\264g\250\254\030\027\004\315\245.\3668\3256R7\026"
 344      AC181704 
 344      CDA52EF6 
 344      38D53652 
 344      3716
 345 069e DAE3344C 		.ascii	"\332\3434L+z\332\252\257\\g\236\231\210+\327\037\321"
ARM GAS  /tmp/ccdWlSBO.s 			page 27


 345      2B7ADAAA 
 345      AF5C679E 
 345      99882BD7 
 345      1FD1
 346 06b0 D20E5964 		.ascii	"\322\016Yd\341\342\320\266\037\273\354\263\272\361\202"
 346      E1E2D0B6 
 346      1FBBECB3 
 346      BAF182
 347 06bf 56E3D076 		.ascii	"V\343\320v\237\0137n\311\276\312\274\370\320-p_a\013"
 347      9F0B376E 
 347      C9BECABC 
 347      F8D02D70 
 347      5F610B
 348 06d2 2C284F46 		.ascii	",(OF\205\373L\016\262\037\035\344\200\331) ft#\373Q"
 348      85FB4C0E 
 348      B21F1DE4 
 348      80D92920 
 348      667423FB 
 349 06e7 4EA608D3 		.ascii	"N\246\010\323\320a\355\215\223\376\016\351\232\025\317"
 349      D061ED8D 
 349      93FE0EE9 
 349      9A15CF
 350 06f6 6E2262F0 		.ascii	"n\"b\360\314\272l\311\266\037\301#\"\315F\247\005\\"
 350      CCBA6CC9 
 350      B61FC123 
 350      22CD46A7 
 350      055C
 351 0708 1037C619 		.ascii	"\0207\306\031ly\247.\334M\030\241\314v\2037\316\211"
 351      6C79A72E 
 351      DC4D18A1 
 351      CC768337 
 351      CE89
 352 071a D996EC96 		.ascii	"\331\226\354\226#K)\236\366~e\236g<\226\276c\235L<\267"
 352      234B299E 
 352      F67E659E 
 352      673C96BE 
 352      639D4C3C 
 353 072f C40DDC78 		.ascii	"\304\015\334x\327\272\317\275N\204\005\025O\262^\302"
 353      D7BACFBD 
 353      4E840515 
 353      4FB25EC2 
 354 073f F7545B30 		.ascii	"\367T[0\335\201\351\007\230~\204\351\307\230^\300t\000"
 354      DD81E907 
 354      987E84E9 
 354      C7985EC0 
 354      7400
 355 0751 D319388D 		.ascii	"\323\0318\215>\205\351\\L{0=\204\351\021L\217a\332\213"
 355      3E85E95C 
 355      4C7B303D 
 355      84E9114C 
 355      8F61DA8B 
 356 0765 E9093713 		.ascii	"\351\0117\023\256\313\030p%\177;\315=\352\323\215uE"
 356      AECB1870 
 356      257F3BCD 
 356      3DEAD38D 
 356      7545
 357 0777 80F5538E 		.ascii	"\200\365S\216\373.\267\206L\210\370\206w~\326\257\207"
ARM GAS  /tmp/ccdWlSBO.s 			page 28


 357      FB2EB786 
 357      4C88F886 
 357      777ED6AF 
 357      87
 358 0788 9C1042F2 		.ascii	"\234\020B\362#\035\240\361q\237\300\274*\326^\024go"
 358      231DA0F1 
 358      719FC0BC 
 358      2AD65E14 
 358      676F
 359 079a EC09B74F 		.ascii	"\354\011\267O\353\037\034\034\311\274$\326@\235\350"
 359      EB1F1C1C 
 359      C9BC24D6 
 359      409DE8
 360 07a9 3C2D6874 		.ascii	"<-ht\372\360\255\270\301\237N4\322\275\321B\367]\334"
 360      FAF0ADB8 
 360      C19F4E34 
 360      D2BDD142 
 360      F75DDC
 361 07bc 2A559DA7 		.ascii	"*U\235\247.\221&\352\013\356\016lqJ\260'\332\210\244"
 361      2E9126EA 
 361      0BEE0E6C 
 361      714AB027 
 361      DA88A4
 362 07cf 35       		.ascii	"5"
 363 07d0 76D52D1F 		.ascii	"v\325-\037\375|b\216U\247^\224\300\376|V3\375\331\371"
 363      FD7C628E 
 363      55A75E94 
 363      C0FE7C56 
 363      33FDD9F9 
 364 07e4 FBBDB37A 		.ascii	"\373\275\263z\306\312\352\331|Vw\331\263\372&aUk\376"
 364      C6CAEAD9 
 364      7C5677D9 
 364      B3FA2661 
 364      556BFE
 365 07f7 DF38C37D 		.ascii	"\3378\303}\344\310\352\331\002\254:\365\242\004\236"
 365      E4C8EAD9 
 365      02AC3AF5 
 365      A2049E
 366 0806 B565F5BA 		.ascii	"\265e\365\272\316\252\246,\201\353\263\247q\233\256"
 366      CEAAA62C 
 366      81EBB3A7 
 366      719BAE
 367 0815 0E700B81 		.ascii	"\016p\013\201\320xnH\352p\352Ei<oK\343\027\007\274\253"
 367      D0786E48 
 367      EA70EA45 
 367      693C6F4B 
 367      E31707BC 
 368 082a E353AB3A 		.ascii	"\343S\253:.\346\253\343\013{VO\020V/\242\345u\004I\213"
 368      2EE6ABE3 
 368      0B7B564F 
 368      10562FA2 
 368      E5750449 
 369 083f 8B8EAC5E 		.ascii	"\213\216\254^,\300\252S/J\340e\033'\203Hd\345\300\217"
 369      2CC0AA53 
 369      2F4AE065 
 369      1B278348 
 369      64E5C08F 
ARM GAS  /tmp/ccdWlSBO.s 			page 29


 370 0853 BA36AA33 		.ascii	"\2726\2523\236RoZ?\307p|YH\320\256\272p\264\255A\353"
 370      9E526F5A 
 370      3FC7707C 
 370      5948D0AE 
 370      BA70B4AD 
 371 0869 04A135BD 		.ascii	"\004\2415\275fC\311\372\376%\317\277\037]\254\356 \337"
 371      6643C9FA 
 371      FE25CFBF 
 371      1F5DACEE 
 371      20DF
 372 087b 850C56A9 		.ascii	"\205\014V\251\355\033\255\304\370C6\304\340\360\002"
 372      ED1BADC4 
 372      F84336C4 
 372      E0F002
 373 088a F76190CF 		.ascii	"\367a\220\317\301_\267s\014\246\300qVR\3173\244R\324"
 373      C15FB773 
 373      0CA6C071 
 373      5652CF33 
 373      A452D4
 374 089d CF109516 		.ascii	"\317\020\225\026\256\353C\320\362`nH\273\353\333\334"
 374      AEEB43D0 
 374      F2606E48 
 374      BBEBDBDC 
 375 08ad 0A22DE05 		.ascii	"\012\"\336\005\255\307\272\371yj\246\007\026g\330`\215"
 375      ADC7BAF9 
 375      796AA607 
 375      1667D860 
 375      8D
 376 08be B48BBC03 		.ascii	"\264\213\274\003:;)\316\364-H\333\277aH\324\352#\353"
 376      3A3B29CE 
 376      F42D48DB 
 376      BF6148D4 
 376      EA23EB
 377 08d1 F88C906D 		.ascii	"\370\214\220mH\344\014#p\355\330e\266//$:=\223\206D"
 377      48E40C23 
 377      70EDD865 
 377      B62F2F24 
 377      3A3D9386 
 378 08e6 E459F19D 		.ascii	"\344Y\361\235MG\237\343G,\375\306\236\341\016\023\345"
 378      4D479FE3 
 378      472CFDC6 
 378      9EE10E13 
 378      E5
 379 08f7 DBE6DC8F 		.ascii	"\333\346\334\217\224\317E\312\237-N9\013\003\333\035"
 379      94CF45CA 
 379      9F2D4E39 
 379      0B03DB1D 
 380 0907 ECD2914F 		.ascii	"\354\322\221O\371\205\337Q\312;\\Q\276\245\327\034\014"
 380      F985DF51 
 380      CA3B5C51 
 380      BEA5D71C 
 380      0C
 381 0918 E9BB32D2 		.ascii	"\351\2732\322wh\273\262\255\275\030\014m\305\203\316"
 381      7768BBB2 
 381      ADBD180C 
 381      6DC583CE 
 382 0928 77AC609E 		.ascii	"w\254`\236\366dj\366-\015L\373\316\340}\317`\325\014"
ARM GAS  /tmp/ccdWlSBO.s 			page 30


 382      F6646AF6 
 382      2D0D4CFB 
 382      CEE07DCF 
 382      60D50C
 383 093b 654716B1 		.ascii	"eG\026\261a\353\207n\360\012\274\031<\332k\274\031\204"
 383      61EB876E 
 383      F00ABC19 
 383      3CDA6BBC 
 383      1984
 384 094d 75C63318 		.ascii	"u\3063\030K\334\311^\323k\306M\206n\013\200\331\275"
 384      4BDCC95E 
 384      D36BC64D 
 384      866E0B80 
 384      D9BD
 385 095f 3FB3BBCC 		.ascii	"?\263\273\314F\"\362\235>\022T\315\367\221\320g\001"
 385      4622F29D 
 385      3E1254CD 
 385      F791D067 
 385      01
 386 0970 A60B315D 		.ascii	"\246\0131]\204i\027\246\213}L\270\275\315\360\021[S"
 386      846917A6 
 386      8B7D4CB8 
 386      BDCDF011 
 386      5B53
 387 0982 2C66126A 		.ascii	",f\022jv\261\263s0\307M\272o\274>\367\227\350\033\317"
 387      76B1B373 
 387      30C74DBA 
 387      6FBC3EF7 
 387      97E81BCF 
 388 0996 A16FEC2C 		.ascii	"\241o\354,\356\033\226C\253\023\330#\223\347\032\335"
 388      EE1B9643 
 388      AB13D823 
 388      93E71ADD 
 389 09a6 C775D7C8 		.ascii	"\307u\327\310\270p\215\226\354\251\205\356\316\3142"
 389      B8708D96 
 389      ECA985EE 
 389      CECC32
 390 09b5 863CBE65 		.ascii	"\206<\276e\342b\315\\\355;\2655\310\305\245\342\\\260"
 390      E262CD5C 
 390      ED3BB535 
 390      C8C5A5E2 
 390      5CB0
 391 09c7 3002A796 		.ascii	"0\002\247\226ah\235\317\306n\235\215\265\256\330xn\241"
 391      61689DCF 
 391      C66E9D8D 
 391      B5AED878 
 391      6EA1
 392 09d9 6EF7AB7D 		.ascii	"n\367\253}\271\355\332\332\302\326\345\250\316\226\354"
 392      B9EDDADA 
 392      C2D6E5A8 
 392      CE96EC
 393 09e8 B2E368AA 		.ascii	"\262\343h\252\032\330&\317`\254\335o8\276\264J\315\274"
 393      1AD826CF 
 393      60ACDD6F 
 393      38BEB44A 
 393      CDBC
 394 09fa A37F31A6 		.ascii	"\243\1771\246\316TG\255\315\211\244RG\020L\202\335t"
ARM GAS  /tmp/ccdWlSBO.s 			page 31


 394      CE5447AD 
 394      CD89A452 
 394      47104C82 
 394      DD74
 395 0a0c 4440C1FE 		.ascii	"D@\301\376\301G\352;\312l\337\320\271\000\352k\333\242"
 395      C147EA3B 
 395      CA6CDFD0 
 395      B900EA6B 
 395      DBA2
 396 0a1e 1D056F40 		.ascii	"\035\005o@\240%C\006\0328\274\356>\004z\015\201V[\200"
 396      A0254306 
 396      1A38BCEE 
 396      3E047A0D 
 396      81565B80 
 397 0a32 44DE6739 		.ascii	"D\336g9\244\360\261\207\024\276P.38\350\343\276\306"
 397      A4F0B187 
 397      14BE502E 
 397      3338E8E3 
 397      BEC6
 398 0a44 C602F78A 		.ascii	"\306\002\367\212aUv\034\025\233\222\3119\316\276\022"
 398      6155761C 
 398      159B92C9 
 398      39CEBE12 
 399 0a54 3CC761BC 		.ascii	"<\307a\274\302}H\364\206\317\022w<`\211\210\354:\352"
 399      C27D48F4 
 399      86CF1277 
 399      3C608988 
 399      EC3AEA
 400 0a67 AABF3C67 		.ascii	"\252\277<g\024\012\372u\037N\223\026A[\336\004\220\221"
 400      140AFA75 
 400      1F4E9316 
 400      415BDE04 
 400      9091
 401 0a79 9CA8D8EE 		.ascii	"\234\250\330\356+w\360\233\274g\002\267\335*2o\013\017"
 401      2B77F09B 
 401      BC6702B7 
 401      DD2A326F 
 401      0B0F
 402 0a8b 78EC9FD6 		.ascii	"x\354\237\326\350\247\371\270i\336\351\006\320n\345"
 402      E8A7F9B8 
 402      69DEE906 
 402      D06EE5
 403 0a9a B1BBCC53 		.ascii	"\261\273\314S\004l\232q~\177\011\347\361\2271]\207\351"
 403      046C9A71 
 403      7E7F09E7 
 403      F197315D 
 403      87E9
 404 0aac 564CB3E6 		.ascii	"VL\263\346\231\335I6\304\261\015lm\262\310\014y\262"
 404      99DD4936 
 404      C4B10D6C 
 404      6DB2C80C 
 404      79B2
 405 0abe B8943F59 		.ascii	"\270\224?Yx\001c\004\231\275B'\013\315\367E~\213\317"
 405      78016304 
 405      99BD4227 
 405      0BCDF745 
 405      7E8BCF
ARM GAS  /tmp/ccdWlSBO.s 			page 32


 406 0ad1 82E7CD96 		.ascii	"\202\347\315\226\263\363\027\205\017>\256O$\335e\274"
 406      B3F31785 
 406      0F3EAE4F 
 406      24DD65BC 
 407 0ae1 47B0CA42 		.ascii	"G\260\312BJ\311\230\224\262\022\225\262\012U\260\003"
 407      4AC99894 
 407      B21295B2 
 407      0A55B003 
 408 0af1 D39D98BE 		.ascii	"\323\235\230\276\313.\264\007\313,\013-\263\256\331"
 408      CB2EB407 
 408      CB2C0B2D 
 408      B3AED9
 409 0b00 2DFB66F1 		.ascii	"-\373f\361\250\331\365} k\327\307\211\027\346j\307\211"
 409      A8D9F57D 
 409      206BD7C7 
 409      8917E66A 
 409      C789
 410 0b12 3DB83EF5 		.ascii	"=\270>\365\226\331\256O\205\216\023?\306.{\363#\320"
 410      96D9AE4F 
 410      858E133F 
 410      C62E7BF3 
 410      23D0
 411 0b24 9BFAFAB4 		.ascii	"\233\372\372\264\267\370\3724czv\361\263\317\347\226"
 411      B7F8FA34 
 411      637A76F1 
 411      B3CFE796 
 412 0b34 D9E986FB 		.ascii	"\331\351\206\373\376\205\267\333\312h\302e\2766\272"
 412      FE85B7DB 
 412      CA68C265 
 412      BE36BA
 413 0b43 6AD0E1D1 		.ascii	"j\320\341\321D\355\025\267\327\244\270?\241\342\366"
 413      44ED15B7 
 413      D7A4B83F 
 413      A1E2F6
 414 0b52 B36A52CB 		.ascii	"\263jR\313-j\362x\374\370z\237\036qk\037\343\317\260"
 414      2D6AF278 
 414      FCF87A9F 
 414      1E716B1F 
 414      E3CFB0
 415 0b65 E265980F 		.ascii	"\342e\230\017\355\355\000\253\01310\333\304\3003\310"
 415      EDED00AB 
 415      0B3130DB 
 415      C4C033C8 
 416 0b75 C01CB4B6 		.ascii	"\300\034\264\266\245\230vcz\230e\251\255\\\327\276\355"
 416      A5987663 
 416      7A9865A9 
 416      AD5CD7BE 
 416      ED
 417 0b86 3E89A01E 		.ascii	">\211\240\036\365\031\333Q\262k[\237\355?s\256_\230"
 417      F519DB51 
 417      B26B5B9F 
 417      ED3F73AE 
 417      5F98
 418 0b98 46FE4541 		.ascii	"F\376EA\275\001\2336=\272\003\026y\323z\271\336\010"
 418      BD019B36 
 418      3DBA0316 
 418      79D37AB9 
ARM GAS  /tmp/ccdWlSBO.s 			page 33


 418      DE08
 419 0baa 6AC8B44F 		.ascii	"j\310\264Om\357\330\033\003U\344\\_\017\202\034\333"
 419      6DEFD81B 
 419      0355E45C 
 419      5F0F821C 
 419      DB
 420 0bbb 8B7C2F30 		.ascii	"\213|/0P\264\031ix\302b\207\331\023R\265V\353\342\355"
 420      50B41969 
 420      78C26287 
 420      D91352B5 
 420      56EBE2ED 
 421 0bcf E495A03A 		.ascii	"\344\225\240:3\374\015\256\035\031\030_\245}\356\346"
 421      33FC0DAE 
 421      1D19185F 
 421      A57DEEE6 
 422 0bdf 647CEFF9 		.ascii	"d|\357\371\276\2019\346\015$\266p\352q\312\227\373\244"
 422      BE8139E6 
 422      0D24B670 
 422      EA71CA97 
 422      FBA4
 423 0bf1 2E1CCA65 		.ascii	".\034\312e\364EO\340\266\240\002N\014y\232}\357\261"
 423      F4454FE0 
 423      B6A0024E 
 423      0C799A7D 
 423      EFB1
 424 0c03 AE31FA37 		.ascii	"\2561\3727K;\254Xv_\2200X\325\014\326i\023V\267g\254"
 424      4B3BAC58 
 424      765F9030 
 424      58D50CD6 
 424      691356B7 
 425 0c19 510CD625 		.ascii	"Q\014\326%q\355\030=\300\332g\305\262\233`\031\2541"
 425      71ED183D 
 425      C0DA67C5 
 425      B29B6019 
 425      AC31
 426 0c2b 0CD66726 		.ascii	"\014\326g&\272\216\272\241\253\300\314\377\205\011\353"
 426      BA8EBAA1 
 426      ABC0CCFF 
 426      8509EB
 427 0c3a 3DCF58CC 		.ascii	"=\317X\314\207C\331\253&\2543\236\261*\031\254k&\254"
 427      8743D9AB 
 427      26AC339E 
 427      B12A19AC 
 427      6B26AC
 428 0c4d 4B9EB1AA 		.ascii	"K\236\261\252\030\254\353&\254\001\317X\254M\3340aM"
 428      18ACEB26 
 428      AC01CF58 
 428      AC4DDC30 
 428      614D
 429 0c5f 0B7BC562 		.ascii	"\013{\305bm\342\246\011\353i\317X\254M\264\357._\377"
 429      6DE2A609 
 429      EB69CF58 
 429      AC4DB4EF 
 429      2E5FFF
 430 0c72 B80EB6C0 		.ascii	"\270\016\266\3003\3308\006l\236\031l\231\033\260\002"
 430      33D83806 
 430      6C9E196C 
ARM GAS  /tmp/ccdWlSBO.s 			page 34


 430      991BB002 
 431 0c82 A703F3CD 		.ascii	"\247\003\363\315`/y\006cMl\241\031l\223g0\326\306\272"
 431      602F7906 
 431      634D6CA1 
 431      196C9367 
 431      30D6C6BA 
 432 0c96 CC606F7B 		.ascii	"\314`o{\006c\215\354Y3X\217g0\326\312\226\232\301\216"
 432      06638DEC 
 432      5933588F 
 432      6730D6CA 
 432      969AC18E 
 433 0caa 7A061BC5 		.ascii	"z\006\033\305\261\227\276\010\236\304E\260\017\027\276"
 433      B197BE08 
 433      9EC445B0 
 433      0F17BE
 434 0cb9 3F63FA3E 		.ascii	"?c\372>\246\037bz\006\323\263\230~\202\351yL/`\372)"
 434      A61F627A 
 434      06D3B398 
 434      7E82E979 
 434      4C2F60FA 
 435 0cce A69731FD 		.ascii	"\246\2271\375\034\323+\230~\211\351\000\246\177\305"
 435      1CD32B98 
 435      7E89E900 
 435      A67FC5
 436 0cdd F42B4C07 		.ascii	"\364+L\007\331\205\365T\330\272\027\324V$\023\215\271"
 436      D985F554 
 436      D8BA17D4 
 436      5624138D 
 436      B9
 437 0cee 858BFBFF 		.ascii	"\205\213\373\377\242\362\254A\245\343\362\332\342\027"
 437      A2F2AC41 
 437      A5E3F2DA 
 437      E217
 438 0cfc B8BFE72E 		.ascii	"\270\277\347.\205\237S5\313\274\207{U\235\225\315\224"
 438      859F5335 
 438      CBBC877B 
 438      559D95CD 
 438      94
 439 0d0d 88FC71A4 		.ascii	"\210\374q\244\237\320\255\325\215\327VH\303)H\206,\247"
 439      9FD0ADD5 
 439      8DD75648 
 439      C3294886 
 439      2CA7
 440 0d1f 0D7A156F 		.ascii	"\015z\025oT\211z\225`T\305\364*\237Q\225\340\250DH\005"
 440      54897A95 
 440      6054C5F4 
 440      2A9F5195 
 440      E0A84448 
 441 0d34 BEEFD744 		.ascii	"\276\357\327DC\213\267S\031\221\"\2543\352x*-\372\330"
 441      438BB753 
 441      199122AC 
 441      33EA782A 
 441      2DFAD8
 442 0d47 4FC5468B 		.ascii	"O\305F\213\002\225\037-\376\204\012\222\026\203T\242"
 442      02951F2D 
 442      FE840A92 
 442      168354A2 
ARM GAS  /tmp/ccdWlSBO.s 			page 35


 443 0d57 B418A6A2 		.ascii	"\264\030\246\242\245\305J*cZ\374\026\0256-VQ\251\323"
 443      A5C54A2A 
 443      635AFC16 
 443      15362D56 
 443      51A9D3
 444 0d6a E21D54FC 		.ascii	"\342\035T\374\264XM\365@\213\272Bh\361\333T3&\016\007"
 444      B4584DF5 
 444      408BBA42 
 444      68F1DB54 
 444      33260E07 
 445 0d7e CD458EA3 		.ascii	"\315E\216\243\301IuW\005\023\234\214\323\365\024\240"
 445      C1497557 
 445      05139C8C 
 445      D3F514A0 
 446 0d8e 7A9AE9F7 		.ascii	"z\232\351\367\032\234\264\372\355\203\223Rj\036\226"
 446      1A9CB4FA 
 446      ED839352 
 446      6A1E96
 447 0d9d 5D75AB43 		.ascii	"]u\253C\214B\240f\371\215\260\234\274\256\310^\352\357"
 447      8C42A066 
 447      F98DB09C 
 447      BCAEC85E 
 447      EAEF
 448 0daf 3C77F957 		.ascii	"<w\371W/oTU|q2m\206\207W'\263\3756\357R\207\331\276"
 448      2F6F5455 
 448      7C71326D 
 448      86875727 
 448      B3FD36EF 
 449 0dc7 4B856BAD 		.ascii	"K\205k\255\352C4\322\376)\377H\326\303\236\366\347\275"
 449      EA4334D2 
 449      FE29FF48 
 449      D6C39EF6 
 449      E7BD
 450 0dd9 4901D2AE 		.ascii	"I\001\322\256\237\274R\242\377\207\355\235\332x0Q\273"
 450      9FBC52A2 
 450      FF87ED9D 
 450      DA783051 
 450      BB
 451 0dea 1A618E75 		.ascii	"\032a\216u\204\271\266#\364\235\377\244j \307\2741\310"
 451      84B9B623 
 451      F49DFFA4 
 451      6A20C7BC 
 451      31C8
 452 0dfc 596610FA 		.ascii	"Yf\020\372\246\344\3120\276\320\220\355\326!;l\207\354"
 452      A6E4CA30 
 452      BED090ED 
 452      D6213B6C 
 452      87EC
 453 0e0e 3C77A8DE 		.ascii	"<w\250\336,o}\310\351\025n\370Z`\035d\241\275\344\236"
 453      2C6F7DC8 
 453      E9156EF8 
 453      5A601D64 
 453      A1BDE49E 
 454 0e22 BD992FB9 		.ascii	"\275\231/\2716W#tYGX\354 \271C\213\370E\323\325\036"
 454      36572374 
 454      594758EC 
 454      20B9438B 
ARM GAS  /tmp/ccdWlSBO.s 			page 36


 454      F845D3D5 
 455 0e37 F5D2E0E0 		.ascii	"\365\322\340\340\360\314,A\037eIE\236\350D\2763\207"
 455      F0CC2C41 
 455      1F654945 
 455      9EE844BE 
 455      3387
 456 0e49 6137E612 		.ascii	"a7\346\022\353\230K\3311-\006>\267\200\201/\317\031"
 456      EB984BD9 
 456      312D063E 
 456      B780812F 
 456      CF19
 457 0e5b B8A51779 		.ascii	"\270\245\027y\323\347\324+\223\353E\266N\007\017\366"
 457      D3E7D42B 
 457      93EB45B6 
 457      4E070FF6 
 458 0e6b EFDAFC22 		.ascii	"\357\332\374\"?\253_m\007-\015\362f\3276mz\331o\315"
 458      3FAB5F6D 
 458      072D0DF2 
 458      66D7366D 
 458      7AD96FCD 
 459 0e7f 1C67006B 		.ascii	"\034g\000k3\221_\345y\012X\3550\005\230\377\0135\327"
 459      33915FE5 
 459      790A58ED 
 459      300598FF 
 459      0B35D7
 460 0e92 0A84BEB6 		.ascii	"\012\204\276\266\302\362\352\337J\205\300m\250\340i"
 460      C2F2EADF 
 460      4A85C06D 
 460      A8E069
 461 0ea1 3FF25FF3 		.ascii	"?\362_\363\026i]/ \255\027\034e|\272@\257\265\271^\337"
 461      16695D2F 
 461      20AD171C 
 461      657CBA40 
 461      AFB5B95E 
 462 0eb6 E39E279B 		.ascii	"\343\236'\233\272\345\207{\246\221\017\363,\037\364"
 462      BAE5877B 
 462      A6910FF3 
 462      2C1FF4
 463 0ec5 EACFD58D 		.ascii	"\352\317\325\215\231J\233\207\\\365\350\3215\332_2]"
 463      994A9B87 
 463      5CF5E8D1 
 463      35DA5F32 
 463      5D
 464 0ed6 232B3569 		.ascii	"#+5i9Z\023\255\227\245\272XZ\221\233GG\271\273,\015"
 464      395A13AD 
 464      97A5BA58 
 464      5A919B47 
 464      47B9BB2C 
 465 0eeb 628968BC 		.ascii	"b\211h\274\261V\202F\351\346\264\322\234\222\322\243"
 465      B1568246 
 465      E9E6B4D2 
 465      9C92D2A3 
 466 0efb EBB9A002 		.ascii	"\353\271\240\002]\304\332\210R\372\323\207\036\255\236"
 466      5DC4DA88 
 466      52FAD387 
 466      1EAD9E
 467 0f0a C085A2F5 		.ascii	"\300\205\242\365\021\255\312\212o\352\036\255\257\205"
ARM GAS  /tmp/ccdWlSBO.s 			page 37


 467      11ADCA8A 
 467      6FEA1EAD 
 467      AF85
 468 0f18 AEC3B576 		.ascii	"\256\303\265v\351\310o\032\245F)\242T\032]i\225?!MU"
 468      E9C86F1A 
 468      A54629A2 
 468      541A5D69 
 468      953F214D 
 469 0f2d FC29599A 		.ascii	"\374)Y\232R\202\345qf\304h\262\241!\231\250I%e%]\363"
 469      5282E571 
 469      66C468B2 
 469      A12199A8 
 469      49256525 
 470 0f43 E3871F9C 		.ascii	"\343\207\037\234\360\340TR\227\212\305%9]\363\323\011"
 470      F0E05452 
 470      978AC525 
 470      395DF3D3 
 470      09
 471 0f54 1360209D 		.ascii	"\023` \235\310\200\222\222c\311\210\362w5\215i\331 "
 471      C8809292 
 471      63C988F2 
 471      77358D69 
 471      D920
 472 0f66 242135C5 		.ascii	"$!5\305c\223j\322Jm,\241\020V\032\341\367_\3769\242"
 472      63936AD2 
 472      4A6D2CA1 
 472      10561AE1 
 472      F75FFE39 
 473 0f7b FCC0AE59 		.ascii	"\374\300\256Y\203\030\255\217%\244\232H\2554Yl\214+"
 473      8318AD8F 
 473      25A49A48 
 473      AD34596C 
 473      8C2B
 474 0f8d 111DBC2C 		.ascii	"\021\035\274,\022\321;\372\3110aBR$\232L(@\375"
 474      12D13BFA 
 474      C9306142 
 474      52249A4C 
 474      2840FD
 475 0fa0 F78B925C 		.ascii	"\367\213\222\\\037M\312\022\300\224c7\000\212*S\177"
 475      1F4DCA12 
 475      C0946337 
 475      008A2A53 
 475      7F
 476 0fb1 E0AE5764 		.ascii	"\340\256Wd\312\275\015\204n\320\231(7D\024A\036'\310"
 476      CABD0D84 
 476      6ED09928 
 476      37441441 
 476      1E27C8
 477 0fc4 F7F9E4B1 		.ascii	"\367\371\344\261c\340\036+\310\367\010\362\017\005\371"
 477      63E01E2B 
 477      C8F708F2 
 477      0F05F9
 478 0fd3 5E41FE57 		.ascii	"^A\376W!.\013\351\224\017\240K\200\035I.I\306k%\331"
 478      212E0BE9 
 478      940FA04B 
 478      801D492E 
 478      49C66B25 
ARM GAS  /tmp/ccdWlSBO.s 			page 38


 479 0fe8 1FAD1765 		.ascii	"\037\255\027e\177Bl\220\312\322\312\023b<V\227\210("
 479      7F426C90 
 479      CAD2CA13 
 479      623C5697 
 479      8828
 480 0ffa 28857BEF 		.ascii	"(\205{\357\211("
 480      8928
 481 1000 942F922D 		.ascii	"\224/\222-m\022'\211i)\250\244\025Q\001M\005\310\203"
 481      6D122789 
 481      6929A8A4 
 481      1551014D 
 481      05C883
 482 1013 711125A4 		.ascii	"q\021%\2445\201\\\011>\011(\015\311Zx^29.\326\245\003"
 482      35815C09 
 482      3E09280D 
 482      C95A785E 
 482      32392ED6 
 483 1029 8A2C4D4E 		.ascii	"\212,MN\203T\310OIC\272\016:RAAG\232+\225k\233\341Q"
 483      8354C84F 
 483      4943BA0E 
 483      3A524141 
 483      479A2B95 
 484 1041 509A1A53 		.ascii	"P\232\032S\242\320\271\264IIN\372u\3526jV\320U\222\245"
 484      A2D0B9B4 
 484      49494EFA 
 484      75EA366A 
 484      56D05592 
 485 1056 44948036 		.ascii	"D\224\2006)\212\234\012\244\245\204\002\035\302`,i\251"
 485      298A9C0A 
 485      A4A58402 
 485      1DC2602C 
 485      69A9
 486 1068 414CD583 		.ascii	"AL\325\203 F:\233\232D$T\022M\200\276|\220\002<T\245"
 486      20463A9B 
 486      9A442454 
 486      124D80BE 
 486      7C90023C 
 487 107e 82D0BBA1 		.ascii	"\202\320\273\241\021\024\344\334\263A\231Jz&\233\022"
 487      1114E4DC 
 487      B341994A 
 487      7A269B12 
 488 108e 921CC0B6 		.ascii	"\222\034\300\266D\016\012T\247\312\245)\204\0101\375"
 488      440E0A54 
 488      A7CAA529 
 488      840831FD 
 489 109e 0454494D 		.ascii	"\004TIM$\3037V\350\246\033\007\377\211(\303M\306Lj\002"
 489      24C33756 
 489      E8A61B07 
 489      FF8928C3 
 489      4DC64C6A 
 490 10b3 4D624C89 		.ascii	"MbL\211%\352\202@;\032sPJI\011\260\274\272\000@\222"
 490      25EA8240 
 490      3B1A7350 
 490      4A4909B0 
 490      BCBA0040 
 491 10c8 16A04631 		.ascii	"\026\240F1N\014\250\244!\225L\306\301\033\036\226\352"
 491      4E0CA8A4 
ARM GAS  /tmp/ccdWlSBO.s 			page 39


 491      21954CC6 
 491      C11B1E96 
 491      EA
 492 10d9 FE2326A7 		.ascii	"\376#&\247\225_ \316p\254x\010\214J+\013Jj\004m\223"
 492      955F20CE 
 492      70AC7808 
 492      8C4A2B0B 
 492      4A6A046D 
 493 10ee A8D5AAFE 		.ascii	"\250\325\252\376\275\371!PfU^\355\317\223 mI\276#\357"
 493      BDF92150 
 493      66555EED 
 493      CF93206D 
 493      49BE23EF 
 494 1102 C17F25E5 		.ascii	"\301\177%\345'\200\204\037CIh\022\377\301Q\030\224\023"
 494      2780841F 
 494      43496812 
 494      FFC15118 
 494      9413
 495 1114 1008C8FD 		.ascii	"\020\010\310\375\027\365\265\017Kq\011\014\302\301\237"
 495      17F5B50F 
 495      4B71090C 
 495      C2C19F
 496 1123 6480245E 		.ascii	"d\200$^\227H&\022\215\361x)\324D\033RP\004\230d\223"
 496      97482612 
 496      8DF17829 
 496      D4441B52 
 496      50049864 
 497 1138 1FBA4EF6 		.ascii	"\037\272N\366\247\032e\251\234\350\020\246\022\011l"
 497      A71A65A9 
 497      9CE810A6 
 497      12096C
 498 1147 3764E4C3 		.ascii	"7d\344\303d\250f*\306aP\235+\007\242\2152X\203R\"\223"
 498      64A8662A 
 498      C661509D 
 498      2B07A28D 
 498      32588352 
 499 115d D2882931 		.ascii	"\322\210)1Yi\024\343\021%\326\000>O{\334\016=l\036\014"
 499      596914E3 
 499      1125D600 
 499      3E4F7BDC 
 499      0E3D6C1E 
 500 1172 67EAB4C9 		.ascii	"g\352\264\311\206\251\012\221\321!C=`\354\275\206\007"
 500      86A90A91 
 500      D121433D 
 500      60ECBD86 
 500      07
 501 1183 906C49AD 		.ascii	"\220lI\255\024W\304\340\024erc\"\012&M~|)Q\016\306\305"
 501      1457C4E0 
 501      14657263 
 501      220A264D 
 501      7E7C2951 
 502 119a B442BA95 		.ascii	"\264B\272\225NQ\3100\025\224\237ZiRc\235f\005\346\232"
 502      4E51C830 
 502      15949F5A 
 502      6952639D 
 502      6605E69A 
 503 11ae 504A4CC4 		.ascii	"PJL\304\242\021\260\001_\355\244\272\262\006\021\340"
ARM GAS  /tmp/ccdWlSBO.s 			page 40


 503      A211B001 
 503      5FEDA4BA 
 503      B20611E0 
 504 11be 356546EB 		.ascii	"5eF\353\235\247[cN\206\311&V\013\374\307&\307\300{\237"
 504      9DA75B63 
 504      4E86C926 
 504      560BFCC7 
 504      26C7C07B 
 505 11d3 94E4A43F 		.ascii	"\224\344\244?\035{R\012L\001.c\311D \245\310\244\034"
 505      1D7B520A 
 505      4C012E63 
 505      C94420A5 
 505      C8A41C
 506 11e6 2404914C 		.ascii	"$\004\221L\031\325\033\251KN\236\034!\326\025 \031\230"
 506      19D51BA9 
 506      4B4E9E1C 
 506      21D61520 
 506      1998
 507 11f8 0842E417 		.ascii	"\010B\344\027'\003\314\341\204\200\215\310|\020&\031"
 507      2703CCE1 
 507      84808DC8 
 507      7C102619 
 508 1208 9813E2B1 		.ascii	"\230\023\342\261\206\230\022\322\012\340\337\230C\337"
 508      869812D2 
 508      0AE0DF98 
 508      43DF
 509 1216 C696C4AF 		.ascii	"\306\226\304\257\3135\\\011\234J\301J26(\223\012\200"
 509      CB355C09 
 509      9C4AC14A 
 509      32362893 
 509      0A80
 510 1228 381A662B 		.ascii	"8\032f+G\313\311ZQ\021G\353\025\005|\266\231\030\032"
 510      47CBC95A 
 510      511147EB 
 510      15057CB6 
 510      99181A
 511 123b 603CD29C 		.ascii	"`<\322\234\376\317d\364\211\020\316\214q\310\215\265"
 511      FECF64F4 
 511      8910CE8C 
 511      71C88DB5 
 512 124b 9917C11F 		.ascii	"\231\027\301\037j&<\370\310\317\036\311!4\244c\351H"
 512      6A263CF8 
 512      C8CF1EC9 
 512      2134A463 
 512      E948
 513 125d 5D340A28 		.ascii	"]4\012(\303\"\221\332XZ\234\024\227\"1\3717\303\304"
 513      C32291DA 
 513      585A9C14 
 513      972231F9 
 513      37C3C4
 514 1270 7893D89C 		.ascii	"x\223\330\234\206\271'\016Sy9\216\360h\202 k\263o#\346"
 514      86B9270E 
 514      5379398E 
 514      F0688220 
 514      6BB36F23 
 515 1285 C3918894 		.ascii	"\303\221\210\224\320\273\004#\021Tyd\230\236\031\375"
 515      D0BB0423 
ARM GAS  /tmp/ccdWlSBO.s 			page 41


 515      11547964 
 515      989E19FD 
 516 1295 C3FBC68C 		.ascii	"\303\373\306\214\375\037G:F\363"
 516      FD1F473A 
 516      46F3
 517              		.text
 518              		.section	.gnu.lto_.symtab.6c2c6828e09f013,"",%progbits
 519 0000 63685265 		.ascii	"chRegFirstThread\000\000\000\000\000\000\000\000\000"
 519      67466972 
 519      73745468 
 519      72656164 
 519      00000000 
 520 0019 000000A1 		.ascii	"\000\000\000\241\000\000\000chRegNextThread\000\000"
 520      00000063 
 520      68526567 
 520      4E657874 
 520      54687265 
 521 0031 00000000 		.ascii	"\000\000\000\000\000\000\000\000\000\000]\001\000\000"
 521      00000000 
 521      00005D01 
 521      0000
 522 003f 63685265 		.ascii	"chRegFindThreadByName\000\000\000\000\000\000\000\000"
 522      6746696E 
 522      64546872 
 522      65616442 
 522      794E616D 
 523 005c 00000000 		.ascii	"\000\000\000\000d\001\000\000chRegFindThreadByPoint"
 523      64010000 
 523      63685265 
 523      6746696E 
 523      64546872 
 524 007a 65720000 		.ascii	"er\000\000\000\000\000\000\000\000\000\000\000\000j"
 524      00000000 
 524      00000000 
 524      00006A
 525 0089 01000063 		.ascii	"\001\000\000chRegFindThreadByWorkingArea\000\000\000"
 525      68526567 
 525      46696E64 
 525      54687265 
 525      61644279 
 526 00ab 00000000 		.ascii	"\000\000\000\000\000\000\000\000\000n\001\000\000ch"
 526      00000000 
 526      006E0100 
 526      006368
 527 00ba 5F646562 		.ascii	"_debug\000\000\000\000\000\000\000\000\000\000\000\000"
 527      75670000 
 527      00000000 
 527      00000000 
 527      0000
 528 00cc D5010000 		.ascii	"\325\001\000\000ch\000\000\002\000\000\000\000\000\000"
 528      63680000 
 528      02000000 
 528      000000
 529 00db 00000086 		.ascii	"\000\000\000\206\001\000\000chThdRelease\000\000\002"
 529      01000063 
 529      68546864 
 529      52656C65 
ARM GAS  /tmp/ccdWlSBO.s 			page 42


 529      61736500 
 530 00f1 00000000 		.ascii	"\000\000\000\000\000\000\000\000\000u\001\000\000"
 530      00000000 
 530      00750100 
 530      00
 531              		.text
 532              		.section	.gnu.lto_.opts,"",%progbits
 533 0000 272D6D63 		.ascii	"'-mcpu=cortex-m0' '-mno-thumb-interwork' '-mthumb' "
 533      70753D63 
 533      6F727465 
 533      782D6D30 
 533      2720272D 
 534 0033 272D6767 		.ascii	"'-ggdb' '-O2' '-fomit-frame-pointer' '-falign-funct"
 534      64622720 
 534      272D4F32 
 534      2720272D 
 534      666F6D69 
 535 0066 696F6E73 		.ascii	"ions=16' '-ffunction-sections' '-fdata-sections' '-"
 535      3D313627 
 535      20272D66 
 535      66756E63 
 535      74696F6E 
 536 0099 666E6F2D 		.ascii	"fno-common' '-flto'\000"
 536      636F6D6D 
 536      6F6E2720 
 536      272D666C 
 536      746F2700 
 537              		.text
 538              		.cfi_sections	.debug_frame
 539              		.section	.text.chRegFirstThread,"ax",%progbits
 540              		.align	2
 541              		.p2align 4,,15
 542              		.global	chRegFirstThread
 543              		.code	16
 544              		.thumb_func
 545              		.type	chRegFirstThread, %function
 546              	chRegFirstThread:
 547              	.LFB149:
 548              		.file 1 "../../../os/rt/src/chregistry.c"
 549              		.loc 1 134 0
 550              		.cfi_startproc
 551              	.LBB71:
 552              	.LBB72:
 553              	.LBB73:
 554              	.LBB74:
 555              		.file 2 "../../../os/common/ext/CMSIS/include/cmsis_gcc.h"
 556              		.loc 2 71 0
 557              	@ 71 "../../../os/common/ext/CMSIS/include/cmsis_gcc.h" 1
 558 0000 72B6     		cpsid i
 559              	@ 0 "" 2
 560              		.code	16
 561              	.LBE74:
 562              	.LBE73:
 563              	.LBE72:
 564              	.LBE71:
 565              		.loc 1 138 0
 566 0002 044B     		ldr	r3, .L2
ARM GAS  /tmp/ccdWlSBO.s 			page 43


 567 0004 1869     		ldr	r0, [r3, #16]
 568              	.LVL0:
 569              		.loc 1 140 0
 570 0006 2223     		mov	r3, #34
 571 0008 C25C     		ldrb	r2, [r0, r3]
 572 000a 0132     		add	r2, r2, #1
 573 000c C254     		strb	r2, [r0, r3]
 574              	.LBB75:
 575              	.LBB76:
 576              	.LBB77:
 577              	.LBB78:
 578              	.LBB79:
 579              		.loc 2 60 0
 580              	@ 60 "../../../os/common/ext/CMSIS/include/cmsis_gcc.h" 1
 581 000e 62B6     		cpsie i
 582              	@ 0 "" 2
 583              		.code	16
 584              	.LBE79:
 585              	.LBE78:
 586              	.LBE77:
 587              	.LBE76:
 588              	.LBE75:
 589              		.loc 1 145 0
 590              		@ sp needed
 591 0010 7047     		bx	lr
 592              	.L3:
 593 0012 C046     		.align	2
 594              	.L2:
 595 0014 00000000 		.word	ch
 596              		.cfi_endproc
 597              	.LFE149:
 598              		.size	chRegFirstThread, .-chRegFirstThread
 599 0018 C046C046 		.section	.text.chRegNextThread,"ax",%progbits
 599      C046C046 
 600              		.align	2
 601              		.p2align 4,,15
 602              		.global	chRegNextThread
 603              		.code	16
 604              		.thumb_func
 605              		.type	chRegNextThread, %function
 606              	chRegNextThread:
 607              	.LFB150:
 608              		.loc 1 158 0
 609              		.cfi_startproc
 610              	.LVL1:
 611 0000 10B5     		push	{r4, lr}
 612              		.cfi_def_cfa_offset 8
 613              		.cfi_offset 4, -8
 614              		.cfi_offset 14, -4
 615              	.LBB80:
 616              	.LBB81:
 617              	.LBB82:
 618              	.LBB83:
 619              		.loc 2 71 0
 620              	@ 71 "../../../os/common/ext/CMSIS/include/cmsis_gcc.h" 1
 621 0002 72B6     		cpsid i
 622              	@ 0 "" 2
ARM GAS  /tmp/ccdWlSBO.s 			page 44


 623              		.code	16
 624              	.LBE83:
 625              	.LBE82:
 626              	.LBE81:
 627              	.LBE80:
 628              		.loc 1 164 0
 629 0004 074B     		ldr	r3, .L8
 630              		.loc 1 162 0
 631 0006 0469     		ldr	r4, [r0, #16]
 632              	.LVL2:
 633              		.loc 1 164 0
 634 0008 9C42     		cmp	r4, r3
 635 000a 08D0     		beq	.L6
 636              		.loc 1 171 0
 637 000c 2223     		mov	r3, #34
 638 000e E25C     		ldrb	r2, [r4, r3]
 639 0010 0132     		add	r2, r2, #1
 640 0012 E254     		strb	r2, [r4, r3]
 641              	.LVL3:
 642              	.L5:
 643              	.LBB84:
 644              	.LBB85:
 645              	.LBB86:
 646              	.LBB87:
 647              	.LBB88:
 648              		.loc 2 60 0
 649              	@ 60 "../../../os/common/ext/CMSIS/include/cmsis_gcc.h" 1
 650 0014 62B6     		cpsie i
 651              	@ 0 "" 2
 652              		.code	16
 653              	.LBE88:
 654              	.LBE87:
 655              	.LBE86:
 656              	.LBE85:
 657              	.LBE84:
 658              		.loc 1 176 0
 659 0016 FFF7FEFF 		bl	chThdRelease
 660              	.LVL4:
 661              		.loc 1 180 0
 662              		@ sp needed
 663 001a 201C     		mov	r0, r4
 664              	.LVL5:
 665 001c 10BD     		pop	{r4, pc}
 666              	.LVL6:
 667              	.L6:
 668              		.loc 1 166 0
 669 001e 0024     		mov	r4, #0
 670              	.LVL7:
 671 0020 F8E7     		b	.L5
 672              	.L9:
 673 0022 C046     		.align	2
 674              	.L8:
 675 0024 00000000 		.word	ch
 676              		.cfi_endproc
 677              	.LFE150:
 678              		.size	chRegNextThread, .-chRegNextThread
 679 0028 C046C046 		.section	.text.chRegFindThreadByName,"ax",%progbits
ARM GAS  /tmp/ccdWlSBO.s 			page 45


 679      C046C046 
 680              		.align	2
 681              		.p2align 4,,15
 682              		.global	chRegFindThreadByName
 683              		.code	16
 684              		.thumb_func
 685              		.type	chRegFindThreadByName, %function
 686              	chRegFindThreadByName:
 687              	.LFB151:
 688              		.loc 1 194 0
 689              		.cfi_startproc
 690              	.LVL8:
 691 0000 38B5     		push	{r3, r4, r5, lr}
 692              		.cfi_def_cfa_offset 16
 693              		.cfi_offset 3, -16
 694              		.cfi_offset 4, -12
 695              		.cfi_offset 5, -8
 696              		.cfi_offset 14, -4
 697              		.loc 1 194 0
 698 0002 051C     		mov	r5, r0
 699              	.LBB89:
 700              	.LBB90:
 701              	.LBB91:
 702              	.LBB92:
 703              	.LBB93:
 704              	.LBB94:
 705              		.loc 2 71 0
 706              	@ 71 "../../../os/common/ext/CMSIS/include/cmsis_gcc.h" 1
 707 0004 72B6     		cpsid i
 708              	@ 0 "" 2
 709              		.code	16
 710              	.LBE94:
 711              	.LBE93:
 712              	.LBE92:
 713              	.LBE91:
 714              		.loc 1 138 0
 715 0006 0B4B     		ldr	r3, .L17
 716 0008 1C69     		ldr	r4, [r3, #16]
 717              	.LVL9:
 718              		.loc 1 140 0
 719 000a 2223     		mov	r3, #34
 720 000c E25C     		ldrb	r2, [r4, r3]
 721 000e 0132     		add	r2, r2, #1
 722 0010 E254     		strb	r2, [r4, r3]
 723              	.LBB95:
 724              	.LBB96:
 725              	.LBB97:
 726              	.LBB98:
 727              	.LBB99:
 728              		.loc 2 60 0
 729              	@ 60 "../../../os/common/ext/CMSIS/include/cmsis_gcc.h" 1
 730 0012 62B6     		cpsie i
 731              	@ 0 "" 2
 732              		.code	16
 733 0014 04E0     		b	.L12
 734              	.LVL10:
 735              	.L16:
ARM GAS  /tmp/ccdWlSBO.s 			page 46


 736              	.LBE99:
 737              	.LBE98:
 738              	.LBE97:
 739              	.LBE96:
 740              	.LBE95:
 741              	.LBE90:
 742              	.LBE89:
 743              		.loc 1 203 0
 744 0016 201C     		mov	r0, r4
 745 0018 FFF7FEFF 		bl	chRegNextThread
 746              	.LVL11:
 747 001c 041E     		sub	r4, r0, #0
 748              	.LVL12:
 749              		.loc 1 204 0
 750 001e 07D0     		beq	.L15
 751              	.LVL13:
 752              	.L12:
 753              		.loc 1 200 0
 754 0020 A069     		ldr	r0, [r4, #24]
 755 0022 291C     		mov	r1, r5
 756 0024 FFF7FEFF 		bl	strcmp
 757              	.LVL14:
 758 0028 0028     		cmp	r0, #0
 759 002a F4D1     		bne	.L16
 760 002c 201C     		mov	r0, r4
 761              	.LVL15:
 762              	.L11:
 763              		.loc 1 207 0
 764              		@ sp needed
 765              	.LVL16:
 766              	.LVL17:
 767 002e 38BD     		pop	{r3, r4, r5, pc}
 768              	.LVL18:
 769              	.L15:
 770              		.loc 1 206 0
 771 0030 0020     		mov	r0, #0
 772              	.LVL19:
 773 0032 FCE7     		b	.L11
 774              	.L18:
 775              		.align	2
 776              	.L17:
 777 0034 00000000 		.word	ch
 778              		.cfi_endproc
 779              	.LFE151:
 780              		.size	chRegFindThreadByName, .-chRegFindThreadByName
 781 0038 C046C046 		.section	.text.chRegFindThreadByPointer,"ax",%progbits
 781      C046C046 
 782              		.align	2
 783              		.p2align 4,,15
 784              		.global	chRegFindThreadByPointer
 785              		.code	16
 786              		.thumb_func
 787              		.type	chRegFindThreadByPointer, %function
 788              	chRegFindThreadByPointer:
 789              	.LFB152:
 790              		.loc 1 221 0
 791              		.cfi_startproc
ARM GAS  /tmp/ccdWlSBO.s 			page 47


 792              	.LVL20:
 793 0000 10B5     		push	{r4, lr}
 794              		.cfi_def_cfa_offset 8
 795              		.cfi_offset 4, -8
 796              		.cfi_offset 14, -4
 797              		.loc 1 221 0
 798 0002 041C     		mov	r4, r0
 799              	.LBB100:
 800              	.LBB101:
 801              	.LBB102:
 802              	.LBB103:
 803              	.LBB104:
 804              	.LBB105:
 805              		.loc 2 71 0
 806              	@ 71 "../../../os/common/ext/CMSIS/include/cmsis_gcc.h" 1
 807 0004 72B6     		cpsid i
 808              	@ 0 "" 2
 809              		.code	16
 810              	.LBE105:
 811              	.LBE104:
 812              	.LBE103:
 813              	.LBE102:
 814              		.loc 1 138 0
 815 0006 094B     		ldr	r3, .L25
 816 0008 1869     		ldr	r0, [r3, #16]
 817              	.LVL21:
 818              		.loc 1 140 0
 819 000a 2223     		mov	r3, #34
 820 000c C25C     		ldrb	r2, [r0, r3]
 821 000e 0132     		add	r2, r2, #1
 822 0010 C254     		strb	r2, [r0, r3]
 823              	.LBB106:
 824              	.LBB107:
 825              	.LBB108:
 826              	.LBB109:
 827              	.LBB110:
 828              		.loc 2 60 0
 829              	@ 60 "../../../os/common/ext/CMSIS/include/cmsis_gcc.h" 1
 830 0012 62B6     		cpsie i
 831              	@ 0 "" 2
 832              	.LVL22:
 833              		.code	16
 834              	.LBE110:
 835              	.LBE109:
 836              	.LBE108:
 837              	.LBE107:
 838              	.LBE106:
 839              	.LBE101:
 840              	.LBE100:
 841              		.loc 1 227 0
 842 0014 8442     		cmp	r4, r0
 843 0016 02D1     		bne	.L21
 844 0018 06E0     		b	.L24
 845              	.LVL23:
 846              	.L22:
 847 001a 8442     		cmp	r4, r0
 848 001c 04D0     		beq	.L24
ARM GAS  /tmp/ccdWlSBO.s 			page 48


 849              	.L21:
 850              		.loc 1 230 0
 851 001e FFF7FEFF 		bl	chRegNextThread
 852              	.LVL24:
 853              		.loc 1 231 0
 854 0022 0028     		cmp	r0, #0
 855 0024 F9D1     		bne	.L22
 856              	.LVL25:
 857              	.L20:
 858              		.loc 1 234 0
 859              		@ sp needed
 860              	.LVL26:
 861 0026 10BD     		pop	{r4, pc}
 862              	.LVL27:
 863              	.L24:
 864              		.loc 1 230 0
 865 0028 201C     		mov	r0, r4
 866              	.LVL28:
 867 002a FCE7     		b	.L20
 868              	.L26:
 869              		.align	2
 870              	.L25:
 871 002c 00000000 		.word	ch
 872              		.cfi_endproc
 873              	.LFE152:
 874              		.size	chRegFindThreadByPointer, .-chRegFindThreadByPointer
 875              		.section	.text.chRegFindThreadByWorkingArea,"ax",%progbits
 876              		.align	2
 877              		.p2align 4,,15
 878              		.global	chRegFindThreadByWorkingArea
 879              		.code	16
 880              		.thumb_func
 881              		.type	chRegFindThreadByWorkingArea, %function
 882              	chRegFindThreadByWorkingArea:
 883              	.LFB153:
 884              		.loc 1 250 0
 885              		.cfi_startproc
 886              	.LVL29:
 887 0000 10B5     		push	{r4, lr}
 888              		.cfi_def_cfa_offset 8
 889              		.cfi_offset 4, -8
 890              		.cfi_offset 14, -4
 891              		.loc 1 250 0
 892 0002 041C     		mov	r4, r0
 893              	.LBB111:
 894              	.LBB112:
 895              	.LBB113:
 896              	.LBB114:
 897              	.LBB115:
 898              	.LBB116:
 899              		.loc 2 71 0
 900              	@ 71 "../../../os/common/ext/CMSIS/include/cmsis_gcc.h" 1
 901 0004 72B6     		cpsid i
 902              	@ 0 "" 2
 903              		.code	16
 904              	.LBE116:
 905              	.LBE115:
ARM GAS  /tmp/ccdWlSBO.s 			page 49


 906              	.LBE114:
 907              	.LBE113:
 908              		.loc 1 138 0
 909 0006 084B     		ldr	r3, .L33
 910 0008 1869     		ldr	r0, [r3, #16]
 911              	.LVL30:
 912              		.loc 1 140 0
 913 000a 2223     		mov	r3, #34
 914 000c C25C     		ldrb	r2, [r0, r3]
 915 000e 0132     		add	r2, r2, #1
 916 0010 C254     		strb	r2, [r0, r3]
 917              	.LBB117:
 918              	.LBB118:
 919              	.LBB119:
 920              	.LBB120:
 921              	.LBB121:
 922              		.loc 2 60 0
 923              	@ 60 "../../../os/common/ext/CMSIS/include/cmsis_gcc.h" 1
 924 0012 62B6     		cpsie i
 925              	@ 0 "" 2
 926              		.code	16
 927 0014 03E0     		b	.L29
 928              	.LVL31:
 929              	.L32:
 930              	.LBE121:
 931              	.LBE120:
 932              	.LBE119:
 933              	.LBE118:
 934              	.LBE117:
 935              	.LBE112:
 936              	.LBE111:
 937              		.loc 1 259 0
 938 0016 FFF7FEFF 		bl	chRegNextThread
 939              	.LVL32:
 940              		.loc 1 260 0
 941 001a 0028     		cmp	r0, #0
 942 001c 02D0     		beq	.L28
 943              	.LVL33:
 944              	.L29:
 945              		.loc 1 256 0
 946 001e C369     		ldr	r3, [r0, #28]
 947 0020 A342     		cmp	r3, r4
 948 0022 F8D1     		bne	.L32
 949              	.LVL34:
 950              	.L28:
 951              		.loc 1 263 0
 952              		@ sp needed
 953              	.LVL35:
 954 0024 10BD     		pop	{r4, pc}
 955              	.L34:
 956 0026 C046     		.align	2
 957              	.L33:
 958 0028 00000000 		.word	ch
 959              		.cfi_endproc
 960              	.LFE153:
 961              		.size	chRegFindThreadByWorkingArea, .-chRegFindThreadByWorkingArea
 962              		.global	ch_debug
ARM GAS  /tmp/ccdWlSBO.s 			page 50


 963 002c C046C046 		.section	.rodata.ch_debug,"a",%progbits
 964              		.align	2
 965              		.type	ch_debug, %object
 966              		.size	ch_debug, 22
 967              	ch_debug:
 968 0000 6D       		.byte	109
 969 0001 61       		.byte	97
 970 0002 69       		.byte	105
 971 0003 6E       		.byte	110
 972 0004 00       		.byte	0
 973 0005 16       		.byte	22
 974 0006 0020     		.short	8192
 975 0008 04       		.byte	4
 976 0009 02       		.byte	2
 977 000a 44       		.byte	68
 978 000b 08       		.byte	8
 979 000c 0C       		.byte	12
 980 000d 10       		.byte	16
 981 000e 14       		.byte	20
 982 000f 18       		.byte	24
 983 0010 1C       		.byte	28
 984 0011 20       		.byte	32
 985 0012 21       		.byte	33
 986 0013 22       		.byte	34
 987 0014 00       		.byte	0
 988 0015 00       		.byte	0
 989 0016 0000     		.text
 990              	.Letext0:
 991              		.file 3 "/usr/lib/gcc/arm-none-eabi/4.8/include/stddef.h"
 992              		.file 4 "/usr/include/newlib/machine/_default_types.h"
 993              		.file 5 "/usr/include/newlib/stdint.h"
 994              		.file 6 "../../../os/common/ports/ARMCMx/compilers/GCC/chtypes.h"
 995              		.file 7 "../../../os/rt/include/chsystypes.h"
 996              		.file 8 "../../../os/rt/include/chschd.h"
 997              		.file 9 "../../../os/common/ports/ARMCMx/chcore.h"
 998              		.file 10 "../../../os/common/ports/ARMCMx/chcore_v6m.h"
 999              		.file 11 "../../../os/rt/include/chsem.h"
 1000              		.file 12 "../../../os/rt/include/chmtx.h"
 1001              		.file 13 "../../../os/rt/include/chregistry.h"
 1002              		.file 14 "../../../os/rt/include/chthreads.h"
 1003              		.file 15 "../../../os/rt/include/chsys.h"
 1004              		.file 16 "/usr/include/newlib/string.h"
 1005              		.section	.debug_info,"",%progbits
 1006              	.Ldebug_info0:
 1007 0000 DB0B0000 		.4byte	0xbdb
 1008 0004 0400     		.2byte	0x4
 1009 0006 00000000 		.4byte	.Ldebug_abbrev0
 1010 000a 04       		.byte	0x4
 1011 000b 01       		.uleb128 0x1
 1012 000c 6D010000 		.4byte	.LASF123
 1013 0010 01       		.byte	0x1
 1014 0011 00010000 		.4byte	.LASF124
 1015 0015 F4050000 		.4byte	.LASF125
 1016 0019 00000000 		.4byte	.Ldebug_ranges0+0
 1017 001d 00000000 		.4byte	0
 1018 0021 00000000 		.4byte	.Ldebug_line0
 1019 0025 02       		.uleb128 0x2
ARM GAS  /tmp/ccdWlSBO.s 			page 51


 1020 0026 04       		.byte	0x4
 1021 0027 05       		.byte	0x5
 1022 0028 696E7400 		.ascii	"int\000"
 1023 002c 03       		.uleb128 0x3
 1024 002d 02030000 		.4byte	.LASF2
 1025 0031 03       		.byte	0x3
 1026 0032 D4       		.byte	0xd4
 1027 0033 37000000 		.4byte	0x37
 1028 0037 04       		.uleb128 0x4
 1029 0038 04       		.byte	0x4
 1030 0039 07       		.byte	0x7
 1031 003a 80000000 		.4byte	.LASF0
 1032 003e 04       		.uleb128 0x4
 1033 003f 01       		.byte	0x1
 1034 0040 06       		.byte	0x6
 1035 0041 98050000 		.4byte	.LASF1
 1036 0045 03       		.uleb128 0x3
 1037 0046 A9040000 		.4byte	.LASF3
 1038 004a 04       		.byte	0x4
 1039 004b 1D       		.byte	0x1d
 1040 004c 50000000 		.4byte	0x50
 1041 0050 04       		.uleb128 0x4
 1042 0051 01       		.byte	0x1
 1043 0052 08       		.byte	0x8
 1044 0053 38050000 		.4byte	.LASF4
 1045 0057 04       		.uleb128 0x4
 1046 0058 02       		.byte	0x2
 1047 0059 05       		.byte	0x5
 1048 005a 5B040000 		.4byte	.LASF5
 1049 005e 03       		.uleb128 0x3
 1050 005f 92020000 		.4byte	.LASF6
 1051 0063 04       		.byte	0x4
 1052 0064 2B       		.byte	0x2b
 1053 0065 69000000 		.4byte	0x69
 1054 0069 04       		.uleb128 0x4
 1055 006a 02       		.byte	0x2
 1056 006b 07       		.byte	0x7
 1057 006c AA050000 		.4byte	.LASF7
 1058 0070 03       		.uleb128 0x3
 1059 0071 A9000000 		.4byte	.LASF8
 1060 0075 04       		.byte	0x4
 1061 0076 3F       		.byte	0x3f
 1062 0077 7B000000 		.4byte	0x7b
 1063 007b 04       		.uleb128 0x4
 1064 007c 04       		.byte	0x4
 1065 007d 05       		.byte	0x5
 1066 007e 65040000 		.4byte	.LASF9
 1067 0082 03       		.uleb128 0x3
 1068 0083 46050000 		.4byte	.LASF10
 1069 0087 04       		.byte	0x4
 1070 0088 41       		.byte	0x41
 1071 0089 8D000000 		.4byte	0x8d
 1072 008d 04       		.uleb128 0x4
 1073 008e 04       		.byte	0x4
 1074 008f 07       		.byte	0x7
 1075 0090 E0040000 		.4byte	.LASF11
 1076 0094 04       		.uleb128 0x4
ARM GAS  /tmp/ccdWlSBO.s 			page 52


 1077 0095 08       		.byte	0x8
 1078 0096 05       		.byte	0x5
 1079 0097 DF030000 		.4byte	.LASF12
 1080 009b 03       		.uleb128 0x3
 1081 009c 27030000 		.4byte	.LASF13
 1082 00a0 04       		.byte	0x4
 1083 00a1 5B       		.byte	0x5b
 1084 00a2 A6000000 		.4byte	0xa6
 1085 00a6 04       		.uleb128 0x4
 1086 00a7 08       		.byte	0x8
 1087 00a8 07       		.byte	0x7
 1088 00a9 7B020000 		.4byte	.LASF14
 1089 00ad 04       		.uleb128 0x4
 1090 00ae 04       		.byte	0x4
 1091 00af 07       		.byte	0x7
 1092 00b0 CF040000 		.4byte	.LASF15
 1093 00b4 05       		.uleb128 0x5
 1094 00b5 04       		.byte	0x4
 1095 00b6 04       		.uleb128 0x4
 1096 00b7 01       		.byte	0x1
 1097 00b8 08       		.byte	0x8
 1098 00b9 68030000 		.4byte	.LASF16
 1099 00bd 06       		.uleb128 0x6
 1100 00be 04       		.byte	0x4
 1101 00bf C3000000 		.4byte	0xc3
 1102 00c3 07       		.uleb128 0x7
 1103 00c4 B6000000 		.4byte	0xb6
 1104 00c8 03       		.uleb128 0x3
 1105 00c9 9E030000 		.4byte	.LASF17
 1106 00cd 05       		.byte	0x5
 1107 00ce 2A       		.byte	0x2a
 1108 00cf 45000000 		.4byte	0x45
 1109 00d3 03       		.uleb128 0x3
 1110 00d4 3F040000 		.4byte	.LASF18
 1111 00d8 05       		.byte	0x5
 1112 00d9 36       		.byte	0x36
 1113 00da 5E000000 		.4byte	0x5e
 1114 00de 03       		.uleb128 0x3
 1115 00df 1B050000 		.4byte	.LASF19
 1116 00e3 05       		.byte	0x5
 1117 00e4 41       		.byte	0x41
 1118 00e5 70000000 		.4byte	0x70
 1119 00e9 03       		.uleb128 0x3
 1120 00ea 10020000 		.4byte	.LASF20
 1121 00ee 05       		.byte	0x5
 1122 00ef 42       		.byte	0x42
 1123 00f0 82000000 		.4byte	0x82
 1124 00f4 03       		.uleb128 0x3
 1125 00f5 9A040000 		.4byte	.LASF21
 1126 00f9 05       		.byte	0x5
 1127 00fa 4E       		.byte	0x4e
 1128 00fb 9B000000 		.4byte	0x9b
 1129 00ff 03       		.uleb128 0x3
 1130 0100 2C040000 		.4byte	.LASF22
 1131 0104 06       		.byte	0x6
 1132 0105 3C       		.byte	0x3c
 1133 0106 C8000000 		.4byte	0xc8
ARM GAS  /tmp/ccdWlSBO.s 			page 53


 1134 010a 03       		.uleb128 0x3
 1135 010b 87030000 		.4byte	.LASF23
 1136 010f 06       		.byte	0x6
 1137 0110 3D       		.byte	0x3d
 1138 0111 C8000000 		.4byte	0xc8
 1139 0115 03       		.uleb128 0x3
 1140 0116 D8040000 		.4byte	.LASF24
 1141 011a 06       		.byte	0x6
 1142 011b 3E       		.byte	0x3e
 1143 011c C8000000 		.4byte	0xc8
 1144 0120 03       		.uleb128 0x3
 1145 0121 45020000 		.4byte	.LASF25
 1146 0125 06       		.byte	0x6
 1147 0126 40       		.byte	0x40
 1148 0127 E9000000 		.4byte	0xe9
 1149 012b 03       		.uleb128 0x3
 1150 012c F2030000 		.4byte	.LASF26
 1151 0130 06       		.byte	0x6
 1152 0131 41       		.byte	0x41
 1153 0132 DE000000 		.4byte	0xde
 1154 0136 03       		.uleb128 0x3
 1155 0137 21020000 		.4byte	.LASF27
 1156 013b 06       		.byte	0x6
 1157 013c 43       		.byte	0x43
 1158 013d E9000000 		.4byte	0xe9
 1159 0141 03       		.uleb128 0x3
 1160 0142 9D020000 		.4byte	.LASF28
 1161 0146 06       		.byte	0x6
 1162 0147 45       		.byte	0x45
 1163 0148 DE000000 		.4byte	0xde
 1164 014c 03       		.uleb128 0x3
 1165 014d 3B000000 		.4byte	.LASF29
 1166 0151 07       		.byte	0x7
 1167 0152 35       		.byte	0x35
 1168 0153 D3000000 		.4byte	0xd3
 1169 0157 03       		.uleb128 0x3
 1170 0158 E5020000 		.4byte	.LASF30
 1171 015c 07       		.byte	0x7
 1172 015d 3F       		.byte	0x3f
 1173 015e 62010000 		.4byte	0x162
 1174 0162 08       		.uleb128 0x8
 1175 0163 AF030000 		.4byte	.LASF48
 1176 0167 44       		.byte	0x44
 1177 0168 08       		.byte	0x8
 1178 0169 9A       		.byte	0x9a
 1179 016a 40020000 		.4byte	0x240
 1180 016e 09       		.uleb128 0x9
 1181 016f 15050000 		.4byte	.LASF31
 1182 0173 08       		.byte	0x8
 1183 0174 9B       		.byte	0x9b
 1184 0175 75020000 		.4byte	0x275
 1185 0179 00       		.byte	0
 1186 017a 09       		.uleb128 0x9
 1187 017b 63030000 		.4byte	.LASF32
 1188 017f 08       		.byte	0x8
 1189 0180 9C       		.byte	0x9c
 1190 0181 20010000 		.4byte	0x120
ARM GAS  /tmp/ccdWlSBO.s 			page 54


 1191 0185 08       		.byte	0x8
 1192 0186 0A       		.uleb128 0xa
 1193 0187 63747800 		.ascii	"ctx\000"
 1194 018b 08       		.byte	0x8
 1195 018c 9D       		.byte	0x9d
 1196 018d 58040000 		.4byte	0x458
 1197 0191 0C       		.byte	0xc
 1198 0192 09       		.uleb128 0x9
 1199 0193 32050000 		.4byte	.LASF33
 1200 0197 08       		.byte	0x8
 1201 0198 9F       		.byte	0x9f
 1202 0199 4B020000 		.4byte	0x24b
 1203 019d 10       		.byte	0x10
 1204 019e 09       		.uleb128 0x9
 1205 019f EE050000 		.4byte	.LASF34
 1206 01a3 08       		.byte	0x8
 1207 01a4 A0       		.byte	0xa0
 1208 01a5 4B020000 		.4byte	0x24b
 1209 01a9 14       		.byte	0x14
 1210 01aa 09       		.uleb128 0x9
 1211 01ab B3040000 		.4byte	.LASF35
 1212 01af 08       		.byte	0x8
 1213 01b0 A7       		.byte	0xa7
 1214 01b1 BD000000 		.4byte	0xbd
 1215 01b5 18       		.byte	0x18
 1216 01b6 09       		.uleb128 0x9
 1217 01b7 80030000 		.4byte	.LASF36
 1218 01bb 08       		.byte	0x8
 1219 01bc B0       		.byte	0xb0
 1220 01bd B3050000 		.4byte	0x5b3
 1221 01c1 1C       		.byte	0x1c
 1222 01c2 09       		.uleb128 0x9
 1223 01c3 80050000 		.4byte	.LASF37
 1224 01c7 08       		.byte	0x8
 1225 01c8 B5       		.byte	0xb5
 1226 01c9 0A010000 		.4byte	0x10a
 1227 01cd 20       		.byte	0x20
 1228 01ce 09       		.uleb128 0x9
 1229 01cf 35000000 		.4byte	.LASF38
 1230 01d3 08       		.byte	0x8
 1231 01d4 B9       		.byte	0xb9
 1232 01d5 FF000000 		.4byte	0xff
 1233 01d9 21       		.byte	0x21
 1234 01da 09       		.uleb128 0x9
 1235 01db B3000000 		.4byte	.LASF39
 1236 01df 08       		.byte	0x8
 1237 01e0 BE       		.byte	0xbe
 1238 01e1 15010000 		.4byte	0x115
 1239 01e5 22       		.byte	0x22
 1240 01e6 0B       		.uleb128 0xb
 1241 01e7 7500     		.ascii	"u\000"
 1242 01e9 08       		.byte	0x8
 1243 01ea 0F01     		.2byte	0x10f
 1244 01ec E8040000 		.4byte	0x4e8
 1245 01f0 24       		.byte	0x24
 1246 01f1 0C       		.uleb128 0xc
 1247 01f2 51050000 		.4byte	.LASF40
ARM GAS  /tmp/ccdWlSBO.s 			page 55


 1248 01f6 08       		.byte	0x8
 1249 01f7 1401     		.2byte	0x114
 1250 01f9 51020000 		.4byte	0x251
 1251 01fd 28       		.byte	0x28
 1252 01fe 0C       		.uleb128 0xc
 1253 01ff A6030000 		.4byte	.LASF41
 1254 0203 08       		.byte	0x8
 1255 0204 1A01     		.2byte	0x11a
 1256 0206 75020000 		.4byte	0x275
 1257 020a 2C       		.byte	0x2c
 1258 020b 0C       		.uleb128 0xc
 1259 020c 77000000 		.4byte	.LASF42
 1260 0210 08       		.byte	0x8
 1261 0211 2001     		.2byte	0x120
 1262 0213 36010000 		.4byte	0x136
 1263 0217 34       		.byte	0x34
 1264 0218 0C       		.uleb128 0xc
 1265 0219 C6020000 		.4byte	.LASF43
 1266 021d 08       		.byte	0x8
 1267 021e 2701     		.2byte	0x127
 1268 0220 AD050000 		.4byte	0x5ad
 1269 0224 38       		.byte	0x38
 1270 0225 0C       		.uleb128 0xc
 1271 0226 45000000 		.4byte	.LASF44
 1272 022a 08       		.byte	0x8
 1273 022b 2B01     		.2byte	0x12b
 1274 022d 20010000 		.4byte	0x120
 1275 0231 3C       		.byte	0x3c
 1276 0232 0C       		.uleb128 0xc
 1277 0233 40060000 		.4byte	.LASF45
 1278 0237 08       		.byte	0x8
 1279 0238 3201     		.2byte	0x132
 1280 023a B4000000 		.4byte	0xb4
 1281 023e 40       		.byte	0x40
 1282 023f 00       		.byte	0
 1283 0240 03       		.uleb128 0x3
 1284 0241 6D030000 		.4byte	.LASF46
 1285 0245 07       		.byte	0x7
 1286 0246 44       		.byte	0x44
 1287 0247 4B020000 		.4byte	0x24b
 1288 024b 06       		.uleb128 0x6
 1289 024c 04       		.byte	0x4
 1290 024d 57010000 		.4byte	0x157
 1291 0251 03       		.uleb128 0x3
 1292 0252 9A000000 		.4byte	.LASF47
 1293 0256 07       		.byte	0x7
 1294 0257 49       		.byte	0x49
 1295 0258 5C020000 		.4byte	0x25c
 1296 025c 08       		.uleb128 0x8
 1297 025d 00000000 		.4byte	.LASF49
 1298 0261 04       		.byte	0x4
 1299 0262 08       		.byte	0x8
 1300 0263 88       		.byte	0x88
 1301 0264 75020000 		.4byte	0x275
 1302 0268 09       		.uleb128 0x9
 1303 0269 8D000000 		.4byte	.LASF50
 1304 026d 08       		.byte	0x8
ARM GAS  /tmp/ccdWlSBO.s 			page 56


 1305 026e 89       		.byte	0x89
 1306 026f 4B020000 		.4byte	0x24b
 1307 0273 00       		.byte	0
 1308 0274 00       		.byte	0
 1309 0275 03       		.uleb128 0x3
 1310 0276 B6020000 		.4byte	.LASF51
 1311 027a 07       		.byte	0x7
 1312 027b 50       		.byte	0x50
 1313 027c 80020000 		.4byte	0x280
 1314 0280 08       		.uleb128 0x8
 1315 0281 25010000 		.4byte	.LASF52
 1316 0285 08       		.byte	0x8
 1317 0286 08       		.byte	0x8
 1318 0287 8F       		.byte	0x8f
 1319 0288 A5020000 		.4byte	0x2a5
 1320 028c 09       		.uleb128 0x9
 1321 028d 8D000000 		.4byte	.LASF50
 1322 0291 08       		.byte	0x8
 1323 0292 90       		.byte	0x90
 1324 0293 4B020000 		.4byte	0x24b
 1325 0297 00       		.byte	0
 1326 0298 09       		.uleb128 0x9
 1327 0299 20010000 		.4byte	.LASF53
 1328 029d 08       		.byte	0x8
 1329 029e 91       		.byte	0x91
 1330 029f 4B020000 		.4byte	0x24b
 1331 02a3 04       		.byte	0x4
 1332 02a4 00       		.byte	0
 1333 02a5 03       		.uleb128 0x3
 1334 02a6 F2040000 		.4byte	.LASF54
 1335 02aa 07       		.byte	0x7
 1336 02ab 57       		.byte	0x57
 1337 02ac B0020000 		.4byte	0x2b0
 1338 02b0 0D       		.uleb128 0xd
 1339 02b1 E6000000 		.4byte	.LASF55
 1340 02b5 1C       		.byte	0x1c
 1341 02b6 08       		.byte	0x8
 1342 02b7 6A01     		.2byte	0x16a
 1343 02b9 0C030000 		.4byte	0x30c
 1344 02bd 0C       		.uleb128 0xc
 1345 02be 15050000 		.4byte	.LASF31
 1346 02c2 08       		.byte	0x8
 1347 02c3 6B01     		.2byte	0x16b
 1348 02c5 75020000 		.4byte	0x275
 1349 02c9 00       		.byte	0
 1350 02ca 0C       		.uleb128 0xc
 1351 02cb 63030000 		.4byte	.LASF32
 1352 02cf 08       		.byte	0x8
 1353 02d0 6C01     		.2byte	0x16c
 1354 02d2 20010000 		.4byte	0x120
 1355 02d6 08       		.byte	0x8
 1356 02d7 0B       		.uleb128 0xb
 1357 02d8 63747800 		.ascii	"ctx\000"
 1358 02dc 08       		.byte	0x8
 1359 02dd 6E01     		.2byte	0x16e
 1360 02df 58040000 		.4byte	0x458
 1361 02e3 0C       		.byte	0xc
ARM GAS  /tmp/ccdWlSBO.s 			page 57


 1362 02e4 0C       		.uleb128 0xc
 1363 02e5 32050000 		.4byte	.LASF33
 1364 02e9 08       		.byte	0x8
 1365 02ea 7101     		.2byte	0x171
 1366 02ec 4B020000 		.4byte	0x24b
 1367 02f0 10       		.byte	0x10
 1368 02f1 0C       		.uleb128 0xc
 1369 02f2 EE050000 		.4byte	.LASF34
 1370 02f6 08       		.byte	0x8
 1371 02f7 7201     		.2byte	0x172
 1372 02f9 4B020000 		.4byte	0x24b
 1373 02fd 14       		.byte	0x14
 1374 02fe 0C       		.uleb128 0xc
 1375 02ff D1050000 		.4byte	.LASF56
 1376 0303 08       		.byte	0x8
 1377 0304 7501     		.2byte	0x175
 1378 0306 4B020000 		.4byte	0x24b
 1379 030a 18       		.byte	0x18
 1380 030b 00       		.byte	0
 1381 030c 03       		.uleb128 0x3
 1382 030d 54010000 		.4byte	.LASF57
 1383 0311 07       		.byte	0x7
 1384 0312 5C       		.byte	0x5c
 1385 0313 17030000 		.4byte	0x317
 1386 0317 06       		.uleb128 0x6
 1387 0318 04       		.byte	0x4
 1388 0319 1D030000 		.4byte	0x31d
 1389 031d 0E       		.uleb128 0xe
 1390 031e 28030000 		.4byte	0x328
 1391 0322 0F       		.uleb128 0xf
 1392 0323 B4000000 		.4byte	0xb4
 1393 0327 00       		.byte	0
 1394 0328 03       		.uleb128 0x3
 1395 0329 F8030000 		.4byte	.LASF58
 1396 032d 07       		.byte	0x7
 1397 032e 61       		.byte	0x61
 1398 032f 33030000 		.4byte	0x333
 1399 0333 0D       		.uleb128 0xd
 1400 0334 4D020000 		.4byte	.LASF59
 1401 0338 14       		.byte	0x14
 1402 0339 08       		.byte	0x8
 1403 033a 4501     		.2byte	0x145
 1404 033c 82030000 		.4byte	0x382
 1405 0340 0C       		.uleb128 0xc
 1406 0341 8D000000 		.4byte	.LASF50
 1407 0345 08       		.byte	0x8
 1408 0346 4601     		.2byte	0x146
 1409 0348 B9050000 		.4byte	0x5b9
 1410 034c 00       		.byte	0
 1411 034d 0C       		.uleb128 0xc
 1412 034e 20010000 		.4byte	.LASF53
 1413 0352 08       		.byte	0x8
 1414 0353 4701     		.2byte	0x147
 1415 0355 B9050000 		.4byte	0x5b9
 1416 0359 04       		.byte	0x4
 1417 035a 0C       		.uleb128 0xc
 1418 035b A4050000 		.4byte	.LASF60
ARM GAS  /tmp/ccdWlSBO.s 			page 58


 1419 035f 08       		.byte	0x8
 1420 0360 4801     		.2byte	0x148
 1421 0362 4C010000 		.4byte	0x14c
 1422 0366 08       		.byte	0x8
 1423 0367 0C       		.uleb128 0xc
 1424 0368 F4000000 		.4byte	.LASF61
 1425 036c 08       		.byte	0x8
 1426 036d 4901     		.2byte	0x149
 1427 036f 0C030000 		.4byte	0x30c
 1428 0373 0C       		.byte	0xc
 1429 0374 0B       		.uleb128 0xb
 1430 0375 70617200 		.ascii	"par\000"
 1431 0379 08       		.byte	0x8
 1432 037a 4B01     		.2byte	0x14b
 1433 037c B4000000 		.4byte	0xb4
 1434 0380 10       		.byte	0x10
 1435 0381 00       		.byte	0
 1436 0382 03       		.uleb128 0x3
 1437 0383 59050000 		.4byte	.LASF62
 1438 0387 07       		.byte	0x7
 1439 0388 66       		.byte	0x66
 1440 0389 8D030000 		.4byte	0x38d
 1441 038d 0D       		.uleb128 0xd
 1442 038e CE020000 		.4byte	.LASF63
 1443 0392 0C       		.byte	0xc
 1444 0393 08       		.byte	0x8
 1445 0394 5501     		.2byte	0x155
 1446 0396 CF030000 		.4byte	0x3cf
 1447 039a 0C       		.uleb128 0xc
 1448 039b 8D000000 		.4byte	.LASF50
 1449 039f 08       		.byte	0x8
 1450 03a0 5601     		.2byte	0x156
 1451 03a2 B9050000 		.4byte	0x5b9
 1452 03a6 00       		.byte	0
 1453 03a7 0C       		.uleb128 0xc
 1454 03a8 20010000 		.4byte	.LASF53
 1455 03ac 08       		.byte	0x8
 1456 03ad 5801     		.2byte	0x158
 1457 03af B9050000 		.4byte	0x5b9
 1458 03b3 04       		.byte	0x4
 1459 03b4 0C       		.uleb128 0xc
 1460 03b5 A4050000 		.4byte	.LASF60
 1461 03b9 08       		.byte	0x8
 1462 03ba 5A01     		.2byte	0x15a
 1463 03bc 4C010000 		.4byte	0x14c
 1464 03c0 08       		.byte	0x8
 1465 03c1 0C       		.uleb128 0xc
 1466 03c2 91040000 		.4byte	.LASF64
 1467 03c6 08       		.byte	0x8
 1468 03c7 6201     		.2byte	0x162
 1469 03c9 4C010000 		.4byte	0x14c
 1470 03cd 0A       		.byte	0xa
 1471 03ce 00       		.byte	0
 1472 03cf 03       		.uleb128 0x3
 1473 03d0 C2030000 		.4byte	.LASF65
 1474 03d4 07       		.byte	0x7
 1475 03d5 6B       		.byte	0x6b
ARM GAS  /tmp/ccdWlSBO.s 			page 59


 1476 03d6 DA030000 		.4byte	0x3da
 1477 03da 0D       		.uleb128 0xd
 1478 03db 5D010000 		.4byte	.LASF66
 1479 03df 04       		.byte	0x4
 1480 03e0 08       		.byte	0x8
 1481 03e1 7C01     		.2byte	0x17c
 1482 03e3 F5030000 		.4byte	0x3f5
 1483 03e7 0C       		.uleb128 0xc
 1484 03e8 22040000 		.4byte	.LASF67
 1485 03ec 08       		.byte	0x8
 1486 03ed 8401     		.2byte	0x184
 1487 03ef BF050000 		.4byte	0x5bf
 1488 03f3 00       		.byte	0
 1489 03f4 00       		.byte	0
 1490 03f5 03       		.uleb128 0x3
 1491 03f6 86050000 		.4byte	.LASF68
 1492 03fa 07       		.byte	0x7
 1493 03fb 70       		.byte	0x70
 1494 03fc 00040000 		.4byte	0x400
 1495 0400 0D       		.uleb128 0xd
 1496 0401 87040000 		.4byte	.LASF69
 1497 0405 70       		.byte	0x70
 1498 0406 08       		.byte	0x8
 1499 0407 9C01     		.2byte	0x19c
 1500 0409 42040000 		.4byte	0x442
 1501 040d 0C       		.uleb128 0xc
 1502 040e A3040000 		.4byte	.LASF70
 1503 0412 08       		.byte	0x8
 1504 0413 A001     		.2byte	0x1a0
 1505 0415 A5020000 		.4byte	0x2a5
 1506 0419 00       		.byte	0
 1507 041a 0C       		.uleb128 0xc
 1508 041b D2000000 		.4byte	.LASF71
 1509 041f 08       		.byte	0x8
 1510 0420 A401     		.2byte	0x1a4
 1511 0422 82030000 		.4byte	0x382
 1512 0426 1C       		.byte	0x1c
 1513 0427 0B       		.uleb128 0xb
 1514 0428 64626700 		.ascii	"dbg\000"
 1515 042c 08       		.byte	0x8
 1516 042d A801     		.2byte	0x1a8
 1517 042f CF030000 		.4byte	0x3cf
 1518 0433 28       		.byte	0x28
 1519 0434 0C       		.uleb128 0xc
 1520 0435 34040000 		.4byte	.LASF72
 1521 0439 08       		.byte	0x8
 1522 043a AC01     		.2byte	0x1ac
 1523 043c 57010000 		.4byte	0x157
 1524 0440 2C       		.byte	0x2c
 1525 0441 00       		.byte	0
 1526 0442 03       		.uleb128 0x3
 1527 0443 20000000 		.4byte	.LASF73
 1528 0447 09       		.byte	0x9
 1529 0448 65       		.byte	0x65
 1530 0449 B4000000 		.4byte	0xb4
 1531 044d 03       		.uleb128 0x3
 1532 044e BD050000 		.4byte	.LASF74
ARM GAS  /tmp/ccdWlSBO.s 			page 60


 1533 0452 09       		.byte	0x9
 1534 0453 6D       		.byte	0x6d
 1535 0454 F4000000 		.4byte	0xf4
 1536 0458 08       		.uleb128 0x8
 1537 0459 D9000000 		.4byte	.LASF75
 1538 045d 04       		.byte	0x4
 1539 045e 09       		.byte	0x9
 1540 045f 89       		.byte	0x89
 1541 0460 70040000 		.4byte	0x470
 1542 0464 0A       		.uleb128 0xa
 1543 0465 737000   		.ascii	"sp\000"
 1544 0468 09       		.byte	0x9
 1545 0469 8A       		.byte	0x8a
 1546 046a E2040000 		.4byte	0x4e2
 1547 046e 00       		.byte	0
 1548 046f 00       		.byte	0
 1549 0470 08       		.uleb128 0x8
 1550 0471 6E040000 		.4byte	.LASF76
 1551 0475 24       		.byte	0x24
 1552 0476 0A       		.byte	0xa
 1553 0477 C3       		.byte	0xc3
 1554 0478 E2040000 		.4byte	0x4e2
 1555 047c 0A       		.uleb128 0xa
 1556 047d 723800   		.ascii	"r8\000"
 1557 0480 0A       		.byte	0xa
 1558 0481 C4       		.byte	0xc4
 1559 0482 42040000 		.4byte	0x442
 1560 0486 00       		.byte	0
 1561 0487 0A       		.uleb128 0xa
 1562 0488 723900   		.ascii	"r9\000"
 1563 048b 0A       		.byte	0xa
 1564 048c C5       		.byte	0xc5
 1565 048d 42040000 		.4byte	0x442
 1566 0491 04       		.byte	0x4
 1567 0492 0A       		.uleb128 0xa
 1568 0493 72313000 		.ascii	"r10\000"
 1569 0497 0A       		.byte	0xa
 1570 0498 C6       		.byte	0xc6
 1571 0499 42040000 		.4byte	0x442
 1572 049d 08       		.byte	0x8
 1573 049e 0A       		.uleb128 0xa
 1574 049f 72313100 		.ascii	"r11\000"
 1575 04a3 0A       		.byte	0xa
 1576 04a4 C7       		.byte	0xc7
 1577 04a5 42040000 		.4byte	0x442
 1578 04a9 0C       		.byte	0xc
 1579 04aa 0A       		.uleb128 0xa
 1580 04ab 723400   		.ascii	"r4\000"
 1581 04ae 0A       		.byte	0xa
 1582 04af C8       		.byte	0xc8
 1583 04b0 42040000 		.4byte	0x442
 1584 04b4 10       		.byte	0x10
 1585 04b5 0A       		.uleb128 0xa
 1586 04b6 723500   		.ascii	"r5\000"
 1587 04b9 0A       		.byte	0xa
 1588 04ba C9       		.byte	0xc9
 1589 04bb 42040000 		.4byte	0x442
ARM GAS  /tmp/ccdWlSBO.s 			page 61


 1590 04bf 14       		.byte	0x14
 1591 04c0 0A       		.uleb128 0xa
 1592 04c1 723600   		.ascii	"r6\000"
 1593 04c4 0A       		.byte	0xa
 1594 04c5 CA       		.byte	0xca
 1595 04c6 42040000 		.4byte	0x442
 1596 04ca 18       		.byte	0x18
 1597 04cb 0A       		.uleb128 0xa
 1598 04cc 723700   		.ascii	"r7\000"
 1599 04cf 0A       		.byte	0xa
 1600 04d0 CB       		.byte	0xcb
 1601 04d1 42040000 		.4byte	0x442
 1602 04d5 1C       		.byte	0x1c
 1603 04d6 0A       		.uleb128 0xa
 1604 04d7 6C7200   		.ascii	"lr\000"
 1605 04da 0A       		.byte	0xa
 1606 04db CC       		.byte	0xcc
 1607 04dc 42040000 		.4byte	0x442
 1608 04e0 20       		.byte	0x20
 1609 04e1 00       		.byte	0
 1610 04e2 06       		.uleb128 0x6
 1611 04e3 04       		.byte	0x4
 1612 04e4 70040000 		.4byte	0x470
 1613 04e8 10       		.uleb128 0x10
 1614 04e9 04       		.byte	0x4
 1615 04ea 08       		.byte	0x8
 1616 04eb D2       		.byte	0xd2
 1617 04ec 4B050000 		.4byte	0x54b
 1618 04f0 11       		.uleb128 0x11
 1619 04f1 09030000 		.4byte	.LASF77
 1620 04f5 08       		.byte	0x8
 1621 04f6 D9       		.byte	0xd9
 1622 04f7 2B010000 		.4byte	0x12b
 1623 04fb 11       		.uleb128 0x11
 1624 04fc 30060000 		.4byte	.LASF78
 1625 0500 08       		.byte	0x8
 1626 0501 E0       		.byte	0xe0
 1627 0502 2B010000 		.4byte	0x12b
 1628 0506 11       		.uleb128 0x11
 1629 0507 C1000000 		.4byte	.LASF79
 1630 050b 08       		.byte	0x8
 1631 050c E7       		.byte	0xe7
 1632 050d B4000000 		.4byte	0xb4
 1633 0511 11       		.uleb128 0x11
 1634 0512 92050000 		.4byte	.LASF80
 1635 0516 08       		.byte	0x8
 1636 0517 EE       		.byte	0xee
 1637 0518 4B050000 		.4byte	0x54b
 1638 051c 11       		.uleb128 0x11
 1639 051d 19020000 		.4byte	.LASF81
 1640 0521 08       		.byte	0x8
 1641 0522 F3       		.byte	0xf3
 1642 0523 2B010000 		.4byte	0x12b
 1643 0527 11       		.uleb128 0x11
 1644 0528 23050000 		.4byte	.LASF82
 1645 052c 08       		.byte	0x8
 1646 052d FC       		.byte	0xfc
ARM GAS  /tmp/ccdWlSBO.s 			page 62


 1647 052e 76050000 		.4byte	0x576
 1648 0532 12       		.uleb128 0x12
 1649 0533 19000000 		.4byte	.LASF83
 1650 0537 08       		.byte	0x8
 1651 0538 0501     		.2byte	0x105
 1652 053a AD050000 		.4byte	0x5ad
 1653 053e 12       		.uleb128 0x12
 1654 053f F9000000 		.4byte	.LASF84
 1655 0543 08       		.byte	0x8
 1656 0544 0D01     		.2byte	0x10d
 1657 0546 36010000 		.4byte	0x136
 1658 054a 00       		.byte	0
 1659 054b 06       		.uleb128 0x6
 1660 054c 04       		.byte	0x4
 1661 054d 40020000 		.4byte	0x240
 1662 0551 08       		.uleb128 0x8
 1663 0552 38020000 		.4byte	.LASF85
 1664 0556 0C       		.byte	0xc
 1665 0557 0B       		.byte	0xb
 1666 0558 34       		.byte	0x34
 1667 0559 76050000 		.4byte	0x576
 1668 055d 09       		.uleb128 0x9
 1669 055e 15050000 		.4byte	.LASF31
 1670 0562 0B       		.byte	0xb
 1671 0563 35       		.byte	0x35
 1672 0564 75020000 		.4byte	0x275
 1673 0568 00       		.byte	0
 1674 0569 0A       		.uleb128 0xa
 1675 056a 636E7400 		.ascii	"cnt\000"
 1676 056e 0B       		.byte	0xb
 1677 056f 37       		.byte	0x37
 1678 0570 41010000 		.4byte	0x141
 1679 0574 08       		.byte	0x8
 1680 0575 00       		.byte	0
 1681 0576 06       		.uleb128 0x6
 1682 0577 04       		.byte	0x4
 1683 0578 51050000 		.4byte	0x551
 1684 057c 08       		.uleb128 0x8
 1685 057d 1E030000 		.4byte	.LASF86
 1686 0581 10       		.byte	0x10
 1687 0582 0C       		.byte	0xc
 1688 0583 39       		.byte	0x39
 1689 0584 AD050000 		.4byte	0x5ad
 1690 0588 09       		.uleb128 0x9
 1691 0589 15050000 		.4byte	.LASF31
 1692 058d 0C       		.byte	0xc
 1693 058e 3A       		.byte	0x3a
 1694 058f 75020000 		.4byte	0x275
 1695 0593 00       		.byte	0
 1696 0594 09       		.uleb128 0x9
 1697 0595 B0020000 		.4byte	.LASF87
 1698 0599 0C       		.byte	0xc
 1699 059a 3C       		.byte	0x3c
 1700 059b 4B020000 		.4byte	0x24b
 1701 059f 08       		.byte	0x8
 1702 05a0 09       		.uleb128 0x9
 1703 05a1 8D000000 		.4byte	.LASF50
ARM GAS  /tmp/ccdWlSBO.s 			page 63


 1704 05a5 0C       		.byte	0xc
 1705 05a6 3E       		.byte	0x3e
 1706 05a7 CB060000 		.4byte	0x6cb
 1707 05ab 0C       		.byte	0xc
 1708 05ac 00       		.byte	0
 1709 05ad 06       		.uleb128 0x6
 1710 05ae 04       		.byte	0x4
 1711 05af 7C050000 		.4byte	0x57c
 1712 05b3 06       		.uleb128 0x6
 1713 05b4 04       		.byte	0x4
 1714 05b5 4D040000 		.4byte	0x44d
 1715 05b9 06       		.uleb128 0x6
 1716 05ba 04       		.byte	0x4
 1717 05bb 28030000 		.4byte	0x328
 1718 05bf 13       		.uleb128 0x13
 1719 05c0 BD000000 		.4byte	0xbd
 1720 05c4 14       		.uleb128 0x14
 1721 05c5 16       		.byte	0x16
 1722 05c6 0D       		.byte	0xd
 1723 05c7 34       		.byte	0x34
 1724 05c8 A5060000 		.4byte	0x6a5
 1725 05cc 09       		.uleb128 0x9
 1726 05cd B8040000 		.4byte	.LASF88
 1727 05d1 0D       		.byte	0xd
 1728 05d2 35       		.byte	0x35
 1729 05d3 A5060000 		.4byte	0x6a5
 1730 05d7 00       		.byte	0
 1731 05d8 09       		.uleb128 0x9
 1732 05d9 ED030000 		.4byte	.LASF89
 1733 05dd 0D       		.byte	0xd
 1734 05de 36       		.byte	0x36
 1735 05df C8000000 		.4byte	0xc8
 1736 05e3 04       		.byte	0x4
 1737 05e4 09       		.uleb128 0x9
 1738 05e5 08040000 		.4byte	.LASF90
 1739 05e9 0D       		.byte	0xd
 1740 05ea 37       		.byte	0x37
 1741 05eb C8000000 		.4byte	0xc8
 1742 05ef 05       		.byte	0x5
 1743 05f0 09       		.uleb128 0x9
 1744 05f1 92000000 		.4byte	.LASF91
 1745 05f5 0D       		.byte	0xd
 1746 05f6 38       		.byte	0x38
 1747 05f7 D3000000 		.4byte	0xd3
 1748 05fb 06       		.byte	0x6
 1749 05fc 09       		.uleb128 0x9
 1750 05fd 0D040000 		.4byte	.LASF92
 1751 0601 0D       		.byte	0xd
 1752 0602 39       		.byte	0x39
 1753 0603 C8000000 		.4byte	0xc8
 1754 0607 08       		.byte	0x8
 1755 0608 09       		.uleb128 0x9
 1756 0609 10000000 		.4byte	.LASF93
 1757 060d 0D       		.byte	0xd
 1758 060e 3A       		.byte	0x3a
 1759 060f C8000000 		.4byte	0xc8
 1760 0613 09       		.byte	0x9
ARM GAS  /tmp/ccdWlSBO.s 			page 64


 1761 0614 09       		.uleb128 0x9
 1762 0615 2D020000 		.4byte	.LASF94
 1763 0619 0D       		.byte	0xd
 1764 061a 3B       		.byte	0x3b
 1765 061b C8000000 		.4byte	0xc8
 1766 061f 0A       		.byte	0xa
 1767 0620 09       		.uleb128 0x9
 1768 0621 52040000 		.4byte	.LASF95
 1769 0625 0D       		.byte	0xd
 1770 0626 3C       		.byte	0x3c
 1771 0627 C8000000 		.4byte	0xc8
 1772 062b 0B       		.byte	0xb
 1773 062c 09       		.uleb128 0x9
 1774 062d 47030000 		.4byte	.LASF96
 1775 0631 0D       		.byte	0xd
 1776 0632 3D       		.byte	0x3d
 1777 0633 C8000000 		.4byte	0xc8
 1778 0637 0C       		.byte	0xc
 1779 0638 09       		.uleb128 0x9
 1780 0639 4A010000 		.4byte	.LASF97
 1781 063d 0D       		.byte	0xd
 1782 063e 3E       		.byte	0x3e
 1783 063f C8000000 		.4byte	0xc8
 1784 0643 0D       		.byte	0xd
 1785 0644 09       		.uleb128 0x9
 1786 0645 EE020000 		.4byte	.LASF98
 1787 0649 0D       		.byte	0xd
 1788 064a 3F       		.byte	0x3f
 1789 064b C8000000 		.4byte	0xc8
 1790 064f 0E       		.byte	0xe
 1791 0650 09       		.uleb128 0x9
 1792 0651 B9030000 		.4byte	.LASF99
 1793 0655 0D       		.byte	0xd
 1794 0656 40       		.byte	0x40
 1795 0657 C8000000 		.4byte	0xc8
 1796 065b 0F       		.byte	0xf
 1797 065c 09       		.uleb128 0x9
 1798 065d A3020000 		.4byte	.LASF100
 1799 0661 0D       		.byte	0xd
 1800 0662 41       		.byte	0x41
 1801 0663 C8000000 		.4byte	0xc8
 1802 0667 10       		.byte	0x10
 1803 0668 09       		.uleb128 0x9
 1804 0669 F8020000 		.4byte	.LASF101
 1805 066d 0D       		.byte	0xd
 1806 066e 42       		.byte	0x42
 1807 066f C8000000 		.4byte	0xc8
 1808 0673 11       		.byte	0x11
 1809 0674 09       		.uleb128 0x9
 1810 0675 59030000 		.4byte	.LASF102
 1811 0679 0D       		.byte	0xd
 1812 067a 43       		.byte	0x43
 1813 067b C8000000 		.4byte	0xc8
 1814 067f 12       		.byte	0x12
 1815 0680 09       		.uleb128 0x9
 1816 0681 C8050000 		.4byte	.LASF103
 1817 0685 0D       		.byte	0xd
ARM GAS  /tmp/ccdWlSBO.s 			page 65


 1818 0686 44       		.byte	0x44
 1819 0687 C8000000 		.4byte	0xc8
 1820 068b 13       		.byte	0x13
 1821 068c 09       		.uleb128 0x9
 1822 068d C3040000 		.4byte	.LASF104
 1823 0691 0D       		.byte	0xd
 1824 0692 45       		.byte	0x45
 1825 0693 C8000000 		.4byte	0xc8
 1826 0697 14       		.byte	0x14
 1827 0698 09       		.uleb128 0x9
 1828 0699 B8000000 		.4byte	.LASF105
 1829 069d 0D       		.byte	0xd
 1830 069e 46       		.byte	0x46
 1831 069f C8000000 		.4byte	0xc8
 1832 06a3 15       		.byte	0x15
 1833 06a4 00       		.byte	0
 1834 06a5 15       		.uleb128 0x15
 1835 06a6 B6000000 		.4byte	0xb6
 1836 06aa B5060000 		.4byte	0x6b5
 1837 06ae 16       		.uleb128 0x16
 1838 06af AD000000 		.4byte	0xad
 1839 06b3 03       		.byte	0x3
 1840 06b4 00       		.byte	0
 1841 06b5 03       		.uleb128 0x3
 1842 06b6 48040000 		.4byte	.LASF106
 1843 06ba 0D       		.byte	0xd
 1844 06bb 47       		.byte	0x47
 1845 06bc C4050000 		.4byte	0x5c4
 1846 06c0 03       		.uleb128 0x3
 1847 06c1 2A050000 		.4byte	.LASF107
 1848 06c5 0C       		.byte	0xc
 1849 06c6 34       		.byte	0x34
 1850 06c7 7C050000 		.4byte	0x57c
 1851 06cb 06       		.uleb128 0x6
 1852 06cc 04       		.byte	0x4
 1853 06cd C0060000 		.4byte	0x6c0
 1854 06d1 17       		.uleb128 0x17
 1855 06d2 10030000 		.4byte	.LASF108
 1856 06d6 02       		.byte	0x2
 1857 06d7 45       		.byte	0x45
 1858 06d8 03       		.byte	0x3
 1859 06d9 17       		.uleb128 0x17
 1860 06da 7A040000 		.4byte	.LASF109
 1861 06de 02       		.byte	0x2
 1862 06df 3A       		.byte	0x3a
 1863 06e0 03       		.byte	0x3
 1864 06e1 18       		.uleb128 0x18
 1865 06e2 C8000000 		.4byte	.LASF110
 1866 06e6 0A       		.byte	0xa
 1867 06e7 7301     		.2byte	0x173
 1868 06e9 03       		.byte	0x3
 1869 06ea 18       		.uleb128 0x18
 1870 06eb E2050000 		.4byte	.LASF111
 1871 06ef 0A       		.byte	0xa
 1872 06f0 7C01     		.2byte	0x17c
 1873 06f2 03       		.byte	0x3
 1874 06f3 19       		.uleb128 0x19
ARM GAS  /tmp/ccdWlSBO.s 			page 66


 1875 06f4 32030000 		.4byte	.LASF112
 1876 06f8 0E       		.byte	0xe
 1877 06f9 4001     		.2byte	0x140
 1878 06fb B3050000 		.4byte	0x5b3
 1879 06ff 03       		.byte	0x3
 1880 0700 10070000 		.4byte	0x710
 1881 0704 1A       		.uleb128 0x1a
 1882 0705 747000   		.ascii	"tp\000"
 1883 0708 0E       		.byte	0xe
 1884 0709 4001     		.2byte	0x140
 1885 070b 4B020000 		.4byte	0x24b
 1886 070f 00       		.byte	0
 1887 0710 1B       		.uleb128 0x1b
 1888 0711 36010000 		.4byte	.LASF113
 1889 0715 0D       		.byte	0xd
 1890 0716 99       		.byte	0x99
 1891 0717 BD000000 		.4byte	0xbd
 1892 071b 03       		.byte	0x3
 1893 071c 2B070000 		.4byte	0x72b
 1894 0720 1C       		.uleb128 0x1c
 1895 0721 747000   		.ascii	"tp\000"
 1896 0724 0D       		.byte	0xd
 1897 0725 99       		.byte	0x99
 1898 0726 4B020000 		.4byte	0x24b
 1899 072a 00       		.byte	0
 1900 072b 18       		.uleb128 0x18
 1901 072c 4F030000 		.4byte	.LASF114
 1902 0730 0F       		.byte	0xf
 1903 0731 7601     		.2byte	0x176
 1904 0733 03       		.byte	0x3
 1905 0734 1D       		.uleb128 0x1d
 1906 0735 29000000 		.4byte	.LASF126
 1907 0739 0F       		.byte	0xf
 1908 073a 8201     		.2byte	0x182
 1909 073c 03       		.byte	0x3
 1910 073d 4F070000 		.4byte	0x74f
 1911 0741 1E       		.uleb128 0x1e
 1912 0742 D1030000 		.4byte	.LASF115
 1913 0746 5F070000 		.4byte	0x75f
 1914 074a 29000000 		.4byte	.LASF126
 1915 074e 00       		.byte	0
 1916 074f 15       		.uleb128 0x15
 1917 0750 B6000000 		.4byte	0xb6
 1918 0754 5F070000 		.4byte	0x75f
 1919 0758 16       		.uleb128 0x16
 1920 0759 AD000000 		.4byte	0xad
 1921 075d 0B       		.byte	0xb
 1922 075e 00       		.byte	0
 1923 075f 07       		.uleb128 0x7
 1924 0760 4F070000 		.4byte	0x74f
 1925 0764 1F       		.uleb128 0x1f
 1926 0765 6F050000 		.4byte	.LASF127
 1927 0769 01       		.byte	0x1
 1928 076a 86       		.byte	0x86
 1929 076b 4B020000 		.4byte	0x24b
 1930 076f 01       		.byte	0x1
 1931 0770 7F070000 		.4byte	0x77f
ARM GAS  /tmp/ccdWlSBO.s 			page 67


 1932 0774 20       		.uleb128 0x20
 1933 0775 747000   		.ascii	"tp\000"
 1934 0778 01       		.byte	0x1
 1935 0779 87       		.byte	0x87
 1936 077a 4B020000 		.4byte	0x24b
 1937 077e 00       		.byte	0
 1938 077f 21       		.uleb128 0x21
 1939 0780 64070000 		.4byte	0x764
 1940 0784 00000000 		.4byte	.LFB149
 1941 0788 18000000 		.4byte	.LFE149-.LFB149
 1942 078c 01       		.uleb128 0x1
 1943 078d 9C       		.byte	0x9c
 1944 078e 0F080000 		.4byte	0x80f
 1945 0792 22       		.uleb128 0x22
 1946 0793 74070000 		.4byte	0x774
 1947 0797 01       		.uleb128 0x1
 1948 0798 50       		.byte	0x50
 1949 0799 23       		.uleb128 0x23
 1950 079a 2B070000 		.4byte	0x72b
 1951 079e 00000000 		.4byte	.LBB71
 1952 07a2 02000000 		.4byte	.LBE71-.LBB71
 1953 07a6 01       		.byte	0x1
 1954 07a7 89       		.byte	0x89
 1955 07a8 CE070000 		.4byte	0x7ce
 1956 07ac 24       		.uleb128 0x24
 1957 07ad E1060000 		.4byte	0x6e1
 1958 07b1 00000000 		.4byte	.LBB72
 1959 07b5 02000000 		.4byte	.LBE72-.LBB72
 1960 07b9 0F       		.byte	0xf
 1961 07ba 7801     		.2byte	0x178
 1962 07bc 25       		.uleb128 0x25
 1963 07bd D1060000 		.4byte	0x6d1
 1964 07c1 00000000 		.4byte	.LBB73
 1965 07c5 02000000 		.4byte	.LBE73-.LBB73
 1966 07c9 0A       		.byte	0xa
 1967 07ca 7501     		.2byte	0x175
 1968 07cc 00       		.byte	0
 1969 07cd 00       		.byte	0
 1970 07ce 26       		.uleb128 0x26
 1971 07cf 34070000 		.4byte	0x734
 1972 07d3 0E000000 		.4byte	.LBB75
 1973 07d7 02000000 		.4byte	.LBE75-.LBB75
 1974 07db 01       		.byte	0x1
 1975 07dc 8E       		.byte	0x8e
 1976 07dd 27       		.uleb128 0x27
 1977 07de 0E000000 		.4byte	.LBB76
 1978 07e2 02000000 		.4byte	.LBE76-.LBB76
 1979 07e6 28       		.uleb128 0x28
 1980 07e7 41070000 		.4byte	0x741
 1981 07eb 24       		.uleb128 0x24
 1982 07ec EA060000 		.4byte	0x6ea
 1983 07f0 0E000000 		.4byte	.LBB77
 1984 07f4 02000000 		.4byte	.LBE77-.LBB77
 1985 07f8 0F       		.byte	0xf
 1986 07f9 8F01     		.2byte	0x18f
 1987 07fb 25       		.uleb128 0x25
 1988 07fc D9060000 		.4byte	0x6d9
ARM GAS  /tmp/ccdWlSBO.s 			page 68


 1989 0800 0E000000 		.4byte	.LBB78
 1990 0804 02000000 		.4byte	.LBE78-.LBB78
 1991 0808 0A       		.byte	0xa
 1992 0809 7E01     		.2byte	0x17e
 1993 080b 00       		.byte	0
 1994 080c 00       		.byte	0
 1995 080d 00       		.byte	0
 1996 080e 00       		.byte	0
 1997 080f 29       		.uleb128 0x29
 1998 0810 4E000000 		.4byte	.LASF116
 1999 0814 01       		.byte	0x1
 2000 0815 9E       		.byte	0x9e
 2001 0816 4B020000 		.4byte	0x24b
 2002 081a 00000000 		.4byte	.LFB150
 2003 081e 28000000 		.4byte	.LFE150-.LFB150
 2004 0822 01       		.uleb128 0x1
 2005 0823 9C       		.byte	0x9c
 2006 0824 D1080000 		.4byte	0x8d1
 2007 0828 2A       		.uleb128 0x2a
 2008 0829 747000   		.ascii	"tp\000"
 2009 082c 01       		.byte	0x1
 2010 082d 9E       		.byte	0x9e
 2011 082e 4B020000 		.4byte	0x24b
 2012 0832 00000000 		.4byte	.LLST0
 2013 0836 2B       		.uleb128 0x2b
 2014 0837 6E747000 		.ascii	"ntp\000"
 2015 083b 01       		.byte	0x1
 2016 083c 9F       		.byte	0x9f
 2017 083d 4B020000 		.4byte	0x24b
 2018 0841 2C000000 		.4byte	.LLST1
 2019 0845 2C       		.uleb128 0x2c
 2020 0846 90030000 		.4byte	.LASF128
 2021 084a E1080000 		.4byte	0x8e1
 2022 084e 23       		.uleb128 0x23
 2023 084f 2B070000 		.4byte	0x72b
 2024 0853 02000000 		.4byte	.LBB80
 2025 0857 02000000 		.4byte	.LBE80-.LBB80
 2026 085b 01       		.byte	0x1
 2027 085c A1       		.byte	0xa1
 2028 085d 83080000 		.4byte	0x883
 2029 0861 24       		.uleb128 0x24
 2030 0862 E1060000 		.4byte	0x6e1
 2031 0866 02000000 		.4byte	.LBB81
 2032 086a 02000000 		.4byte	.LBE81-.LBB81
 2033 086e 0F       		.byte	0xf
 2034 086f 7801     		.2byte	0x178
 2035 0871 25       		.uleb128 0x25
 2036 0872 D1060000 		.4byte	0x6d1
 2037 0876 02000000 		.4byte	.LBB82
 2038 087a 02000000 		.4byte	.LBE82-.LBB82
 2039 087e 0A       		.byte	0xa
 2040 087f 7501     		.2byte	0x175
 2041 0881 00       		.byte	0
 2042 0882 00       		.byte	0
 2043 0883 23       		.uleb128 0x23
 2044 0884 34070000 		.4byte	0x734
 2045 0888 14000000 		.4byte	.LBB84
ARM GAS  /tmp/ccdWlSBO.s 			page 69


 2046 088c 02000000 		.4byte	.LBE84-.LBB84
 2047 0890 01       		.byte	0x1
 2048 0891 AE       		.byte	0xae
 2049 0892 C7080000 		.4byte	0x8c7
 2050 0896 27       		.uleb128 0x27
 2051 0897 14000000 		.4byte	.LBB85
 2052 089b 02000000 		.4byte	.LBE85-.LBB85
 2053 089f 28       		.uleb128 0x28
 2054 08a0 41070000 		.4byte	0x741
 2055 08a4 24       		.uleb128 0x24
 2056 08a5 EA060000 		.4byte	0x6ea
 2057 08a9 14000000 		.4byte	.LBB86
 2058 08ad 02000000 		.4byte	.LBE86-.LBB86
 2059 08b1 0F       		.byte	0xf
 2060 08b2 8F01     		.2byte	0x18f
 2061 08b4 25       		.uleb128 0x25
 2062 08b5 D9060000 		.4byte	0x6d9
 2063 08b9 14000000 		.4byte	.LBB87
 2064 08bd 02000000 		.4byte	.LBE87-.LBB87
 2065 08c1 0A       		.byte	0xa
 2066 08c2 7E01     		.2byte	0x17e
 2067 08c4 00       		.byte	0
 2068 08c5 00       		.byte	0
 2069 08c6 00       		.byte	0
 2070 08c7 2D       		.uleb128 0x2d
 2071 08c8 1A000000 		.4byte	.LVL4
 2072 08cc B70B0000 		.4byte	0xbb7
 2073 08d0 00       		.byte	0
 2074 08d1 15       		.uleb128 0x15
 2075 08d2 B6000000 		.4byte	0xb6
 2076 08d6 E1080000 		.4byte	0x8e1
 2077 08da 16       		.uleb128 0x16
 2078 08db AD000000 		.4byte	0xad
 2079 08df 0F       		.byte	0xf
 2080 08e0 00       		.byte	0
 2081 08e1 07       		.uleb128 0x7
 2082 08e2 D1080000 		.4byte	0x8d1
 2083 08e6 29       		.uleb128 0x29
 2084 08e7 FF040000 		.4byte	.LASF117
 2085 08eb 01       		.byte	0x1
 2086 08ec C2       		.byte	0xc2
 2087 08ed 4B020000 		.4byte	0x24b
 2088 08f1 00000000 		.4byte	.LFB151
 2089 08f5 38000000 		.4byte	.LFE151-.LFB151
 2090 08f9 01       		.uleb128 0x1
 2091 08fa 9C       		.byte	0x9c
 2092 08fb DE090000 		.4byte	0x9de
 2093 08ff 2E       		.uleb128 0x2e
 2094 0900 B3040000 		.4byte	.LASF35
 2095 0904 01       		.byte	0x1
 2096 0905 C2       		.byte	0xc2
 2097 0906 BD000000 		.4byte	0xbd
 2098 090a 61000000 		.4byte	.LLST2
 2099 090e 2B       		.uleb128 0x2b
 2100 090f 63747000 		.ascii	"ctp\000"
 2101 0913 01       		.byte	0x1
 2102 0914 C3       		.byte	0xc3
ARM GAS  /tmp/ccdWlSBO.s 			page 70


 2103 0915 4B020000 		.4byte	0x24b
 2104 0919 98000000 		.4byte	.LLST3
 2105 091d 23       		.uleb128 0x23
 2106 091e 64070000 		.4byte	0x764
 2107 0922 04000000 		.4byte	.LBB89
 2108 0926 12000000 		.4byte	.LBE89-.LBB89
 2109 092a 01       		.byte	0x1
 2110 092b C6       		.byte	0xc6
 2111 092c B9090000 		.4byte	0x9b9
 2112 0930 27       		.uleb128 0x27
 2113 0931 04000000 		.4byte	.LBB90
 2114 0935 12000000 		.4byte	.LBE90-.LBB90
 2115 0939 2F       		.uleb128 0x2f
 2116 093a 74070000 		.4byte	0x774
 2117 093e D7000000 		.4byte	.LLST4
 2118 0942 23       		.uleb128 0x23
 2119 0943 2B070000 		.4byte	0x72b
 2120 0947 04000000 		.4byte	.LBB91
 2121 094b 02000000 		.4byte	.LBE91-.LBB91
 2122 094f 01       		.byte	0x1
 2123 0950 89       		.byte	0x89
 2124 0951 77090000 		.4byte	0x977
 2125 0955 24       		.uleb128 0x24
 2126 0956 E1060000 		.4byte	0x6e1
 2127 095a 04000000 		.4byte	.LBB92
 2128 095e 02000000 		.4byte	.LBE92-.LBB92
 2129 0962 0F       		.byte	0xf
 2130 0963 7801     		.2byte	0x178
 2131 0965 25       		.uleb128 0x25
 2132 0966 D1060000 		.4byte	0x6d1
 2133 096a 04000000 		.4byte	.LBB93
 2134 096e 02000000 		.4byte	.LBE93-.LBB93
 2135 0972 0A       		.byte	0xa
 2136 0973 7501     		.2byte	0x175
 2137 0975 00       		.byte	0
 2138 0976 00       		.byte	0
 2139 0977 26       		.uleb128 0x26
 2140 0978 34070000 		.4byte	0x734
 2141 097c 12000000 		.4byte	.LBB95
 2142 0980 04000000 		.4byte	.LBE95-.LBB95
 2143 0984 01       		.byte	0x1
 2144 0985 8E       		.byte	0x8e
 2145 0986 27       		.uleb128 0x27
 2146 0987 12000000 		.4byte	.LBB96
 2147 098b 04000000 		.4byte	.LBE96-.LBB96
 2148 098f 28       		.uleb128 0x28
 2149 0990 41070000 		.4byte	0x741
 2150 0994 24       		.uleb128 0x24
 2151 0995 EA060000 		.4byte	0x6ea
 2152 0999 12000000 		.4byte	.LBB97
 2153 099d 04000000 		.4byte	.LBE97-.LBB97
 2154 09a1 0F       		.byte	0xf
 2155 09a2 8F01     		.2byte	0x18f
 2156 09a4 25       		.uleb128 0x25
 2157 09a5 D9060000 		.4byte	0x6d9
 2158 09a9 12000000 		.4byte	.LBB98
 2159 09ad 04000000 		.4byte	.LBE98-.LBB98
ARM GAS  /tmp/ccdWlSBO.s 			page 71


 2160 09b1 0A       		.byte	0xa
 2161 09b2 7E01     		.2byte	0x17e
 2162 09b4 00       		.byte	0
 2163 09b5 00       		.byte	0
 2164 09b6 00       		.byte	0
 2165 09b7 00       		.byte	0
 2166 09b8 00       		.byte	0
 2167 09b9 30       		.uleb128 0x30
 2168 09ba 1C000000 		.4byte	.LVL11
 2169 09be 0F080000 		.4byte	0x80f
 2170 09c2 CD090000 		.4byte	0x9cd
 2171 09c6 31       		.uleb128 0x31
 2172 09c7 01       		.uleb128 0x1
 2173 09c8 50       		.byte	0x50
 2174 09c9 02       		.uleb128 0x2
 2175 09ca 74       		.byte	0x74
 2176 09cb 00       		.sleb128 0
 2177 09cc 00       		.byte	0
 2178 09cd 32       		.uleb128 0x32
 2179 09ce 28000000 		.4byte	.LVL14
 2180 09d2 C80B0000 		.4byte	0xbc8
 2181 09d6 31       		.uleb128 0x31
 2182 09d7 01       		.uleb128 0x1
 2183 09d8 51       		.byte	0x51
 2184 09d9 02       		.uleb128 0x2
 2185 09da 75       		.byte	0x75
 2186 09db 00       		.sleb128 0
 2187 09dc 00       		.byte	0
 2188 09dd 00       		.byte	0
 2189 09de 29       		.uleb128 0x29
 2190 09df 5E000000 		.4byte	.LASF118
 2191 09e3 01       		.byte	0x1
 2192 09e4 DD       		.byte	0xdd
 2193 09e5 4B020000 		.4byte	0x24b
 2194 09e9 00000000 		.4byte	.LFB152
 2195 09ed 30000000 		.4byte	.LFE152-.LFB152
 2196 09f1 01       		.uleb128 0x1
 2197 09f2 9C       		.byte	0x9c
 2198 09f3 BA0A0000 		.4byte	0xaba
 2199 09f7 2A       		.uleb128 0x2a
 2200 09f8 747000   		.ascii	"tp\000"
 2201 09fb 01       		.byte	0x1
 2202 09fc DD       		.byte	0xdd
 2203 09fd 4B020000 		.4byte	0x24b
 2204 0a01 EA000000 		.4byte	.LLST5
 2205 0a05 2B       		.uleb128 0x2b
 2206 0a06 63747000 		.ascii	"ctp\000"
 2207 0a0a 01       		.byte	0x1
 2208 0a0b DE       		.byte	0xde
 2209 0a0c 4B020000 		.4byte	0x24b
 2210 0a10 21010000 		.4byte	.LLST6
 2211 0a14 23       		.uleb128 0x23
 2212 0a15 64070000 		.4byte	0x764
 2213 0a19 04000000 		.4byte	.LBB100
 2214 0a1d 10000000 		.4byte	.LBE100-.LBB100
 2215 0a21 01       		.byte	0x1
 2216 0a22 E1       		.byte	0xe1
ARM GAS  /tmp/ccdWlSBO.s 			page 72


 2217 0a23 B00A0000 		.4byte	0xab0
 2218 0a27 27       		.uleb128 0x27
 2219 0a28 04000000 		.4byte	.LBB101
 2220 0a2c 10000000 		.4byte	.LBE101-.LBB101
 2221 0a30 2F       		.uleb128 0x2f
 2222 0a31 74070000 		.4byte	0x774
 2223 0a35 4A010000 		.4byte	.LLST7
 2224 0a39 23       		.uleb128 0x23
 2225 0a3a 2B070000 		.4byte	0x72b
 2226 0a3e 04000000 		.4byte	.LBB102
 2227 0a42 02000000 		.4byte	.LBE102-.LBB102
 2228 0a46 01       		.byte	0x1
 2229 0a47 89       		.byte	0x89
 2230 0a48 6E0A0000 		.4byte	0xa6e
 2231 0a4c 24       		.uleb128 0x24
 2232 0a4d E1060000 		.4byte	0x6e1
 2233 0a51 04000000 		.4byte	.LBB103
 2234 0a55 02000000 		.4byte	.LBE103-.LBB103
 2235 0a59 0F       		.byte	0xf
 2236 0a5a 7801     		.2byte	0x178
 2237 0a5c 25       		.uleb128 0x25
 2238 0a5d D1060000 		.4byte	0x6d1
 2239 0a61 04000000 		.4byte	.LBB104
 2240 0a65 02000000 		.4byte	.LBE104-.LBB104
 2241 0a69 0A       		.byte	0xa
 2242 0a6a 7501     		.2byte	0x175
 2243 0a6c 00       		.byte	0
 2244 0a6d 00       		.byte	0
 2245 0a6e 26       		.uleb128 0x26
 2246 0a6f 34070000 		.4byte	0x734
 2247 0a73 12000000 		.4byte	.LBB106
 2248 0a77 02000000 		.4byte	.LBE106-.LBB106
 2249 0a7b 01       		.byte	0x1
 2250 0a7c 8E       		.byte	0x8e
 2251 0a7d 27       		.uleb128 0x27
 2252 0a7e 12000000 		.4byte	.LBB107
 2253 0a82 02000000 		.4byte	.LBE107-.LBB107
 2254 0a86 28       		.uleb128 0x28
 2255 0a87 41070000 		.4byte	0x741
 2256 0a8b 24       		.uleb128 0x24
 2257 0a8c EA060000 		.4byte	0x6ea
 2258 0a90 12000000 		.4byte	.LBB108
 2259 0a94 02000000 		.4byte	.LBE108-.LBB108
 2260 0a98 0F       		.byte	0xf
 2261 0a99 8F01     		.2byte	0x18f
 2262 0a9b 25       		.uleb128 0x25
 2263 0a9c D9060000 		.4byte	0x6d9
 2264 0aa0 12000000 		.4byte	.LBB109
 2265 0aa4 02000000 		.4byte	.LBE109-.LBB109
 2266 0aa8 0A       		.byte	0xa
 2267 0aa9 7E01     		.2byte	0x17e
 2268 0aab 00       		.byte	0
 2269 0aac 00       		.byte	0
 2270 0aad 00       		.byte	0
 2271 0aae 00       		.byte	0
 2272 0aaf 00       		.byte	0
 2273 0ab0 2D       		.uleb128 0x2d
ARM GAS  /tmp/ccdWlSBO.s 			page 73


 2274 0ab1 22000000 		.4byte	.LVL24
 2275 0ab5 0F080000 		.4byte	0x80f
 2276 0ab9 00       		.byte	0
 2277 0aba 29       		.uleb128 0x29
 2278 0abb 5E020000 		.4byte	.LASF119
 2279 0abf 01       		.byte	0x1
 2280 0ac0 FA       		.byte	0xfa
 2281 0ac1 4B020000 		.4byte	0x24b
 2282 0ac5 00000000 		.4byte	.LFB153
 2283 0ac9 2C000000 		.4byte	.LFE153-.LFB153
 2284 0acd 01       		.uleb128 0x1
 2285 0ace 9C       		.byte	0x9c
 2286 0acf 960B0000 		.4byte	0xb96
 2287 0ad3 2A       		.uleb128 0x2a
 2288 0ad4 776100   		.ascii	"wa\000"
 2289 0ad7 01       		.byte	0x1
 2290 0ad8 FA       		.byte	0xfa
 2291 0ad9 B3050000 		.4byte	0x5b3
 2292 0add 5D010000 		.4byte	.LLST8
 2293 0ae1 2B       		.uleb128 0x2b
 2294 0ae2 63747000 		.ascii	"ctp\000"
 2295 0ae6 01       		.byte	0x1
 2296 0ae7 FB       		.byte	0xfb
 2297 0ae8 4B020000 		.4byte	0x24b
 2298 0aec 89010000 		.4byte	.LLST9
 2299 0af0 23       		.uleb128 0x23
 2300 0af1 64070000 		.4byte	0x764
 2301 0af5 04000000 		.4byte	.LBB111
 2302 0af9 12000000 		.4byte	.LBE111-.LBB111
 2303 0afd 01       		.byte	0x1
 2304 0afe FE       		.byte	0xfe
 2305 0aff 8C0B0000 		.4byte	0xb8c
 2306 0b03 27       		.uleb128 0x27
 2307 0b04 04000000 		.4byte	.LBB112
 2308 0b08 12000000 		.4byte	.LBE112-.LBB112
 2309 0b0c 2F       		.uleb128 0x2f
 2310 0b0d 74070000 		.4byte	0x774
 2311 0b11 A7010000 		.4byte	.LLST10
 2312 0b15 23       		.uleb128 0x23
 2313 0b16 2B070000 		.4byte	0x72b
 2314 0b1a 04000000 		.4byte	.LBB113
 2315 0b1e 02000000 		.4byte	.LBE113-.LBB113
 2316 0b22 01       		.byte	0x1
 2317 0b23 89       		.byte	0x89
 2318 0b24 4A0B0000 		.4byte	0xb4a
 2319 0b28 24       		.uleb128 0x24
 2320 0b29 E1060000 		.4byte	0x6e1
 2321 0b2d 04000000 		.4byte	.LBB114
 2322 0b31 02000000 		.4byte	.LBE114-.LBB114
 2323 0b35 0F       		.byte	0xf
 2324 0b36 7801     		.2byte	0x178
 2325 0b38 25       		.uleb128 0x25
 2326 0b39 D1060000 		.4byte	0x6d1
 2327 0b3d 04000000 		.4byte	.LBB115
 2328 0b41 02000000 		.4byte	.LBE115-.LBB115
 2329 0b45 0A       		.byte	0xa
 2330 0b46 7501     		.2byte	0x175
ARM GAS  /tmp/ccdWlSBO.s 			page 74


 2331 0b48 00       		.byte	0
 2332 0b49 00       		.byte	0
 2333 0b4a 26       		.uleb128 0x26
 2334 0b4b 34070000 		.4byte	0x734
 2335 0b4f 12000000 		.4byte	.LBB117
 2336 0b53 04000000 		.4byte	.LBE117-.LBB117
 2337 0b57 01       		.byte	0x1
 2338 0b58 8E       		.byte	0x8e
 2339 0b59 27       		.uleb128 0x27
 2340 0b5a 12000000 		.4byte	.LBB118
 2341 0b5e 04000000 		.4byte	.LBE118-.LBB118
 2342 0b62 28       		.uleb128 0x28
 2343 0b63 41070000 		.4byte	0x741
 2344 0b67 24       		.uleb128 0x24
 2345 0b68 EA060000 		.4byte	0x6ea
 2346 0b6c 12000000 		.4byte	.LBB119
 2347 0b70 04000000 		.4byte	.LBE119-.LBB119
 2348 0b74 0F       		.byte	0xf
 2349 0b75 8F01     		.2byte	0x18f
 2350 0b77 25       		.uleb128 0x25
 2351 0b78 D9060000 		.4byte	0x6d9
 2352 0b7c 12000000 		.4byte	.LBB120
 2353 0b80 04000000 		.4byte	.LBE120-.LBB120
 2354 0b84 0A       		.byte	0xa
 2355 0b85 7E01     		.2byte	0x17e
 2356 0b87 00       		.byte	0
 2357 0b88 00       		.byte	0
 2358 0b89 00       		.byte	0
 2359 0b8a 00       		.byte	0
 2360 0b8b 00       		.byte	0
 2361 0b8c 2D       		.uleb128 0x2d
 2362 0b8d 1A000000 		.4byte	.LVL32
 2363 0b91 0F080000 		.4byte	0x80f
 2364 0b95 00       		.byte	0
 2365 0b96 33       		.uleb128 0x33
 2366 0b97 636800   		.ascii	"ch\000"
 2367 0b9a 08       		.byte	0x8
 2368 0b9b D201     		.2byte	0x1d2
 2369 0b9d F5030000 		.4byte	0x3f5
 2370 0ba1 34       		.uleb128 0x34
 2371 0ba2 D9050000 		.4byte	.LASF120
 2372 0ba6 01       		.byte	0x1
 2373 0ba7 53       		.byte	0x53
 2374 0ba8 B20B0000 		.4byte	0xbb2
 2375 0bac 05       		.uleb128 0x5
 2376 0bad 03       		.byte	0x3
 2377 0bae 00000000 		.4byte	ch_debug
 2378 0bb2 07       		.uleb128 0x7
 2379 0bb3 B5060000 		.4byte	0x6b5
 2380 0bb7 35       		.uleb128 0x35
 2381 0bb8 15040000 		.4byte	.LASF121
 2382 0bbc 0E       		.byte	0xe
 2383 0bbd EF       		.byte	0xef
 2384 0bbe C80B0000 		.4byte	0xbc8
 2385 0bc2 0F       		.uleb128 0xf
 2386 0bc3 4B020000 		.4byte	0x24b
 2387 0bc7 00       		.byte	0
ARM GAS  /tmp/ccdWlSBO.s 			page 75


 2388 0bc8 36       		.uleb128 0x36
 2389 0bc9 39060000 		.4byte	.LASF122
 2390 0bcd 10       		.byte	0x10
 2391 0bce 1C       		.byte	0x1c
 2392 0bcf 25000000 		.4byte	0x25
 2393 0bd3 0F       		.uleb128 0xf
 2394 0bd4 BD000000 		.4byte	0xbd
 2395 0bd8 0F       		.uleb128 0xf
 2396 0bd9 BD000000 		.4byte	0xbd
 2397 0bdd 00       		.byte	0
 2398 0bde 00       		.byte	0
 2399              		.section	.debug_abbrev,"",%progbits
 2400              	.Ldebug_abbrev0:
 2401 0000 01       		.uleb128 0x1
 2402 0001 11       		.uleb128 0x11
 2403 0002 01       		.byte	0x1
 2404 0003 25       		.uleb128 0x25
 2405 0004 0E       		.uleb128 0xe
 2406 0005 13       		.uleb128 0x13
 2407 0006 0B       		.uleb128 0xb
 2408 0007 03       		.uleb128 0x3
 2409 0008 0E       		.uleb128 0xe
 2410 0009 1B       		.uleb128 0x1b
 2411 000a 0E       		.uleb128 0xe
 2412 000b 55       		.uleb128 0x55
 2413 000c 17       		.uleb128 0x17
 2414 000d 11       		.uleb128 0x11
 2415 000e 01       		.uleb128 0x1
 2416 000f 10       		.uleb128 0x10
 2417 0010 17       		.uleb128 0x17
 2418 0011 00       		.byte	0
 2419 0012 00       		.byte	0
 2420 0013 02       		.uleb128 0x2
 2421 0014 24       		.uleb128 0x24
 2422 0015 00       		.byte	0
 2423 0016 0B       		.uleb128 0xb
 2424 0017 0B       		.uleb128 0xb
 2425 0018 3E       		.uleb128 0x3e
 2426 0019 0B       		.uleb128 0xb
 2427 001a 03       		.uleb128 0x3
 2428 001b 08       		.uleb128 0x8
 2429 001c 00       		.byte	0
 2430 001d 00       		.byte	0
 2431 001e 03       		.uleb128 0x3
 2432 001f 16       		.uleb128 0x16
 2433 0020 00       		.byte	0
 2434 0021 03       		.uleb128 0x3
 2435 0022 0E       		.uleb128 0xe
 2436 0023 3A       		.uleb128 0x3a
 2437 0024 0B       		.uleb128 0xb
 2438 0025 3B       		.uleb128 0x3b
 2439 0026 0B       		.uleb128 0xb
 2440 0027 49       		.uleb128 0x49
 2441 0028 13       		.uleb128 0x13
 2442 0029 00       		.byte	0
 2443 002a 00       		.byte	0
 2444 002b 04       		.uleb128 0x4
ARM GAS  /tmp/ccdWlSBO.s 			page 76


 2445 002c 24       		.uleb128 0x24
 2446 002d 00       		.byte	0
 2447 002e 0B       		.uleb128 0xb
 2448 002f 0B       		.uleb128 0xb
 2449 0030 3E       		.uleb128 0x3e
 2450 0031 0B       		.uleb128 0xb
 2451 0032 03       		.uleb128 0x3
 2452 0033 0E       		.uleb128 0xe
 2453 0034 00       		.byte	0
 2454 0035 00       		.byte	0
 2455 0036 05       		.uleb128 0x5
 2456 0037 0F       		.uleb128 0xf
 2457 0038 00       		.byte	0
 2458 0039 0B       		.uleb128 0xb
 2459 003a 0B       		.uleb128 0xb
 2460 003b 00       		.byte	0
 2461 003c 00       		.byte	0
 2462 003d 06       		.uleb128 0x6
 2463 003e 0F       		.uleb128 0xf
 2464 003f 00       		.byte	0
 2465 0040 0B       		.uleb128 0xb
 2466 0041 0B       		.uleb128 0xb
 2467 0042 49       		.uleb128 0x49
 2468 0043 13       		.uleb128 0x13
 2469 0044 00       		.byte	0
 2470 0045 00       		.byte	0
 2471 0046 07       		.uleb128 0x7
 2472 0047 26       		.uleb128 0x26
 2473 0048 00       		.byte	0
 2474 0049 49       		.uleb128 0x49
 2475 004a 13       		.uleb128 0x13
 2476 004b 00       		.byte	0
 2477 004c 00       		.byte	0
 2478 004d 08       		.uleb128 0x8
 2479 004e 13       		.uleb128 0x13
 2480 004f 01       		.byte	0x1
 2481 0050 03       		.uleb128 0x3
 2482 0051 0E       		.uleb128 0xe
 2483 0052 0B       		.uleb128 0xb
 2484 0053 0B       		.uleb128 0xb
 2485 0054 3A       		.uleb128 0x3a
 2486 0055 0B       		.uleb128 0xb
 2487 0056 3B       		.uleb128 0x3b
 2488 0057 0B       		.uleb128 0xb
 2489 0058 01       		.uleb128 0x1
 2490 0059 13       		.uleb128 0x13
 2491 005a 00       		.byte	0
 2492 005b 00       		.byte	0
 2493 005c 09       		.uleb128 0x9
 2494 005d 0D       		.uleb128 0xd
 2495 005e 00       		.byte	0
 2496 005f 03       		.uleb128 0x3
 2497 0060 0E       		.uleb128 0xe
 2498 0061 3A       		.uleb128 0x3a
 2499 0062 0B       		.uleb128 0xb
 2500 0063 3B       		.uleb128 0x3b
 2501 0064 0B       		.uleb128 0xb
ARM GAS  /tmp/ccdWlSBO.s 			page 77


 2502 0065 49       		.uleb128 0x49
 2503 0066 13       		.uleb128 0x13
 2504 0067 38       		.uleb128 0x38
 2505 0068 0B       		.uleb128 0xb
 2506 0069 00       		.byte	0
 2507 006a 00       		.byte	0
 2508 006b 0A       		.uleb128 0xa
 2509 006c 0D       		.uleb128 0xd
 2510 006d 00       		.byte	0
 2511 006e 03       		.uleb128 0x3
 2512 006f 08       		.uleb128 0x8
 2513 0070 3A       		.uleb128 0x3a
 2514 0071 0B       		.uleb128 0xb
 2515 0072 3B       		.uleb128 0x3b
 2516 0073 0B       		.uleb128 0xb
 2517 0074 49       		.uleb128 0x49
 2518 0075 13       		.uleb128 0x13
 2519 0076 38       		.uleb128 0x38
 2520 0077 0B       		.uleb128 0xb
 2521 0078 00       		.byte	0
 2522 0079 00       		.byte	0
 2523 007a 0B       		.uleb128 0xb
 2524 007b 0D       		.uleb128 0xd
 2525 007c 00       		.byte	0
 2526 007d 03       		.uleb128 0x3
 2527 007e 08       		.uleb128 0x8
 2528 007f 3A       		.uleb128 0x3a
 2529 0080 0B       		.uleb128 0xb
 2530 0081 3B       		.uleb128 0x3b
 2531 0082 05       		.uleb128 0x5
 2532 0083 49       		.uleb128 0x49
 2533 0084 13       		.uleb128 0x13
 2534 0085 38       		.uleb128 0x38
 2535 0086 0B       		.uleb128 0xb
 2536 0087 00       		.byte	0
 2537 0088 00       		.byte	0
 2538 0089 0C       		.uleb128 0xc
 2539 008a 0D       		.uleb128 0xd
 2540 008b 00       		.byte	0
 2541 008c 03       		.uleb128 0x3
 2542 008d 0E       		.uleb128 0xe
 2543 008e 3A       		.uleb128 0x3a
 2544 008f 0B       		.uleb128 0xb
 2545 0090 3B       		.uleb128 0x3b
 2546 0091 05       		.uleb128 0x5
 2547 0092 49       		.uleb128 0x49
 2548 0093 13       		.uleb128 0x13
 2549 0094 38       		.uleb128 0x38
 2550 0095 0B       		.uleb128 0xb
 2551 0096 00       		.byte	0
 2552 0097 00       		.byte	0
 2553 0098 0D       		.uleb128 0xd
 2554 0099 13       		.uleb128 0x13
 2555 009a 01       		.byte	0x1
 2556 009b 03       		.uleb128 0x3
 2557 009c 0E       		.uleb128 0xe
 2558 009d 0B       		.uleb128 0xb
ARM GAS  /tmp/ccdWlSBO.s 			page 78


 2559 009e 0B       		.uleb128 0xb
 2560 009f 3A       		.uleb128 0x3a
 2561 00a0 0B       		.uleb128 0xb
 2562 00a1 3B       		.uleb128 0x3b
 2563 00a2 05       		.uleb128 0x5
 2564 00a3 01       		.uleb128 0x1
 2565 00a4 13       		.uleb128 0x13
 2566 00a5 00       		.byte	0
 2567 00a6 00       		.byte	0
 2568 00a7 0E       		.uleb128 0xe
 2569 00a8 15       		.uleb128 0x15
 2570 00a9 01       		.byte	0x1
 2571 00aa 27       		.uleb128 0x27
 2572 00ab 19       		.uleb128 0x19
 2573 00ac 01       		.uleb128 0x1
 2574 00ad 13       		.uleb128 0x13
 2575 00ae 00       		.byte	0
 2576 00af 00       		.byte	0
 2577 00b0 0F       		.uleb128 0xf
 2578 00b1 05       		.uleb128 0x5
 2579 00b2 00       		.byte	0
 2580 00b3 49       		.uleb128 0x49
 2581 00b4 13       		.uleb128 0x13
 2582 00b5 00       		.byte	0
 2583 00b6 00       		.byte	0
 2584 00b7 10       		.uleb128 0x10
 2585 00b8 17       		.uleb128 0x17
 2586 00b9 01       		.byte	0x1
 2587 00ba 0B       		.uleb128 0xb
 2588 00bb 0B       		.uleb128 0xb
 2589 00bc 3A       		.uleb128 0x3a
 2590 00bd 0B       		.uleb128 0xb
 2591 00be 3B       		.uleb128 0x3b
 2592 00bf 0B       		.uleb128 0xb
 2593 00c0 01       		.uleb128 0x1
 2594 00c1 13       		.uleb128 0x13
 2595 00c2 00       		.byte	0
 2596 00c3 00       		.byte	0
 2597 00c4 11       		.uleb128 0x11
 2598 00c5 0D       		.uleb128 0xd
 2599 00c6 00       		.byte	0
 2600 00c7 03       		.uleb128 0x3
 2601 00c8 0E       		.uleb128 0xe
 2602 00c9 3A       		.uleb128 0x3a
 2603 00ca 0B       		.uleb128 0xb
 2604 00cb 3B       		.uleb128 0x3b
 2605 00cc 0B       		.uleb128 0xb
 2606 00cd 49       		.uleb128 0x49
 2607 00ce 13       		.uleb128 0x13
 2608 00cf 00       		.byte	0
 2609 00d0 00       		.byte	0
 2610 00d1 12       		.uleb128 0x12
 2611 00d2 0D       		.uleb128 0xd
 2612 00d3 00       		.byte	0
 2613 00d4 03       		.uleb128 0x3
 2614 00d5 0E       		.uleb128 0xe
 2615 00d6 3A       		.uleb128 0x3a
ARM GAS  /tmp/ccdWlSBO.s 			page 79


 2616 00d7 0B       		.uleb128 0xb
 2617 00d8 3B       		.uleb128 0x3b
 2618 00d9 05       		.uleb128 0x5
 2619 00da 49       		.uleb128 0x49
 2620 00db 13       		.uleb128 0x13
 2621 00dc 00       		.byte	0
 2622 00dd 00       		.byte	0
 2623 00de 13       		.uleb128 0x13
 2624 00df 35       		.uleb128 0x35
 2625 00e0 00       		.byte	0
 2626 00e1 49       		.uleb128 0x49
 2627 00e2 13       		.uleb128 0x13
 2628 00e3 00       		.byte	0
 2629 00e4 00       		.byte	0
 2630 00e5 14       		.uleb128 0x14
 2631 00e6 13       		.uleb128 0x13
 2632 00e7 01       		.byte	0x1
 2633 00e8 0B       		.uleb128 0xb
 2634 00e9 0B       		.uleb128 0xb
 2635 00ea 3A       		.uleb128 0x3a
 2636 00eb 0B       		.uleb128 0xb
 2637 00ec 3B       		.uleb128 0x3b
 2638 00ed 0B       		.uleb128 0xb
 2639 00ee 01       		.uleb128 0x1
 2640 00ef 13       		.uleb128 0x13
 2641 00f0 00       		.byte	0
 2642 00f1 00       		.byte	0
 2643 00f2 15       		.uleb128 0x15
 2644 00f3 01       		.uleb128 0x1
 2645 00f4 01       		.byte	0x1
 2646 00f5 49       		.uleb128 0x49
 2647 00f6 13       		.uleb128 0x13
 2648 00f7 01       		.uleb128 0x1
 2649 00f8 13       		.uleb128 0x13
 2650 00f9 00       		.byte	0
 2651 00fa 00       		.byte	0
 2652 00fb 16       		.uleb128 0x16
 2653 00fc 21       		.uleb128 0x21
 2654 00fd 00       		.byte	0
 2655 00fe 49       		.uleb128 0x49
 2656 00ff 13       		.uleb128 0x13
 2657 0100 2F       		.uleb128 0x2f
 2658 0101 0B       		.uleb128 0xb
 2659 0102 00       		.byte	0
 2660 0103 00       		.byte	0
 2661 0104 17       		.uleb128 0x17
 2662 0105 2E       		.uleb128 0x2e
 2663 0106 00       		.byte	0
 2664 0107 03       		.uleb128 0x3
 2665 0108 0E       		.uleb128 0xe
 2666 0109 3A       		.uleb128 0x3a
 2667 010a 0B       		.uleb128 0xb
 2668 010b 3B       		.uleb128 0x3b
 2669 010c 0B       		.uleb128 0xb
 2670 010d 27       		.uleb128 0x27
 2671 010e 19       		.uleb128 0x19
 2672 010f 20       		.uleb128 0x20
ARM GAS  /tmp/ccdWlSBO.s 			page 80


 2673 0110 0B       		.uleb128 0xb
 2674 0111 00       		.byte	0
 2675 0112 00       		.byte	0
 2676 0113 18       		.uleb128 0x18
 2677 0114 2E       		.uleb128 0x2e
 2678 0115 00       		.byte	0
 2679 0116 03       		.uleb128 0x3
 2680 0117 0E       		.uleb128 0xe
 2681 0118 3A       		.uleb128 0x3a
 2682 0119 0B       		.uleb128 0xb
 2683 011a 3B       		.uleb128 0x3b
 2684 011b 05       		.uleb128 0x5
 2685 011c 27       		.uleb128 0x27
 2686 011d 19       		.uleb128 0x19
 2687 011e 20       		.uleb128 0x20
 2688 011f 0B       		.uleb128 0xb
 2689 0120 00       		.byte	0
 2690 0121 00       		.byte	0
 2691 0122 19       		.uleb128 0x19
 2692 0123 2E       		.uleb128 0x2e
 2693 0124 01       		.byte	0x1
 2694 0125 03       		.uleb128 0x3
 2695 0126 0E       		.uleb128 0xe
 2696 0127 3A       		.uleb128 0x3a
 2697 0128 0B       		.uleb128 0xb
 2698 0129 3B       		.uleb128 0x3b
 2699 012a 05       		.uleb128 0x5
 2700 012b 27       		.uleb128 0x27
 2701 012c 19       		.uleb128 0x19
 2702 012d 49       		.uleb128 0x49
 2703 012e 13       		.uleb128 0x13
 2704 012f 20       		.uleb128 0x20
 2705 0130 0B       		.uleb128 0xb
 2706 0131 01       		.uleb128 0x1
 2707 0132 13       		.uleb128 0x13
 2708 0133 00       		.byte	0
 2709 0134 00       		.byte	0
 2710 0135 1A       		.uleb128 0x1a
 2711 0136 05       		.uleb128 0x5
 2712 0137 00       		.byte	0
 2713 0138 03       		.uleb128 0x3
 2714 0139 08       		.uleb128 0x8
 2715 013a 3A       		.uleb128 0x3a
 2716 013b 0B       		.uleb128 0xb
 2717 013c 3B       		.uleb128 0x3b
 2718 013d 05       		.uleb128 0x5
 2719 013e 49       		.uleb128 0x49
 2720 013f 13       		.uleb128 0x13
 2721 0140 00       		.byte	0
 2722 0141 00       		.byte	0
 2723 0142 1B       		.uleb128 0x1b
 2724 0143 2E       		.uleb128 0x2e
 2725 0144 01       		.byte	0x1
 2726 0145 03       		.uleb128 0x3
 2727 0146 0E       		.uleb128 0xe
 2728 0147 3A       		.uleb128 0x3a
 2729 0148 0B       		.uleb128 0xb
ARM GAS  /tmp/ccdWlSBO.s 			page 81


 2730 0149 3B       		.uleb128 0x3b
 2731 014a 0B       		.uleb128 0xb
 2732 014b 27       		.uleb128 0x27
 2733 014c 19       		.uleb128 0x19
 2734 014d 49       		.uleb128 0x49
 2735 014e 13       		.uleb128 0x13
 2736 014f 20       		.uleb128 0x20
 2737 0150 0B       		.uleb128 0xb
 2738 0151 01       		.uleb128 0x1
 2739 0152 13       		.uleb128 0x13
 2740 0153 00       		.byte	0
 2741 0154 00       		.byte	0
 2742 0155 1C       		.uleb128 0x1c
 2743 0156 05       		.uleb128 0x5
 2744 0157 00       		.byte	0
 2745 0158 03       		.uleb128 0x3
 2746 0159 08       		.uleb128 0x8
 2747 015a 3A       		.uleb128 0x3a
 2748 015b 0B       		.uleb128 0xb
 2749 015c 3B       		.uleb128 0x3b
 2750 015d 0B       		.uleb128 0xb
 2751 015e 49       		.uleb128 0x49
 2752 015f 13       		.uleb128 0x13
 2753 0160 00       		.byte	0
 2754 0161 00       		.byte	0
 2755 0162 1D       		.uleb128 0x1d
 2756 0163 2E       		.uleb128 0x2e
 2757 0164 01       		.byte	0x1
 2758 0165 03       		.uleb128 0x3
 2759 0166 0E       		.uleb128 0xe
 2760 0167 3A       		.uleb128 0x3a
 2761 0168 0B       		.uleb128 0xb
 2762 0169 3B       		.uleb128 0x3b
 2763 016a 05       		.uleb128 0x5
 2764 016b 27       		.uleb128 0x27
 2765 016c 19       		.uleb128 0x19
 2766 016d 20       		.uleb128 0x20
 2767 016e 0B       		.uleb128 0xb
 2768 016f 01       		.uleb128 0x1
 2769 0170 13       		.uleb128 0x13
 2770 0171 00       		.byte	0
 2771 0172 00       		.byte	0
 2772 0173 1E       		.uleb128 0x1e
 2773 0174 34       		.uleb128 0x34
 2774 0175 00       		.byte	0
 2775 0176 03       		.uleb128 0x3
 2776 0177 0E       		.uleb128 0xe
 2777 0178 49       		.uleb128 0x49
 2778 0179 13       		.uleb128 0x13
 2779 017a 34       		.uleb128 0x34
 2780 017b 19       		.uleb128 0x19
 2781 017c 1C       		.uleb128 0x1c
 2782 017d 0E       		.uleb128 0xe
 2783 017e 00       		.byte	0
 2784 017f 00       		.byte	0
 2785 0180 1F       		.uleb128 0x1f
 2786 0181 2E       		.uleb128 0x2e
ARM GAS  /tmp/ccdWlSBO.s 			page 82


 2787 0182 01       		.byte	0x1
 2788 0183 3F       		.uleb128 0x3f
 2789 0184 19       		.uleb128 0x19
 2790 0185 03       		.uleb128 0x3
 2791 0186 0E       		.uleb128 0xe
 2792 0187 3A       		.uleb128 0x3a
 2793 0188 0B       		.uleb128 0xb
 2794 0189 3B       		.uleb128 0x3b
 2795 018a 0B       		.uleb128 0xb
 2796 018b 27       		.uleb128 0x27
 2797 018c 19       		.uleb128 0x19
 2798 018d 49       		.uleb128 0x49
 2799 018e 13       		.uleb128 0x13
 2800 018f 20       		.uleb128 0x20
 2801 0190 0B       		.uleb128 0xb
 2802 0191 01       		.uleb128 0x1
 2803 0192 13       		.uleb128 0x13
 2804 0193 00       		.byte	0
 2805 0194 00       		.byte	0
 2806 0195 20       		.uleb128 0x20
 2807 0196 34       		.uleb128 0x34
 2808 0197 00       		.byte	0
 2809 0198 03       		.uleb128 0x3
 2810 0199 08       		.uleb128 0x8
 2811 019a 3A       		.uleb128 0x3a
 2812 019b 0B       		.uleb128 0xb
 2813 019c 3B       		.uleb128 0x3b
 2814 019d 0B       		.uleb128 0xb
 2815 019e 49       		.uleb128 0x49
 2816 019f 13       		.uleb128 0x13
 2817 01a0 00       		.byte	0
 2818 01a1 00       		.byte	0
 2819 01a2 21       		.uleb128 0x21
 2820 01a3 2E       		.uleb128 0x2e
 2821 01a4 01       		.byte	0x1
 2822 01a5 31       		.uleb128 0x31
 2823 01a6 13       		.uleb128 0x13
 2824 01a7 11       		.uleb128 0x11
 2825 01a8 01       		.uleb128 0x1
 2826 01a9 12       		.uleb128 0x12
 2827 01aa 06       		.uleb128 0x6
 2828 01ab 40       		.uleb128 0x40
 2829 01ac 18       		.uleb128 0x18
 2830 01ad 9742     		.uleb128 0x2117
 2831 01af 19       		.uleb128 0x19
 2832 01b0 01       		.uleb128 0x1
 2833 01b1 13       		.uleb128 0x13
 2834 01b2 00       		.byte	0
 2835 01b3 00       		.byte	0
 2836 01b4 22       		.uleb128 0x22
 2837 01b5 34       		.uleb128 0x34
 2838 01b6 00       		.byte	0
 2839 01b7 31       		.uleb128 0x31
 2840 01b8 13       		.uleb128 0x13
 2841 01b9 02       		.uleb128 0x2
 2842 01ba 18       		.uleb128 0x18
 2843 01bb 00       		.byte	0
ARM GAS  /tmp/ccdWlSBO.s 			page 83


 2844 01bc 00       		.byte	0
 2845 01bd 23       		.uleb128 0x23
 2846 01be 1D       		.uleb128 0x1d
 2847 01bf 01       		.byte	0x1
 2848 01c0 31       		.uleb128 0x31
 2849 01c1 13       		.uleb128 0x13
 2850 01c2 11       		.uleb128 0x11
 2851 01c3 01       		.uleb128 0x1
 2852 01c4 12       		.uleb128 0x12
 2853 01c5 06       		.uleb128 0x6
 2854 01c6 58       		.uleb128 0x58
 2855 01c7 0B       		.uleb128 0xb
 2856 01c8 59       		.uleb128 0x59
 2857 01c9 0B       		.uleb128 0xb
 2858 01ca 01       		.uleb128 0x1
 2859 01cb 13       		.uleb128 0x13
 2860 01cc 00       		.byte	0
 2861 01cd 00       		.byte	0
 2862 01ce 24       		.uleb128 0x24
 2863 01cf 1D       		.uleb128 0x1d
 2864 01d0 01       		.byte	0x1
 2865 01d1 31       		.uleb128 0x31
 2866 01d2 13       		.uleb128 0x13
 2867 01d3 11       		.uleb128 0x11
 2868 01d4 01       		.uleb128 0x1
 2869 01d5 12       		.uleb128 0x12
 2870 01d6 06       		.uleb128 0x6
 2871 01d7 58       		.uleb128 0x58
 2872 01d8 0B       		.uleb128 0xb
 2873 01d9 59       		.uleb128 0x59
 2874 01da 05       		.uleb128 0x5
 2875 01db 00       		.byte	0
 2876 01dc 00       		.byte	0
 2877 01dd 25       		.uleb128 0x25
 2878 01de 1D       		.uleb128 0x1d
 2879 01df 00       		.byte	0
 2880 01e0 31       		.uleb128 0x31
 2881 01e1 13       		.uleb128 0x13
 2882 01e2 11       		.uleb128 0x11
 2883 01e3 01       		.uleb128 0x1
 2884 01e4 12       		.uleb128 0x12
 2885 01e5 06       		.uleb128 0x6
 2886 01e6 58       		.uleb128 0x58
 2887 01e7 0B       		.uleb128 0xb
 2888 01e8 59       		.uleb128 0x59
 2889 01e9 05       		.uleb128 0x5
 2890 01ea 00       		.byte	0
 2891 01eb 00       		.byte	0
 2892 01ec 26       		.uleb128 0x26
 2893 01ed 1D       		.uleb128 0x1d
 2894 01ee 01       		.byte	0x1
 2895 01ef 31       		.uleb128 0x31
 2896 01f0 13       		.uleb128 0x13
 2897 01f1 11       		.uleb128 0x11
 2898 01f2 01       		.uleb128 0x1
 2899 01f3 12       		.uleb128 0x12
 2900 01f4 06       		.uleb128 0x6
ARM GAS  /tmp/ccdWlSBO.s 			page 84


 2901 01f5 58       		.uleb128 0x58
 2902 01f6 0B       		.uleb128 0xb
 2903 01f7 59       		.uleb128 0x59
 2904 01f8 0B       		.uleb128 0xb
 2905 01f9 00       		.byte	0
 2906 01fa 00       		.byte	0
 2907 01fb 27       		.uleb128 0x27
 2908 01fc 0B       		.uleb128 0xb
 2909 01fd 01       		.byte	0x1
 2910 01fe 11       		.uleb128 0x11
 2911 01ff 01       		.uleb128 0x1
 2912 0200 12       		.uleb128 0x12
 2913 0201 06       		.uleb128 0x6
 2914 0202 00       		.byte	0
 2915 0203 00       		.byte	0
 2916 0204 28       		.uleb128 0x28
 2917 0205 34       		.uleb128 0x34
 2918 0206 00       		.byte	0
 2919 0207 31       		.uleb128 0x31
 2920 0208 13       		.uleb128 0x13
 2921 0209 00       		.byte	0
 2922 020a 00       		.byte	0
 2923 020b 29       		.uleb128 0x29
 2924 020c 2E       		.uleb128 0x2e
 2925 020d 01       		.byte	0x1
 2926 020e 3F       		.uleb128 0x3f
 2927 020f 19       		.uleb128 0x19
 2928 0210 03       		.uleb128 0x3
 2929 0211 0E       		.uleb128 0xe
 2930 0212 3A       		.uleb128 0x3a
 2931 0213 0B       		.uleb128 0xb
 2932 0214 3B       		.uleb128 0x3b
 2933 0215 0B       		.uleb128 0xb
 2934 0216 27       		.uleb128 0x27
 2935 0217 19       		.uleb128 0x19
 2936 0218 49       		.uleb128 0x49
 2937 0219 13       		.uleb128 0x13
 2938 021a 11       		.uleb128 0x11
 2939 021b 01       		.uleb128 0x1
 2940 021c 12       		.uleb128 0x12
 2941 021d 06       		.uleb128 0x6
 2942 021e 40       		.uleb128 0x40
 2943 021f 18       		.uleb128 0x18
 2944 0220 9742     		.uleb128 0x2117
 2945 0222 19       		.uleb128 0x19
 2946 0223 01       		.uleb128 0x1
 2947 0224 13       		.uleb128 0x13
 2948 0225 00       		.byte	0
 2949 0226 00       		.byte	0
 2950 0227 2A       		.uleb128 0x2a
 2951 0228 05       		.uleb128 0x5
 2952 0229 00       		.byte	0
 2953 022a 03       		.uleb128 0x3
 2954 022b 08       		.uleb128 0x8
 2955 022c 3A       		.uleb128 0x3a
 2956 022d 0B       		.uleb128 0xb
 2957 022e 3B       		.uleb128 0x3b
ARM GAS  /tmp/ccdWlSBO.s 			page 85


 2958 022f 0B       		.uleb128 0xb
 2959 0230 49       		.uleb128 0x49
 2960 0231 13       		.uleb128 0x13
 2961 0232 02       		.uleb128 0x2
 2962 0233 17       		.uleb128 0x17
 2963 0234 00       		.byte	0
 2964 0235 00       		.byte	0
 2965 0236 2B       		.uleb128 0x2b
 2966 0237 34       		.uleb128 0x34
 2967 0238 00       		.byte	0
 2968 0239 03       		.uleb128 0x3
 2969 023a 08       		.uleb128 0x8
 2970 023b 3A       		.uleb128 0x3a
 2971 023c 0B       		.uleb128 0xb
 2972 023d 3B       		.uleb128 0x3b
 2973 023e 0B       		.uleb128 0xb
 2974 023f 49       		.uleb128 0x49
 2975 0240 13       		.uleb128 0x13
 2976 0241 02       		.uleb128 0x2
 2977 0242 17       		.uleb128 0x17
 2978 0243 00       		.byte	0
 2979 0244 00       		.byte	0
 2980 0245 2C       		.uleb128 0x2c
 2981 0246 34       		.uleb128 0x34
 2982 0247 00       		.byte	0
 2983 0248 03       		.uleb128 0x3
 2984 0249 0E       		.uleb128 0xe
 2985 024a 49       		.uleb128 0x49
 2986 024b 13       		.uleb128 0x13
 2987 024c 34       		.uleb128 0x34
 2988 024d 19       		.uleb128 0x19
 2989 024e 00       		.byte	0
 2990 024f 00       		.byte	0
 2991 0250 2D       		.uleb128 0x2d
 2992 0251 898201   		.uleb128 0x4109
 2993 0254 00       		.byte	0
 2994 0255 11       		.uleb128 0x11
 2995 0256 01       		.uleb128 0x1
 2996 0257 31       		.uleb128 0x31
 2997 0258 13       		.uleb128 0x13
 2998 0259 00       		.byte	0
 2999 025a 00       		.byte	0
 3000 025b 2E       		.uleb128 0x2e
 3001 025c 05       		.uleb128 0x5
 3002 025d 00       		.byte	0
 3003 025e 03       		.uleb128 0x3
 3004 025f 0E       		.uleb128 0xe
 3005 0260 3A       		.uleb128 0x3a
 3006 0261 0B       		.uleb128 0xb
 3007 0262 3B       		.uleb128 0x3b
 3008 0263 0B       		.uleb128 0xb
 3009 0264 49       		.uleb128 0x49
 3010 0265 13       		.uleb128 0x13
 3011 0266 02       		.uleb128 0x2
 3012 0267 17       		.uleb128 0x17
 3013 0268 00       		.byte	0
 3014 0269 00       		.byte	0
ARM GAS  /tmp/ccdWlSBO.s 			page 86


 3015 026a 2F       		.uleb128 0x2f
 3016 026b 34       		.uleb128 0x34
 3017 026c 00       		.byte	0
 3018 026d 31       		.uleb128 0x31
 3019 026e 13       		.uleb128 0x13
 3020 026f 02       		.uleb128 0x2
 3021 0270 17       		.uleb128 0x17
 3022 0271 00       		.byte	0
 3023 0272 00       		.byte	0
 3024 0273 30       		.uleb128 0x30
 3025 0274 898201   		.uleb128 0x4109
 3026 0277 01       		.byte	0x1
 3027 0278 11       		.uleb128 0x11
 3028 0279 01       		.uleb128 0x1
 3029 027a 31       		.uleb128 0x31
 3030 027b 13       		.uleb128 0x13
 3031 027c 01       		.uleb128 0x1
 3032 027d 13       		.uleb128 0x13
 3033 027e 00       		.byte	0
 3034 027f 00       		.byte	0
 3035 0280 31       		.uleb128 0x31
 3036 0281 8A8201   		.uleb128 0x410a
 3037 0284 00       		.byte	0
 3038 0285 02       		.uleb128 0x2
 3039 0286 18       		.uleb128 0x18
 3040 0287 9142     		.uleb128 0x2111
 3041 0289 18       		.uleb128 0x18
 3042 028a 00       		.byte	0
 3043 028b 00       		.byte	0
 3044 028c 32       		.uleb128 0x32
 3045 028d 898201   		.uleb128 0x4109
 3046 0290 01       		.byte	0x1
 3047 0291 11       		.uleb128 0x11
 3048 0292 01       		.uleb128 0x1
 3049 0293 31       		.uleb128 0x31
 3050 0294 13       		.uleb128 0x13
 3051 0295 00       		.byte	0
 3052 0296 00       		.byte	0
 3053 0297 33       		.uleb128 0x33
 3054 0298 34       		.uleb128 0x34
 3055 0299 00       		.byte	0
 3056 029a 03       		.uleb128 0x3
 3057 029b 08       		.uleb128 0x8
 3058 029c 3A       		.uleb128 0x3a
 3059 029d 0B       		.uleb128 0xb
 3060 029e 3B       		.uleb128 0x3b
 3061 029f 05       		.uleb128 0x5
 3062 02a0 49       		.uleb128 0x49
 3063 02a1 13       		.uleb128 0x13
 3064 02a2 3F       		.uleb128 0x3f
 3065 02a3 19       		.uleb128 0x19
 3066 02a4 3C       		.uleb128 0x3c
 3067 02a5 19       		.uleb128 0x19
 3068 02a6 00       		.byte	0
 3069 02a7 00       		.byte	0
 3070 02a8 34       		.uleb128 0x34
 3071 02a9 34       		.uleb128 0x34
ARM GAS  /tmp/ccdWlSBO.s 			page 87


 3072 02aa 00       		.byte	0
 3073 02ab 03       		.uleb128 0x3
 3074 02ac 0E       		.uleb128 0xe
 3075 02ad 3A       		.uleb128 0x3a
 3076 02ae 0B       		.uleb128 0xb
 3077 02af 3B       		.uleb128 0x3b
 3078 02b0 0B       		.uleb128 0xb
 3079 02b1 49       		.uleb128 0x49
 3080 02b2 13       		.uleb128 0x13
 3081 02b3 3F       		.uleb128 0x3f
 3082 02b4 19       		.uleb128 0x19
 3083 02b5 02       		.uleb128 0x2
 3084 02b6 18       		.uleb128 0x18
 3085 02b7 00       		.byte	0
 3086 02b8 00       		.byte	0
 3087 02b9 35       		.uleb128 0x35
 3088 02ba 2E       		.uleb128 0x2e
 3089 02bb 01       		.byte	0x1
 3090 02bc 3F       		.uleb128 0x3f
 3091 02bd 19       		.uleb128 0x19
 3092 02be 03       		.uleb128 0x3
 3093 02bf 0E       		.uleb128 0xe
 3094 02c0 3A       		.uleb128 0x3a
 3095 02c1 0B       		.uleb128 0xb
 3096 02c2 3B       		.uleb128 0x3b
 3097 02c3 0B       		.uleb128 0xb
 3098 02c4 27       		.uleb128 0x27
 3099 02c5 19       		.uleb128 0x19
 3100 02c6 3C       		.uleb128 0x3c
 3101 02c7 19       		.uleb128 0x19
 3102 02c8 01       		.uleb128 0x1
 3103 02c9 13       		.uleb128 0x13
 3104 02ca 00       		.byte	0
 3105 02cb 00       		.byte	0
 3106 02cc 36       		.uleb128 0x36
 3107 02cd 2E       		.uleb128 0x2e
 3108 02ce 01       		.byte	0x1
 3109 02cf 3F       		.uleb128 0x3f
 3110 02d0 19       		.uleb128 0x19
 3111 02d1 03       		.uleb128 0x3
 3112 02d2 0E       		.uleb128 0xe
 3113 02d3 3A       		.uleb128 0x3a
 3114 02d4 0B       		.uleb128 0xb
 3115 02d5 3B       		.uleb128 0x3b
 3116 02d6 0B       		.uleb128 0xb
 3117 02d7 27       		.uleb128 0x27
 3118 02d8 19       		.uleb128 0x19
 3119 02d9 49       		.uleb128 0x49
 3120 02da 13       		.uleb128 0x13
 3121 02db 3C       		.uleb128 0x3c
 3122 02dc 19       		.uleb128 0x19
 3123 02dd 00       		.byte	0
 3124 02de 00       		.byte	0
 3125 02df 00       		.byte	0
 3126              		.section	.debug_loc,"",%progbits
 3127              	.Ldebug_loc0:
 3128              	.LLST0:
ARM GAS  /tmp/ccdWlSBO.s 			page 88


 3129 0000 00000000 		.4byte	.LVL1
 3130 0004 19000000 		.4byte	.LVL4-1
 3131 0008 0100     		.2byte	0x1
 3132 000a 50       		.byte	0x50
 3133 000b 19000000 		.4byte	.LVL4-1
 3134 000f 1E000000 		.4byte	.LVL6
 3135 0013 0400     		.2byte	0x4
 3136 0015 F3       		.byte	0xf3
 3137 0016 01       		.uleb128 0x1
 3138 0017 50       		.byte	0x50
 3139 0018 9F       		.byte	0x9f
 3140 0019 1E000000 		.4byte	.LVL6
 3141 001d 28000000 		.4byte	.LFE150
 3142 0021 0100     		.2byte	0x1
 3143 0023 50       		.byte	0x50
 3144 0024 00000000 		.4byte	0
 3145 0028 00000000 		.4byte	0
 3146              	.LLST1:
 3147 002c 08000000 		.4byte	.LVL2
 3148 0030 1C000000 		.4byte	.LVL5
 3149 0034 0100     		.2byte	0x1
 3150 0036 54       		.byte	0x54
 3151 0037 1C000000 		.4byte	.LVL5
 3152 003b 1E000000 		.4byte	.LVL6
 3153 003f 0100     		.2byte	0x1
 3154 0041 50       		.byte	0x50
 3155 0042 1E000000 		.4byte	.LVL6
 3156 0046 20000000 		.4byte	.LVL7
 3157 004a 0100     		.2byte	0x1
 3158 004c 54       		.byte	0x54
 3159 004d 20000000 		.4byte	.LVL7
 3160 0051 28000000 		.4byte	.LFE150
 3161 0055 0200     		.2byte	0x2
 3162 0057 70       		.byte	0x70
 3163 0058 10       		.sleb128 16
 3164 0059 00000000 		.4byte	0
 3165 005d 00000000 		.4byte	0
 3166              	.LLST2:
 3167 0061 00000000 		.4byte	.LVL8
 3168 0065 16000000 		.4byte	.LVL10
 3169 0069 0100     		.2byte	0x1
 3170 006b 50       		.byte	0x50
 3171 006c 16000000 		.4byte	.LVL10
 3172 0070 2E000000 		.4byte	.LVL17
 3173 0074 0100     		.2byte	0x1
 3174 0076 55       		.byte	0x55
 3175 0077 2E000000 		.4byte	.LVL17
 3176 007b 30000000 		.4byte	.LVL18
 3177 007f 0400     		.2byte	0x4
 3178 0081 F3       		.byte	0xf3
 3179 0082 01       		.uleb128 0x1
 3180 0083 50       		.byte	0x50
 3181 0084 9F       		.byte	0x9f
 3182 0085 30000000 		.4byte	.LVL18
 3183 0089 38000000 		.4byte	.LFE151
 3184 008d 0100     		.2byte	0x1
 3185 008f 55       		.byte	0x55
ARM GAS  /tmp/ccdWlSBO.s 			page 89


 3186 0090 00000000 		.4byte	0
 3187 0094 00000000 		.4byte	0
 3188              	.LLST3:
 3189 0098 16000000 		.4byte	.LVL10
 3190 009c 1E000000 		.4byte	.LVL12
 3191 00a0 0100     		.2byte	0x1
 3192 00a2 54       		.byte	0x54
 3193 00a3 1E000000 		.4byte	.LVL12
 3194 00a7 20000000 		.4byte	.LVL13
 3195 00ab 0100     		.2byte	0x1
 3196 00ad 50       		.byte	0x50
 3197 00ae 20000000 		.4byte	.LVL13
 3198 00b2 2E000000 		.4byte	.LVL16
 3199 00b6 0100     		.2byte	0x1
 3200 00b8 54       		.byte	0x54
 3201 00b9 30000000 		.4byte	.LVL18
 3202 00bd 32000000 		.4byte	.LVL19
 3203 00c1 0100     		.2byte	0x1
 3204 00c3 50       		.byte	0x50
 3205 00c4 32000000 		.4byte	.LVL19
 3206 00c8 38000000 		.4byte	.LFE151
 3207 00cc 0100     		.2byte	0x1
 3208 00ce 54       		.byte	0x54
 3209 00cf 00000000 		.4byte	0
 3210 00d3 00000000 		.4byte	0
 3211              	.LLST4:
 3212 00d7 0A000000 		.4byte	.LVL9
 3213 00db 16000000 		.4byte	.LVL10
 3214 00df 0100     		.2byte	0x1
 3215 00e1 54       		.byte	0x54
 3216 00e2 00000000 		.4byte	0
 3217 00e6 00000000 		.4byte	0
 3218              	.LLST5:
 3219 00ea 00000000 		.4byte	.LVL20
 3220 00ee 0A000000 		.4byte	.LVL21
 3221 00f2 0100     		.2byte	0x1
 3222 00f4 50       		.byte	0x50
 3223 00f5 0A000000 		.4byte	.LVL21
 3224 00f9 26000000 		.4byte	.LVL26
 3225 00fd 0100     		.2byte	0x1
 3226 00ff 54       		.byte	0x54
 3227 0100 26000000 		.4byte	.LVL26
 3228 0104 28000000 		.4byte	.LVL27
 3229 0108 0400     		.2byte	0x4
 3230 010a F3       		.byte	0xf3
 3231 010b 01       		.uleb128 0x1
 3232 010c 50       		.byte	0x50
 3233 010d 9F       		.byte	0x9f
 3234 010e 28000000 		.4byte	.LVL27
 3235 0112 30000000 		.4byte	.LFE152
 3236 0116 0100     		.2byte	0x1
 3237 0118 54       		.byte	0x54
 3238 0119 00000000 		.4byte	0
 3239 011d 00000000 		.4byte	0
 3240              	.LLST6:
 3241 0121 14000000 		.4byte	.LVL22
 3242 0125 21000000 		.4byte	.LVL24-1
ARM GAS  /tmp/ccdWlSBO.s 			page 90


 3243 0129 0100     		.2byte	0x1
 3244 012b 50       		.byte	0x50
 3245 012c 22000000 		.4byte	.LVL24
 3246 0130 26000000 		.4byte	.LVL25
 3247 0134 0100     		.2byte	0x1
 3248 0136 50       		.byte	0x50
 3249 0137 28000000 		.4byte	.LVL27
 3250 013b 2A000000 		.4byte	.LVL28
 3251 013f 0100     		.2byte	0x1
 3252 0141 50       		.byte	0x50
 3253 0142 00000000 		.4byte	0
 3254 0146 00000000 		.4byte	0
 3255              	.LLST7:
 3256 014a 0A000000 		.4byte	.LVL21
 3257 014e 1A000000 		.4byte	.LVL23
 3258 0152 0100     		.2byte	0x1
 3259 0154 50       		.byte	0x50
 3260 0155 00000000 		.4byte	0
 3261 0159 00000000 		.4byte	0
 3262              	.LLST8:
 3263 015d 00000000 		.4byte	.LVL29
 3264 0161 0A000000 		.4byte	.LVL30
 3265 0165 0100     		.2byte	0x1
 3266 0167 50       		.byte	0x50
 3267 0168 0A000000 		.4byte	.LVL30
 3268 016c 24000000 		.4byte	.LVL35
 3269 0170 0100     		.2byte	0x1
 3270 0172 54       		.byte	0x54
 3271 0173 24000000 		.4byte	.LVL35
 3272 0177 2C000000 		.4byte	.LFE153
 3273 017b 0400     		.2byte	0x4
 3274 017d F3       		.byte	0xf3
 3275 017e 01       		.uleb128 0x1
 3276 017f 50       		.byte	0x50
 3277 0180 9F       		.byte	0x9f
 3278 0181 00000000 		.4byte	0
 3279 0185 00000000 		.4byte	0
 3280              	.LLST9:
 3281 0189 16000000 		.4byte	.LVL31
 3282 018d 19000000 		.4byte	.LVL32-1
 3283 0191 0100     		.2byte	0x1
 3284 0193 50       		.byte	0x50
 3285 0194 1A000000 		.4byte	.LVL32
 3286 0198 2C000000 		.4byte	.LFE153
 3287 019c 0100     		.2byte	0x1
 3288 019e 50       		.byte	0x50
 3289 019f 00000000 		.4byte	0
 3290 01a3 00000000 		.4byte	0
 3291              	.LLST10:
 3292 01a7 0A000000 		.4byte	.LVL30
 3293 01ab 16000000 		.4byte	.LVL31
 3294 01af 0100     		.2byte	0x1
 3295 01b1 50       		.byte	0x50
 3296 01b2 00000000 		.4byte	0
 3297 01b6 00000000 		.4byte	0
 3298              		.section	.debug_aranges,"",%progbits
 3299 0000 3C000000 		.4byte	0x3c
ARM GAS  /tmp/ccdWlSBO.s 			page 91


 3300 0004 0200     		.2byte	0x2
 3301 0006 00000000 		.4byte	.Ldebug_info0
 3302 000a 04       		.byte	0x4
 3303 000b 00       		.byte	0
 3304 000c 0000     		.2byte	0
 3305 000e 0000     		.2byte	0
 3306 0010 00000000 		.4byte	.LFB149
 3307 0014 18000000 		.4byte	.LFE149-.LFB149
 3308 0018 00000000 		.4byte	.LFB150
 3309 001c 28000000 		.4byte	.LFE150-.LFB150
 3310 0020 00000000 		.4byte	.LFB151
 3311 0024 38000000 		.4byte	.LFE151-.LFB151
 3312 0028 00000000 		.4byte	.LFB152
 3313 002c 30000000 		.4byte	.LFE152-.LFB152
 3314 0030 00000000 		.4byte	.LFB153
 3315 0034 2C000000 		.4byte	.LFE153-.LFB153
 3316 0038 00000000 		.4byte	0
 3317 003c 00000000 		.4byte	0
 3318              		.section	.debug_ranges,"",%progbits
 3319              	.Ldebug_ranges0:
 3320 0000 00000000 		.4byte	.LFB149
 3321 0004 18000000 		.4byte	.LFE149
 3322 0008 00000000 		.4byte	.LFB150
 3323 000c 28000000 		.4byte	.LFE150
 3324 0010 00000000 		.4byte	.LFB151
 3325 0014 38000000 		.4byte	.LFE151
 3326 0018 00000000 		.4byte	.LFB152
 3327 001c 30000000 		.4byte	.LFE152
 3328 0020 00000000 		.4byte	.LFB153
 3329 0024 2C000000 		.4byte	.LFE153
 3330 0028 00000000 		.4byte	0
 3331 002c 00000000 		.4byte	0
 3332              		.section	.debug_line,"",%progbits
 3333              	.Ldebug_line0:
 3334 0000 C9020000 		.section	.debug_str,"MS",%progbits,1
 3334      0200E301 
 3334      00000201 
 3334      FB0E0D00 
 3334      01010101 
 3335              	.LASF49:
 3336 0000 63685F74 		.ascii	"ch_threads_list\000"
 3336      68726561 
 3336      64735F6C 
 3336      69737400 
 3337              	.LASF93:
 3338 0010 74696D65 		.ascii	"timesize\000"
 3338      73697A65 
 3338      00
 3339              	.LASF83:
 3340 0019 77746D74 		.ascii	"wtmtxp\000"
 3340      787000
 3341              	.LASF73:
 3342 0020 72656761 		.ascii	"regarm_t\000"
 3342      726D5F74 
 3342      00
 3343              	.LASF126:
 3344 0029 63685379 		.ascii	"chSysUnlock\000"
ARM GAS  /tmp/ccdWlSBO.s 			page 92


 3344      73556E6C 
 3344      6F636B00 
 3345              	.LASF38:
 3346 0035 666C6167 		.ascii	"flags\000"
 3346      7300
 3347              	.LASF29:
 3348 003b 73797374 		.ascii	"systime_t\000"
 3348      696D655F 
 3348      7400
 3349              	.LASF44:
 3350 0045 7265616C 		.ascii	"realprio\000"
 3350      7072696F 
 3350      00
 3351              	.LASF116:
 3352 004e 63685265 		.ascii	"chRegNextThread\000"
 3352      674E6578 
 3352      74546872 
 3352      65616400 
 3353              	.LASF118:
 3354 005e 63685265 		.ascii	"chRegFindThreadByPointer\000"
 3354      6746696E 
 3354      64546872 
 3354      65616442 
 3354      79506F69 
 3355              	.LASF42:
 3356 0077 6570656E 		.ascii	"epending\000"
 3356      64696E67 
 3356      00
 3357              	.LASF0:
 3358 0080 756E7369 		.ascii	"unsigned int\000"
 3358      676E6564 
 3358      20696E74 
 3358      00
 3359              	.LASF50:
 3360 008d 6E657874 		.ascii	"next\000"
 3360      00
 3361              	.LASF91:
 3362 0092 76657273 		.ascii	"version\000"
 3362      696F6E00 
 3363              	.LASF47:
 3364 009a 74687265 		.ascii	"threads_list_t\000"
 3364      6164735F 
 3364      6C697374 
 3364      5F7400
 3365              	.LASF8:
 3366 00a9 5F5F696E 		.ascii	"__int32_t\000"
 3366      7433325F 
 3366      7400
 3367              	.LASF39:
 3368 00b3 72656673 		.ascii	"refs\000"
 3368      00
 3369              	.LASF105:
 3370 00b8 6F66665F 		.ascii	"off_time\000"
 3370      74696D65 
 3370      00
 3371              	.LASF79:
 3372 00c1 77746F62 		.ascii	"wtobjp\000"
ARM GAS  /tmp/ccdWlSBO.s 			page 93


 3372      6A7000
 3373              	.LASF110:
 3374 00c8 706F7274 		.ascii	"port_lock\000"
 3374      5F6C6F63 
 3374      6B00
 3375              	.LASF71:
 3376 00d2 76746C69 		.ascii	"vtlist\000"
 3376      737400
 3377              	.LASF75:
 3378 00d9 706F7274 		.ascii	"port_context\000"
 3378      5F636F6E 
 3378      74657874 
 3378      00
 3379              	.LASF55:
 3380 00e6 63685F72 		.ascii	"ch_ready_list\000"
 3380      65616479 
 3380      5F6C6973 
 3380      7400
 3381              	.LASF61:
 3382 00f4 66756E63 		.ascii	"func\000"
 3382      00
 3383              	.LASF84:
 3384 00f9 65776D61 		.ascii	"ewmask\000"
 3384      736B00
 3385              	.LASF124:
 3386 0100 2E2E2F2E 		.ascii	"../../../os/rt/src/chregistry.c\000"
 3386      2E2F2E2E 
 3386      2F6F732F 
 3386      72742F73 
 3386      72632F63 
 3387              	.LASF53:
 3388 0120 70726576 		.ascii	"prev\000"
 3388      00
 3389              	.LASF52:
 3390 0125 63685F74 		.ascii	"ch_threads_queue\000"
 3390      68726561 
 3390      64735F71 
 3390      75657565 
 3390      00
 3391              	.LASF113:
 3392 0136 63685265 		.ascii	"chRegGetThreadNameX\000"
 3392      67476574 
 3392      54687265 
 3392      61644E61 
 3392      6D655800 
 3393              	.LASF97:
 3394 014a 6F66665F 		.ascii	"off_newer\000"
 3394      6E657765 
 3394      7200
 3395              	.LASF57:
 3396 0154 76746675 		.ascii	"vtfunc_t\000"
 3396      6E635F74 
 3396      00
 3397              	.LASF66:
 3398 015d 63685F73 		.ascii	"ch_system_debug\000"
 3398      79737465 
 3398      6D5F6465 
ARM GAS  /tmp/ccdWlSBO.s 			page 94


 3398      62756700 
 3399              	.LASF123:
 3400 016d 474E5520 		.ascii	"GNU C 4.8.3 -mcpu=cortex-m0 -mno-thumb-interwork -m"
 3400      4320342E 
 3400      382E3320 
 3400      2D6D6370 
 3400      753D636F 
 3401 01a0 7468756D 		.ascii	"thumb -ggdb -O2 -fomit-frame-pointer -falign-functi"
 3401      62202D67 
 3401      67646220 
 3401      2D4F3220 
 3401      2D666F6D 
 3402 01d3 6F6E733D 		.ascii	"ons=16 -ffunction-sections -fdata-sections -fno-com"
 3402      3136202D 
 3402      6666756E 
 3402      6374696F 
 3402      6E2D7365 
 3403 0206 6D6F6E20 		.ascii	"mon -flto\000"
 3403      2D666C74 
 3403      6F00
 3404              	.LASF20:
 3405 0210 75696E74 		.ascii	"uint32_t\000"
 3405      33325F74 
 3405      00
 3406              	.LASF81:
 3407 0219 73656E74 		.ascii	"sentmsg\000"
 3407      6D736700 
 3408              	.LASF27:
 3409 0221 6576656E 		.ascii	"eventmask_t\000"
 3409      746D6173 
 3409      6B5F7400 
 3410              	.LASF94:
 3411 022d 74687265 		.ascii	"threadsize\000"
 3411      61647369 
 3411      7A6500
 3412              	.LASF85:
 3413 0238 63685F73 		.ascii	"ch_semaphore\000"
 3413      656D6170 
 3413      686F7265 
 3413      00
 3414              	.LASF25:
 3415 0245 74707269 		.ascii	"tprio_t\000"
 3415      6F5F7400 
 3416              	.LASF59:
 3417 024d 63685F76 		.ascii	"ch_virtual_timer\000"
 3417      69727475 
 3417      616C5F74 
 3417      696D6572 
 3417      00
 3418              	.LASF119:
 3419 025e 63685265 		.ascii	"chRegFindThreadByWorkingArea\000"
 3419      6746696E 
 3419      64546872 
 3419      65616442 
 3419      79576F72 
 3420              	.LASF14:
 3421 027b 6C6F6E67 		.ascii	"long long unsigned int\000"
ARM GAS  /tmp/ccdWlSBO.s 			page 95


 3421      206C6F6E 
 3421      6720756E 
 3421      7369676E 
 3421      65642069 
 3422              	.LASF6:
 3423 0292 5F5F7569 		.ascii	"__uint16_t\000"
 3423      6E743136 
 3423      5F7400
 3424              	.LASF28:
 3425 029d 636E745F 		.ascii	"cnt_t\000"
 3425      7400
 3426              	.LASF100:
 3427 02a3 6F66665F 		.ascii	"off_stklimit\000"
 3427      73746B6C 
 3427      696D6974 
 3427      00
 3428              	.LASF87:
 3429 02b0 6F776E65 		.ascii	"owner\000"
 3429      7200
 3430              	.LASF51:
 3431 02b6 74687265 		.ascii	"threads_queue_t\000"
 3431      6164735F 
 3431      71756575 
 3431      655F7400 
 3432              	.LASF43:
 3433 02c6 6D74786C 		.ascii	"mtxlist\000"
 3433      69737400 
 3434              	.LASF63:
 3435 02ce 63685F76 		.ascii	"ch_virtual_timers_list\000"
 3435      69727475 
 3435      616C5F74 
 3435      696D6572 
 3435      735F6C69 
 3436              	.LASF30:
 3437 02e5 74687265 		.ascii	"thread_t\000"
 3437      61645F74 
 3437      00
 3438              	.LASF98:
 3439 02ee 6F66665F 		.ascii	"off_older\000"
 3439      6F6C6465 
 3439      7200
 3440              	.LASF101:
 3441 02f8 6F66665F 		.ascii	"off_state\000"
 3441      73746174 
 3441      6500
 3442              	.LASF2:
 3443 0302 73697A65 		.ascii	"size_t\000"
 3443      5F7400
 3444              	.LASF77:
 3445 0309 7264796D 		.ascii	"rdymsg\000"
 3445      736700
 3446              	.LASF108:
 3447 0310 5F5F6469 		.ascii	"__disable_irq\000"
 3447      7361626C 
 3447      655F6972 
 3447      7100
 3448              	.LASF86:
ARM GAS  /tmp/ccdWlSBO.s 			page 96


 3449 031e 63685F6D 		.ascii	"ch_mutex\000"
 3449      75746578 
 3449      00
 3450              	.LASF13:
 3451 0327 5F5F7569 		.ascii	"__uint64_t\000"
 3451      6E743634 
 3451      5F7400
 3452              	.LASF112:
 3453 0332 63685468 		.ascii	"chThdGetWorkingAreaX\000"
 3453      64476574 
 3453      576F726B 
 3453      696E6741 
 3453      72656158 
 3454              	.LASF96:
 3455 0347 6F66665F 		.ascii	"off_ctx\000"
 3455      63747800 
 3456              	.LASF114:
 3457 034f 63685379 		.ascii	"chSysLock\000"
 3457      734C6F63 
 3457      6B00
 3458              	.LASF102:
 3459 0359 6F66665F 		.ascii	"off_flags\000"
 3459      666C6167 
 3459      7300
 3460              	.LASF32:
 3461 0363 7072696F 		.ascii	"prio\000"
 3461      00
 3462              	.LASF16:
 3463 0368 63686172 		.ascii	"char\000"
 3463      00
 3464              	.LASF46:
 3465 036d 74687265 		.ascii	"thread_reference_t\000"
 3465      61645F72 
 3465      65666572 
 3465      656E6365 
 3465      5F7400
 3466              	.LASF36:
 3467 0380 77616261 		.ascii	"wabase\000"
 3467      736500
 3468              	.LASF23:
 3469 0387 74737461 		.ascii	"tstate_t\000"
 3469      74655F74 
 3469      00
 3470              	.LASF128:
 3471 0390 5F5F6675 		.ascii	"__func__.5901\000"
 3471      6E635F5F 
 3471      2E353930 
 3471      3100
 3472              	.LASF17:
 3473 039e 75696E74 		.ascii	"uint8_t\000"
 3473      385F7400 
 3474              	.LASF41:
 3475 03a6 6D736771 		.ascii	"msgqueue\000"
 3475      75657565 
 3475      00
 3476              	.LASF48:
 3477 03af 63685F74 		.ascii	"ch_thread\000"
ARM GAS  /tmp/ccdWlSBO.s 			page 97


 3477      68726561 
 3477      6400
 3478              	.LASF99:
 3479 03b9 6F66665F 		.ascii	"off_name\000"
 3479      6E616D65 
 3479      00
 3480              	.LASF65:
 3481 03c2 73797374 		.ascii	"system_debug_t\000"
 3481      656D5F64 
 3481      65627567 
 3481      5F7400
 3482              	.LASF115:
 3483 03d1 5F5F6675 		.ascii	"__func__.5222\000"
 3483      6E635F5F 
 3483      2E353232 
 3483      3200
 3484              	.LASF12:
 3485 03df 6C6F6E67 		.ascii	"long long int\000"
 3485      206C6F6E 
 3485      6720696E 
 3485      7400
 3486              	.LASF89:
 3487 03ed 7A65726F 		.ascii	"zero\000"
 3487      00
 3488              	.LASF26:
 3489 03f2 6D73675F 		.ascii	"msg_t\000"
 3489      7400
 3490              	.LASF58:
 3491 03f8 76697274 		.ascii	"virtual_timer_t\000"
 3491      75616C5F 
 3491      74696D65 
 3491      725F7400 
 3492              	.LASF90:
 3493 0408 73697A65 		.ascii	"size\000"
 3493      00
 3494              	.LASF92:
 3495 040d 70747273 		.ascii	"ptrsize\000"
 3495      697A6500 
 3496              	.LASF121:
 3497 0415 63685468 		.ascii	"chThdRelease\000"
 3497      6452656C 
 3497      65617365 
 3497      00
 3498              	.LASF67:
 3499 0422 70616E69 		.ascii	"panic_msg\000"
 3499      635F6D73 
 3499      6700
 3500              	.LASF22:
 3501 042c 746D6F64 		.ascii	"tmode_t\000"
 3501      655F7400 
 3502              	.LASF72:
 3503 0434 6D61696E 		.ascii	"mainthread\000"
 3503      74687265 
 3503      616400
 3504              	.LASF18:
 3505 043f 75696E74 		.ascii	"uint16_t\000"
 3505      31365F74 
ARM GAS  /tmp/ccdWlSBO.s 			page 98


 3505      00
 3506              	.LASF106:
 3507 0448 63686465 		.ascii	"chdebug_t\000"
 3507      6275675F 
 3507      7400
 3508              	.LASF95:
 3509 0452 6F66665F 		.ascii	"off_prio\000"
 3509      7072696F 
 3509      00
 3510              	.LASF5:
 3511 045b 73686F72 		.ascii	"short int\000"
 3511      7420696E 
 3511      7400
 3512              	.LASF9:
 3513 0465 6C6F6E67 		.ascii	"long int\000"
 3513      20696E74 
 3513      00
 3514              	.LASF76:
 3515 046e 706F7274 		.ascii	"port_intctx\000"
 3515      5F696E74 
 3515      63747800 
 3516              	.LASF109:
 3517 047a 5F5F656E 		.ascii	"__enable_irq\000"
 3517      61626C65 
 3517      5F697271 
 3517      00
 3518              	.LASF69:
 3519 0487 63685F73 		.ascii	"ch_system\000"
 3519      79737465 
 3519      6D00
 3520              	.LASF64:
 3521 0491 6C617374 		.ascii	"lasttime\000"
 3521      74696D65 
 3521      00
 3522              	.LASF21:
 3523 049a 75696E74 		.ascii	"uint64_t\000"
 3523      36345F74 
 3523      00
 3524              	.LASF70:
 3525 04a3 726C6973 		.ascii	"rlist\000"
 3525      7400
 3526              	.LASF3:
 3527 04a9 5F5F7569 		.ascii	"__uint8_t\000"
 3527      6E74385F 
 3527      7400
 3528              	.LASF35:
 3529 04b3 6E616D65 		.ascii	"name\000"
 3529      00
 3530              	.LASF88:
 3531 04b8 6964656E 		.ascii	"identifier\000"
 3531      74696669 
 3531      657200
 3532              	.LASF104:
 3533 04c3 6F66665F 		.ascii	"off_preempt\000"
 3533      70726565 
 3533      6D707400 
 3534              	.LASF15:
ARM GAS  /tmp/ccdWlSBO.s 			page 99


 3535 04cf 73697A65 		.ascii	"sizetype\000"
 3535      74797065 
 3535      00
 3536              	.LASF24:
 3537 04d8 74726566 		.ascii	"trefs_t\000"
 3537      735F7400 
 3538              	.LASF11:
 3539 04e0 6C6F6E67 		.ascii	"long unsigned int\000"
 3539      20756E73 
 3539      69676E65 
 3539      6420696E 
 3539      7400
 3540              	.LASF54:
 3541 04f2 72656164 		.ascii	"ready_list_t\000"
 3541      795F6C69 
 3541      73745F74 
 3541      00
 3542              	.LASF117:
 3543 04ff 63685265 		.ascii	"chRegFindThreadByName\000"
 3543      6746696E 
 3543      64546872 
 3543      65616442 
 3543      794E616D 
 3544              	.LASF31:
 3545 0515 71756575 		.ascii	"queue\000"
 3545      6500
 3546              	.LASF19:
 3547 051b 696E7433 		.ascii	"int32_t\000"
 3547      325F7400 
 3548              	.LASF82:
 3549 0523 77747365 		.ascii	"wtsemp\000"
 3549      6D7000
 3550              	.LASF107:
 3551 052a 6D757465 		.ascii	"mutex_t\000"
 3551      785F7400 
 3552              	.LASF33:
 3553 0532 6E657765 		.ascii	"newer\000"
 3553      7200
 3554              	.LASF4:
 3555 0538 756E7369 		.ascii	"unsigned char\000"
 3555      676E6564 
 3555      20636861 
 3555      7200
 3556              	.LASF10:
 3557 0546 5F5F7569 		.ascii	"__uint32_t\000"
 3557      6E743332 
 3557      5F7400
 3558              	.LASF40:
 3559 0551 77616974 		.ascii	"waiting\000"
 3559      696E6700 
 3560              	.LASF62:
 3561 0559 76697274 		.ascii	"virtual_timers_list_t\000"
 3561      75616C5F 
 3561      74696D65 
 3561      72735F6C 
 3561      6973745F 
 3562              	.LASF127:
ARM GAS  /tmp/ccdWlSBO.s 			page 100


 3563 056f 63685265 		.ascii	"chRegFirstThread\000"
 3563      67466972 
 3563      73745468 
 3563      72656164 
 3563      00
 3564              	.LASF37:
 3565 0580 73746174 		.ascii	"state\000"
 3565      6500
 3566              	.LASF68:
 3567 0586 63685F73 		.ascii	"ch_system_t\000"
 3567      79737465 
 3567      6D5F7400 
 3568              	.LASF80:
 3569 0592 77747472 		.ascii	"wttrp\000"
 3569      7000
 3570              	.LASF1:
 3571 0598 7369676E 		.ascii	"signed char\000"
 3571      65642063 
 3571      68617200 
 3572              	.LASF60:
 3573 05a4 64656C74 		.ascii	"delta\000"
 3573      6100
 3574              	.LASF7:
 3575 05aa 73686F72 		.ascii	"short unsigned int\000"
 3575      7420756E 
 3575      7369676E 
 3575      65642069 
 3575      6E7400
 3576              	.LASF74:
 3577 05bd 73746B61 		.ascii	"stkalign_t\000"
 3577      6C69676E 
 3577      5F7400
 3578              	.LASF103:
 3579 05c8 6F66665F 		.ascii	"off_refs\000"
 3579      72656673 
 3579      00
 3580              	.LASF56:
 3581 05d1 63757272 		.ascii	"current\000"
 3581      656E7400 
 3582              	.LASF120:
 3583 05d9 63685F64 		.ascii	"ch_debug\000"
 3583      65627567 
 3583      00
 3584              	.LASF111:
 3585 05e2 706F7274 		.ascii	"port_unlock\000"
 3585      5F756E6C 
 3585      6F636B00 
 3586              	.LASF34:
 3587 05ee 6F6C6465 		.ascii	"older\000"
 3587      7200
 3588              	.LASF125:
 3589 05f4 2F686F6D 		.ascii	"/home/awygle/ChibiOS-RT/demos/STM32/RT-STM32F030R8-"
 3589      652F6177 
 3589      79676C65 
 3589      2F436869 
 3589      62694F53 
 3590 0627 4E55434C 		.ascii	"NUCLEO64\000"
ARM GAS  /tmp/ccdWlSBO.s 			page 101


 3590      454F3634 
 3590      00
 3591              	.LASF78:
 3592 0630 65786974 		.ascii	"exitcode\000"
 3592      636F6465 
 3592      00
 3593              	.LASF122:
 3594 0639 73747263 		.ascii	"strcmp\000"
 3594      6D7000
 3595              	.LASF45:
 3596 0640 6D706F6F 		.ascii	"mpool\000"
 3596      6C00
 3597              		.comm	__gnu_lto_v1,1,1
 3598              		.ident	"GCC: (4.8.3-18ubuntu2+12) 4.8.3"
ARM GAS  /tmp/ccdWlSBO.s 			page 102


DEFINED SYMBOLS
                            *ABS*:0000000000000000 chregistry.c
     /tmp/ccdWlSBO.s:540    .text.chRegFirstThread:0000000000000000 $t
     /tmp/ccdWlSBO.s:546    .text.chRegFirstThread:0000000000000000 chRegFirstThread
     /tmp/ccdWlSBO.s:595    .text.chRegFirstThread:0000000000000014 $d
     /tmp/ccdWlSBO.s:600    .text.chRegNextThread:0000000000000000 $t
     /tmp/ccdWlSBO.s:606    .text.chRegNextThread:0000000000000000 chRegNextThread
     /tmp/ccdWlSBO.s:675    .text.chRegNextThread:0000000000000024 $d
     /tmp/ccdWlSBO.s:680    .text.chRegFindThreadByName:0000000000000000 $t
     /tmp/ccdWlSBO.s:686    .text.chRegFindThreadByName:0000000000000000 chRegFindThreadByName
     /tmp/ccdWlSBO.s:777    .text.chRegFindThreadByName:0000000000000034 $d
     /tmp/ccdWlSBO.s:782    .text.chRegFindThreadByPointer:0000000000000000 $t
     /tmp/ccdWlSBO.s:788    .text.chRegFindThreadByPointer:0000000000000000 chRegFindThreadByPointer
     /tmp/ccdWlSBO.s:871    .text.chRegFindThreadByPointer:000000000000002c $d
     /tmp/ccdWlSBO.s:876    .text.chRegFindThreadByWorkingArea:0000000000000000 $t
     /tmp/ccdWlSBO.s:882    .text.chRegFindThreadByWorkingArea:0000000000000000 chRegFindThreadByWorkingArea
     /tmp/ccdWlSBO.s:958    .text.chRegFindThreadByWorkingArea:0000000000000028 $d
     /tmp/ccdWlSBO.s:967    .rodata.ch_debug:0000000000000000 ch_debug
     /tmp/ccdWlSBO.s:964    .rodata.ch_debug:0000000000000000 $d
                            *COM*:0000000000000001 __gnu_lto_v1
                     .debug_frame:0000000000000010 $d
     /tmp/ccdWlSBO.s:599    .text.chRegFirstThread:0000000000000018 $t
     /tmp/ccdWlSBO.s:679    .text.chRegNextThread:0000000000000028 $t
     /tmp/ccdWlSBO.s:781    .text.chRegFindThreadByName:0000000000000038 $t
     /tmp/ccdWlSBO.s:963    .text.chRegFindThreadByWorkingArea:000000000000002c $t

UNDEFINED SYMBOLS
ch
chThdRelease
strcmp
