ARM GAS  /tmp/ccdWlSBO.s 			page 1


   1              		.cpu cortex-m0
   2              		.fpu softvfp
   3              		.eabi_attribute 20, 1
   4              		.eabi_attribute 21, 1
   5              		.eabi_attribute 23, 3
   6              		.eabi_attribute 24, 1
   7              		.eabi_attribute 25, 1
   8              		.eabi_attribute 26, 1
   9              		.eabi_attribute 30, 2
  10              		.eabi_attribute 34, 0
  11              		.eabi_attribute 18, 4
  12              		.code	16
  13              		.file	"chregistry.c"
  14              		.text
  15              	.Ltext0:
  16              		.section	.gnu.lto_.jmpfuncs.6c2c6828e09f013,"",%progbits
  17 0000 789C6362 		.ascii	"x\234cb`b\300\006\224\2404+\003\003\023##\003\0033\210"
  17      6062C006 
  17      94A0342B 
  17      03031323 
  17      23030333 
  18 0015 002A6506 		.ascii	"\000*e\006\212\22510\260\200\270\254 \202\001\000\017"
  18      8A953130 
  18      B080B8AC 
  18      20820100 
  18      0F
  19 0026 B600BD   		.ascii	"\266\000\275"
  20              		.text
  21              		.section	.gnu.lto_.inline.6c2c6828e09f013,"",%progbits
  22 0000 789C6362 		.ascii	"x\234cb`b\300\006z\2404+\003\003'\007#\003\023\317\203"
  22      6062C006 
  22      7AA0342B 
  22      03032707 
  22      230313CF 
  23 0015 5806B605 		.ascii	"X\006\266\005\362`\305L\014\274\242@!\376\005%\014\354"
  23      F260C54C 
  23      0CBCA240 
  23      21FE0525 
  23      0CEC
  24 0027 1DEA1021 		.ascii	"\035\352\020!n\006\006\306\011~\314\014\242\327\230"
  24      6E0606C6 
  24      097ECC0C 
  24      A2D798
  25 0036 80526287 		.ascii	"\200Rb\207\216\262\303\2253\3630\202\344Xx\201\022\023"
  25      8EB2C395 
  25      33F33082 
  25      E4587881 
  25      1213
  26 0048 FC3EB0B1 		.ascii	"\374>\260\2610\010lg\004\262E\376LfCW\304\312 x\210"
  26      30086C67 
  26      04B245FE 
  26      4C664357 
  26      C4CA2078 
  27 005d 1187010C 		.ascii	"\021\207\001\014\000r-\024A"
  27      00722D14 
  27      41
  28              		.text
ARM GAS  /tmp/ccdWlSBO.s 			page 2


  29              		.section	.gnu.lto_.pureconst.6c2c6828e09f013,"",%progbits
  30 0000 789C6362 		.ascii	"x\234cb`b\340f\200\000V\006+&+f+\026+V+\000\007]\001"
  30      6062E066 
  30      80005606 
  30      2B262B66 
  30      2B162B56 
  31 0019 45       		.ascii	"E"
  32              		.text
  33              		.section	.gnu.lto_chRegFirstThread.6c2c6828e09f013,"",%progbits
  34 0000 789C8551 		.ascii	"x\234\205Q=h\024A\024~o\366\376\364\010\210\235 \311"
  34      3D681441 
  34      147E6FF6 
  34      FEF40888 
  34      9D20C9
  35 0013 A18D1A72 		.ascii	"\241\215\032rC\012\255\225T)\256\320D\320*\304\311r"
  35      430AAD95 
  35      5429AED0 
  35      44D02AC4 
  35      C972
  36 0025 37E0DE1E 		.ascii	"7\340\336\036;\253\344\260\310\\rE,\204 \026Q\361'\004"
  36      3BABE4B0 
  36      C85C7245 
  36      2C842016 
  36      51F12704 
  37 0039 62B44969 		.ascii	"b\264Iia\341UB\300\234\244\023\253CI!ha\027D<\337\354"
  37      61E15542 
  37      C09CA413 
  37      AB434921 
  37      68611744 
  38 0050 EC2E6754 		.ascii	"\354.gT\034v\347\275y\363\276\357\275\367\015\003\006"
  38      1C76E7BD 
  38      79F3BEEF 
  38      BDF70D03 
  38      06
  39 0061 07D731FA 		.ascii	"\007\3271\372\333\024~M\026\035@\266\322\005h\025\030"
  39      DB147E4D 
  39      161D40B6 
  39      D2056815 
  39      18
  40 0072 A2710061 		.ascii	"\242q\000a\201\341\302U4\251x\002\326\264\276\333\333"
  40      81E1C255 
  40      34A97802 
  40      D6B4BEDB 
  40      DB
  41 0083 5BFF8CF7 		.ascii	"[\377\214\367u\247\375T\377\350\367\021%\022\355I\004"
  41      75A7FD54 
  41      FFE8F711 
  41      2512ED49 
  41      04
  42 0094 8170850E 		.ascii	"\201p\205\016X\212\014\313\374^g\213uz\375\376\227\335"
  42      588A0CCB 
  42      FC5E678B 
  42      757AFDFE 
  42      97DD
  43 00a6 CD8FCFF1 		.ascii	"\315\217\317\361\350a\007fq\215\3702 \321\311\232\215"
  43      E8610766 
  43      718DF832 
ARM GAS  /tmp/ccdWlSBO.s 			page 3


  43      20D1C99A 
  43      8D
  44 00b7 52B2D0D6 		.ascii	"R\262\320\326z\245do\300\360\321\232\246\335tr\031\231"
  44      7AA5646F 
  44      C0F0D19A 
  44      A6DD7472 
  44      1999
  45 00c9 B14E175A 		.ascii	"\261N\027Z\337\272\217\337`\234\234\240:\237\356|-\236"
  45      DFBA8FDF 
  45      609C9CA0 
  45      3A9FEE7C 
  45      2D9E
  46 00db 4A4FAFEE 		.ascii	"JO\257\356\355\027\217\247\247\355\2674\340,\256\023"
  46      ED178FA7 
  46      A7EDB734 
  46      E02CAE13 
  47 00eb 48A06994 		.ascii	"H\240i\224\321\357\330\276\0206\310\215t\031\206-|\244"
  47      D1EFD8BE 
  47      1036C88D 
  47      7419862D 
  47      7CA4
  48 00fd 57CF4B8C 		.ascii	"W\317K\214{\337\201\305\017\3577\306-\262\212\316(\274"
  48      7BDF81C5 
  48      0FEF37C6 
  48      2DB28ACE 
  48      28BC
  49 010f D0B42ED2 		.ascii	"\320\264.\322\304\261{Vb\366!<hi}Db\356\026|\327\313"
  49      C4B17B56 
  49      62F6213C 
  49      68697D44 
  49      62EE167C 
  50 0125 C6CB7B51 		.ascii	"\306\313{Q\357F\207|\304t\015!\266\261\003\333\260\330"
  50      EF46877C 
  50      C4740D21 
  50      B6B103DB 
  50      B0D8
  51 0137 C959663B 		.ascii	"\311Yf;p\325td*\256>;\235T\314\214\302\031\211\005\252"
  51      70D57464 
  51      2AAE3E3B 
  51      9D54CC8C 
  51      C2198905 
  52 014c 404C8728 		.ascii	"@L\207(\3030&L\311[\356\300\322\362R=\201d\011e\262"
  52      C330264C 
  52      C95BEEC0 
  52      D2F2523D 
  52      81640965 
  53 0161 0A680798 		.ascii	"\012h\007\230\264\027q\277\305\377\260\021\036 \222"
  53      B41771BF 
  53      C5FFB011 
  53      1E2092
  54 0170 787FE84F 		.ascii	"x\177\350O\205\177\026G\006\024~24\234\276Y\032\276"
  54      857F1647 
  54      06147E32 
  54      349CBE59 
  54      1ABE
  55 0182 FD6E40EA 		.ascii	"\375n@\352HF\021\271\271D\355\227\377T{\027Z\275M7\025"
  55      484611B9 
ARM GAS  /tmp/ccdWlSBO.s 			page 4


  55      B944ED97 
  55      FF547B17 
  55      5ABD4D37 
  56 0197 DB06A749 		.ascii	"\333\006\247I0zv\203(\225\313\334~\276\342A\310U \270"
  56      307A7683 
  56      2895CBDC 
  56      7EBEE241 
  56      C85520B8 
  57 01ab A8056E55 		.ascii	"\250\005nU\2520h\226\005\260\2601>\230#|\317\363\353"
  57      AA306896 
  57      05B0B031 
  57      3E98237C 
  57      CFF3EB
  58 01be DC9D0FF9 		.ascii	"\334\235\017\371Dejr\212\313\272\270~c\316\345\302S"
  58      44656A72 
  58      8ACBBAB8 
  58      7E63CEE5 
  58      C253
  59 01d0 52CD5485 		.ascii	"R\315T\205(\327`\354/\210\206\037\204\212_\270T\231"
  59      28D760EC 
  59      2F88861F 
  59      848A5FB8 
  59      5499
  60 01e2 A8CC5309 		.ascii	"\250\314S\011\341\007\356\314\315s\036e\217\034\350"
  60      E107EECC 
  60      CD731E65 
  60      8F1CE8
  61 01f1 2165ACA9 		.ascii	"!e\254\251\246\242\373\202h(9W\222\220\367\\\317\017"
  61      A6A2FB82 
  61      68283957 
  61      9290F75C 
  61      CF0F
  62 0203 9A36E052 		.ascii	"\2326\340R\340\027\021J\323R"
  62      E017114A 
  62      D352
  63              		.text
  64              		.section	.gnu.lto_chRegNextThread.6c2c6828e09f013,"",%progbits
  65 0000 789C8552 		.ascii	"x\234\205RKh\023Q\024\275w>\231\261\261\"\342\262\264"
  65      4B681351 
  65      14BD773E 
  65      99B1B122 
  65      E2B2B4
  66 0013 41376231 		.ascii	"A7b1C\021\024wJW]dc-\350\252\264/C\362\300I\302L*\215"
  66      43111477 
  66      4A575D64 
  66      632DE8AA 
  66      B42F43F2 
  67 002d 5DF4A5CD 		.ascii	"]\364\245\315\242\"B\021\027V\361S\\\010\"T\\\210;\247"
  67      A2224211 
  67      1756F153 
  67      5C082254 
  67      5C883BA7 
  68 0041 2062C1B6 		.ascii	" b\301\266\272\322\270\012\322R\305\210t\027D\214w\276"
  68      BAD2B80A 
  68      D252C588 
  68      7417448C 
  68      77BE
ARM GAS  /tmp/ccdWlSBO.s 			page 5


  69 0053 C456F131 		.ascii	"\304V\3611\363\276\367\334w\316=O\002\011v\266\343\364"
  69      F3BEF7DC 
  69      77CE3D4F 
  69      020976B6 
  69      E3F4
  70 0065 1F94015C 		.ascii	"\037\224\001\\\032Q\005\224\346\327\000\252\272$).\202"
  70      1A510594 
  70      E6D700AA 
  70      BA24292E 
  70      82
  71 0076 E892DFBE 		.ascii	"\350\222\337\276\001\020{eT\202}\005\321\233\000\302"
  71      01107B65 
  71      54827D05 
  71      D19B00C2 
  72 0086 B4242B38 		.ascii	"\264$+8}\001\275$x\010\026\205\270\336\330\\\372\202"
  72      7D01BD24 
  72      78081685 
  72      B8DED85C 
  72      FA82
  73 0098 0BC2ADDD 		.ascii	"\013\302\255\335\027?\333mD\216t\341a\004\206p\236\026"
  73      173FDB6D 
  73      448E74E1 
  73      61048670 
  73      9E16
  74 00aa 98F20749 		.ascii	"\230\362\007I\371\223\301\222\3446\332\355\346\373\215"
  74      F993C192 
  74      E436DAED 
  74      E6FB8D
  75 00b9 4F4D3CB0 		.ascii	"OM<\260\017a\014\027)\237\212\026B\"\\h\300Q\326\275"
  75      0F610C17 
  75      299F8A16 
  75      42225C68 
  75      C051D6BD 
  76 00cd 8EE255A8 		.ascii	"\216\342U\250\0111\237\012N,$\002\314'q\216z\217\333"
  76      09319F0A 
  76      4E2C2402 
  76      CC27718E 
  76      7A8FDB
  77 00e0 084ADE28 		.ascii	"\010J\336(\257Au{\375\356+\014\343#\240\273u\355[\362"
  77      AF41757B 
  77      FDEE2B0C 
  77      E323A0BB 
  77      75ED5BF2 
  78 00f4 48BC7A71 		.ascii	"H\274zq\243\225\354\211W+\033T\2411|@ \206\036q\211"
  78      A395EC89 
  78      572B1B54 
  78      A1317C40 
  78      20861E71 
  79 0109 7E39E089 		.ascii	"~9\340\211\360\220\246~\005{\341\011\336\0217Os\014"
  79      F090A67E 
  79      057BE109 
  79      DE11374F 
  79      730C
  80 011b B5ACC2CC 		.ascii	"\265\254\302\314\307\017OO\005\310\034&\372\341\221"
  80      C70F4F4F 
  80      05C81C26 
  80      FAE191
ARM GAS  /tmp/ccdWlSBO.s 			page 6


  81 012a A076922A 		.ascii	"\240v\222*p\033n\221h5\207\252'>\010\037\307H\374\012"
  81      701B6E91 
  81      683587AA 
  81      273E081F 
  81      C748FC0A 
  82 013e CCB85A00 		.ascii	"\314\270Z\000\013\004\021\030\3405\274\334Z^\270*\307"
  82      0B041118 
  82      E035BCDC 
  82      5A5EB82A 
  82      C7
  83 014f F9A6E087 		.ascii	"\371\246\340\207\230\023b\202\307\251\2478j\026J\343"
  83      98136282 
  83      C7A9A738 
  83      6A164AE3 
  84 015f 88B0AB8D 		.ascii	"\210\260\253\215\020O\362M\366X\265\236-c\224F\353\207"
  84      104FF24D 
  84      F658B59E 
  84      2D639446 
  84      EB87
  85 0171 A31CF598 		.ascii	"\243\034\365\230Q\242\223Q\3644Vavn\366r\004\321\011"
  85      51A29351 
  85      F4345661 
  85      766EF672 
  85      04D109
  86 0184 E545E918 		.ascii	"\345E\351\030\250\034\012\016B\022\003\377\311F\370"
  86      A81C0A0E 
  86      421203FF 
  86      C946F8
  87 0193 8891E27B 		.ascii	"\210\221\342{Bru\210\225R\264oR\253{\267G\277\222}\035"
  87      42727588 
  87      9552B46F 
  87      52AB7BB7 
  87      47BF927D 
  88 01a8 1EDDEBEE 		.ascii	"\036\335\353\356\215\215\217\267\257|\3570\3137\202"
  88      8D8D8FB7 
  88      AF7CEF30 
  88      CB3782
  89 01b7 F9D344E4 		.ascii	"\371\323D\344\327\363\177\372\265\016\265\306\347\315"
  89      D7F37FFA 
  89      B50EB5C6 
  89      E7CD
  90 01c5 B0F00041 		.ascii	"\260\360\000Ay\367s\334\303P\013\231\253\034\273\000"
  90      79F773DC 
  90      C3500B99 
  90      AB1CBB00 
  91 01d5 DE41B5F1 		.ascii	"\336A\265\361\325\214\252\341\313\253\003\206J\245f"
  91      D58CAAE1 
  91      CBAB0386 
  91      4AA566
  92 01e4 3D4BBAE5 		.ascii	"=K\272\345\307\365\036\357\371\241'\321\273/\225N\033"
  92      C7F51EEF 
  92      F9A127D1 
  92      BB2F954E 
  92      1B
  93 01f5 C157740C 		.ascii	"\301Wt\014\273l863X\3366s\334)\333\2254\003\271P.\015"
  93      BB6C3836 
  93      3358DE36 
ARM GAS  /tmp/ccdWlSBO.s 			page 7


  93      73DC29DB 
  93      953403B9 
  94 020c 7406B1A2 		.ascii	"t\006\261\242e\025\013\2069Y6\0063\303C\303\006/\260"
  94      65150B86 
  94      39593606 
  94      33C343C3 
  94      062FB0
  95 021f 8B1359D3 		.ascii	"\213\023Y\323`\226\303\235\321\034c\351<\034\373\013"
  95      6096C39D 
  95      D11C63E9 
  95      3C1CFB0B 
  96 022f A254B4CB 		.ascii	"\242T\264\313\216q\346lf03Iw\260\242m\216^:aQt\337\016"
  96      8E71E66C 
  96      66303349 
  96      77B0A26D 
  96      8E5E3A61 
  97 0247 1271C6BC 		.ascii	"\022q\306\274Sq\350\\g%\207gS\0344\313\264\212v%\330"
  97      5371E85C 
  97      67258767 
  97      531C34CB 
  97      B48A7625 
  98 025c 3069E337 		.ascii	"0i\3437\312V\371\205"
  98      CA56F985 
  99              		.text
 100              		.section	.gnu.lto_chRegFindThreadByName.6c2c6828e09f013,"",%progbits
 101 0000 789C8D54 		.ascii	"x\234\215TMHTQ\024>\347\2767?:3\026\265)0\225jQI>\\"
 101      4D485451 
 101      143EE7BE 
 101      373F3A33 
 101      16B52930 
 102 001a D4BA7025 		.ascii	"\324\272p%\344\242T\250\225\350u\030\037\364\234a\336"
 102      E4A254A8 
 102      95E87518 
 102      1FF49C61 
 102      DE
 103 002b 144A81D7 		.ascii	"\024J\201\327?\250E\"\325B\313R\011\322L\020jU\006M"
 103      3FA84522 
 103      D542CB52 
 103      09D24C10 
 103      6A55064D 
 104 003f 11A59223 		.ascii	"\021\245\222#\355*ZH\021\026\030(n$B;\367\3357\317\311"
 104      ED2A5A48 
 104      11161828 
 104      6E24423B 
 104      F7DD37CF 
 105 0054 B2BABC77 		.ascii	"\262\272\274w\377\3169\337\371\3169\367^\006\0146\267"
 105      FFCE39DF 
 105      F9CE39F7 
 105      5E060C36 
 105      B7
 106 0065 13F48FE8 		.ascii	"\023\364\217\350\000_h\304\000 \353\315\000\264\007"
 106      005F68C4 
 106      0020EBCD 
 106      00B407
 107 0074 196A6AA2 		.ascii	"\031jj\2421\337s\015D\276\236\231\001\020a\235\371\235"
 107      31DF730D 
 107      44BE9E99 
ARM GAS  /tmp/ccdWlSBO.s 			page 8


 107      0110619D 
 107      F99D
 108 0086 49BEB31B 		.ascii	"I\276\263\033\366+5\364!\312\021\020\332\230\246\373"
 108      F62B35F4 
 108      21CA1110 
 108      DA98A6FB 
 109 0096 7DD87606 		.ascii	"}\330v\006%:\356\205a!\256\316\177\376\370\025\373E"
 109      253AEE85 
 109      6121AECE 
 109      7FFEF815 
 109      FB45
 110 00a8 BA6B48FC 		.ascii	"\272kH\374X_G4\221\230\354C\340\010\247i\201%\316\300"
 110      585F4734 
 110      9198EC43 
 110      E008A769 
 110      8125CEC0 
 111 00bc F45FA94D 		.ascii	"\364_\251M\260\364\374\372\372\370\362\370\247A\334"
 111      B0F4FCFA 
 111      FAF8F2F8 
 111      A741DC
 112 00cb B903A11E 		.ascii	"\271\003\241\036\207\011\217\001Y\007\250\323\202h!"
 112      87098F01 
 112      5907A8D3 
 112      826821
 113 00da E4D14C0F 		.ascii	"\344\321L\017\271\262\260;Fh\323W ;\202\361A\227\020"
 113      B9B2B03B 
 113      4668D357 
 113      203B82F1 
 113      419710
 114 00ed BD254A02 		.ascii	"\275%J\002\322'\265\032\352\227\374P\213\214\006-\003"
 114      D227B51A 
 114      EA97FC50 
 114      8B8C062D 
 114      03
 115 00fe EDCB73B7 		.ascii	"\355\313s\267_\242\253\232\265I/\\\371\026:\340\255"
 115      5FA2AB9A 
 115      B5492F5C 
 115      F9163AE0 
 115      AD
 116 010f 9E5E5F0D 		.ascii	"\236^_\015\025z\253\351\327\314\303VQ\246\007gzv\213"
 116      157AABE9 
 116      D7CCC356 
 116      51A60767 
 116      7A768B
 117 0122 A18E5EB1 		.ascii	"\241\216^\261FA:1\216\340\277\202\314b\210\311\201\000"
 117      46413A31 
 117      8EE0BF82 
 117      CC6288C9 
 117      8100
 118 0134 10FD3B44 		.ascii	"\020\375;D\202\243\303\221\0239\216\032\375\256\015"
 118      82A3C391 
 118      13398E1A 
 118      FDAE0D
 119 0143 C2182D9D 		.ascii	"\302\030-\235\032\026\301C\274%\372\216\231\350W\262"
 119      1A16C143 
 119      BC25FA8E 
 119      99E857B2 
ARM GAS  /tmp/ccdWlSBO.s 			page 9


 120 0153 59E878FF 		.ascii	"Y\350x\377\366ny=\216\022@\014\303\2450&\250\235$\032"
 120      F66E793D 
 120      8E12400C 
 120      C3A53026 
 120      A89D241A 
 121 0167 EEF48889 		.ascii	"\356\364\210\211\201\233p\243]\210\355&\006/\300wqI"
 121      819B70A3 
 121      5D88ED26 
 121      062FC077 
 121      7149
 122 0179 CEF22CC7 		.ascii	"\316\362,\307\233\344\226\347 5\310e=\336\227\311k\220"
 122      9BE496E7 
 122      2035C865 
 122      3DDE97C9 
 122      6B90
 123 018b 32770E30 		.ascii	"2w\0160\015\035i\277\362P\217\367(\233\344Gy\356\033"
 123      0D1D69BF 
 123      F2508FF7 
 123      289BE447 
 123      79EE1B
 124 019e 3998F51C 		.ascii	"9\230\365\034)\205C&\346{\236B\244$\301\301\005g9\200"
 124      29854326 
 124      E67B9E42 
 124      A424C1C1 
 124      05673980 
 125 01b2 B3D079A9 		.ascii	"\263\320y\251\2639kY@\306R3\037U<\225J\340\322\017\375"
 125      B3396B59 
 125      40C65233 
 125      1F553C95 
 125      4AE0D20F 
 126 01c7 1F28C100 		.ascii	"\037(\301\0008\365\\\215\374^\316\265PqN9\007#E^\011"
 126      38F55C8D 
 126      FC5ECEB5 
 126      50714E39 
 126      0723455E 
 127 01dc BDEDCB73 		.ascii	"\275\355\313s\016\330\250S\007\237\252\203\237\376@"
 127      0ED8A853 
 127      079FAA83 
 127      9FFE40
 128 01eb B606935B 		.ascii	"\266\006\223[\326\200\3623\337\263\200\252\210\331\363"
 128      D680F233 
 128      DFB380AA 
 128      88D9F3
 129 01fa A65A2D19 		.ascii	"\246Z-\031\321\015\321H%\010\256,&\223Kq>\356\236\030"
 129      D10DD148 
 129      2508AE2C 
 129      26934B71 
 129      3EEE9E18 
 130 020e D82399CB 		.ascii	"\330#\231\313\362PP\032\011\234\340vm\300\366-\004\024"
 130      F250501A 
 130      099CE076 
 130      6DC0F62D 
 130      0414
 131 0220 AC85CCB1 		.ascii	"\254\205\314\261S@\356\365\352\317|x\200\327:\305\224"
 131      5340EEF5 
 131      EACF7C78 
 131      80D73AC5 
ARM GAS  /tmp/ccdWlSBO.s 			page 10


 131      94
 132 0231 E84AD3D1 		.ascii	"\350J\323\321+6\345e\031s\216\317\337\316\236%\3636"
 132      2B36E565 
 132      19738ECF 
 132      DFCE9E25 
 132      F336
 133 0243 07DD4B1D 		.ascii	"\007\335K\035+\027\025z\014\363\274\203\021\346\030"
 133      2B17157A 
 133      0CF3BC83 
 133      11E618
 134 0252 74D48858 		.ascii	"t\324\210X\014\203&F\000\246\340\305B{\271\247+As0\337"
 134      0C832646 
 134      00A6E0C5 
 134      427BB9A7 
 134      2B417330 
 135 0267 01525DD8 		.ascii	"\001R]\330\342ra\014C\376'+\2152n\035\350\301\320\346"
 135      E272610C 
 135      43FE272B 
 135      8D326E1D 
 135      E8C1D0E6 
 136 027b 40CF5A85 		.ascii	"@\317Z\205<\017\005\334=r1\371$l\223A\261\334\344\221"
 136      3C0F05DC 
 136      3D7231F9 
 136      246C9341 
 136      B1DCE491 
 137 028f AE74D9B5 		.ascii	"\256t\331\265\370\354Q\006=\363\215\272\273\255\206"
 137      F8EC5106 
 137      3DF38DBA 
 137      BBAD86
 138 029e F23FF40A 		.ascii	"\362?\364\012\260\226\344t\231\337\320\253%!\231\242"
 138      B096E474 
 138      99DFD0AB 
 138      252199A2 
 139 02ae 24D3A50D 		.ascii	"$\323\245\015\254\024\272f\372\342JX\232 \251J\215\222"
 139      AC14BA66 
 139      FAE24A58 
 139      9A20A94A 
 139      8D92
 140 02c0 B232437D 		.ascii	"\2622C}q\333H\246\014;\311\015\336\224\214\306L;\225"
 140      71DB48A6 
 140      0C3BC90D 
 140      DE948CC6 
 140      4C3B95
 141 02d3 6C2DE3A0 		.ascii	"l-\343\240\361T\242<W\211\307-+\336lD[RFEUue\265a6\363"
 141      F154A23C 
 141      5789C72D 
 141      2BDE6C44 
 141      5B524645 
 142 02ee B3E71AA3 		.ascii	"\263\347\032\243\006\267l\323\256\213q^\326\004\207"
 142      06B76CD3 
 142      AE8B715E 
 142      D60487
 143 02fd FF609188 		.ascii	"\377`\221\210'S\266q\374TUEU\013\371\340\361d\264\356"
 143      2753B671 
 143      FC545545 
 143      550BF9E0 
 143      F164B4EE 
ARM GAS  /tmp/ccdWlSBO.s 			page 11


 144 0311 FC518BB4 		.ascii	"\374Q\213\264\2137\221\360\020\233\354V\233\344,\225"
 144      8B3791F0 
 144      109BEC56 
 144      9BE42C95 
 145 0321 08F2846D 		.ascii	"\010\362\204m6\226\230\020\260\242V<\331\012\316F\224"
 145      36969810 
 145      B0A2563C 
 145      D90ACE46 
 145      94
 146 0332 36F66F69 		.ascii	"6\366oi\354E\321\004?\001APc\237"
 146      EC45D104 
 146      3F014150 
 146      639F
 147              		.text
 148              		.section	.gnu.lto_chRegFindThreadByPointer.6c2c6828e09f013,"",%progbits
 149 0000 789C8D53 		.ascii	"x\234\215S=L\024A\024~o\366n\357g\217\204\304\312\204"
 149      3D4C1441 
 149      147E6FF6 
 149      6EEF678F 
 149      84C4CA84 
 150 0014 C0451B95 		.ascii	"\300E\033\225x\033\012\255%T$R(\220hE\316\341\262l\342"
 150      781B0AAD 
 150      25542452 
 150      28906845 
 150      CEE1B26C 
 151 0029 7297DBD3 		.ascii	"r\227\333\323@,\230\003\012,TbLDE~b\"\210\205\205\245"
 151      402C9803 
 151      0A2C5462 
 151      4C44457E 
 151      62228885 
 152 003f 8587FF10 		.ascii	"\205\207\377\020\340b\247\304\202\304\202\230@\324J"
 152      E062A7C4 
 152      82C48298 
 152      40D44A
 153 004e 50C3F966 		.ascii	"P\303\371f\377<Q\243\223\335\235\231\367\336\367\275"
 153      FF3C51A3 
 153      93DD9D99 
 153      F7DEF7BD 
 154 005e EFCDDB61 		.ascii	"\357\315\333a\300`\3678N\357\246\002\360\224f\214\000"
 154      C060F738 
 154      4EEFA602 
 154      F094668C 
 154      00
 155 006f B2D11580 		.ascii	"\262\321\025\200b\224\241\342.\024\026~\242\200\210"
 155      6294A1E2 
 155      2E14167E 
 155      A28088
 156 007e 87561601 		.ascii	"\207V\026\001D\"\304Tg\021w\254\011\325\015k\016#\312"
 156      4422C454 
 156      671177AC 
 156      09D50D6B 
 156      0E23CA
 157 0091 19100698 		.ascii	"\031\020\006\230\022R\3038p\032%;\356\203i!\256\256"
 157      1252C338 
 157      701A253B 
 157      EE836921 
 157      AEAE
ARM GAS  /tmp/ccdWlSBO.s 			page 12


 158 00a3 3DFFF801 		.ascii	"=\377\370\001o\210\322\360\224\370^\251 \232HJ\366#"
 158      6F88D2F0 
 158      94F85EA9 
 158      209A484A 
 158      F623
 159 00b5 708453B4 		.ascii	"p\204S\264\301\2443\261\320\257\322\036\260\322Z\245"
 159      C1A433B1 
 159      D0AFD21E 
 159      B0D25AA5 
 160 00c5 F2EECBEC 		.ascii	"\362\356\313\354\373U\334S\213\220\306i\342c@\350\010"
 160      FB55DC53 
 160      8B90C669 
 160      E26340E8 
 160      08
 161 00d6 5A0831CF 		.ascii	"Z\0101\317\022\367f\215<JB~\010\034\206a!F\223\256\007"
 161      12F7668D 
 161      3C4A427E 
 161      081C8661 
 161      214693AE 
 162 00eb 64261A1D 		.ascii	"d&\032\035\364\375\244B'2\232\224\025(~.O\274@/\324"
 162      F4FDA442 
 162      27329A94 
 162      15287E2E 
 162      4FBC402F 
 163 0100 C794D62F 		.ascii	"\307\224\326/mj\007\202\335\343k[Z]\260[Xb\001\267["
 163      6D6A0782 
 163      DDE36B5B 
 163      5A5DB05B 
 163      586201B7 
 164 0115 5B6972F1 		.ascii	"[ir\361\362^158*v\2504\247\262\031\374Wi>\207\230\231"
 164      F25E3135 
 164      382A76A8 
 164      34A7B219 
 164      FC57693E 
 165 012c 8800C9BF 		.ascii	"\210\000\311\277C\"8:\0329\211\343T\002G\017\2030G["
 165      4322383A 
 165      1A3989E3 
 165      5402470F 
 165      8330475B 
 166 0140 A773F5F0 		.ascii	"\247s\365\360\020o\213\261c\246\357[\206\301\3257w\233"
 166      106F8BB1 
 166      63A6EF5B 
 166      86C1D537 
 166      779B
 167 0152 D2384B04 		.ascii	"\3228K\004\006\306\033aN\3208A2\274\345\021\023\303"
 167      06C61B61 
 167      4ED03841 
 167      32BCE511 
 167      13C3
 168 0164 B7E06651 		.ascii	"\267\340fQ\210Z\023\325\013\360U\214\310U\304r\262I"
 168      885A13D5 
 168      0BF0558C 
 168      C855C472 
 168      B249
 169 0176 6D1187E9 		.ascii	"m\021\207\351\214\334\246\361>\361\320\032\2035\300"
 169      8CDCA6F1 
 169      3EF1D01A 
ARM GAS  /tmp/ccdWlSBO.s 			page 13


 169      8335C0
 170 0185 020C9654 		.ascii	"\002\014\226T7C\032\357\321iR\0367\363\330\314A?\263"
 170      37431AEF 
 170      D169521E 
 170      37F3D8CC 
 170      413FB3
 171 0198 D608874C 		.ascii	"\326\010\207L\214\006\231b\024$\311\301#gU\204\3130"
 171      8C069962 
 171      1424C9C1 
 171      23675584 
 171      CB30
 172 01aa 3432D4EB 		.ascii	"42\324\353#\023\004\226\221Qt\353iu\035\236|\355\377"
 172      23130496 
 172      915174EB 
 172      69751D9E 
 172      7CEDFF
 173 01bd 488906C0 		.ascii	"H\211\006\300\351\347V\315\357\355\334\321\032\252\332"
 173      E9E756CD 
 173      EFEDDCD1 
 173      1AAADA
 174 01cc 3959531F 		.ascii	"9YS\037\26400_,;d\263N\037\302n\037Tz#~\017\036\375"
 174      B430305F 
 174      2C3B64B3 
 174      4E1FC26E 
 174      1F547A23 
 175 01e4 B507743E 		.ascii	"\265\007t>k\013\353\3506\321\377\337\334\321I \272\027"
 175      6B0BEBE8 
 175      36D1FFDF 
 175      DCD14920 
 175      BA17
 176 01f6 0A8544C1 		.ascii	"\012\205D\301\363\031\362p_\301\263\365\371\353W\022"
 176      F319F270 
 176      5FC1B3F5 
 176      F9EB5712 
 177 0206 2E884C86 		.ascii	".\210L\206\237\011\340-\320.\316\306\267\353\014\214"
 177      9F09E02D 
 177      D02ECEC6 
 177      B7EB0C8C 
 178 0216 A91BDBDD 		.ascii	"\251\033\333\335\222'\004t\355\2242\204|D,he\234c\324"
 178      92270474 
 178      ED943284 
 178      7C442C68 
 178      659C63D4 
 179 022a 011AF262 		.ascii	"\001\032\362biR\020\253\026C\2612\341\360\306\374d\031"
 179      695210AB 
 179      1643B132 
 179      E1F0C6FC 
 179      6419
 180 023c 03F8CF73 		.ascii	"\003\370\317s\364F\007\325;\365\022\260\223\374t9^\323"
 180      F44607D5 
 180      3BF512B0 
 180      93FC7439 
 180      5ED3
 181 024e DD9794CC 		.ascii	"\335\227\224\314\225\304\210\\Y\332\256\363`\241\361"
 181      95C4885C 
 181      59DAAEF3 
 181      60A1F1
ARM GAS  /tmp/ccdWlSBO.s 			page 14


 182 025d 6F090941 		.ascii	"o\011\011A\012\225\021\311TJw\237\254\255\347\013\272"
 182      0A9511C9 
 182      544A779F 
 182      ACADE70B 
 182      BA
 183 026e 9DE73AEF 		.ascii	"\235\347:\357\311g\014\323.\344\373S\034\024^\3105U"
 183      C9670CD3 
 183      2EE4FB53 
 183      1C145EC8 
 183      3555
 184 0280 07F1AC65 		.ascii	"\007\361\254ee{\365L_Aoikom\327\315^~\366\\wF\347\226"
 184      657BF54C 
 184      5F416F69 
 184      6B6F6DD7 
 184      CD5E7EF6 
 185 0299 6DDA5D06 		.ascii	"m\332]\006\347\251\0368\374\007D.\233/\330z\363\311"
 185      E7A91E38 
 185      FC07442E 
 185      9B2FD87A 
 185      F3C9
 186 02ab B696B63E 		.ascii	"\266\226\266>\312\301\263\371L\327\371\243\026E7\354"
 186      CAC1B3F9 
 186      4CD7F9A3 
 186      164537EC 
 187 02bb 121130F6 		.ascii	"\022\0210\366\330\3756\371Y!\027\3459\333\354N\232\020"
 187      D8FD36F9 
 187      592117E5 
 187      39DBEC4E 
 187      9A10
 188 02cd B1325636 		.ascii	"\2612V6\337\017\216!C\206\037\3448.\214"
 188      DF0F8E21 
 188      43861FE4 
 188      382E8C
 189              		.text
 190              		.section	.gnu.lto_chRegFindThreadByWorkingArea.6c2c6828e09f013,"",%progbits
 191 0000 789C8D54 		.ascii	"x\234\215TKL\023a\020\236\371w\373\240\217\250\211\027"
 191      4B4C1361 
 191      109EF977 
 191      FBA08FA8 
 191      8917
 192 0012 131E8D5C 		.ascii	"\023\036\215\\Tb7\034\364,\341D\"\007\005\022=\221\262"
 192      5462371C 
 192      F42CE144 
 192      22070512 
 192      3D91B2
 193 0025 34651397 		.ascii	"4e\023\2276\335j \036\370\201\222\340A\004\365\000\276"
 193      36DD6A20 
 193      1EF88192 
 193      E04104F5 
 193      00BE
 194 0037 0A9AC843 		.ascii	"\012\232\310C\023\017\306\213\232X\011Q \002\321\223"
 194      130FC68B 
 194      9A580951 
 194      2002D193 
 195 0047 7AAA31A6 		.ascii	"z\2521\2461\301\2507\242\246u\376\335\355RQ\324I\367"
 195      31C1A837 
 195      A2A675FE 
ARM GAS  /tmp/ccdWlSBO.s 			page 15


 195      DDED5251 
 195      D449F7
 196 005a 7FCDCC37 		.ascii	"\177\315\3147\337\314\374\177\0310\330*G\351K\311\000"
 196      DFCCFC7F 
 196      1930D82A 
 196      47E94BC9 
 196      00
 197 006b 799AD103 		.ascii	"y\232\321\003\310FW\001\372\275\014%k!1\327\274\004"
 197      C8465701 
 197      FABD0C25 
 197      6B2131D7 
 197      BC04
 198 007d DC27AF2E 		.ascii	"\334'\257.\003\360\200\314\334\346\302g\236\006\334"
 198      03F080CC 
 198      DCE6C267 
 198      9E06DC
 199 008c 9659830B 		.ascii	"\226Y\203\013Q\314\200\320\307$\331\355\302\276\223"
 199      51CC80D0 
 199      C724D9ED 
 199      C2BE93
 200 009b 28D0712F 		.ascii	"(\320q/Lq~1\367\241\360\021'x6=\311\177\024\213\210"
 200      4C717E31 
 200      F7A1F011 
 200      2778363D 
 200      C97F148B 
 201 00b0 1A12935A 		.ascii	"\032\022\223Z\004\025\341\004m0dNL\376\225\332=\226"
 201      0415E104 
 201      6D30644E 
 201      4CFE95DA 
 201      3D96
 202 00c2 CD158B77 		.ascii	"\315\025\213w\213\271\367\027p\367.\204\010N\021\036"
 202      8BB9F717 
 202      70F72E84 
 202      084E111E 
 203 00d2 03F2F6D0 		.ascii	"\003\362\366\320 yQG\360\331\307~{\016\220F\016\212"
 203      20795147 
 203      F0D9C77E 
 203      7B0E9046 
 203      0E8A
 204 00e4 81105C90 		.ascii	"\201\020\\\220\346|4di@\204#i\245\361\213\033\332\220"
 204      E67C3464 
 204      69408423 
 204      69A5F18B 
 204      1BDA90
 205 00f7 D124AD42 		.ascii	"\321$\255B\377\327\265\033\317\3206-\371d\363\347?\371"
 205      FFD7B51B 
 205      CFD0362D 
 205      F964F3E7 
 205      3FF9
 206 0109 F739BB27 		.ascii	"\3679\273'\2277\374\225\316n\351\005s\260\255\004\263"
 206      9737FC95 
 206      CE6EE905 
 206      73B0AD04 
 206      B3
 207 011a 99E5913D 		.ascii	"\231\345\221=|r`\224\027(?3\275i\374W~%\014\376=\343"
 207      7C726094 
 207      17283F33 
ARM GAS  /tmp/ccdWlSBO.s 			page 16


 207      BD69FC57 
 207      7E250CFE 
 208 0130 01A27F8B 		.ascii	"\001\242\177\213H\250hrT\211\234\212\022}\266\017\302"
 208      48A86872 
 208      54899C8A 
 208      127DB60F 
 208      C2
 209 0141 1C6DCDF6 		.ascii	"\034m\315\366U\303}\274\316\307\217hdn\312\012\014\274"
 209      55C37DBC 
 209      CEC78F68 
 209      646ECA0A 
 209      0CBC
 210 0153 7D7DBB3E 		.ascii	"}}\273>\2023t\022C\177\035\314q\222cD\303^\036\322\320"
 210      82337412 
 210      437F1DCC 
 210      71926344 
 210      C35E1ED2 
 211 0168 7D15AEF4 		.ascii	"}\025\256\364s\276SC\317Y\370\306\207\305\312\253\233"
 211      73BE5343 
 211      CF59F8C6 
 211      87C5CAAB 
 211      9B
 212 0179 D10437AF 		.ascii	"\321\0047\257\211\324!\266\021\274#\220;\204\316^\003"
 212      89D421B6 
 212      11BC2390 
 212      3B84CE5E 
 212      03
 213 018a 2CC140D6 		.ascii	",\301@\326mE\210\340,U\223\342X\221\307\247\367\227"
 213      6D4588E0 
 213      2C5593E2 
 213      5891C7A7 
 213      F797
 214 019c 2207EAE0 		.ascii	"\"\007\352\340\200\206\025N$\037\031\011p\260\301Y\031"
 214      8086154E 
 214      241F1909 
 214      70B0C159 
 214      19
 215 01ad E00A0C0E 		.ascii	"\340\012\014\016\017v\227<\203\344,,+\320\312\247\311"
 215      0F76973C 
 215      83E42C2C 
 215      2BD0CAA7 
 215      C9
 216 01be 52D8F4FD 		.ascii	"R\330\364\375\377\007J0\000f?7\202\277\267\263\340\257"
 216      FF074A30 
 216      00663F37 
 216      82BFB7B3 
 216      E0AF
 217 01d0 296B6726 		.ascii	")kg&X\355\264\3209>\267f\202\315\230}pY}p\323\347)\365"
 217      58EDB4D0 
 217      393EB766 
 217      82CD987D 
 217      70597D70 
 218 01e8 E0D1B63D 		.ascii	"\340\321\266=\240\372\344\012y\264\232X\272o\226\264"
 218      A0FAE40A 
 218      79B49A58 
 218      BA6F96B4 
 219 01f8 91133D0E 		.ascii	"\221\023=\016\211L\274`\353b\242\270\224\347\303\241"
ARM GAS  /tmp/ccdWlSBO.s 			page 17


 219      894CBC60 
 219      EB62A2B8 
 219      94E7C3A1 
 220 0208 CF992AC1 		.ascii	"\317\231*\301\334C\371QR\022)\314\344*7a\207gwX\260"
 220      DC43F951 
 220      521229CC 
 220      E42A3761 
 220      87677758 
 221 021d 3A32D3CF 		.ascii	":2\323\317\002\262_\326\304\310\302\003\2744\310\027"
 221      02B25FD6 
 221      C4C8C203 
 221      BC34C817 
 222 022d 793A4B57 		.ascii	"y:KW\257F\023\357d\316\274>\177\273{\272\250\333\","
 222      AF4613EF 
 222      64CEBC3E 
 222      7FBB7BBA 
 222      A8DB222C 
 223 0241 E4DF0DDD 		.ascii	"\344\337\015\335\234\267i\023\213\230}\021H\336\000"
 223      9CB76913 
 223      8B987D11 
 223      48DE00
 224 0250 52A5D97A 		.ascii	"R\245\331z\2612\206>\367\343\261\250\310D\006z\375\322"
 224      B132863E 
 224      F7E3B1A8 
 224      C844067A 
 224      FDD2
 225 0262 1AC8250F 		.ascii	"\032\310%\017\237s\231\374\252\355\033\023\357; h\262"
 225      9F7399FC 
 225      AAED1B13 
 225      EF3B2068 
 225      B2
 226 0273 F27290AD 		.ascii	"\362r\220\255\210\230^\177:\361\312\011\350\333\354"
 226      88985E7F 
 226      3AF1CA09 
 226      E8DBEC
 227 0282 A42DAD54 		.ascii	"\244-\255T\361\311\347\200m\244\247\347\371\222\376"
 227      F1C9E780 
 227      6DA4A7E7 
 227      F992FE
 228 0291 820424B3 		.ascii	"\202\004$\263(\211\002H\327\306\252l7y},(\\\220L\205"
 228      28890248 
 228      D7C6AA6C 
 228      37797D2C 
 228      285C904C 
 229 02a6 45281C56 		.ascii	"E(\034V\254_\334P\222)\305H\252\212\332\225\214\306"
 229      AC5FDC50 
 229      9229C548 
 229      AA8ADA95 
 229      8CC6
 230 02b8 342395EC 		.ascii	"4#\225\354\015\253 \251\251D}\271\221\032\327\365x\267"
 230      0DAB20A9 
 230      A9447DB9 
 230      911AD7F5 
 230      78B7
 231 02ca 12ED4929 		.ascii	"\022\355I)\215\315-M-\212\326\255\236:\335\031UT\335"
 231      8DCD2D4D 
 231      2D8AD6AD 
ARM GAS  /tmp/ccdWlSBO.s 			page 18


 231      9E3ADD19 
 231      5554DD
 232 02dd D08CF698 		.ascii	"\320\214\366\230\252\206\273\340\340\037<\022\361d\312"
 232      AA86BBE0 
 232      E01F3C12 
 232      F164CA
 233 02ec 501A8E37 		.ascii	"P\032\216776\367P\0145\236\214\266\2379\254\223u\315"
 233      3736F750 
 233      0C359E8C 
 233      B69F39AC 
 233      9375CD
 234 02ff 16120E62 		.ascii	"\026\022\016b\227\321k\220\236\245\022^5ah\235!\015"
 234      97D16B90 
 234      9EA5125E 
 234      3561689D 
 234      210D
 235 0311 3C7A548F 		.ascii	"<zT\217'{\301<\210\322A\355\266\316)\312#\322)\000~"
 235      277BC13C 
 235      88D241ED 
 235      B6CE29CA 
 235      23D22900 
 236 0326 02B9C758 		.ascii	"\002\271\307X\306"
 236      C6
 237              		.text
 238              		.section	.gnu.lto_.symbol_nodes.6c2c6828e09f013,"",%progbits
 239 0000 789C4D8C 		.ascii	"x\234M\214=\012\302`\024\004w\367\345\251\267\360\250"
 239      3D0AC260 
 239      140477F7 
 239      E5A9B7F0 
 239      A8
 240 0011 1B10A2A5 		.ascii	"\033\020\242\245\215\377\250`nbcg\357\001\024\004\017"
 240      8DFFA860 
 240      6E626367 
 240      EF011404 
 240      0F
 241 0022 6182A2DF 		.ascii	"a\202\242\337V3S\254 \264\370NK\032\230_\001\3730c\356"
 241      563353AC 
 241      20B4F84E 
 241      4B1A985F 
 241      01FB3063 
 242 0037 D811B4A2 		.ascii	"\330\021\264\242\371\257Z\323*tCG\241[\272*.\026d\032"
 242      F9AF5AD3 
 242      2A744347 
 242      A15BBA2A 
 242      2E16641A 
 243 004b DCD3F9A9 		.ascii	"\334\323\371\251uM\036\351\301\317BC\264\315k\0341\302"
 243      754D1EE9 
 243      C1CF4243 
 243      B4CD6B1C 
 243      31C2
 244 005d E4727F66 		.ascii	"\344r\177f\204p\236>n\031U\007M\017)\234\372\20270,"
 244      84709E3E 
 244      6E195507 
 244      4D0F299C 
 244      FA823730 
 245 0072 3094     		.ascii	"0\224"
 246              		.text
ARM GAS  /tmp/ccdWlSBO.s 			page 19


 247              		.section	.gnu.lto_.refs.6c2c6828e09f013,"",%progbits
 248 0000 789C6362 		.ascii	"x\234cb`b\020e\200\000F bdbbdd\006\322,@\314\012\024"
 248      60621065 
 248      80004620 
 248      62646262 
 248      646406D2 
 249 0019 0200040B 		.ascii	"\002\000\004\013\0004"
 249      0034
 250              		.text
 251              		.section	.gnu.lto_.decls.6c2c6828e09f013,"",%progbits
 252 0000 789CC55B 		.ascii	"x\234\305[{p\024\307\231\237\231]iw\245E(Np\351\352"
 252      7B7014C7 
 252      999F995D 
 252      6977A545 
 252      284E70E9 
 253 0015 7C879C73 		.ascii	"|\207\234s\022\342\273 \270s|\370\252b\223#u!UgW\312"
 253      12E2BB20 
 253      B8737CF8 
 253      AA629323 
 253      75215567 
 254 002b 8EEBF28F 		.ascii	"\216\353\362\217\263\036V\203\264\361jw3;B\310\377d"
 254      B31E5683 
 254      B4F16A77 
 254      333B42C8 
 254      FF64
 255 003d 1004616C 		.ascii	"\020\004al\220\204x\010\203ay\331861`\363\360\003\274"
 255      90847808 
 255      836179D9 
 255      38363160 
 255      F3F003BC 
 256 0051 06831420 		.ascii	"\006\203\024 \274A\0052D~`b80\330\006#\202\321}\375"
 256      BC410532 
 256      447E6062 
 256      3830D806 
 256      2382D17D 
 257 0066 4DCFECF4 		.ascii	"M\317\354\364\354\314\356\2148\337Miz\273{\272\177\375"
 257      ECCCEE8C 
 257      38DF4D69 
 257      7ABB7BBA 
 257      7FFD
 258 0078 3DBBBFEE 		.ascii	"=\273\277\356\031\011\234\300]\0238n\020\256\337>\300"
 258      19099CC0 
 258      5D13386E 
 258      10AEDF3E 
 258      C0
 259 0089 71F70738 		.ascii	"q\367\0078\256\224\203_.wA\025\267\002\356\307x\216"
 259      AE94835F 
 259      2E774115 
 259      B702EEC7 
 259      788E
 260 009b AB85FBD7 		.ascii	"\253\205\373\327p'\340n\204\273\031n\350\316\315\204"
 260      7027E06E 
 260      84BB196E 
 260      E8CECD84 
 261 00ab DF633CC7 		.ascii	"\337c<\307\\\244O\031\334\253\340\256\200;\0147iR\012"
 261      5CA44F19 
 261      DCABE0AE 
ARM GAS  /tmp/ccdWlSBO.s 			page 20


 261      803B0C37 
 261      69520A
 262 00be 1DE642A6 		.ascii	"\035\346B\246\025\356 \344\313\340w5\324\373\340\236"
 262      15EE20E4 
 262      CBE07735 
 262      D4FBE09E 
 263 00ce 03F94570 		.ascii	"\003\371Ep\207\370\334\270!h3\014\356J\270G\300]\005"
 263      87F8DCB8 
 263      2168330C 
 263      EE4AB847 
 263      C05D05
 264 00e1 F7DF0A1A 		.ascii	"\367\337\012\032\326L\313\230\204\306r\2071\311\030"
 264      D64CCB98 
 264      84C67287 
 264      31C918
 265 00f0 23E9D864 		.ascii	"#\351\330d\314j\310O\341\265q?\240c\223q\203\024\307"
 265      CC6AC84F 
 265      E1B5713F 
 265      A0639371 
 265      8314C7
 266 0103 69DC46DA 		.ascii	"i\334F\332G\204\337;\205|\032\210\214*-4\234\205\333"
 266      4784DF3B 
 266      857C1A88 
 266      8C2A2D34 
 266      9C85DB
 267 0116 5F84FFEF 		.ascii	"_\204\377\357A\376I\310\217\202\337_\361\371\362(\243"
 267      41FE49C8 
 267      8F82DF5F 
 267      F1F9F228 
 267      A3
 268 0127 D8856442 		.ascii	"\330\205dB\364\361\030\355[\317k\264}_`\351#\372\013"
 268      F4F118ED 
 268      5BCF6BB4 
 268      7D5F60E9 
 268      23FA0B
 269 013a 7BD08B13 		.ascii	"{\320\213\023=!\212U\210\236\307\250}\304\371|9\021"
 269      3D218A55 
 269      889EC7A8 
 269      7DC4F97C 
 269      3911
 270 014c 1B1A66A1 		.ascii	"\033\032f\241\343\342-\320\222pA\013\351'SZ\356\266"
 270      E3E22DD0 
 270      9270410B 
 270      E927535A 
 270      EEB6
 271 015e C86524B7 		.ascii	"\310e$\267L\355\277\324\277k\325\011~\261\232\235\241"
 271      4CEDBFD4 
 271      BF6BD509 
 271      7EB19A9D 
 271      A1
 272 016f 8247F0B7 		.ascii	"\202G\360\267s\013T\27023U\225W\312\271\331\252\332"
 272      730B54B8 
 272      32335595 
 272      57CAB9D9 
 272      AADA
 273 0181 420A137B 		.ascii	"B\012\023{*n\343:\310\223\352\036 \375\227\274\310W"
 273      2A6EE33A 
ARM GAS  /tmp/ccdWlSBO.s 			page 21


 273      C893EA1E 
 273      20FD97BC 
 273      C857
 274 0193 84B88C1F 		.ascii	"\204\270\214\037s\341\020\367\023\200\373\016\267ZU"
 274      73E110F7 
 274      1380FB0E 
 274      B75A55
 275 01a2 DBFB177D 		.ascii	"\333\373\027}u\304\247\252A\221_\315\337\006\242\230"
 275      75C4A7AA 
 275      41915FCD 
 275      DF06A298 
 276 01b2 C8737773 		.ascii	"\310sws/B\307vU]y\267E\"x\025\005\026\240\000\306\267"
 276      2F42C776 
 276      555D79B7 
 276      45227815 
 276      0516A000 
 277 01c8 16F044FE 		.ascii	"\026\360D\376\005\376nm$\265\177A\353\251\026~\032\020"
 277      05FE6E6D 
 277      24B57F41 
 277      EBA9167E 
 277      1A10
 278 01da AA3DE3E8 		.ascii	"\252=\343\350S\233\353N.\003\035\262_\356Y\312\253\231"
 278      539BEB4E 
 278      2E031DB2 
 278      5FEE59CA 
 278      AB99
 279 01ec 1DBCCD88 		.ascii	"\035\274\315\210\343\365\001\203&NV\314\371\031r\362"
 279      E3F50183 
 279      264E56CC 
 279      F91972F2 
 280 01fc 3272329D 		.ascii	"2r2\235\347\231\021(Jf\274\023\214\300ub\227W\362\010"
 280      E7991128 
 280      4A66BC13 
 280      8CC07562 
 280      9757F208 
 281 0210 EF3EA013 		.ascii	"\357>\240\023\376\212\013\302[\262\207f?\3677\204p\221"
 281      FE8A0BC2 
 281      5BB28766 
 281      3FF73784 
 281      7091
 282 0222 5FC59703 		.ascii	"_\305\227\003\356j\003\227\216[\255\217K|\216f\265\213"
 282      EE6A0397 
 282      8E5BAD8F 
 282      4B7C8E66 
 282      B58B
 283 0234 3660F10E 		.ascii	"6`\361\016\357\011\267\213:\330\213\236\301\252\355"
 283      EF09B78B 
 283      3AD88B9E 
 283      C1AAED
 284 0243 48D52E33 		.ascii	"H\325.3\267\"\277\201\377\016\244\033\371;!}\015R\343"
 284      B722BF81 
 284      FF0EA41B 
 284      F93B217D 
 284      0D52E3
 285 0256 12B83FF0 		.ascii	"\022\270?\360\272N\355DW\234\205\201=KQ$!nV\316F9[\026"
 285      BA4EED44 
 285      579C8581 
ARM GAS  /tmp/ccdWlSBO.s 			page 22


 285      3D4B5124 
 285      216E56CE 
 286 026e A83A4F3C 		.ascii	"\250:O<\375\356!~:J}+t\023\270\013\026\205\272\207\352"
 286      FDEE217E 
 286      3A4A7D2B 
 286      7413B80B 
 286      1685BA87 
 287 0283 6BDBF50E 		.ascii	"k\333\365\016\337\202Po\"T\2470T\250\201\303\357vP\252"
 287      DF82506F 
 287      2254A730 
 287      54A881C3 
 287      EF7650AA 
 288 0297 B623D41E 		.ascii	"\266#\324\036\013\224\310\007\014\336\215\262\336\200"
 288      0B94C807 
 288      0CDE8DB2 
 288      DE80
 289 02a5 E0E1639A 		.ascii	"\340\341c\232!\313\332p\356kn.p\307\004\213\362\354"
 289      21CBDA70 
 289      EE6B6E2E 
 289      70C7048B 
 289      F2EC
 290 02b7 4C26E8A4 		.ascii	"L&\350\244<\265\177~\367i\201L9>\335\207J\235\244$p"
 290      3CB57F7E 
 290      F769814C 
 290      393EDD87 
 290      4A9DA424 
 291 02cc 2771AC9D 		.ascii	"'q\254\235V\037Z\336\273O\367\241\235\256|h\323\236"
 291      561F5ADE 
 291      BB4FF7A1 
 291      9DAE7C68 
 291      D39E
 292 02de 45683045 		.ascii	"Eh0E'5A\037\377.\034\277\303G\306\357\261\216\377\327"
 292      2735411F 
 292      FF2E1CBF 
 292      C347C6EF 
 292      B18EFFD7 
 293 02f2 93BBA6D3 		.ascii	"\223\273\246\323\361{\\\215\277x\377\374\374\361E\376"
 293      F17B5C8D 
 293      BF78FFFC 
 293      FCF145FE 
 294 0302 FE1185AC 		.ascii	"\376\021\205\254cy\357\307\227\351(\373\320Y\367\372"
 294      6379EFC7 
 294      97E928FB 
 294      D059F7FA 
 295 0312 ACD6F140 		.ascii	"\254\326\361@9\253?(\233\032\010\334Q\203\376!\315\025"
 295      39AB3F28 
 295      9B1A08DC 
 295      5183FE21 
 295      CD15
 296 0324 C0E8EE4E 		.ascii	"\300\350\356N~\336t\265g\214NC\257g\304jF\022K\367\343"
 296      7EDE74B5 
 296      678C4E43 
 296      AF67C46A 
 296      46124BF7 
 297 0339 ECA3819D 		.ascii	"\354\243\201\235t\003\346hJ-\331ef\260\323\236\301X"
 297      7403E668 
 297      4A2DD965 
ARM GAS  /tmp/ccdWlSBO.s 			page 23


 297      66B0D39E 
 297      C158
 298 034b CAD69BC1 		.ascii	"\312\326\233\301>p\003V\351L\331F3\330\031\317`,e\257"
 298      3E700356 
 298      E94CD946 
 298      33D819CF 
 298      602C65AF 
 299 035f 99C1FEE2 		.ascii	"\231\301\376\342\006\254\312\231\262\315f\260\363\236"
 299      06ACCA99 
 299      B2CD66B0 
 299      F39E
 300 036d C158CAB6 		.ascii	"\301X\312\266\232\301.\272\001\253\266\241\314\270\354"
 300      9AC12EBA 
 300      01ABB6A1 
 300      CCB8EC
 301 037c FA11B3EE 		.ascii	"\372\021\263\356\346\015;\027\270\313>}N\360h\323\\"
 301      E60D3B17 
 301      B8CB3E7D 
 301      4EF068D3 
 301      5C
 302 038d 0EE30B9F 		.ascii	"\016\343\013\237\3279\214\341\033\026\361?\257\344;"
 302      D7398CE1 
 302      1B16F13F 
 302      AFE43B
 303 039c 35BFD016 		.ascii	"5\277\320\026\322kn\020\013\030L\373^\323\252|\3233"
 303      D26B6E10 
 303      0B184CFB 
 303      5ED3AA7C 
 303      D333
 304 03ae 18AB9665 		.ascii	"\030\253\226e\004\214\231k\350\232\324\277&[\325\225"
 304      048C996B 
 304      E89AD4BF 
 304      265BD595 
 305 03be 9BEE823A 		.ascii	"\233\356\202:\026\011\315\264\271\015\"5\301h\254VU"
 305      1609CDB4 
 305      B90D2235 
 305      C168AC56 
 305      55
 306 03cf D9B715F9 		.ascii	"\331\267\025\371Opu?\307\207\014*\264\274\236\033\304"
 306      4F70753F 
 306      C7870C2A 
 306      B4BC9E1B 
 306      C4
 307 03e0 587886DF 		.ascii	"Xx\206\337.\350C\200\302]\235,\341\254\331\022\236\362"
 307      2EE84380 
 307      C25D9D2C 
 307      E1ACD912 
 307      9EF2
 308 03f2 BB105301 		.ascii	"\273\020S\001W8\350$\246\354Lu\026?m\303\035\005#\304"
 308      5738E824 
 308      A6EC4C75 
 308      163F6DC3 
 308      1D0523C4 
 309 0406 E5BD1757 		.ascii	"\345\275\027W\3208\340S\\\274\347\372m\343\000W`}m\007"
 309      D038E053 
 309      5CBCE7FA 
 309      6DE30057 
ARM GAS  /tmp/ccdWlSBO.s 			page 24


 309      607D6D07 
 310 041a F4A0E233 		.ascii	"\364\240\3423\004[|\013`\003\207O\351a\305\025\004["
 310      045B7C0B 
 310      6003874F 
 310      E961C515 
 310      045B
 311 042c E9B72E1C 		.ascii	"\351\267.\034!KX\021b\027\376P(\227\031\324/V\225_k"
 311      214B5811 
 311      6217FE50 
 311      289719D4 
 311      2F56955F 
 312 0441 1F27F55F 		.ascii	"\037'\365_4\253\177\235g\3653^\002\201\310Ua\221\232"
 312      34AB7F9D 
 312      67F5335E 
 312      0281C855 
 312      61919A
 313 0454 9DE633D9 		.ascii	"\235\3463\331{A\347\2000r\357\366\037\341\256\340:\312"
 313      7B41E780 
 313      3072EFF6 
 313      1FE1AEE0 
 313      3ACA
 314 0466 F5357B25 		.ascii	"\3655{%\271\000\352k[\367\217\010\364\025\002m\0332"
 314      B900EA6B 
 314      5BF78F08 
 314      F415026D 
 314      1B32
 315 0478 D0C0E165 		.ascii	"\320\300\341e\343\020\210\270\255\300\355\312\3234o"
 315      E31088B8 
 315      ADC0EDCA 
 315      D3346F
 316 0487 D134CF6A 		.ascii	"\3214\317j\300\360<\352x_W[\201;`U\027\303N\201\345"
 316      C0F03CEA 
 316      785F575B 
 316      813B6055 
 316      17C34E81 
 317 049c C198736F 		.ascii	"\301\230so\314\343?oQ\273\306x\320\327\323T_\277C\351"
 317      CCE33F6F 
 317      51BBC678 
 317      D0D7D354 
 317      5FBF43E9 
 318 04b0 1CCB93CE 		.ascii	"\034\313\223\316W\036\305#p\247<\263\021d\331h\035\034"
 318      571EC523 
 318      70A73CB3 
 318      1164D968 
 318      1D1C
 319 04c2 021B6F6B 		.ascii	"\002\033okl\314F6>\374_`\343\274g6*Ml\3406v\276\266"
 319      6CCC4636 
 319      3EFC5F60 
 319      E3BC6736 
 319      2A4D6CE0 
 320 04da 027E939B 		.ascii	"\002~\223\233W8\214'\364\264\011\337dB\350\354\261\375"
 320      57388C27 
 320      F4B409DF 
 320      6442E8EC 
 320      B1FD
 321 04ec 7CB5565D 		.ascii	"|\265V]|\353\376\371~\323vOu\265\335\333kl\367\346\241"
 321      7CEBFEF9 
ARM GAS  /tmp/ccdWlSBO.s 			page 25


 321      7ED3764F 
 321      75B5DDDB 
 321      6B6CF7E6 
 322 0501 C82ED939 		.ascii	"\310.\3319\230\033\250L\337\201\021\252_\344\027 \314"
 322      981BA84C 
 322      DF8111AA 
 322      5FE41720 
 322      CC
 323 0512 D5A1C280 		.ascii	"\325\241\302\200\237\276\255\371i\027\002\335\314Sa"
 323      9FBEADF9 
 323      691702DD 
 323      CC5361
 324 0521 A94583A5 		.ascii	"\251E\203\245\254\006\241HF\272\206\023\344oi\015)\004"
 324      AC06A148 
 324      46BA8613 
 324      E46F690D 
 324      2904
 325 0533 B8FFF37E 		.ascii	"\270\377\363~\0027\253\204\247J\365\030\203\351\326"
 325      0237AB84 
 325      A74AF518 
 325      83E9D6
 326 0542 D3FA51A7 		.ascii	"\323\372Q\247\036?i\012j\273%\304\226\354\3626\375\224"
 326      1E3F690A 
 326      6ABB25C4 
 326      96ECF236 
 326      FD94
 327 0554 E4011241 		.ascii	"\344\001\022Au\335\"\334[\007\254\241\201e\353\266\332"
 327      75DD22DC 
 327      5B07ACA1 
 327      8165EBB6 
 327      DA
 328 0565 61D9D18F 		.ascii	"a\331\321\217\2176<\363O\250\356\225\002!gy\211U\335"
 328      8F363CF3 
 328      4FA8EE95 
 328      02216779 
 328      8955DD
 329 0578 AB78CBD6 		.ascii	"\253x\313\326\215T\230\23289\322\012\301\264\002n\274"
 329      8D54989A 
 329      3839D20A 
 329      C1B4026E 
 329      BC
 330 0589 5535745F 		.ascii	"U5t_\261\250a\353-\312m\200\252\241\330F\373q\035+\214"
 330      B1A861EB 
 330      2DCA6D80 
 330      AAA1D846 
 330      FB711D2B 
 331 059e 8C6471D8 		.ascii	"\214dq\330\337\013\226}\366\233\027\373g\322\250\210"
 331      DF0B967D 
 331      F69B17FB 
 331      67D2A888 
 332 05ae 3C2B3E53 		.ascii	"<+>S\364\235\011\251\363\302\332\241\235\310o\346\005"
 332      F49D09A9 
 332      F3C2DAA1 
 332      9DC86FE6 
 332      05
 333 05bf 8A6A172C 		.ascii	"\212j\027,\025\025O\366\264\3243\306\313\234\263[\237"
 333      15154FF6 
ARM GAS  /tmp/ccdWlSBO.s 			page 26


 333      B4D433C6 
 333      CB9CB35B 
 333      9F
 334 05d0 735E4159 		.ascii	"s^AY^\310S:\231D\030\245{r\272\317\015!\271\335\264"
 334      5EC8533A 
 334      994418A5 
 334      7B72BACF 
 334      0D21B9DD 
 335 05e5 582F27A3 		.ascii	"X/'\243z\321lT_\336\232\011\200Q\355^\255\031U1#Py\363"
 335      7AD16C54 
 335      5FDE9A09 
 335      8051ED5E 
 335      AD195531 
 336 05fd 5E062645 		.ascii	"^\006&E\034y\263\325\012\226\177\326\323J\317A6\273"
 336      1C79B3D5 
 336      0A967FD6 
 336      D34ACF41 
 336      36BB
 337 060f B2822B36 		.ascii	"\262\202+6V\260y\210V\000&\375\311\037y\204\323\366"
 337      56B07988 
 337      560026FD 
 337      C91F7984 
 337      D3F6
 338 0621 662F94F2 		.ascii	"f/\224\362,\234[-P\270\033\222W\301h\366\225=q\206\254"
 338      2C9C5B2D 
 338      50B81B92 
 338      57C168F6 
 338      953D7186 
 339 0636 98DB0572 		.ascii	"\230\333\005r\034\275\256\324jZ\232dL\246\225\023\243"
 339      1CBDAED4 
 339      6A5A9A64 
 339      4CA69513 
 339      A3
 340 0647 C86F15C8 		.ascii	"\310o\025\310f\355u\201\034\305\276\201\351[\202\351"
 340      66ED7581 
 340      1CC5BE81 
 340      E95B82E9 
 341 0657 40D6C92C 		.ascii	"@\326\311,\266\345\314B\344_\265\212\321\355\226\271"
 341      B6E5CC42 
 341      E45FB58A 
 341      D1ED96B9 
 342 0667 E8309BCC 		.ascii	"\3500\233\314\326\267\251\364\326\254o~\367~?\236.z"
 342      D6B7A9F4 
 342      D6AC6F7E 
 342      F77E3F9E 
 342      2E7A
 343 0679 381BDEBB 		.ascii	"8\033\336\273Kw\334\235\350\270o\345I\367Mk|\345\346"
 343      4B77DC9D 
 343      E8B86FE5 
 343      49F74D6B 
 343      7CE5E6
 344 068c A0B467A8 		.ascii	"\240\264g\250\254\030\027\004\315\245.\3668\3256R7\026"
 344      AC181704 
 344      CDA52EF6 
 344      38D53652 
 344      3716
 345 069e DAE3344C 		.ascii	"\332\3434L+z\332\252\257\\g\236\231\210+\327\037\321"
ARM GAS  /tmp/ccdWlSBO.s 			page 27


 345      2B7ADAAA 
 345      AF5C679E 
 345      99882BD7 
 345      1FD1
 346 06b0 D20E5964 		.ascii	"\322\016Yd\341\342\320\266\037\273\354\263\272\361\202"
 346      E1E2D0B6 
 346      1FBBECB3 
 346      BAF182
 347 06bf 56E3D076 		.ascii	"V\343\320v\237\0137n\311\276\312\274\370\320-p_a\013"
 347      9F0B376E 
 347      C9BECABC 
 347      F8D02D70 
 347      5F610B
 348 06d2 2C284F46 		.ascii	",(OF\205\373L\016\262\037\035\344\200\331) ft#\373Q"
 348      85FB4C0E 
 348      B21F1DE4 
 348      80D92920 
 348      667423FB 
 349 06e7 4EA608D3 		.ascii	"N\246\010\323\320a\355\215\223\376\016\351\232\025\317"
 349      D061ED8D 
 349      93FE0EE9 
 349      9A15CF
 350 06f6 6E2262F0 		.ascii	"n\"b\360\314\272l\311\266\037\301#\"\315F\247\005\\"
 350      CCBA6CC9 
 350      B61FC123 
 350      22CD46A7 
 350      055C
 351 0708 1037C619 		.ascii	"\0207\306\031ly\247.\334M\030\241\314v\2037\316\211"
 351      6C79A72E 
 351      DC4D18A1 
 351      CC768337 
 351      CE89
 352 071a D996EC96 		.ascii	"\331\226\354\226#K)\236\366~e\236g<\226\276c\235L<\267"
 352      234B299E 
 352      F67E659E 
 352      673C96BE 
 352      639D4C3C 
 353 072f C40DDC78 		.ascii	"\304\015\334x\327\272\317\275N\204\005\025O\262^\302"
 353      D7BACFBD 
 353      4E840515 
 353      4FB25EC2 
 354 073f F7545B30 		.ascii	"\367T[0\335\201\351\007\230~\204\351\307\230^\300t\000"
 354      DD81E907 
 354      987E84E9 
 354      C7985EC0 
 354      7400
 355 0751 D319388D 		.ascii	"\323\0318\215>\205\351\\L{0=\204\351\021L\217a\332\213"
 355      3E85E95C 
 355      4C7B303D 
 355      84E9114C 
 355      8F61DA8B 
 356 0765 E9093713 		.ascii	"\351\0117\023\256\313\030p%\177;\315=\352\323\215uE"
 356      AECB1870 
 356      257F3BCD 
 356      3DEAD38D 
 356      7545
 357 0777 80F5538E 		.ascii	"\200\365S\216\373.\267\206L\210\370\206w~\326\257\207"
ARM GAS  /tmp/ccdWlSBO.s 			page 28


 357      FB2EB786 
 357      4C88F886 
 357      777ED6AF 
 357      87
 358 0788 9C1042F2 		.ascii	"\234\020B\362#\035\240\361q\237\300\274*\326^\024go"
 358      231DA0F1 
 358      719FC0BC 
 358      2AD65E14 
 358      676F
 359 079a EC09B74F 		.ascii	"\354\011\267O\353\037\034\034\311\274$\326@\235\350"
 359      EB1F1C1C 
 359      C9BC24D6 
 359      409DE8
 360 07a9 3C2D6874 		.ascii	"<-ht\372\360\255\270\301\237N4\322\275\321B\367]\334"
 360      FAF0ADB8 
 360      C19F4E34 
 360      D2BDD142 
 360      F75DDC
 361 07bc 2A559DA7 		.ascii	"*U\235\247.\221&\352\013\356\016lqJ\260'\332\210\244"
 361      2E9126EA 
 361      0BEE0E6C 
 361      714AB027 
 361      DA88A4
 362 07cf 35       		.ascii	"5"
 363 07d0 76D52D1F 		.ascii	"v\325-\037\375|b\216U\247^\224\300\376|V3\375\331\371"
 363      FD7C628E 
 363      55A75E94 
 363      C0FE7C56 
 363      33FDD9F9 
 364 07e4 FBBDB37A 		.ascii	"\373\275\263z\306\312\352\331|Vw\331\263\372&aUk\376"
 364      C6CAEAD9 
 364      7C5677D9 
 364      B3FA2661 
 364      556BFE
 365 07f7 DF38C37D 		.ascii	"\3378\303}\344\310\352\331\002\254:\365\242\004\236"
 365      E4C8EAD9 
 365      02AC3AF5 
 365      A2049E
 366 0806 B565F5BA 		.ascii	"\265e\365\272\316\252\246,\201\353\263\247q\233\256"
 366      CEAAA62C 
 366      81EBB3A7 
 366      719BAE
 367 0815 0E700B81 		.ascii	"\016p\013\201\320xnH\352p\352Ei<oK\343\027\007\274\253"
 367      D0786E48 
 367      EA70EA45 
 367      693C6F4B 
 367      E31707BC 
 368 082a E353AB3A 		.ascii	"\343S\253:.\346\253\343\013{VO\020V/\242\345u\004I\213"
 368      2EE6ABE3 
 368      0B7B564F 
 368      10562FA2 
 368      E5750449 
 369 083f 8B8EAC5E 		.ascii	"\213\216\254^,\300\252S/J\340e\033'\203Hd\345\300\217"
 369      2CC0AA53 
 369      2F4AE065 
 369      1B278348 
 369      64E5C08F 
ARM GAS  /tmp/ccdWlSBO.s 			page 29


 370 0853 BA36AA33 		.ascii	"\2726\2523\236RoZ?\307p|YH\320\256\272p\264\255A\353"
 370      9E526F5A 
 370      3FC7707C 
 370      5948D0AE 
 370      BA70B4AD 
 371 0869 04A135BD 		.ascii	"\004\2415\275fC\311\372\376%\317\277\037]\254\356 \337"
 371      6643C9FA 
 371      FE25CFBF 
 371      1F5DACEE 
 371      20DF
 372 087b 850C56A9 		.ascii	"\205\014V\251\355\033\255\304\370C6\304\340\360\002"
 372      ED1BADC4 
 372      F84336C4 
 372      E0F002
 373 088a F76190CF 		.ascii	"\367a\220\317\301_\267s\014\246\300qVR\3173\244R\324"
 373      C15FB773 
 373      0CA6C071 
 373      5652CF33 
 373      A452D4
 374 089d CF109516 		.ascii	"\317\020\225\026\256\353C\320\362`nH\273\353\333\334"
 374      AEEB43D0 
 374      F2606E48 
 374      BBEBDBDC 
 375 08ad 0A22DE05 		.ascii	"\012\"\336\005\255\307\272\371yj\246\007\026g\330`\215"
 375      ADC7BAF9 
 375      796AA607 
 375      1667D860 
 375      8D
 376 08be B48BBC03 		.ascii	"\264\213\274\003:;)\316\364-H\333\277aH\324\352#\353"
 376      3A3B29CE 
 376      F42D48DB 
 376      BF6148D4 
 376      EA23EB
 377 08d1 F88C906D 		.ascii	"\370\214\220mH\344\014#p\355\330e\266//$:=\223\206D"
 377      48E40C23 
 377      70EDD865 
 377      B62F2F24 
 377      3A3D9386 
 378 08e6 E459F19D 		.ascii	"\344Y\361\235MG\237\343G,\375\306\236\341\016\023\345"
 378      4D479FE3 
 378      472CFDC6 
 378      9EE10E13 
 378      E5
 379 08f7 DBE6DC8F 		.ascii	"\333\346\334\217\224\317E\312\237-N9\013\003\333\035"
 379      94CF45CA 
 379      9F2D4E39 
 379      0B03DB1D 
 380 0907 ECD2914F 		.ascii	"\354\322\221O\371\205\337Q\312;\\Q\276\245\327\034\014"
 380      F985DF51 
 380      CA3B5C51 
 380      BEA5D71C 
 380      0C
 381 0918 E9BB32D2 		.ascii	"\351\2732\322wh\273\262\255\275\030\014m\305\203\316"
 381      7768BBB2 
 381      ADBD180C 
 381      6DC583CE 
 382 0928 77AC609E 		.ascii	"w\254`\236\366dj\366-\015L\373\316\340}\317`\325\014"
ARM GAS  /tmp/ccdWlSBO.s 			page 30


 382      F6646AF6 
 382      2D0D4CFB 
 382      CEE07DCF 
 382      60D50C
 383 093b 654716B1 		.ascii	"eG\026\261a\353\207n\360\012\274\031<\332k\274\031\204"
 383      61EB876E 
 383      F00ABC19 
 383      3CDA6BBC 
 383      1984
 384 094d 75C63318 		.ascii	"u\3063\030K\334\311^\323k\306M\206n\013\200\331\275"
 384      4BDCC95E 
 384      D36BC64D 
 384      866E0B80 
 384      D9BD
 385 095f 3FB3BBCC 		.ascii	"?\263\273\314F\"\362\235>\022T\315\367\221\320g\001"
 385      4622F29D 
 385      3E1254CD 
 385      F791D067 
 385      01
 386 0970 A60B315D 		.ascii	"\246\0131]\204i\027\246\213}L\270\275\315\360\021[S"
 386      846917A6 
 386      8B7D4CB8 
 386      BDCDF011 
 386      5B53
 387 0982 2C66126A 		.ascii	",f\022jv\261\263s0\307M\272o\274>\367\227\350\033\317"
 387      76B1B373 
 387      30C74DBA 
 387      6FBC3EF7 
 387      97E81BCF 
 388 0996 A16FEC2C 		.ascii	"\241o\354,\356\033\226C\253\023\330#\223\347\032\335"
 388      EE1B9643 
 388      AB13D823 
 388      93E71ADD 
 389 09a6 C775D7C8 		.ascii	"\307u\327\310\270p\215\226\354\251\205\356\316\3142"
 389      B8708D96 
 389      ECA985EE 
 389      CECC32
 390 09b5 863CBE65 		.ascii	"\206<\276e\342b\315\\\355;\2655\310\305\245\342\\\260"
 390      E262CD5C 
 390      ED3BB535 
 390      C8C5A5E2 
 390      5CB0
 391 09c7 3002A796 		.ascii	"0\002\247\226ah\235\317\306n\235\215\265\256\330xn\241"
 391      61689DCF 
 391      C66E9D8D 
 391      B5AED878 
 391      6EA1
 392 09d9 6EF7AB7D 		.ascii	"n\367\253}\271\355\332\332\302\326\345\250\316\226\354"
 392      B9EDDADA 
 392      C2D6E5A8 
 392      CE96EC
 393 09e8 B2E368AA 		.ascii	"\262\343h\252\032\330&\317`\254\335o8\276\264J\315\274"
 393      1AD826CF 
 393      60ACDD6F 
 393      38BEB44A 
 393      CDBC
 394 09fa A37F31A6 		.ascii	"\243\1771\246\316TG\255\315\211\244RG\020L\202\335t"
ARM GAS  /tmp/ccdWlSBO.s 			page 31


 394      CE5447AD 
 394      CD89A452 
 394      47104C82 
 394      DD74
 395 0a0c 4440C1FE 		.ascii	"D@\301\376\301G\352;\312l\337\320\271\000\352k\333\242"
 395      C147EA3B 
 395      CA6CDFD0 
 395      B900EA6B 
 395      DBA2
 396 0a1e 1D056F40 		.ascii	"\035\005o@\240%C\006\0328\274\356>\004z\015\201V[\200"
 396      A0254306 
 396      1A38BCEE 
 396      3E047A0D 
 396      81565B80 
 397 0a32 44DE6739 		.ascii	"D\336g9\244\360\261\207\024\276P.38\350\343\276\306"
 397      A4F0B187 
 397      14BE502E 
 397      3338E8E3 
 397      BEC6
 398 0a44 C602F78A 		.ascii	"\306\002\367\212aUv\034\025\233\222\3119\316\276\022"
 398      6155761C 
 398      159B92C9 
 398      39CEBE12 
 399 0a54 3CC761BC 		.ascii	"<\307a\274\302}H\364\206\317\022w<`\211\210\354:\352"
 399      C27D48F4 
 399      86CF1277 
 399      3C608988 
 399      EC3AEA
 400 0a67 AABF3C67 		.ascii	"\252\277<g\024\012\372u\037N\223\026A[\336\004\220\221"
 400      140AFA75 
 400      1F4E9316 
 400      415BDE04 
 400      9091
 401 0a79 9CA8D8EE 		.ascii	"\234\250\330\356+w\360\233\274g\002\267\335*2o\013\017"
 401      2B77F09B 
 401      BC6702B7 
 401      DD2A326F 
 401      0B0F
 402 0a8b 78EC9FD6 		.ascii	"x\354\237\326\350\247\371\270i\336\351\006\320n\345"
 402      E8A7F9B8 
 402      69DEE906 
 402      D06EE5
 403 0a9a B1BBCC53 		.ascii	"\261\273\314S\004l\232q~\177\011\347\361\2271]\207\351"
 403      046C9A71 
 403      7E7F09E7 
 403      F197315D 
 403      87E9
 404 0aac 564CB3E6 		.ascii	"VL\263\346\231\335I6\304\261\015lm\262\310\014y\262"
 404      99DD4936 
 404      C4B10D6C 
 404      6DB2C80C 
 404      79B2
 405 0abe B8943F59 		.ascii	"\270\224?Yx\001c\004\231\275B'\013\315\367E~\213\317"
 405      78016304 
 405      99BD4227 
 405      0BCDF745 
 405      7E8BCF
ARM GAS  /tmp/ccdWlSBO.s 			page 32


 406 0ad1 82E7CD96 		.ascii	"\202\347\315\226\263\363\027\205\017>\256O$\335e\274"
 406      B3F31785 
 406      0F3EAE4F 
 406      24DD65BC 
 407 0ae1 47B0CA42 		.ascii	"G\260\312BJ\311\230\224\262\022\225\262\012U\260\003"
 407      4AC99894 
 407      B21295B2 
 407      0A55B003 
 408 0af1 D39D98BE 		.ascii	"\323\235\230\276\313.\264\007\313,\013-\263\256\331"
 408      CB2EB407 
 408      CB2C0B2D 
 408      B3AED9
 409 0b00 2DFB66F1 		.ascii	"-\373f\361\250\331\365} k\327\307\211\027\346j\307\211"
 409      A8D9F57D 
 409      206BD7C7 
 409      8917E66A 
 409      C789
 410 0b12 3DB83EF5 		.ascii	"=\270>\365\226\331\256O\205\216\023?\306.{\363#\320"
 410      96D9AE4F 
 410      858E133F 
 410      C62E7BF3 
 410      23D0
 411 0b24 9BFAFAB4 		.ascii	"\233\372\372\264\267\370\3724czv\361\263\317\347\226"
 411      B7F8FA34 
 411      637A76F1 
 411      B3CFE796 
 412 0b34 D9E986FB 		.ascii	"\331\351\206\373\376\205\267\333\312h\302e\2766\272"
 412      FE85B7DB 
 412      CA68C265 
 412      BE36BA
 413 0b43 6AD0E1D1 		.ascii	"j\320\341\321D\355\025\267\327\244\270?\241\342\366"
 413      44ED15B7 
 413      D7A4B83F 
 413      A1E2F6
 414 0b52 B36A52CB 		.ascii	"\263jR\313-j\362x\374\370z\237\036qk\037\343\317\260"
 414      2D6AF278 
 414      FCF87A9F 
 414      1E716B1F 
 414      E3CFB0
 415 0b65 E265980F 		.ascii	"\342e\230\017\355\355\000\253\01310\333\304\3003\310"
 415      EDED00AB 
 415      0B3130DB 
 415      C4C033C8 
 416 0b75 C01CB4B6 		.ascii	"\300\034\264\266\245\230vcz\230e\251\255\\\327\276\355"
 416      A5987663 
 416      7A9865A9 
 416      AD5CD7BE 
 416      ED
 417 0b86 3E89A01E 		.ascii	">\211\240\036\365\031\333Q\262k[\237\355?s\256_\230"
 417      F519DB51 
 417      B26B5B9F 
 417      ED3F73AE 
 417      5F98
 418 0b98 46FE4541 		.ascii	"F\376EA\275\001\2336=\272\003\026y\323z\271\336\010"
 418      BD019B36 
 418      3DBA0316 
 418      79D37AB9 
ARM GAS  /tmp/ccdWlSBO.s 			page 33


 418      DE08
 419 0baa 6AC8B44F 		.ascii	"j\310\264Om\357\330\033\003U\344\\_\017\202\034\333"
 419      6DEFD81B 
 419      0355E45C 
 419      5F0F821C 
 419      DB
 420 0bbb 8B7C2F30 		.ascii	"\213|/0P\264\031ix\302b\207\331\023R\265V\353\342\355"
 420      50B41969 
 420      78C26287 
 420      D91352B5 
 420      56EBE2ED 
 421 0bcf E495A03A 		.ascii	"\344\225\240:3\374\015\256\035\031\030_\245}\356\346"
 421      33FC0DAE 
 421      1D19185F 
 421      A57DEEE6 
 422 0bdf 647CEFF9 		.ascii	"d|\357\371\276\2019\346\015$\266p\352q\312\227\373\244"
 422      BE8139E6 
 422      0D24B670 
 422      EA71CA97 
 422      FBA4
 423 0bf1 2E1CCA65 		.ascii	".\034\312e\364EO\340\266\240\002N\014y\232}\357\261"
 423      F4454FE0 
 423      B6A0024E 
 423      0C799A7D 
 423      EFB1
 424 0c03 AE31FA37 		.ascii	"\2561\3727K;\254Xv_\2200X\325\014\326i\023V\267g\254"
 424      4B3BAC58 
 424      765F9030 
 424      58D50CD6 
 424      691356B7 
 425 0c19 510CD625 		.ascii	"Q\014\326%q\355\030=\300\332g\305\262\233`\031\2541"
 425      71ED183D 
 425      C0DA67C5 
 425      B29B6019 
 425      AC31
 426 0c2b 0CD66726 		.ascii	"\014\326g&\272\216\272\241\253\300\314\377\205\011\353"
 426      BA8EBAA1 
 426      ABC0CCFF 
 426      8509EB
 427 0c3a 3DCF58CC 		.ascii	"=\317X\314\207C\331\253&\2543\236\261*\031\254k&\254"
 427      8743D9AB 
 427      26AC339E 
 427      B12A19AC 
 427      6B26AC
 428 0c4d 4B9EB1AA 		.ascii	"K\236\261\252\030\254\353&\254\001\317X\254M\3340aM"
 428      18ACEB26 
 428      AC01CF58 
 428      AC4DDC30 
 428      614D
 429 0c5f 0B7BC562 		.ascii	"\013{\305bm\342\246\011\353i\317X\254M\264\357._\377"
 429      6DE2A609 
 429      EB69CF58 
 429      AC4DB4EF 
 429      2E5FFF
 430 0c72 B80EB6C0 		.ascii	"\270\016\266\3003\3308\006l\236\031l\231\033\260\002"
 430      33D83806 
 430      6C9E196C 
ARM GAS  /tmp/ccdWlSBO.s 			page 34


 430      991BB002 
 431 0c82 A703F3CD 		.ascii	"\247\003\363\315`/y\006cMl\241\031l\223g0\326\306\272"
 431      602F7906 
 431      634D6CA1 
 431      196C9367 
 431      30D6C6BA 
 432 0c96 CC606F7B 		.ascii	"\314`o{\006c\215\354Y3X\217g0\326\312\226\232\301\216"
 432      06638DEC 
 432      5933588F 
 432      6730D6CA 
 432      969AC18E 
 433 0caa 7A061BC5 		.ascii	"z\006\033\305\261\227\276\010\236\304E\260\017\027\276"
 433      B197BE08 
 433      9EC445B0 
 433      0F17BE
 434 0cb9 3F63FA3E 		.ascii	"?c\372>\246\037bz\006\323\263\230~\202\351yL/`\372)"
 434      A61F627A 
 434      06D3B398 
 434      7E82E979 
 434      4C2F60FA 
 435 0cce A69731FD 		.ascii	"\246\2271\375\034\323+\230~\211\351\000\246\177\305"
 435      1CD32B98 
 435      7E89E900 
 435      A67FC5
 436 0cdd F42B4C07 		.ascii	"\364+L\007\331\205\365T\330\272\027\324V$\023\215\271"
 436      D985F554 
 436      D8BA17D4 
 436      5624138D 
 436      B9
 437 0cee 858BFBFF 		.ascii	"\205\213\373\377\242\362\254A\245\343\362\332\342\027"
 437      A2F2AC41 
 437      A5E3F2DA 
 437      E217
 438 0cfc B8BFE72E 		.ascii	"\270\277\347.\205\237S5\313\274\207{U\235\225\315\224"
 438      859F5335 
 438      CBBC877B 
 438      559D95CD 
 438      94
 439 0d0d 88FC71A4 		.ascii	"\210\374q\244\237\320\255\325\215\327VH\303)H\206,\247"
 439      9FD0ADD5 
 439      8DD75648 
 439      C3294886 
 439      2CA7
 440 0d1f 0D7A156F 		.ascii	"\015z\025oT\211z\225`T\305\364*\237Q\225\340\250DH\005"
 440      54897A95 
 440      6054C5F4 
 440      2A9F5195 
 440      E0A84448 
 441 0d34 BEEFD744 		.ascii	"\276\357\327DC\213\267S\031\221\"\2543\352x*-\372\330"
 441      438BB753 
 441      199122AC 
 441      33EA782A 
 441      2DFAD8
 442 0d47 4FC5468B 		.ascii	"O\305F\213\002\225\037-\376\204\012\222\026\203T\242"
 442      02951F2D 
 442      FE840A92 
 442      168354A2 
ARM GAS  /tmp/ccdWlSBO.s 			page 35


 443 0d57 B418A6A2 		.ascii	"\264\030\246\242\245\305J*cZ\374\026\0256-VQ\251\323"
 443      A5C54A2A 
 443      635AFC16 
 443      15362D56 
 443      51A9D3
 444 0d6a E21D54FC 		.ascii	"\342\035T\374\264XM\365@\213\272Bh\361\333T3&\016\007"
 444      B4584DF5 
 444      408BBA42 
 444      68F1DB54 
 444      33260E07 
 445 0d7e CD458EA3 		.ascii	"\315E\216\243\301IuW\005\023\234\214\323\365\024\240"
 445      C1497557 
 445      05139C8C 
 445      D3F514A0 
 446 0d8e 7A9AE9F7 		.ascii	"z\232\351\367\032\234\264\372\355\203\223Rj\036\226"
 446      1A9CB4FA 
 446      ED839352 
 446      6A1E96
 447 0d9d 5D75AB43 		.ascii	"]u\253C\214B\240f\371\215\260\234\274\256\310^\352\357"
 447      8C42A066 
 447      F98DB09C 
 447      BCAEC85E 
 447      EAEF
 448 0daf 3C77F957 		.ascii	"<w\371W/oTU|q2m\206\207W'\263\3756\357R\207\331\276"
 448      2F6F5455 
 448      7C71326D 
 448      86875727 
 448      B3FD36EF 
 449 0dc7 4B856BAD 		.ascii	"K\205k\255\352C4\322\376)\377H\326\303\236\366\347\275"
 449      EA4334D2 
 449      FE29FF48 
 449      D6C39EF6 
 449      E7BD
 450 0dd9 4901D2AE 		.ascii	"I\001\322\256\237\274R\242\377\207\355\235\332x0Q\273"
 450      9FBC52A2 
 450      FF87ED9D 
 450      DA783051 
 450      BB
 451 0dea 1A618E75 		.ascii	"\032a\216u\204\271\266#\364\235\377\244j \307\2741\310"
 451      84B9B623 
 451      F49DFFA4 
 451      6A20C7BC 
 451      31C8
 452 0dfc 596610FA 		.ascii	"Yf\020\372\246\344\3120\276\320\220\355\326!;l\207\354"
 452      A6E4CA30 
 452      BED090ED 
 452      D6213B6C 
 452      87EC
 453 0e0e 3C77A8DE 		.ascii	"<w\250\336,o}\310\351\025n\370Z`\035d\241\275\344\236"
 453      2C6F7DC8 
 453      E9156EF8 
 453      5A601D64 
 453      A1BDE49E 
 454 0e22 BD992FB9 		.ascii	"\275\231/\2716W#tYGX\354 \271C\213\370E\323\325\036"
 454      36572374 
 454      594758EC 
 454      20B9438B 
ARM GAS  /tmp/ccdWlSBO.s 			page 36


 454      F845D3D5 
 455 0e37 F5D2E0E0 		.ascii	"\365\322\340\340\360\314,A\037eIE\236\350D\2763\207"
 455      F0CC2C41 
 455      1F654945 
 455      9EE844BE 
 455      3387
 456 0e49 6137E612 		.ascii	"a7\346\022\353\230K\3311-\006>\267\200\201/\317\031"
 456      EB984BD9 
 456      312D063E 
 456      B780812F 
 456      CF19
 457 0e5b B8A51779 		.ascii	"\270\245\027y\323\347\324+\223\353E\266N\007\017\366"
 457      D3E7D42B 
 457      93EB45B6 
 457      4E070FF6 
 458 0e6b EFDAFC22 		.ascii	"\357\332\374\"?\253_m\007-\015\362f\3276mz\331o\315"
 458      3FAB5F6D 
 458      072D0DF2 
 458      66D7366D 
 458      7AD96FCD 
 459 0e7f 1C67006B 		.ascii	"\034g\000k3\221_\345y\012X\3550\005\230\377\0135\327"
 459      33915FE5 
 459      790A58ED 
 459      300598FF 
 459      0B35D7
 460 0e92 0A84BEB6 		.ascii	"\012\204\276\266\302\362\352\337J\205\300m\250\340i"
 460      C2F2EADF 
 460      4A85C06D 
 460      A8E069
 461 0ea1 3FF25FF3 		.ascii	"?\362_\363\026i]/ \255\027\034e|\272@\257\265\271^\337"
 461      16695D2F 
 461      20AD171C 
 461      657CBA40 
 461      AFB5B95E 
 462 0eb6 E39E279B 		.ascii	"\343\236'\233\272\345\207{\246\221\017\363,\037\364"
 462      BAE5877B 
 462      A6910FF3 
 462      2C1FF4
 463 0ec5 EACFD58D 		.ascii	"\352\317\325\215\231J\233\207\\\365\350\3215\332_2]"
 463      994A9B87 
 463      5CF5E8D1 
 463      35DA5F32 
 463      5D
 464 0ed6 232B3569 		.ascii	"#+5i9Z\023\255\227\245\272XZ\221\233GG\271\273,\015"
 464      395A13AD 
 464      97A5BA58 
 464      5A919B47 
 464      47B9BB2C 
 465 0eeb 628968BC 		.ascii	"b\211h\274\261V\202F\351\346\264\322\234\222\322\243"
 465      B1568246 
 465      E9E6B4D2 
 465      9C92D2A3 
 466 0efb EBB9A002 		.ascii	"\353\271\240\002]\304\332\210R\372\323\207\036\255\236"
 466      5DC4DA88 
 466      52FAD387 
 466      1EAD9E
 467 0f0a C085A2F5 		.ascii	"\300\205\242\365\021\255\312\212o\352\036\255\257\205"
ARM GAS  /tmp/ccdWlSBO.s 			page 37


 467      11ADCA8A 
 467      6FEA1EAD 
 467      AF85
 468 0f18 AEC3B576 		.ascii	"\256\303\265v\351\310o\032\245F)\242T\032]i\225?!MU"
 468      E9C86F1A 
 468      A54629A2 
 468      541A5D69 
 468      953F214D 
 469 0f2d FC29599A 		.ascii	"\374)Y\232R\202\345qf\304h\262\241!\231\250I%e%]\363"
 469      5282E571 
 469      66C468B2 
 469      A12199A8 
 469      49256525 
 470 0f43 E3871F9C 		.ascii	"\343\207\037\234\360\340TR\227\212\305%9]\363\323\011"
 470      F0E05452 
 470      978AC525 
 470      395DF3D3 
 470      09
 471 0f54 1360209D 		.ascii	"\023` \235\310\200\222\222c\311\210\362w5\215i\331 "
 471      C8809292 
 471      63C988F2 
 471      77358D69 
 471      D920
 472 0f66 242135C5 		.ascii	"$!5\305c\223j\322Jm,\241\020V\032\341\367_\3769\242"
 472      63936AD2 
 472      4A6D2CA1 
 472      10561AE1 
 472      F75FFE39 
 473 0f7b FCC0AE59 		.ascii	"\374\300\256Y\203\030\255\217%\244\232H\2554Yl\214+"
 473      8318AD8F 
 473      25A49A48 
 473      AD34596C 
 473      8C2B
 474 0f8d 111DBC2C 		.ascii	"\021\035\274,\022\321;\372\3110aBR$\232L(@\375"
 474      12D13BFA 
 474      C9306142 
 474      52249A4C 
 474      2840FD
 475 0fa0 F78B925C 		.ascii	"\367\213\222\\\037M\312\022\300\224c7\000\212*S\177"
 475      1F4DCA12 
 475      C0946337 
 475      008A2A53 
 475      7F
 476 0fb1 E0AE5764 		.ascii	"\340\256Wd\312\275\015\204n\320\231(7D\024A\036'\310"
 476      CABD0D84 
 476      6ED09928 
 476      37441441 
 476      1E27C8
 477 0fc4 F7F9E4B1 		.ascii	"\367\371\344\261c\340\036+\310\367\010\362\017\005\371"
 477      63E01E2B 
 477      C8F708F2 
 477      0F05F9
 478 0fd3 5E41FE57 		.ascii	"^A\376W!.\013\351\224\017\240K\200\035I.I\306k%\331"
 478      212E0BE9 
 478      940FA04B 
 478      801D492E 
 478      49C66B25 
ARM GAS  /tmp/ccdWlSBO.s 			page 38


 479 0fe8 1FAD1765 		.ascii	"\037\255\027e\177Bl\220\312\322\312\023b<V\227\210("
 479      7F426C90 
 479      CAD2CA13 
 479      623C5697 
 479      8828
 480 0ffa 28857BEF 		.ascii	"(\205{\357\211("
 480      8928
 481 1000 942F922D 		.ascii	"\224/\222-m\022'\211i)\250\244\025Q\001M\005\310\203"
 481      6D122789 
 481      6929A8A4 
 481      1551014D 
 481      05C883
 482 1013 711125A4 		.ascii	"q\021%\2445\201\\\011>\011(\015\311Zx^29.\326\245\003"
 482      35815C09 
 482      3E09280D 
 482      C95A785E 
 482      32392ED6 
 483 1029 8A2C4D4E 		.ascii	"\212,MN\203T\310OIC\272\016:RAAG\232+\225k\233\341Q"
 483      8354C84F 
 483      4943BA0E 
 483      3A524141 
 483      479A2B95 
 484 1041 509A1A53 		.ascii	"P\232\032S\242\320\271\264IIN\372u\3526jV\320U\222\245"
 484      A2D0B9B4 
 484      49494EFA 
 484      75EA366A 
 484      56D05592 
 485 1056 44948036 		.ascii	"D\224\2006)\212\234\012\244\245\204\002\035\302`,i\251"
 485      298A9C0A 
 485      A4A58402 
 485      1DC2602C 
 485      69A9
 486 1068 414CD583 		.ascii	"AL\325\203 F:\233\232D$T\022M\200\276|\220\002<T\245"
 486      20463A9B 
 486      9A442454 
 486      124D80BE 
 486      7C90023C 
 487 107e 82D0BBA1 		.ascii	"\202\320\273\241\021\024\344\334\263A\231Jz&\233\022"
 487      1114E4DC 
 487      B341994A 
 487      7A269B12 
 488 108e 921CC0B6 		.ascii	"\222\034\300\266D\016\012T\247\312\245)\204\0101\375"
 488      440E0A54 
 488      A7CAA529 
 488      840831FD 
 489 109e 0454494D 		.ascii	"\004TIM$\3037V\350\246\033\007\377\211(\303M\306Lj\002"
 489      24C33756 
 489      E8A61B07 
 489      FF8928C3 
 489      4DC64C6A 
 490 10b3 4D624C89 		.ascii	"MbL\211%\352\202@;\032sPJI\011\260\274\272\000@\222"
 490      25EA8240 
 490      3B1A7350 
 490      4A4909B0 
 490      BCBA0040 
 491 10c8 16A04631 		.ascii	"\026\240F1N\014\250\244!\225L\306\301\033\036\226\352"
 491      4E0CA8A4 
ARM GAS  /tmp/ccdWlSBO.s 			page 39


 491      21954CC6 
 491      C11B1E96 
 491      EA
 492 10d9 FE2326A7 		.ascii	"\376#&\247\225_ \316p\254x\010\214J+\013Jj\004m\223"
 492      955F20CE 
 492      70AC7808 
 492      8C4A2B0B 
 492      4A6A046D 
 493 10ee A8D5AAFE 		.ascii	"\250\325\252\376\275\371!PfU^\355\317\223 mI\276#\357"
 493      BDF92150 
 493      66555EED 
 493      CF93206D 
 493      49BE23EF 
 494 1102 C17F25E5 		.ascii	"\301\177%\345'\200\204\037CIh\022\377\301Q\030\224\023"
 494      2780841F 
 494      43496812 
 494      FFC15118 
 494      9413
 495 1114 1008C8FD 		.ascii	"\020\010\310\375\027\365\265\017Kq\011\014\302\301\237"
 495      17F5B50F 
 495      4B71090C 
 495      C2C19F
 496 1123 6480245E 		.ascii	"d\200$^\227H&\022\215\361x)\324D\033RP\004\230d\223"
 496      97482612 
 496      8DF17829 
 496      D4441B52 
 496      50049864 
 497 1138 1FBA4EF6 		.ascii	"\037\272N\366\247\032e\251\234\350\020\246\022\011l"
 497      A71A65A9 
 497      9CE810A6 
 497      12096C
 498 1147 3764E4C3 		.ascii	"7d\344\303d\250f*\306aP\235+\007\242\2152X\203R\"\223"
 498      64A8662A 
 498      C661509D 
 498      2B07A28D 
 498      32588352 
 499 115d D2882931 		.ascii	"\322\210)1Yi\024\343\021%\326\000>O{\334\016=l\036\014"
 499      596914E3 
 499      1125D600 
 499      3E4F7BDC 
 499      0E3D6C1E 
 500 1172 67EAB4C9 		.ascii	"g\352\264\311\206\251\012\221\321!C=`\354\275\206\007"
 500      86A90A91 
 500      D121433D 
 500      60ECBD86 
 500      07
 501 1183 906C49AD 		.ascii	"\220lI\255\024W\304\340\024erc\"\012&M~|)Q\016\306\305"
 501      1457C4E0 
 501      14657263 
 501      220A264D 
 501      7E7C2951 
 502 119a B442BA95 		.ascii	"\264B\272\225NQ\3100\025\224\237ZiRc\235f\005\346\232"
 502      4E51C830 
 502      15949F5A 
 502      6952639D 
 502      6605E69A 
 503 11ae 504A4CC4 		.ascii	"PJL\304\242\021\260\001_\355\244\272\262\006\021\340"
ARM GAS  /tmp/ccdWlSBO.s 			page 40


 503      A211B001 
 503      5FEDA4BA 
 503      B20611E0 
 504 11be 356546EB 		.ascii	"5eF\353\235\247[cN\206\311&V\013\374\307&\307\300{\237"
 504      9DA75B63 
 504      4E86C926 
 504      560BFCC7 
 504      26C7C07B 
 505 11d3 94E4A43F 		.ascii	"\224\344\244?\035{R\012L\001.c\311D \245\310\244\034"
 505      1D7B520A 
 505      4C012E63 
 505      C94420A5 
 505      C8A41C
 506 11e6 2404914C 		.ascii	"$\004\221L\031\325\033\251KN\236\034!\326\025 \031\230"
 506      19D51BA9 
 506      4B4E9E1C 
 506      21D61520 
 506      1998
 507 11f8 0842E417 		.ascii	"\010B\344\027'\003\314\341\204\200\215\310|\020&\031"
 507      2703CCE1 
 507      84808DC8 
 507      7C102619 
 508 1208 9813E2B1 		.ascii	"\230\023\342\261\206\230\022\322\012\340\337\230C\337"
 508      869812D2 
 508      0AE0DF98 
 508      43DF
 509 1216 C696C4AF 		.ascii	"\306\226\304\257\3135\\\011\234J\301J26(\223\012\200"
 509      CB355C09 
 509      9C4AC14A 
 509      32362893 
 509      0A80
 510 1228 381A662B 		.ascii	"8\032f+G\313\311ZQ\021G\353\025\005|\266\231\030\032"
 510      47CBC95A 
 510      511147EB 
 510      15057CB6 
 510      99181A
 511 123b 603CD29C 		.ascii	"`<\322\234\376\317d\364\211\020\316\214q\310\215\265"
 511      FECF64F4 
 511      8910CE8C 
 511      71C88DB5 
 512 124b 9917C11F 		.ascii	"\231\027\301\037j&<\370\310\317\036\311!4\244c\351H"
 512      6A263CF8 
 512      C8CF1EC9 
 512      2134A463 
 512      E948
 513 125d 5D340A28 		.ascii	"]4\012(\303\"\221\332XZ\234\024\227\"1\3717\303\304"
 513      C32291DA 
 513      585A9C14 
 513      972231F9 
 513      37C3C4
 514 1270 7893D89C 		.ascii	"x\223\330\234\206\271'\016Sy9\216\360h\202 k\263o#\346"
 514      86B9270E 
 514      5379398E 
 514      F0688220 
 514      6BB36F23 
 515 1285 C3918894 		.ascii	"\303\221\210\224\320\273\004#\021Tyd\230\236\031\375"
 515      D0BB0423 
ARM GAS  /tmp/ccdWlSBO.s 			page 41


 515      11547964 
 515      989E19FD 
 516 1295 C3FBC68C 		.ascii	"\303\373\306\214\375\037G:F\363"
 516      FD1F473A 
 516      46F3
 517              		.text
 518              		.section	.gnu.lto_.symtab.6c2c6828e09f013,"",%progbits
 519 0000 63685265 		.ascii	"chRegFirstThread\000\000\000\000\000\000\000\000\000"
 519      67466972 
 519      73745468 
 519      72656164 
 519      00000000 
 520 0019 000000A1 		.ascii	"\000\000\000\241\000\000\000chRegNextThread\000\000"
 520      00000063 
 520      68526567 
 520      4E657874 
 520      54687265 
 521 0031 00000000 		.ascii	"\000\000\000\000\000\000\000\000\000\000]\001\000\000"
 521      00000000 
 521      00005D01 
 521      0000
 522 003f 63685265 		.ascii	"chRegFindThreadByName\000\000\000\000\000\000\000\000"
 522      6746696E 
 522      64546872 
 522      65616442 
 522      794E616D 
 523 005c 00000000 		.ascii	"\000\000\000\000d\001\000\000chRegFindThreadByPoint"
 523      64010000 
 523      63685265 
 523      6746696E 
 523      64546872 
 524 007a 65720000 		.ascii	"er\000\000\000\000\000\000\000\000\000\000\000\000j"
 524      00000000 
 524      00000000 
 524      00006A
 525 0089 01000063 		.ascii	"\001\000\000chRegFindThreadByWorkingArea\000\000\000"
 525      68526567 
 525      46696E64 
 525      54687265 
 525      61644279 
 526 00ab 00000000 		.ascii	"\000\000\000\000\000\000\000\000\000n\001\000\000ch"
 526      00000000 
 526      006E0100 
 526      006368
 527 00ba 5F646562 		.ascii	"_debug\000\000\000\000\000\000\000\000\000\000\000\000"
 527      75670000 
 527      00000000 
 527      00000000 
 527      0000
 528 00cc D5010000 		.ascii	"\325\001\000\000ch\000\000\002\000\000\000\000\000\000"
 528      63680000 
 528      02000000 
 528      000000
 529 00db 00000086 		.ascii	"\000\000\000\206\001\000\000chThdRelease\000\000\002"
 529      01000063 
 529      68546864 
 529      52656C65 
ARM GAS  /tmp/ccdWlSBO.s 			page 42


 529      61736500 
 530 00f1 00000000 		.ascii	"\000\000\000\000\000\000\000\000\000u\001\000\000"
 530      00000000 
 530      00750100 
 530      00
 531              		.text
 532              		.section	.gnu.lto_.opts,"",%progbits
 533 0000 272D6D63 		.ascii	"'-mcpu=cortex-m0' '-mno-thumb-interwork' '-mthumb' "
 533      70753D63 
 533      6F727465 
 533      782D6D30 
 533      2720272D 
 534 0033 272D6767 		.ascii	"'-ggdb' '-O2' '-fomit-frame-pointer' '-falign-funct"
 534      64622720 
 534      272D4F32 
 534      2720272D 
 534      666F6D69 
 535 0066 696F6E73 		.ascii	"ions=16' '-ffunction-sections' '-fdata-sections' '-"
 535      3D313627 
 535      20272D66 
 535      66756E63 
 535      74696F6E 
 536 0099 666E6F2D 		.ascii	"fno-common' '-flto'\000"
 536      636F6D6D 
 536      6F6E2720 
 536      272D666C 
 536      746F2700 
 537              		.text
 538              		.cfi_sections	.debug_frame
 539              		.section	.text.chRegFirstThread,"ax",%progbits
 540              		.align	2
 541              		.p2align 4,,15
 542              		.global	chRegFirstThread
 543              		.code	16
 544              		.thumb_func
 545              		.type	chRegFirstThread, %function
 546              	chRegFirstThread:
 547              	.LFB149:
 548              		.file 1 "../../../os/rt/src/chregistry.c"
 549              		.loc 1 134 0
 550              		.cfi_startproc
 551              	.LBB71:
 552              	.LBB72:
 553              	.LBB73:
 554              	.LBB74:
 555              		.file 2 "../../../os/common/ext/CMSIS/include/cmsis_gcc.h"
 556              		.loc 2 71 0
 557              	@ 71 "../../../os/common/ext/CMSIS/include/cmsis_gcc.h" 1
 558 0000 72B6     		cpsid i
 559              	@ 0 "" 2
 560              		.code	16
 561              	.LBE74:
 562              	.LBE73:
 563              	.LBE72:
 564              	.LBE71:
 565              		.loc 1 138 0
 566 0002 044B     		ldr	r3, .L2
ARM GAS  /tmp/ccdWlSBO.s 			page 43


 567 0004 1869     		ldr	r0, [r3, #16]
 568              	.LVL0:
 569              		.loc 1 140 0
 570 0006 2223     		mov	r3, #34
 571 0008 C25C     		ldrb	r2, [r0, r3]
 572 000a 0132     		add	r2, r2, #1
 573 000c C254     		strb	r2, [r0, r3]
 574              	.LBB75:
 575              	.LBB76:
 576              	.LBB77:
 577              	.LBB78:
 578              	.LBB79:
 579              		.loc 2 60 0
 580              	@ 60 "../../../os/common/ext/CMSIS/include/cmsis_gcc.h" 1
 581 000e 62B6     		cpsie i
 582              	@ 0 "" 2
 583              		.code	16
 584              	.LBE79:
 585              	.LBE78:
 586              	.LBE77:
 587              	.LBE76:
 588              	.LBE75:
 589              		.loc 1 145 0
 590              		@ sp needed
 591 0010 7047     		bx	lr
 592              	.L3:
 593 0012 C046     		.align	2
 594              	.L2:
 595 0014 00000000 		.word	ch
 596              		.cfi_endproc
 597              	.LFE149:
 598              		.size	chRegFirstThread, .-chRegFirstThread
 599 0018 C046C046 		.section	.text.chRegNextThread,"ax",%progbits
 599      C046C046 
 600              		.align	2
 601              		.p2align 4,,15
 602              		.global	chRegNextThread
 603              		.code	16
 604              		.thumb_func
 605              		.type	chRegNextThread, %function
 606              	chRegNextThread:
 607              	.LFB150:
 608              		.loc 1 158 0
 609              		.cfi_startproc
 610              	.LVL1:
 611 0000 10B5     		push	{r4, lr}
 612              		.cfi_def_cfa_offset 8
 613              		.cfi_offset 4, -8
 614              		.cfi_offset 14, -4
 615              	.LBB80:
 616              	.LBB81:
 617              	.LBB82:
 618              	.LBB83:
 619              		.loc 2 71 0
 620              	@ 71 "../../../os/common/ext/CMSIS/include/cmsis_gcc.h" 1
 621 0002 72B6     		cpsid i
 622              	@ 0 "" 2
ARM GAS  /tmp/ccdWlSBO.s 			page 44


 623              		.code	16
 624              	.LBE83:
 625              	.LBE82:
 626              	.LBE81:
 627              	.LBE80:
 628              		.loc 1 164 0
 629 0004 074B     		ldr	r3, .L8
 630              		.loc 1 162 0
 631 0006 0469     		ldr	r4, [r0, #16]
 632              	.LVL2:
 633              		.loc 1 164 0
 634 0008 9C42     		cmp	r4, r3
 635 000a 08D0     		beq	.L6
 636              		.loc 1 171 0
 637 000c 2223     		mov	r3, #34
 638 000e E25C     		ldrb	r2, [r4, r3]
 639 0010 0132     		add	r2, r2, #1
 640 0012 E254     		strb	r2, [r4, r3]
 641              	.LVL3:
 642              	.L5:
 643              	.LBB84:
 644              	.LBB85:
 645              	.LBB86:
 646              	.LBB87:
 647              	.LBB88:
 648              		.loc 2 60 0
 649              	@ 60 "../../../os/common/ext/CMSIS/include/cmsis_gcc.h" 1
 650 0014 62B6     		cpsie i
 651              	@ 0 "" 2
 652              		.code	16
 653              	.LBE88:
 654              	.LBE87:
 655              	.LBE86:
 656              	.LBE85:
 657              	.LBE84:
 658              		.loc 1 176 0
 659 0016 FFF7FEFF 		bl	chThdRelease
 660              	.LVL4:
 661              		.loc 1 180 0
 662              		@ sp needed
 663 001a 201C     		mov	r0, r4
 664              	.LVL5:
 665 001c 10BD     		pop	{r4, pc}
 666              	.LVL6:
 667              	.L6:
 668              		.loc 1 166 0
 669 001e 0024     		mov	r4, #0
 670              	.LVL7:
 671 0020 F8E7     		b	.L5
 672              	.L9:
 673 0022 C046     		.align	2
 674              	.L8:
 675 0024 00000000 		.word	ch
 676              		.cfi_endproc
 677              	.LFE150:
 678              		.size	chRegNextThread, .-chRegNextThread
 679 0028 C046C046 		.section	.text.chRegFindThreadByName,"ax",%progbits
ARM GAS  /tmp/ccdWlSBO.s 			page 45


 679      C046C046 
 680              		.align	2
 681              		.p2align 4,,15
 682              		.global	chRegFindThreadByName
 683              		.code	16
 684              		.thumb_func
 685              		.type	chRegFindThreadByName, %function
 686              	chRegFindThreadByName:
 687              	.LFB151:
 688              		.loc 1 194 0
 689              		.cfi_startproc
 690              	.LVL8:
 691 0000 38B5     		push	{r3, r4, r5, lr}
 692              		.cfi_def_cfa_offset 16
 693              		.cfi_offset 3, -16
 694              		.cfi_offset 4, -12
 695              		.cfi_offset 5, -8
 696              		.cfi_offset 14, -4
 697              		.loc 1 194 0
 698 0002 051C     		mov	r5, r0
 699              	.LBB89:
 700              	.LBB90:
 701              	.LBB91:
 702              	.LBB92:
 703              	.LBB93:
 704              	.LBB94:
 705              		.loc 2 71 0
 706              	@ 71 "../../../os/common/ext/CMSIS/include/cmsis_gcc.h" 1
 707 0004 72B6     		cpsid i
 708              	@ 0 "" 2
 709              		.code	16
 710              	.LBE94:
 711              	.LBE93:
 712              	.LBE92:
 713              	.LBE91:
 714              		.loc 1 138 0
 715 0006 0B4B     		ldr	r3, .L17
 716 0008 1C69     		ldr	r4, [r3, #16]
 717              	.LVL9:
 718              		.loc 1 140 0
 719 000a 2223     		mov	r3, #34
 720 000c E25C     		ldrb	r2, [r4, r3]
 721 000e 0132     		add	r2, r2, #1
 722 0010 E254     		strb	r2, [r4, r3]
 723              	.LBB95:
 724              	.LBB96:
 725              	.LBB97:
 726              	.LBB98:
 727              	.LBB99:
 728              		.loc 2 60 0
 729              	@ 60 "../../../os/common/ext/CMSIS/include/cmsis_gcc.h" 1
 730 0012 62B6     		cpsie i
 731              	@ 0 "" 2
 732              		.code	16
 733 0014 04E0     		b	.L12
 734              	.LVL10:
 735              	.L16:
ARM GAS  /tmp/ccdWlSBO.s 			page 46


 736              	.LBE99:
 737              	.LBE98:
 738              	.LBE97:
 739              	.LBE96:
 740              	.LBE95:
 741              	.LBE90:
 742              	.LBE89:
 743              		.loc 1 203 0
 744 0016 201C     		mov	r0, r4
 745 0018 FFF7FEFF 		bl	chRegNextThread
 746              	.LVL11:
 747 001c 041E     		sub	r4, r0, #0
 748              	.LVL12:
 749              		.loc 1 204 0
 750 001e 07D0     		beq	.L15
 751              	.LVL13:
 752              	.L12:
 753              		.loc 1 200 0
 754 0020 A069     		ldr	r0, [r4, #24]
 755 0022 291C     		mov	r1, r5
 756 0024 FFF7FEFF 		bl	strcmp
 757              	.LVL14:
 758 0028 0028     		cmp	r0, #0
 759 002a F4D1     		bne	.L16
 760 002c 201C     		mov	r0, r4
 761              	.LVL15:
 762              	.L11:
 763              		.loc 1 207 0
 764              		@ sp needed
 765              	.LVL16:
 766              	.LVL17:
 767 002e 38BD     		pop	{r3, r4, r5, pc}
 768              	.LVL18:
 769              	.L15:
 770              		.loc 1 206 0
 771 0030 0020     		mov	r0, #0
 772              	.LVL19:
 773 0032 FCE7     		b	.L11
 774              	.L18:
 775              		.align	2
 776              	.L17:
 777 0034 00000000 		.word	ch
 778              		.cfi_endproc
 779              	.LFE151:
 780              		.size	chRegFindThreadByName, .-chRegFindThreadByName
 781 0038 C046C046 		.section	.text.chRegFindThreadByPointer,"ax",%progbits
 781      C046C046 
 782              		.align	2
 783              		.p2align 4,,15
 784              		.global	chRegFindThreadByPointer
 785              		.code	16
 786              		.thumb_func
 787              		.type	chRegFindThreadByPointer, %function
 788              	chRegFindThreadByPointer:
 789              	.LFB152:
 790              		.loc 1 221 0
 791              		.cfi_startproc
ARM GAS  /tmp/ccdWlSBO.s 			page 47


 792              	.LVL20:
 793 0000 10B5     		push	{r4, lr}
 794              		.cfi_def_cfa_offset 8
 795              		.cfi_offset 4, -8
 796              		.cfi_offset 14, -4
 797              		.loc 1 221 0
 798 0002 041C     		mov	r4, r0
 799              	.LBB100:
 800              	.LBB101:
 801              	.LBB102:
 802              	.LBB103:
 803              	.LBB104:
 804              	.LBB105:
 805              		.loc 2 71 0
 806              	@ 71 "../../../os/common/ext/CMSIS/include/cmsis_gcc.h" 1
 807 0004 72B6     		cpsid i
 808              	@ 0 "" 2
 809              		.code	16
 810              	.LBE105:
 811              	.LBE104:
 812              	.LBE103:
 813              	.LBE102:
 814              		.loc 1 138 0
 815 0006 094B     		ldr	r3, .L25
 816 0008 1869     		ldr	r0, [r3, #16]
 817              	.LVL21:
 818              		.loc 1 140 0
 819 000a 2223     		mov	r3, #34
 820 000c C25C     		ldrb	r2, [r0, r3]
 821 000e 0132     		add	r2, r2, #1
 822 0010 C254     		strb	r2, [r0, r3]
 823              	.LBB106:
 824              	.LBB107:
 825              	.LBB108:
 826              	.LBB109:
 827              	.LBB110:
 828              		.loc 2 60 0
 829              	@ 60 "../../../os/common/ext/CMSIS/include/cmsis_gcc.h" 1
 830 0012 62B6     		cpsie i
 831              	@ 0 "" 2
 832              	.LVL22:
 833              		.code	16
 834              	.LBE110:
 835              	.LBE109:
 836              	.LBE108:
 837              	.LBE107:
 838              	.LBE106:
 839              	.LBE101:
 840              	.LBE100:
 841              		.loc 1 227 0
 842 0014 8442     		cmp	r4, r0
 843 0016 02D1     		bne	.L21
 844 0018 06E0     		b	.L24
 845              	.LVL23:
 846              	.L22:
 847 001a 8442     		cmp	r4, r0
 848 001c 04D0     		beq	.L24
ARM GAS  /tmp/ccdWlSBO.s 			page 48


 849              	.L21:
 850              		.loc 1 230 0
 851 001e FFF7FEFF 		bl	chRegNextThread
 852              	.LVL24:
 853              		.loc 1 231 0
 854 0022 0028     		cmp	r0, #0
 855 0024 F9D1     		bne	.L22
 856              	.LVL25:
 857              	.L20:
 858              		.loc 1 234 0
 859              		@ sp needed
 860              	.LVL26:
 861 0026 10BD     		pop	{r4, pc}
 862              	.LVL27:
 863              	.L24:
 864              		.loc 1 230 0
 865 0028 201C     		mov	r0, r4
 866              	.LVL28:
 867 002a FCE7     		b	.L20
 868              	.L26:
 869              		.align	2
 870              	.L25:
 871 002c 00000000 		.word	ch
 872              		.cfi_endproc
 873              	.LFE152:
 874              		.size	chRegFindThreadByPointer, .-chRegFindThreadByPointer
 875              		.section	.text.chRegFindThreadByWorkingArea,"ax",%progbits
 876              		.align	2
 877              		.p2align 4,,15
 878              		.global	chRegFindThreadByWorkingArea
 879              		.code	16
 880              		.thumb_func
 881              		.type	chRegFindThreadByWorkingArea, %function
 882              	chRegFindThreadByWorkingArea:
 883              	.LFB153:
 884              		.loc 1 250 0
 885              		.cfi_startproc
 886              	.LVL29:
 887 0000 10B5     		push	{r4, lr}
 888              		.cfi_def_cfa_offset 8
 889              		.cfi_offset 4, -8
 890              		.cfi_offset 14, -4
 891              		.loc 1 250 0
 892 0002 041C     		mov	r4, r0
 893              	.LBB111:
 894              	.LBB112:
 895              	.LBB113:
 896              	.LBB114:
 897              	.LBB115:
 898              	.LBB116:
 899              		.loc 2 71 0
 900              	@ 71 "../../../os/common/ext/CMSIS/include/cmsis_gcc.h" 1
 901 0004 72B6     		cpsid i
 902              	@ 0 "" 2
 903              		.code	16
 904              	.LBE116:
 905              	.LBE115:
ARM GAS  /tmp/ccdWlSBO.s 			page 49


 906              	.LBE114:
 907              	.LBE113:
 908              		.loc 1 138 0
 909 0006 084B     		ldr	r3, .L33
 910 0008 1869     		ldr	r0, [r3, #16]
 911              	.LVL30:
 912              		.loc 1 140 0
 913 000a 2223     		mov	r3, #34
 914 000c C25C     		ldrb	r2, [r0, r3]
 915 000e 0132     		add	r2, r2, #1
 916 0010 C254     		strb	r2, [r0, r3]
 917              	.LBB117:
 918              	.LBB118:
 919              	.LBB119:
 920              	.LBB120:
 921              	.LBB121:
 922              		.loc 2 60 0
 923              	@ 60 "../../../os/common/ext/CMSIS/include/cmsis_gcc.h" 1
 924 0012 62B6     		cpsie i
 925              	@ 0 "" 2
 926              		.code	16
 927 0014 03E0     		b	.L29
 928              	.LVL31:
 929              	.L32:
 930              	.LBE121:
 931              	.LBE120:
 932              	.LBE119:
 933              	.LBE118:
 934              	.LBE117:
 935              	.LBE112:
 936              	.LBE111:
 937              		.loc 1 259 0
 938 0016 FFF7FEFF 		bl	chRegNextThread
 939              	.LVL32:
 940              		.loc 1 260 0
 941 001a 0028     		cmp	r0, #0
 942 001c 02D0     		beq	.L28
 943              	.LVL33:
 944              	.L29:
 945              		.loc 1 256 0
 946 001e C369     		ldr	r3, [r0, #28]
 947 0020 A342     		cmp	r3, r4
 948 0022 F8D1     		bne	.L32
 949              	.LVL34:
 950              	.L28:
 951              		.loc 1 263 0
 952              		@ sp needed
 953              	.LVL35:
 954 0024 10BD     		pop	{r4, pc}
 955              	.L34:
 956 0026 C046     		.align	2
 957              	.L33:
 958 0028 00000000 		.word	ch
 959              		.cfi_endproc
 960              	.LFE153:
 961              		.size	chRegFindThreadByWorkingArea, .-chRegFindThreadByWorkingArea
 962              		.global	ch_debug
ARM GAS  /tmp/ccdWlSBO.s 			page 50


 963 002c C046C046 		.section	.rodata.ch_debug,"a",%progbits
 964              		.align	2
 965              		.type	ch_debug, %object
 966              		.size	ch_debug, 22
 967              	ch_debug:
 968 0000 6D       		.byte	109
 969 0001 61       		.byte	97
 970 0002 69       		.byte	105
 971 0003 6E       		.byte	110
 972 0004 00       		.byte	0
 973 0005 16       		.byte	22
 974 0006 0020     		.short	8192
 975 0008 04       		.byte	4
 976 0009 02       		.byte	2
 977 000a 44       		.byte	68
 978 000b 08       		.byte	8
 979 000c 0C       		.byte	12
 980 000d 10       		.byte	16
 981 000e 14       		.byte	20
 982 000f 18       		.byte	24
 983 0010 1C       		.byte	28
 984 0011 20       		.byte	32
 985 0012 21       		.byte	33
 986 0013 22       		.byte	34
 987 0014 00       		.byte	0
 988 0015 00       		.byte	0
 989 0016 0000     		.text
 990              	.Letext0:
 991              		.file 3 "/usr/lib/gcc/arm-none-eabi/4.8/include/stddef.h"
 992              		.file 4 "/usr/include/newlib/machine/_default_types.h"
 993              		.file 5 "/usr/include/newlib/stdint.h"
 994              		.file 6 "../../../os/common/ports/ARMCMx/compilers/GCC/chtypes.h"
 995              		.file 7 "../../../os/rt/include/chsystypes.h"
 996              		.file 8 "../../../os/rt/include/chschd.h"
 997              		.file 9 "../../../os/common/ports/ARMCMx/chcore.h"
 998              		.file 10 "../../../os/common/ports/ARMCMx/chcore_v6m.h"
 999              		.file 11 "../../../os/rt/include/chsem.h"
 1000              		.file 12 "../../../os/rt/include/chmtx.h"
 1001              		.file 13 "../../../os/rt/include/chregistry.h"
 1002              		.file 14 "../../../os/rt/include/chthreads.h"
 1003              		.file 15 "../../../os/rt/include/chsys.h"
 1004              		.file 16 "/usr/include/newlib/string.h"