ARM GAS  /tmp/cc2bmhpq.s 			page 1


   1              		.cpu cortex-m0
   2              		.fpu softvfp
   3              		.eabi_attribute 20, 1
   4              		.eabi_attribute 21, 1
   5              		.eabi_attribute 23, 3
   6              		.eabi_attribute 24, 1
   7              		.eabi_attribute 25, 1
   8              		.eabi_attribute 26, 1
   9              		.eabi_attribute 30, 2
  10              		.eabi_attribute 34, 0
  11              		.eabi_attribute 18, 4
  12              		.code	16
  13              		.file	"chvt.c"
  14              		.text
  15              	.Ltext0:
  16              		.section	.gnu.lto_.jmpfuncs.7f50a2e5811ddc2f,"",%progbits
  17 0000 789C6362 		.ascii	"x\234cb`b\300\006d\2404\013\003#\020\002\0251\363\003"
  17      6062C006 
  17      64A0340B 
  17      03231002 
  17      1531F303 
  18 0014 29206261 		.ascii	") badd\006\212\227\001\231\000\011|\000\275"
  18      6464068A 
  18      97019900 
  18      097C00BD 
  19              		.text
  20              		.section	.gnu.lto_.inline.7f50a2e5811ddc2f,"",%progbits
  21 0000 789C6362 		.ascii	"x\234cb`b\300\006\224\031\031\030\244\2014\013\003\203"
  21      6062C006 
  21      94191918 
  21      A481340B 
  21      0383
  22 0012 9414230B 		.ascii	"\224\024#\013Cz5\303\257\206\216\206\007\315\357-3\031"
  22      437A35C3 
  22      AF868E86 
  22      07CDEF2D 
  22      3319
  23 0024 19B41956 		.ascii	"\031\264\031V5\000\201i&#c.#C\022#\\\0333\003CF\"\343"
  23      35008169 
  23      2623632E 
  23      23431223 
  23      5C1B3303 
  24 003c 42C66A10 		.ascii	"B\306j\020\213\221\001F:\260\263v\2503\260w\250310\276"
  24      8B910146 
  24      3AB0B376 
  24      A833B077 
  24      A8333130 
  25 0051 60176062 		.ascii	"`\027`b\000r\005\030\244\276-a\344``\334\315\256\300"
  25      00720518 
  25      A4BE2D61 
  25      E46060DC 
  25      CDAEC0
  26 0064 C104A140 		.ascii	"\301\004\241@F0r\201,e\342f\000JM\360cb`gcd`\3428`\307"
  26      46307281 
  26      2C65E266 
  26      004A4DF0 
  26      63626067 
ARM GAS  /tmp/cc2bmhpq.s 			page 2


  27 007f C0B6409E 		.ascii	"\300\266@\236\011b\207\356%\006Ff\306\224\010\306LF"
  27      096287EE 
  27      25064666 
  27      C69408C6 
  27      4C46
  28 0091 26A0F18C 		.ascii	"&\240\361\214\251p\026\310%\314\016\177\357p0\360-u"
  28      A97016C8 
  28      25CC0E7F 
  28      EF7030F0 
  28      2D75
  29 00a3 63626059 		.ascii	"cb`Y /\000\322\0024\015l\030\204ba\020\021`d\006;L\001"
  29      202F00D2 
  29      02340D6C 
  29      18846261 
  29      10116064 
  30 00bb D9911C62 		.ascii	"\331\221\034b\023&32p\034\321\001\272\346\022\033\013"
  30      13263332 
  30      701CD101 
  30      BAE6121B 
  30      0B
  31 00cc 8404111C 		.ascii	"\204\004\021\034`&\320=\227X\005\230\300$\222\241\014"
  31      6026D03D 
  31      97580598 
  31      C02492A1 
  31      0C
  32 00dd 527A7AFA 		.ascii	"Rzz\372\020\224_\254_T\242_\\\224\254\237\234QV\242"
  32      10945FAC 
  32      5F54A25F 
  32      5C94AC9F 
  32      9C5156A2 
  33 00f1 97CC0000 		.ascii	"\227\314\000\000\356\3230\336"
  33      EED330DE 
  34              		.text
  35              		.section	.gnu.lto_.pureconst.7f50a2e5811ddc2f,"",%progbits
  36 0000 789C6362 		.ascii	"x\234cb`b\340d\200\000\026\006)&\011f)\026)\000\002"
  36      6062E064 
  36      80001606 
  36      29260966 
  36      29162900 
  37 0015 D80081   		.ascii	"\330\000\201"
  38              		.text
  39              		.section	.gnu.lto_chVTDoResetI.part.0.7f50a2e5811ddc2f,"",%progbits
  40 0000 789C9555 		.ascii	"x\234\225U]h\\U\020\236\271\377ww\223M\005\245\012\026"
  40      5D685C55 
  40      109EB9FF 
  40      7777934D 
  40      05A50A16 
  41 0014 A96F1673 		.ascii	"\251o\026s\251E\260OR\352K\241y\261\033\320\027\343"
  41      A945B04F 
  41      52EA4BA1 
  41      79B11BD0 
  41      17E3
  42 0026 7A133617 		.ascii	"z\0236\027v\263e\263\326\202\017=\333]J\177\004C@\204"
  42      76B365B3 
  42      D6820F3D 
  42      DB5D4A7F 
  42      04434084 
ARM GAS  /tmp/cc2bmhpq.s 			page 3


  43 003a D61A5B6D 		.ascii	"\326\032[mQ\021\212\010\332Z\321T\245&\226\246\015\212"
  43      51118A08 
  43      DA5AD154 
  43      A52696A6 
  43      0D8A
  44 004c D2104A40 		.ascii	"\322\020J@\350\017B\\\314\203M\300\\g\316\275g\367v"
  44      E80F425C 
  44      CC834DC0 
  44      5C67CEBD 
  44      67F776
  45 005f 35B41EF6 		.ascii	"5\264\036\366\2369?3\337|3s\316Y\0154\350l%\372NY\000"
  45      9E393F33 
  45      DF7C3373 
  45      CE590D34 
  45      E86C25FA 
  46 0076 9F91C414 		.ascii	"\237\221\304\024\240;6C\003\0275)5M?\247\203H\031\277"
  46      A03B3643 
  46      03173529 
  46      354D3FA7 
  46      834819BF 
  47 008a FE082032 		.ascii	"\376\010 2::\274\\s\014\315\371j\003\255\233?{\264l"
  47      3A3ABC5C 
  47      730CCDF9 
  47      6A03AD9B 
  47      3F7BB46C 
  48 009e 6AD61B0F 		.ascii	"j\326\033\017\322\314nl\245\231\205v\244d+m\007\221"
  48      D2CC6E6C 
  48      A5998576 
  48      A4642B6D 
  48      0791
  49 00b0 0780B0CF 		.ascii	"\007\200\260\317\325t\303\264l\007\367\275\210\354\336"
  49      D574C3B4 
  49      6C07F7BD 
  49      88ECDE
  50 00bf 28216C84 		.ascii	"(!l\204\023B\034]8\365\345\247\353\017\277W\033\023"
  50      13421C5D 
  50      38F5E5A7 
  50      EB0FBF57 
  50      1B13
  51 00d1 AB618801 		.ascii	"\253a\210\001\357\372\010/\320\010{\244\320:\310K\263"
  51      EFFA082F 
  51      D0087BA4 
  51      D03AC84B 
  51      B3
  52 00e2 F1C96333 		.ascii	"\361\311c3o\257\027\0113\015\036\305\373\262\024\347"
  52      6FAF1709 
  52      330D1EC5 
  52      FBB214E7 
  53 00f2 5FFE5034 		.ascii	"_\376P4&\303\360Yi\365\370\275\254\316hb!\014\227C\367"
  53      26C3F059 
  53      69F5F8BD 
  53      ACCE6862 
  53      210C9743 
  54 0107 21C412A2 		.ascii	"!\304\022\242\006\001\352:u\206\301\235\311\235E\235"
  54      0601EA3A 
  54      7586C19D 
  54      C99D459D 
ARM GAS  /tmp/cc2bmhpq.s 			page 4


  55 0117 6953070E 		.ascii	"iS\007\016O]\310\343\007\270\021R$O\222L\363b&\236t"
  55      4F5DC8E3 
  55      07B81152 
  55      244F924C 
  55      F362269E 
  56 012c F184604D 		.ascii	"\361\204`Mh\0101\366X\244\031m\311\310\251\345\250\347"
  56      680831F6 
  56      58A4196D 
  56      C9C8A9E5 
  56      A8E7
  57 013e C4E5D065 		.ascii	"\304\345\320e\251\367\223S\226\227a\377\334\235\337"
  57      A9F79353 
  57      969761FF 
  57      DC9DDF
  58 014d 97B53C9E 		.ascii	"\227\265<\236F\023\012\250m\202'\210\31418Z\023\242"
  58      46130AA8 
  58      6D822788 
  58      CC31385A 
  58      13A2
  59 015f 2740AB80 		.ascii	"'@\253\200\310\021\350\222\367+\250\" \273\351\253\251"
  59      C811E892 
  59      F72BA822 
  59      20BBE9AB 
  59      A9
  60 0170 C86A137C 		.ascii	"\310j\023|,\250m%\255x\230\016\320nA8\257\303\2128\310"
  60      2CA86D25 
  60      AD78980E 
  60      D06E4138 
  60      AFC38A38 
  61 0185 23B7849C 		.ascii	"#\267\204\234\010\306sc<\214e\224\240\002K\202^\251"
  61      08C67363 
  61      3C8C6594 
  61      A0024B82 
  61      5EA9
  62 0197 FF76FC99 		.ascii	"\377v\374\231\273\300wu\220\322\222\244\"\031\271\021"
  62      BBC07775 
  62      90D292A4 
  62      2219B911 
  63 01a7 E7692315 		.ascii	"\347i#\025[\315\322\330&\247\312\217\242~\366\354\342"
  63      5BCDD2D8 
  63      26A7CA8F 
  63      A27EF6EC 
  63      E2
  64 01b8 6DBC0BBF 		.ascii	"m\274\013\277+\300\364\232A\033R\362J\232\007S\360\375"
  64      2BC0F49A 
  64      411B52F2 
  64      4A9A0753 
  64      F0FD
  65 01ca CD0B77BA 		.ascii	"\315\013w\272[)\213\035g\333~\237\376\017\267\252\365"
  65      5B298B1D 
  65      67DB7E9F 
  65      FE0FB7AA 
  65      F5
  66 01db 13EC395D 		.ascii	"\023\3549]\277\002\365\346\374/\007\262q\315T\361&/"
  66      BF02F5E6 
  66      FC2F07B2 
  66      71CD54F1 
ARM GAS  /tmp/cc2bmhpq.s 			page 5


  66      262F
  67 01ed 5D7FDF06 		.ascii	"]\177\337\006\210\260}e\337\312`\306G*\325\347\264G"
  67      88B07D65 
  67      DFCA60C6 
  67      472AD5E7 
  67      B447
  68 01ff 2DC02E05 		.ascii	"-\300.\005i\000\335\252\250\230\177N\353\212Y\\\016"
  68      6900DDAA 
  68      A8987F4E 
  68      EB8A595C 
  68      0E
  69 0210 B2833573 		.ascii	"\262\2035sg\266\2632\327\314*KC\036\003X3#m\253\372"
  69      67B6B332 
  69      D7CC2A4B 
  69      431E0358 
  69      33236DAB 
  70 0225 C1FA0D54 		.ascii	"\301\372\015Tf&\371,p\272\010mG2\277\367A\241\300\362"
  70      6626F92C 
  70      70BA086D 
  70      4732BFF7 
  70      41A1C0F2 
  71 0239 327C3BF7 		.ascii	"2|;\367\316\037\267>\032\307\316\274,\315\035\267Z\223"
  71      CE1FB73E 
  71      1AC7CEBC 
  71      2CCD1DB7 
  71      5A93
  72 024b 136F5DB3 		.ascii	"\023o]\263[\223#\213u\267\2351\235>\203>3\302\264\330"
  72      5B93238B 
  72      75B79D31 
  72      9D3E833E 
  72      33C2B4D8 
  73 025f 7FA3B6B0 		.ascii	"\177\243\266\260|qf\034\215\000\273\231\305\030\263"
  73      7C71661C 
  73      8D00BB99 
  73      C518B3
  74 026e C832851E 		.ascii	"\3102\205\036.\234!K\333\023\263\261\030\353\233\310"
  74      2E9C214B 
  74      DB13B3B1 
  74      18EB9BC8 
  75 027e 9EC258AC 		.ascii	"\236\302X\254S\241\277\226\321\331\005\336\344D\315"
  75      53A1BF96 
  75      D1D905DE 
  75      E444CD
  76 028d 37DF7D49 		.ascii	"7\337}I\305\354D\251\212+?\201\377\373\350\333\355\\"
  76      C5EC44A9 
  76      8A2B3F81 
  76      FFFBE8DB 
  76      ED5C
  77 029f 1EAA5714 		.ascii	"\036\252W\024\254+\3759\000\323\020_\316\350Z\027\330"
  77      AC2BFD39 
  77      00D3105F 
  77      CEE85A17 
  77      D8
  78 02b0 7E0A1A37 		.ascii	"~\012\0327.\314\276\251'\362\356&O\230\011?<\251K\274"
  78      2ECCBEA9 
  78      27F2EE26 
  78      4F98093F 
ARM GAS  /tmp/cc2bmhpq.s 			page 6


  78      3CA94BBC 
  79 02c4 2F261E56 		.ascii	"/&\036VJ)\245\227@<)\021S1\342R\0331\305L!y|\373)\370"
  79      4A29A597 
  79      403C2911 
  79      5331E252 
  79      1B31C54C 
  80 02de D3197D1A 		.ascii	"\323\031}\032\366/\254\334\264\222\000\254jh-5\233\235"
  80      F62FACDC 
  80      B49200AC 
  80      6A682D35 
  80      9B9D
  81 02f0 939A032D 		.ascii	"\223\232\003-\007\231\370\244\3745\341)\007i\012N\262"
  81      0799F8A4 
  81      FC35E129 
  81      07690A4E 
  81      B2
  82 0301 E18D96DB 		.ascii	"\341\215\226\333.\271\221Ip\214\237\346\237\216|\207"
  82      2EB99149 
  82      708C9FE6 
  82      9F8E7C87 
  83 0311 E2B0A835 		.ascii	"\342\260\2505\3030+\337\3303x\257G\266\300\327\343\012"
  83      C3302BDF 
  83      D83378AF 
  83      47B6C0D7 
  83      E30A
  84 0323 349AF3AB 		.ascii	"4\232\363\253\027\273\377u\315V\227\314<N\311\027R\035"
  84      17BBFF75 
  84      CD5697CC 
  84      3C4EC917 
  84      521D
  85 0335 1DABE3B2 		.ascii	"\035\253\343\262\255\363\321\316\343%u\224\350\211x"
  85      ADF3D1CE 
  85      E3257594 
  85      E88978
  86 0344 8047D720 		.ascii	"\200G\327 C\3711\347\377\036\214\003\267>\011\213\034"
  86      43F931E7 
  86      FF1E8C03 
  86      B73E098B 
  86      1C
  87 0355 B8235FD4 		.ascii	"\270#_\324Y\372\227j\223\310\021MZej\217\364\366z\321"
  87      59FA976A 
  87      93C8114D 
  87      5A656A8F 
  87      F4F67AD1 
  88 0369 AF3CEA55 		.ascii	"\257<\352U\252\336h\305\367\374\341=\325^\037\314\301"
  88      AADE68C5 
  88      F7FCE13D 
  88      D55E1FCC 
  88      C1
  89 037a A16235EF 		.ascii	"\241b5\357\214\224_\223\003/\251\351\227K\245\362\210"
  89      8C945F93 
  89      032FA9E9 
  89      974BA5F2 
  89      88
  90 038b B7BB5CA9 		.ascii	"\267\273\\\251\216z\333\236\357\333\336\267\227\314"
  90      8E7ADB9E 
  90      EFDBDEB7 
ARM GAS  /tmp/cc2bmhpq.s 			page 7


  90      97CC
  91 0399 FC726568 		.ascii	"\374reh\240\032\224\206*\275\303\260%\251?\234/\306"
  91      A01A9486 
  91      2ABDC3B0 
  91      25A93F9C 
  91      2FC6
  92 03ab CABB727D 		.ascii	"\312\273r}[\236\362v\356|\316\313\355\350\333\263\231"
  92      5B9EF276 
  92      EE7CCECB 
  92      EDE8DBB3 
  92      99
  93 03bc 770646AB 		.ascii	"w\006F\253\003\305\342 \331l\350`\023\214\370\305W\007"
  93      03C5E220 
  93      D96CE860 
  93      138CF8C5 
  93      5707
  94 03ce 872246C3 		.ascii	"\207\"F\303`0\366?h\262\311\275"
  94      6030F63F 
  94      68B2C9BD 
  95              		.text
  96              		.section	.gnu.lto__vt_init.7f50a2e5811ddc2f,"",%progbits
  97 0000 789C6362 		.ascii	"x\234cb`b@\007\222 \014\024\226\001\322\214\314\014"
  97      60624007 
  97      92200C14 
  97      9601D28C 
  97      CC0C
  98 0012 8C4C13CE 		.ascii	"\214L\023\316104r012\202\030\014\214\014\365L\214\365"
  98      31303472 
  98      30313282 
  98      180C8C0C 
  98      F54C8CF5 
  99 0026 918C60B5 		.ascii	"\221\214`\265\353\231\016<\370\377\177\335\257\255\017"
  99      EB990E3C 
  99      F8FF7FDD 
  99      AFAD0F
 100 0035 FB1905D9 		.ascii	"\373\031\005\331\200\002\254\014-\015\015\023\024\030"
 100      8002AC0C 
 100      2D0D0D13 
 100      1418
 101 0043 1892C10A 		.ascii	"\030\222\301\012B\200$HW(#\023\210f>\313\320\364\253"
 101      42802448 
 101      57282313 
 101      88663ECB 
 101      D0F4AB
 102 0056 F9FF65A6 		.ascii	"\371\377e\246D\306\205\214\254\014\332\014\253\032\200"
 102      44C6858C 
 102      AC0CDA0C 
 102      AB1A80
 103 0065 C0329311 		.ascii	"\3002\223\021\306\344\316dd\234\3150\253\261\241A \223"
 103      C6E4CE64 
 103      649CCD30 
 103      ABB1A141 
 103      2093
 104 0077 91A99AE1 		.ascii	"\221\251\232\341WC\007\210\305\234\0136-\202\021\310"
 104      57430788 
 104      C59C0B36 
 104      2D8211C8 
ARM GAS  /tmp/cc2bmhpq.s 			page 8


 105 0087 04DB9B04 		.ascii	"\004\333\233\004\261\036HC\030\020\225\015\363\201\012"
 105      B11E4843 
 105      1810950D 
 105      F3810A
 106 0096 58A0466D 		.ascii	"X\240Fm\005\262\031\201\372`J\301\000l\377\342\036-"
 106      05B21981 
 106      FA604AC1 
 106      006CFFE2 
 106      1E2D
 107 00a8 EAD9CF44 		.ascii	"\352\331\317D\252\375;v<\272\201\341\177V\262\355\207"
 107      AAFD3B76 
 107      3CBA81E1 
 107      7F56B2ED 
 107      87
 108 00b9 F041326C 		.ascii	"\360A2l\377\3773\303\254x\374\201\212V\260 \254\000"
 108      FFFF33C3 
 108      AC78FC81 
 108      8A56B020 
 108      AC00
 109 00cb 312E3234 		.ascii	"1.24>\350W\206\030\017\003!\300x\000\306/(0\244\364"
 109      3EE85786 
 109      180F0321 
 109      C07800C6 
 109      2F2830A4 
 110 00e0 F4F42128 		.ascii	"\364\364!(\277X\277\250D\277\270(Y?9\243\254D/\231\001"
 110      BF58BFA8 
 110      44BFB828 
 110      593F39A3 
 110      AC442F99 
 111 00f5 00BBF58A 		.ascii	"\000\273\365\212f"
 111      66
 112              		.text
 113              		.section	.gnu.lto_chVTDoSetI.7f50a2e5811ddc2f,"",%progbits
 114 0000 789CAD56 		.ascii	"x\234\255V[lTU\024\335\373\334\231\271w\036-\365\201"
 114      5B6C5455 
 114      14DDFBDC 
 114      99B9771E 
 114      2DF581
 115 0013 9456DAA6 		.ascii	"\224V\332\246?<J:\301FMc\3740\372CB?\324\022\365\253"
 115      3F3C4A3A 
 115      C1464D63 
 115      FC30FA43 
 115      423FD412 
 116 0029 1987663A 		.ascii	"\031\207f:I\247%\355\210&\230p\247\035\025\245j\203"
 116      49A725ED 
 116      88269870 
 116      A71D15A5 
 116      6A83
 117 003b 2541C104 		.ascii	"%A\301\004\322\240\006L\333\300O\0331i\221\004*\021"
 117      D2A0064C 
 117      DBC04F1B 
 117      31699104 
 117      2A11
 118 004d 0A48E854 		.ascii	"\012H\350T?FI\213$\206\024\361Q\321t\334\3475\235\227"
 118      3F46498B 
 118      248614F1 
 118      51D174DC 
ARM GAS  /tmp/cc2bmhpq.s 			page 9


 118      E7359D97 
 119 0061 0C106E66 		.ascii	"\014\020nf\316\271\367\334\275\327Y\373\254}\366\271"
 119      CEB9F7DC 
 119      BDD759FB 
 119      AC7DF6B9 
 120 0071 0C18E45E 		.ascii	"\014\030\344^\037\321\377\011\037\300\010\365X\002\310"
 120      1FD1FF09 
 120      1FC008F5 
 120      5802C8
 121 0080 FACF02C4 		.ascii	"\372\317\002\304,\306\214\276\345`{\034\361F\260}\006"
 121      2CC68CBE 
 121      E5607B1C 
 121      F146B07D 
 121      06
 122 0091 3AE4B083 		.ascii	":\344\260\2039\307\014\032v]\376\026h\334\211>9\356"
 122      39C70C1A 
 122      765DFE16 
 122      68DC893E 
 122      39EE
 123 00a3 62E6F78F 		.ascii	"b\346\367\217\320\270u\374I\0326\321\222\303\026z\344"
 123      D0B875FC 
 123      491A36D1 
 123      92C3167A 
 123      E4
 124 00b4 8D5BDE4C 		.ascii	"\215[\336LX\036\346\356;E\256\036o\334$K\257\006\360"
 124      581EE6EE 
 124      3B45AE1E 
 124      6FDC244B 
 124      AF06F0
 125 00c7 21F21B40 		.ascii	"!\362\033@\330\301\014\207\323eZn\217\327\207;^AN\222"
 125      D8C10C87 
 125      D3655A6E 
 125      8FD7873B 
 125      5E414E92 
 126 00db D5C241DB 		.ascii	"\325\302A\333\336\235<\364[\222}l\217\307\017\330\377"
 126      DE9D3CF4 
 126      5B927D6C 
 126      8FC70FD8 
 126      FF
 127 00ec A6528861 		.ascii	"\246R\210a\244\200V!\004\021^\246\007\254\021\035sd"
 127      A4805621 
 127      04115EA6 
 127      07AC111D 
 127      7364
 128 00fe 47287DC7 		.ascii	"G(}\307\367\234\372\240\334>\020\353\267\027\3115\214"
 128      F79CFAA0 
 128      DC3E10EB 
 128      B717C935 
 128      8C
 129 010f 0683EA25 		.ascii	"\006\203\352%\3172\351\231\263<\303l<\231J\365\215\375"
 129      CF32E999 
 129      B33CC36C 
 129      3C994AF5 
 129      8DFD
 130 0121 FEF3397C 		.ascii	"\376\3639|\320\217\020\341\363\005\360 \326\202A\375"
 130      D08F10E1 
 130      F305F020 
ARM GAS  /tmp/cc2bmhpq.s 			page 10


 130      D68241FD 
 131 0131 20F52646 		.ascii	" \365&F\020-j\230\207\032\243\204\032(\005\"\266\234"
 131      102D6A98 
 131      871AA384 
 131      1A280522 
 131      B69C
 132 0143 1AC70ADE 		.ascii	"\032\307\012\336\224\363f\245\262\257\340\017\225\274"
 132      94F366A5 
 132      B2AFE00F 
 132      95BC
 133 0151 59A590AA 		.ascii	"Y\245\220\252\370C\265z]\243\006k9\304j\376f\015o\352"
 133      F843B57A 
 133      5DA3066B 
 133      39C46AFE 
 133      660D6FEA 
 134 0165 A871AEA7 		.ascii	"\250q\256\247\306 VN\210\333v\177\2154\224n\021\244"
 134      C620564E 
 134      88DB767F 
 134      8D34946E 
 134      11A4
 135 0177 988362A9 		.ascii	"\230\203b\251\232\251\0352a32\352\214\357\240\347\314"
 135      9AA91D32 
 135      613332EA 
 135      8CEFA0E7 
 135      CC
 136 0188 C2CD2406 		.ascii	"\302\315$\006\360\020:\241\016\016\333t\225\204\321"
 136      F0103AA1 
 136      0E0EDB74 
 136      9584D1
 137 0197 B50F3EA1 		.ascii	"\265\017>\241\200\315\020\232<p\031\356\253\252\017"
 137      80CD109A 
 137      3C7019EE 
 137      ABAA0F
 138 01a6 A105C03D 		.ascii	"\241\005\300=\367\376\371K\236\247U\330\023\225\247"
 138      F7FEF94B 
 138      9EA755D8 
 138      1395A7
 139 01b5 877B9E98 		.ascii	"\207{\236\2309~\361\354n\267\"\252\031\217_}\377\007"
 139      397EF1EC 
 139      6EB722AA 
 139      198F5F7D 
 139      FF07
 140 01c7 C3483FCD 		.ascii	"\303H?\315\016$\314\364\303\256\3537\322oj\244`\366"
 140      0E24CCF4 
 140      C3AEEB37 
 140      D26F6AA4 
 140      60F6
 141 01d9 886D3B85 		.ascii	"\210m;\205\320\206P\353\013,&\027\200$\013|-\2701\243"
 141      D08650EB 
 141      0B2C2617 
 141      80240B7C 
 141      2DB831A3 
 142 01ed BF2179D5 		.ascii	"\277!y\325\361\010\342\261\344\276?\0066\206\321MAP"
 142      F108E2B1 
 142      E4BE3F06 
 142      3686D14D 
 142      4150
ARM GAS  /tmp/cc2bmhpq.s 			page 11


 143 01ff 269485D1 		.ascii	"&\224\205\321\303\201\274\366N\333v\010L\257\212\207"
 143      C381BCF6 
 143      4EDB7608 
 143      4CAF8A87 
 144 020f 71B02312 		.ascii	"q\260#\022\214\226\342zoi\000\017\323c\010\327\023\030"
 144      8C96E27A 
 144      6F69000F 
 144      D36308D7 
 144      1318
 145 0221 C024F4CC 		.ascii	"\300$\364\314\237\370\352\315\000\016\321`\000\207I"
 145      9FF8EACD 
 145      000ED160 
 145      008749
 146 0230 047E9D86 		.ascii	"\004~\235\206\370\334\304\371w|r<\204%\034\323\300\014"
 146      F8DCC4F9 
 146      777C723C 
 146      84251CD3 
 146      C00C
 147 0242 8A9B89D1 		.ascii	"\212\233\211\321\"\032\344\237\2746hJ\273\210\014\313"
 147      221AE49F 
 147      BC36684A 
 147      BB880CCB 
 148 0252 C1D2360E 		.ascii	"\301\3226\016.\036\331\220\020\3642\304\227\227X\314"
 148      2E1ED990 
 148      10F432C4 
 148      979758CC 
 149 0262 8CFE73DA 		.ascii	"\214\376s\332\324\320\245u\260\216\326_)s\211\374}<"
 149      D4D0A575 
 149      B08ED65F 
 149      297389FC 
 149      7D3C
 150 0274 2A9B4755 		.ascii	"*\233GU\262\035nQLtW\032\0211p\370R\025\232\241z\275"
 150      B21D6E51 
 150      4C74571A 
 150      113170F8 
 150      52159AA1 
 151 028a 4D4EC3C9 		.ascii	"MN\303\311\253\261\015iX\351j7\204q\231\302n$h\202\321"
 151      ABB10D69 
 151      58E96A37 
 151      847199C2 
 151      6E246882 
 152 029f 9E195702 		.ascii	"\236\031W\002\220bd\250\330\033\373\277\216r\366NX\307"
 152      906264A8 
 152      D81BFBBF 
 152      8E72F64E 
 152      58C7
 153 02b1 336F7274 		.ascii	"3ortq\312\220\270\012\351yZ\014u\333p\327|\235*\305"
 153      71CA90B8 
 153      0AE9795A 
 153      0C75DB70 
 153      D77C9D2A 
 154 02c6 D6CBE49C 		.ascii	"\326\313\344\234^\234g\271\340p\317\340\016\005nJ\360"
 154      5E9C67B9 
 154      E070CFE0 
 154      0E056E4A 
 154      F0
 155 02d7 85FB0AEE 		.ascii	"\205\373\012\356\312\002\277\325{\363\303\265Y\340\217"
ARM GAS  /tmp/cc2bmhpq.s 			page 12


 155      CA02BFD5 
 155      7BF3C3B5 
 155      59E08F
 156 02e6 1378E16D 		.ascii	"\023x\341me\212^I\362).ir\014\013\210\"\300\377\272"
 156      658A5E49 
 156      F2292E69 
 156      720C0B88 
 156      22C0FFBA 
 157 02fa 6370EB6E 		.ascii	"cp\353n\301\317L\247\246X.\270Q\030\334\255b\026\231"
 157      C1CF4CA7 
 157      A6582EB8 
 157      5118DCAD 
 157      621699
 158 030d DBBBB3F7 		.ascii	"\333\273\263\367\363\201\247u\212-\247Q!\343$(4U\242"
 158      F381A775 
 158      8A2DA751 
 158      21E32428 
 158      3455A2
 159 0320 536F7F83 		.ascii	"So\177\203\366{vl>\225Z&\366\374\227E\367<\241\001\234"
 159      F67B766C 
 159      3E955A26 
 159      F6FC9745 
 159      F73CA101 
 160 0335 83F8FCD8 		.ascii	"\203\370\374\330\340\334\002\346V\2343'/\320~9'6\247"
 160      E0DC02E6 
 160      569C3327 
 160      2FD07E39 
 160      2736A7
 161 0348 9C29A8D3 		.ascii	"\234)\250\323>\255[Y\020\235\001\274 \323\213\340\302"
 161      3EAD5B59 
 161      109D01BC 
 161      20D38BE0 
 161      C2
 162 0359 F880DE85 		.ascii	"\370\200\336\205.\210\363\022J\354\257\014Tj\366+4{"
 162      2E88F312 
 162      4AECAF0C 
 162      546AF62B 
 162      347B
 163 036b BE21FB1F 		.ascii	"\276!\373\037\322\303\345b;\352\354\336~\217\331-\026"
 163      D2C3E562 
 163      3BEAECDE 
 163      7E8FD92D 
 163      16
 164 037c EBDDDE0E 		.ascii	"\353\335\336\016\215\272R\314W\236\261T\262\340\323"
 164      8DBA52CC 
 164      579EB154 
 164      B2E0D3
 165 038b 1B55113E 		.ascii	"\033U\021>\373\333\320\306\025\222BZ\217\322|=\304n"
 165      FBDBD0C6 
 165      1592425A 
 165      8FD27C3D 
 165      C46E
 166 039d 9F5BDAED 		.ascii	"\237[\332\355\025\002H_\233)\337\336b2\342\233\003O"
 166      1502485F 
 166      9B29DFDE 
 166      6232E29B 
 166      034F
ARM GAS  /tmp/cc2bmhpq.s 			page 13


 167 03af 69A34A62 		.ascii	"i\243Jb \354\212\350\025\300)Qro\257W\245\320kjl\320"
 167      20EC8AE8 
 167      15C02951 
 167      726FAF57 
 167      A5D06B6A 
 168 03c5 CC556BD7 		.ascii	"\314Uk\327\331\243\244\326L\226Z\256|\265\310\346G\255"
 168      D9A3A4D6 
 168      4C965AAE 
 168      7CB5C8E6 
 168      47AD
 169 03d7 5665865A 		.ascii	"Ve\206Z\226T\253gf\372\310Zy\020\204p\325\375\253\015"
 169      9654AB67 
 169      66FAC85A 
 169      79108470 
 169      D5FDAB0D 
 170 03eb A2E68F3B 		.ascii	"\242\346\217;%\262<|\011_O\356\006\372\2541\204xW\366"
 170      25B23C7C 
 170      095F4FEE 
 170      06FAAC31 
 170      847857F6 
 171 03ff 54EAE9AB 		.ascii	"T\352\351\253Ch\204\260J\255\334\241\014\371\252\225"
 171      436884B0 
 171      4AADDCA1 
 171      0CF9AA95 
 172 040f 7C438DDA 		.ascii	"|C\215\332\266\246\320~e\371\305@\3620\263y\324h\036"
 172      B6A6D07E 
 172      65F9C540 
 172      F230B379 
 172      D4681E
 173 0422 1EA0CF28 		.ascii	"\036\240\317(ur\350\271\014\341\"\006\2445\223\223/"
 173      7572E8B9 
 173      0CE12206 
 173      A4359393 
 173      2F
 174 0433 1C49A09E 		.ascii	"\034I\240\236\275*'w\330\377\344\316l\254!\355\022Z"
 174      BD2A2777 
 174      D8FFE4CE 
 174      6CAC21ED 
 174      125A
 175 0445 2A0F0960 		.ascii	"*\017\011`\264\030\326\257\227\036&.\356\375\227\037"
 175      B418D6AF 
 175      971E262E 
 175      EEFD971F 
 176 0455 4D0005BE 		.ascii	"M\000\005\276\322\352\273\330N\261\272\343/qn^%\320"
 176      D2EABBD8 
 176      4EB1BAE3 
 176      2F716E5E 
 176      25D0
 177 0467 E4E8F0B5 		.ascii	"\344\350\360\265\274\357\212\333\026\3004\345\351\341"
 177      BCEF8ADB 
 177      16C034E5 
 177      E9E1
 178 0475 0943CF5F 		.ascii	"\011C\317_+\017\300\302\224\255\364v\352\231\0341\357"
 178      2B0FC0C2 
 178      94ADF476 
 178      EA991C31 
 178      EF
ARM GAS  /tmp/cc2bmhpq.s 			page 14


 179 0486 70324B4D 		.ascii	"p2KMV\253\016\201\341\004\313\362l\314\364\254-DS\035"
 179      56AB0E81 
 179      E104CBF2 
 179      6CCCF4AC 
 179      2D44531D 
 180 049a 1F7B8F26 		.ascii	"\037{\217&\262\003t\027!\252='G\217\336\310[\232\"\025"
 180      B2037417 
 180      21AA3D27 
 180      478FDEC8 
 180      5B9A2215 
 181 04ae D650A974 		.ascii	"\326P\251t\354\247\264\232\253\245sYQEy\302\246\027"
 181      ECA7B49A 
 181      ABA57359 
 181      514579C2 
 181      A617
 182 04c0 740D396A 		.ascii	"t\0159j\270\215\231$\212\341\220\253p\032\235>\226\277"
 182      B88D9924 
 182      8AE190AB 
 182      701A9D3E 
 182      96BF
 183 04d2 62BA247A 		.ascii	"b\272$z\357z\337yD/\276-\350#\020t\212\373\370\267\321"
 183      EF7ADF79 
 183      442FBE2D 
 183      E8231074 
 183      8AFBF8B7 
 184 04e7 79882577 		.ascii	"y\210%w\315\242,\023\372j\246\343b\310\344\025\247\242"
 184      CDA22C13 
 184      FA6AA6E3 
 184      62C8E415 
 184      A7A2
 185 04f9 BEDE2F7F 		.ascii	"\276\336/\177\235\335\376\256\250\277\273+\350\017\266"
 185      9DDDFEAE 
 185      A8BFBB2B 
 185      E80FB6
 186 0508 6D8BD607 		.ascii	"m\213\326\007\001\267:\267\264\266G\003\015\231&m\201"
 186      01B73AB7 
 186      B4B64703 
 186      0D99266D 
 186      81
 187 0519 76FFD6CE 		.ascii	"v\377\326\316\256h\267\377\305\346\246\206\307\374\233"
 187      AE68B7FF 
 187      C5E6A686 
 187      C7FC9B
 188 0528 363DE76F 		.ascii	"6=\347o\336\330\264m\003\177\323\322\035mio\337R\337"
 188      DED8B46D 
 188      037FD3D2 
 188      1D6D696F 
 188      DF52DF
 189 053b 06FE4C9F 		.ascii	"\006\376L\237`g$\322\331\241\334\236y\241\351\331\246"
 189      606724D2 
 189      D9A1DC9E 
 189      79A1E9D9 
 189      A6
 190 054c 37688E60 		.ascii	"7h\216`gWkK4\034i\355\"\373\252\034\032\341\216`\373"
 190      67576B4B 
 190      341C69ED 
 190      22FBAA1C 
ARM GAS  /tmp/cc2bmhpq.s 			page 15


 190      1AE18E60 
 191 0561 6B5B5A25 		.ascii	"k[Z%\22560::_wp\333\377\000\021\014\001U"
 191      9536303A 
 191      3A5F7770 
 191      DBFF0011 
 191      0C0155
 192              		.text
 193              		.section	.gnu.lto_chVTDoResetI.7f50a2e5811ddc2f,"",%progbits
 194 0000 789CAD93 		.ascii	"x\234\255\223=h\024A\024\307\337{\263\263{\271=5`#\202"
 194      3D681441 
 194      14C7DF7B 
 194      B3B37BB9 
 194      3D356023 
 195 0015 2016161E 		.ascii	" \026\026\036\334!6Z\210\265`\231\003\355\214\253\304"
 195      DC21365A 
 195      88B56099 
 195      03ED8CAB 
 195      C4
 196 0026 05CF4072 		.ascii	"\005\317@rha\2219sE*9\254\3044\246\023\021\265\2608"
 196      68619139 
 196      73452A39 
 196      ACC434A6 
 196      1311B5B0 
 197 003b 2BEFAC14 		.ascii	"+\357\254\0241~\224\022P,\022\020\355U\304\365\275\231"
 197      317E9412 
 197      502C1210 
 197      ED55C4F5 
 197      BD99
 198 004d 9DDB4B72 		.ascii	"\235\333Kr\230\306\341\356\275\231\335\371\375\337\233"
 198      98C6E1EE 
 198      BD99DDF9 
 198      FDDF9B
 199 005c F7660908 		.ascii	"\367f\011\010\266\2163\374\377\256\000\252\3541\002"
 199      B68E33FC 
 199      FFAE00AA 
 199      EC3102
 200 006b A4EE2A40 		.ascii	"\244\356*@\273D\244\236\276\0000e\275\026\203\251(\012"
 200      BB44A49E 
 200      BE003065 
 200      BD1683A9 
 200      280A
 201 007d DC32B4CB 		.ascii	"\3342\264\313\000C\267M\273\011\206\210\342\001a\201"
 201      0043B74D 
 201      BB098688 
 201      E2016181 
 202 008d 54A0435C 		.ascii	"T\240C\\8\207V\3761\365?g\331\243\017\257\037\376\306"
 202      388756FE 
 202      31F53F67 
 202      D9A30FAF 
 202      1FFEC6
 203 00a0 E7B49720 		.ascii	"\347\264\227 EP\330D\010d\246\305Db\312l0\026S\021\303"
 203      4550D844 
 203      0864A6C5 
 203      4462CA6C 
 203      30165311 
 204 00b5 A4868E31 		.ascii	"\244\206\2161\335\203M\304C\260b\314\355\376\362\352"
 204      DD834DC4 
ARM GAS  /tmp/cc2bmhpq.s 			page 16


 204      43B062CC 
 204      EDFEF2EA 
 205 00c5 AD7DE65E 		.ascii	"\255}\346^\273k\376d\031\246H\004\007\020\022\204\263"
 205      BB6BFE64 
 205      19A64804 
 205      07101284 
 205      B3
 206 00d6 BC5093D6 		.ascii	"\274P\223\326\005[\316\347H\363\351\374}\323\351g\331"
 206      055BCEE7 
 206      48F3E9FC 
 206      7DD3E967 
 206      D9
 207 00e7 294B1DDE 		.ascii	")K\035\336\211\002y\317c\212\255\234\252\201$^\275\201"
 207      890279CF 
 207      638AAD9C 
 207      AA81245E 
 207      BD81
 208 00f9 9B1F7BEB 		.ascii	"\233\037{\353\003\232\306\025\3240\203T\205#\234z\025"
 208      039AC615 
 208      D4308354 
 208      85239C7A 
 208      15
 209 010a 1E181EC7 		.ascii	"\036\030\036\307R\324\313p\267m\314d\212\341\015\370"
 209      52D4CB70 
 209      B76DCC64 
 209      8AE10DF8 
 210 011a 65966416 		.ascii	"e\226d\0265Q\344%Nd\265/\270\302\260\317'\360\022:\337"
 210      3551E425 
 210      4E64B52F 
 210      B8C2B0CF 
 210      27F0123A 
 211 012f DABB86AA 		.ascii	"\332\273\206\2523\250\212L\032\274\340\312\333\330?"
 211      33A88A4C 
 211      1ABCE0CA 
 211      DBD83F
 212 013e D607E877 		.ascii	"\326\007\350w\005.6\007d\341\022#\022\300\013\373\363"
 212      052E3607 
 212      64E11223 
 212      12C00BFB 
 212      F3
 213 014f 08F46EB7 		.ascii	"\010\364n\267G\364\277\020U \257\236\304\016\311\017"
 213      47F4BF10 
 213      5520AF9E 
 213      C40EC90F 
 214 015f 7672140A 		.ascii	"vr\024\012\266C\254\354B\335\331(\362\213\376G\260h"
 214      B643ACEC 
 214      42DDD928 
 214      F28BFE47 
 214      B068
 215 0171 FBA13803 		.ascii	"\373\2418\003\313\365z\033?q\023y4\305\211\361\341\002"
 215      CBF57A1B 
 215      3F711379 
 215      34C589F1 
 215      E102
 216 0183 EBE5C984 		.ascii	"\353\345\311\204/\367\240(K\344Z%\375+\347R'\270\225"
 216      2FF7A028 
 216      4BE45A25 
ARM GAS  /tmp/cc2bmhpq.s 			page 17


 216      FD2BE752 
 216      27B895
 217 0196 DC36DFA9 		.ascii	"\3346\337\251M\243\301r\317\216\273\273\360u\240\274"
 217      4DA3C172 
 217      CF8EBBBB 
 217      F075A0BC 
 218 01a6 4A8E72C3 		.ascii	"J\216r\303i|\372z\264'{<\026\3332\321\370\274\013dq"
 218      697CFA7A 
 218      B4277B3C 
 218      16DB32D1 
 218      F8BC0B64 
 219 01bb 69F1CBB0 		.ascii	"i\361\313\260\264\025\216\306\244\225:=Z\202\235\202"
 219      B4158EC6 
 219      A4953A3D 
 219      5A829D82 
 220 01cb 33EACFA0 		.ascii	"3\352\317\240a-Vo\241Sr<\300\360\276\306I~/9\231\264"
 220      612D566F 
 220      A153723C 
 220      C0F0BEC6 
 220      497E2F39 
 221 01e1 0042FB05 		.ascii	"\000B\373\005\274\347O\276(\305\024\357\344\247\322"
 221      BCE74FBE 
 221      28C514EF 
 221      E4A7D2
 222 01f0 98FDB55A 		.ascii	"\230\375\265Z\335\375f\347\353s\255\372\374\\RO._k\325"
 222      DDFD66E7 
 222      EB73ADFA 
 222      FC5C524F 
 222      2E5F6BD5 
 223 0204 12285D9D 		.ascii	"\022(]\235\275~\361\322\225\326\264\266\366/\262\241"
 223      BD7EF1D2 
 223      95D6B4B6 
 223      F62FB2A1 
 224 0214 E248     		.ascii	"\342H"
 225              		.text
 226              		.section	.gnu.lto_.symbol_nodes.7f50a2e5811ddc2f,"",%progbits
 227 0000 789C4DC8 		.ascii	"x\234M\310\261\015\3020\024\204\341\273\367l3C\226`"
 227      B10DC230 
 227      1484E1BB 
 227      F76C3343 
 227      9660
 228 0012 C5B34441 		.ascii	"\305\263DA\224\212&\200\022\031!\030\205\202\316%\031"
 228      948A2680 
 228      12192118 
 228      8582CE25 
 228      19
 229 0023 8009D800 		.ascii	"\200\011\330\000$\"\302U\377w\006C\217yv\246\200]\005"
 229      2422C255 
 229      FF770643 
 229      8F7976A6 
 229      805D05
 230 0036 A4D2321E 		.ascii	"\244\3222\036\371)XOq~O-mO\331\037\017\224/d\241\302"
 230      F929584F 
 230      717E4F2D 
 230      6D4FD91F 
 230      0F942F64 
 231 004c 97399323 		.ascii	"\2279\223#\025\027\015T\372\311\221\260\251\367\306"
ARM GAS  /tmp/cc2bmhpq.s 			page 18


 231      15170D54 
 231      FAC991B0 
 231      A9F7C6
 232 005b 11717D99 		.ascii	"\021q}\231\373\012\267n\355\236\360\254\217\340\001"
 232      FB0AB76E 
 232      ED9EF0AC 
 232      8FE001
 233 006a B86C27C3 		.ascii	"\270l'\303\033\233.*0"
 233      1B9B2E2A 
 233      30
 234              		.text
 235              		.section	.gnu.lto_.refs.7f50a2e5811ddc2f,"",%progbits
 236 0000 789C6362 		.ascii	"x\234cb`b0e\200\000\026\006FF& d`dc\002\261 \230\221"
 236      60623065 
 236      80001606 
 236      46462620 
 236      64606463 
 237 0019 918B9901 		.ascii	"\221\213\231\001\312\202\3113\200X, Q\006\000\026\273"
 237      CA82C933 
 237      80582C20 
 237      51060016 
 237      BB
 238 002a 0088     		.ascii	"\000\210"
 239              		.text
 240              		.section	.gnu.lto_.decls.7f50a2e5811ddc2f,"",%progbits
 241 0000 789CBD5B 		.ascii	"x\234\275[\177p\024U\236\357\327=\223\231\220\360ca"
 241      7F701455 
 241      9EEFD73D 
 241      939990F0 
 241      6361
 242 0012 B538D73D 		.ascii	"\2658\327=\342\225{\247{\267\004pu\261\352n\301\013"
 242      E2957BA7 
 242      7BB70470 
 242      75B1EA6E 
 242      C10B
 243 0024 965AB5EC 		.ascii	"\226Z\265\354Y\201\275\242j\377\030\233IKr\233_7\323"
 243      5981BDA2 
 243      6AFF189B 
 243      494B729B 
 243      5F37D3
 244 0037 09507555 		.ascii	"\011PuU6\011D\020\224\000\002\341W\014,?\375I@\202\254"
 244      36094410 
 244      940002E1 
 244      570C2C3F 
 244      FD494082 
 245 004c 80834A36 		.ascii	"\200\203J6\201l\010D\022!G\214\240\234\260\376\000\024"
 245      816C0844 
 245      1221478C 
 245      A09CB0FE 
 245      0014
 246 005e F0073AF7 		.ascii	"\360\007:\367}\337\327=\363\272\247{\246;\350v\361^"
 246      7DDFD73D 
 246      F3BAA77B 
 246      A63BE876 
 246      F15E
 247 0070 DE74BFF7 		.ascii	"\336t\277\367\371\376|\357\373}\257\033Q\020\205\235"
 247      F9FE7CEF 
ARM GAS  /tmp/cc2bmhpq.s 			page 19


 247      FB7DAF1B 
 247      5110859D 
 248 0080 A220C4E1 		.ascii	"\242 \304\341Z2I\020\256e\011\202_\020\204_C\221\240"
 248      5A324910 
 248      AE650982 
 248      5F10845F 
 248      4391A0
 249 0093 6C84B209 		.ascii	"l\204\262\011J\013\024\002\245\023J\000\312f\370\361"
 249      4A0B1402 
 249      A5134A00 
 249      CA66F8F1 
 250 00a3 029457A0 		.ascii	"\002\224W\240\034\200\362\026\224\303P\332\011\353w"
 250      1C80F216 
 250      94C350DA 
 250      09EB77
 251 00b2 9456DC45 		.ascii	"\224V\334E\373\217\322q\206A\311\205\362\274N\203\342"
 251      FB8FD271 
 251      8641C985 
 251      F2BC4E83 
 251      E2
 252 00c3 BDA0D3E9 		.ascii	"\275\240\323\351\200~]\204\321=\004\3458\264_\204r\002"
 252      807E5D84 
 252      D13D04E5 
 252      38B45F84 
 252      7202
 253 00d5 4A37942C 		.ascii	"J7\224,\3405\000\245\025\332Ax\336\254\363\264\003\312"
 253      E03500A5 
 253      15DA4178 
 253      DEACF3B4 
 253      03CA
 254 00e7 6E283128 		.ascii	"n(1({\240\\\204\347\035\002\353Ci\007E\306c\016\374"
 254      7BA05C84 
 254      E71D02EB 
 254      43690745 
 254      C6630EFC 
 255 00fb 1D0E6524 		.ascii	"\035\016e$\224[D\3063\345\3416ho'\251|S\031\003:\257"
 255      945B44C6 
 255      33E5E136 
 255      686F27A9 
 255      7C531903 
 256 0111 56FE5A74 		.ascii	"V\376Zt\376\375\034\017G\250\354\002\243M\364\361v\372"
 256      FEFD1C0F 
 256      47A8EC02 
 256      A34DF4F1 
 256      76FA
 257 0123 A07A1BA9 		.ascii	"\240z\033\251\343\032\3720\360(\275I\272N\250\016x\331"
 257      E31AFA30 
 257      F028BD49 
 257      BA4EA80E 
 257      78D9
 258 0135 AD3C18BA 		.ascii	"\255<\030\272\310\201v\233.?\225\335\340\247C\347\251"
 258      C881769B 
 258      2E3F95DD 
 258      E0A743E7 
 258      A9
 259 0146 59D7CF1E 		.ascii	"Y\327\317\036\235\277\240\316\003\257\217<\221\331\317"
 259      9DBFA0CE 
ARM GAS  /tmp/cc2bmhpq.s 			page 20


 259      03AF8F3C 
 259      91D9CF
 260 0155 D00BB882 		.ascii	"\320\013\270\202\260\027\376\266@y\035\312>(w\212\251"
 260      B017FEB6 
 260      40791DCA 
 260      3E28778A 
 260      A9
 261 0166 B250FB0F 		.ascii	"\262P\373\017\345\354\311\333\230\347\327\220\207\362"
 261      E5ECC9DB 
 261      98E7D790 
 261      87F2
 262 0174 7D37E06C 		.ascii	"}7\340l\321i\360\366k\346l(\352\330\233u\033\035\"\314"
 262      D169F0F6 
 262      6BE66C28 
 262      EAD89B75 
 262      1B1D22CC 
 263 0188 4E56FA39 		.ascii	"NV\3729\302S\232V\2435\325i\017\267\015\033),\323\340"
 263      C2539A56 
 263      A335D569 
 263      0FB70D1B 
 263      292CD3E0 
 264 019c CA6B030E 		.ascii	"\312k\003\016f\020\231\014\313\026\036\303Fn62\3643"
 264      6610990C 
 264      CB161EC3 
 264      466E3632 
 264      F433
 265 01ae 61B3A6D5 		.ascii	"a\263\246\325\017\034\376<\346\327\264\240L6\221\221"
 265      0F1CFE3C 
 265      E6D7B4A0 
 265      4C369191 
 266 01be 40E89F88 		.ascii	"@\350\237\210\360sa\007\214\253\327\264Mc\204\324+\023"
 266      F0736107 
 266      8CABD7B4 
 266      4D6384D4 
 266      2B13
 267 01d0 AC284C21 		.ascii	"\254(L!\202L\266\002\232L\266\220\2373:\332\300\365"
 267      824CB602 
 267      9A4CB690 
 267      9F333ADA 
 267      C0F5
 268 01e2 D69E0564 		.ascii	"\326\236\005d\236\246\021\366L\320\237\332\\w\010M "
 268      9EA611F6 
 268      4CD09FDA 
 268      5C77084D 
 268      20
 269 01f3 45ECCCAA 		.ascii	"E\354\314\252\015\177\2475\275I2\011\325D\014\362?N"
 269      0D7FA735 
 269      BD493209 
 269      D5440CF2 
 269      3F4E
 270 0205 4AB5E54A 		.ascii	"J\265\345J\233\017\245z\001\245\372\037b\"\227\021E"
 270      9B0FA57A 
 270      01A5FA1F 
 270      62229711 
 270      45
 271 0216 1496103A 		.ascii	"\024\226\020:\344\345T)Z\015)^v%\305\006]\012\231<\017"
 271      E4E55429 
ARM GAS  /tmp/cc2bmhpq.s 			page 21


 271      5A0D295E 
 271      7625C506 
 271      5D0A993C 
 272 022b 9288C286 		.ascii	"\222\210\302\206\004\256N8\317\240\353\023\004\243\311"
 272      04AE4E38 
 272      CFA0EB13 
 272      04A3C9
 273 023a 2EBD8319 		.ascii	".\275\203\031\257\261'\267^6\3006y\006\3133\2015\367"
 273      AFB127B7 
 273      5E36C036 
 273      7906CB33 
 273      8135F7
 274 024d AC1FAD35 		.ascii	"\254\037\2555\035\"\331\302B\252b\255N\273k{R%#\014"
 274      1D22D9C2 
 274      42AA62AD 
 274      4EBB6B7B 
 274      5225230C 
 275 0261 0491D3EB 		.ascii	"\004\221\323\353\272[4\237LZ\010\275\273\215\230\325"
 275      BA5B349F 
 275      4C5A08BD 
 275      BB8D98D5 
 276 0271 EA1EA67B 		.ascii	"\352\036\246{\361\336\177A\363\354C\240c\203\006\272"
 276      F1DE7F41 
 276      F3EC43A0 
 276      638306BA 
 277 0281 DCF9D2FD 		.ascii	"\334\371\322\375\010\264\037\201\352D3\220L\244\204"
 277      08B41F81 
 277      EA443390 
 277      4CA484
 278 0290 0213BF8D 		.ascii	"\002\023\277\215\016\024\015\037\353\215x\\\022~\300"
 278      0E140D1F 
 278      EB8D785C 
 278      127EC0
 279 029f CEA2B04C 		.ascii	"\316\242\260L\264\230\313$\221\336\014:\332~\340Zk\207"
 279      B498CB24 
 279      91DE0C3A 
 279      DA7EE05A 
 279      6B87
 280 02b1 7F8D169B 		.ascii	"\177\215\026\233/\231\246\304\255\302J\352\314\360C"
 280      2F99A6C4 
 280      ADC24AEA 
 280      CCF043
 281 02c0 23AA4C7E 		.ascii	"#\252L~}\213\2553P\016\337$\267bKBzpcR\016T\277K\012"
 281      7D8BAD33 
 281      500EDF24 
 281      B7624B42 
 281      7A706352 
 282 02d9 62375057 		.ascii	"b7PW\364\202\317b\"*\372\020z\336j\213\242M\0341JN\\"
 282      F482CF62 
 282      222AFA10 
 282      7ADE6A8B 
 282      A24D1C31 
 283 02f0 B4921C87 		.ascii	"\264\222\034\207Y\223\362L\024\232\254*\263\363\360"
 283      5993F24C 
 283      149AAC2A 
 283      B3F3F0
 284 02ff A099795E 		.ascii	"\240\231y^e\327[\377\262\205\254\250\325\332\306\241"
ARM GAS  /tmp/cc2bmhpq.s 			page 22


 284      65D75BFF 
 284      B285ACA8 
 284      D5DAC6A1 
 285 030f B4A2B0C5 		.ascii	"\264\242\260\305\015\340\010\033\033\330]\374\002!\223"
 285      0DE0081B 
 285      1BD85DFC 
 285      022193
 286 031e 9DE46750 		.ascii	"\235\344gP7\223;\240\336\215\365\036\254cX\267A\235"
 286      37933BA0 
 286      DE8DF51E 
 286      AC6358B7 
 286      419D
 287 0330 56D1148E 		.ascii	"V\321\024\216N\353\004\366.\"\352\013\351\340\226\212"
 287      4EEB04F6 
 287      2E22EA0B 
 287      E9E0968A 
 288 0340 4BC9A542 		.ascii	"K\311\245B&\257z\0063)2vU_*\330\334\227\311\033V<o\276"
 288      26AF7A06 
 288      33293276 
 288      555F2AD8 
 288      DC97C91B 
 289 0358 1C7B7675 		.ascii	"\034{vun\327c\306B\262C$\036\301F\2443\312V\316(\333"
 289      6ED763C6 
 289      42B24324 
 289      1EC146A4 
 289      33CA56CE 
 290 036e D1283BD0 		.ascii	"\321(;\320\004G\260>\212u\207\033slL\232\003\331\326"
 290      0447B03E 
 290      8A75871B 
 290      736C4C9A 
 290      03D9D6
 291 0381 620DBFA7 		.ascii	"b\015\277\247*e\241r\027pm\023I\264\200\001S)P\027\336"
 291      2A65A172 
 291      17706D13 
 291      49B48001 
 291      53295017 
 292 0396 87C27559 		.ascii	"\207\302uY\"I\354\253\265\271t%\355r\021E\264\330\262"
 292      2249ECAB 
 292      B5B97425 
 292      ED721145 
 292      B4D8B2
 293 03a9 BEF58446 		.ascii	"\276\365\204F\021\033r\003\211\300u\273\220\230\255"
 293      111B7203 
 293      89C075BB 
 293      9098AD
 294 03b8 1FFEF592 		.ascii	"\037\376\365\222\204\263\365\035\344\364-1c\3743\303"
 294      84B3F51D 
 294      E4F42D31 
 294      63FC33C3 
 295 03c8 8842170E 		.ascii	"\210B\027\016\351M\211\177u\237\030\361\257\327\025"
 295      E94D897F 
 295      759F18F1 
 295      AFD715
 296 03d7 E77B7B1D 		.ascii	"\347{{\0359\237\314[\326Xf.\352q\273\017\031\357\267"
 296      399FCC5B 
 296      D658662E 
 296      EA71BB0F 
ARM GAS  /tmp/cc2bmhpq.s 			page 23


 296      19EFB7
 297 03ea 67BC69B2 		.ascii	"g\274i\262\023\214(|\212C\372S\003\367\261\032\235\361"
 297      138C287C 
 297      8A43FA53 
 297      03F7B11A 
 297      9DF1
 298 03fc 7E5781FB 		.ascii	"~W\201\373\370S.\323\017\237A\177JR\214\017\306\210"
 298      F8532ED3 
 298      0F9F417F 
 298      4A528C0F 
 298      C688
 299 040e 32398722 		.ascii	"29\207\"\3043\353\336\014!\012\013%:\344|\252\356\317"
 299      C433EBDE 
 299      0C210A0B 
 299      253AE47C 
 299      AAEECF
 300 0421 18229C77 		.ascii	"\030\"\234w\245\373\353G\230\356\015m.O\340\332\251"
 300      A5FBEB47 
 300      98EE0D6D 
 300      2E4FE0DA 
 300      A9
 301 0432 2EF382F2 		.ascii	".\363\202\362\345\021XP\364\330\314\364\2216d\\^\373"
 301      E5115850 
 301      F4D8CCF4 
 301      9136645C 
 301      5EFB
 302 0444 F671528B 		.ascii	"\366qR\213\374~\214\323\374\270d\033\346]@u/>|\210\324"
 302      FC7E8CD3 
 302      FCB8641B 
 302      E65D4075 
 302      2F3E7C88 
 303 0459 20D46708 		.ascii	" \324g\010uj\320P\227;\337^\246su\005\241\316J\326\234"
 303      756AD050 
 303      973BDF5E 
 303      A6737505 
 303      A1CE4AD6 
 304 046e 2160C919 		.ascii	"!`\311\031\002\346\310\036\310N6\350nq\270\360\003w"
 304      02E6C81E 
 304      C84E36E8 
 304      6E71B8F0 
 304      0377
 305 0480 17854FAC 		.ascii	"\027\205O\254\226\313\030\006M\236\000\231C\277\210"
 305      96CB1806 
 305      4D9E0099 
 305      43BF88
 306 048f 99833181 		.ascii	"\231\2031\201\262\234\264$\012W\220\326u\253\367\305"
 306      B29CB424 
 306      0A5790D6 
 306      75ABF7C5 
 307 049f DFEB30BC 		.ascii	"\337\3530\274\357\272\253\011\264\347\310jw\023H4\350"
 307      EFBAAB09 
 307      B4E7C86A 
 307      77134834 
 307      E8
 308 04b0 DF89F477 		.ascii	"\337\211\364w\370(\375\033V\372}\347\336\235\330\240"
 308      F828FD1B 
 308      56FA7DE7 
ARM GAS  /tmp/cc2bmhpq.s 			page 24


 308      DE9DD8A0 
 309 04c0 6923D8A3 		.ascii	"i#\330\243\314\344\327t>\233J\3361=\322\235#\376\336"
 309      CCE4D774 
 309      3E9B4ADE 
 309      313DD29D 
 309      23FEDE
 310 04d3 F9CBBA90 		.ascii	"\371\313\272\220\232H\323\205s>\253sL\312\341\211\351"
 310      9A48D385 
 310      733EAB73 
 310      4CCAE189 
 310      E9
 311 04e4 391497B1 		.ascii	"9\024\227\261|\234`\177PQ\033\344\374h\342\216]\232"
 311      7C9C607F 
 311      50511BE4 
 311      FC68E28E 
 311      5D9A
 312 04f6 B628CBE0 		.ascii	"\266(\313\340\3413\317\210y&M\254\357\304<\200\201]"
 312      E133CF88 
 312      79264DAC 
 312      EFC43C80 
 312      815D
 313 0508 71039626 		.ascii	"q\003\226&n7\362`\327<\203\2319\333\311\203}\355\006"
 313      6E37F260 
 313      D73C8399 
 313      39DBC983 
 313      7DED06
 314 051b CC2E33D3 		.ascii	"\314.3\323\301v\361`\337z\0063s\366*\017\246\371]\200"
 314      C176F160 
 314      DF7A0633 
 314      73F62A0F 
 314      A6F95D80 
 315 052f 8D76E6AC 		.ascii	"\215v\346\254\205\007\253\365\014f\346\3545\036\254"
 315      8507ABF5 
 315      0C66E6EC 
 315      351EAC
 316 053e CE0D589E 		.ascii	"\316\015X\236\015g\211\313)\365\371&\231\372\210\302"
 316      0D6789CB 
 316      29F5F926 
 316      99FA88C2 
 317 054e 22BFB124 		.ascii	"\"\277\261$x\364i!\211\261\304\357u\0113\311\015\001"
 317      78F46921 
 317      89B1C4EF 
 317      750933C9 
 317      0D01
 318 0560 FCBD4D46 		.ascii	"\374\275MF&\177\026\367 \365n\020\3238L\375Q\324$\003"
 318      267F16F7 
 318      20F56E10 
 318      D3384CFD 
 318      51D42403 
 319 0574 5BE519CC 		.ascii	"[\345\031\314l\226F\012fZk\364\2204\260%6\272!\271\332"
 319      6C96460A 
 319      665A6BF4 
 319      9034B025 
 319      36BA21B9 
 320 0589 050D2C7A 		.ascii	"\005\015,zt\303\226\266zM\023\023\235\265\321\243\355"
 320      74C396B6 
 320      7A4D1313 
ARM GAS  /tmp/cc2bmhpq.s 			page 25


 320      9DB5D1A3 
 320      ED
 321 059a FBCA6483 		.ascii	"\373\312d\203HS\331F1;\301\005k\033\2558\241z^\357\267"
 321      4853D946 
 321      313BC105 
 321      6B1BAD38 
 321      A17A5EEF 
 322 05af 1C0A1957 		.ascii	"\034\012\031W\246\241N\236\260N\344<a\243\0335\245\231"
 322      A6A14E9E 
 322      B04EE43C 
 322      61A31B35 
 322      A599
 323 05c1 0A5D4E6A 		.ascii	"\012]Nj\212\325i\013\311\274\346\333\323f\207\361\367"
 323      8AD5690B 
 323      C9BCE6DB 
 323      D36687F1 
 323      F7
 324 05d2 3EDDA8A7 		.ascii	">\335\250\247\001\177\024i\354\336\352\267M\003\\\201"
 324      017F1469 
 324      ECDEEAB7 
 324      4D035C81 
 325 05e2 752F3E66 		.ascii	"u/>f\344\024[\021\254\371&\300.w\2361\262\212\035\010"
 325      E4145B11 
 325      ACF926C0 
 325      2E779E31 
 325      B28A1D08 
 326 05f6 F627BF35 		.ascii	"\366'\2775pd[\262\212ls\334\317\316N6\342\306e6\345"
 326      70645BB2 
 326      8A6C73DC 
 326      CFCE4E36 
 326      E2C66536 
 327 060b 0F3AC6C9 		.ascii	"\017:\306\311\374\233x\363\037\366l~\323,\201<\344\232"
 327      FC9B78F3 
 327      1FF66C7E 
 327      D32C813C 
 327      E49A
 328 061d B85A8BCD 		.ascii	"\270Z\213\315\2238\177O;9@\263\247\017\376\033\356\010"
 328      93387F4F 
 328      3B3940B3 
 328      A70FFE1B 
 328      EE08
 329 062f 5E46BD76 		.ascii	"^F\275v\330\033\311\005P\367\342\227\376\031\201\232"
 329      D81BC905 
 329      50F7E297 
 329      FE19819A 
 330 063f 11E8E4A0 		.ascii	"\021\350\344\240\201.w6ND\240W\021\350L\212\245\211"
 330      812E7736 
 330      4E44A057 
 330      11E84C8A 
 330      A589
 331 0651 C5D2C46C 		.ascii	"\305\322\304l\001\222\235l\244X\353{\354+\012\377g5"
 331      01929D6C 
 331      A458EB7B 
 331      EC2B0AFF 
 331      6735
 332 0663 97499C34 		.ascii	"\227I\2344\341!\261\346\336XN>\257\321\032\306y\320"
 332      E121B1E6 
ARM GAS  /tmp/cc2bmhpq.s 			page 26


 332      DE584E3E 
 332      AFD11AC6 
 332      79D0
 333 0675 CE5ADD5E 		.ascii	"\316Z\335^\373P;\237\244h\247Y\364\246\036Q\270\352"
 333      FB503B9F 
 333      A468A759 
 333      F4A61E51 
 333      B8EA
 334 0687 598CA059 		.ascii	"Y\214\240Y\214\272\370 \304x\203\211q\020\305\370\346"
 334      8CBAF820 
 334      C4788389 
 334      7110C5F8 
 334      E6
 335 0698 7B10A336 		.ascii	"{\020\2436\313\253\030#81p\013\373,\213\200\243\204"
 335      CBAB1823 
 335      3831700B 
 335      FB2C8B80 
 335      A384
 336 06aa E5E9B378 		.ascii	"\345\351\263x\312\317[\342(\363\211\303\311N\222\307"
 336      CACF5BE2 
 336      28F389C3 
 336      C94E92C7 
 337 06ba 6E67DE3A 		.ascii	"ng\336:~\336\271\036\263gT\230\346j_u:\261\333kE\225"
 337      7EDEB91E 
 337      B3675498 
 337      E66A5F75 
 337      3AB1DB6B 
 338 06d0 2DCCB299 		.ascii	"-\314\262\231`n\240\232\272\217\342!s;\302<3X\030\230"
 338      606EA09A 
 338      BA8FE221 
 338      733BC23C 
 338      33581898 
 339 06e4 A76FB079 		.ascii	"\247o\260y\332\201@\253\262\254&\314\262X0\313lA\370"
 339      DA8140AB 
 339      B2AC26CC 
 339      B25830CB 
 339      6C41F8
 340 06f7 49297D89 		.ascii	"I)}\211\013\344\023\372\035\372# \374\315\307\211B\023"
 340      0BE413FA 
 340      1DFA2320 
 340      FCCDC789 
 340      4213
 341 0709 B24FADE7 		.ascii	"\262O\255\3471\0073\274\247\356\203\025F\376\304\014"
 341      310733BC 
 341      A7EE8315 
 341      46FEC40C 
 342 0719 B4EDA610 		.ascii	"\264\355\246\020kb\317-5^m\340\311\352\316\233\204\333"
 342      6B62CF2D 
 342      355E6DE0 
 342      C9EACE9B 
 342      84DB
 343 072b 7FCC9A1A 		.ascii	"\177\314\232\032X\266n\347\034\302\216qttn\200\235P"
 343      58B66EE7 
 343      1CC28E71 
 343      74746E80 
 343      9D50
 344 073d F7606ABC 		.ascii	"\367`j\2747\305\334g\211e\353v\326|\332\3544\221N\362"
ARM GAS  /tmp/cc2bmhpq.s 			page 27


 344      37C5DC67 
 344      8965EB76 
 344      D67CDAEC 
 344      34914EF2 
 345 0751 11F0C8CD 		.ascii	"\021\360\310\315\232\241\365\252\305\014]7\251\267\257"
 345      9AA1F5AA 
 345      C50C5D37 
 345      A9B7AF
 346 0760 96BA3BA8 		.ascii	"\226\272;\250z\314\300bo\351\336E\262\375\242e\233\275"
 346      7ACCC062 
 346      6FE9DE45 
 346      B2FDA265 
 346      9BBD
 347 0772 EEFA409D 		.ascii	"\356\372@\235\236\025\321g\231W\212\276\017\263\265"
 347      9E15D167 
 347      99578ABE 
 347      0FB3B5
 348 0781 E5B9EC88 		.ascii	"\345\271\354\210I&\027\361X\230\216\264K\2262\252'\326"
 348      492617F1 
 348      58988EB4 
 348      4B9632AA 
 348      27D6
 349 0793 AFB48DF3 		.ascii	"\257\264\215\363\262\346\264\032k\3169\324\345\202\200"
 349      B2E6B41A 
 349      6BCE39D4 
 349      E58280
 350 07a2 D5E8EDD6 		.ascii	"\325\350\355\326e\332\323\244[\034 fq\334\356\226\023"
 350      65DAD3A4 
 350      5B1C2066 
 350      71DCEE96 
 350      13
 351 07b3 9793539D 		.ascii	"\227\223S\235\341\235ji\340\246\\\200\276\225\334\314"
 351      E19D6A69 
 351      E0A65C80 
 351      BE95DCCC 
 352 07c3 9C2A9313 		.ascii	"\234*\223\023h\211c\336\021Hy\025R"
 352      688963DE 
 352      11487915 
 352      52
 353 07d0 BE68F582 		.ascii	"\276h\365\202\370\327mO\352\347 \027]y\301U\033/\270"
 353      F8D76D4F 
 353      EAE72017 
 353      5D79C155 
 353      1B2FB8
 354 07e3 38482F00 		.ascii	"8H/\000\227\276\320N\020\216\355\315\336H0\351\321\012"
 354      97BED04E 
 354      108EEDCD 
 354      DE4830E9 
 354      D10A
 355 07f5 3ADC0DC5 		.ascii	":\334\015\305\253b\230\177\305N}H#\346\025\221\036\236"
 355      AB62987F 
 355      C54E7D48 
 355      23E61591 
 355      1E9E
 356 0807 1E4E712D 		.ascii	"\036Nq-\246\031\316\265\222j\224\311\307\270Y\373D\244"
 356      A619CEB5 
 356      926A94C9 
ARM GAS  /tmp/cc2bmhpq.s 			page 28


 356      C7B859FB 
 356      44A4
 357 0819 EF1A3EC5 		.ascii	"\357\032>\305\372\222\350\342\215\303e1\345\005\220"
 357      FA92E8E2 
 357      8DC36531 
 357      E50590
 358 0828 17B9F35C 		.ascii	"\027\271\363\\z\337\005\336\373\376r\223\336w\255\265"
 358      7ADF05DE 
 358      FBFE7293 
 358      DE77ADB5 
 359 0838 D387878B 		.ascii	"\323\207\207\213\036\016aO\0376&\356u\234\270\357\244"
 359      1E0E614F 
 359      1F3626EE 
 359      759CB8EF 
 359      A4
 360 0849 68F7336B 		.ascii	"h\3673k\026\355\346\234t`\260\242$.H\232\003.\3668y"
 360      16EDE69C 
 360      7460B0A2 
 360      242E489A 
 360      032EF638 
 361 085e 365A4F04 		.ascii	"6ZO\004\332\036=M\313x\330j\274T?\037c/=\276EO\273`"
 361      DA1E3D4D 
 361      CB78D86A 
 361      BC543F1F 
 361      632F3DBE 
 362 0876 D1858B33 		.ascii	"\321\205\2133\333/q\210&\245\2741H\234\331\322g\231"
 362      DB2F7188 
 362      26A5BC31 
 362      489CD9D2 
 362      6799
 363 0888 0F4D773F 		.ascii	"\017Mw?e\204t\026\033\231\007\322\261\203\325\247\311"
 363      65847416 
 363      1B9907D2 
 363      B183D5A7 
 363      C9
 364 0899 84490665 		.ascii	"\204I\006eR#\321\011R+q\223\002r\306\240\013\335\337"
 364      5223D109 
 364      522B7193 
 364      0272C6A0 
 364      0BDDDF
 365 08ac E5E48AB0 		.ascii	"\345\344\212\260\014\2350\277\361\250\267\342\331-D"
 365      0C9D30BF 
 365      F1A8B7E2 
 365      D92D44
 366 08bb 263CDE96 		.ascii	"&<\336\2265\261\372n<\"b>\272\306\015s\343\234\301\236"
 366      35B1FA6E 
 366      3C22623E 
 366      BAC60D73 
 366      E39CC19E 
 367 08cf 5B6128F7 		.ascii	"[a(\367\002f(\233\334\340Mt\022\266&\266\267{\275\216"
 367      0266289B 
 367      DCE04D74 
 367      12B626B6 
 367      B77BBD8E 
 368 08e3 C75EAF3C 		.ascii	"\307^\257<\357\031\317\314\337\311\025\246|n\267\033"
 368      EF19CFCC 
 368      DFC915A6 
ARM GAS  /tmp/cc2bmhpq.s 			page 29


 368      7C6EB71B 
 369 08f3 B8C9AE6D 		.ascii	"\270\311\256m\237|\235%\223\217\360\245\354\005|\021"
 369      9F7C9D25 
 369      938FF0A5 
 369      EC057C11 
 370 0903 FB57ACAF 		.ascii	"\373W\254\257a\275\012\027\312\006\254\327b\275\021"
 370      61BD0A17 
 370      CA06ACD7 
 370      62BD11
 371 0912 EB97B07E 		.ascii	"\353\227\260~\015\353\003X\277\211\365\015\254\027H"
 371      0DEB0358 
 371      BF89F50D 
 371      AC1748
 372 0921 B47E12EB 		.ascii	"\264~\022\353EX/\306\372i\311\305\202k\311\001\015\227"
 372      45582FC6 
 372      FA69C9C5 
 372      826BC901 
 372      0D97
 373 0933 EF1FF45B 		.ascii	"\357\037\364[\367\023G\022\247\212\306[w/`y\351t\330"
 373      F7134712 
 373      A78AC65B 
 373      772F6079 
 373      E974D8
 374 0946 CFE97000 		.ascii	"\317\351p\000u\370>\352m)/\251\021~{\007\375\236o_/"
 374      75F83EEA 
 374      6D292FA9 
 374      117E7B07 
 374      FD9E6F5F 
 375 095b EF5832B9 		.ascii	"\357X2\271j\305\363\024\177\265\330\376^6\213\220\373"
 375      6AC5F314 
 375      7FB5D8FE 
 375      5E368B90 
 375      FB
 376 096c 95A25730 		.ascii	"\225\242W0\263\227v\2576/Q\253\335\340\2459\005~\247"
 376      B39776AF 
 376      362F51AB 
 376      DDE0A539 
 376      057EA7
 377 097f 97B3D71A 		.ascii	"\227\263\327\032\317`f\346N\367rG\312\373\202$3\230"
 377      CF6066E6 
 377      4EF77247 
 377      CAFB8224 
 377      3398
 378 0991 DD59A9BD 		.ascii	"\335Y\251\275\361{9\343\237B\343\237F\343\327\243\263"
 378      F17B39E3 
 378      9F42E39F 
 378      46E3D7A3 
 378      B3
 379 09a2 2FC37A39 		.ascii	"/\303z9\326+\260~\326\274\264\036\012\032\237!\350\304"
 379      D62BB07E 
 379      D6BCB41E 
 379      0A1A9F21 
 379      E8C4
 380 09b4 CC6FFCD3 		.ascii	"\314o\374\323x\205L:\201\220n\313\346>\346\033nc\333"
 380      78854C3A 
 380      81906ECB 
 380      E63EE61B 
ARM GAS  /tmp/cc2bmhpq.s 			page 30


 380      6E63DB
 381 09c7 87D7622C 		.ascii	"\207\327b,\2665HtA\376s\320sl\353\301!\353Rc\333w\306"
 381      B6354874 
 381      41FE73D0 
 381      736CEBC1 
 381      21EB5263 
 382 09de 9708EB32 		.ascii	"\227\010\3532\307\266\371\265\2615k\267&\367I\265\211"
 382      C7B6F9B5 
 382      B1356BB7 
 382      26F749B5 
 382      89
 383 09ef 5DE57A58 		.ascii	"]\345zX\333\235\026\007\323\321\367\371\004\037\337"
 383      DB9D1607 
 383      D3D1F7F9 
 383      041FDF
 384 09fe 4B2C5CC7 		.ascii	"K,\\\307\305\302\015\030\013\033\315\006\273d5\230\307"
 384      C5C20D18 
 384      0B1BCD06 
 384      BB643598 
 384      C7
 385 0a0f 58B8AFCF 		.ascii	"X\270\257\317\210\205\354C\204/\254x\346\317\016\322"
 385      8885EC43 
 385      842FAC78 
 385      E6CF0ED2 
 386 0a1f 04C3C4A5 		.ascii	"\004\303\304\245\3376\355$\355\374X\0377Fh\324b\227"
 386      DF36ED24 
 386      EDFC581F 
 386      374668D4 
 386      6297
 387 0a31 06E2DBDA 		.ascii	"\006\342\333\332\307\256\252\255i\323.\321,\315\375"
 387      C7AEAAAD 
 387      69D32ED1 
 387      2CCDFD
 388 0a40 E76A5B24 		.ascii	"\347j[$\313\347j\354K&\356{5QX\233m\366\247;\205?j\332"
 388      CBE76AEC 
 388      4B26EE7B 
 388      3551589B 
 388      6DF6A73B 
 389 0a58 726D8DF2 		.ascii	"rm\215\362\260\361\215\344\313\330c\2634\306\226N\342"
 389      B0F18DE4 
 389      CBD863B3 
 389      34C6964E 
 389      E2
 390 0a69 93AB7F14 		.ascii	"\223\253\177\024\266\32071Ok\013F\020\344J\320G\231"
 390      B6D03731 
 390      4F6B0B46 
 390      10E44AD0 
 390      4799
 391 0a7b 8CB64D12 		.ascii	"\214\266M\022\371\033T\300\246\201\330\327\012\223\315"
 391      F91B54C0 
 391      A681D8D7 
 391      0A93CD
 392 0a8a BD682FEA 		.ascii	"\275h/\352\242%\245\021\205]\026Qt\236\340\332\256I"
 392      A225A511 
 392      855D1651 
 392      749EE0DA 
 392      AE49
ARM GAS  /tmp/cc2bmhpq.s 			page 31


 393 0a9c 09965EB0 		.ascii	"\011\226^\260\262\364R*K\003\227b\337\265\346\326\317"
 393      B2F4522A 
 393      4B039762 
 393      DFB5E6D6 
 393      CF
 394 0aad 1B88C7C7 		.ascii	"\033\210\307\307\270\347i\247\235\272\023?ZX:\236\370"
 394      B8E769A7 
 394      9DBA133F 
 394      5A583A9E 
 394      F8
 395 0abe 7D88A98D 		.ascii	"}\210\251\215\377\224\320$\017\212\364\272\275uV\032"
 395      FF94D024 
 395      0F8AF4BA 
 395      BD75561A 
 396 0ace D691C90E 		.ascii	"\326\221\311\016\211.\270\257\244\267\216>\254[\276"
 396      892EB8AF 
 396      A4B78E3E 
 396      AC5BBE
 397 0add CBF860AC 		.ascii	"\313\370`\254\025\201\271a\246\017\306tn\331\260\330"
 397      1581B961 
 397      A60FC674 
 397      6ED9B0D8 
 398 0aed B22769C0 		.ascii	"\262'i\300\020\215/\027;\254C-\024\017q\024\233)\243"
 398      108D2F17 
 398      3BAC432D 
 398      140F7114 
 398      9B29A3
 399 0b00 F882BF9D 		.ascii	"\370\202\277\235\244\347sR\322\211\264X\274\256\266"
 399      A4E77352 
 399      D289B458 
 399      BCAEB6
 400 0b0f 89685909 		.ascii	"\211hY\011\233\275b\265\331\036[\233\2358\312l\366\334"
 400      9BBD62B5 
 400      D91E5B9B 
 400      9D38CA6C 
 400      F6DC
 401 0b21 64F7463B 		.ascii	"d\367F;\350b\216tg\230#\206\025\016\270\232#\232e\216"
 401      E8628E74 
 401      67982386 
 401      150EB89A 
 401      239A658E 
 402 0b35 1CB00A17 		.ascii	"\034\260\012\027\263\021\256~`\331+\207~\322\260K\233"
 402      B311AE7E 
 402      60D92B87 
 402      7ED2B04B 
 402      9B
 403 0b46 BF48FB2E 		.ascii	"\277H\373.\376\004a3@\024j\206X}\236a\274m\207\021\273"
 403      FE046133 
 403      40146A86 
 403      587D9E61 
 403      BC6D8711 
 404 0b5b D2BA4423 		.ascii	"\322\272D#^\335\272\325\252!\366\375\242IC\3178\260"
 404      5EDDBAD5 
 404      AA21F6FD 
 404      A24943CF 
 404      38B0
 405 0b6d D166CB46 		.ascii	"\321f\313F\177\222\015\006\017[\003\007\200#f\200\177"
ARM GAS  /tmp/cc2bmhpq.s 			page 32


 405      7F920D06 
 405      0F5B0307 
 405      80236680 
 405      7F
 406 0b7e 1036525D 		.ascii	"\0206R]\\\257;\371g\262\\kj\243\276\022'c2~Dh\234p~"
 406      5CAF3BF9 
 406      67B25C6B 
 406      6AA3BE12 
 406      2763327E 
 407 0b97 DDC5BEEA 		.ascii	"\335\305\276\352\353\300X\272\325B\324\370\230\220\243"
 407      EBC058BA 
 407      D542D4F8 
 407      9890A3
 408 0ba6 DFC5E50C 		.ascii	"\337\305\345\014'0g\350\306\234\241\023\353\325\230"
 408      273067E8 
 408      C69CA113 
 408      EBD598
 409 0bb5 276C3287 		.ascii	"'l2\207\235]\011T[V(\352\261\244T\226#\332\016\207\350"
 409      9D5D0954 
 409      5B5628EA 
 409      B1A45496 
 409      23DA0E87 
 410 0bca 88BC4839 		.ascii	"\210\274H9\016\243\250/8\215:\236\034\205\307\013\265"
 410      0EA3A82F 
 410      388D3A9E 
 410      1C85C70B 
 410      B5
 411 0bdb 698F1764 		.ascii	"i\217\027dr\011\245\314|V`\247\363,\003\352\261\244"
 411      7209A5CC 
 411      7C5660A7 
 411      F32C03EA 
 411      B1A4
 412 0bed CEFB765F 		.ascii	"\316\373v_.g\007\025\335\250\364\217\206\330&0\3168"
 412      2E670715 
 412      DDA8F48F 
 412      86D82630 
 412      CE38
 413 0bff 94A91E4B 		.ascii	"\224\251\036K\362\022[\321\207\037\177\366\270J\\V\366"
 413      F2125BD1 
 413      871F7FF6 
 413      B84A5C56 
 413      F6
 414 0c10 19E9F809 		.ascii	"\031\351\370\011\211.p_ \013=\336\023\021\035oU\037"
 414      892E705F 
 414      200B3DDE 
 414      13111D6F 
 414      551F
 415 0c22 26A90CEC 		.ascii	"&\251\014\354K\317`y&\260\006\036\354\206\0330\247\215"
 415      4BCF6079 
 415      26B0061E 
 415      EC861B30 
 415      A78D
 416 0c34 0280ADE5 		.ascii	"\002\200\255\345\301\346\345x\0053s\266\236\007\253"
 416      C1E6E578 
 416      053373B6 
 416      9E07AB
 417 0c43 7303E6B4 		.ascii	"s\003\346\264K\000\260F\036l\221g03g;y\260\247\335\200"
ARM GAS  /tmp/cc2bmhpq.s 			page 33


 417      4B00B046 
 417      1E6C9167 
 417      3033673B 
 417      79B0A7DD 
 418 0c58 397D5101 		.ascii	"9}Q\001`\273x\260\025\236\301\314\234\275\312\203\255"
 418      60BB78B0 
 418      159EC1CC 
 418      9CBDCA83 
 418      AD
 419 0c69 710396E7 		.ascii	"q\003\226\347\314Y\013\017\326\350\031\314\314\331k"
 419      CC590B0F 
 419      D6E819CC 
 419      CCD96B
 420 0c78 3CD82637 		.ascii	"<\330&7`N\2511\200\375\211\007\333\352\031\314\314\331"
 420      604EA931 
 420      80FD8907 
 420      DBEA19CC 
 420      CCD9
 421 0c8a 7E1EEC79 		.ascii	"~\036\354y7`\343\2348\233\027;\370\373z\371GB\275\276"
 421      3760E39C 
 421      389B173B 
 421      F8FB7AF9 
 421      4742BDBE 
 422 0c9e A4305463 		.ascii	"\2440TcY!f\327\342\273\321\303R\207n2\371B\372\021\266"
 422      592166D7 
 422      E2BBD1C3 
 422      52876E32 
 422      F942FA11 
 423 0cb3 4CEF55B0 		.ascii	"L\357U\260\207\323\242{UJ~(\224\233\235l\360\377\345"
 423      87D3A27B 
 423      554A7E28 
 423      949B9D6C 
 423      F0FFE5
 424 0cc6 25D98B26 		.ascii	"%\331\213&\331V\261\315\\\330\311mVb\027\257\304]n\224"
 424      D956B1CD 
 424      5CD8C96D 
 424      566217AF 
 424      C45D6E94 
 425 0cda 38D919EC 		.ascii	"8\331\031\354\004\017\266\327\015\330\303\316\276\362"
 425      040FB6D7 
 425      0DD8C3CE 
 425      BEF2
 426 0ce8 0E0FF6BA 		.ascii	"\016\017\366\272g03g=<X\314\015\330\243\316\234\275"
 426      67303367 
 426      3D3C58CC 
 426      0DD8A3CE 
 426      9CBD
 427 0cfa CB83BDE5 		.ascii	"\313\203\275\345\031\214\347l^\354t\322\361\350\327"
 427      198CE76C 
 427      5EEC74D2 
 427      F1E8D7
 428 0d09 F526CF33 		.ascii	"\365&\3173\035\037%\034\217u\343<\317\322M&\265>\257"
 428      1D1F251C 
 428      8F75E33C 
 428      CFD24D26 
 428      B53EAF
 429 0d1c 8E37DF67 		.ascii	"\2167\337g\357x\374\227/\311^ v\273Ul\273\243\256\031"
ARM GAS  /tmp/cc2bmhpq.s 			page 34


 429      EF78FC97 
 429      2FC95E20 
 429      76BB556C 
 429      BBA3AE19 
 430 0d30 363AB4BB 		.ascii	"6:\264\273\370@-\223^\334\224\277\2139\322i\254\377"
 430      F8402D93 
 430      5EDC94BF 
 430      8B39D269 
 430      ACFF
 431 0d42 17EB7EAC 		.ascii	"\027\353~\254\007\260>\213\365\007X\237\307\372#\254"
 431      07B03E8B 
 431      F507589F 
 431      C7FA23AC 
 432 0d52 2F62FD31 		.ascii	"/b\3751\326\237b}\011\353+X_\307\372+\254\277\301\372"
 432      D69F627D 
 432      09EB2B58 
 432      5FC7FA2B 
 432      ACBFC1FA 
 433 0d66 5BACE358 		.ascii	"[\254\343X\317\363q\371\230%S\352N\223_\325\371\234"
 433      CFF371F9 
 433      982553EA 
 433      4E935FD5 
 433      F99C
 434 0d78 F2ABD634 		.ascii	"\362\253\3264\371\325\223\311Q\372v\375\300\301\366"
 434      F9D593C9 
 434      51FA76FD 
 434      C0C1F6
 435 0d87 DB5EA41F 		.ascii	"\333^\244\037 \323L}\336|b\344\352\337\345\270\331\237"
 435      20D34C7D 
 435      DE7C62E4 
 435      EADFE5B8 
 435      D99F
 436 0d99 2EF459B6 		.ascii	".\364Y\266\003\213|)94\0209u\366\375\177\335\307\021"
 436      038B7C29 
 436      39341039 
 436      75F6FD7F 
 436      DDC711
 437 0dac B1E4F32D 		.ascii	"\261\344\363-\304\331G\226\370R\367\316\273smy\253\321"
 437      C4D94796 
 437      F852F7CE 
 437      BB736D79 
 437      ABD1
 438 0dbe 766ED7FC 		.ascii	"vn\327\374\306\346U&\213}\366\033F\035\357i[V\367\037"
 438      C6E65526 
 438      8B7DF61B 
 438      461DEF69 
 438      5B56F71F 
 439 0dd2 6CFF297D 		.ascii	"l\377)}\275\245\305\343O\334\301\310\303\006\324\035"
 439      BDA5C5E3 
 439      4FDCC1C8 
 439      C306D41D 
 440 0de2 C1A5E909 		.ascii	"\301\245\351\011\326\333\022\374\342\374\251\273S\010"
 440      D6DB12FC 
 440      E2FCA9BB 
 440      5308
 441 0df0 3E33D415 		.ascii	">3\324\025\301\345\351\011\256\260%x\340\340\205\237"
 441      C1E5E909 
ARM GAS  /tmp/cc2bmhpq.s 			page 35


 441      AEB02578 
 441      E0E0859F 
 442 0e00 982DCE76 		.ascii	"\230-\316v5\033-4\365\215cor\037\336\202=V:\020M\234"
 442      351B2D34 
 442      F58D636F 
 442      721FDE82 
 442      3D563A10 
 443 0e16 1AE88E72 		.ascii	"\032\350\216rJ{tt\302QVZ\035e\225/e\257\324\3255\020"
 443      4A7B7474 
 443      C251565A 
 443      1D65952F 
 443      65AFD4D5 
 444 0e2c DFF6FED8 		.ascii	"\337\366\376\330\025ZM\2036\037\267JF\320k0\237\334"
 444      155A4D83 
 444      361FB74A 
 444      46D06B30 
 444      9FDC
 445 0e3e 151B6487 		.ascii	"\025\033d\207\342X\276W\243c/@\360\274@mpX\240rM\242"
 445      E258BE57 
 445      A3632F40 
 445      F0BC406D 
 445      7058A072 
 446 0e54 6C482E50 		.ascii	"lH.P\257\243\206\270\255\265\205\011Qx{(\321\207A\366"
 446      AFA386B8 
 446      ADB58509 
 446      51787B28 
 446      D18741F6 
 447 0e68 9C34C957 		.ascii	"\2344\311W\243\355Lr\302\336$}\206Id\322\340\243{\371"
 447      A3ED4C72 
 447      C2DE247D 
 447      864964D2 
 447      E0A37BF9 
 448 0e7c A6C198A4 		.ascii	"\246\301\230\244\311j\222\215\016&\271p{f\223\3140\310"
 448      C96A928D 
 448      0E26B970 
 448      7B6693CC 
 448      30C8
 449 0e8e E6A43389 		.ascii	"\346\2443\211\245\227L\266z6\3116\007\223\0141\211b"
 449      A5974CB6 
 449      7A36C936 
 449      07930C31 
 449      8962
 450 0ea0 F48266A3 		.ascii	"\364\202f\243\317r\226caB\024.\230LbYM\267\244YMw$W"
 450      CF729663 
 450      6142142E 
 450      984C6259 
 450      4DB7A459 
 451 0eb8 53E1CEB1 		.ascii	"S\341\316\261c\363\331\277\212h~D\315/)\017\227V\025"
 451      63F3D9BF 
 451      8A687E44 
 451      CD2F290F 
 451      975615
 452 0ecb 29F9E1E2 		.ascii	")\371\341\342\350\334\250:\267R\211\216-\026n\251.\211"
 452      E8DCA83A 
 452      B752898E 
 452      2D166EA9 
 452      2E89
ARM GAS  /tmp/cc2bmhpq.s 			page 36


 453 0edd A8557269 		.ascii	"\250UriH-)S\"\321PiIT\015\251Y\017\375\366wy\005\302"
 453      482D2953 
 453      22D15069 
 453      49540DA9 
 453      590FFDF6 
 454 0ef5 ADE1E290 		.ascii	"\255\341\342\220\315\363<g\340pq\021\200\0167\015\012"
 454      CDF33C67 
 454      E0707111 
 454      800E370D 
 454      0A
 455 0f06 A923AC38 		.ascii	"\251#\2548\276re\216\352\253\214(\325\331\224\027\270"
 455      BE72658E 
 455      EAAB8C28 
 455      D5D99417 
 455      B8
 456 0f17 15527F9A 		.ascii	"\025R\177\232_\025\215$\260\312\225\331\245%3\363\243"
 456      5F158D24 
 456      B0CA95D9 
 456      A52533F3 
 456      A3
 457 0f28 6A5149B9 		.ascii	"jQI\271\012\220\301*\370;\376\276\220\372\013\273ne"
 457      0A90C12A 
 457      F83BFEBE 
 457      90FA0BBB 
 457      6E65
 458 0f3a 72B8B8A4 		.ascii	"r\270\270\244\\\311\017\025)\217\313U\245 \201.\336"
 458      5CC90F15 
 458      298FCB55 
 458      A520812E 
 458      DE
 459 0f4b 9050C818 		.ascii	"\220P\310\030\350/RJU9X\255>^U\036\016\251>\372G\252"
 459      E82F524A 
 459      553958AD 
 459      3E5E551E 
 459      0EA93EFA 
 460 0f61 9423C152 		.ascii	"\224#\301R9\252R\026\262\252U*]60K\231R\312r#\212\\"
 460      39AA5216 
 460      B2AA552A 
 460      5D36304B 
 460      9952CA72 
 461 0f78 345757C9 		.ascii	"4WW\311P\270\235\374=\\-\246?\242\241\377\256R\252\024"
 461      50B89DFC 
 461      3D5C2DA6 
 461      3FA2A1FF 
 461      AE52AA14 
 462 0f8c 26A1E956 		.ascii	"&\241\351V\220\375\012!\034k\373\361\301D^y\341\212"
 462      90FD0A21 
 462      1C6BFBF1 
 462      C1445E79 
 462      E18A
 463 0f9e B2B2     		.ascii	"\262\262"
 464 0fa0 8AF2FCCA 		.ascii	"\212\362\374\312\212\210\032\315\177\240pj\301\3249"
 464      8A881ACD 
 464      7FA0706A 
 464      C1D439
 465 0faf F45E6549 		.ascii	"\364^eI)\350:\377\241\202\002\320\251!J@\255\214\224"
 465      29E83AFF 
ARM GAS  /tmp/cc2bmhpq.s 			page 37


 465      A18202D0 
 465      A9214A40 
 465      AD8C94
 466 0fc2 548454D4 		.ascii	"T\204T\324\304=\023B\252.\033m\372\350\243\\\012\023"
 466      C43D1342 
 466      AA2E1B6D 
 466      FAE8A35C 
 466      0A13
 467 0fd4 0A5794AB 		.ascii	"\012W\224\253\240\334\2733\222)\016WD\024\300\315\301"
 467      A0DCBB33 
 467      92290E57 
 467      4414C0CD 
 467      C1
 468 0fe5 61001456 		.ascii	"a\000\024V\347\374\302\335\250P\365}e\324&\021e\226"
 468      E7FCC2DD 
 468      A850F57D 
 468      65D42611 
 468      6596
 469 0ff7 1C290BA9 		.ascii	"\034)\013\251bd\242\030\271"
 469      6264A218 
 469      B9
 470 1000 5F8A8C1F 		.ascii	"_\212\214\037\007e\274\030\371\245\030\271W\214\334"
 470      0765BC18 
 470      F9A518B9 
 470      578CDC
 471 100f 27467E25 		.ascii	"'F~%\226F\304h\245\004\320~0\225\022\361W\224\026\201"
 471      9646C468 
 471      A504D07E 
 471      309512F1 
 471      57941681 
 472 1023 F9C3C532 		.ascii	"\371\303\3052\370\200\\\246\014\211\252\177\220KKf\225"
 472      F8805CA6 
 472      0C89AA7F 
 472      904B4B66 
 472      95
 473 1034 EB72DDF7 		.ascii	"\353r\335\367\313\204\\\264\2315[\236)GA\231QUVA\315"
 473      CB845CB4 
 473      99355B9E 
 473      29474199 
 473      51555641 
 474 1049 01FA6022 		.ascii	"\001\372`\"(\225u\201\226\037\237\004\324\262\212\""
 474      28957581 
 474      961F9F04 
 474      D4B28A22 
 475 1059 78EE7FBC 		.ascii	"x\356\177\274T\236\025\015\250\021\345\361(h\205\376"
 475      549E150D 
 475      A811E5F1 
 475      286885FE 
 476 1069 F1974567 		.ascii	"\361\227Eg\301@]Q0PoeE\212\346\302\243\2402\247D\015"
 476      C1405D51 
 476      30506F65 
 476      458AE6C2 
 476      A3A032A7 
 477 107f C3E0ACD9 		.ascii	"\303\340\254\331j\305\314\377\252\034\251\333\015\206"
 477      6AC5CCFF 
 477      AA1CA9DB 
 477      0D86
ARM GAS  /tmp/cc2bmhpq.s 			page 38


 478 108d 2A11A53C 		.ascii	"*\021\245<LAg\253j\2442\020U\312U\030\220K\335C)\223"
 478      4C4167AB 
 478      6AA43210 
 478      55CA5518 
 478      904BDD43 
 479 10a3 2B8B4111 		.ascii	"+\213A\021c\234g\202B5\344\017\227\203\353HP\003<\334"
 479      639C6782 
 479      4235E40F 
 479      9783EB48 
 479      50033CDC 
 480 10b7 AA0CC2E8 		.ascii	"\252\014\302\350\262*0\220\363\3102u\016\035Y1\273\\"
 480      B22A3090 
 480      F3C83275 
 480      0E1D5931 
 480      BB5C
 481 10c9 8904B02F 		.ascii	"\211\004\260/\325\203\012\267+s\224j\312\204\034\375"
 481      D5830AB7 
 481      2B73946A 
 481      CA841CFD 
 482 10d9 03DC5266 		.ascii	"\003\334Rf\323\006\251\032f\370\035\363\323\341\234"
 482      D306A91A 
 482      66F81DF3 
 482      D3E19C
 483 10e8 27D23B81 		.ascii	"'\322;\201\331r\211ZR>+\010\2743\317T*\225r\230U\263"
 483      D972895A 
 483      523E2B08 
 483      BC33CF54 
 483      2A957298 
 484 10fe 0200497B 		.ascii	"\002\000I{\200\031\345R\352@\376\262\312\212\212\322"
 484      8019E552 
 484      EA40FEB2 
 484      CA8A8AD2 
 485 110e 40B82A02 		.ascii	"@\270*\002\222\253\376\010}8\214M\005\230X3\253f1t\376"
 485      92ABFE08 
 485      7D388C4D 
 485      05985833 
 485      AB663174 
 486 1123 4E76A55C 		.ascii	"Nv\245\\^\022\016\001\266T4s\326\2202\031\264\213\304"
 486      5E120E01 
 486      B6543473 
 486      D6903219 
 486      B48BC4
 487 1136 6FB3C817 		.ascii	"o\263\310\027\215\204A\266julX\030\025.\376\317\351"
 487      8D8441B6 
 487      6A756C58 
 487      18152EFE 
 487      CFE9
 488 1148 532A0A95 		.ascii	"S*\012\225\250\242>2\026f\240:v\234T\255V\006C\325\324"
 488      A8A23E32 
 488      1666A03A 
 488      769C54AD 
 488      560643D5 
 489 115d 0F4BD421 		.ascii	"\017K\324!\254\3034xL'\255<7\213M\332\\~\340\035<\201"
 489      ACC33478 
 489      4C27AD3C 
 489      378B4DDA 
 489      5C7EE01D 
ARM GAS  /tmp/cc2bmhpq.s 			page 39


 490 1173 62B934A1 		.ascii	"b\2714\241Ah\207\242t\311\310\211\252\323\324\212\312"
 490      416887A2 
 490      74C9C889 
 490      AAD3D48A 
 490      CA
 491 1184 074AC147 		.ascii	"\007J\301G\301\317\000\016\233\271\3646\020\305\037"
 491      C1CF000E 
 491      9BB9F436 
 491      10C51F
 492 1193 39497954 		.ascii	"9IyT1\\<\301\012\312\234\177\332\364\251\367L\310\377"
 492      315C3CC1 
 492      0ACA9C7F 
 492      DAF4A9F7 
 492      4CC8FF
 493 11a6 CD6FA6E4 		.ascii	"\315o\246\344O\177dj\365xX\225\312\250\013\225\2241"
 493      4F7F646A 
 493      F5785895 
 493      CAA80B95 
 493      9431
 494 11b8 2AFA0F30 		.ascii	"*\372\0170tA\341x(\023|\323\246\026\024\372\246<\362"
 494      7441E178 
 494      28137CD3 
 494      A61614FA 
 494      A63CF2
 495 11cb 60A138AD 		.ascii	"`\2418\255Pz\360\241B\177A\301\324\302\361XO\360\025"
 495      507AF0A1 
 495      427F41C1 
 495      D4C2F158 
 495      4FF015
 496 11de 143C5828 		.ascii	"\024<X(\025\374v\272\364\350\264\002\351\201\302B\251"
 496      15FC76BA 
 496      F4E8B402 
 496      E981C242 
 496      A9
 497 11ef B0007EC3 		.ascii	"\260\000~\303\200\177\2372\275P\232BGN}\240P\374\017"
 497      807F9F32 
 497      BD509A42 
 497      474E7DA0 
 497      50FC0F
 498 1202 36EA1EE8 		.ascii	"6\352\036\350?\2430\337\345\304\304\325\225.\3538\251"
 498      3FA330DF 
 498      E5C4C4D5 
 498      952EEB38 
 498      A9
 499 1213 D9F21B05 		.ascii	"\331\362\033\005%\204d*\355\337;:]5U\330H\252\337\207"
 499      2584642A 
 499      EDDF3B3A 
 499      5D3555D8 
 499      48AADF87 
 500 1227 14751A2A 		.ascii	"\024u\032*d:\014\2361\212\303\231\245\260\326=\356\224"
 500      643A0C9E 
 500      318AC399 
 500      A5B0D63D 
 500      EE94
 501 1239 C4EC102A 		.ascii	"\304\354\020*-\245\021a$k!F\270\242\012\226\250\310"
 501      2DA51161 
 501      246B2146 
ARM GAS  /tmp/cc2bmhpq.s 			page 40


 501      B8A20A96 
 501      A8C8
 502 124b 8F7916E1 		.ascii	"\217y\026\3416r\350\243\277\203\241\020\256\321\241"
 502      3672E8A3 
 502      BF83A110 
 502      AED1A1
 503 125a A14663EC 		.ascii	"\241Fc\354\275\367\376\352\376[M2\201\005\331\020S\247"
 503      BDF7FEEA 
 503      FE5B4D32 
 503      8105D910 
 503      53A7
 504 126c F1FF0F91 		.ascii	"\361\377\017\221\015N\252"
 504      0D4EAA
 505              		.text
 506              		.section	.gnu.lto_.symtab.7f50a2e5811ddc2f,"",%progbits
 507 0000 5F76745F 		.ascii	"_vt_init\000\000\000\000\000\000\000\000\000\000\000"
 507      696E6974 
 507      00000000 
 507      00000000 
 507      000000
 508 0013 00AB0100 		.ascii	"\000\253\001\000\000chVTDoSetI\000\000\000\000\000\000"
 508      00636856 
 508      54446F53 
 508      65744900 
 508      00000000 
 509 0028 00000000 		.ascii	"\000\000\000\000\000\000\257\001\000\000chVTDoReset"
 509      0000AF01 
 509      00006368 
 509      5654446F 
 509      52657365 
 510 003d 49000000 		.ascii	"I\000\000\000\000\000\000\000\000\000\000\000\000\275"
 510      00000000 
 510      00000000 
 510      00BD
 511 004b 01000063 		.ascii	"\001\000\000ch\000\000\002\000\000\000\000\000\000\000"
 511      68000002 
 511      00000000 
 511      000000
 512 005a 0000CB01 		.ascii	"\000\000\313\001\000\000stStopAlarm\000\000\002\000"
 512      00007374 
 512      53746F70 
 512      416C6172 
 512      6D000002 
 513 006f 00000000 		.ascii	"\000\000\000\000\000\000\000\000\303\001\000\000stS"
 513      00000000 
 513      C3010000 
 513      737453
 514 007e 6574416C 		.ascii	"etAlarm\000\000\002\000\000\000\000\000\000\000\000"
 514      61726D00 
 514      00020000 
 514      00000000 
 514      0000
 515 0090 00C50100 		.ascii	"\000\305\001\000\000stStartAlarm\000\000\002\000\000"
 515      00737453 
 515      74617274 
 515      416C6172 
 515      6D000002 
ARM GAS  /tmp/cc2bmhpq.s 			page 41


 516 00a6 00000000 		.ascii	"\000\000\000\000\000\000\000\311\001\000\000"
 516      000000C9 
 516      010000
 517              		.text
 518              		.section	.gnu.lto_.opts,"",%progbits
 519 0000 272D6D63 		.ascii	"'-mcpu=cortex-m0' '-mno-thumb-interwork' '-mthumb' "
 519      70753D63 
 519      6F727465 
 519      782D6D30 
 519      2720272D 
 520 0033 272D6767 		.ascii	"'-ggdb' '-O2' '-fomit-frame-pointer' '-falign-funct"
 520      64622720 
 520      272D4F32 
 520      2720272D 
 520      666F6D69 
 521 0066 696F6E73 		.ascii	"ions=16' '-ffunction-sections' '-fdata-sections' '-"
 521      3D313627 
 521      20272D66 
 521      66756E63 
 521      74696F6E 
 522 0099 666E6F2D 		.ascii	"fno-common' '-flto'\000"
 522      636F6D6D 
 522      6F6E2720 
 522      272D666C 
 522      746F2700 
 523              		.text
 524              		.cfi_sections	.debug_frame
 525              		.section	.text._vt_init,"ax",%progbits
 526              		.align	2
 527              		.p2align 4,,15
 528              		.global	_vt_init
 529              		.code	16
 530              		.thumb_func
 531              		.type	_vt_init, %function
 532              	_vt_init:
 533              	.LFB149:
 534              		.file 1 "../../../os/rt/src/chvt.c"
 535              		.loc 1 61 0
 536              		.cfi_startproc
 537              		.loc 1 63 0
 538 0000 054B     		ldr	r3, .L2
 539              		.loc 1 71 0
 540              		@ sp needed
 541              		.loc 1 63 0
 542 0002 1A1C     		mov	r2, r3
 543 0004 1C32     		add	r2, r2, #28
 544 0006 DA61     		str	r2, [r3, #28]
 545              		.loc 1 64 0
 546 0008 1A62     		str	r2, [r3, #32]
 547              		.loc 1 65 0
 548 000a 0122     		mov	r2, #1
 549 000c 5242     		neg	r2, r2
 550 000e 9A84     		strh	r2, [r3, #36]
 551              		.loc 1 69 0
 552 0010 0022     		mov	r2, #0
 553 0012 DA84     		strh	r2, [r3, #38]
 554              		.loc 1 71 0
ARM GAS  /tmp/cc2bmhpq.s 			page 42


 555 0014 7047     		bx	lr
 556              	.L3:
 557 0016 C046     		.align	2
 558              	.L2:
 559 0018 00000000 		.word	ch
 560              		.cfi_endproc
 561              	.LFE149:
 562              		.size	_vt_init, .-_vt_init
 563 001c C046C046 		.section	.text.chVTDoSetI,"ax",%progbits
 564              		.align	2
 565              		.p2align 4,,15
 566              		.global	chVTDoSetI
 567              		.code	16
 568              		.thumb_func
 569              		.type	chVTDoSetI, %function
 570              	chVTDoSetI:
 571              	.LFB150:
 572              		.loc 1 96 0
 573              		.cfi_startproc
 574              	.LVL0:
 575 0000 70B5     		push	{r4, r5, r6, lr}
 576              		.cfi_def_cfa_offset 16
 577              		.cfi_offset 4, -16
 578              		.cfi_offset 5, -12
 579              		.cfi_offset 6, -8
 580              		.cfi_offset 14, -4
 581              		.loc 1 103 0
 582 0002 0361     		str	r3, [r0, #16]
 583              	.LBB35:
 584              	.LBB36:
 585              	.LBB37:
 586              	.LBB38:
 587              	.LBB39:
 588              		.file 2 "../../../os/hal/ports/STM32/LLD/TIMv1/hal_st_lld.h"
 589              		.loc 2 141 0
 590 0004 1D4B     		ldr	r3, .L16
 591              	.LVL1:
 592              	.LBE39:
 593              	.LBE38:
 594              	.LBE37:
 595              	.LBE36:
 596              	.LBE35:
 597              		.loc 1 96 0
 598 0006 051C     		mov	r5, r0
 599              		.loc 1 104 0
 600 0008 C260     		str	r2, [r0, #12]
 601              	.LBB50:
 602              	.LBB43:
 603              	.LBB42:
 604              	.LBB41:
 605              	.LBB40:
 606              		.loc 2 141 0
 607 000a 586A     		ldr	r0, [r3, #36]
 608              	.LVL2:
 609 000c 80B2     		uxth	r0, r0
 610              	.LBE40:
 611              	.LBE41:
ARM GAS  /tmp/cc2bmhpq.s 			page 43


 612              	.LBE42:
 613              	.LBE43:
 614              		.loc 1 112 0
 615 000e 0129     		cmp	r1, #1
 616 0010 27D9     		bls	.L13
 617              	.LVL3:
 618              	.L5:
 619              		.loc 1 117 0
 620 0012 1B4E     		ldr	r6, .L16+4
 621 0014 321C     		mov	r2, r6
 622              	.LVL4:
 623 0016 F369     		ldr	r3, [r6, #28]
 624 0018 1C32     		add	r2, r2, #28
 625 001a 9342     		cmp	r3, r2
 626 001c 23D0     		beq	.L14
 627              		.loc 1 136 0
 628 001e 0818     		add	r0, r1, r0
 629 0020 F48C     		ldrh	r4, [r6, #38]
 630 0022 80B2     		uxth	r0, r0
 631 0024 041B     		sub	r4, r0, r4
 632              		.loc 1 137 0
 633 0026 1B89     		ldrh	r3, [r3, #8]
 634              		.loc 1 136 0
 635 0028 A4B2     		uxth	r4, r4
 636              	.LVL5:
 637              		.loc 1 137 0
 638 002a A342     		cmp	r3, r4
 639 002c 16D8     		bhi	.L15
 640              	.LVL6:
 641              	.L8:
 642              	.LBE50:
 643              		.loc 1 150 0
 644 002e F369     		ldr	r3, [r6, #28]
 645              	.LVL7:
 646              		.loc 1 151 0
 647 0030 1A89     		ldrh	r2, [r3, #8]
 648 0032 9442     		cmp	r4, r2
 649 0034 05D9     		bls	.L9
 650              	.LVL8:
 651              	.L10:
 652              		.loc 1 153 0
 653 0036 1B68     		ldr	r3, [r3]
 654              	.LVL9:
 655              		.loc 1 152 0
 656 0038 A41A     		sub	r4, r4, r2
 657              	.LVL10:
 658              		.loc 1 151 0
 659 003a 1A89     		ldrh	r2, [r3, #8]
 660              		.loc 1 152 0
 661 003c A4B2     		uxth	r4, r4
 662              	.LVL11:
 663              		.loc 1 151 0
 664 003e A242     		cmp	r2, r4
 665 0040 F9D3     		bcc	.L10
 666              	.LVL12:
 667              	.L9:
 668              		.loc 1 158 0
ARM GAS  /tmp/cc2bmhpq.s 			page 44


 669 0042 5A68     		ldr	r2, [r3, #4]
 670              		.loc 1 157 0
 671 0044 2B60     		str	r3, [r5]
 672              		.loc 1 158 0
 673 0046 6A60     		str	r2, [r5, #4]
 674              		.loc 1 159 0
 675 0048 1560     		str	r5, [r2]
 676              		.loc 1 160 0
 677 004a 5D60     		str	r5, [r3, #4]
 678              		.loc 1 161 0
 679 004c 2C81     		strh	r4, [r5, #8]
 680              		.loc 1 165 0
 681 004e 1A89     		ldrh	r2, [r3, #8]
 682 0050 141B     		sub	r4, r2, r4
 683 0052 1C81     		strh	r4, [r3, #8]
 684              		.loc 1 166 0
 685 0054 0123     		mov	r3, #1
 686              	.LVL13:
 687 0056 5B42     		neg	r3, r3
 688 0058 B384     		strh	r3, [r6, #36]
 689              	.L4:
 690              		.loc 1 167 0
 691              		@ sp needed
 692              	.LVL14:
 693 005a 70BD     		pop	{r4, r5, r6, pc}
 694              	.LVL15:
 695              	.L15:
 696              	.LBB51:
 697              	.LBB44:
 698              	.LBB45:
 699              		.file 3 "../../../os/common/ports/ARMCMx/chcore_timer.h"
 700              		.loc 3 95 0
 701 005c FFF7FEFF 		bl	stSetAlarm
 702              	.LVL16:
 703 0060 E5E7     		b	.L8
 704              	.LVL17:
 705              	.L13:
 706              	.LBE45:
 707              	.LBE44:
 708              		.loc 1 113 0
 709 0062 0221     		mov	r1, #2
 710              	.LVL18:
 711 0064 D5E7     		b	.L5
 712              	.LVL19:
 713              	.L14:
 714              		.loc 1 121 0
 715 0066 F084     		strh	r0, [r6, #38]
 716              		.loc 1 129 0
 717 0068 0818     		add	r0, r1, r0
 718              		.loc 1 122 0
 719 006a F561     		str	r5, [r6, #28]
 720              		.loc 1 123 0
 721 006c 3562     		str	r5, [r6, #32]
 722              	.LBB46:
 723              	.LBB47:
 724              		.loc 3 73 0
 725 006e 80B2     		uxth	r0, r0
ARM GAS  /tmp/cc2bmhpq.s 			page 45


 726              	.LBE47:
 727              	.LBE46:
 728              		.loc 1 124 0
 729 0070 2B60     		str	r3, [r5]
 730              		.loc 1 125 0
 731 0072 6B60     		str	r3, [r5, #4]
 732              		.loc 1 126 0
 733 0074 2981     		strh	r1, [r5, #8]
 734              	.LBB49:
 735              	.LBB48:
 736              		.loc 3 73 0
 737 0076 FFF7FEFF 		bl	stStartAlarm
 738              	.LVL20:
 739 007a EEE7     		b	.L4
 740              	.L17:
 741              		.align	2
 742              	.L16:
 743 007c 00040040 		.word	1073742848
 744 0080 00000000 		.word	ch
 745              	.LBE48:
 746              	.LBE49:
 747              	.LBE51:
 748              		.cfi_endproc
 749              	.LFE150:
 750              		.size	chVTDoSetI, .-chVTDoSetI
 751 0084 C046C046 		.section	.text.chVTDoResetI,"ax",%progbits
 751      C046C046 
 751      C046C046 
 752              		.align	2
 753              		.p2align 4,,15
 754              		.global	chVTDoResetI
 755              		.code	16
 756              		.thumb_func
 757              		.type	chVTDoResetI, %function
 758              	chVTDoResetI:
 759              	.LFB151:
 760              		.loc 1 177 0
 761              		.cfi_startproc
 762              	.LVL21:
 763              		.loc 1 201 0
 764 0000 1B4A     		ldr	r2, .L28
 765              		.loc 1 177 0
 766 0002 10B5     		push	{r4, lr}
 767              		.cfi_def_cfa_offset 8
 768              		.cfi_offset 4, -8
 769              		.cfi_offset 14, -4
 770              		.loc 1 201 0
 771 0004 D369     		ldr	r3, [r2, #28]
 772 0006 8342     		cmp	r3, r0
 773 0008 0ED0     		beq	.L19
 774              		.loc 1 203 0
 775 000a 4168     		ldr	r1, [r0, #4]
 776 000c 0368     		ldr	r3, [r0]
 777              		.loc 1 208 0
 778 000e 1C32     		add	r2, r2, #28
 779              		.loc 1 203 0
 780 0010 0B60     		str	r3, [r1]
ARM GAS  /tmp/cc2bmhpq.s 			page 46


 781              		.loc 1 204 0
 782 0012 0368     		ldr	r3, [r0]
 783 0014 5960     		str	r1, [r3, #4]
 784              		.loc 1 205 0
 785 0016 0021     		mov	r1, #0
 786 0018 C160     		str	r1, [r0, #12]
 787              		.loc 1 208 0
 788 001a 9342     		cmp	r3, r2
 789 001c 03D0     		beq	.L18
 790              		.loc 1 209 0
 791 001e 0189     		ldrh	r1, [r0, #8]
 792 0020 1A89     		ldrh	r2, [r3, #8]
 793 0022 8A18     		add	r2, r1, r2
 794 0024 1A81     		strh	r2, [r3, #8]
 795              	.LVL22:
 796              	.L18:
 797              		.loc 1 255 0
 798              		@ sp needed
 799 0026 10BD     		pop	{r4, pc}
 800              	.LVL23:
 801              	.L19:
 802              	.LBB62:
 803              	.LBB63:
 804              		.loc 1 215 0
 805 0028 1968     		ldr	r1, [r3]
 806              		.loc 1 216 0
 807 002a 101C     		mov	r0, r2
 808              	.LVL24:
 809 002c 1C30     		add	r0, r0, #28
 810              		.loc 1 217 0
 811 002e 0024     		mov	r4, #0
 812              		.loc 1 215 0
 813 0030 D161     		str	r1, [r2, #28]
 814              		.loc 1 216 0
 815 0032 4860     		str	r0, [r1, #4]
 816              		.loc 1 217 0
 817 0034 DC60     		str	r4, [r3, #12]
 818              		.loc 1 220 0
 819 0036 8142     		cmp	r1, r0
 820 0038 17D0     		beq	.L26
 821              		.loc 1 227 0
 822 003a 1889     		ldrh	r0, [r3, #8]
 823 003c 0B89     		ldrh	r3, [r1, #8]
 824              	.LVL25:
 825 003e C318     		add	r3, r0, r3
 826 0040 9BB2     		uxth	r3, r3
 827 0042 0B81     		strh	r3, [r1, #8]
 828              	.LBB64:
 829              	.LBB65:
 830              	.LBB66:
 831              	.LBB67:
 832              		.loc 2 141 0
 833 0044 0B49     		ldr	r1, .L28+4
 834              	.LBE67:
 835              	.LBE66:
 836              	.LBE65:
 837              	.LBE64:
ARM GAS  /tmp/cc2bmhpq.s 			page 47


 838              		.loc 1 236 0
 839 0046 D28C     		ldrh	r2, [r2, #38]
 840              	.LBB71:
 841              	.LBB70:
 842              	.LBB69:
 843              	.LBB68:
 844              		.loc 2 141 0
 845 0048 496A     		ldr	r1, [r1, #36]
 846 004a 89B2     		uxth	r1, r1
 847              	.LBE68:
 848              	.LBE69:
 849              	.LBE70:
 850              	.LBE71:
 851              		.loc 1 236 0
 852 004c 8A1A     		sub	r2, r1, r2
 853 004e 92B2     		uxth	r2, r2
 854              	.LVL26:
 855              		.loc 1 240 0
 856 0050 9342     		cmp	r3, r2
 857 0052 E8D9     		bls	.L18
 858              		.loc 1 245 0
 859 0054 9B1A     		sub	r3, r3, r2
 860 0056 9BB2     		uxth	r3, r3
 861              	.LVL27:
 862              		.loc 1 249 0
 863 0058 012B     		cmp	r3, #1
 864 005a 04D9     		bls	.L27
 865              	.LVL28:
 866              	.L24:
 867              		.loc 1 253 0
 868 005c 5B18     		add	r3, r3, r1
 869              	.LVL29:
 870              	.LBB72:
 871              	.LBB73:
 872              		.loc 3 95 0
 873 005e 98B2     		uxth	r0, r3
 874 0060 FFF7FEFF 		bl	stSetAlarm
 875              	.LVL30:
 876 0064 DFE7     		b	.L18
 877              	.LVL31:
 878              	.L27:
 879              	.LBE73:
 880              	.LBE72:
 881              		.loc 1 250 0
 882 0066 0223     		mov	r3, #2
 883              	.LVL32:
 884 0068 F8E7     		b	.L24
 885              	.LVL33:
 886              	.L26:
 887              	.LBB74:
 888              	.LBB75:
 889              		.loc 3 83 0
 890 006a FFF7FEFF 		bl	stStopAlarm
 891              	.LVL34:
 892 006e DAE7     		b	.L18
 893              	.L29:
 894              		.align	2
ARM GAS  /tmp/cc2bmhpq.s 			page 48


 895              	.L28:
 896 0070 00000000 		.word	ch
 897 0074 00040040 		.word	1073742848
 898              	.LBE75:
 899              	.LBE74:
 900              	.LBE63:
 901              	.LBE62:
 902              		.cfi_endproc
 903              	.LFE151:
 904              		.size	chVTDoResetI, .-chVTDoResetI
 905 0078 C046C046 		.text
 905      C046C046 
 906              	.Letext0:
 907              		.file 4 "/usr/include/newlib/machine/_default_types.h"
 908              		.file 5 "/usr/include/newlib/stdint.h"
 909              		.file 6 "../../../os/common/ports/ARMCMx/compilers/GCC/chtypes.h"
 910              		.file 7 "../../../os/rt/include/chsystypes.h"
 911              		.file 8 "../../../os/rt/include/chschd.h"
 912              		.file 9 "../../../os/common/ports/ARMCMx/chcore.h"
 913              		.file 10 "../../../os/common/ports/ARMCMx/chcore_v6m.h"
 914              		.file 11 "../../../os/hal/ports/STM32/LLD/TIMv1/stm32_tim.h"
 915              		.file 12 "../../../os/rt/include/chsem.h"
 916              		.file 13 "../../../os/rt/include/chmtx.h"
 917              		.file 14 "../../../os/rt/include/chvt.h"
 918              		.file 15 "../../../os/hal/include/hal_st.h"