ARM GAS  /tmp/cc2bmhpq.s 			page 1


   1              		.cpu cortex-m0
   2              		.fpu softvfp
   3              		.eabi_attribute 20, 1
   4              		.eabi_attribute 21, 1
   5              		.eabi_attribute 23, 3
   6              		.eabi_attribute 24, 1
   7              		.eabi_attribute 25, 1
   8              		.eabi_attribute 26, 1
   9              		.eabi_attribute 30, 2
  10              		.eabi_attribute 34, 0
  11              		.eabi_attribute 18, 4
  12              		.code	16
  13              		.file	"chvt.c"
  14              		.text
  15              	.Ltext0:
  16              		.section	.gnu.lto_.jmpfuncs.7f50a2e5811ddc2f,"",%progbits
  17 0000 789C6362 		.ascii	"x\234cb`b\300\006d\2404\013\003#\020\002\0251\363\003"
  17      6062C006 
  17      64A0340B 
  17      03231002 
  17      1531F303 
  18 0014 29206261 		.ascii	") badd\006\212\227\001\231\000\011|\000\275"
  18      6464068A 
  18      97019900 
  18      097C00BD 
  19              		.text
  20              		.section	.gnu.lto_.inline.7f50a2e5811ddc2f,"",%progbits
  21 0000 789C6362 		.ascii	"x\234cb`b\300\006\224\031\031\030\244\2014\013\003\203"
  21      6062C006 
  21      94191918 
  21      A481340B 
  21      0383
  22 0012 9414230B 		.ascii	"\224\024#\013Cz5\303\257\206\216\206\007\315\357-3\031"
  22      437A35C3 
  22      AF868E86 
  22      07CDEF2D 
  22      3319
  23 0024 19B41956 		.ascii	"\031\264\031V5\000\201i&#c.#C\022#\\\0333\003CF\"\343"
  23      35008169 
  23      2623632E 
  23      23431223 
  23      5C1B3303 
  24 003c 42C66A10 		.ascii	"B\306j\020\213\221\001F:\260\263v\2503\260w\250310\276"
  24      8B910146 
  24      3AB0B376 
  24      A833B077 
  24      A8333130 
  25 0051 60176062 		.ascii	"`\027`b\000r\005\030\244\276-a\344``\334\315\256\300"
  25      00720518 
  25      A4BE2D61 
  25      E46060DC 
  25      CDAEC0
  26 0064 C104A140 		.ascii	"\301\004\241@F0r\201,e\342f\000JM\360cb`gcd`\3428`\307"
  26      46307281 
  26      2C65E266 
  26      004A4DF0 
  26      63626067 
ARM GAS  /tmp/cc2bmhpq.s 			page 2


  27 007f C0B6409E 		.ascii	"\300\266@\236\011b\207\356%\006Ff\306\224\010\306LF"
  27      096287EE 
  27      25064666 
  27      C69408C6 
  27      4C46
  28 0091 26A0F18C 		.ascii	"&\240\361\214\251p\026\310%\314\016\177\357p0\360-u"
  28      A97016C8 
  28      25CC0E7F 
  28      EF7030F0 
  28      2D75
  29 00a3 63626059 		.ascii	"cb`Y /\000\322\0024\015l\030\204ba\020\021`d\006;L\001"
  29      202F00D2 
  29      02340D6C 
  29      18846261 
  29      10116064 
  30 00bb D9911C62 		.ascii	"\331\221\034b\023&32p\034\321\001\272\346\022\033\013"
  30      13263332 
  30      701CD101 
  30      BAE6121B 
  30      0B
  31 00cc 8404111C 		.ascii	"\204\004\021\034`&\320=\227X\005\230\300$\222\241\014"
  31      6026D03D 
  31      97580598 
  31      C02492A1 
  31      0C
  32 00dd 527A7AFA 		.ascii	"Rzz\372\020\224_\254_T\242_\\\224\254\237\234QV\242"
  32      10945FAC 
  32      5F54A25F 
  32      5C94AC9F 
  32      9C5156A2 
  33 00f1 97CC0000 		.ascii	"\227\314\000\000\356\3230\336"
  33      EED330DE 
  34              		.text
  35              		.section	.gnu.lto_.pureconst.7f50a2e5811ddc2f,"",%progbits
  36 0000 789C6362 		.ascii	"x\234cb`b\340d\200\000\026\006)&\011f)\026)\000\002"
  36      6062E064 
  36      80001606 
  36      29260966 
  36      29162900 
  37 0015 D80081   		.ascii	"\330\000\201"
  38              		.text
  39              		.section	.gnu.lto_chVTDoResetI.part.0.7f50a2e5811ddc2f,"",%progbits
  40 0000 789C9555 		.ascii	"x\234\225U]h\\U\020\236\271\377ww\223M\005\245\012\026"
  40      5D685C55 
  40      109EB9FF 
  40      7777934D 
  40      05A50A16 
  41 0014 A96F1673 		.ascii	"\251o\026s\251E\260OR\352K\241y\261\033\320\027\343"
  41      A945B04F 
  41      52EA4BA1 
  41      79B11BD0 
  41      17E3
  42 0026 7A133617 		.ascii	"z\0236\027v\263e\263\326\202\017=\333]J\177\004C@\204"
  42      76B365B3 
  42      D6820F3D 
  42      DB5D4A7F 
  42      04434084 
ARM GAS  /tmp/cc2bmhpq.s 			page 3


  43 003a D61A5B6D 		.ascii	"\326\032[mQ\021\212\010\332Z\321T\245&\226\246\015\212"
  43      51118A08 
  43      DA5AD154 
  43      A52696A6 
  43      0D8A
  44 004c D2104A40 		.ascii	"\322\020J@\350\017B\\\314\203M\300\\g\316\275g\367v"
  44      E80F425C 
  44      CC834DC0 
  44      5C67CEBD 
  44      67F776
  45 005f 35B41EF6 		.ascii	"5\264\036\366\2369?3\337|3s\316Y\0154\350l%\372NY\000"
  45      9E393F33 
  45      DF7C3373 
  45      CE590D34 
  45      E86C25FA 
  46 0076 9F91C414 		.ascii	"\237\221\304\024\240;6C\003\0275)5M?\247\203H\031\277"
  46      A03B3643 
  46      03173529 
  46      354D3FA7 
  46      834819BF 
  47 008a FE082032 		.ascii	"\376\010 2::\274\\s\014\315\371j\003\255\233?{\264l"
  47      3A3ABC5C 
  47      730CCDF9 
  47      6A03AD9B 
  47      3F7BB46C 
  48 009e 6AD61B0F 		.ascii	"j\326\033\017\322\314nl\245\231\205v\244d+m\007\221"
  48      D2CC6E6C 
  48      A5998576 
  48      A4642B6D 
  48      0791
  49 00b0 0780B0CF 		.ascii	"\007\200\260\317\325t\303\264l\007\367\275\210\354\336"
  49      D574C3B4 
  49      6C07F7BD 
  49      88ECDE
  50 00bf 28216C84 		.ascii	"(!l\204\023B\034]8\365\345\247\353\017\277W\033\023"
  50      13421C5D 
  50      38F5E5A7 
  50      EB0FBF57 
  50      1B13
  51 00d1 AB618801 		.ascii	"\253a\210\001\357\372\010/\320\010{\244\320:\310K\263"
  51      EFFA082F 
  51      D0087BA4 
  51      D03AC84B 
  51      B3
  52 00e2 F1C96333 		.ascii	"\361\311c3o\257\027\0113\015\036\305\373\262\024\347"
  52      6FAF1709 
  52      330D1EC5 
  52      FBB214E7 
  53 00f2 5FFE5034 		.ascii	"_\376P4&\303\360Yi\365\370\275\254\316hb!\014\227C\367"
  53      26C3F059 
  53      69F5F8BD 
  53      ACCE6862 
  53      210C9743 
  54 0107 21C412A2 		.ascii	"!\304\022\242\006\001\352:u\206\301\235\311\235E\235"
  54      0601EA3A 
  54      7586C19D 
  54      C99D459D 
ARM GAS  /tmp/cc2bmhpq.s 			page 4


  55 0117 6953070E 		.ascii	"iS\007\016O]\310\343\007\270\021R$O\222L\363b&\236t"
  55      4F5DC8E3 
  55      07B81152 
  55      244F924C 
  55      F362269E 
  56 012c F184604D 		.ascii	"\361\204`Mh\0101\366X\244\031m\311\310\251\345\250\347"
  56      680831F6 
  56      58A4196D 
  56      C9C8A9E5 
  56      A8E7
  57 013e C4E5D065 		.ascii	"\304\345\320e\251\367\223S\226\227a\377\334\235\337"
  57      A9F79353 
  57      969761FF 
  57      DC9DDF
  58 014d 97B53C9E 		.ascii	"\227\265<\236F\023\012\250m\202'\210\31418Z\023\242"
  58      46130AA8 
  58      6D822788 
  58      CC31385A 
  58      13A2
  59 015f 2740AB80 		.ascii	"'@\253\200\310\021\350\222\367+\250\" \273\351\253\251"
  59      C811E892 
  59      F72BA822 
  59      20BBE9AB 
  59      A9
  60 0170 C86A137C 		.ascii	"\310j\023|,\250m%\255x\230\016\320nA8\257\303\2128\310"
  60      2CA86D25 
  60      AD78980E 
  60      D06E4138 
  60      AFC38A38 
  61 0185 23B7849C 		.ascii	"#\267\204\234\010\306sc<\214e\224\240\002K\202^\251"
  61      08C67363 
  61      3C8C6594 
  61      A0024B82 
  61      5EA9
  62 0197 FF76FC99 		.ascii	"\377v\374\231\273\300wu\220\322\222\244\"\031\271\021"
  62      BBC07775 
  62      90D292A4 
  62      2219B911 
  63 01a7 E7692315 		.ascii	"\347i#\025[\315\322\330&\247\312\217\242~\366\354\342"
  63      5BCDD2D8 
  63      26A7CA8F 
  63      A27EF6EC 
  63      E2
  64 01b8 6DBC0BBF 		.ascii	"m\274\013\277+\300\364\232A\033R\362J\232\007S\360\375"
  64      2BC0F49A 
  64      411B52F2 
  64      4A9A0753 
  64      F0FD
  65 01ca CD0B77BA 		.ascii	"\315\013w\272[)\213\035g\333~\237\376\017\267\252\365"
  65      5B298B1D 
  65      67DB7E9F 
  65      FE0FB7AA 
  65      F5
  66 01db 13EC395D 		.ascii	"\023\3549]\277\002\365\346\374/\007\262q\315T\361&/"
  66      BF02F5E6 
  66      FC2F07B2 
  66      71CD54F1 
ARM GAS  /tmp/cc2bmhpq.s 			page 5


  66      262F
  67 01ed 5D7FDF06 		.ascii	"]\177\337\006\210\260}e\337\312`\306G*\325\347\264G"
  67      88B07D65 
  67      DFCA60C6 
  67      472AD5E7 
  67      B447
  68 01ff 2DC02E05 		.ascii	"-\300.\005i\000\335\252\250\230\177N\353\212Y\\\016"
  68      6900DDAA 
  68      A8987F4E 
  68      EB8A595C 
  68      0E
  69 0210 B2833573 		.ascii	"\262\2035sg\266\2632\327\314*KC\036\003X3#m\253\372"
  69      67B6B332 
  69      D7CC2A4B 
  69      431E0358 
  69      33236DAB 
  70 0225 C1FA0D54 		.ascii	"\301\372\015Tf&\371,p\272\010mG2\277\367A\241\300\362"
  70      6626F92C 
  70      70BA086D 
  70      4732BFF7 
  70      41A1C0F2 
  71 0239 327C3BF7 		.ascii	"2|;\367\316\037\267>\032\307\316\274,\315\035\267Z\223"
  71      CE1FB73E 
  71      1AC7CEBC 
  71      2CCD1DB7 
  71      5A93
  72 024b 136F5DB3 		.ascii	"\023o]\263[\223#\213u\267\2351\235>\203>3\302\264\330"
  72      5B93238B 
  72      75B79D31 
  72      9D3E833E 
  72      33C2B4D8 
  73 025f 7FA3B6B0 		.ascii	"\177\243\266\260|qf\034\215\000\273\231\305\030\263"
  73      7C71661C 
  73      8D00BB99 
  73      C518B3
  74 026e C832851E 		.ascii	"\3102\205\036.\234!K\333\023\263\261\030\353\233\310"
  74      2E9C214B 
  74      DB13B3B1 
  74      18EB9BC8 
  75 027e 9EC258AC 		.ascii	"\236\302X\254S\241\277\226\321\331\005\336\344D\315"
  75      53A1BF96 
  75      D1D905DE 
  75      E444CD
  76 028d 37DF7D49 		.ascii	"7\337}I\305\354D\251\212+?\201\377\373\350\333\355\\"
  76      C5EC44A9 
  76      8A2B3F81 
  76      FFFBE8DB 
  76      ED5C
  77 029f 1EAA5714 		.ascii	"\036\252W\024\254+\3759\000\323\020_\316\350Z\027\330"
  77      AC2BFD39 
  77      00D3105F 
  77      CEE85A17 
  77      D8
  78 02b0 7E0A1A37 		.ascii	"~\012\0327.\314\276\251'\362\356&O\230\011?<\251K\274"
  78      2ECCBEA9 
  78      27F2EE26 
  78      4F98093F 
ARM GAS  /tmp/cc2bmhpq.s 			page 6


  78      3CA94BBC 
  79 02c4 2F261E56 		.ascii	"/&\036VJ)\245\227@<)\021S1\342R\0331\305L!y|\373)\370"
  79      4A29A597 
  79      403C2911 
  79      5331E252 
  79      1B31C54C 
  80 02de D3197D1A 		.ascii	"\323\031}\032\366/\254\334\264\222\000\254jh-5\233\235"
  80      F62FACDC 
  80      B49200AC 
  80      6A682D35 
  80      9B9D
  81 02f0 939A032D 		.ascii	"\223\232\003-\007\231\370\244\3745\341)\007i\012N\262"
  81      0799F8A4 
  81      FC35E129 
  81      07690A4E 
  81      B2
  82 0301 E18D96DB 		.ascii	"\341\215\226\333.\271\221Ip\214\237\346\237\216|\207"
  82      2EB99149 
  82      708C9FE6 
  82      9F8E7C87 
  83 0311 E2B0A835 		.ascii	"\342\260\2505\3030+\337\3303x\257G\266\300\327\343\012"
  83      C3302BDF 
  83      D83378AF 
  83      47B6C0D7 
  83      E30A
  84 0323 349AF3AB 		.ascii	"4\232\363\253\027\273\377u\315V\227\314<N\311\027R\035"
  84      17BBFF75 
  84      CD5697CC 
  84      3C4EC917 
  84      521D
  85 0335 1DABE3B2 		.ascii	"\035\253\343\262\255\363\321\316\343%u\224\350\211x"
  85      ADF3D1CE 
  85      E3257594 
  85      E88978
  86 0344 8047D720 		.ascii	"\200G\327 C\3711\347\377\036\214\003\267>\011\213\034"
  86      43F931E7 
  86      FF1E8C03 
  86      B73E098B 
  86      1C
  87 0355 B8235FD4 		.ascii	"\270#_\324Y\372\227j\223\310\021MZej\217\364\366z\321"
  87      59FA976A 
  87      93C8114D 
  87      5A656A8F 
  87      F4F67AD1 
  88 0369 AF3CEA55 		.ascii	"\257<\352U\252\336h\305\367\374\341=\325^\037\314\301"
  88      AADE68C5 
  88      F7FCE13D 
  88      D55E1FCC 
  88      C1
  89 037a A16235EF 		.ascii	"\241b5\357\214\224_\223\003/\251\351\227K\245\362\210"
  89      8C945F93 
  89      032FA9E9 
  89      974BA5F2 
  89      88
  90 038b B7BB5CA9 		.ascii	"\267\273\\\251\216z\333\236\357\333\336\267\227\314"
  90      8E7ADB9E 
  90      EFDBDEB7 
ARM GAS  /tmp/cc2bmhpq.s 			page 7


  90      97CC
  91 0399 FC726568 		.ascii	"\374reh\240\032\224\206*\275\303\260%\251?\234/\306"
  91      A01A9486 
  91      2ABDC3B0 
  91      25A93F9C 
  91      2FC6
  92 03ab CABB727D 		.ascii	"\312\273r}[\236\362v\356|\316\313\355\350\333\263\231"
  92      5B9EF276 
  92      EE7CCECB 
  92      EDE8DBB3 
  92      99
  93 03bc 770646AB 		.ascii	"w\006F\253\003\305\342 \331l\350`\023\214\370\305W\007"
  93      03C5E220 
  93      D96CE860 
  93      138CF8C5 
  93      5707
  94 03ce 872246C3 		.ascii	"\207\"F\303`0\366?h\262\311\275"
  94      6030F63F 
  94      68B2C9BD 
  95              		.text
  96              		.section	.gnu.lto__vt_init.7f50a2e5811ddc2f,"",%progbits
  97 0000 789C6362 		.ascii	"x\234cb`b@\007\222 \014\024\226\001\322\214\314\014"
  97      60624007 
  97      92200C14 
  97      9601D28C 
  97      CC0C
  98 0012 8C4C13CE 		.ascii	"\214L\023\316104r012\202\030\014\214\014\365L\214\365"
  98      31303472 
  98      30313282 
  98      180C8C0C 
  98      F54C8CF5 
  99 0026 918C60B5 		.ascii	"\221\214`\265\353\231\016<\370\377\177\335\257\255\017"
  99      EB990E3C 
  99      F8FF7FDD 
  99      AFAD0F
 100 0035 FB1905D9 		.ascii	"\373\031\005\331\200\002\254\014-\015\015\023\024\030"
 100      8002AC0C 
 100      2D0D0D13 
 100      1418
 101 0043 1892C10A 		.ascii	"\030\222\301\012B\200$HW(#\023\210f>\313\320\364\253"
 101      42802448 
 101      57282313 
 101      88663ECB 
 101      D0F4AB
 102 0056 F9FF65A6 		.ascii	"\371\377e\246D\306\205\214\254\014\332\014\253\032\200"
 102      44C6858C 
 102      AC0CDA0C 
 102      AB1A80
 103 0065 C0329311 		.ascii	"\3002\223\021\306\344\316dd\234\3150\253\261\241A \223"
 103      C6E4CE64 
 103      649CCD30 
 103      ABB1A141 
 103      2093
 104 0077 91A99AE1 		.ascii	"\221\251\232\341WC\007\210\305\234\0136-\202\021\310"
 104      57430788 
 104      C59C0B36 
 104      2D8211C8 
ARM GAS  /tmp/cc2bmhpq.s 			page 8


 105 0087 04DB9B04 		.ascii	"\004\333\233\004\261\036HC\030\020\225\015\363\201\012"
 105      B11E4843 
 105      1810950D 
 105      F3810A
 106 0096 58A0466D 		.ascii	"X\240Fm\005\262\031\201\372`J\301\000l\377\342\036-"
 106      05B21981 
 106      FA604AC1 
 106      006CFFE2 
 106      1E2D
 107 00a8 EAD9CF44 		.ascii	"\352\331\317D\252\375;v<\272\201\341\177V\262\355\207"
 107      AAFD3B76 
 107      3CBA81E1 
 107      7F56B2ED 
 107      87
 108 00b9 F041326C 		.ascii	"\360A2l\377\3773\303\254x\374\201\212V\260 \254\000"
 108      FFFF33C3 
 108      AC78FC81 
 108      8A56B020 
 108      AC00
 109 00cb 312E3234 		.ascii	"1.24>\350W\206\030\017\003!\300x\000\306/(0\244\364"
 109      3EE85786 
 109      180F0321 
 109      C07800C6 
 109      2F2830A4 
 110 00e0 F4F42128 		.ascii	"\364\364!(\277X\277\250D\277\270(Y?9\243\254D/\231\001"
 110      BF58BFA8 
 110      44BFB828 
 110      593F39A3 
 110      AC442F99 
 111 00f5 00BBF58A 		.ascii	"\000\273\365\212f"
 111      66
 112              		.text
 113              		.section	.gnu.lto_chVTDoSetI.7f50a2e5811ddc2f,"",%progbits
 114 0000 789CAD56 		.ascii	"x\234\255V[lTU\024\335\373\334\231\271w\036-\365\201"
 114      5B6C5455 
 114      14DDFBDC 
 114      99B9771E 
 114      2DF581
 115 0013 9456DAA6 		.ascii	"\224V\332\246?<J:\301FMc\3740\372CB?\324\022\365\253"
 115      3F3C4A3A 
 115      C1464D63 
 115      FC30FA43 
 115      423FD412 
 116 0029 1987663A 		.ascii	"\031\207f:I\247%\355\210&\230p\247\035\025\245j\203"
 116      49A725ED 
 116      88269870 
 116      A71D15A5 
 116      6A83
 117 003b 2541C104 		.ascii	"%A\301\004\322\240\006L\333\300O\0331i\221\004*\021"
 117      D2A0064C 
 117      DBC04F1B 
 117      31699104 
 117      2A11
 118 004d 0A48E854 		.ascii	"\012H\350T?FI\213$\206\024\361Q\321t\334\3475\235\227"
 118      3F46498B 
 118      248614F1 
 118      51D174DC 
ARM GAS  /tmp/cc2bmhpq.s 			page 9


 118      E7359D97 
 119 0061 0C106E66 		.ascii	"\014\020nf\316\271\367\334\275\327Y\373\254}\366\271"
 119      CEB9F7DC 
 119      BDD759FB 
 119      AC7DF6B9 
 120 0071 0C18E45E 		.ascii	"\014\030\344^\037\321\377\011\037\300\010\365X\002\310"
 120      1FD1FF09 
 120      1FC008F5 
 120      5802C8
 121 0080 FACF02C4 		.ascii	"\372\317\002\304,\306\214\276\345`{\034\361F\260}\006"
 121      2CC68CBE 
 121      E5607B1C 
 121      F146B07D 
 121      06
 122 0091 3AE4B083 		.ascii	":\344\260\2039\307\014\032v]\376\026h\334\211>9\356"
 122      39C70C1A 
 122      765DFE16 
 122      68DC893E 
 122      39EE
 123 00a3 62E6F78F 		.ascii	"b\346\367\217\320\270u\374I\0326\321\222\303\026z\344"
 123      D0B875FC 
 123      491A36D1 
 123      92C3167A 
 123      E4
 124 00b4 8D5BDE4C 		.ascii	"\215[\336LX\036\346\356;E\256\036o\334$K\257\006\360"
 124      581EE6EE 
 124      3B45AE1E 
 124      6FDC244B 
 124      AF06F0
 125 00c7 21F21B40 		.ascii	"!\362\033@\330\301\014\207\323eZn\217\327\207;^AN\222"
 125      D8C10C87 
 125      D3655A6E 
 125      8FD7873B 
 125      5E414E92 
 126 00db D5C241DB 		.ascii	"\325\302A\333\336\235<\364[\222}l\217\307\017\330\377"
 126      DE9D3CF4 
 126      5B927D6C 
 126      8FC70FD8 
 126      FF
 127 00ec A6528861 		.ascii	"\246R\210a\244\200V!\004\021^\246\007\254\021\035sd"
 127      A4805621 
 127      04115EA6 
 127      07AC111D 
 127      7364
 128 00fe 47287DC7 		.ascii	"G(}\307\367\234\372\240\334>\020\353\267\027\3115\214"
 128      F79CFAA0 
 128      DC3E10EB 
 128      B717C935 
 128      8C
 129 010f 0683EA25 		.ascii	"\006\203\352%\3172\351\231\263<\303l<\231J\365\215\375"
 129      CF32E999 
 129      B33CC36C 
 129      3C994AF5 
 129      8DFD
 130 0121 FEF3397C 		.ascii	"\376\3639|\320\217\020\341\363\005\360 \326\202A\375"
 130      D08F10E1 
 130      F305F020 
ARM GAS  /tmp/cc2bmhpq.s 			page 10


 130      D68241FD 
 131 0131 20F52646 		.ascii	" \365&F\020-j\230\207\032\243\204\032(\005\"\266\234"
 131      102D6A98 
 131      871AA384 
 131      1A280522 
 131      B69C
 132 0143 1AC70ADE 		.ascii	"\032\307\012\336\224\363f\245\262\257\340\017\225\274"
 132      94F366A5 
 132      B2AFE00F 
 132      95BC
 133 0151 59A590AA 		.ascii	"Y\245\220\252\370C\265z]\243\006k9\304j\376f\015o\352"
 133      F843B57A 
 133      5DA3066B 
 133      39C46AFE 
 133      660D6FEA 
 134 0165 A871AEA7 		.ascii	"\250q\256\247\306 VN\210\333v\177\2154\224n\021\244"
 134      C620564E 
 134      88DB767F 
 134      8D34946E 
 134      11A4
 135 0177 988362A9 		.ascii	"\230\203b\251\232\251\0352a32\352\214\357\240\347\314"
 135      9AA91D32 
 135      613332EA 
 135      8CEFA0E7 
 135      CC
 136 0188 C2CD2406 		.ascii	"\302\315$\006\360\020:\241\016\016\333t\225\204\321"
 136      F0103AA1 
 136      0E0EDB74 
 136      9584D1
 137 0197 B50F3EA1 		.ascii	"\265\017>\241\200\315\020\232<p\031\356\253\252\017"
 137      80CD109A 
 137      3C7019EE 
 137      ABAA0F
 138 01a6 A105C03D 		.ascii	"\241\005\300=\367\376\371K\236\247U\330\023\225\247"
 138      F7FEF94B 
 138      9EA755D8 
 138      1395A7
 139 01b5 877B9E98 		.ascii	"\207{\236\2309~\361\354n\267\"\252\031\217_}\377\007"
 139      397EF1EC 
 139      6EB722AA 
 139      198F5F7D 
 139      FF07
 140 01c7 C3483FCD 		.ascii	"\303H?\315\016$\314\364\303\256\3537\322oj\244`\366"
 140      0E24CCF4 
 140      C3AEEB37 
 140      D26F6AA4 
 140      60F6
 141 01d9 886D3B85 		.ascii	"\210m;\205\320\206P\353\013,&\027\200$\013|-\2701\243"
 141      D08650EB 
 141      0B2C2617 
 141      80240B7C 
 141      2DB831A3 
 142 01ed BF2179D5 		.ascii	"\277!y\325\361\010\342\261\344\276?\0066\206\321MAP"
 142      F108E2B1 
 142      E4BE3F06 
 142      3686D14D 
 142      4150
ARM GAS  /tmp/cc2bmhpq.s 			page 11


 143 01ff 269485D1 		.ascii	"&\224\205\321\303\201\274\366N\333v\010L\257\212\207"
 143      C381BCF6 
 143      4EDB7608 
 143      4CAF8A87 
 144 020f 71B02312 		.ascii	"q\260#\022\214\226\342zoi\000\017\323c\010\327\023\030"
 144      8C96E27A 
 144      6F69000F 
 144      D36308D7 
 144      1318
 145 0221 C024F4CC 		.ascii	"\300$\364\314\237\370\352\315\000\016\321`\000\207I"
 145      9FF8EACD 
 145      000ED160 
 145      008749
 146 0230 047E9D86 		.ascii	"\004~\235\206\370\334\304\371w|r<\204%\034\323\300\014"
 146      F8DCC4F9 
 146      777C723C 
 146      84251CD3 
 146      C00C
 147 0242 8A9B89D1 		.ascii	"\212\233\211\321\"\032\344\237\2746hJ\273\210\014\313"
 147      221AE49F 
 147      BC36684A 
 147      BB880CCB 
 148 0252 C1D2360E 		.ascii	"\301\3226\016.\036\331\220\020\3642\304\227\227X\314"
 148      2E1ED990 
 148      10F432C4 
 148      979758CC 
 149 0262 8CFE73DA 		.ascii	"\214\376s\332\324\320\245u\260\216\326_)s\211\374}<"
 149      D4D0A575 
 149      B08ED65F 
 149      297389FC 
 149      7D3C
 150 0274 2A9B4755 		.ascii	"*\233GU\262\035nQLtW\032\0211p\370R\025\232\241z\275"
 150      B21D6E51 
 150      4C74571A 
 150      113170F8 
 150      52159AA1 
 151 028a 4D4EC3C9 		.ascii	"MN\303\311\253\261\015iX\351j7\204q\231\302n$h\202\321"
 151      ABB10D69 
 151      58E96A37 
 151      847199C2 
 151      6E246882 
 152 029f 9E195702 		.ascii	"\236\031W\002\220bd\250\330\033\373\277\216r\366NX\307"
 152      906264A8 
 152      D81BFBBF 
 152      8E72F64E 
 152      58C7
 153 02b1 336F7274 		.ascii	"3ortq\312\220\270\012\351yZ\014u\333p\327|\235*\305"
 153      71CA90B8 
 153      0AE9795A 
 153      0C75DB70 
 153      D77C9D2A 
 154 02c6 D6CBE49C 		.ascii	"\326\313\344\234^\234g\271\340p\317\340\016\005nJ\360"
 154      5E9C67B9 
 154      E070CFE0 
 154      0E056E4A 
 154      F0
 155 02d7 85FB0AEE 		.ascii	"\205\373\012\356\312\002\277\325{\363\303\265Y\340\217"
ARM GAS  /tmp/cc2bmhpq.s 			page 12


 155      CA02BFD5 
 155      7BF3C3B5 
 155      59E08F
 156 02e6 1378E16D 		.ascii	"\023x\341me\212^I\362).ir\014\013\210\"\300\377\272"
 156      658A5E49 
 156      F2292E69 
 156      720C0B88 
 156      22C0FFBA 
 157 02fa 6370EB6E 		.ascii	"cp\353n\301\317L\247\246X.\270Q\030\334\255b\026\231"
 157      C1CF4CA7 
 157      A6582EB8 
 157      5118DCAD 
 157      621699
 158 030d DBBBB3F7 		.ascii	"\333\273\263\367\363\201\247u\212-\247Q!\343$(4U\242"
 158      F381A775 
 158      8A2DA751 
 158      21E32428 
 158      3455A2
 159 0320 536F7F83 		.ascii	"So\177\203\366{vl>\225Z&\366\374\227E\367<\241\001\234"
 159      F67B766C 
 159      3E955A26 
 159      F6FC9745 
 159      F73CA101 
 160 0335 83F8FCD8 		.ascii	"\203\370\374\330\340\334\002\346V\2343'/\320~9'6\247"
 160      E0DC02E6 
 160      569C3327 
 160      2FD07E39 
 160      2736A7
 161 0348 9C29A8D3 		.ascii	"\234)\250\323>\255[Y\020\235\001\274 \323\213\340\302"
 161      3EAD5B59 
 161      109D01BC 
 161      20D38BE0 
 161      C2
 162 0359 F880DE85 		.ascii	"\370\200\336\205.\210\363\022J\354\257\014Tj\366+4{"
 162      2E88F312 
 162      4AECAF0C 
 162      546AF62B 
 162      347B
 163 036b BE21FB1F 		.ascii	"\276!\373\037\322\303\345b;\352\354\336~\217\331-\026"
 163      D2C3E562 
 163      3BEAECDE 
 163      7E8FD92D 
 163      16
 164 037c EBDDDE0E 		.ascii	"\353\335\336\016\215\272R\314W\236\261T\262\340\323"
 164      8DBA52CC 
 164      579EB154 
 164      B2E0D3
 165 038b 1B55113E 		.ascii	"\033U\021>\373\333\320\306\025\222BZ\217\322|=\304n"
 165      FBDBD0C6 
 165      1592425A 
 165      8FD27C3D 
 165      C46E
 166 039d 9F5BDAED 		.ascii	"\237[\332\355\025\002H_\233)\337\336b2\342\233\003O"
 166      1502485F 
 166      9B29DFDE 
 166      6232E29B 
 166      034F
ARM GAS  /tmp/cc2bmhpq.s 			page 13


 167 03af 69A34A62 		.ascii	"i\243Jb \354\212\350\025\300)Qro\257W\245\320kjl\320"
 167      20EC8AE8 
 167      15C02951 
 167      726FAF57 
 167      A5D06B6A 
 168 03c5 CC556BD7 		.ascii	"\314Uk\327\331\243\244\326L\226Z\256|\265\310\346G\255"
 168      D9A3A4D6 
 168      4C965AAE 
 168      7CB5C8E6 
 168      47AD
 169 03d7 5665865A 		.ascii	"Ve\206Z\226T\253gf\372\310Zy\020\204p\325\375\253\015"
 169      9654AB67 
 169      66FAC85A 
 169      79108470 
 169      D5FDAB0D 
 170 03eb A2E68F3B 		.ascii	"\242\346\217;%\262<|\011_O\356\006\372\2541\204xW\366"
 170      25B23C7C 
 170      095F4FEE 
 170      06FAAC31 
 170      847857F6 
 171 03ff 54EAE9AB 		.ascii	"T\352\351\253Ch\204\260J\255\334\241\014\371\252\225"
 171      436884B0 
 171      4AADDCA1 
 171      0CF9AA95 
 172 040f 7C438DDA 		.ascii	"|C\215\332\266\246\320~e\371\305@\3620\263y\324h\036"
 172      B6A6D07E 
 172      65F9C540 
 172      F230B379 
 172      D4681E
 173 0422 1EA0CF28 		.ascii	"\036\240\317(ur\350\271\014\341\"\006\2445\223\223/"
 173      7572E8B9 
 173      0CE12206 
 173      A4359393 
 173      2F
 174 0433 1C49A09E 		.ascii	"\034I\240\236\275*'w\330\377\344\316l\254!\355\022Z"
 174      BD2A2777 
 174      D8FFE4CE 
 174      6CAC21ED 
 174      125A
 175 0445 2A0F0960 		.ascii	"*\017\011`\264\030\326\257\227\036&.\356\375\227\037"
 175      B418D6AF 
 175      971E262E 
 175      EEFD971F 
 176 0455 4D0005BE 		.ascii	"M\000\005\276\322\352\273\330N\261\272\343/qn^%\320"
 176      D2EABBD8 
 176      4EB1BAE3 
 176      2F716E5E 
 176      25D0
 177 0467 E4E8F0B5 		.ascii	"\344\350\360\265\274\357\212\333\026\3004\345\351\341"
 177      BCEF8ADB 
 177      16C034E5 
 177      E9E1
 178 0475 0943CF5F 		.ascii	"\011C\317_+\017\300\302\224\255\364v\352\231\0341\357"
 178      2B0FC0C2 
 178      94ADF476 
 178      EA991C31 
 178      EF
ARM GAS  /tmp/cc2bmhpq.s 			page 14


 179 0486 70324B4D 		.ascii	"p2KMV\253\016\201\341\004\313\362l\314\364\254-DS\035"
 179      56AB0E81 
 179      E104CBF2 
 179      6CCCF4AC 
 179      2D44531D 
 180 049a 1F7B8F26 		.ascii	"\037{\217&\262\003t\027!\252='G\217\336\310[\232\"\025"
 180      B2037417 
 180      21AA3D27 
 180      478FDEC8 
 180      5B9A2215 
 181 04ae D650A974 		.ascii	"\326P\251t\354\247\264\232\253\245sYQEy\302\246\027"
 181      ECA7B49A 
 181      ABA57359 
 181      514579C2 
 181      A617
 182 04c0 740D396A 		.ascii	"t\0159j\270\215\231$\212\341\220\253p\032\235>\226\277"
 182      B88D9924 
 182      8AE190AB 
 182      701A9D3E 
 182      96BF
 183 04d2 62BA247A 		.ascii	"b\272$z\357z\337yD/\276-\350#\020t\212\373\370\267\321"
 183      EF7ADF79 
 183      442FBE2D 
 183      E8231074 
 183      8AFBF8B7 
 184 04e7 79882577 		.ascii	"y\210%w\315\242,\023\372j\246\343b\310\344\025\247\242"
 184      CDA22C13 
 184      FA6AA6E3 
 184      62C8E415 
 184      A7A2
 185 04f9 BEDE2F7F 		.ascii	"\276\336/\177\235\335\376\256\250\277\273+\350\017\266"
 185      9DDDFEAE 
 185      A8BFBB2B 
 185      E80FB6
 186 0508 6D8BD607 		.ascii	"m\213\326\007\001\267:\267\264\266G\003\015\231&m\201"
 186      01B73AB7 
 186      B4B64703 
 186      0D99266D 
 186      81
 187 0519 76FFD6CE 		.ascii	"v\377\326\316\256h\267\377\305\346\246\206\307\374\233"
 187      AE68B7FF 
 187      C5E6A686 
 187      C7FC9B
 188 0528 363DE76F 		.ascii	"6=\347o\336\330\264m\003\177\323\322\035mio\337R\337"
 188      DED8B46D 
 188      037FD3D2 
 188      1D6D696F 
 188      DF52DF
 189 053b 06FE4C9F 		.ascii	"\006\376L\237`g$\322\331\241\334\236y\241\351\331\246"
 189      606724D2 
 189      D9A1DC9E 
 189      79A1E9D9 
 189      A6
 190 054c 37688E60 		.ascii	"7h\216`gWkK4\034i\355\"\373\252\034\032\341\216`\373"
 190      67576B4B 
 190      341C69ED 
 190      22FBAA1C 
ARM GAS  /tmp/cc2bmhpq.s 			page 15


 190      1AE18E60 
 191 0561 6B5B5A25 		.ascii	"k[Z%\22560::_wp\333\377\000\021\014\001U"
 191      9536303A 
 191      3A5F7770 
 191      DBFF0011 
 191      0C0155
 192              		.text
 193              		.section	.gnu.lto_chVTDoResetI.7f50a2e5811ddc2f,"",%progbits
 194 0000 789CAD93 		.ascii	"x\234\255\223=h\024A\024\307\337{\263\263{\271=5`#\202"
 194      3D681441 
 194      14C7DF7B 
 194      B3B37BB9 
 194      3D356023 
 195 0015 2016161E 		.ascii	" \026\026\036\334!6Z\210\265`\231\003\355\214\253\304"
 195      DC21365A 
 195      88B56099 
 195      03ED8CAB 
 195      C4
 196 0026 05CF4072 		.ascii	"\005\317@rha\2219sE*9\254\3044\246\023\021\265\2608"
 196      68619139 
 196      73452A39 
 196      ACC434A6 
 196      1311B5B0 
 197 003b 2BEFAC14 		.ascii	"+\357\254\0241~\224\022P,\022\020\355U\304\365\275\231"
 197      317E9412 
 197      502C1210 
 197      ED55C4F5 
 197      BD99
 198 004d 9DDB4B72 		.ascii	"\235\333Kr\230\306\341\356\275\231\335\371\375\337\233"
 198      98C6E1EE 
 198      BD99DDF9 
 198      FDDF9B
 199 005c F7660908 		.ascii	"\367f\011\010\266\2163\374\377\256\000\252\3541\002"
 199      B68E33FC 
 199      FFAE00AA 
 199      EC3102
 200 006b A4EE2A40 		.ascii	"\244\356*@\273D\244\236\276\0000e\275\026\203\251(\012"
 200      BB44A49E 
 200      BE003065 
 200      BD1683A9 
 200      280A
 201 007d DC32B4CB 		.ascii	"\3342\264\313\000C\267M\273\011\206\210\342\001a\201"
 201      0043B74D 
 201      BB098688 
 201      E2016181 
 202 008d 54A0435C 		.ascii	"T\240C\\8\207V\3761\365?g\331\243\017\257\037\376\306"
 202      388756FE 
 202      31F53F67 
 202      D9A30FAF 
 202      1FFEC6
 203 00a0 E7B49720 		.ascii	"\347\264\227 EP\330D\010d\246\305Db\312l0\026S\021\303"
 203      4550D844 
 203      0864A6C5 
 203      4462CA6C 
 203      30165311 
 204 00b5 A4868E31 		.ascii	"\244\206\2161\335\203M\304C\260b\314\355\376\362\352"
 204      DD834DC4 
ARM GAS  /tmp/cc2bmhpq.s 			page 16


 204      43B062CC 
 204      EDFEF2EA 
 205 00c5 AD7DE65E 		.ascii	"\255}\346^\273k\376d\031\246H\004\007\020\022\204\263"
 205      BB6BFE64 
 205      19A64804 
 205      07101284 
 205      B3
 206 00d6 BC5093D6 		.ascii	"\274P\223\326\005[\316\347H\363\351\374}\323\351g\331"
 206      055BCEE7 
 206      48F3E9FC 
 206      7DD3E967 
 206      D9
 207 00e7 294B1DDE 		.ascii	")K\035\336\211\002y\317c\212\255\234\252\201$^\275\201"
 207      890279CF 
 207      638AAD9C 
 207      AA81245E 
 207      BD81
 208 00f9 9B1F7BEB 		.ascii	"\233\037{\353\003\232\306\025\3240\203T\205#\234z\025"
 208      039AC615 
 208      D4308354 
 208      85239C7A 
 208      15
 209 010a 1E181EC7 		.ascii	"\036\030\036\307R\324\313p\267m\314d\212\341\015\370"
 209      52D4CB70 
 209      B76DCC64 
 209      8AE10DF8 
 210 011a 65966416 		.ascii	"e\226d\0265Q\344%Nd\265/\270\302\260\317'\360\022:\337"
 210      3551E425 
 210      4E64B52F 
 210      B8C2B0CF 
 210      27F0123A 
 211 012f DABB86AA 		.ascii	"\332\273\206\2523\250\212L\032\274\340\312\333\330?"
 211      33A88A4C 
 211      1ABCE0CA 
 211      DBD83F
 212 013e D607E877 		.ascii	"\326\007\350w\005.6\007d\341\022#\022\300\013\373\363"
 212      052E3607 
 212      64E11223 
 212      12C00BFB 
 212      F3
 213 014f 08F46EB7 		.ascii	"\010\364n\267G\364\277\020U \257\236\304\016\311\017"
 213      47F4BF10 
 213      5520AF9E 
 213      C40EC90F 
 214 015f 7672140A 		.ascii	"vr\024\012\266C\254\354B\335\331(\362\213\376G\260h"
 214      B643ACEC 
 214      42DDD928 
 214      F28BFE47 
 214      B068
 215 0171 FBA13803 		.ascii	"\373\2418\003\313\365z\033?q\023y4\305\211\361\341\002"
 215      CBF57A1B 
 215      3F711379 
 215      34C589F1 
 215      E102
 216 0183 EBE5C984 		.ascii	"\353\345\311\204/\367\240(K\344Z%\375+\347R'\270\225"
 216      2FF7A028 
 216      4BE45A25 
ARM GAS  /tmp/cc2bmhpq.s 			page 17


 216      FD2BE752 
 216      27B895
 217 0196 DC36DFA9 		.ascii	"\3346\337\251M\243\301r\317\216\273\273\360u\240\274"
 217      4DA3C172 
 217      CF8EBBBB 
 217      F075A0BC 
 218 01a6 4A8E72C3 		.ascii	"J\216r\303i|\372z\264'{<\026\3332\321\370\274\013dq"
 218      697CFA7A 
 218      B4277B3C 
 218      16DB32D1 
 218      F8BC0B64 
 219 01bb 69F1CBB0 		.ascii	"i\361\313\260\264\025\216\306\244\225:=Z\202\235\202"
 219      B4158EC6 
 219      A4953A3D 
 219      5A829D82 
 220 01cb 33EACFA0 		.ascii	"3\352\317\240a-Vo\241Sr<\300\360\276\306I~/9\231\264"
 220      612D566F 
 220      A153723C 
 220      C0F0BEC6 
 220      497E2F39 
 221 01e1 0042FB05 		.ascii	"\000B\373\005\274\347O\276(\305\024\357\344\247\322"
 221      BCE74FBE 
 221      28C514EF 
 221      E4A7D2
 222 01f0 98FDB55A 		.ascii	"\230\375\265Z\335\375f\347\353s\255\372\374\\RO._k\325"
 222      DDFD66E7 
 222      EB73ADFA 
 222      FC5C524F 
 222      2E5F6BD5 
 223 0204 12285D9D 		.ascii	"\022(]\235\275~\361\322\225\326\264\266\366/\262\241"
 223      BD7EF1D2 
 223      95D6B4B6 
 223      F62FB2A1 
 224 0214 E248     		.ascii	"\342H"
 225              		.text
 226              		.section	.gnu.lto_.symbol_nodes.7f50a2e5811ddc2f,"",%progbits
 227 0000 789C4DC8 		.ascii	"x\234M\310\261\015\3020\024\204\341\273\367l3C\226`"
 227      B10DC230 
 227      1484E1BB 
 227      F76C3343 
 227      9660
 228 0012 C5B34441 		.ascii	"\305\263DA\224\212&\200\022\031!\030\205\202\316%\031"
 228      948A2680 
 228      12192118 
 228      8582CE25 
 228      19
 229 0023 8009D800 		.ascii	"\200\011\330\000$\"\302U\377w\006C\217yv\246\200]\005"
 229      2422C255 
 229      FF770643 
 229      8F7976A6 
 229      805D05
 230 0036 A4D2321E 		.ascii	"\244\3222\036\371)XOq~O-mO\331\037\017\224/d\241\302"
 230      F929584F 
 230      717E4F2D 
 230      6D4FD91F 
 230      0F942F64 
 231 004c 97399323 		.ascii	"\2279\223#\025\027\015T\372\311\221\260\251\367\306"
ARM GAS  /tmp/cc2bmhpq.s 			page 18


 231      15170D54 
 231      FAC991B0 
 231      A9F7C6
 232 005b 11717D99 		.ascii	"\021q}\231\373\012\267n\355\236\360\254\217\340\001"
 232      FB0AB76E 
 232      ED9EF0AC 
 232      8FE001
 233 006a B86C27C3 		.ascii	"\270l'\303\033\233.*0"
 233      1B9B2E2A 
 233      30
 234              		.text
 235              		.section	.gnu.lto_.refs.7f50a2e5811ddc2f,"",%progbits
 236 0000 789C6362 		.ascii	"x\234cb`b0e\200\000\026\006FF& d`dc\002\261 \230\221"
 236      60623065 
 236      80001606 
 236      46462620 
 236      64606463 
 237 0019 918B9901 		.ascii	"\221\213\231\001\312\202\3113\200X, Q\006\000\026\273"
 237      CA82C933 
 237      80582C20 
 237      51060016 
 237      BB
 238 002a 0088     		.ascii	"\000\210"
 239              		.text
 240              		.section	.gnu.lto_.decls.7f50a2e5811ddc2f,"",%progbits
 241 0000 789CBD5B 		.ascii	"x\234\275[\177p\024U\236\357\327=\223\231\220\360ca"
 241      7F701455 
 241      9EEFD73D 
 241      939990F0 
 241      6361
 242 0012 B538D73D 		.ascii	"\2658\327=\342\225{\247{\267\004pu\261\352n\301\013"
 242      E2957BA7 
 242      7BB70470 
 242      75B1EA6E 
 242      C10B
 243 0024 965AB5EC 		.ascii	"\226Z\265\354Y\201\275\242j\377\030\233IKr\233_7\323"
 243      5981BDA2 
 243      6AFF189B 
 243      494B729B 
 243      5F37D3
 244 0037 09507555 		.ascii	"\011PuU6\011D\020\224\000\002\341W\014,?\375I@\202\254"
 244      36094410 
 244      940002E1 
 244      570C2C3F 
 244      FD494082 
 245 004c 80834A36 		.ascii	"\200\203J6\201l\010D\022!G\214\240\234\260\376\000\024"
 245      816C0844 
 245      1221478C 
 245      A09CB0FE 
 245      0014
 246 005e F0073AF7 		.ascii	"\360\007:\367}\337\327=\363\272\247{\246;\350v\361^"
 246      7DDFD73D 
 246      F3BAA77B 
 246      A63BE876 
 246      F15E
 247 0070 DE74BFF7 		.ascii	"\336t\277\367\371\376|\357\373}\257\033Q\020\205\235"
 247      F9FE7CEF 
ARM GAS  /tmp/cc2bmhpq.s 			page 19


 247      FB7DAF1B 
 247      5110859D 
 248 0080 A220C4E1 		.ascii	"\242 \304\341Z2I\020\256e\011\202_\020\204_C\221\240"
 248      5A324910 
 248      AE650982 
 248      5F10845F 
 248      4391A0
 249 0093 6C84B209 		.ascii	"l\204\262\011J\013\024\002\245\023J\000\312f\370\361"
 249      4A0B1402 
 249      A5134A00 
 249      CA66F8F1 
 250 00a3 029457A0 		.ascii	"\002\224W\240\034\200\362\026\224\303P\332\011\353w"
 250      1C80F216 
 250      94C350DA 
 250      09EB77
 251 00b2 9456DC45 		.ascii	"\224V\334E\373\217\322q\206A\311\205\362\274N\203\342"
 251      FB8FD271 
 251      8641C985 
 251      F2BC4E83 
 251      E2
 252 00c3 BDA0D3E9 		.ascii	"\275\240\323\351\200~]\204\321=\004\3458\264_\204r\002"
 252      807E5D84 
 252      D13D04E5 
 252      38B45F84 
 252      7202
 253 00d5 4A37942C 		.ascii	"J7\224,\3405\000\245\025\332Ax\336\254\363\264\003\312"
 253      E03500A5 
 253      15DA4178 
 253      DEACF3B4 
 253      03CA
 254 00e7 6E283128 		.ascii	"n(1({\240\\\204\347\035\002\353Ci\007E\306c\016\374"
 254      7BA05C84 
 254      E71D02EB 
 254      43690745 
 254      C6630EFC 
 255 00fb 1D0E6524 		.ascii	"\035\016e$\224[D\3063\345\3416ho'\251|S\031\003:\257"
 255      945B44C6 
 255      33E5E136 
 255      686F27A9 
 255      7C531903 
 256 0111 56FE5A74 		.ascii	"V\376Zt\376\375\034\017G\250\354\002\243M\364\361v\372"
 256      FEFD1C0F 
 256      47A8EC02 
 256      A34DF4F1 
 256      76FA
 257 0123 A07A1BA9 		.ascii	"\240z\033\251\343\032\3720\360(\275I\272N\250\016x\331"
 257      E31AFA30 
 257      F028BD49 
 257      BA4EA80E 
 257      78D9
 258 0135 AD3C18BA 		.ascii	"\255<\030\272\310\201v\233.?\225\335\340\247C\347\251"
 258      C881769B 
 258      2E3F95DD 
 258      E0A743E7 
 258      A9
 259 0146 59D7CF1E 		.ascii	"Y\327\317\036\235\277\240\316\003\257\217<\221\331\317"
 259      9DBFA0CE 
ARM GAS  /tmp/cc2bmhpq.s 			page 20


 259      03AF8F3C 
 259      91D9CF
 260 0155 D00BB882 		.ascii	"\320\013\270\202\260\027\376\266@y\035\312>(w\212\251"
 260      B017FEB6 
 260      40791DCA 
 260      3E28778A 
 260      A9
 261 0166 B250FB0F 		.ascii	"\262P\373\017\345\354\311\333\230\347\327\220\207\362"
 261      E5ECC9DB 
 261      98E7D790 
 261      87F2
 262 0174 7D37E06C 		.ascii	"}7\340l\321i\360\366k\346l(\352\330\233u\033\035\"\314"
 262      D169F0F6 
 262      6BE66C28 
 262      EAD89B75 
 262      1B1D22CC 
 263 0188 4E56FA39 		.ascii	"NV\3729\302S\232V\2435\325i\017\267\015\033),\323\340"
 263      C2539A56 
 263      A335D569 
 263      0FB70D1B 
 263      292CD3E0 
 264 019c CA6B030E 		.ascii	"\312k\003\016f\020\231\014\313\026\036\303Fn62\3643"
 264      6610990C 
 264      CB161EC3 
 264      466E3632 
 264      F433
 265 01ae 61B3A6D5 		.ascii	"a\263\246\325\017\034\376<\346\327\264\240L6\221\221"
 265      0F1CFE3C 
 265      E6D7B4A0 
 265      4C369191 
 266 01be 40E89F88 		.ascii	"@\350\237\210\360sa\007\214\253\327\264Mc\204\324+\023"
 266      F0736107 
 266      8CABD7B4 
 266      4D6384D4 
 266      2B13
 267 01d0 AC284C21 		.ascii	"\254(L!\202L\266\002\232L\266\220\2373:\332\300\365"
 267      824CB602 
 267      9A4CB690 
 267      9F333ADA 
 267      C0F5
 268 01e2 D69E0564 		.ascii	"\326\236\005d\236\246\021\366L\320\237\332\\w\010M "
 268      9EA611F6 
 268      4CD09FDA 
 268      5C77084D 
 268      20
 269 01f3 45ECCCAA 		.ascii	"E\354\314\252\015\177\2475\275I2\011\325D\014\362?N"
 269      0D7FA735 
 269      BD493209 
 269      D5440CF2 
 269      3F4E
 270 0205 4AB5E54A 		.ascii	"J\265\345J\233\017\245z\001\245\372\037b\"\227\021E"
 270      9B0FA57A 
 270      01A5FA1F 
 270      62229711 
 270      45
 271 0216 1496103A 		.ascii	"\024\226\020:\344\345T)Z\015)^v%\305\006]\012\231<\017"
 271      E4E55429 
ARM GAS  /tmp/cc2bmhpq.s 			page 21


 271      5A0D295E 
 271      7625C506 
 271      5D0A993C 
 272 022b 9288C286 		.ascii	"\222\210\302\206\004\256N8\317\240\353\023\004\243\311"
 272      04AE4E38 
 272      CFA0EB13 
 272      04A3C9
 273 023a 2EBD8319 		.ascii	".\275\203\031\257\261'\267^6\3006y\006\3133\2015\367"
 273      AFB127B7 
 273      5E36C036 
 273      7906CB33 
 273      8135F7
 274 024d AC1FAD35 		.ascii	"\254\037\2555\035\"\331\302B\252b\255N\273k{R%#\014"
 274      1D22D9C2 
 274      42AA62AD 
 274      4EBB6B7B 
 274      5225230C 
 275 0261 0491D3EB 		.ascii	"\004\221\323\353\272[4\237LZ\010\275\273\215\230\325"
 275      BA5B349F 
 275      4C5A08BD 
 275      BB8D98D5 
 276 0271 EA1EA67B 		.ascii	"\352\036\246{\361\336\177A\363\354C\240c\203\006\272"
 276      F1DE7F41 
 276      F3EC43A0 
 276      638306BA 
 277 0281 DCF9D2FD 		.ascii	"\334\371\322\375\010\264\037\201\352D3\220L\244\204"
 277      08B41F81 
 277      EA443390 
 277      4CA484
 278 0290 0213BF8D 		.ascii	"\002\023\277\215\016\024\015\037\353\215x\\\022~\300"
 278      0E140D1F 
 278      EB8D785C 
 278      127EC0
 279 029f CEA2B04C 		.ascii	"\316\242\260L\264\230\313$\221\336\014:\332~\340Zk\207"
 279      B498CB24 
 279      91DE0C3A 
 279      DA7EE05A 
 279      6B87
 280 02b1 7F8D169B 		.ascii	"\177\215\026\233/\231\246\304\255\302J\352\314\360C"
 280      2F99A6C4 
 280      ADC24AEA 
 280      CCF043
 281 02c0 23AA4C7E 		.ascii	"#\252L~}\213\2553P\016\337$\267bKBzpcR\016T\277K\012"
 281      7D8BAD33 
 281      500EDF24 
 281      B7624B42 
 281      7A706352 
 282 02d9 62375057 		.ascii	"b7PW\364\202\317b\"*\372\020z\336j\213\242M\0341JN\\"
 282      F482CF62 
 282      222AFA10 
 282      7ADE6A8B 
 282      A24D1C31 
 283 02f0 B4921C87 		.ascii	"\264\222\034\207Y\223\362L\024\232\254*\263\363\360"
 283      5993F24C 
 283      149AAC2A 
 283      B3F3F0
 284 02ff A099795E 		.ascii	"\240\231y^e\327[\377\262\205\254\250\325\332\306\241"
ARM GAS  /tmp/cc2bmhpq.s 			page 22


 284      65D75BFF 
 284      B285ACA8 
 284      D5DAC6A1 
 285 030f B4A2B0C5 		.ascii	"\264\242\260\305\015\340\010\033\033\330]\374\002!\223"
 285      0DE0081B 
 285      1BD85DFC 
 285      022193
 286 031e 9DE46750 		.ascii	"\235\344gP7\223;\240\336\215\365\036\254cX\267A\235"
 286      37933BA0 
 286      DE8DF51E 
 286      AC6358B7 
 286      419D
 287 0330 56D1148E 		.ascii	"V\321\024\216N\353\004\366.\"\352\013\351\340\226\212"
 287      4EEB04F6 
 287      2E22EA0B 
 287      E9E0968A 
 288 0340 4BC9A542 		.ascii	"K\311\245B&\257z\0063)2vU_*\330\334\227\311\033V<o\276"
 288      26AF7A06 
 288      33293276 
 288      555F2AD8 
 288      DC97C91B 
 289 0358 1C7B7675 		.ascii	"\034{vun\327c\306B\262C$\036\301F\2443\312V\316(\333"
 289      6ED763C6 
 289      42B24324 
 289      1EC146A4 
 289      33CA56CE 
 290 036e D1283BD0 		.ascii	"\321(;\320\004G\260>\212u\207\033slL\232\003\331\326"
 290      0447B03E 
 290      8A75871B 
 290      736C4C9A 
 290      03D9D6
 291 0381 620DBFA7 		.ascii	"b\015\277\247*e\241r\027pm\023I\264\200\001S)P\027\336"
 291      2A65A172 
 291      17706D13 
 291      49B48001 
 291      53295017 
 292 0396 87C27559 		.ascii	"\207\302uY\"I\354\253\265\271t%\355r\021E\264\330\262"
 292      2249ECAB 
 292      B5B97425 
 292      ED721145 
 292      B4D8B2
 293 03a9 BEF58446 		.ascii	"\276\365\204F\021\033r\003\211\300u\273\220\230\255"
 293      111B7203 
 293      89C075BB 
 293      9098AD
 294 03b8 1FFEF592 		.ascii	"\037\376\365\222\204\263\365\035\344\364-1c\3743\303"
 294      84B3F51D 
 294      E4F42D31 
 294      63FC33C3 
 295 03c8 8842170E 		.ascii	"\210B\027\016\351M\211\177u\237\030\361\257\327\025"
 295      E94D897F 
 295      759F18F1 
 295      AFD715
 296 03d7 E77B7B1D 		.ascii	"\347{{\0359\237\314[\326Xf.\352q\273\017\031\357\267"
 296      399FCC5B 
 296      D658662E 
 296      EA71BB0F 
ARM GAS  /tmp/cc2bmhpq.s 			page 23


 296      19EFB7
 297 03ea 67BC69B2 		.ascii	"g\274i\262\023\214(|\212C\372S\003\367\261\032\235\361"
 297      138C287C 
 297      8A43FA53 
 297      03F7B11A 
 297      9DF1
 298 03fc 7E5781FB 		.ascii	"~W\201\373\370S.\323\017\237A\177JR\214\017\306\210"
 298      F8532ED3 
 298      0F9F417F 
 298      4A528C0F 
 298      C688
 299 040e 32398722 		.ascii	"29\207\"\3043\353\336\014!\012\013%:\344|\252\356\317"
 299      C433EBDE 
 299      0C210A0B 
 299      253AE47C 
 299      AAEECF
 300 0421 18229C77 		.ascii	"\030\"\234w\245\373\353G\230\356\015m.O\340\332\251"
 300      A5FBEB47 
 300      98EE0D6D 
 300      2E4FE0DA 
 300      A9
 301 0432 2EF382F2 		.ascii	".\363\202\362\345\021XP\364\330\314\364\2216d\\^\373"
 301      E5115850 
 301      F4D8CCF4 
 301      9136645C 
 301      5EFB
 302 0444 F671528B 		.ascii	"\366qR\213\374~\214\323\374\270d\033\346]@u/>|\210\324"
 302      FC7E8CD3 
 302      FCB8641B 
 302      E65D4075 
 302      2F3E7C88 
 303 0459 20D46708 		.ascii	" \324g\010uj\320P\227;\337^\246su\005\241\316J\326\234"
 303      756AD050 
 303      973BDF5E 
 303      A6737505 
 303      A1CE4AD6 
 304 046e 2160C919 		.ascii	"!`\311\031\002\346\310\036\310N6\350nq\270\360\003w"
 304      02E6C81E 
 304      C84E36E8 
 304      6E71B8F0 
 304      0377
 305 0480 17854FAC 		.ascii	"\027\205O\254\226\313\030\006M\236\000\231C\277\210"
 305      96CB1806 
 305      4D9E0099 
 305      43BF88
 306 048f 99833181 		.ascii	"\231\2031\201\262\234\264$\012W\220\326u\253\367\305"
 306      B29CB424 
 306      0A5790D6 
 306      75ABF7C5 
 307 049f DFEB30BC 		.ascii	"\337\3530\274\357\272\253\011\264\347\310jw\023H4\350"
 307      EFBAAB09 
 307      B4E7C86A 
 307      77134834 
 307      E8
 308 04b0 DF89F477 		.ascii	"\337\211\364w\370(\375\033V\372}\347\336\235\330\240"
 308      F828FD1B 
 308      56FA7DE7 
ARM GAS  /tmp/cc2bmhpq.s 			page 24


 308      DE9DD8A0 
 309 04c0 6923D8A3 		.ascii	"i#\330\243\314\344\327t>\233J\3361=\322\235#\376\336"
 309      CCE4D774 
 309      3E9B4ADE 
 309      313DD29D 
 309      23FEDE
 310 04d3 F9CBBA90 		.ascii	"\371\313\272\220\232H\323\205s>\253sL\312\341\211\351"
 310      9A48D385 
 310      733EAB73 
 310      4CCAE189 
 310      E9
 311 04e4 391497B1 		.ascii	"9\024\227\261|\234`\177PQ\033\344\374h\342\216]\232"
 311      7C9C607F 
 311      50511BE4 
 311      FC68E28E 
 311      5D9A
 312 04f6 B628CBE0 		.ascii	"\266(\313\340\3413\317\210y&M\254\357\304<\200\201]"
 312      E133CF88 
 312      79264DAC 
 312      EFC43C80 
 312      815D
 313 0508 71039626 		.ascii	"q\003\226&n7\362`\327<\203\2319\333\311\203}\355\006"
 313      6E37F260 
 313      D73C8399 
 313      39DBC983 
 313      7DED06
 314 051b CC2E33D3 		.ascii	"\314.3\323\301v\361`\337z\0063s\366*\017\246\371]\200"
 314      C176F160 
 314      DF7A0633 
 314      73F62A0F 
 314      A6F95D80 
 315 052f 8D76E6AC 		.ascii	"\215v\346\254\205\007\253\365\014f\346\3545\036\254"
 315      8507ABF5 
 315      0C66E6EC 
 315      351EAC
 316 053e CE0D589E 		.ascii	"\316\015X\236\015g\211\313)\365\371&\231\372\210\302"
 316      0D6789CB 
 316      29F5F926 
 316      99FA88C2 
 317 054e 22BFB124 		.ascii	"\"\277\261$x\364i!\211\261\304\357u\0113\311\015\001"
 317      78F46921 
 317      89B1C4EF 
 317      750933C9 
 317      0D01
 318 0560 FCBD4D46 		.ascii	"\374\275MF&\177\026\367 \365n\020\3238L\375Q\324$\003"
 318      267F16F7 
 318      20F56E10 
 318      D3384CFD 
 318      51D42403 
 319 0574 5BE519CC 		.ascii	"[\345\031\314l\226F\012fZk\364\2204\260%6\272!\271\332"
 319      6C96460A 
 319      665A6BF4 
 319      9034B025 
 319      36BA21B9 
 320 0589 050D2C7A 		.ascii	"\005\015,zt\303\226\266zM\023\023\235\265\321\243\355"
 320      74C396B6 
 320      7A4D1313 
ARM GAS  /tmp/cc2bmhpq.s 			page 25


 320      9DB5D1A3 
 320      ED
 321 059a FBCA6483 		.ascii	"\373\312d\203HS\331F1;\301\005k\033\2558\241z^\357\267"
 321      4853D946 
 321      313BC105 
 321      6B1BAD38 
 321      A17A5EEF 
 322 05af 1C0A1957 		.ascii	"\034\012\031W\246\241N\236\260N\344<a\243\0335\245\231"
 322      A6A14E9E 
 322      B04EE43C 
 322      61A31B35 
 322      A599
 323 05c1 0A5D4E6A 		.ascii	"\012]Nj\212\325i\013\311\274\346\333\323f\207\361\367"
 323      8AD5690B 
 323      C9BCE6DB 
 323      D36687F1 
 323      F7
 324 05d2 3EDDA8A7 		.ascii	">\335\250\247\001\177\024i\354\336\352\267M\003\\\201"
 324      017F1469 
 324      ECDEEAB7 
 324      4D035C81 
 325 05e2 752F3E66 		.ascii	"u/>f\344\024[\021\254\371&\300.w\2361\262\212\035\010"
 325      E4145B11 
 325      ACF926C0 
 325      2E779E31 
 325      B28A1D08 
 326 05f6 F627BF35 		.ascii	"\366'\2775pd[\262\212ls\334\317\316N6\342\306e6\345"
 326      70645BB2 
 326      8A6C73DC 
 326      CFCE4E36 
 326      E2C66536 
 327 060b 0F3AC6C9 		.ascii	"\017:\306\311\374\233x\363\037\366l~\323,\201<\344\232"
 327      FC9B78F3 
 327      1FF66C7E 
 327      D32C813C 
 327      E49A
 328 061d B85A8BCD 		.ascii	"\270Z\213\315\2238\177O;9@\263\247\017\376\033\356\010"
 328      93387F4F 
 328      3B3940B3 
 328      A70FFE1B 
 328      EE08
 329 062f 5E46BD76 		.ascii	"^F\275v\330\033\311\005P\367\342\227\376\031\201\232"
 329      D81BC905 
 329      50F7E297 
 329      FE19819A 
 330 063f 11E8E4A0 		.ascii	"\021\350\344\240\201.w6ND\240W\021\350L\212\245\211"
 330      812E7736 
 330      4E44A057 
 330      11E84C8A 
 330      A589
 331 0651 C5D2C46C 		.ascii	"\305\322\304l\001\222\235l\244X\353{\354+\012\377g5"
 331      01929D6C 
 331      A458EB7B 
 331      EC2B0AFF 
 331      6735
 332 0663 97499C34 		.ascii	"\227I\2344\341!\261\346\336XN>\257\321\032\306y\320"
 332      E121B1E6 
ARM GAS  /tmp/cc2bmhpq.s 			page 26


 332      DE584E3E 
 332      AFD11AC6 
 332      79D0
 333 0675 CE5ADD5E 		.ascii	"\316Z\335^\373P;\237\244h\247Y\364\246\036Q\270\352"
 333      FB503B9F 
 333      A468A759 
 333      F4A61E51 
 333      B8EA
 334 0687 598CA059 		.ascii	"Y\214\240Y\214\272\370 \304x\203\211q\020\305\370\346"
 334      8CBAF820 
 334      C4788389 
 334      7110C5F8 
 334      E6
 335 0698 7B10A336 		.ascii	"{\020\2436\313\253\030#81p\013\373,\213\200\243\204"
 335      CBAB1823 
 335      3831700B 
 335      FB2C8B80 
 335      A384
 336 06aa E5E9B378 		.ascii	"\345\351\263x\312\317[\342(\363\211\303\311N\222\307"
 336      CACF5BE2 
 336      28F389C3 
 336      C94E92C7 
 337 06ba 6E67DE3A 		.ascii	"ng\336:~\336\271\036\263gT\230\346j_u:\261\333kE\225"
 337      7EDEB91E 
 337      B3675498 
 337      E66A5F75 
 337      3AB1DB6B 
 338 06d0 2DCCB299 		.ascii	"-\314\262\231`n\240\232\272\217\342!s;\302<3X\030\230"
 338      606EA09A 
 338      BA8FE221 
 338      733BC23C 
 338      33581898 
 339 06e4 A76FB079 		.ascii	"\247o\260y\332\201@\253\262\254&\314\262X0\313lA\370"
 339      DA8140AB 
 339      B2AC26CC 
 339      B25830CB 
 339      6C41F8
 340 06f7 49297D89 		.ascii	"I)}\211\013\344\023\372\035\372# \374\315\307\211B\023"
 340      0BE413FA 
 340      1DFA2320 
 340      FCCDC789 
 340      4213
 341 0709 B24FADE7 		.ascii	"\262O\255\3471\0073\274\247\356\203\025F\376\304\014"
 341      310733BC 
 341      A7EE8315 
 341      46FEC40C 
 342 0719 B4EDA610 		.ascii	"\264\355\246\020kb\317-5^m\340\311\352\316\233\204\333"
 342      6B62CF2D 
 342      355E6DE0 
 342      C9EACE9B 
 342      84DB
 343 072b 7FCC9A1A 		.ascii	"\177\314\232\032X\266n\347\034\302\216qttn\200\235P"
 343      58B66EE7 
 343      1CC28E71 
 343      74746E80 
 343      9D50
 344 073d F7606ABC 		.ascii	"\367`j\2747\305\334g\211e\353v\326|\332\3544\221N\362"
ARM GAS  /tmp/cc2bmhpq.s 			page 27


 344      37C5DC67 
 344      8965EB76 
 344      D67CDAEC 
 344      34914EF2 
 345 0751 11F0C8CD 		.ascii	"\021\360\310\315\232\241\365\252\305\014]7\251\267\257"
 345      9AA1F5AA 
 345      C50C5D37 
 345      A9B7AF
 346 0760 96BA3BA8 		.ascii	"\226\272;\250z\314\300bo\351\336E\262\375\242e\233\275"
 346      7ACCC062 
 346      6FE9DE45 
 346      B2FDA265 
 346      9BBD
 347 0772 EEFA409D 		.ascii	"\356\372@\235\236\025\321g\231W\212\276\017\263\265"
 347      9E15D167 
 347      99578ABE 
 347      0FB3B5
 348 0781 E5B9EC88 		.ascii	"\345\271\354\210I&\027\361X\230\216\264K\2262\252'\326"
 348      492617F1 
 348      58988EB4 
 348      4B9632AA 
 348      27D6
 349 0793 AFB48DF3 		.ascii	"\257\264\215\363\262\346\264\032k\3169\324\345\202\200"
 349      B2E6B41A 
 349      6BCE39D4 
 349      E58280
 350 07a2 D5E8EDD6 		.ascii	"\325\350\355\326e\332\323\244[\034 fq\334\356\226\023"
 350      65DAD3A4 
 350      5B1C2066 
 350      71DCEE96 
 350      13
 351 07b3 9793539D 		.ascii	"\227\223S\235\341\235ji\340\246\\\200\276\225\334\314"
 351      E19D6A69 
 351      E0A65C80 
 351      BE95DCCC 
 352 07c3 9C2A9313 		.ascii	"\234*\223\023h\211c\336\021Hy\025R"
 352      688963DE 
 352      11487915 
 352      52
 353 07d0 BE68F582 		.ascii	"\276h\365\202\370\327mO\352\347 \027]y\301U\033/\270"
 353      F8D76D4F 
 353      EAE72017 
 353      5D79C155 
 353      1B2FB8
 354 07e3 38482F00 		.ascii	"8H/\000\227\276\320N\020\216\355\315\336H0\351\321\012"
 354      97BED04E 
 354      108EEDCD 
 354      DE4830E9 
 354      D10A
 355 07f5 3ADC0DC5 		.ascii	":\334\015\305\253b\230\177\305N}H#\346\025\221\036\236"
 355      AB62987F 
 355      C54E7D48 
 355      23E61591 
 355      1E9E
 356 0807 1E4E712D 		.ascii	"\036Nq-\246\031\316\265\222j\224\311\307\270Y\373D\244"
 356      A619CEB5 
 356      926A94C9 
ARM GAS  /tmp/cc2bmhpq.s 			page 28


 356      C7B859FB 
 356      44A4
 357 0819 EF1A3EC5 		.ascii	"\357\032>\305\372\222\350\342\215\303e1\345\005\220"
 357      FA92E8E2 
 357      8DC36531 
 357      E50590
 358 0828 17B9F35C 		.ascii	"\027\271\363\\z\337\005\336\373\376r\223\336w\255\265"
 358      7ADF05DE 
 358      FBFE7293 
 358      DE77ADB5 
 359 0838 D387878B 		.ascii	"\323\207\207\213\036\016aO\0376&\356u\234\270\357\244"
 359      1E0E614F 
 359      1F3626EE 
 359      759CB8EF 
 359      A4
 360 0849 68F7336B 		.ascii	"h\3673k\026\355\346\234t`\260\242$.H\232\003.\3668y"
 360      16EDE69C 
 360      7460B0A2 
 360      242E489A 
 360      032EF638 
 361 085e 365A4F04 		.ascii	"6ZO\004\332\036=M\313x\330j\274T?\037c/=\276EO\273`"
 361      DA1E3D4D 
 361      CB78D86A 
 361      BC543F1F 
 361      632F3DBE 
 362 0876 D1858B33 		.ascii	"\321\205\2133\333/q\210&\245\2741H\234\331\322g\231"
 362      DB2F7188 
 362      26A5BC31 
 362      489CD9D2 
 362      6799
 363 0888 0F4D773F 		.ascii	"\017Mw?e\204t\026\033\231\007\322\261\203\325\247\311"
 363      65847416 
 363      1B9907D2 
 363      B183D5A7 
 363      C9
 364 0899 84490665 		.ascii	"\204I\006eR#\321\011R+q\223\002r\306\240\013\335\337"
 364      5223D109 
 364      522B7193 
 364      0272C6A0 
 364      0BDDDF
 365 08ac E5E48AB0 		.ascii	"\345\344\212\260\014\2350\277\361\250\267\342\331-D"
 365      0C9D30BF 
 365      F1A8B7E2 
 365      D92D44
 366 08bb 263CDE96 		.ascii	"&<\336\2265\261\372n<\"b>\272\306\015s\343\234\301\236"
 366      35B1FA6E 
 366      3C22623E 
 366      BAC60D73 
 366      E39CC19E 
 367 08cf 5B6128F7 		.ascii	"[a(\367\002f(\233\334\340Mt\022\266&\266\267{\275\216"
 367      0266289B 
 367      DCE04D74 
 367      12B626B6 
 367      B77BBD8E 
 368 08e3 C75EAF3C 		.ascii	"\307^\257<\357\031\317\314\337\311\025\246|n\267\033"
 368      EF19CFCC 
 368      DFC915A6 
ARM GAS  /tmp/cc2bmhpq.s 			page 29


 368      7C6EB71B 
 369 08f3 B8C9AE6D 		.ascii	"\270\311\256m\237|\235%\223\217\360\245\354\005|\021"
 369      9F7C9D25 
 369      938FF0A5 
 369      EC057C11 
 370 0903 FB57ACAF 		.ascii	"\373W\254\257a\275\012\027\312\006\254\327b\275\021"
 370      61BD0A17 
 370      CA06ACD7 
 370      62BD11
 371 0912 EB97B07E 		.ascii	"\353\227\260~\015\353\003X\277\211\365\015\254\027H"
 371      0DEB0358 
 371      BF89F50D 
 371      AC1748
 372 0921 B47E12EB 		.ascii	"\264~\022\353EX/\306\372i\311\305\202k\311\001\015\227"
 372      45582FC6 
 372      FA69C9C5 
 372      826BC901 
 372      0D97
 373 0933 EF1FF45B 		.ascii	"\357\037\364[\367\023G\022\247\212\306[w/`y\351t\330"
 373      F7134712 
 373      A78AC65B 
 373      772F6079 
 373      E974D8
 374 0946 CFE97000 		.ascii	"\317\351p\000u\370>\352m)/\251\021~{\007\375\236o_/"
 374      75F83EEA 
 374      6D292FA9 
 374      117E7B07 
 374      FD9E6F5F 
 375 095b EF5832B9 		.ascii	"\357X2\271j\305\363\024\177\265\330\376^6\213\220\373"
 375      6AC5F314 
 375      7FB5D8FE 
 375      5E368B90 
 375      FB
 376 096c 95A25730 		.ascii	"\225\242W0\263\227v\2576/Q\253\335\340\2459\005~\247"
 376      B39776AF 
 376      362F51AB 
 376      DDE0A539 
 376      057EA7
 377 097f 97B3D71A 		.ascii	"\227\263\327\032\317`f\346N\367rG\312\373\202$3\230"
 377      CF6066E6 
 377      4EF77247 
 377      CAFB8224 
 377      3398
 378 0991 DD59A9BD 		.ascii	"\335Y\251\275\361{9\343\237B\343\237F\343\327\243\263"
 378      F17B39E3 
 378      9F42E39F 
 378      46E3D7A3 
 378      B3
 379 09a2 2FC37A39 		.ascii	"/\303z9\326+\260~\326\274\264\036\012\032\237!\350\304"
 379      D62BB07E 
 379      D6BCB41E 
 379      0A1A9F21 
 379      E8C4
 380 09b4 CC6FFCD3 		.ascii	"\314o\374\323x\205L:\201\220n\313\346>\346\033nc\333"
 380      78854C3A 
 380      81906ECB 
 380      E63EE61B 
ARM GAS  /tmp/cc2bmhpq.s 			page 30


 380      6E63DB
 381 09c7 87D7622C 		.ascii	"\207\327b,\2665HtA\376s\320sl\353\301!\353Rc\333w\306"
 381      B6354874 
 381      41FE73D0 
 381      736CEBC1 
 381      21EB5263 
 382 09de 9708EB32 		.ascii	"\227\010\3532\307\266\371\265\2615k\267&\367I\265\211"
 382      C7B6F9B5 
 382      B1356BB7 
 382      26F749B5 
 382      89
 383 09ef 5DE57A58 		.ascii	"]\345zX\333\235\026\007\323\321\367\371\004\037\337"
 383      DB9D1607 
 383      D3D1F7F9 
 383      041FDF
 384 09fe 4B2C5CC7 		.ascii	"K,\\\307\305\302\015\030\013\033\315\006\273d5\230\307"
 384      C5C20D18 
 384      0B1BCD06 
 384      BB643598 
 384      C7
 385 0a0f 58B8AFCF 		.ascii	"X\270\257\317\210\205\354C\204/\254x\346\317\016\322"
 385      8885EC43 
 385      842FAC78 
 385      E6CF0ED2 
 386 0a1f 04C3C4A5 		.ascii	"\004\303\304\245\3376\355$\355\374X\0377Fh\324b\227"
 386      DF36ED24 
 386      EDFC581F 
 386      374668D4 
 386      6297
 387 0a31 06E2DBDA 		.ascii	"\006\342\333\332\307\256\252\255i\323.\321,\315\375"
 387      C7AEAAAD 
 387      69D32ED1 
 387      2CCDFD
 388 0a40 E76A5B24 		.ascii	"\347j[$\313\347j\354K&\356{5QX\233m\366\247;\205?j\332"
 388      CBE76AEC 
 388      4B26EE7B 
 388      3551589B 
 388      6DF6A73B 
 389 0a58 726D8DF2 		.ascii	"rm\215\362\260\361\215\344\313\330c\2634\306\226N\342"
 389      B0F18DE4 
 389      CBD863B3 
 389      34C6964E 
 389      E2
 390 0a69 93AB7F14 		.ascii	"\223\253\177\024\266\32071Ok\013F\020\344J\320G\231"
 390      B6D03731 
 390      4F6B0B46 
 390      10E44AD0 
 390      4799
 391 0a7b 8CB64D12 		.ascii	"\214\266M\022\371\033T\300\246\201\330\327\012\223\315"
 391      F91B54C0 
 391      A681D8D7 
 391      0A93CD
 392 0a8a BD682FEA 		.ascii	"\275h/\352\242%\245\021\205]\026Qt\236\340\332\256I"
 392      A225A511 
 392      855D1651 
 392      749EE0DA 
 392      AE49
ARM GAS  /tmp/cc2bmhpq.s 			page 31


 393 0a9c 09965EB0 		.ascii	"\011\226^\260\262\364R*K\003\227b\337\265\346\326\317"
 393      B2F4522A 
 393      4B039762 
 393      DFB5E6D6 
 393      CF
 394 0aad 1B88C7C7 		.ascii	"\033\210\307\307\270\347i\247\235\272\023?ZX:\236\370"
 394      B8E769A7 
 394      9DBA133F 
 394      5A583A9E 
 394      F8
 395 0abe 7D88A98D 		.ascii	"}\210\251\215\377\224\320$\017\212\364\272\275uV\032"
 395      FF94D024 
 395      0F8AF4BA 
 395      BD75561A 
 396 0ace D691C90E 		.ascii	"\326\221\311\016\211.\270\257\244\267\216>\254[\276"
 396      892EB8AF 
 396      A4B78E3E 
 396      AC5BBE
 397 0add CBF860AC 		.ascii	"\313\370`\254\025\201\271a\246\017\306tn\331\260\330"
 397      1581B961 
 397      A60FC674 
 397      6ED9B0D8 
 398 0aed B22769C0 		.ascii	"\262'i\300\020\215/\027;\254C-\024\017q\024\233)\243"
 398      108D2F17 
 398      3BAC432D 
 398      140F7114 
 398      9B29A3
 399 0b00 F882BF9D 		.ascii	"\370\202\277\235\244\347sR\322\211\264X\274\256\266"
 399      A4E77352 
 399      D289B458 
 399      BCAEB6
 400 0b0f 89685909 		.ascii	"\211hY\011\233\275b\265\331\036[\233\2358\312l\366\334"
 400      9BBD62B5 
 400      D91E5B9B 
 400      9D38CA6C 
 400      F6DC
 401 0b21 64F7463B 		.ascii	"d\367F;\350b\216tg\230#\206\025\016\270\232#\232e\216"
 401      E8628E74 
 401      67982386 
 401      150EB89A 
 401      239A658E 
 402 0b35 1CB00A17 		.ascii	"\034\260\012\027\263\021\256~`\331+\207~\322\260K\233"
 402      B311AE7E 
 402      60D92B87 
 402      7ED2B04B 
 402      9B
 403 0b46 BF48FB2E 		.ascii	"\277H\373.\376\004a3@\024j\206X}\236a\274m\207\021\273"
 403      FE046133 
 403      40146A86 
 403      587D9E61 
 403      BC6D8711 
 404 0b5b D2BA4423 		.ascii	"\322\272D#^\335\272\325\252!\366\375\242IC\3178\260"
 404      5EDDBAD5 
 404      AA21F6FD 
 404      A24943CF 
 404      38B0
 405 0b6d D166CB46 		.ascii	"\321f\313F\177\222\015\006\017[\003\007\200#f\200\177"
ARM GAS  /tmp/cc2bmhpq.s 			page 32


 405      7F920D06 
 405      0F5B0307 
 405      80236680 
 405      7F
 406 0b7e 1036525D 		.ascii	"\0206R]\\\257;\371g\262\\kj\243\276\022'c2~Dh\234p~"
 406      5CAF3BF9 
 406      67B25C6B 
 406      6AA3BE12 
 406      2763327E 
 407 0b97 DDC5BEEA 		.ascii	"\335\305\276\352\353\300X\272\325B\324\370\230\220\243"
 407      EBC058BA 
 407      D542D4F8 
 407      9890A3
 408 0ba6 DFC5E50C 		.ascii	"\337\305\345\014'0g\350\306\234\241\023\353\325\230"
 408      273067E8 
 408      C69CA113 
 408      EBD598
 409 0bb5 276C3287 		.ascii	"'l2\207\235]\011T[V(\352\261\244T\226#\332\016\207\350"
 409      9D5D0954 
 409      5B5628EA 
 409      B1A45496 
 409      23DA0E87 
 410 0bca 88BC4839 		.ascii	"\210\274H9\016\243\250/8\215:\236\034\205\307\013\265"
 410      0EA3A82F 
 410      388D3A9E 
 410      1C85C70B 
 410      B5
 411 0bdb 698F1764 		.ascii	"i\217\027dr\011\245\314|V`\247\363,\003\352\261\244"
 411      7209A5CC 
 411      7C5660A7 
 411      F32C03EA 
 411      B1A4
 412 0bed CEFB765F 		.ascii	"\316\373v_.g\007\025\335\250\364\217\206\330&0\3168"
 412      2E670715 
 412      DDA8F48F 
 412      86D82630 
 412      CE38
 413 0bff 94A91E4B 		.ascii	"\224\251\036K\362\022[\321\207\037\177\366\270J\\V\366"
 413      F2125BD1 
 413      871F7FF6 
 413      B84A5C56 
 413      F6
 414 0c10 19E9F809 		.ascii	"\031\351\370\011\211.p_ \013=\336\023\021\035oU\037"
 414      892E705F 
 414      200B3DDE 
 414      13111D6F 
 414      551F
 415 0c22 26A90CEC 		.ascii	"&\251\014\354K\317`y&\260\006\036\354\206\0330\247\215"
 415      4BCF6079 
 415      26B0061E 
 415      EC861B30 
 415      A78D
 416 0c34 0280ADE5 		.ascii	"\002\200\255\345\301\346\345x\0053s\266\236\007\253"
 416      C1E6E578 
 416      053373B6 
 416      9E07AB
 417 0c43 7303E6B4 		.ascii	"s\003\346\264K\000\260F\036l\221g03g;y\260\247\335\200"
ARM GAS  /tmp/cc2bmhpq.s 			page 33


 417      4B00B046 
 417      1E6C9167 
 417      3033673B 
 417      79B0A7DD 
 418 0c58 397D5101 		.ascii	"9}Q\001`\273x\260\025\236\301\314\234\275\312\203\255"
 418      60BB78B0 
 418      159EC1CC 
 418      9CBDCA83 
 418      AD
 419 0c69 710396E7 		.ascii	"q\003\226\347\314Y\013\017\326\350\031\314\314\331k"
 419      CC590B0F 
 419      D6E819CC 
 419      CCD96B
 420 0c78 3CD82637 		.ascii	"<\330&7`N\2511\200\375\211\007\333\352\031\314\314\331"
 420      604EA931 
 420      80FD8907 
 420      DBEA19CC 
 420      CCD9
 421 0c8a 7E1EEC79 		.ascii	"~\036\354y7`\343\2348\233\027;\370\373z\371GB\275\276"
 421      3760E39C 
 421      389B173B 
 421      F8FB7AF9 
 421      4742BDBE 
 422 0c9e A4305463 		.ascii	"\2440TcY!f\327\342\273\321\303R\207n2\371B\372\021\266"
 422      592166D7 
 422      E2BBD1C3 
 422      52876E32 
 422      F942FA11 
 423 0cb3 4CEF55B0 		.ascii	"L\357U\260\207\323\242{UJ~(\224\233\235l\360\377\345"
 423      87D3A27B 
 423      554A7E28 
 423      949B9D6C 
 423      F0FFE5
 424 0cc6 25D98B26 		.ascii	"%\331\213&\331V\261\315\\\330\311mVb\027\257\304]n\224"
 424      D956B1CD 
 424      5CD8C96D 
 424      566217AF 
 424      C45D6E94 
 425 0cda 38D919EC 		.ascii	"8\331\031\354\004\017\266\327\015\330\303\316\276\362"
 425      040FB6D7 
 425      0DD8C3CE 
 425      BEF2
 426 0ce8 0E0FF6BA 		.ascii	"\016\017\366\272g03g=<X\314\015\330\243\316\234\275"
 426      67303367 
 426      3D3C58CC 
 426      0DD8A3CE 
 426      9CBD
 427 0cfa CB83BDE5 		.ascii	"\313\203\275\345\031\214\347l^\354t\322\361\350\327"
 427      198CE76C 
 427      5EEC74D2 
 427      F1E8D7
 428 0d09 F526CF33 		.ascii	"\365&\3173\035\037%\034\217u\343<\317\322M&\265>\257"
 428      1D1F251C 
 428      8F75E33C 
 428      CFD24D26 
 428      B53EAF
 429 0d1c 8E37DF67 		.ascii	"\2167\337g\357x\374\227/\311^ v\273Ul\273\243\256\031"
ARM GAS  /tmp/cc2bmhpq.s 			page 34


 429      EF78FC97 
 429      2FC95E20 
 429      76BB556C 
 429      BBA3AE19 
 430 0d30 363AB4BB 		.ascii	"6:\264\273\370@-\223^\334\224\277\2139\322i\254\377"
 430      F8402D93 
 430      5EDC94BF 
 430      8B39D269 
 430      ACFF
 431 0d42 17EB7EAC 		.ascii	"\027\353~\254\007\260>\213\365\007X\237\307\372#\254"
 431      07B03E8B 
 431      F507589F 
 431      C7FA23AC 
 432 0d52 2F62FD31 		.ascii	"/b\3751\326\237b}\011\353+X_\307\372+\254\277\301\372"
 432      D69F627D 
 432      09EB2B58 
 432      5FC7FA2B 
 432      ACBFC1FA 
 433 0d66 5BACE358 		.ascii	"[\254\343X\317\363q\371\230%S\352N\223_\325\371\234"
 433      CFF371F9 
 433      982553EA 
 433      4E935FD5 
 433      F99C
 434 0d78 F2ABD634 		.ascii	"\362\253\3264\371\325\223\311Q\372v\375\300\301\366"
 434      F9D593C9 
 434      51FA76FD 
 434      C0C1F6
 435 0d87 DB5EA41F 		.ascii	"\333^\244\037 \323L}\336|b\344\352\337\345\270\331\237"
 435      20D34C7D 
 435      DE7C62E4 
 435      EADFE5B8 
 435      D99F
 436 0d99 2EF459B6 		.ascii	".\364Y\266\003\213|)94\0209u\366\375\177\335\307\021"
 436      038B7C29 
 436      39341039 
 436      75F6FD7F 
 436      DDC711
 437 0dac B1E4F32D 		.ascii	"\261\344\363-\304\331G\226\370R\367\316\273smy\253\321"
 437      C4D94796 
 437      F852F7CE 
 437      BB736D79 
 437      ABD1
 438 0dbe 766ED7FC 		.ascii	"vn\327\374\306\346U&\213}\366\033F\035\357i[V\367\037"
 438      C6E65526 
 438      8B7DF61B 
 438      461DEF69 
 438      5B56F71F 
 439 0dd2 6CFF297D 		.ascii	"l\377)}\275\245\305\343O\334\301\310\303\006\324\035"
 439      BDA5C5E3 
 439      4FDCC1C8 
 439      C306D41D 
 440 0de2 C1A5E909 		.ascii	"\301\245\351\011\326\333\022\374\342\374\251\273S\010"
 440      D6DB12FC 
 440      E2FCA9BB 
 440      5308
 441 0df0 3E33D415 		.ascii	">3\324\025\301\345\351\011\256\260%x\340\340\205\237"
 441      C1E5E909 
ARM GAS  /tmp/cc2bmhpq.s 			page 35


 441      AEB02578 
 441      E0E0859F 
 442 0e00 982DCE76 		.ascii	"\230-\316v5\033-4\365\215cor\037\336\202=V:\020M\234"
 442      351B2D34 
 442      F58D636F 
 442      721FDE82 
 442      3D563A10 
 443 0e16 1AE88E72 		.ascii	"\032\350\216rJ{tt\302QVZ\035e\225/e\257\324\3255\020"
 443      4A7B7474 
 443      C251565A 
 443      1D65952F 
 443      65AFD4D5 
 444 0e2c DFF6FED8 		.ascii	"\337\366\376\330\025ZM\2036\037\267JF\320k0\237\334"
 444      155A4D83 
 444      361FB74A 
 444      46D06B30 
 444      9FDC
 445 0e3e 151B6487 		.ascii	"\025\033d\207\342X\276W\243c/@\360\274@mpX\240rM\242"
 445      E258BE57 
 445      A3632F40 
 445      F0BC406D 
 445      7058A072 
 446 0e54 6C482E50 		.ascii	"lH.P\257\243\206\270\255\265\205\011Qx{(\321\207A\366"
 446      AFA386B8 
 446      ADB58509 
 446      51787B28 
 446      D18741F6 
 447 0e68 9C34C957 		.ascii	"\2344\311W\243\355Lr\302\336$}\206Id\322\340\243{\371"
 447      A3ED4C72 
 447      C2DE247D 
 447      864964D2 
 447      E0A37BF9 
 448 0e7c A6C198A4 		.ascii	"\246\301\230\244\311j\222\215\016&\271p{f\223\3140\310"
 448      C96A928D 
 448      0E26B970 
 448      7B6693CC 
 448      30C8
 449 0e8e E6A43389 		.ascii	"\346\2443\211\245\227L\266z6\3116\007\223\0141\211b"
 449      A5974CB6 
 449      7A36C936 
 449      07930C31 
 449      8962
 450 0ea0 F48266A3 		.ascii	"\364\202f\243\317r\226caB\024.\230LbYM\267\244YMw$W"
 450      CF729663 
 450      6142142E 
 450      984C6259 
 450      4DB7A459 
 451 0eb8 53E1CEB1 		.ascii	"S\341\316\261c\363\331\277\212h~D\315/)\017\227V\025"
 451      63F3D9BF 
 451      8A687E44 
 451      CD2F290F 
 451      975615
 452 0ecb 29F9E1E2 		.ascii	")\371\341\342\350\334\250:\267R\211\216-\026n\251.\211"
 452      E8DCA83A 
 452      B752898E 
 452      2D166EA9 
 452      2E89
ARM GAS  /tmp/cc2bmhpq.s 			page 36


 453 0edd A8557269 		.ascii	"\250UriH-)S\"\321PiIT\015\251Y\017\375\366wy\005\302"
 453      482D2953 
 453      22D15069 
 453      49540DA9 
 453      590FFDF6 
 454 0ef5 ADE1E290 		.ascii	"\255\341\342\220\315\363<g\340pq\021\200\0167\015\012"
 454      CDF33C67 
 454      E0707111 
 454      800E370D 
 454      0A
 455 0f06 A923AC38 		.ascii	"\251#\2548\276re\216\352\253\214(\325\331\224\027\270"
 455      BE72658E 
 455      EAAB8C28 
 455      D5D99417 
 455      B8
 456 0f17 15527F9A 		.ascii	"\025R\177\232_\025\215$\260\312\225\331\245%3\363\243"
 456      5F158D24 
 456      B0CA95D9 
 456      A52533F3 
 456      A3
 457 0f28 6A5149B9 		.ascii	"jQI\271\012\220\301*\370;\376\276\220\372\013\273ne"
 457      0A90C12A 
 457      F83BFEBE 
 457      90FA0BBB 
 457      6E65
 458 0f3a 72B8B8A4 		.ascii	"r\270\270\244\\\311\017\025)\217\313U\245 \201.\336"
 458      5CC90F15 
 458      298FCB55 
 458      A520812E 
 458      DE
 459 0f4b 9050C818 		.ascii	"\220P\310\030\350/RJU9X\255>^U\036\016\251>\372G\252"
 459      E82F524A 
 459      553958AD 
 459      3E5E551E 
 459      0EA93EFA 
 460 0f61 9423C152 		.ascii	"\224#\301R9\252R\026\262\252U*]60K\231R\312r#\212\\"
 460      39AA5216 
 460      B2AA552A 
 460      5D36304B 
 460      9952CA72 
 461 0f78 345757C9 		.ascii	"4WW\311P\270\235\374=\\-\246?\242\241\377\256R\252\024"
 461      50B89DFC 
 461      3D5C2DA6 
 461      3FA2A1FF 
 461      AE52AA14 
 462 0f8c 26A1E956 		.ascii	"&\241\351V\220\375\012!\034k\373\361\301D^y\341\212"
 462      90FD0A21 
 462      1C6BFBF1 
 462      C1445E79 
 462      E18A
 463 0f9e B2B2     		.ascii	"\262\262"
 464 0fa0 8AF2FCCA 		.ascii	"\212\362\374\312\212\210\032\315\177\240pj\301\3249"
 464      8A881ACD 
 464      7FA0706A 
 464      C1D439
 465 0faf F45E6549 		.ascii	"\364^eI)\350:\377\241\202\002\320\251!J@\255\214\224"
 465      29E83AFF 
ARM GAS  /tmp/cc2bmhpq.s 			page 37


 465      A18202D0 
 465      A9214A40 
 465      AD8C94
 466 0fc2 548454D4 		.ascii	"T\204T\324\304=\023B\252.\033m\372\350\243\\\012\023"
 466      C43D1342 
 466      AA2E1B6D 
 466      FAE8A35C 
 466      0A13
 467 0fd4 0A5794AB 		.ascii	"\012W\224\253\240\334\2733\222)\016WD\024\300\315\301"
 467      A0DCBB33 
 467      92290E57 
 467      4414C0CD 
 467      C1
 468 0fe5 61001456 		.ascii	"a\000\024V\347\374\302\335\250P\365}e\324&\021e\226"
 468      E7FCC2DD 
 468      A850F57D 
 468      65D42611 
 468      6596
 469 0ff7 1C290BA9 		.ascii	"\034)\013\251bd\242\030\271"
 469      6264A218 
 469      B9
 470 1000 5F8A8C1F 		.ascii	"_\212\214\037\007e\274\030\371\245\030\271W\214\334"
 470      0765BC18 
 470      F9A518B9 
 470      578CDC
 471 100f 27467E25 		.ascii	"'F~%\226F\304h\245\004\320~0\225\022\361W\224\026\201"
 471      9646C468 
 471      A504D07E 
 471      309512F1 
 471      57941681 
 472 1023 F9C3C532 		.ascii	"\371\303\3052\370\200\\\246\014\211\252\177\220KKf\225"
 472      F8805CA6 
 472      0C89AA7F 
 472      904B4B66 
 472      95
 473 1034 EB72DDF7 		.ascii	"\353r\335\367\313\204\\\264\2315[\236)GA\231QUVA\315"
 473      CB845CB4 
 473      99355B9E 
 473      29474199 
 473      51555641 
 474 1049 01FA6022 		.ascii	"\001\372`\"(\225u\201\226\037\237\004\324\262\212\""
 474      28957581 
 474      961F9F04 
 474      D4B28A22 
 475 1059 78EE7FBC 		.ascii	"x\356\177\274T\236\025\015\250\021\345\361(h\205\376"
 475      549E150D 
 475      A811E5F1 
 475      286885FE 
 476 1069 F1974567 		.ascii	"\361\227Eg\301@]Q0PoeE\212\346\302\243\2402\247D\015"
 476      C1405D51 
 476      30506F65 
 476      458AE6C2 
 476      A3A032A7 
 477 107f C3E0ACD9 		.ascii	"\303\340\254\331j\305\314\377\252\034\251\333\015\206"
 477      6AC5CCFF 
 477      AA1CA9DB 
 477      0D86
ARM GAS  /tmp/cc2bmhpq.s 			page 38


 478 108d 2A11A53C 		.ascii	"*\021\245<LAg\253j\2442\020U\312U\030\220K\335C)\223"
 478      4C4167AB 
 478      6AA43210 
 478      55CA5518 
 478      904BDD43 
 479 10a3 2B8B4111 		.ascii	"+\213A\021c\234g\202B5\344\017\227\203\353HP\003<\334"
 479      639C6782 
 479      4235E40F 
 479      9783EB48 
 479      50033CDC 
 480 10b7 AA0CC2E8 		.ascii	"\252\014\302\350\262*0\220\363\3102u\016\035Y1\273\\"
 480      B22A3090 
 480      F3C83275 
 480      0E1D5931 
 480      BB5C
 481 10c9 8904B02F 		.ascii	"\211\004\260/\325\203\012\267+s\224j\312\204\034\375"
 481      D5830AB7 
 481      2B73946A 
 481      CA841CFD 
 482 10d9 03DC5266 		.ascii	"\003\334Rf\323\006\251\032f\370\035\363\323\341\234"
 482      D306A91A 
 482      66F81DF3 
 482      D3E19C
 483 10e8 27D23B81 		.ascii	"'\322;\201\331r\211ZR>+\010\2743\317T*\225r\230U\263"
 483      D972895A 
 483      523E2B08 
 483      BC33CF54 
 483      2A957298 
 484 10fe 0200497B 		.ascii	"\002\000I{\200\031\345R\352@\376\262\312\212\212\322"
 484      8019E552 
 484      EA40FEB2 
 484      CA8A8AD2 
 485 110e 40B82A02 		.ascii	"@\270*\002\222\253\376\010}8\214M\005\230X3\253f1t\376"
 485      92ABFE08 
 485      7D388C4D 
 485      05985833 
 485      AB663174 
 486 1123 4E76A55C 		.ascii	"Nv\245\\^\022\016\001\266T4s\326\2202\031\264\213\304"
 486      5E120E01 
 486      B6543473 
 486      D6903219 
 486      B48BC4
 487 1136 6FB3C817 		.ascii	"o\263\310\027\215\204A\266julX\030\025.\376\317\351"
 487      8D8441B6 
 487      6A756C58 
 487      18152EFE 
 487      CFE9
 488 1148 532A0A95 		.ascii	"S*\012\225\250\242>2\026f\240:v\234T\255V\006C\325\324"
 488      A8A23E32 
 488      1666A03A 
 488      769C54AD 
 488      560643D5 
 489 115d 0F4BD421 		.ascii	"\017K\324!\254\3034xL'\255<7\213M\332\\~\340\035<\201"
 489      ACC33478 
 489      4C27AD3C 
 489      378B4DDA 
 489      5C7EE01D 
ARM GAS  /tmp/cc2bmhpq.s 			page 39


 490 1173 62B934A1 		.ascii	"b\2714\241Ah\207\242t\311\310\211\252\323\324\212\312"
 490      416887A2 
 490      74C9C889 
 490      AAD3D48A 
 490      CA
 491 1184 074AC147 		.ascii	"\007J\301G\301\317\000\016\233\271\3646\020\305\037"
 491      C1CF000E 
 491      9BB9F436 
 491      10C51F
 492 1193 39497954 		.ascii	"9IyT1\\<\301\012\312\234\177\332\364\251\367L\310\377"
 492      315C3CC1 
 492      0ACA9C7F 
 492      DAF4A9F7 
 492      4CC8FF
 493 11a6 CD6FA6E4 		.ascii	"\315o\246\344O\177dj\365xX\225\312\250\013\225\2241"
 493      4F7F646A 
 493      F5785895 
 493      CAA80B95 
 493      9431
 494 11b8 2AFA0F30 		.ascii	"*\372\0170tA\341x(\023|\323\246\026\024\372\246<\362"
 494      7441E178 
 494      28137CD3 
 494      A61614FA 
 494      A63CF2
 495 11cb 60A138AD 		.ascii	"`\2418\255Pz\360\241B\177A\301\324\302\361XO\360\025"
 495      507AF0A1 
 495      427F41C1 
 495      D4C2F158 
 495      4FF015
 496 11de 143C5828 		.ascii	"\024<X(\025\374v\272\364\350\264\002\351\201\302B\251"
 496      15FC76BA 
 496      F4E8B402 
 496      E981C242 
 496      A9
 497 11ef B0007EC3 		.ascii	"\260\000~\303\200\177\2372\275P\232BGN}\240P\374\017"
 497      807F9F32 
 497      BD509A42 
 497      474E7DA0 
 497      50FC0F
 498 1202 36EA1EE8 		.ascii	"6\352\036\350?\2430\337\345\304\304\325\225.\3538\251"
 498      3FA330DF 
 498      E5C4C4D5 
 498      952EEB38 
 498      A9
 499 1213 D9F21B05 		.ascii	"\331\362\033\005%\204d*\355\337;:]5U\330H\252\337\207"
 499      2584642A 
 499      EDDF3B3A 
 499      5D3555D8 
 499      48AADF87 
 500 1227 14751A2A 		.ascii	"\024u\032*d:\014\2361\212\303\231\245\260\326=\356\224"
 500      643A0C9E 
 500      318AC399 
 500      A5B0D63D 
 500      EE94
 501 1239 C4EC102A 		.ascii	"\304\354\020*-\245\021a$k!F\270\242\012\226\250\310"
 501      2DA51161 
 501      246B2146 
ARM GAS  /tmp/cc2bmhpq.s 			page 40


 501      B8A20A96 
 501      A8C8
 502 124b 8F7916E1 		.ascii	"\217y\026\3416r\350\243\277\203\241\020\256\321\241"
 502      3672E8A3 
 502      BF83A110 
 502      AED1A1
 503 125a A14663EC 		.ascii	"\241Fc\354\275\367\376\352\376[M2\201\005\331\020S\247"
 503      BDF7FEEA 
 503      FE5B4D32 
 503      8105D910 
 503      53A7
 504 126c F1FF0F91 		.ascii	"\361\377\017\221\015N\252"
 504      0D4EAA
 505              		.text
 506              		.section	.gnu.lto_.symtab.7f50a2e5811ddc2f,"",%progbits
 507 0000 5F76745F 		.ascii	"_vt_init\000\000\000\000\000\000\000\000\000\000\000"
 507      696E6974 
 507      00000000 
 507      00000000 
 507      000000
 508 0013 00AB0100 		.ascii	"\000\253\001\000\000chVTDoSetI\000\000\000\000\000\000"
 508      00636856 
 508      54446F53 
 508      65744900 
 508      00000000 
 509 0028 00000000 		.ascii	"\000\000\000\000\000\000\257\001\000\000chVTDoReset"
 509      0000AF01 
 509      00006368 
 509      5654446F 
 509      52657365 
 510 003d 49000000 		.ascii	"I\000\000\000\000\000\000\000\000\000\000\000\000\275"
 510      00000000 
 510      00000000 
 510      00BD
 511 004b 01000063 		.ascii	"\001\000\000ch\000\000\002\000\000\000\000\000\000\000"
 511      68000002 
 511      00000000 
 511      000000
 512 005a 0000CB01 		.ascii	"\000\000\313\001\000\000stStopAlarm\000\000\002\000"
 512      00007374 
 512      53746F70 
 512      416C6172 
 512      6D000002 
 513 006f 00000000 		.ascii	"\000\000\000\000\000\000\000\000\303\001\000\000stS"
 513      00000000 
 513      C3010000 
 513      737453
 514 007e 6574416C 		.ascii	"etAlarm\000\000\002\000\000\000\000\000\000\000\000"
 514      61726D00 
 514      00020000 
 514      00000000 
 514      0000
 515 0090 00C50100 		.ascii	"\000\305\001\000\000stStartAlarm\000\000\002\000\000"
 515      00737453 
 515      74617274 
 515      416C6172 
 515      6D000002 
ARM GAS  /tmp/cc2bmhpq.s 			page 41


 516 00a6 00000000 		.ascii	"\000\000\000\000\000\000\000\311\001\000\000"
 516      000000C9 
 516      010000
 517              		.text
 518              		.section	.gnu.lto_.opts,"",%progbits
 519 0000 272D6D63 		.ascii	"'-mcpu=cortex-m0' '-mno-thumb-interwork' '-mthumb' "
 519      70753D63 
 519      6F727465 
 519      782D6D30 
 519      2720272D 
 520 0033 272D6767 		.ascii	"'-ggdb' '-O2' '-fomit-frame-pointer' '-falign-funct"
 520      64622720 
 520      272D4F32 
 520      2720272D 
 520      666F6D69 
 521 0066 696F6E73 		.ascii	"ions=16' '-ffunction-sections' '-fdata-sections' '-"
 521      3D313627 
 521      20272D66 
 521      66756E63 
 521      74696F6E 
 522 0099 666E6F2D 		.ascii	"fno-common' '-flto'\000"
 522      636F6D6D 
 522      6F6E2720 
 522      272D666C 
 522      746F2700 
 523              		.text
 524              		.cfi_sections	.debug_frame
 525              		.section	.text._vt_init,"ax",%progbits
 526              		.align	2
 527              		.p2align 4,,15
 528              		.global	_vt_init
 529              		.code	16
 530              		.thumb_func
 531              		.type	_vt_init, %function
 532              	_vt_init:
 533              	.LFB149:
 534              		.file 1 "../../../os/rt/src/chvt.c"
 535              		.loc 1 61 0
 536              		.cfi_startproc
 537              		.loc 1 63 0
 538 0000 054B     		ldr	r3, .L2
 539              		.loc 1 71 0
 540              		@ sp needed
 541              		.loc 1 63 0
 542 0002 1A1C     		mov	r2, r3
 543 0004 1C32     		add	r2, r2, #28
 544 0006 DA61     		str	r2, [r3, #28]
 545              		.loc 1 64 0
 546 0008 1A62     		str	r2, [r3, #32]
 547              		.loc 1 65 0
 548 000a 0122     		mov	r2, #1
 549 000c 5242     		neg	r2, r2
 550 000e 9A84     		strh	r2, [r3, #36]
 551              		.loc 1 69 0
 552 0010 0022     		mov	r2, #0
 553 0012 DA84     		strh	r2, [r3, #38]
 554              		.loc 1 71 0
ARM GAS  /tmp/cc2bmhpq.s 			page 42


 555 0014 7047     		bx	lr
 556              	.L3:
 557 0016 C046     		.align	2
 558              	.L2:
 559 0018 00000000 		.word	ch
 560              		.cfi_endproc
 561              	.LFE149:
 562              		.size	_vt_init, .-_vt_init
 563 001c C046C046 		.section	.text.chVTDoSetI,"ax",%progbits
 564              		.align	2
 565              		.p2align 4,,15
 566              		.global	chVTDoSetI
 567              		.code	16
 568              		.thumb_func
 569              		.type	chVTDoSetI, %function
 570              	chVTDoSetI:
 571              	.LFB150:
 572              		.loc 1 96 0
 573              		.cfi_startproc
 574              	.LVL0:
 575 0000 70B5     		push	{r4, r5, r6, lr}
 576              		.cfi_def_cfa_offset 16
 577              		.cfi_offset 4, -16
 578              		.cfi_offset 5, -12
 579              		.cfi_offset 6, -8
 580              		.cfi_offset 14, -4
 581              		.loc 1 103 0
 582 0002 0361     		str	r3, [r0, #16]
 583              	.LBB35:
 584              	.LBB36:
 585              	.LBB37:
 586              	.LBB38:
 587              	.LBB39:
 588              		.file 2 "../../../os/hal/ports/STM32/LLD/TIMv1/hal_st_lld.h"
 589              		.loc 2 141 0
 590 0004 1D4B     		ldr	r3, .L16
 591              	.LVL1:
 592              	.LBE39:
 593              	.LBE38:
 594              	.LBE37:
 595              	.LBE36:
 596              	.LBE35:
 597              		.loc 1 96 0
 598 0006 051C     		mov	r5, r0
 599              		.loc 1 104 0
 600 0008 C260     		str	r2, [r0, #12]
 601              	.LBB50:
 602              	.LBB43:
 603              	.LBB42:
 604              	.LBB41:
 605              	.LBB40:
 606              		.loc 2 141 0
 607 000a 586A     		ldr	r0, [r3, #36]
 608              	.LVL2:
 609 000c 80B2     		uxth	r0, r0
 610              	.LBE40:
 611              	.LBE41:
ARM GAS  /tmp/cc2bmhpq.s 			page 43


 612              	.LBE42:
 613              	.LBE43:
 614              		.loc 1 112 0
 615 000e 0129     		cmp	r1, #1
 616 0010 27D9     		bls	.L13
 617              	.LVL3:
 618              	.L5:
 619              		.loc 1 117 0
 620 0012 1B4E     		ldr	r6, .L16+4
 621 0014 321C     		mov	r2, r6
 622              	.LVL4:
 623 0016 F369     		ldr	r3, [r6, #28]
 624 0018 1C32     		add	r2, r2, #28
 625 001a 9342     		cmp	r3, r2
 626 001c 23D0     		beq	.L14
 627              		.loc 1 136 0
 628 001e 0818     		add	r0, r1, r0
 629 0020 F48C     		ldrh	r4, [r6, #38]
 630 0022 80B2     		uxth	r0, r0
 631 0024 041B     		sub	r4, r0, r4
 632              		.loc 1 137 0
 633 0026 1B89     		ldrh	r3, [r3, #8]
 634              		.loc 1 136 0
 635 0028 A4B2     		uxth	r4, r4
 636              	.LVL5:
 637              		.loc 1 137 0
 638 002a A342     		cmp	r3, r4
 639 002c 16D8     		bhi	.L15
 640              	.LVL6:
 641              	.L8:
 642              	.LBE50:
 643              		.loc 1 150 0
 644 002e F369     		ldr	r3, [r6, #28]
 645              	.LVL7:
 646              		.loc 1 151 0
 647 0030 1A89     		ldrh	r2, [r3, #8]
 648 0032 9442     		cmp	r4, r2
 649 0034 05D9     		bls	.L9
 650              	.LVL8:
 651              	.L10:
 652              		.loc 1 153 0
 653 0036 1B68     		ldr	r3, [r3]
 654              	.LVL9:
 655              		.loc 1 152 0
 656 0038 A41A     		sub	r4, r4, r2
 657              	.LVL10:
 658              		.loc 1 151 0
 659 003a 1A89     		ldrh	r2, [r3, #8]
 660              		.loc 1 152 0
 661 003c A4B2     		uxth	r4, r4
 662              	.LVL11:
 663              		.loc 1 151 0
 664 003e A242     		cmp	r2, r4
 665 0040 F9D3     		bcc	.L10
 666              	.LVL12:
 667              	.L9:
 668              		.loc 1 158 0
ARM GAS  /tmp/cc2bmhpq.s 			page 44


 669 0042 5A68     		ldr	r2, [r3, #4]
 670              		.loc 1 157 0
 671 0044 2B60     		str	r3, [r5]
 672              		.loc 1 158 0
 673 0046 6A60     		str	r2, [r5, #4]
 674              		.loc 1 159 0
 675 0048 1560     		str	r5, [r2]
 676              		.loc 1 160 0
 677 004a 5D60     		str	r5, [r3, #4]
 678              		.loc 1 161 0
 679 004c 2C81     		strh	r4, [r5, #8]
 680              		.loc 1 165 0
 681 004e 1A89     		ldrh	r2, [r3, #8]
 682 0050 141B     		sub	r4, r2, r4
 683 0052 1C81     		strh	r4, [r3, #8]
 684              		.loc 1 166 0
 685 0054 0123     		mov	r3, #1
 686              	.LVL13:
 687 0056 5B42     		neg	r3, r3
 688 0058 B384     		strh	r3, [r6, #36]
 689              	.L4:
 690              		.loc 1 167 0
 691              		@ sp needed
 692              	.LVL14:
 693 005a 70BD     		pop	{r4, r5, r6, pc}
 694              	.LVL15:
 695              	.L15:
 696              	.LBB51:
 697              	.LBB44:
 698              	.LBB45:
 699              		.file 3 "../../../os/common/ports/ARMCMx/chcore_timer.h"
 700              		.loc 3 95 0
 701 005c FFF7FEFF 		bl	stSetAlarm
 702              	.LVL16:
 703 0060 E5E7     		b	.L8
 704              	.LVL17:
 705              	.L13:
 706              	.LBE45:
 707              	.LBE44:
 708              		.loc 1 113 0
 709 0062 0221     		mov	r1, #2
 710              	.LVL18:
 711 0064 D5E7     		b	.L5
 712              	.LVL19:
 713              	.L14:
 714              		.loc 1 121 0
 715 0066 F084     		strh	r0, [r6, #38]
 716              		.loc 1 129 0
 717 0068 0818     		add	r0, r1, r0
 718              		.loc 1 122 0
 719 006a F561     		str	r5, [r6, #28]
 720              		.loc 1 123 0
 721 006c 3562     		str	r5, [r6, #32]
 722              	.LBB46:
 723              	.LBB47:
 724              		.loc 3 73 0
 725 006e 80B2     		uxth	r0, r0
ARM GAS  /tmp/cc2bmhpq.s 			page 45


 726              	.LBE47:
 727              	.LBE46:
 728              		.loc 1 124 0
 729 0070 2B60     		str	r3, [r5]
 730              		.loc 1 125 0
 731 0072 6B60     		str	r3, [r5, #4]
 732              		.loc 1 126 0
 733 0074 2981     		strh	r1, [r5, #8]
 734              	.LBB49:
 735              	.LBB48:
 736              		.loc 3 73 0
 737 0076 FFF7FEFF 		bl	stStartAlarm
 738              	.LVL20:
 739 007a EEE7     		b	.L4
 740              	.L17:
 741              		.align	2
 742              	.L16:
 743 007c 00040040 		.word	1073742848
 744 0080 00000000 		.word	ch
 745              	.LBE48:
 746              	.LBE49:
 747              	.LBE51:
 748              		.cfi_endproc
 749              	.LFE150:
 750              		.size	chVTDoSetI, .-chVTDoSetI
 751 0084 C046C046 		.section	.text.chVTDoResetI,"ax",%progbits
 751      C046C046 
 751      C046C046 
 752              		.align	2
 753              		.p2align 4,,15
 754              		.global	chVTDoResetI
 755              		.code	16
 756              		.thumb_func
 757              		.type	chVTDoResetI, %function
 758              	chVTDoResetI:
 759              	.LFB151:
 760              		.loc 1 177 0
 761              		.cfi_startproc
 762              	.LVL21:
 763              		.loc 1 201 0
 764 0000 1B4A     		ldr	r2, .L28
 765              		.loc 1 177 0
 766 0002 10B5     		push	{r4, lr}
 767              		.cfi_def_cfa_offset 8
 768              		.cfi_offset 4, -8
 769              		.cfi_offset 14, -4
 770              		.loc 1 201 0
 771 0004 D369     		ldr	r3, [r2, #28]
 772 0006 8342     		cmp	r3, r0
 773 0008 0ED0     		beq	.L19
 774              		.loc 1 203 0
 775 000a 4168     		ldr	r1, [r0, #4]
 776 000c 0368     		ldr	r3, [r0]
 777              		.loc 1 208 0
 778 000e 1C32     		add	r2, r2, #28
 779              		.loc 1 203 0
 780 0010 0B60     		str	r3, [r1]
ARM GAS  /tmp/cc2bmhpq.s 			page 46


 781              		.loc 1 204 0
 782 0012 0368     		ldr	r3, [r0]
 783 0014 5960     		str	r1, [r3, #4]
 784              		.loc 1 205 0
 785 0016 0021     		mov	r1, #0
 786 0018 C160     		str	r1, [r0, #12]
 787              		.loc 1 208 0
 788 001a 9342     		cmp	r3, r2
 789 001c 03D0     		beq	.L18
 790              		.loc 1 209 0
 791 001e 0189     		ldrh	r1, [r0, #8]
 792 0020 1A89     		ldrh	r2, [r3, #8]
 793 0022 8A18     		add	r2, r1, r2
 794 0024 1A81     		strh	r2, [r3, #8]
 795              	.LVL22:
 796              	.L18:
 797              		.loc 1 255 0
 798              		@ sp needed
 799 0026 10BD     		pop	{r4, pc}
 800              	.LVL23:
 801              	.L19:
 802              	.LBB62:
 803              	.LBB63:
 804              		.loc 1 215 0
 805 0028 1968     		ldr	r1, [r3]
 806              		.loc 1 216 0
 807 002a 101C     		mov	r0, r2
 808              	.LVL24:
 809 002c 1C30     		add	r0, r0, #28
 810              		.loc 1 217 0
 811 002e 0024     		mov	r4, #0
 812              		.loc 1 215 0
 813 0030 D161     		str	r1, [r2, #28]
 814              		.loc 1 216 0
 815 0032 4860     		str	r0, [r1, #4]
 816              		.loc 1 217 0
 817 0034 DC60     		str	r4, [r3, #12]
 818              		.loc 1 220 0
 819 0036 8142     		cmp	r1, r0
 820 0038 17D0     		beq	.L26
 821              		.loc 1 227 0
 822 003a 1889     		ldrh	r0, [r3, #8]
 823 003c 0B89     		ldrh	r3, [r1, #8]
 824              	.LVL25:
 825 003e C318     		add	r3, r0, r3
 826 0040 9BB2     		uxth	r3, r3
 827 0042 0B81     		strh	r3, [r1, #8]
 828              	.LBB64:
 829              	.LBB65:
 830              	.LBB66:
 831              	.LBB67:
 832              		.loc 2 141 0
 833 0044 0B49     		ldr	r1, .L28+4
 834              	.LBE67:
 835              	.LBE66:
 836              	.LBE65:
 837              	.LBE64:
ARM GAS  /tmp/cc2bmhpq.s 			page 47


 838              		.loc 1 236 0
 839 0046 D28C     		ldrh	r2, [r2, #38]
 840              	.LBB71:
 841              	.LBB70:
 842              	.LBB69:
 843              	.LBB68:
 844              		.loc 2 141 0
 845 0048 496A     		ldr	r1, [r1, #36]
 846 004a 89B2     		uxth	r1, r1
 847              	.LBE68:
 848              	.LBE69:
 849              	.LBE70:
 850              	.LBE71:
 851              		.loc 1 236 0
 852 004c 8A1A     		sub	r2, r1, r2
 853 004e 92B2     		uxth	r2, r2
 854              	.LVL26:
 855              		.loc 1 240 0
 856 0050 9342     		cmp	r3, r2
 857 0052 E8D9     		bls	.L18
 858              		.loc 1 245 0
 859 0054 9B1A     		sub	r3, r3, r2
 860 0056 9BB2     		uxth	r3, r3
 861              	.LVL27:
 862              		.loc 1 249 0
 863 0058 012B     		cmp	r3, #1
 864 005a 04D9     		bls	.L27
 865              	.LVL28:
 866              	.L24:
 867              		.loc 1 253 0
 868 005c 5B18     		add	r3, r3, r1
 869              	.LVL29:
 870              	.LBB72:
 871              	.LBB73:
 872              		.loc 3 95 0
 873 005e 98B2     		uxth	r0, r3
 874 0060 FFF7FEFF 		bl	stSetAlarm
 875              	.LVL30:
 876 0064 DFE7     		b	.L18
 877              	.LVL31:
 878              	.L27:
 879              	.LBE73:
 880              	.LBE72:
 881              		.loc 1 250 0
 882 0066 0223     		mov	r3, #2
 883              	.LVL32:
 884 0068 F8E7     		b	.L24
 885              	.LVL33:
 886              	.L26:
 887              	.LBB74:
 888              	.LBB75:
 889              		.loc 3 83 0
 890 006a FFF7FEFF 		bl	stStopAlarm
 891              	.LVL34:
 892 006e DAE7     		b	.L18
 893              	.L29:
 894              		.align	2
ARM GAS  /tmp/cc2bmhpq.s 			page 48


 895              	.L28:
 896 0070 00000000 		.word	ch
 897 0074 00040040 		.word	1073742848
 898              	.LBE75:
 899              	.LBE74:
 900              	.LBE63:
 901              	.LBE62:
 902              		.cfi_endproc
 903              	.LFE151:
 904              		.size	chVTDoResetI, .-chVTDoResetI
 905 0078 C046C046 		.text
 905      C046C046 
 906              	.Letext0:
 907              		.file 4 "/usr/include/newlib/machine/_default_types.h"
 908              		.file 5 "/usr/include/newlib/stdint.h"
 909              		.file 6 "../../../os/common/ports/ARMCMx/compilers/GCC/chtypes.h"
 910              		.file 7 "../../../os/rt/include/chsystypes.h"
 911              		.file 8 "../../../os/rt/include/chschd.h"
 912              		.file 9 "../../../os/common/ports/ARMCMx/chcore.h"
 913              		.file 10 "../../../os/common/ports/ARMCMx/chcore_v6m.h"
 914              		.file 11 "../../../os/hal/ports/STM32/LLD/TIMv1/stm32_tim.h"
 915              		.file 12 "../../../os/rt/include/chsem.h"
 916              		.file 13 "../../../os/rt/include/chmtx.h"
 917              		.file 14 "../../../os/rt/include/chvt.h"
 918              		.file 15 "../../../os/hal/include/hal_st.h"
 919              		.section	.debug_info,"",%progbits
 920              	.Ldebug_info0:
 921 0000 E5090000 		.4byte	0x9e5
 922 0004 0400     		.2byte	0x4
 923 0006 00000000 		.4byte	.Ldebug_abbrev0
 924 000a 04       		.byte	0x4
 925 000b 01       		.uleb128 0x1
 926 000c 1A010000 		.4byte	.LASF111
 927 0010 01       		.byte	0x1
 928 0011 30030000 		.4byte	.LASF112
 929 0015 5C050000 		.4byte	.LASF113
 930 0019 68000000 		.4byte	.Ldebug_ranges0+0x68
 931 001d 00000000 		.4byte	0
 932 0021 00000000 		.4byte	.Ldebug_line0
 933 0025 02       		.uleb128 0x2
 934 0026 04       		.byte	0x4
 935 0027 05       		.byte	0x5
 936 0028 696E7400 		.ascii	"int\000"
 937 002c 03       		.uleb128 0x3
 938 002d 04       		.byte	0x4
 939 002e 07       		.byte	0x7
 940 002f 60000000 		.4byte	.LASF0
 941 0033 03       		.uleb128 0x3
 942 0034 01       		.byte	0x1
 943 0035 06       		.byte	0x6
 944 0036 1E050000 		.4byte	.LASF1
 945 003a 04       		.uleb128 0x4
 946 003b 4C040000 		.4byte	.LASF4
 947 003f 04       		.byte	0x4
 948 0040 1D       		.byte	0x1d
 949 0041 45000000 		.4byte	0x45
 950 0045 03       		.uleb128 0x3
ARM GAS  /tmp/cc2bmhpq.s 			page 49


 951 0046 01       		.byte	0x1
 952 0047 08       		.byte	0x8
 953 0048 C8040000 		.4byte	.LASF2
 954 004c 03       		.uleb128 0x3
 955 004d 02       		.byte	0x2
 956 004e 05       		.byte	0x5
 957 004f F9030000 		.4byte	.LASF3
 958 0053 04       		.uleb128 0x4
 959 0054 59020000 		.4byte	.LASF5
 960 0058 04       		.byte	0x4
 961 0059 2B       		.byte	0x2b
 962 005a 5E000000 		.4byte	0x5e
 963 005e 03       		.uleb128 0x3
 964 005f 02       		.byte	0x2
 965 0060 07       		.byte	0x7
 966 0061 30050000 		.4byte	.LASF6
 967 0065 04       		.uleb128 0x4
 968 0066 94000000 		.4byte	.LASF7
 969 006a 04       		.byte	0x4
 970 006b 3F       		.byte	0x3f
 971 006c 70000000 		.4byte	0x70
 972 0070 03       		.uleb128 0x3
 973 0071 04       		.byte	0x4
 974 0072 05       		.byte	0x5
 975 0073 03040000 		.4byte	.LASF8
 976 0077 04       		.uleb128 0x4
 977 0078 D6040000 		.4byte	.LASF9
 978 007c 04       		.byte	0x4
 979 007d 41       		.byte	0x41
 980 007e 82000000 		.4byte	0x82
 981 0082 03       		.uleb128 0x3
 982 0083 04       		.byte	0x4
 983 0084 07       		.byte	0x7
 984 0085 82040000 		.4byte	.LASF10
 985 0089 03       		.uleb128 0x3
 986 008a 08       		.byte	0x8
 987 008b 05       		.byte	0x5
 988 008c 88030000 		.4byte	.LASF11
 989 0090 04       		.uleb128 0x4
 990 0091 D2020000 		.4byte	.LASF12
 991 0095 04       		.byte	0x4
 992 0096 5B       		.byte	0x5b
 993 0097 9B000000 		.4byte	0x9b
 994 009b 03       		.uleb128 0x3
 995 009c 08       		.byte	0x8
 996 009d 07       		.byte	0x7
 997 009e 2F020000 		.4byte	.LASF13
 998 00a2 04       		.uleb128 0x4
 999 00a3 28030000 		.4byte	.LASF14
 1000 00a7 05       		.byte	0x5
 1001 00a8 2A       		.byte	0x2a
 1002 00a9 3A000000 		.4byte	0x3a
 1003 00ad 04       		.uleb128 0x4
 1004 00ae EB030000 		.4byte	.LASF15
 1005 00b2 05       		.byte	0x5
 1006 00b3 36       		.byte	0x36
 1007 00b4 53000000 		.4byte	0x53
ARM GAS  /tmp/cc2bmhpq.s 			page 50


 1008 00b8 04       		.uleb128 0x4
 1009 00b9 B2040000 		.4byte	.LASF16
 1010 00bd 05       		.byte	0x5
 1011 00be 41       		.byte	0x41
 1012 00bf 65000000 		.4byte	0x65
 1013 00c3 04       		.uleb128 0x4
 1014 00c4 BD010000 		.4byte	.LASF17
 1015 00c8 05       		.byte	0x5
 1016 00c9 42       		.byte	0x42
 1017 00ca 77000000 		.4byte	0x77
 1018 00ce 04       		.uleb128 0x4
 1019 00cf 3D040000 		.4byte	.LASF18
 1020 00d3 05       		.byte	0x5
 1021 00d4 4E       		.byte	0x4e
 1022 00d5 90000000 		.4byte	0x90
 1023 00d9 04       		.uleb128 0x4
 1024 00da C3030000 		.4byte	.LASF19
 1025 00de 06       		.byte	0x6
 1026 00df 3C       		.byte	0x3c
 1027 00e0 A2000000 		.4byte	0xa2
 1028 00e4 04       		.uleb128 0x4
 1029 00e5 1F030000 		.4byte	.LASF20
 1030 00e9 06       		.byte	0x6
 1031 00ea 3D       		.byte	0x3d
 1032 00eb A2000000 		.4byte	0xa2
 1033 00ef 04       		.uleb128 0x4
 1034 00f0 64040000 		.4byte	.LASF21
 1035 00f4 06       		.byte	0x6
 1036 00f5 3E       		.byte	0x3e
 1037 00f6 A2000000 		.4byte	0xa2
 1038 00fa 04       		.uleb128 0x4
 1039 00fb 04020000 		.4byte	.LASF22
 1040 00ff 06       		.byte	0x6
 1041 0100 40       		.byte	0x40
 1042 0101 C3000000 		.4byte	0xc3
 1043 0105 04       		.uleb128 0x4
 1044 0106 96030000 		.4byte	.LASF23
 1045 010a 06       		.byte	0x6
 1046 010b 41       		.byte	0x41
 1047 010c B8000000 		.4byte	0xb8
 1048 0110 04       		.uleb128 0x4
 1049 0111 D9010000 		.4byte	.LASF24
 1050 0115 06       		.byte	0x6
 1051 0116 43       		.byte	0x43
 1052 0117 C3000000 		.4byte	0xc3
 1053 011b 04       		.uleb128 0x4
 1054 011c 64020000 		.4byte	.LASF25
 1055 0120 06       		.byte	0x6
 1056 0121 45       		.byte	0x45
 1057 0122 B8000000 		.4byte	0xb8
 1058 0126 04       		.uleb128 0x4
 1059 0127 3D000000 		.4byte	.LASF26
 1060 012b 07       		.byte	0x7
 1061 012c 35       		.byte	0x35
 1062 012d AD000000 		.4byte	0xad
 1063 0131 04       		.uleb128 0x4
 1064 0132 AD020000 		.4byte	.LASF27
ARM GAS  /tmp/cc2bmhpq.s 			page 51


 1065 0136 07       		.byte	0x7
 1066 0137 3F       		.byte	0x3f
 1067 0138 3C010000 		.4byte	0x13c
 1068 013c 05       		.uleb128 0x5
 1069 013d 58030000 		.4byte	.LASF45
 1070 0141 44       		.byte	0x44
 1071 0142 08       		.byte	0x8
 1072 0143 9A       		.byte	0x9a
 1073 0144 1A020000 		.4byte	0x21a
 1074 0148 06       		.uleb128 0x6
 1075 0149 AC040000 		.4byte	.LASF28
 1076 014d 08       		.byte	0x8
 1077 014e 9B       		.byte	0x9b
 1078 014f 4F020000 		.4byte	0x24f
 1079 0153 00       		.byte	0
 1080 0154 06       		.uleb128 0x6
 1081 0155 F6020000 		.4byte	.LASF29
 1082 0159 08       		.byte	0x8
 1083 015a 9C       		.byte	0x9c
 1084 015b FA000000 		.4byte	0xfa
 1085 015f 08       		.byte	0x8
 1086 0160 07       		.uleb128 0x7
 1087 0161 63747800 		.ascii	"ctx\000"
 1088 0165 08       		.byte	0x8
 1089 0166 9D       		.byte	0x9d
 1090 0167 60040000 		.4byte	0x460
 1091 016b 0C       		.byte	0xc
 1092 016c 06       		.uleb128 0x6
 1093 016d C2040000 		.4byte	.LASF30
 1094 0171 08       		.byte	0x8
 1095 0172 9F       		.byte	0x9f
 1096 0173 25020000 		.4byte	0x225
 1097 0177 10       		.byte	0x10
 1098 0178 06       		.uleb128 0x6
 1099 0179 56050000 		.4byte	.LASF31
 1100 017d 08       		.byte	0x8
 1101 017e A0       		.byte	0xa0
 1102 017f 25020000 		.4byte	0x225
 1103 0183 14       		.byte	0x14
 1104 0184 06       		.uleb128 0x6
 1105 0185 56040000 		.4byte	.LASF32
 1106 0189 08       		.byte	0x8
 1107 018a A7       		.byte	0xa7
 1108 018b DD060000 		.4byte	0x6dd
 1109 018f 18       		.byte	0x18
 1110 0190 06       		.uleb128 0x6
 1111 0191 18030000 		.4byte	.LASF33
 1112 0195 08       		.byte	0x8
 1113 0196 B0       		.byte	0xb0
 1114 0197 EF060000 		.4byte	0x6ef
 1115 019b 1C       		.byte	0x1c
 1116 019c 06       		.uleb128 0x6
 1117 019d FF040000 		.4byte	.LASF34
 1118 01a1 08       		.byte	0x8
 1119 01a2 B5       		.byte	0xb5
 1120 01a3 E4000000 		.4byte	0xe4
 1121 01a7 20       		.byte	0x20
ARM GAS  /tmp/cc2bmhpq.s 			page 52


 1122 01a8 06       		.uleb128 0x6
 1123 01a9 37000000 		.4byte	.LASF35
 1124 01ad 08       		.byte	0x8
 1125 01ae B9       		.byte	0xb9
 1126 01af D9000000 		.4byte	0xd9
 1127 01b3 21       		.byte	0x21
 1128 01b4 06       		.uleb128 0x6
 1129 01b5 9E000000 		.4byte	.LASF36
 1130 01b9 08       		.byte	0x8
 1131 01ba BE       		.byte	0xbe
 1132 01bb EF000000 		.4byte	0xef
 1133 01bf 22       		.byte	0x22
 1134 01c0 08       		.uleb128 0x8
 1135 01c1 7500     		.ascii	"u\000"
 1136 01c3 08       		.byte	0x8
 1137 01c4 0F01     		.2byte	0x10f
 1138 01c6 12060000 		.4byte	0x612
 1139 01ca 24       		.byte	0x24
 1140 01cb 09       		.uleb128 0x9
 1141 01cc E1040000 		.4byte	.LASF37
 1142 01d0 08       		.byte	0x8
 1143 01d1 1401     		.2byte	0x114
 1144 01d3 2B020000 		.4byte	0x22b
 1145 01d7 28       		.byte	0x28
 1146 01d8 09       		.uleb128 0x9
 1147 01d9 4A030000 		.4byte	.LASF38
 1148 01dd 08       		.byte	0x8
 1149 01de 1A01     		.2byte	0x11a
 1150 01e0 4F020000 		.4byte	0x24f
 1151 01e4 2C       		.byte	0x2c
 1152 01e5 09       		.uleb128 0x9
 1153 01e6 57000000 		.4byte	.LASF39
 1154 01ea 08       		.byte	0x8
 1155 01eb 2001     		.2byte	0x120
 1156 01ed 10010000 		.4byte	0x110
 1157 01f1 34       		.byte	0x34
 1158 01f2 09       		.uleb128 0x9
 1159 01f3 8E020000 		.4byte	.LASF40
 1160 01f7 08       		.byte	0x8
 1161 01f8 2701     		.2byte	0x127
 1162 01fa D7060000 		.4byte	0x6d7
 1163 01fe 38       		.byte	0x38
 1164 01ff 09       		.uleb128 0x9
 1165 0200 47000000 		.4byte	.LASF41
 1166 0204 08       		.byte	0x8
 1167 0205 2B01     		.2byte	0x12b
 1168 0207 FA000000 		.4byte	0xfa
 1169 020b 3C       		.byte	0x3c
 1170 020c 09       		.uleb128 0x9
 1171 020d A1050000 		.4byte	.LASF42
 1172 0211 08       		.byte	0x8
 1173 0212 3201     		.2byte	0x132
 1174 0214 02030000 		.4byte	0x302
 1175 0218 40       		.byte	0x40
 1176 0219 00       		.byte	0
 1177 021a 04       		.uleb128 0x4
 1178 021b 05030000 		.4byte	.LASF43
ARM GAS  /tmp/cc2bmhpq.s 			page 53


 1179 021f 07       		.byte	0x7
 1180 0220 44       		.byte	0x44
 1181 0221 25020000 		.4byte	0x225
 1182 0225 0A       		.uleb128 0xa
 1183 0226 04       		.byte	0x4
 1184 0227 31010000 		.4byte	0x131
 1185 022b 04       		.uleb128 0x4
 1186 022c 85000000 		.4byte	.LASF44
 1187 0230 07       		.byte	0x7
 1188 0231 49       		.byte	0x49
 1189 0232 36020000 		.4byte	0x236
 1190 0236 05       		.uleb128 0x5
 1191 0237 00000000 		.4byte	.LASF46
 1192 023b 04       		.byte	0x4
 1193 023c 08       		.byte	0x8
 1194 023d 88       		.byte	0x88
 1195 023e 4F020000 		.4byte	0x24f
 1196 0242 06       		.uleb128 0x6
 1197 0243 6D000000 		.4byte	.LASF47
 1198 0247 08       		.byte	0x8
 1199 0248 89       		.byte	0x89
 1200 0249 25020000 		.4byte	0x225
 1201 024d 00       		.byte	0
 1202 024e 00       		.byte	0
 1203 024f 04       		.uleb128 0x4
 1204 0250 7E020000 		.4byte	.LASF48
 1205 0254 07       		.byte	0x7
 1206 0255 50       		.byte	0x50
 1207 0256 5A020000 		.4byte	0x25a
 1208 025a 05       		.uleb128 0x5
 1209 025b DD000000 		.4byte	.LASF49
 1210 025f 08       		.byte	0x8
 1211 0260 08       		.byte	0x8
 1212 0261 8F       		.byte	0x8f
 1213 0262 7F020000 		.4byte	0x27f
 1214 0266 06       		.uleb128 0x6
 1215 0267 6D000000 		.4byte	.LASF47
 1216 026b 08       		.byte	0x8
 1217 026c 90       		.byte	0x90
 1218 026d 25020000 		.4byte	0x225
 1219 0271 00       		.byte	0
 1220 0272 06       		.uleb128 0x6
 1221 0273 D8000000 		.4byte	.LASF50
 1222 0277 08       		.byte	0x8
 1223 0278 91       		.byte	0x91
 1224 0279 25020000 		.4byte	0x225
 1225 027d 04       		.byte	0x4
 1226 027e 00       		.byte	0
 1227 027f 04       		.uleb128 0x4
 1228 0280 9F040000 		.4byte	.LASF51
 1229 0284 07       		.byte	0x7
 1230 0285 57       		.byte	0x57
 1231 0286 8A020000 		.4byte	0x28a
 1232 028a 0B       		.uleb128 0xb
 1233 028b BE000000 		.4byte	.LASF52
 1234 028f 1C       		.byte	0x1c
 1235 0290 08       		.byte	0x8
ARM GAS  /tmp/cc2bmhpq.s 			page 54


 1236 0291 6A01     		.2byte	0x16a
 1237 0293 E6020000 		.4byte	0x2e6
 1238 0297 09       		.uleb128 0x9
 1239 0298 AC040000 		.4byte	.LASF28
 1240 029c 08       		.byte	0x8
 1241 029d 6B01     		.2byte	0x16b
 1242 029f 4F020000 		.4byte	0x24f
 1243 02a3 00       		.byte	0
 1244 02a4 09       		.uleb128 0x9
 1245 02a5 F6020000 		.4byte	.LASF29
 1246 02a9 08       		.byte	0x8
 1247 02aa 6C01     		.2byte	0x16c
 1248 02ac FA000000 		.4byte	0xfa
 1249 02b0 08       		.byte	0x8
 1250 02b1 08       		.uleb128 0x8
 1251 02b2 63747800 		.ascii	"ctx\000"
 1252 02b6 08       		.byte	0x8
 1253 02b7 6E01     		.2byte	0x16e
 1254 02b9 60040000 		.4byte	0x460
 1255 02bd 0C       		.byte	0xc
 1256 02be 09       		.uleb128 0x9
 1257 02bf C2040000 		.4byte	.LASF30
 1258 02c3 08       		.byte	0x8
 1259 02c4 7101     		.2byte	0x171
 1260 02c6 25020000 		.4byte	0x225
 1261 02ca 10       		.byte	0x10
 1262 02cb 09       		.uleb128 0x9
 1263 02cc 56050000 		.4byte	.LASF31
 1264 02d0 08       		.byte	0x8
 1265 02d1 7201     		.2byte	0x172
 1266 02d3 25020000 		.4byte	0x225
 1267 02d7 14       		.byte	0x14
 1268 02d8 09       		.uleb128 0x9
 1269 02d9 4E050000 		.4byte	.LASF53
 1270 02dd 08       		.byte	0x8
 1271 02de 7501     		.2byte	0x175
 1272 02e0 25020000 		.4byte	0x225
 1273 02e4 18       		.byte	0x18
 1274 02e5 00       		.byte	0
 1275 02e6 04       		.uleb128 0x4
 1276 02e7 01010000 		.4byte	.LASF54
 1277 02eb 07       		.byte	0x7
 1278 02ec 5C       		.byte	0x5c
 1279 02ed F1020000 		.4byte	0x2f1
 1280 02f1 0A       		.uleb128 0xa
 1281 02f2 04       		.byte	0x4
 1282 02f3 F7020000 		.4byte	0x2f7
 1283 02f7 0C       		.uleb128 0xc
 1284 02f8 02030000 		.4byte	0x302
 1285 02fc 0D       		.uleb128 0xd
 1286 02fd 02030000 		.4byte	0x302
 1287 0301 00       		.byte	0
 1288 0302 0E       		.uleb128 0xe
 1289 0303 04       		.byte	0x4
 1290 0304 04       		.uleb128 0x4
 1291 0305 A9030000 		.4byte	.LASF55
 1292 0309 07       		.byte	0x7
ARM GAS  /tmp/cc2bmhpq.s 			page 55


 1293 030a 61       		.byte	0x61
 1294 030b 0F030000 		.4byte	0x30f
 1295 030f 0B       		.uleb128 0xb
 1296 0310 0C020000 		.4byte	.LASF56
 1297 0314 14       		.byte	0x14
 1298 0315 08       		.byte	0x8
 1299 0316 4501     		.2byte	0x145
 1300 0318 5E030000 		.4byte	0x35e
 1301 031c 09       		.uleb128 0x9
 1302 031d 6D000000 		.4byte	.LASF47
 1303 0321 08       		.byte	0x8
 1304 0322 4601     		.2byte	0x146
 1305 0324 F5060000 		.4byte	0x6f5
 1306 0328 00       		.byte	0
 1307 0329 09       		.uleb128 0x9
 1308 032a D8000000 		.4byte	.LASF50
 1309 032e 08       		.byte	0x8
 1310 032f 4701     		.2byte	0x147
 1311 0331 F5060000 		.4byte	0x6f5
 1312 0335 04       		.byte	0x4
 1313 0336 09       		.uleb128 0x9
 1314 0337 2A050000 		.4byte	.LASF57
 1315 033b 08       		.byte	0x8
 1316 033c 4801     		.2byte	0x148
 1317 033e 26010000 		.4byte	0x126
 1318 0342 08       		.byte	0x8
 1319 0343 09       		.uleb128 0x9
 1320 0344 CC000000 		.4byte	.LASF58
 1321 0348 08       		.byte	0x8
 1322 0349 4901     		.2byte	0x149
 1323 034b E6020000 		.4byte	0x2e6
 1324 034f 0C       		.byte	0xc
 1325 0350 08       		.uleb128 0x8
 1326 0351 70617200 		.ascii	"par\000"
 1327 0355 08       		.byte	0x8
 1328 0356 4B01     		.2byte	0x14b
 1329 0358 02030000 		.4byte	0x302
 1330 035c 10       		.byte	0x10
 1331 035d 00       		.byte	0
 1332 035e 04       		.uleb128 0x4
 1333 035f E9040000 		.4byte	.LASF59
 1334 0363 07       		.byte	0x7
 1335 0364 66       		.byte	0x66
 1336 0365 69030000 		.4byte	0x369
 1337 0369 0B       		.uleb128 0xb
 1338 036a 96020000 		.4byte	.LASF60
 1339 036e 0C       		.byte	0xc
 1340 036f 08       		.byte	0x8
 1341 0370 5501     		.2byte	0x155
 1342 0372 AB030000 		.4byte	0x3ab
 1343 0376 09       		.uleb128 0x9
 1344 0377 6D000000 		.4byte	.LASF47
 1345 037b 08       		.byte	0x8
 1346 037c 5601     		.2byte	0x156
 1347 037e F5060000 		.4byte	0x6f5
 1348 0382 00       		.byte	0
 1349 0383 09       		.uleb128 0x9
ARM GAS  /tmp/cc2bmhpq.s 			page 56


 1350 0384 D8000000 		.4byte	.LASF50
 1351 0388 08       		.byte	0x8
 1352 0389 5801     		.2byte	0x158
 1353 038b F5060000 		.4byte	0x6f5
 1354 038f 04       		.byte	0x4
 1355 0390 09       		.uleb128 0x9
 1356 0391 2A050000 		.4byte	.LASF57
 1357 0395 08       		.byte	0x8
 1358 0396 5A01     		.2byte	0x15a
 1359 0398 26010000 		.4byte	0x126
 1360 039c 08       		.byte	0x8
 1361 039d 09       		.uleb128 0x9
 1362 039e 34040000 		.4byte	.LASF61
 1363 03a2 08       		.byte	0x8
 1364 03a3 6201     		.2byte	0x162
 1365 03a5 26010000 		.4byte	0x126
 1366 03a9 0A       		.byte	0xa
 1367 03aa 00       		.byte	0
 1368 03ab 04       		.uleb128 0x4
 1369 03ac 79030000 		.4byte	.LASF62
 1370 03b0 07       		.byte	0x7
 1371 03b1 6B       		.byte	0x6b
 1372 03b2 B6030000 		.4byte	0x3b6
 1373 03b6 0B       		.uleb128 0xb
 1374 03b7 0A010000 		.4byte	.LASF63
 1375 03bb 04       		.byte	0x4
 1376 03bc 08       		.byte	0x8
 1377 03bd 7C01     		.2byte	0x17c
 1378 03bf D1030000 		.4byte	0x3d1
 1379 03c3 09       		.uleb128 0x9
 1380 03c4 B9030000 		.4byte	.LASF64
 1381 03c8 08       		.byte	0x8
 1382 03c9 8401     		.2byte	0x184
 1383 03cb FB060000 		.4byte	0x6fb
 1384 03cf 00       		.byte	0
 1385 03d0 00       		.byte	0
 1386 03d1 04       		.uleb128 0x4
 1387 03d2 05050000 		.4byte	.LASF65
 1388 03d6 07       		.byte	0x7
 1389 03d7 70       		.byte	0x70
 1390 03d8 DC030000 		.4byte	0x3dc
 1391 03dc 0B       		.uleb128 0xb
 1392 03dd 1E040000 		.4byte	.LASF66
 1393 03e1 70       		.byte	0x70
 1394 03e2 08       		.byte	0x8
 1395 03e3 9C01     		.2byte	0x19c
 1396 03e5 1E040000 		.4byte	0x41e
 1397 03e9 09       		.uleb128 0x9
 1398 03ea 46040000 		.4byte	.LASF67
 1399 03ee 08       		.byte	0x8
 1400 03ef A001     		.2byte	0x1a0
 1401 03f1 7F020000 		.4byte	0x27f
 1402 03f5 00       		.byte	0
 1403 03f6 09       		.uleb128 0x9
 1404 03f7 AA000000 		.4byte	.LASF68
 1405 03fb 08       		.byte	0x8
 1406 03fc A401     		.2byte	0x1a4
ARM GAS  /tmp/cc2bmhpq.s 			page 57


 1407 03fe 5E030000 		.4byte	0x35e
 1408 0402 1C       		.byte	0x1c
 1409 0403 08       		.uleb128 0x8
 1410 0404 64626700 		.ascii	"dbg\000"
 1411 0408 08       		.byte	0x8
 1412 0409 A801     		.2byte	0x1a8
 1413 040b AB030000 		.4byte	0x3ab
 1414 040f 28       		.byte	0x28
 1415 0410 09       		.uleb128 0x9
 1416 0411 CB030000 		.4byte	.LASF69
 1417 0415 08       		.byte	0x8
 1418 0416 AC01     		.2byte	0x1ac
 1419 0418 31010000 		.4byte	0x131
 1420 041c 2C       		.byte	0x2c
 1421 041d 00       		.byte	0
 1422 041e 03       		.uleb128 0x3
 1423 041f 04       		.byte	0x4
 1424 0420 07       		.byte	0x7
 1425 0421 5B040000 		.4byte	.LASF70
 1426 0425 0F       		.uleb128 0xf
 1427 0426 C3000000 		.4byte	0xc3
 1428 042a 10       		.uleb128 0x10
 1429 042b C3000000 		.4byte	0xc3
 1430 042f 3A040000 		.4byte	0x43a
 1431 0433 11       		.uleb128 0x11
 1432 0434 1E040000 		.4byte	0x41e
 1433 0438 01       		.byte	0x1
 1434 0439 00       		.byte	0
 1435 043a 10       		.uleb128 0x10
 1436 043b C3000000 		.4byte	0xc3
 1437 043f 4A040000 		.4byte	0x44a
 1438 0443 11       		.uleb128 0x11
 1439 0444 1E040000 		.4byte	0x41e
 1440 0448 03       		.byte	0x3
 1441 0449 00       		.byte	0
 1442 044a 04       		.uleb128 0x4
 1443 044b 25000000 		.4byte	.LASF71
 1444 044f 09       		.byte	0x9
 1445 0450 65       		.byte	0x65
 1446 0451 02030000 		.4byte	0x302
 1447 0455 04       		.uleb128 0x4
 1448 0456 43050000 		.4byte	.LASF72
 1449 045a 09       		.byte	0x9
 1450 045b 6D       		.byte	0x6d
 1451 045c CE000000 		.4byte	0xce
 1452 0460 05       		.uleb128 0x5
 1453 0461 B1000000 		.4byte	.LASF73
 1454 0465 04       		.byte	0x4
 1455 0466 09       		.byte	0x9
 1456 0467 89       		.byte	0x89
 1457 0468 78040000 		.4byte	0x478
 1458 046c 07       		.uleb128 0x7
 1459 046d 737000   		.ascii	"sp\000"
 1460 0470 09       		.byte	0x9
 1461 0471 8A       		.byte	0x8a
 1462 0472 EA040000 		.4byte	0x4ea
 1463 0476 00       		.byte	0
ARM GAS  /tmp/cc2bmhpq.s 			page 58


 1464 0477 00       		.byte	0
 1465 0478 05       		.uleb128 0x5
 1466 0479 0C040000 		.4byte	.LASF74
 1467 047d 24       		.byte	0x24
 1468 047e 0A       		.byte	0xa
 1469 047f C3       		.byte	0xc3
 1470 0480 EA040000 		.4byte	0x4ea
 1471 0484 07       		.uleb128 0x7
 1472 0485 723800   		.ascii	"r8\000"
 1473 0488 0A       		.byte	0xa
 1474 0489 C4       		.byte	0xc4
 1475 048a 4A040000 		.4byte	0x44a
 1476 048e 00       		.byte	0
 1477 048f 07       		.uleb128 0x7
 1478 0490 723900   		.ascii	"r9\000"
 1479 0493 0A       		.byte	0xa
 1480 0494 C5       		.byte	0xc5
 1481 0495 4A040000 		.4byte	0x44a
 1482 0499 04       		.byte	0x4
 1483 049a 07       		.uleb128 0x7
 1484 049b 72313000 		.ascii	"r10\000"
 1485 049f 0A       		.byte	0xa
 1486 04a0 C6       		.byte	0xc6
 1487 04a1 4A040000 		.4byte	0x44a
 1488 04a5 08       		.byte	0x8
 1489 04a6 07       		.uleb128 0x7
 1490 04a7 72313100 		.ascii	"r11\000"
 1491 04ab 0A       		.byte	0xa
 1492 04ac C7       		.byte	0xc7
 1493 04ad 4A040000 		.4byte	0x44a
 1494 04b1 0C       		.byte	0xc
 1495 04b2 07       		.uleb128 0x7
 1496 04b3 723400   		.ascii	"r4\000"
 1497 04b6 0A       		.byte	0xa
 1498 04b7 C8       		.byte	0xc8
 1499 04b8 4A040000 		.4byte	0x44a
 1500 04bc 10       		.byte	0x10
 1501 04bd 07       		.uleb128 0x7
 1502 04be 723500   		.ascii	"r5\000"
 1503 04c1 0A       		.byte	0xa
 1504 04c2 C9       		.byte	0xc9
 1505 04c3 4A040000 		.4byte	0x44a
 1506 04c7 14       		.byte	0x14
 1507 04c8 07       		.uleb128 0x7
 1508 04c9 723600   		.ascii	"r6\000"
 1509 04cc 0A       		.byte	0xa
 1510 04cd CA       		.byte	0xca
 1511 04ce 4A040000 		.4byte	0x44a
 1512 04d2 18       		.byte	0x18
 1513 04d3 07       		.uleb128 0x7
 1514 04d4 723700   		.ascii	"r7\000"
 1515 04d7 0A       		.byte	0xa
 1516 04d8 CB       		.byte	0xcb
 1517 04d9 4A040000 		.4byte	0x44a
 1518 04dd 1C       		.byte	0x1c
 1519 04de 07       		.uleb128 0x7
 1520 04df 6C7200   		.ascii	"lr\000"
ARM GAS  /tmp/cc2bmhpq.s 			page 59


 1521 04e2 0A       		.byte	0xa
 1522 04e3 CC       		.byte	0xcc
 1523 04e4 4A040000 		.4byte	0x44a
 1524 04e8 20       		.byte	0x20
 1525 04e9 00       		.byte	0
 1526 04ea 0A       		.uleb128 0xa
 1527 04eb 04       		.byte	0x4
 1528 04ec 78040000 		.4byte	0x478
 1529 04f0 12       		.uleb128 0x12
 1530 04f1 60       		.byte	0x60
 1531 04f2 0B       		.byte	0xb
 1532 04f3 A101     		.2byte	0x1a1
 1533 04f5 FC050000 		.4byte	0x5fc
 1534 04f9 08       		.uleb128 0x8
 1535 04fa 43523100 		.ascii	"CR1\000"
 1536 04fe 0B       		.byte	0xb
 1537 04ff A201     		.2byte	0x1a2
 1538 0501 25040000 		.4byte	0x425
 1539 0505 00       		.byte	0
 1540 0506 08       		.uleb128 0x8
 1541 0507 43523200 		.ascii	"CR2\000"
 1542 050b 0B       		.byte	0xb
 1543 050c A301     		.2byte	0x1a3
 1544 050e 25040000 		.4byte	0x425
 1545 0512 04       		.byte	0x4
 1546 0513 09       		.uleb128 0x9
 1547 0514 53030000 		.4byte	.LASF75
 1548 0518 0B       		.byte	0xb
 1549 0519 A401     		.2byte	0x1a4
 1550 051b 25040000 		.4byte	0x425
 1551 051f 08       		.byte	0x8
 1552 0520 09       		.uleb128 0x9
 1553 0521 DD020000 		.4byte	.LASF76
 1554 0525 0B       		.byte	0xb
 1555 0526 A501     		.2byte	0x1a5
 1556 0528 25040000 		.4byte	0x425
 1557 052c 0C       		.byte	0xc
 1558 052d 08       		.uleb128 0x8
 1559 052e 535200   		.ascii	"SR\000"
 1560 0531 0B       		.byte	0xb
 1561 0532 A601     		.2byte	0x1a6
 1562 0534 25040000 		.4byte	0x425
 1563 0538 10       		.byte	0x10
 1564 0539 08       		.uleb128 0x8
 1565 053a 45475200 		.ascii	"EGR\000"
 1566 053e 0B       		.byte	0xb
 1567 053f A701     		.2byte	0x1a7
 1568 0541 25040000 		.4byte	0x425
 1569 0545 14       		.byte	0x14
 1570 0546 09       		.uleb128 0x9
 1571 0547 1D020000 		.4byte	.LASF77
 1572 054b 0B       		.byte	0xb
 1573 054c A801     		.2byte	0x1a8
 1574 054e 25040000 		.4byte	0x425
 1575 0552 18       		.byte	0x18
 1576 0553 09       		.uleb128 0x9
 1577 0554 23020000 		.4byte	.LASF78
ARM GAS  /tmp/cc2bmhpq.s 			page 60


 1578 0558 0B       		.byte	0xb
 1579 0559 A901     		.2byte	0x1a9
 1580 055b 25040000 		.4byte	0x425
 1581 055f 1C       		.byte	0x1c
 1582 0560 09       		.uleb128 0x9
 1583 0561 FB020000 		.4byte	.LASF79
 1584 0565 0B       		.byte	0xb
 1585 0566 AA01     		.2byte	0x1aa
 1586 0568 25040000 		.4byte	0x425
 1587 056c 20       		.byte	0x20
 1588 056d 08       		.uleb128 0x8
 1589 056e 434E5400 		.ascii	"CNT\000"
 1590 0572 0B       		.byte	0xb
 1591 0573 AB01     		.2byte	0x1ab
 1592 0575 25040000 		.4byte	0x425
 1593 0579 24       		.byte	0x24
 1594 057a 08       		.uleb128 0x8
 1595 057b 50534300 		.ascii	"PSC\000"
 1596 057f 0B       		.byte	0xb
 1597 0580 AC01     		.2byte	0x1ac
 1598 0582 25040000 		.4byte	0x425
 1599 0586 28       		.byte	0x28
 1600 0587 08       		.uleb128 0x8
 1601 0588 41525200 		.ascii	"ARR\000"
 1602 058c 0B       		.byte	0xb
 1603 058d AD01     		.2byte	0x1ad
 1604 058f 25040000 		.4byte	0x425
 1605 0593 2C       		.byte	0x2c
 1606 0594 08       		.uleb128 0x8
 1607 0595 52435200 		.ascii	"RCR\000"
 1608 0599 0B       		.byte	0xb
 1609 059a AE01     		.2byte	0x1ae
 1610 059c 25040000 		.4byte	0x425
 1611 05a0 30       		.byte	0x30
 1612 05a1 08       		.uleb128 0x8
 1613 05a2 43435200 		.ascii	"CCR\000"
 1614 05a6 0B       		.byte	0xb
 1615 05a7 AF01     		.2byte	0x1af
 1616 05a9 FC050000 		.4byte	0x5fc
 1617 05ad 34       		.byte	0x34
 1618 05ae 09       		.uleb128 0x9
 1619 05af E5010000 		.4byte	.LASF80
 1620 05b3 0B       		.byte	0xb
 1621 05b4 B001     		.2byte	0x1b0
 1622 05b6 25040000 		.4byte	0x425
 1623 05ba 44       		.byte	0x44
 1624 05bb 08       		.uleb128 0x8
 1625 05bc 44435200 		.ascii	"DCR\000"
 1626 05c0 0B       		.byte	0xb
 1627 05c1 B101     		.2byte	0x1b1
 1628 05c3 25040000 		.4byte	0x425
 1629 05c7 48       		.byte	0x48
 1630 05c8 09       		.uleb128 0x9
 1631 05c9 EE000000 		.4byte	.LASF81
 1632 05cd 0B       		.byte	0xb
 1633 05ce B201     		.2byte	0x1b2
 1634 05d0 25040000 		.4byte	0x425
ARM GAS  /tmp/cc2bmhpq.s 			page 61


 1635 05d4 4C       		.byte	0x4c
 1636 05d5 08       		.uleb128 0x8
 1637 05d6 4F5200   		.ascii	"OR\000"
 1638 05d9 0B       		.byte	0xb
 1639 05da B301     		.2byte	0x1b3
 1640 05dc 25040000 		.4byte	0x425
 1641 05e0 50       		.byte	0x50
 1642 05e1 09       		.uleb128 0x9
 1643 05e2 29020000 		.4byte	.LASF82
 1644 05e6 0B       		.byte	0xb
 1645 05e7 B401     		.2byte	0x1b4
 1646 05e9 25040000 		.4byte	0x425
 1647 05ed 54       		.byte	0x54
 1648 05ee 09       		.uleb128 0x9
 1649 05ef F4030000 		.4byte	.LASF83
 1650 05f3 0B       		.byte	0xb
 1651 05f4 B501     		.2byte	0x1b5
 1652 05f6 01060000 		.4byte	0x601
 1653 05fa 58       		.byte	0x58
 1654 05fb 00       		.byte	0
 1655 05fc 0F       		.uleb128 0xf
 1656 05fd 3A040000 		.4byte	0x43a
 1657 0601 0F       		.uleb128 0xf
 1658 0602 2A040000 		.4byte	0x42a
 1659 0606 13       		.uleb128 0x13
 1660 0607 BD020000 		.4byte	.LASF84
 1661 060b 0B       		.byte	0xb
 1662 060c B601     		.2byte	0x1b6
 1663 060e F0040000 		.4byte	0x4f0
 1664 0612 14       		.uleb128 0x14
 1665 0613 04       		.byte	0x4
 1666 0614 08       		.byte	0x8
 1667 0615 D2       		.byte	0xd2
 1668 0616 75060000 		.4byte	0x675
 1669 061a 15       		.uleb128 0x15
 1670 061b B6020000 		.4byte	.LASF85
 1671 061f 08       		.byte	0x8
 1672 0620 D9       		.byte	0xd9
 1673 0621 05010000 		.4byte	0x105
 1674 0625 15       		.uleb128 0x15
 1675 0626 98050000 		.4byte	.LASF86
 1676 062a 08       		.byte	0x8
 1677 062b E0       		.byte	0xe0
 1678 062c 05010000 		.4byte	0x105
 1679 0630 15       		.uleb128 0x15
 1680 0631 A3000000 		.4byte	.LASF87
 1681 0635 08       		.byte	0x8
 1682 0636 E7       		.byte	0xe7
 1683 0637 02030000 		.4byte	0x302
 1684 063b 15       		.uleb128 0x15
 1685 063c 18050000 		.4byte	.LASF88
 1686 0640 08       		.byte	0x8
 1687 0641 EE       		.byte	0xee
 1688 0642 75060000 		.4byte	0x675
 1689 0646 15       		.uleb128 0x15
 1690 0647 D1010000 		.4byte	.LASF89
 1691 064b 08       		.byte	0x8
ARM GAS  /tmp/cc2bmhpq.s 			page 62


 1692 064c F3       		.byte	0xf3
 1693 064d 05010000 		.4byte	0x105
 1694 0651 15       		.uleb128 0x15
 1695 0652 11050000 		.4byte	.LASF90
 1696 0656 08       		.byte	0x8
 1697 0657 FC       		.byte	0xfc
 1698 0658 A0060000 		.4byte	0x6a0
 1699 065c 16       		.uleb128 0x16
 1700 065d 1E000000 		.4byte	.LASF91
 1701 0661 08       		.byte	0x8
 1702 0662 0501     		.2byte	0x105
 1703 0664 D7060000 		.4byte	0x6d7
 1704 0668 16       		.uleb128 0x16
 1705 0669 D1000000 		.4byte	.LASF92
 1706 066d 08       		.byte	0x8
 1707 066e 0D01     		.2byte	0x10d
 1708 0670 10010000 		.4byte	0x110
 1709 0674 00       		.byte	0
 1710 0675 0A       		.uleb128 0xa
 1711 0676 04       		.byte	0x4
 1712 0677 1A020000 		.4byte	0x21a
 1713 067b 05       		.uleb128 0x5
 1714 067c F7010000 		.4byte	.LASF93
 1715 0680 0C       		.byte	0xc
 1716 0681 0C       		.byte	0xc
 1717 0682 34       		.byte	0x34
 1718 0683 A0060000 		.4byte	0x6a0
 1719 0687 06       		.uleb128 0x6
 1720 0688 AC040000 		.4byte	.LASF28
 1721 068c 0C       		.byte	0xc
 1722 068d 35       		.byte	0x35
 1723 068e 4F020000 		.4byte	0x24f
 1724 0692 00       		.byte	0
 1725 0693 07       		.uleb128 0x7
 1726 0694 636E7400 		.ascii	"cnt\000"
 1727 0698 0C       		.byte	0xc
 1728 0699 37       		.byte	0x37
 1729 069a 1B010000 		.4byte	0x11b
 1730 069e 08       		.byte	0x8
 1731 069f 00       		.byte	0
 1732 06a0 0A       		.uleb128 0xa
 1733 06a1 04       		.byte	0x4
 1734 06a2 7B060000 		.4byte	0x67b
 1735 06a6 05       		.uleb128 0x5
 1736 06a7 C9020000 		.4byte	.LASF94
 1737 06ab 10       		.byte	0x10
 1738 06ac 0D       		.byte	0xd
 1739 06ad 39       		.byte	0x39
 1740 06ae D7060000 		.4byte	0x6d7
 1741 06b2 06       		.uleb128 0x6
 1742 06b3 AC040000 		.4byte	.LASF28
 1743 06b7 0D       		.byte	0xd
 1744 06b8 3A       		.byte	0x3a
 1745 06b9 4F020000 		.4byte	0x24f
 1746 06bd 00       		.byte	0
 1747 06be 06       		.uleb128 0x6
 1748 06bf 78020000 		.4byte	.LASF95
ARM GAS  /tmp/cc2bmhpq.s 			page 63


 1749 06c3 0D       		.byte	0xd
 1750 06c4 3C       		.byte	0x3c
 1751 06c5 25020000 		.4byte	0x225
 1752 06c9 08       		.byte	0x8
 1753 06ca 06       		.uleb128 0x6
 1754 06cb 6D000000 		.4byte	.LASF47
 1755 06cf 0D       		.byte	0xd
 1756 06d0 3E       		.byte	0x3e
 1757 06d1 0B070000 		.4byte	0x70b
 1758 06d5 0C       		.byte	0xc
 1759 06d6 00       		.byte	0
 1760 06d7 0A       		.uleb128 0xa
 1761 06d8 04       		.byte	0x4
 1762 06d9 A6060000 		.4byte	0x6a6
 1763 06dd 0A       		.uleb128 0xa
 1764 06de 04       		.byte	0x4
 1765 06df E3060000 		.4byte	0x6e3
 1766 06e3 17       		.uleb128 0x17
 1767 06e4 E8060000 		.4byte	0x6e8
 1768 06e8 03       		.uleb128 0x3
 1769 06e9 01       		.byte	0x1
 1770 06ea 08       		.byte	0x8
 1771 06eb 00030000 		.4byte	.LASF96
 1772 06ef 0A       		.uleb128 0xa
 1773 06f0 04       		.byte	0x4
 1774 06f1 55040000 		.4byte	0x455
 1775 06f5 0A       		.uleb128 0xa
 1776 06f6 04       		.byte	0x4
 1777 06f7 04030000 		.4byte	0x304
 1778 06fb 0F       		.uleb128 0xf
 1779 06fc DD060000 		.4byte	0x6dd
 1780 0700 04       		.uleb128 0x4
 1781 0701 BA040000 		.4byte	.LASF97
 1782 0705 0D       		.byte	0xd
 1783 0706 34       		.byte	0x34
 1784 0707 A6060000 		.4byte	0x6a6
 1785 070b 0A       		.uleb128 0xa
 1786 070c 04       		.byte	0x4
 1787 070d 00070000 		.4byte	0x700
 1788 0711 18       		.uleb128 0x18
 1789 0712 46020000 		.4byte	.LASF98
 1790 0716 02       		.byte	0x2
 1791 0717 8B       		.byte	0x8b
 1792 0718 26010000 		.4byte	0x126
 1793 071c 03       		.byte	0x3
 1794 071d 18       		.uleb128 0x18
 1795 071e E2020000 		.4byte	.LASF99
 1796 0722 03       		.byte	0x3
 1797 0723 69       		.byte	0x69
 1798 0724 26010000 		.4byte	0x126
 1799 0728 03       		.byte	0x3
 1800 0729 18       		.uleb128 0x18
 1801 072a 72000000 		.4byte	.LASF100
 1802 072e 0E       		.byte	0xe
 1803 072f E4       		.byte	0xe4
 1804 0730 26010000 		.4byte	0x126
 1805 0734 03       		.byte	0x3
ARM GAS  /tmp/cc2bmhpq.s 			page 64


 1806 0735 19       		.uleb128 0x19
 1807 0736 62030000 		.4byte	.LASF101
 1808 073a 03       		.byte	0x3
 1809 073b 47       		.byte	0x47
 1810 073c 03       		.byte	0x3
 1811 073d 4D070000 		.4byte	0x74d
 1812 0741 1A       		.uleb128 0x1a
 1813 0742 73020000 		.4byte	.LASF103
 1814 0746 03       		.byte	0x3
 1815 0747 47       		.byte	0x47
 1816 0748 26010000 		.4byte	0x126
 1817 074c 00       		.byte	0
 1818 074d 19       		.uleb128 0x19
 1819 074e D6030000 		.4byte	.LASF102
 1820 0752 03       		.byte	0x3
 1821 0753 5D       		.byte	0x5d
 1822 0754 03       		.byte	0x3
 1823 0755 65070000 		.4byte	0x765
 1824 0759 1A       		.uleb128 0x1a
 1825 075a 73020000 		.4byte	.LASF103
 1826 075e 03       		.byte	0x3
 1827 075f 5D       		.byte	0x5d
 1828 0760 26010000 		.4byte	0x126
 1829 0764 00       		.byte	0
 1830 0765 1B       		.uleb128 0x1b
 1831 0766 6C040000 		.4byte	.LASF114
 1832 076a 03       		.byte	0x3
 1833 076b 51       		.byte	0x51
 1834 076c 03       		.byte	0x3
 1835 076d 1C       		.uleb128 0x1c
 1836 076e 9C030000 		.4byte	.LASF108
 1837 0772 01       		.byte	0x1
 1838 0773 B1       		.byte	0xb1
 1839 0774 01       		.byte	0x1
 1840 0775 A8070000 		.4byte	0x7a8
 1841 0779 1D       		.uleb128 0x1d
 1842 077a 76747000 		.ascii	"vtp\000"
 1843 077e 01       		.byte	0x1
 1844 077f B1       		.byte	0xb1
 1845 0780 F5060000 		.4byte	0x6f5
 1846 0784 1E       		.uleb128 0x1e
 1847 0785 10000000 		.4byte	.LASF104
 1848 0789 B8070000 		.4byte	0x7b8
 1849 078d 9C030000 		.4byte	.LASF108
 1850 0791 1F       		.uleb128 0x1f
 1851 0792 6A020000 		.4byte	.LASF105
 1852 0796 01       		.byte	0x1
 1853 0797 C5       		.byte	0xc5
 1854 0798 26010000 		.4byte	0x126
 1855 079c 1F       		.uleb128 0x1f
 1856 079d 2A050000 		.4byte	.LASF57
 1857 07a1 01       		.byte	0x1
 1858 07a2 C5       		.byte	0xc5
 1859 07a3 26010000 		.4byte	0x126
 1860 07a7 00       		.byte	0
 1861 07a8 10       		.uleb128 0x10
 1862 07a9 E8060000 		.4byte	0x6e8
ARM GAS  /tmp/cc2bmhpq.s 			page 65


 1863 07ad B8070000 		.4byte	0x7b8
 1864 07b1 11       		.uleb128 0x11
 1865 07b2 1E040000 		.4byte	0x41e
 1866 07b6 0C       		.byte	0xc
 1867 07b7 00       		.byte	0
 1868 07b8 17       		.uleb128 0x17
 1869 07b9 A8070000 		.4byte	0x7a8
 1870 07bd 20       		.uleb128 0x20
 1871 07be 2E000000 		.4byte	.LASF115
 1872 07c2 01       		.byte	0x1
 1873 07c3 3D       		.byte	0x3d
 1874 07c4 00000000 		.4byte	.LFB149
 1875 07c8 1C000000 		.4byte	.LFE149-.LFB149
 1876 07cc 01       		.uleb128 0x1
 1877 07cd 9C       		.byte	0x9c
 1878 07ce 21       		.uleb128 0x21
 1879 07cf 94040000 		.4byte	.LASF116
 1880 07d3 01       		.byte	0x1
 1881 07d4 5F       		.byte	0x5f
 1882 07d5 00000000 		.4byte	.LFB150
 1883 07d9 84000000 		.4byte	.LFE150-.LFB150
 1884 07dd 01       		.uleb128 0x1
 1885 07de 9C       		.byte	0x9c
 1886 07df CD080000 		.4byte	0x8cd
 1887 07e3 22       		.uleb128 0x22
 1888 07e4 76747000 		.ascii	"vtp\000"
 1889 07e8 01       		.byte	0x1
 1890 07e9 5F       		.byte	0x5f
 1891 07ea F5060000 		.4byte	0x6f5
 1892 07ee 00000000 		.4byte	.LLST0
 1893 07f2 23       		.uleb128 0x23
 1894 07f3 18040000 		.4byte	.LASF106
 1895 07f7 01       		.byte	0x1
 1896 07f8 5F       		.byte	0x5f
 1897 07f9 26010000 		.4byte	0x126
 1898 07fd 37000000 		.4byte	.LLST1
 1899 0801 23       		.uleb128 0x23
 1900 0802 50000000 		.4byte	.LASF107
 1901 0806 01       		.byte	0x1
 1902 0807 60       		.byte	0x60
 1903 0808 E6020000 		.4byte	0x2e6
 1904 080c 84000000 		.4byte	.LLST2
 1905 0810 22       		.uleb128 0x22
 1906 0811 70617200 		.ascii	"par\000"
 1907 0815 01       		.byte	0x1
 1908 0816 60       		.byte	0x60
 1909 0817 02030000 		.4byte	0x302
 1910 081b F0000000 		.4byte	.LLST3
 1911 081f 24       		.uleb128 0x24
 1912 0820 7000     		.ascii	"p\000"
 1913 0822 01       		.byte	0x1
 1914 0823 61       		.byte	0x61
 1915 0824 F5060000 		.4byte	0x6f5
 1916 0828 5D010000 		.4byte	.LLST4
 1917 082c 25       		.uleb128 0x25
 1918 082d 2A050000 		.4byte	.LASF57
 1919 0831 01       		.byte	0x1
ARM GAS  /tmp/cc2bmhpq.s 			page 66


 1920 0832 62       		.byte	0x62
 1921 0833 26010000 		.4byte	0x126
 1922 0837 7B010000 		.4byte	.LLST5
 1923 083b 26       		.uleb128 0x26
 1924 083c F3000000 		.4byte	.LASF117
 1925 0840 DD080000 		.4byte	0x8dd
 1926 0844 27       		.uleb128 0x27
 1927 0845 00000000 		.4byte	.Ldebug_ranges0+0
 1928 0849 28       		.uleb128 0x28
 1929 084a 6E6F7700 		.ascii	"now\000"
 1930 084e 01       		.byte	0x1
 1931 084f 6C       		.byte	0x6c
 1932 0850 26010000 		.4byte	0x126
 1933 0854 29       		.uleb128 0x29
 1934 0855 29070000 		.4byte	0x729
 1935 0859 04000000 		.4byte	.LBB36
 1936 085d 20000000 		.4byte	.Ldebug_ranges0+0x20
 1937 0861 01       		.byte	0x1
 1938 0862 6C       		.byte	0x6c
 1939 0863 87080000 		.4byte	0x887
 1940 0867 2A       		.uleb128 0x2a
 1941 0868 1D070000 		.4byte	0x71d
 1942 086c 04000000 		.4byte	.LBB37
 1943 0870 20000000 		.4byte	.Ldebug_ranges0+0x20
 1944 0874 0E       		.byte	0xe
 1945 0875 E9       		.byte	0xe9
 1946 0876 2B       		.uleb128 0x2b
 1947 0877 11070000 		.4byte	0x711
 1948 087b 04000000 		.4byte	.LBB38
 1949 087f 20000000 		.4byte	.Ldebug_ranges0+0x20
 1950 0883 03       		.byte	0x3
 1951 0884 6B       		.byte	0x6b
 1952 0885 00       		.byte	0
 1953 0886 00       		.byte	0
 1954 0887 2C       		.uleb128 0x2c
 1955 0888 4D070000 		.4byte	0x74d
 1956 088c 5C000000 		.4byte	.LBB44
 1957 0890 06000000 		.4byte	.LBE44-.LBB44
 1958 0894 01       		.byte	0x1
 1959 0895 8C       		.byte	0x8c
 1960 0896 AD080000 		.4byte	0x8ad
 1961 089a 2D       		.uleb128 0x2d
 1962 089b 59070000 		.4byte	0x759
 1963 089f A4010000 		.4byte	.LLST6
 1964 08a3 2E       		.uleb128 0x2e
 1965 08a4 60000000 		.4byte	.LVL16
 1966 08a8 BF090000 		.4byte	0x9bf
 1967 08ac 00       		.byte	0
 1968 08ad 2A       		.uleb128 0x2a
 1969 08ae 35070000 		.4byte	0x735
 1970 08b2 6E000000 		.4byte	.LBB46
 1971 08b6 38000000 		.4byte	.Ldebug_ranges0+0x38
 1972 08ba 01       		.byte	0x1
 1973 08bb 81       		.byte	0x81
 1974 08bc 2F       		.uleb128 0x2f
 1975 08bd 41070000 		.4byte	0x741
 1976 08c1 2E       		.uleb128 0x2e
ARM GAS  /tmp/cc2bmhpq.s 			page 67


 1977 08c2 7A000000 		.4byte	.LVL20
 1978 08c6 D0090000 		.4byte	0x9d0
 1979 08ca 00       		.byte	0
 1980 08cb 00       		.byte	0
 1981 08cc 00       		.byte	0
 1982 08cd 10       		.uleb128 0x10
 1983 08ce E8060000 		.4byte	0x6e8
 1984 08d2 DD080000 		.4byte	0x8dd
 1985 08d6 11       		.uleb128 0x11
 1986 08d7 1E040000 		.4byte	0x41e
 1987 08db 0A       		.byte	0xa
 1988 08dc 00       		.byte	0
 1989 08dd 17       		.uleb128 0x17
 1990 08de CD080000 		.4byte	0x8cd
 1991 08e2 30       		.uleb128 0x30
 1992 08e3 6D070000 		.4byte	0x76d
 1993 08e7 00000000 		.4byte	.LFB151
 1994 08eb 78000000 		.4byte	.LFE151-.LFB151
 1995 08ef 01       		.uleb128 0x1
 1996 08f0 9C       		.byte	0x9c
 1997 08f1 B4090000 		.4byte	0x9b4
 1998 08f5 2D       		.uleb128 0x2d
 1999 08f6 79070000 		.4byte	0x779
 2000 08fa B7010000 		.4byte	.LLST7
 2001 08fe 31       		.uleb128 0x31
 2002 08ff 84070000 		.4byte	0x784
 2003 0903 31       		.uleb128 0x31
 2004 0904 91070000 		.4byte	0x791
 2005 0908 31       		.uleb128 0x31
 2006 0909 9C070000 		.4byte	0x79c
 2007 090d 32       		.uleb128 0x32
 2008 090e 28000000 		.4byte	.LBB62
 2009 0912 50000000 		.4byte	.LBE62-.LBB62
 2010 0916 2D       		.uleb128 0x2d
 2011 0917 79070000 		.4byte	0x779
 2012 091b F1010000 		.4byte	.LLST8
 2013 091f 32       		.uleb128 0x32
 2014 0920 28000000 		.4byte	.LBB63
 2015 0924 50000000 		.4byte	.LBE63-.LBB63
 2016 0928 33       		.uleb128 0x33
 2017 0929 91070000 		.4byte	0x791
 2018 092d 0F020000 		.4byte	.LLST9
 2019 0931 33       		.uleb128 0x33
 2020 0932 9C070000 		.4byte	0x79c
 2021 0936 2D020000 		.4byte	.LLST10
 2022 093a 31       		.uleb128 0x31
 2023 093b 84070000 		.4byte	0x784
 2024 093f 29       		.uleb128 0x29
 2025 0940 29070000 		.4byte	0x729
 2026 0944 44000000 		.4byte	.LBB64
 2027 0948 50000000 		.4byte	.Ldebug_ranges0+0x50
 2028 094c 01       		.byte	0x1
 2029 094d EC       		.byte	0xec
 2030 094e 72090000 		.4byte	0x972
 2031 0952 2A       		.uleb128 0x2a
 2032 0953 1D070000 		.4byte	0x71d
 2033 0957 44000000 		.4byte	.LBB65
ARM GAS  /tmp/cc2bmhpq.s 			page 68


 2034 095b 50000000 		.4byte	.Ldebug_ranges0+0x50
 2035 095f 0E       		.byte	0xe
 2036 0960 E9       		.byte	0xe9
 2037 0961 2B       		.uleb128 0x2b
 2038 0962 11070000 		.4byte	0x711
 2039 0966 44000000 		.4byte	.LBB66
 2040 096a 50000000 		.4byte	.Ldebug_ranges0+0x50
 2041 096e 03       		.byte	0x3
 2042 096f 6B       		.byte	0x6b
 2043 0970 00       		.byte	0
 2044 0971 00       		.byte	0
 2045 0972 2C       		.uleb128 0x2c
 2046 0973 4D070000 		.4byte	0x74d
 2047 0977 5E000000 		.4byte	.LBB72
 2048 097b 08000000 		.4byte	.LBE72-.LBB72
 2049 097f 01       		.byte	0x1
 2050 0980 FD       		.byte	0xfd
 2051 0981 98090000 		.4byte	0x998
 2052 0985 2D       		.uleb128 0x2d
 2053 0986 59070000 		.4byte	0x759
 2054 098a 4B020000 		.4byte	.LLST11
 2055 098e 2E       		.uleb128 0x2e
 2056 098f 64000000 		.4byte	.LVL30
 2057 0993 BF090000 		.4byte	0x9bf
 2058 0997 00       		.byte	0
 2059 0998 34       		.uleb128 0x34
 2060 0999 65070000 		.4byte	0x765
 2061 099d 6A000000 		.4byte	.LBB74
 2062 09a1 0E000000 		.4byte	.LBE74-.LBB74
 2063 09a5 01       		.byte	0x1
 2064 09a6 DD       		.byte	0xdd
 2065 09a7 2E       		.uleb128 0x2e
 2066 09a8 6E000000 		.4byte	.LVL34
 2067 09ac E1090000 		.4byte	0x9e1
 2068 09b0 00       		.byte	0
 2069 09b1 00       		.byte	0
 2070 09b2 00       		.byte	0
 2071 09b3 00       		.byte	0
 2072 09b4 35       		.uleb128 0x35
 2073 09b5 636800   		.ascii	"ch\000"
 2074 09b8 08       		.byte	0x8
 2075 09b9 D201     		.2byte	0x1d2
 2076 09bb D1030000 		.4byte	0x3d1
 2077 09bf 36       		.uleb128 0x36
 2078 09c0 C6010000 		.4byte	.LASF109
 2079 09c4 0F       		.byte	0xf
 2080 09c5 59       		.byte	0x59
 2081 09c6 D0090000 		.4byte	0x9d0
 2082 09ca 0D       		.uleb128 0xd
 2083 09cb 26010000 		.4byte	0x126
 2084 09cf 00       		.byte	0
 2085 09d0 36       		.uleb128 0x36
 2086 09d1 EA010000 		.4byte	.LASF110
 2087 09d5 0F       		.byte	0xf
 2088 09d6 57       		.byte	0x57
 2089 09d7 E1090000 		.4byte	0x9e1
 2090 09db 0D       		.uleb128 0xd
ARM GAS  /tmp/cc2bmhpq.s 			page 69


 2091 09dc 26010000 		.4byte	0x126
 2092 09e0 00       		.byte	0
 2093 09e1 37       		.uleb128 0x37
 2094 09e2 28040000 		.4byte	.LASF118
 2095 09e6 0F       		.byte	0xf
 2096 09e7 58       		.byte	0x58
 2097 09e8 00       		.byte	0
 2098              		.section	.debug_abbrev,"",%progbits
 2099              	.Ldebug_abbrev0:
 2100 0000 01       		.uleb128 0x1
 2101 0001 11       		.uleb128 0x11
 2102 0002 01       		.byte	0x1
 2103 0003 25       		.uleb128 0x25
 2104 0004 0E       		.uleb128 0xe
 2105 0005 13       		.uleb128 0x13
 2106 0006 0B       		.uleb128 0xb
 2107 0007 03       		.uleb128 0x3
 2108 0008 0E       		.uleb128 0xe
 2109 0009 1B       		.uleb128 0x1b
 2110 000a 0E       		.uleb128 0xe
 2111 000b 55       		.uleb128 0x55
 2112 000c 17       		.uleb128 0x17
 2113 000d 11       		.uleb128 0x11
 2114 000e 01       		.uleb128 0x1
 2115 000f 10       		.uleb128 0x10
 2116 0010 17       		.uleb128 0x17
 2117 0011 00       		.byte	0
 2118 0012 00       		.byte	0
 2119 0013 02       		.uleb128 0x2
 2120 0014 24       		.uleb128 0x24
 2121 0015 00       		.byte	0
 2122 0016 0B       		.uleb128 0xb
 2123 0017 0B       		.uleb128 0xb
 2124 0018 3E       		.uleb128 0x3e
 2125 0019 0B       		.uleb128 0xb
 2126 001a 03       		.uleb128 0x3
 2127 001b 08       		.uleb128 0x8
 2128 001c 00       		.byte	0
 2129 001d 00       		.byte	0
 2130 001e 03       		.uleb128 0x3
 2131 001f 24       		.uleb128 0x24
 2132 0020 00       		.byte	0
 2133 0021 0B       		.uleb128 0xb
 2134 0022 0B       		.uleb128 0xb
 2135 0023 3E       		.uleb128 0x3e
 2136 0024 0B       		.uleb128 0xb
 2137 0025 03       		.uleb128 0x3
 2138 0026 0E       		.uleb128 0xe
 2139 0027 00       		.byte	0
 2140 0028 00       		.byte	0
 2141 0029 04       		.uleb128 0x4
 2142 002a 16       		.uleb128 0x16
 2143 002b 00       		.byte	0
 2144 002c 03       		.uleb128 0x3
 2145 002d 0E       		.uleb128 0xe
 2146 002e 3A       		.uleb128 0x3a
 2147 002f 0B       		.uleb128 0xb
ARM GAS  /tmp/cc2bmhpq.s 			page 70


 2148 0030 3B       		.uleb128 0x3b
 2149 0031 0B       		.uleb128 0xb
 2150 0032 49       		.uleb128 0x49
 2151 0033 13       		.uleb128 0x13
 2152 0034 00       		.byte	0
 2153 0035 00       		.byte	0
 2154 0036 05       		.uleb128 0x5
 2155 0037 13       		.uleb128 0x13
 2156 0038 01       		.byte	0x1
 2157 0039 03       		.uleb128 0x3
 2158 003a 0E       		.uleb128 0xe
 2159 003b 0B       		.uleb128 0xb
 2160 003c 0B       		.uleb128 0xb
 2161 003d 3A       		.uleb128 0x3a
 2162 003e 0B       		.uleb128 0xb
 2163 003f 3B       		.uleb128 0x3b
 2164 0040 0B       		.uleb128 0xb
 2165 0041 01       		.uleb128 0x1
 2166 0042 13       		.uleb128 0x13
 2167 0043 00       		.byte	0
 2168 0044 00       		.byte	0
 2169 0045 06       		.uleb128 0x6
 2170 0046 0D       		.uleb128 0xd
 2171 0047 00       		.byte	0
 2172 0048 03       		.uleb128 0x3
 2173 0049 0E       		.uleb128 0xe
 2174 004a 3A       		.uleb128 0x3a
 2175 004b 0B       		.uleb128 0xb
 2176 004c 3B       		.uleb128 0x3b
 2177 004d 0B       		.uleb128 0xb
 2178 004e 49       		.uleb128 0x49
 2179 004f 13       		.uleb128 0x13
 2180 0050 38       		.uleb128 0x38
 2181 0051 0B       		.uleb128 0xb
 2182 0052 00       		.byte	0
 2183 0053 00       		.byte	0
 2184 0054 07       		.uleb128 0x7
 2185 0055 0D       		.uleb128 0xd
 2186 0056 00       		.byte	0
 2187 0057 03       		.uleb128 0x3
 2188 0058 08       		.uleb128 0x8
 2189 0059 3A       		.uleb128 0x3a
 2190 005a 0B       		.uleb128 0xb
 2191 005b 3B       		.uleb128 0x3b
 2192 005c 0B       		.uleb128 0xb
 2193 005d 49       		.uleb128 0x49
 2194 005e 13       		.uleb128 0x13
 2195 005f 38       		.uleb128 0x38
 2196 0060 0B       		.uleb128 0xb
 2197 0061 00       		.byte	0
 2198 0062 00       		.byte	0
 2199 0063 08       		.uleb128 0x8
 2200 0064 0D       		.uleb128 0xd
 2201 0065 00       		.byte	0
 2202 0066 03       		.uleb128 0x3
 2203 0067 08       		.uleb128 0x8
 2204 0068 3A       		.uleb128 0x3a
ARM GAS  /tmp/cc2bmhpq.s 			page 71


 2205 0069 0B       		.uleb128 0xb
 2206 006a 3B       		.uleb128 0x3b
 2207 006b 05       		.uleb128 0x5
 2208 006c 49       		.uleb128 0x49
 2209 006d 13       		.uleb128 0x13
 2210 006e 38       		.uleb128 0x38
 2211 006f 0B       		.uleb128 0xb
 2212 0070 00       		.byte	0
 2213 0071 00       		.byte	0
 2214 0072 09       		.uleb128 0x9
 2215 0073 0D       		.uleb128 0xd
 2216 0074 00       		.byte	0
 2217 0075 03       		.uleb128 0x3
 2218 0076 0E       		.uleb128 0xe
 2219 0077 3A       		.uleb128 0x3a
 2220 0078 0B       		.uleb128 0xb
 2221 0079 3B       		.uleb128 0x3b
 2222 007a 05       		.uleb128 0x5
 2223 007b 49       		.uleb128 0x49
 2224 007c 13       		.uleb128 0x13
 2225 007d 38       		.uleb128 0x38
 2226 007e 0B       		.uleb128 0xb
 2227 007f 00       		.byte	0
 2228 0080 00       		.byte	0
 2229 0081 0A       		.uleb128 0xa
 2230 0082 0F       		.uleb128 0xf
 2231 0083 00       		.byte	0
 2232 0084 0B       		.uleb128 0xb
 2233 0085 0B       		.uleb128 0xb
 2234 0086 49       		.uleb128 0x49
 2235 0087 13       		.uleb128 0x13
 2236 0088 00       		.byte	0
 2237 0089 00       		.byte	0
 2238 008a 0B       		.uleb128 0xb
 2239 008b 13       		.uleb128 0x13
 2240 008c 01       		.byte	0x1
 2241 008d 03       		.uleb128 0x3
 2242 008e 0E       		.uleb128 0xe
 2243 008f 0B       		.uleb128 0xb
 2244 0090 0B       		.uleb128 0xb
 2245 0091 3A       		.uleb128 0x3a
 2246 0092 0B       		.uleb128 0xb
 2247 0093 3B       		.uleb128 0x3b
 2248 0094 05       		.uleb128 0x5
 2249 0095 01       		.uleb128 0x1
 2250 0096 13       		.uleb128 0x13
 2251 0097 00       		.byte	0
 2252 0098 00       		.byte	0
 2253 0099 0C       		.uleb128 0xc
 2254 009a 15       		.uleb128 0x15
 2255 009b 01       		.byte	0x1
 2256 009c 27       		.uleb128 0x27
 2257 009d 19       		.uleb128 0x19
 2258 009e 01       		.uleb128 0x1
 2259 009f 13       		.uleb128 0x13
 2260 00a0 00       		.byte	0
 2261 00a1 00       		.byte	0
ARM GAS  /tmp/cc2bmhpq.s 			page 72


 2262 00a2 0D       		.uleb128 0xd
 2263 00a3 05       		.uleb128 0x5
 2264 00a4 00       		.byte	0
 2265 00a5 49       		.uleb128 0x49
 2266 00a6 13       		.uleb128 0x13
 2267 00a7 00       		.byte	0
 2268 00a8 00       		.byte	0
 2269 00a9 0E       		.uleb128 0xe
 2270 00aa 0F       		.uleb128 0xf
 2271 00ab 00       		.byte	0
 2272 00ac 0B       		.uleb128 0xb
 2273 00ad 0B       		.uleb128 0xb
 2274 00ae 00       		.byte	0
 2275 00af 00       		.byte	0
 2276 00b0 0F       		.uleb128 0xf
 2277 00b1 35       		.uleb128 0x35
 2278 00b2 00       		.byte	0
 2279 00b3 49       		.uleb128 0x49
 2280 00b4 13       		.uleb128 0x13
 2281 00b5 00       		.byte	0
 2282 00b6 00       		.byte	0
 2283 00b7 10       		.uleb128 0x10
 2284 00b8 01       		.uleb128 0x1
 2285 00b9 01       		.byte	0x1
 2286 00ba 49       		.uleb128 0x49
 2287 00bb 13       		.uleb128 0x13
 2288 00bc 01       		.uleb128 0x1
 2289 00bd 13       		.uleb128 0x13
 2290 00be 00       		.byte	0
 2291 00bf 00       		.byte	0
 2292 00c0 11       		.uleb128 0x11
 2293 00c1 21       		.uleb128 0x21
 2294 00c2 00       		.byte	0
 2295 00c3 49       		.uleb128 0x49
 2296 00c4 13       		.uleb128 0x13
 2297 00c5 2F       		.uleb128 0x2f
 2298 00c6 0B       		.uleb128 0xb
 2299 00c7 00       		.byte	0
 2300 00c8 00       		.byte	0
 2301 00c9 12       		.uleb128 0x12
 2302 00ca 13       		.uleb128 0x13
 2303 00cb 01       		.byte	0x1
 2304 00cc 0B       		.uleb128 0xb
 2305 00cd 0B       		.uleb128 0xb
 2306 00ce 3A       		.uleb128 0x3a
 2307 00cf 0B       		.uleb128 0xb
 2308 00d0 3B       		.uleb128 0x3b
 2309 00d1 05       		.uleb128 0x5
 2310 00d2 01       		.uleb128 0x1
 2311 00d3 13       		.uleb128 0x13
 2312 00d4 00       		.byte	0
 2313 00d5 00       		.byte	0
 2314 00d6 13       		.uleb128 0x13
 2315 00d7 16       		.uleb128 0x16
 2316 00d8 00       		.byte	0
 2317 00d9 03       		.uleb128 0x3
 2318 00da 0E       		.uleb128 0xe
ARM GAS  /tmp/cc2bmhpq.s 			page 73


 2319 00db 3A       		.uleb128 0x3a
 2320 00dc 0B       		.uleb128 0xb
 2321 00dd 3B       		.uleb128 0x3b
 2322 00de 05       		.uleb128 0x5
 2323 00df 49       		.uleb128 0x49
 2324 00e0 13       		.uleb128 0x13
 2325 00e1 00       		.byte	0
 2326 00e2 00       		.byte	0
 2327 00e3 14       		.uleb128 0x14
 2328 00e4 17       		.uleb128 0x17
 2329 00e5 01       		.byte	0x1
 2330 00e6 0B       		.uleb128 0xb
 2331 00e7 0B       		.uleb128 0xb
 2332 00e8 3A       		.uleb128 0x3a
 2333 00e9 0B       		.uleb128 0xb
 2334 00ea 3B       		.uleb128 0x3b
 2335 00eb 0B       		.uleb128 0xb
 2336 00ec 01       		.uleb128 0x1
 2337 00ed 13       		.uleb128 0x13
 2338 00ee 00       		.byte	0
 2339 00ef 00       		.byte	0
 2340 00f0 15       		.uleb128 0x15
 2341 00f1 0D       		.uleb128 0xd
 2342 00f2 00       		.byte	0
 2343 00f3 03       		.uleb128 0x3
 2344 00f4 0E       		.uleb128 0xe
 2345 00f5 3A       		.uleb128 0x3a
 2346 00f6 0B       		.uleb128 0xb
 2347 00f7 3B       		.uleb128 0x3b
 2348 00f8 0B       		.uleb128 0xb
 2349 00f9 49       		.uleb128 0x49
 2350 00fa 13       		.uleb128 0x13
 2351 00fb 00       		.byte	0
 2352 00fc 00       		.byte	0
 2353 00fd 16       		.uleb128 0x16
 2354 00fe 0D       		.uleb128 0xd
 2355 00ff 00       		.byte	0
 2356 0100 03       		.uleb128 0x3
 2357 0101 0E       		.uleb128 0xe
 2358 0102 3A       		.uleb128 0x3a
 2359 0103 0B       		.uleb128 0xb
 2360 0104 3B       		.uleb128 0x3b
 2361 0105 05       		.uleb128 0x5
 2362 0106 49       		.uleb128 0x49
 2363 0107 13       		.uleb128 0x13
 2364 0108 00       		.byte	0
 2365 0109 00       		.byte	0
 2366 010a 17       		.uleb128 0x17
 2367 010b 26       		.uleb128 0x26
 2368 010c 00       		.byte	0
 2369 010d 49       		.uleb128 0x49
 2370 010e 13       		.uleb128 0x13
 2371 010f 00       		.byte	0
 2372 0110 00       		.byte	0
 2373 0111 18       		.uleb128 0x18
 2374 0112 2E       		.uleb128 0x2e
 2375 0113 00       		.byte	0
ARM GAS  /tmp/cc2bmhpq.s 			page 74


 2376 0114 03       		.uleb128 0x3
 2377 0115 0E       		.uleb128 0xe
 2378 0116 3A       		.uleb128 0x3a
 2379 0117 0B       		.uleb128 0xb
 2380 0118 3B       		.uleb128 0x3b
 2381 0119 0B       		.uleb128 0xb
 2382 011a 27       		.uleb128 0x27
 2383 011b 19       		.uleb128 0x19
 2384 011c 49       		.uleb128 0x49
 2385 011d 13       		.uleb128 0x13
 2386 011e 20       		.uleb128 0x20
 2387 011f 0B       		.uleb128 0xb
 2388 0120 00       		.byte	0
 2389 0121 00       		.byte	0
 2390 0122 19       		.uleb128 0x19
 2391 0123 2E       		.uleb128 0x2e
 2392 0124 01       		.byte	0x1
 2393 0125 03       		.uleb128 0x3
 2394 0126 0E       		.uleb128 0xe
 2395 0127 3A       		.uleb128 0x3a
 2396 0128 0B       		.uleb128 0xb
 2397 0129 3B       		.uleb128 0x3b
 2398 012a 0B       		.uleb128 0xb
 2399 012b 27       		.uleb128 0x27
 2400 012c 19       		.uleb128 0x19
 2401 012d 20       		.uleb128 0x20
 2402 012e 0B       		.uleb128 0xb
 2403 012f 01       		.uleb128 0x1
 2404 0130 13       		.uleb128 0x13
 2405 0131 00       		.byte	0
 2406 0132 00       		.byte	0
 2407 0133 1A       		.uleb128 0x1a
 2408 0134 05       		.uleb128 0x5
 2409 0135 00       		.byte	0
 2410 0136 03       		.uleb128 0x3
 2411 0137 0E       		.uleb128 0xe
 2412 0138 3A       		.uleb128 0x3a
 2413 0139 0B       		.uleb128 0xb
 2414 013a 3B       		.uleb128 0x3b
 2415 013b 0B       		.uleb128 0xb
 2416 013c 49       		.uleb128 0x49
 2417 013d 13       		.uleb128 0x13
 2418 013e 00       		.byte	0
 2419 013f 00       		.byte	0
 2420 0140 1B       		.uleb128 0x1b
 2421 0141 2E       		.uleb128 0x2e
 2422 0142 00       		.byte	0
 2423 0143 03       		.uleb128 0x3
 2424 0144 0E       		.uleb128 0xe
 2425 0145 3A       		.uleb128 0x3a
 2426 0146 0B       		.uleb128 0xb
 2427 0147 3B       		.uleb128 0x3b
 2428 0148 0B       		.uleb128 0xb
 2429 0149 27       		.uleb128 0x27
 2430 014a 19       		.uleb128 0x19
 2431 014b 20       		.uleb128 0x20
 2432 014c 0B       		.uleb128 0xb
ARM GAS  /tmp/cc2bmhpq.s 			page 75


 2433 014d 00       		.byte	0
 2434 014e 00       		.byte	0
 2435 014f 1C       		.uleb128 0x1c
 2436 0150 2E       		.uleb128 0x2e
 2437 0151 01       		.byte	0x1
 2438 0152 3F       		.uleb128 0x3f
 2439 0153 19       		.uleb128 0x19
 2440 0154 03       		.uleb128 0x3
 2441 0155 0E       		.uleb128 0xe
 2442 0156 3A       		.uleb128 0x3a
 2443 0157 0B       		.uleb128 0xb
 2444 0158 3B       		.uleb128 0x3b
 2445 0159 0B       		.uleb128 0xb
 2446 015a 27       		.uleb128 0x27
 2447 015b 19       		.uleb128 0x19
 2448 015c 20       		.uleb128 0x20
 2449 015d 0B       		.uleb128 0xb
 2450 015e 01       		.uleb128 0x1
 2451 015f 13       		.uleb128 0x13
 2452 0160 00       		.byte	0
 2453 0161 00       		.byte	0
 2454 0162 1D       		.uleb128 0x1d
 2455 0163 05       		.uleb128 0x5
 2456 0164 00       		.byte	0
 2457 0165 03       		.uleb128 0x3
 2458 0166 08       		.uleb128 0x8
 2459 0167 3A       		.uleb128 0x3a
 2460 0168 0B       		.uleb128 0xb
 2461 0169 3B       		.uleb128 0x3b
 2462 016a 0B       		.uleb128 0xb
 2463 016b 49       		.uleb128 0x49
 2464 016c 13       		.uleb128 0x13
 2465 016d 00       		.byte	0
 2466 016e 00       		.byte	0
 2467 016f 1E       		.uleb128 0x1e
 2468 0170 34       		.uleb128 0x34
 2469 0171 00       		.byte	0
 2470 0172 03       		.uleb128 0x3
 2471 0173 0E       		.uleb128 0xe
 2472 0174 49       		.uleb128 0x49
 2473 0175 13       		.uleb128 0x13
 2474 0176 34       		.uleb128 0x34
 2475 0177 19       		.uleb128 0x19
 2476 0178 1C       		.uleb128 0x1c
 2477 0179 0E       		.uleb128 0xe
 2478 017a 00       		.byte	0
 2479 017b 00       		.byte	0
 2480 017c 1F       		.uleb128 0x1f
 2481 017d 34       		.uleb128 0x34
 2482 017e 00       		.byte	0
 2483 017f 03       		.uleb128 0x3
 2484 0180 0E       		.uleb128 0xe
 2485 0181 3A       		.uleb128 0x3a
 2486 0182 0B       		.uleb128 0xb
 2487 0183 3B       		.uleb128 0x3b
 2488 0184 0B       		.uleb128 0xb
 2489 0185 49       		.uleb128 0x49
ARM GAS  /tmp/cc2bmhpq.s 			page 76


 2490 0186 13       		.uleb128 0x13
 2491 0187 00       		.byte	0
 2492 0188 00       		.byte	0
 2493 0189 20       		.uleb128 0x20
 2494 018a 2E       		.uleb128 0x2e
 2495 018b 00       		.byte	0
 2496 018c 3F       		.uleb128 0x3f
 2497 018d 19       		.uleb128 0x19
 2498 018e 03       		.uleb128 0x3
 2499 018f 0E       		.uleb128 0xe
 2500 0190 3A       		.uleb128 0x3a
 2501 0191 0B       		.uleb128 0xb
 2502 0192 3B       		.uleb128 0x3b
 2503 0193 0B       		.uleb128 0xb
 2504 0194 27       		.uleb128 0x27
 2505 0195 19       		.uleb128 0x19
 2506 0196 11       		.uleb128 0x11
 2507 0197 01       		.uleb128 0x1
 2508 0198 12       		.uleb128 0x12
 2509 0199 06       		.uleb128 0x6
 2510 019a 40       		.uleb128 0x40
 2511 019b 18       		.uleb128 0x18
 2512 019c 9742     		.uleb128 0x2117
 2513 019e 19       		.uleb128 0x19
 2514 019f 00       		.byte	0
 2515 01a0 00       		.byte	0
 2516 01a1 21       		.uleb128 0x21
 2517 01a2 2E       		.uleb128 0x2e
 2518 01a3 01       		.byte	0x1
 2519 01a4 3F       		.uleb128 0x3f
 2520 01a5 19       		.uleb128 0x19
 2521 01a6 03       		.uleb128 0x3
 2522 01a7 0E       		.uleb128 0xe
 2523 01a8 3A       		.uleb128 0x3a
 2524 01a9 0B       		.uleb128 0xb
 2525 01aa 3B       		.uleb128 0x3b
 2526 01ab 0B       		.uleb128 0xb
 2527 01ac 27       		.uleb128 0x27
 2528 01ad 19       		.uleb128 0x19
 2529 01ae 11       		.uleb128 0x11
 2530 01af 01       		.uleb128 0x1
 2531 01b0 12       		.uleb128 0x12
 2532 01b1 06       		.uleb128 0x6
 2533 01b2 40       		.uleb128 0x40
 2534 01b3 18       		.uleb128 0x18
 2535 01b4 9742     		.uleb128 0x2117
 2536 01b6 19       		.uleb128 0x19
 2537 01b7 01       		.uleb128 0x1
 2538 01b8 13       		.uleb128 0x13
 2539 01b9 00       		.byte	0
 2540 01ba 00       		.byte	0
 2541 01bb 22       		.uleb128 0x22
 2542 01bc 05       		.uleb128 0x5
 2543 01bd 00       		.byte	0
 2544 01be 03       		.uleb128 0x3
 2545 01bf 08       		.uleb128 0x8
 2546 01c0 3A       		.uleb128 0x3a
ARM GAS  /tmp/cc2bmhpq.s 			page 77


 2547 01c1 0B       		.uleb128 0xb
 2548 01c2 3B       		.uleb128 0x3b
 2549 01c3 0B       		.uleb128 0xb
 2550 01c4 49       		.uleb128 0x49
 2551 01c5 13       		.uleb128 0x13
 2552 01c6 02       		.uleb128 0x2
 2553 01c7 17       		.uleb128 0x17
 2554 01c8 00       		.byte	0
 2555 01c9 00       		.byte	0
 2556 01ca 23       		.uleb128 0x23
 2557 01cb 05       		.uleb128 0x5
 2558 01cc 00       		.byte	0
 2559 01cd 03       		.uleb128 0x3
 2560 01ce 0E       		.uleb128 0xe
 2561 01cf 3A       		.uleb128 0x3a
 2562 01d0 0B       		.uleb128 0xb
 2563 01d1 3B       		.uleb128 0x3b
 2564 01d2 0B       		.uleb128 0xb
 2565 01d3 49       		.uleb128 0x49
 2566 01d4 13       		.uleb128 0x13
 2567 01d5 02       		.uleb128 0x2
 2568 01d6 17       		.uleb128 0x17
 2569 01d7 00       		.byte	0
 2570 01d8 00       		.byte	0
 2571 01d9 24       		.uleb128 0x24
 2572 01da 34       		.uleb128 0x34
 2573 01db 00       		.byte	0
 2574 01dc 03       		.uleb128 0x3
 2575 01dd 08       		.uleb128 0x8
 2576 01de 3A       		.uleb128 0x3a
 2577 01df 0B       		.uleb128 0xb
 2578 01e0 3B       		.uleb128 0x3b
 2579 01e1 0B       		.uleb128 0xb
 2580 01e2 49       		.uleb128 0x49
 2581 01e3 13       		.uleb128 0x13
 2582 01e4 02       		.uleb128 0x2
 2583 01e5 17       		.uleb128 0x17
 2584 01e6 00       		.byte	0
 2585 01e7 00       		.byte	0
 2586 01e8 25       		.uleb128 0x25
 2587 01e9 34       		.uleb128 0x34
 2588 01ea 00       		.byte	0
 2589 01eb 03       		.uleb128 0x3
 2590 01ec 0E       		.uleb128 0xe
 2591 01ed 3A       		.uleb128 0x3a
 2592 01ee 0B       		.uleb128 0xb
 2593 01ef 3B       		.uleb128 0x3b
 2594 01f0 0B       		.uleb128 0xb
 2595 01f1 49       		.uleb128 0x49
 2596 01f2 13       		.uleb128 0x13
 2597 01f3 02       		.uleb128 0x2
 2598 01f4 17       		.uleb128 0x17
 2599 01f5 00       		.byte	0
 2600 01f6 00       		.byte	0
 2601 01f7 26       		.uleb128 0x26
 2602 01f8 34       		.uleb128 0x34
 2603 01f9 00       		.byte	0
ARM GAS  /tmp/cc2bmhpq.s 			page 78


 2604 01fa 03       		.uleb128 0x3
 2605 01fb 0E       		.uleb128 0xe
 2606 01fc 49       		.uleb128 0x49
 2607 01fd 13       		.uleb128 0x13
 2608 01fe 34       		.uleb128 0x34
 2609 01ff 19       		.uleb128 0x19
 2610 0200 00       		.byte	0
 2611 0201 00       		.byte	0
 2612 0202 27       		.uleb128 0x27
 2613 0203 0B       		.uleb128 0xb
 2614 0204 01       		.byte	0x1
 2615 0205 55       		.uleb128 0x55
 2616 0206 17       		.uleb128 0x17
 2617 0207 00       		.byte	0
 2618 0208 00       		.byte	0
 2619 0209 28       		.uleb128 0x28
 2620 020a 34       		.uleb128 0x34
 2621 020b 00       		.byte	0
 2622 020c 03       		.uleb128 0x3
 2623 020d 08       		.uleb128 0x8
 2624 020e 3A       		.uleb128 0x3a
 2625 020f 0B       		.uleb128 0xb
 2626 0210 3B       		.uleb128 0x3b
 2627 0211 0B       		.uleb128 0xb
 2628 0212 49       		.uleb128 0x49
 2629 0213 13       		.uleb128 0x13
 2630 0214 00       		.byte	0
 2631 0215 00       		.byte	0
 2632 0216 29       		.uleb128 0x29
 2633 0217 1D       		.uleb128 0x1d
 2634 0218 01       		.byte	0x1
 2635 0219 31       		.uleb128 0x31
 2636 021a 13       		.uleb128 0x13
 2637 021b 52       		.uleb128 0x52
 2638 021c 01       		.uleb128 0x1
 2639 021d 55       		.uleb128 0x55
 2640 021e 17       		.uleb128 0x17
 2641 021f 58       		.uleb128 0x58
 2642 0220 0B       		.uleb128 0xb
 2643 0221 59       		.uleb128 0x59
 2644 0222 0B       		.uleb128 0xb
 2645 0223 01       		.uleb128 0x1
 2646 0224 13       		.uleb128 0x13
 2647 0225 00       		.byte	0
 2648 0226 00       		.byte	0
 2649 0227 2A       		.uleb128 0x2a
 2650 0228 1D       		.uleb128 0x1d
 2651 0229 01       		.byte	0x1
 2652 022a 31       		.uleb128 0x31
 2653 022b 13       		.uleb128 0x13
 2654 022c 52       		.uleb128 0x52
 2655 022d 01       		.uleb128 0x1
 2656 022e 55       		.uleb128 0x55
 2657 022f 17       		.uleb128 0x17
 2658 0230 58       		.uleb128 0x58
 2659 0231 0B       		.uleb128 0xb
 2660 0232 59       		.uleb128 0x59
ARM GAS  /tmp/cc2bmhpq.s 			page 79


 2661 0233 0B       		.uleb128 0xb
 2662 0234 00       		.byte	0
 2663 0235 00       		.byte	0
 2664 0236 2B       		.uleb128 0x2b
 2665 0237 1D       		.uleb128 0x1d
 2666 0238 00       		.byte	0
 2667 0239 31       		.uleb128 0x31
 2668 023a 13       		.uleb128 0x13
 2669 023b 52       		.uleb128 0x52
 2670 023c 01       		.uleb128 0x1
 2671 023d 55       		.uleb128 0x55
 2672 023e 17       		.uleb128 0x17
 2673 023f 58       		.uleb128 0x58
 2674 0240 0B       		.uleb128 0xb
 2675 0241 59       		.uleb128 0x59
 2676 0242 0B       		.uleb128 0xb
 2677 0243 00       		.byte	0
 2678 0244 00       		.byte	0
 2679 0245 2C       		.uleb128 0x2c
 2680 0246 1D       		.uleb128 0x1d
 2681 0247 01       		.byte	0x1
 2682 0248 31       		.uleb128 0x31
 2683 0249 13       		.uleb128 0x13
 2684 024a 11       		.uleb128 0x11
 2685 024b 01       		.uleb128 0x1
 2686 024c 12       		.uleb128 0x12
 2687 024d 06       		.uleb128 0x6
 2688 024e 58       		.uleb128 0x58
 2689 024f 0B       		.uleb128 0xb
 2690 0250 59       		.uleb128 0x59
 2691 0251 0B       		.uleb128 0xb
 2692 0252 01       		.uleb128 0x1
 2693 0253 13       		.uleb128 0x13
 2694 0254 00       		.byte	0
 2695 0255 00       		.byte	0
 2696 0256 2D       		.uleb128 0x2d
 2697 0257 05       		.uleb128 0x5
 2698 0258 00       		.byte	0
 2699 0259 31       		.uleb128 0x31
 2700 025a 13       		.uleb128 0x13
 2701 025b 02       		.uleb128 0x2
 2702 025c 17       		.uleb128 0x17
 2703 025d 00       		.byte	0
 2704 025e 00       		.byte	0
 2705 025f 2E       		.uleb128 0x2e
 2706 0260 898201   		.uleb128 0x4109
 2707 0263 00       		.byte	0
 2708 0264 11       		.uleb128 0x11
 2709 0265 01       		.uleb128 0x1
 2710 0266 31       		.uleb128 0x31
 2711 0267 13       		.uleb128 0x13
 2712 0268 00       		.byte	0
 2713 0269 00       		.byte	0
 2714 026a 2F       		.uleb128 0x2f
 2715 026b 05       		.uleb128 0x5
 2716 026c 00       		.byte	0
 2717 026d 31       		.uleb128 0x31
ARM GAS  /tmp/cc2bmhpq.s 			page 80


 2718 026e 13       		.uleb128 0x13
 2719 026f 00       		.byte	0
 2720 0270 00       		.byte	0
 2721 0271 30       		.uleb128 0x30
 2722 0272 2E       		.uleb128 0x2e
 2723 0273 01       		.byte	0x1
 2724 0274 31       		.uleb128 0x31
 2725 0275 13       		.uleb128 0x13
 2726 0276 11       		.uleb128 0x11
 2727 0277 01       		.uleb128 0x1
 2728 0278 12       		.uleb128 0x12
 2729 0279 06       		.uleb128 0x6
 2730 027a 40       		.uleb128 0x40
 2731 027b 18       		.uleb128 0x18
 2732 027c 9742     		.uleb128 0x2117
 2733 027e 19       		.uleb128 0x19
 2734 027f 01       		.uleb128 0x1
 2735 0280 13       		.uleb128 0x13
 2736 0281 00       		.byte	0
 2737 0282 00       		.byte	0
 2738 0283 31       		.uleb128 0x31
 2739 0284 34       		.uleb128 0x34
 2740 0285 00       		.byte	0
 2741 0286 31       		.uleb128 0x31
 2742 0287 13       		.uleb128 0x13
 2743 0288 00       		.byte	0
 2744 0289 00       		.byte	0
 2745 028a 32       		.uleb128 0x32
 2746 028b 0B       		.uleb128 0xb
 2747 028c 01       		.byte	0x1
 2748 028d 11       		.uleb128 0x11
 2749 028e 01       		.uleb128 0x1
 2750 028f 12       		.uleb128 0x12
 2751 0290 06       		.uleb128 0x6
 2752 0291 00       		.byte	0
 2753 0292 00       		.byte	0
 2754 0293 33       		.uleb128 0x33
 2755 0294 34       		.uleb128 0x34
 2756 0295 00       		.byte	0
 2757 0296 31       		.uleb128 0x31
 2758 0297 13       		.uleb128 0x13
 2759 0298 02       		.uleb128 0x2
 2760 0299 17       		.uleb128 0x17
 2761 029a 00       		.byte	0
 2762 029b 00       		.byte	0
 2763 029c 34       		.uleb128 0x34
 2764 029d 1D       		.uleb128 0x1d
 2765 029e 01       		.byte	0x1
 2766 029f 31       		.uleb128 0x31
 2767 02a0 13       		.uleb128 0x13
 2768 02a1 11       		.uleb128 0x11
 2769 02a2 01       		.uleb128 0x1
 2770 02a3 12       		.uleb128 0x12
 2771 02a4 06       		.uleb128 0x6
 2772 02a5 58       		.uleb128 0x58
 2773 02a6 0B       		.uleb128 0xb
 2774 02a7 59       		.uleb128 0x59
ARM GAS  /tmp/cc2bmhpq.s 			page 81


 2775 02a8 0B       		.uleb128 0xb
 2776 02a9 00       		.byte	0
 2777 02aa 00       		.byte	0
 2778 02ab 35       		.uleb128 0x35
 2779 02ac 34       		.uleb128 0x34
 2780 02ad 00       		.byte	0
 2781 02ae 03       		.uleb128 0x3
 2782 02af 08       		.uleb128 0x8
 2783 02b0 3A       		.uleb128 0x3a
 2784 02b1 0B       		.uleb128 0xb
 2785 02b2 3B       		.uleb128 0x3b
 2786 02b3 05       		.uleb128 0x5
 2787 02b4 49       		.uleb128 0x49
 2788 02b5 13       		.uleb128 0x13
 2789 02b6 3F       		.uleb128 0x3f
 2790 02b7 19       		.uleb128 0x19
 2791 02b8 3C       		.uleb128 0x3c
 2792 02b9 19       		.uleb128 0x19
 2793 02ba 00       		.byte	0
 2794 02bb 00       		.byte	0
 2795 02bc 36       		.uleb128 0x36
 2796 02bd 2E       		.uleb128 0x2e
 2797 02be 01       		.byte	0x1
 2798 02bf 3F       		.uleb128 0x3f
 2799 02c0 19       		.uleb128 0x19
 2800 02c1 03       		.uleb128 0x3
 2801 02c2 0E       		.uleb128 0xe
 2802 02c3 3A       		.uleb128 0x3a
 2803 02c4 0B       		.uleb128 0xb
 2804 02c5 3B       		.uleb128 0x3b
 2805 02c6 0B       		.uleb128 0xb
 2806 02c7 27       		.uleb128 0x27
 2807 02c8 19       		.uleb128 0x19
 2808 02c9 3C       		.uleb128 0x3c
 2809 02ca 19       		.uleb128 0x19
 2810 02cb 01       		.uleb128 0x1
 2811 02cc 13       		.uleb128 0x13
 2812 02cd 00       		.byte	0
 2813 02ce 00       		.byte	0
 2814 02cf 37       		.uleb128 0x37
 2815 02d0 2E       		.uleb128 0x2e
 2816 02d1 00       		.byte	0
 2817 02d2 3F       		.uleb128 0x3f
 2818 02d3 19       		.uleb128 0x19
 2819 02d4 03       		.uleb128 0x3
 2820 02d5 0E       		.uleb128 0xe
 2821 02d6 3A       		.uleb128 0x3a
 2822 02d7 0B       		.uleb128 0xb
 2823 02d8 3B       		.uleb128 0x3b
 2824 02d9 0B       		.uleb128 0xb
 2825 02da 27       		.uleb128 0x27
 2826 02db 19       		.uleb128 0x19
 2827 02dc 3C       		.uleb128 0x3c
 2828 02dd 19       		.uleb128 0x19
 2829 02de 00       		.byte	0
 2830 02df 00       		.byte	0
 2831 02e0 00       		.byte	0
ARM GAS  /tmp/cc2bmhpq.s 			page 82


 2832              		.section	.debug_loc,"",%progbits
 2833              	.Ldebug_loc0:
 2834              	.LLST0:
 2835 0000 00000000 		.4byte	.LVL0
 2836 0004 0C000000 		.4byte	.LVL2
 2837 0008 0100     		.2byte	0x1
 2838 000a 50       		.byte	0x50
 2839 000b 0C000000 		.4byte	.LVL2
 2840 000f 5A000000 		.4byte	.LVL14
 2841 0013 0100     		.2byte	0x1
 2842 0015 55       		.byte	0x55
 2843 0016 5A000000 		.4byte	.LVL14
 2844 001a 5C000000 		.4byte	.LVL15
 2845 001e 0400     		.2byte	0x4
 2846 0020 F3       		.byte	0xf3
 2847 0021 01       		.uleb128 0x1
 2848 0022 50       		.byte	0x50
 2849 0023 9F       		.byte	0x9f
 2850 0024 5C000000 		.4byte	.LVL15
 2851 0028 84000000 		.4byte	.LFE150
 2852 002c 0100     		.2byte	0x1
 2853 002e 55       		.byte	0x55
 2854 002f 00000000 		.4byte	0
 2855 0033 00000000 		.4byte	0
 2856              	.LLST1:
 2857 0037 00000000 		.4byte	.LVL0
 2858 003b 12000000 		.4byte	.LVL3
 2859 003f 0100     		.2byte	0x1
 2860 0041 51       		.byte	0x51
 2861 0042 12000000 		.4byte	.LVL3
 2862 0046 2E000000 		.4byte	.LVL6
 2863 004a 0100     		.2byte	0x1
 2864 004c 51       		.byte	0x51
 2865 004d 5C000000 		.4byte	.LVL15
 2866 0051 5F000000 		.4byte	.LVL16-1
 2867 0055 0100     		.2byte	0x1
 2868 0057 51       		.byte	0x51
 2869 0058 62000000 		.4byte	.LVL17
 2870 005c 64000000 		.4byte	.LVL18
 2871 0060 0100     		.2byte	0x1
 2872 0062 51       		.byte	0x51
 2873 0063 64000000 		.4byte	.LVL18
 2874 0067 66000000 		.4byte	.LVL19
 2875 006b 0400     		.2byte	0x4
 2876 006d F3       		.byte	0xf3
 2877 006e 01       		.uleb128 0x1
 2878 006f 51       		.byte	0x51
 2879 0070 9F       		.byte	0x9f
 2880 0071 66000000 		.4byte	.LVL19
 2881 0075 79000000 		.4byte	.LVL20-1
 2882 0079 0100     		.2byte	0x1
 2883 007b 51       		.byte	0x51
 2884 007c 00000000 		.4byte	0
 2885 0080 00000000 		.4byte	0
 2886              	.LLST2:
 2887 0084 00000000 		.4byte	.LVL0
 2888 0088 16000000 		.4byte	.LVL4
ARM GAS  /tmp/cc2bmhpq.s 			page 83


 2889 008c 0100     		.2byte	0x1
 2890 008e 52       		.byte	0x52
 2891 008f 16000000 		.4byte	.LVL4
 2892 0093 2E000000 		.4byte	.LVL6
 2893 0097 0200     		.2byte	0x2
 2894 0099 75       		.byte	0x75
 2895 009a 0C       		.sleb128 12
 2896 009b 2E000000 		.4byte	.LVL6
 2897 009f 5C000000 		.4byte	.LVL15
 2898 00a3 0400     		.2byte	0x4
 2899 00a5 F3       		.byte	0xf3
 2900 00a6 01       		.uleb128 0x1
 2901 00a7 52       		.byte	0x52
 2902 00a8 9F       		.byte	0x9f
 2903 00a9 5C000000 		.4byte	.LVL15
 2904 00ad 5F000000 		.4byte	.LVL16-1
 2905 00b1 0200     		.2byte	0x2
 2906 00b3 75       		.byte	0x75
 2907 00b4 0C       		.sleb128 12
 2908 00b5 5F000000 		.4byte	.LVL16-1
 2909 00b9 62000000 		.4byte	.LVL17
 2910 00bd 0400     		.2byte	0x4
 2911 00bf F3       		.byte	0xf3
 2912 00c0 01       		.uleb128 0x1
 2913 00c1 52       		.byte	0x52
 2914 00c2 9F       		.byte	0x9f
 2915 00c3 62000000 		.4byte	.LVL17
 2916 00c7 66000000 		.4byte	.LVL19
 2917 00cb 0100     		.2byte	0x1
 2918 00cd 52       		.byte	0x52
 2919 00ce 66000000 		.4byte	.LVL19
 2920 00d2 79000000 		.4byte	.LVL20-1
 2921 00d6 0200     		.2byte	0x2
 2922 00d8 75       		.byte	0x75
 2923 00d9 0C       		.sleb128 12
 2924 00da 79000000 		.4byte	.LVL20-1
 2925 00de 84000000 		.4byte	.LFE150
 2926 00e2 0400     		.2byte	0x4
 2927 00e4 F3       		.byte	0xf3
 2928 00e5 01       		.uleb128 0x1
 2929 00e6 52       		.byte	0x52
 2930 00e7 9F       		.byte	0x9f
 2931 00e8 00000000 		.4byte	0
 2932 00ec 00000000 		.4byte	0
 2933              	.LLST3:
 2934 00f0 00000000 		.4byte	.LVL0
 2935 00f4 06000000 		.4byte	.LVL1
 2936 00f8 0100     		.2byte	0x1
 2937 00fa 53       		.byte	0x53
 2938 00fb 06000000 		.4byte	.LVL1
 2939 00ff 0C000000 		.4byte	.LVL2
 2940 0103 0200     		.2byte	0x2
 2941 0105 70       		.byte	0x70
 2942 0106 10       		.sleb128 16
 2943 0107 0C000000 		.4byte	.LVL2
 2944 010b 2E000000 		.4byte	.LVL6
 2945 010f 0200     		.2byte	0x2
ARM GAS  /tmp/cc2bmhpq.s 			page 84


 2946 0111 75       		.byte	0x75
 2947 0112 10       		.sleb128 16
 2948 0113 2E000000 		.4byte	.LVL6
 2949 0117 5C000000 		.4byte	.LVL15
 2950 011b 0400     		.2byte	0x4
 2951 011d F3       		.byte	0xf3
 2952 011e 01       		.uleb128 0x1
 2953 011f 53       		.byte	0x53
 2954 0120 9F       		.byte	0x9f
 2955 0121 5C000000 		.4byte	.LVL15
 2956 0125 5F000000 		.4byte	.LVL16-1
 2957 0129 0200     		.2byte	0x2
 2958 012b 75       		.byte	0x75
 2959 012c 10       		.sleb128 16
 2960 012d 5F000000 		.4byte	.LVL16-1
 2961 0131 62000000 		.4byte	.LVL17
 2962 0135 0400     		.2byte	0x4
 2963 0137 F3       		.byte	0xf3
 2964 0138 01       		.uleb128 0x1
 2965 0139 53       		.byte	0x53
 2966 013a 9F       		.byte	0x9f
 2967 013b 62000000 		.4byte	.LVL17
 2968 013f 79000000 		.4byte	.LVL20-1
 2969 0143 0200     		.2byte	0x2
 2970 0145 75       		.byte	0x75
 2971 0146 10       		.sleb128 16
 2972 0147 79000000 		.4byte	.LVL20-1
 2973 014b 84000000 		.4byte	.LFE150
 2974 014f 0400     		.2byte	0x4
 2975 0151 F3       		.byte	0xf3
 2976 0152 01       		.uleb128 0x1
 2977 0153 53       		.byte	0x53
 2978 0154 9F       		.byte	0x9f
 2979 0155 00000000 		.4byte	0
 2980 0159 00000000 		.4byte	0
 2981              	.LLST4:
 2982 015d 30000000 		.4byte	.LVL7
 2983 0161 38000000 		.4byte	.LVL9
 2984 0165 0100     		.2byte	0x1
 2985 0167 53       		.byte	0x53
 2986 0168 3E000000 		.4byte	.LVL11
 2987 016c 56000000 		.4byte	.LVL13
 2988 0170 0100     		.2byte	0x1
 2989 0172 53       		.byte	0x53
 2990 0173 00000000 		.4byte	0
 2991 0177 00000000 		.4byte	0
 2992              	.LLST5:
 2993 017b 2A000000 		.4byte	.LVL5
 2994 017f 3A000000 		.4byte	.LVL10
 2995 0183 0100     		.2byte	0x1
 2996 0185 54       		.byte	0x54
 2997 0186 3E000000 		.4byte	.LVL11
 2998 018a 42000000 		.4byte	.LVL12
 2999 018e 0100     		.2byte	0x1
 3000 0190 54       		.byte	0x54
 3001 0191 5C000000 		.4byte	.LVL15
 3002 0195 62000000 		.4byte	.LVL17
ARM GAS  /tmp/cc2bmhpq.s 			page 85


 3003 0199 0100     		.2byte	0x1
 3004 019b 54       		.byte	0x54
 3005 019c 00000000 		.4byte	0
 3006 01a0 00000000 		.4byte	0
 3007              	.LLST6:
 3008 01a4 5C000000 		.4byte	.LVL15
 3009 01a8 5F000000 		.4byte	.LVL16-1
 3010 01ac 0100     		.2byte	0x1
 3011 01ae 50       		.byte	0x50
 3012 01af 00000000 		.4byte	0
 3013 01b3 00000000 		.4byte	0
 3014              	.LLST7:
 3015 01b7 00000000 		.4byte	.LVL21
 3016 01bb 26000000 		.4byte	.LVL22
 3017 01bf 0100     		.2byte	0x1
 3018 01c1 50       		.byte	0x50
 3019 01c2 26000000 		.4byte	.LVL22
 3020 01c6 28000000 		.4byte	.LVL23
 3021 01ca 0400     		.2byte	0x4
 3022 01cc F3       		.byte	0xf3
 3023 01cd 01       		.uleb128 0x1
 3024 01ce 50       		.byte	0x50
 3025 01cf 9F       		.byte	0x9f
 3026 01d0 28000000 		.4byte	.LVL23
 3027 01d4 2C000000 		.4byte	.LVL24
 3028 01d8 0100     		.2byte	0x1
 3029 01da 50       		.byte	0x50
 3030 01db 2C000000 		.4byte	.LVL24
 3031 01df 78000000 		.4byte	.LFE151
 3032 01e3 0400     		.2byte	0x4
 3033 01e5 F3       		.byte	0xf3
 3034 01e6 01       		.uleb128 0x1
 3035 01e7 50       		.byte	0x50
 3036 01e8 9F       		.byte	0x9f
 3037 01e9 00000000 		.4byte	0
 3038 01ed 00000000 		.4byte	0
 3039              	.LLST8:
 3040 01f1 28000000 		.4byte	.LVL23
 3041 01f5 3E000000 		.4byte	.LVL25
 3042 01f9 0100     		.2byte	0x1
 3043 01fb 53       		.byte	0x53
 3044 01fc 6A000000 		.4byte	.LVL33
 3045 0200 6D000000 		.4byte	.LVL34-1
 3046 0204 0100     		.2byte	0x1
 3047 0206 53       		.byte	0x53
 3048 0207 00000000 		.4byte	0
 3049 020b 00000000 		.4byte	0
 3050              	.LLST9:
 3051 020f 50000000 		.4byte	.LVL26
 3052 0213 63000000 		.4byte	.LVL30-1
 3053 0217 0100     		.2byte	0x1
 3054 0219 52       		.byte	0x52
 3055 021a 66000000 		.4byte	.LVL31
 3056 021e 6A000000 		.4byte	.LVL33
 3057 0222 0100     		.2byte	0x1
 3058 0224 52       		.byte	0x52
 3059 0225 00000000 		.4byte	0
ARM GAS  /tmp/cc2bmhpq.s 			page 86


 3060 0229 00000000 		.4byte	0
 3061              	.LLST10:
 3062 022d 58000000 		.4byte	.LVL27
 3063 0231 5E000000 		.4byte	.LVL29
 3064 0235 0100     		.2byte	0x1
 3065 0237 53       		.byte	0x53
 3066 0238 66000000 		.4byte	.LVL31
 3067 023c 68000000 		.4byte	.LVL32
 3068 0240 0100     		.2byte	0x1
 3069 0242 53       		.byte	0x53
 3070 0243 00000000 		.4byte	0
 3071 0247 00000000 		.4byte	0
 3072              	.LLST11:
 3073 024b 5C000000 		.4byte	.LVL28
 3074 024f 5E000000 		.4byte	.LVL29
 3075 0253 0600     		.2byte	0x6
 3076 0255 73       		.byte	0x73
 3077 0256 00       		.sleb128 0
 3078 0257 71       		.byte	0x71
 3079 0258 00       		.sleb128 0
 3080 0259 22       		.byte	0x22
 3081 025a 9F       		.byte	0x9f
 3082 025b 00000000 		.4byte	0
 3083 025f 00000000 		.4byte	0
 3084              		.section	.debug_aranges,"",%progbits
 3085 0000 2C000000 		.4byte	0x2c
 3086 0004 0200     		.2byte	0x2
 3087 0006 00000000 		.4byte	.Ldebug_info0
 3088 000a 04       		.byte	0x4
 3089 000b 00       		.byte	0
 3090 000c 0000     		.2byte	0
 3091 000e 0000     		.2byte	0
 3092 0010 00000000 		.4byte	.LFB149
 3093 0014 1C000000 		.4byte	.LFE149-.LFB149
 3094 0018 00000000 		.4byte	.LFB150
 3095 001c 84000000 		.4byte	.LFE150-.LFB150
 3096 0020 00000000 		.4byte	.LFB151
 3097 0024 78000000 		.4byte	.LFE151-.LFB151
 3098 0028 00000000 		.4byte	0
 3099 002c 00000000 		.4byte	0
 3100              		.section	.debug_ranges,"",%progbits
 3101              	.Ldebug_ranges0:
 3102 0000 04000000 		.4byte	.LBB35
 3103 0004 06000000 		.4byte	.LBE35
 3104 0008 0A000000 		.4byte	.LBB50
 3105 000c 2E000000 		.4byte	.LBE50
 3106 0010 5C000000 		.4byte	.LBB51
 3107 0014 84000000 		.4byte	.LBE51
 3108 0018 00000000 		.4byte	0
 3109 001c 00000000 		.4byte	0
 3110 0020 04000000 		.4byte	.LBB36
 3111 0024 06000000 		.4byte	.LBE36
 3112 0028 0A000000 		.4byte	.LBB43
 3113 002c 0E000000 		.4byte	.LBE43
 3114 0030 00000000 		.4byte	0
 3115 0034 00000000 		.4byte	0
 3116 0038 6E000000 		.4byte	.LBB46
ARM GAS  /tmp/cc2bmhpq.s 			page 87


 3117 003c 70000000 		.4byte	.LBE46
 3118 0040 76000000 		.4byte	.LBB49
 3119 0044 84000000 		.4byte	.LBE49
 3120 0048 00000000 		.4byte	0
 3121 004c 00000000 		.4byte	0
 3122 0050 44000000 		.4byte	.LBB64
 3123 0054 46000000 		.4byte	.LBE64
 3124 0058 48000000 		.4byte	.LBB71
 3125 005c 4C000000 		.4byte	.LBE71
 3126 0060 00000000 		.4byte	0
 3127 0064 00000000 		.4byte	0
 3128 0068 00000000 		.4byte	.LFB149
 3129 006c 1C000000 		.4byte	.LFE149
 3130 0070 00000000 		.4byte	.LFB150
 3131 0074 84000000 		.4byte	.LFE150
 3132 0078 00000000 		.4byte	.LFB151
 3133 007c 78000000 		.4byte	.LFE151
 3134 0080 00000000 		.4byte	0
 3135 0084 00000000 		.4byte	0
 3136              		.section	.debug_line,"",%progbits
 3137              	.Ldebug_line0:
 3138 0000 9F020000 		.section	.debug_str,"MS",%progbits,1
 3138      0200C501 
 3138      00000201 
 3138      FB0E0D00 
 3138      01010101 
 3139              	.LASF46:
 3140 0000 63685F74 		.ascii	"ch_threads_list\000"
 3140      68726561 
 3140      64735F6C 
 3140      69737400 
 3141              	.LASF104:
 3142 0010 5F5F6675 		.ascii	"__func__.5579\000"
 3142      6E635F5F 
 3142      2E353537 
 3142      3900
 3143              	.LASF91:
 3144 001e 77746D74 		.ascii	"wtmtxp\000"
 3144      787000
 3145              	.LASF71:
 3146 0025 72656761 		.ascii	"regarm_t\000"
 3146      726D5F74 
 3146      00
 3147              	.LASF115:
 3148 002e 5F76745F 		.ascii	"_vt_init\000"
 3148      696E6974 
 3148      00
 3149              	.LASF35:
 3150 0037 666C6167 		.ascii	"flags\000"
 3150      7300
 3151              	.LASF26:
 3152 003d 73797374 		.ascii	"systime_t\000"
 3152      696D655F 
 3152      7400
 3153              	.LASF41:
 3154 0047 7265616C 		.ascii	"realprio\000"
 3154      7072696F 
ARM GAS  /tmp/cc2bmhpq.s 			page 88


 3154      00
 3155              	.LASF107:
 3156 0050 76746675 		.ascii	"vtfunc\000"
 3156      6E6300
 3157              	.LASF39:
 3158 0057 6570656E 		.ascii	"epending\000"
 3158      64696E67 
 3158      00
 3159              	.LASF0:
 3160 0060 756E7369 		.ascii	"unsigned int\000"
 3160      676E6564 
 3160      20696E74 
 3160      00
 3161              	.LASF47:
 3162 006d 6E657874 		.ascii	"next\000"
 3162      00
 3163              	.LASF100:
 3164 0072 63685654 		.ascii	"chVTGetSystemTimeX\000"
 3164      47657453 
 3164      79737465 
 3164      6D54696D 
 3164      655800
 3165              	.LASF44:
 3166 0085 74687265 		.ascii	"threads_list_t\000"
 3166      6164735F 
 3166      6C697374 
 3166      5F7400
 3167              	.LASF7:
 3168 0094 5F5F696E 		.ascii	"__int32_t\000"
 3168      7433325F 
 3168      7400
 3169              	.LASF36:
 3170 009e 72656673 		.ascii	"refs\000"
 3170      00
 3171              	.LASF87:
 3172 00a3 77746F62 		.ascii	"wtobjp\000"
 3172      6A7000
 3173              	.LASF68:
 3174 00aa 76746C69 		.ascii	"vtlist\000"
 3174      737400
 3175              	.LASF73:
 3176 00b1 706F7274 		.ascii	"port_context\000"
 3176      5F636F6E 
 3176      74657874 
 3176      00
 3177              	.LASF52:
 3178 00be 63685F72 		.ascii	"ch_ready_list\000"
 3178      65616479 
 3178      5F6C6973 
 3178      7400
 3179              	.LASF58:
 3180 00cc 66756E63 		.ascii	"func\000"
 3180      00
 3181              	.LASF92:
 3182 00d1 65776D61 		.ascii	"ewmask\000"
 3182      736B00
 3183              	.LASF50:
ARM GAS  /tmp/cc2bmhpq.s 			page 89


 3184 00d8 70726576 		.ascii	"prev\000"
 3184      00
 3185              	.LASF49:
 3186 00dd 63685F74 		.ascii	"ch_threads_queue\000"
 3186      68726561 
 3186      64735F71 
 3186      75657565 
 3186      00
 3187              	.LASF81:
 3188 00ee 444D4152 		.ascii	"DMAR\000"
 3188      00
 3189              	.LASF117:
 3190 00f3 5F5F6675 		.ascii	"__func__.5571\000"
 3190      6E635F5F 
 3190      2E353537 
 3190      3100
 3191              	.LASF54:
 3192 0101 76746675 		.ascii	"vtfunc_t\000"
 3192      6E635F74 
 3192      00
 3193              	.LASF63:
 3194 010a 63685F73 		.ascii	"ch_system_debug\000"
 3194      79737465 
 3194      6D5F6465 
 3194      62756700 
 3195              	.LASF111:
 3196 011a 474E5520 		.ascii	"GNU C 4.8.3 -mcpu=cortex-m0 -mno-thumb-interwork -m"
 3196      4320342E 
 3196      382E3320 
 3196      2D6D6370 
 3196      753D636F 
 3197 014d 7468756D 		.ascii	"thumb -ggdb -O2 -fomit-frame-pointer -falign-functi"
 3197      62202D67 
 3197      67646220 
 3197      2D4F3220 
 3197      2D666F6D 
 3198 0180 6F6E733D 		.ascii	"ons=16 -ffunction-sections -fdata-sections -fno-com"
 3198      3136202D 
 3198      6666756E 
 3198      6374696F 
 3198      6E2D7365 
 3199 01b3 6D6F6E20 		.ascii	"mon -flto\000"
 3199      2D666C74 
 3199      6F00
 3200              	.LASF17:
 3201 01bd 75696E74 		.ascii	"uint32_t\000"
 3201      33325F74 
 3201      00
 3202              	.LASF109:
 3203 01c6 73745365 		.ascii	"stSetAlarm\000"
 3203      74416C61 
 3203      726D00
 3204              	.LASF89:
 3205 01d1 73656E74 		.ascii	"sentmsg\000"
 3205      6D736700 
 3206              	.LASF24:
 3207 01d9 6576656E 		.ascii	"eventmask_t\000"
ARM GAS  /tmp/cc2bmhpq.s 			page 90


 3207      746D6173 
 3207      6B5F7400 
 3208              	.LASF80:
 3209 01e5 42445452 		.ascii	"BDTR\000"
 3209      00
 3210              	.LASF110:
 3211 01ea 73745374 		.ascii	"stStartAlarm\000"
 3211      61727441 
 3211      6C61726D 
 3211      00
 3212              	.LASF93:
 3213 01f7 63685F73 		.ascii	"ch_semaphore\000"
 3213      656D6170 
 3213      686F7265 
 3213      00
 3214              	.LASF22:
 3215 0204 74707269 		.ascii	"tprio_t\000"
 3215      6F5F7400 
 3216              	.LASF56:
 3217 020c 63685F76 		.ascii	"ch_virtual_timer\000"
 3217      69727475 
 3217      616C5F74 
 3217      696D6572 
 3217      00
 3218              	.LASF77:
 3219 021d 43434D52 		.ascii	"CCMR1\000"
 3219      3100
 3220              	.LASF78:
 3221 0223 43434D52 		.ascii	"CCMR2\000"
 3221      3200
 3222              	.LASF82:
 3223 0229 43434D52 		.ascii	"CCMR3\000"
 3223      3300
 3224              	.LASF13:
 3225 022f 6C6F6E67 		.ascii	"long long unsigned int\000"
 3225      206C6F6E 
 3225      6720756E 
 3225      7369676E 
 3225      65642069 
 3226              	.LASF98:
 3227 0246 73745F6C 		.ascii	"st_lld_get_counter\000"
 3227      6C645F67 
 3227      65745F63 
 3227      6F756E74 
 3227      657200
 3228              	.LASF5:
 3229 0259 5F5F7569 		.ascii	"__uint16_t\000"
 3229      6E743136 
 3229      5F7400
 3230              	.LASF25:
 3231 0264 636E745F 		.ascii	"cnt_t\000"
 3231      7400
 3232              	.LASF105:
 3233 026a 6E6F7764 		.ascii	"nowdelta\000"
 3233      656C7461 
 3233      00
 3234              	.LASF103:
ARM GAS  /tmp/cc2bmhpq.s 			page 91


 3235 0273 74696D65 		.ascii	"time\000"
 3235      00
 3236              	.LASF95:
 3237 0278 6F776E65 		.ascii	"owner\000"
 3237      7200
 3238              	.LASF48:
 3239 027e 74687265 		.ascii	"threads_queue_t\000"
 3239      6164735F 
 3239      71756575 
 3239      655F7400 
 3240              	.LASF40:
 3241 028e 6D74786C 		.ascii	"mtxlist\000"
 3241      69737400 
 3242              	.LASF60:
 3243 0296 63685F76 		.ascii	"ch_virtual_timers_list\000"
 3243      69727475 
 3243      616C5F74 
 3243      696D6572 
 3243      735F6C69 
 3244              	.LASF27:
 3245 02ad 74687265 		.ascii	"thread_t\000"
 3245      61645F74 
 3245      00
 3246              	.LASF85:
 3247 02b6 7264796D 		.ascii	"rdymsg\000"
 3247      736700
 3248              	.LASF84:
 3249 02bd 73746D33 		.ascii	"stm32_tim_t\000"
 3249      325F7469 
 3249      6D5F7400 
 3250              	.LASF94:
 3251 02c9 63685F6D 		.ascii	"ch_mutex\000"
 3251      75746578 
 3251      00
 3252              	.LASF12:
 3253 02d2 5F5F7569 		.ascii	"__uint64_t\000"
 3253      6E743634 
 3253      5F7400
 3254              	.LASF76:
 3255 02dd 44494552 		.ascii	"DIER\000"
 3255      00
 3256              	.LASF99:
 3257 02e2 706F7274 		.ascii	"port_timer_get_time\000"
 3257      5F74696D 
 3257      65725F67 
 3257      65745F74 
 3257      696D6500 
 3258              	.LASF29:
 3259 02f6 7072696F 		.ascii	"prio\000"
 3259      00
 3260              	.LASF79:
 3261 02fb 43434552 		.ascii	"CCER\000"
 3261      00
 3262              	.LASF96:
 3263 0300 63686172 		.ascii	"char\000"
 3263      00
 3264              	.LASF43:
ARM GAS  /tmp/cc2bmhpq.s 			page 92


 3265 0305 74687265 		.ascii	"thread_reference_t\000"
 3265      61645F72 
 3265      65666572 
 3265      656E6365 
 3265      5F7400
 3266              	.LASF33:
 3267 0318 77616261 		.ascii	"wabase\000"
 3267      736500
 3268              	.LASF20:
 3269 031f 74737461 		.ascii	"tstate_t\000"
 3269      74655F74 
 3269      00
 3270              	.LASF14:
 3271 0328 75696E74 		.ascii	"uint8_t\000"
 3271      385F7400 
 3272              	.LASF112:
 3273 0330 2E2E2F2E 		.ascii	"../../../os/rt/src/chvt.c\000"
 3273      2E2F2E2E 
 3273      2F6F732F 
 3273      72742F73 
 3273      72632F63 
 3274              	.LASF38:
 3275 034a 6D736771 		.ascii	"msgqueue\000"
 3275      75657565 
 3275      00
 3276              	.LASF75:
 3277 0353 534D4352 		.ascii	"SMCR\000"
 3277      00
 3278              	.LASF45:
 3279 0358 63685F74 		.ascii	"ch_thread\000"
 3279      68726561 
 3279      6400
 3280              	.LASF101:
 3281 0362 706F7274 		.ascii	"port_timer_start_alarm\000"
 3281      5F74696D 
 3281      65725F73 
 3281      74617274 
 3281      5F616C61 
 3282              	.LASF62:
 3283 0379 73797374 		.ascii	"system_debug_t\000"
 3283      656D5F64 
 3283      65627567 
 3283      5F7400
 3284              	.LASF11:
 3285 0388 6C6F6E67 		.ascii	"long long int\000"
 3285      206C6F6E 
 3285      6720696E 
 3285      7400
 3286              	.LASF23:
 3287 0396 6D73675F 		.ascii	"msg_t\000"
 3287      7400
 3288              	.LASF108:
 3289 039c 63685654 		.ascii	"chVTDoResetI\000"
 3289      446F5265 
 3289      73657449 
 3289      00
 3290              	.LASF55:
ARM GAS  /tmp/cc2bmhpq.s 			page 93


 3291 03a9 76697274 		.ascii	"virtual_timer_t\000"
 3291      75616C5F 
 3291      74696D65 
 3291      725F7400 
 3292              	.LASF64:
 3293 03b9 70616E69 		.ascii	"panic_msg\000"
 3293      635F6D73 
 3293      6700
 3294              	.LASF19:
 3295 03c3 746D6F64 		.ascii	"tmode_t\000"
 3295      655F7400 
 3296              	.LASF69:
 3297 03cb 6D61696E 		.ascii	"mainthread\000"
 3297      74687265 
 3297      616400
 3298              	.LASF102:
 3299 03d6 706F7274 		.ascii	"port_timer_set_alarm\000"
 3299      5F74696D 
 3299      65725F73 
 3299      65745F61 
 3299      6C61726D 
 3300              	.LASF15:
 3301 03eb 75696E74 		.ascii	"uint16_t\000"
 3301      31365F74 
 3301      00
 3302              	.LASF83:
 3303 03f4 43435852 		.ascii	"CCXR\000"
 3303      00
 3304              	.LASF3:
 3305 03f9 73686F72 		.ascii	"short int\000"
 3305      7420696E 
 3305      7400
 3306              	.LASF8:
 3307 0403 6C6F6E67 		.ascii	"long int\000"
 3307      20696E74 
 3307      00
 3308              	.LASF74:
 3309 040c 706F7274 		.ascii	"port_intctx\000"
 3309      5F696E74 
 3309      63747800 
 3310              	.LASF106:
 3311 0418 64656C61 		.ascii	"delay\000"
 3311      7900
 3312              	.LASF66:
 3313 041e 63685F73 		.ascii	"ch_system\000"
 3313      79737465 
 3313      6D00
 3314              	.LASF118:
 3315 0428 73745374 		.ascii	"stStopAlarm\000"
 3315      6F70416C 
 3315      61726D00 
 3316              	.LASF61:
 3317 0434 6C617374 		.ascii	"lasttime\000"
 3317      74696D65 
 3317      00
 3318              	.LASF18:
 3319 043d 75696E74 		.ascii	"uint64_t\000"
ARM GAS  /tmp/cc2bmhpq.s 			page 94


 3319      36345F74 
 3319      00
 3320              	.LASF67:
 3321 0446 726C6973 		.ascii	"rlist\000"
 3321      7400
 3322              	.LASF4:
 3323 044c 5F5F7569 		.ascii	"__uint8_t\000"
 3323      6E74385F 
 3323      7400
 3324              	.LASF32:
 3325 0456 6E616D65 		.ascii	"name\000"
 3325      00
 3326              	.LASF70:
 3327 045b 73697A65 		.ascii	"sizetype\000"
 3327      74797065 
 3327      00
 3328              	.LASF21:
 3329 0464 74726566 		.ascii	"trefs_t\000"
 3329      735F7400 
 3330              	.LASF114:
 3331 046c 706F7274 		.ascii	"port_timer_stop_alarm\000"
 3331      5F74696D 
 3331      65725F73 
 3331      746F705F 
 3331      616C6172 
 3332              	.LASF10:
 3333 0482 6C6F6E67 		.ascii	"long unsigned int\000"
 3333      20756E73 
 3333      69676E65 
 3333      6420696E 
 3333      7400
 3334              	.LASF116:
 3335 0494 63685654 		.ascii	"chVTDoSetI\000"
 3335      446F5365 
 3335      744900
 3336              	.LASF51:
 3337 049f 72656164 		.ascii	"ready_list_t\000"
 3337      795F6C69 
 3337      73745F74 
 3337      00
 3338              	.LASF28:
 3339 04ac 71756575 		.ascii	"queue\000"
 3339      6500
 3340              	.LASF16:
 3341 04b2 696E7433 		.ascii	"int32_t\000"
 3341      325F7400 
 3342              	.LASF97:
 3343 04ba 6D757465 		.ascii	"mutex_t\000"
 3343      785F7400 
 3344              	.LASF30:
 3345 04c2 6E657765 		.ascii	"newer\000"
 3345      7200
 3346              	.LASF2:
 3347 04c8 756E7369 		.ascii	"unsigned char\000"
 3347      676E6564 
 3347      20636861 
 3347      7200
ARM GAS  /tmp/cc2bmhpq.s 			page 95


 3348              	.LASF9:
 3349 04d6 5F5F7569 		.ascii	"__uint32_t\000"
 3349      6E743332 
 3349      5F7400
 3350              	.LASF37:
 3351 04e1 77616974 		.ascii	"waiting\000"
 3351      696E6700 
 3352              	.LASF59:
 3353 04e9 76697274 		.ascii	"virtual_timers_list_t\000"
 3353      75616C5F 
 3353      74696D65 
 3353      72735F6C 
 3353      6973745F 
 3354              	.LASF34:
 3355 04ff 73746174 		.ascii	"state\000"
 3355      6500
 3356              	.LASF65:
 3357 0505 63685F73 		.ascii	"ch_system_t\000"
 3357      79737465 
 3357      6D5F7400 
 3358              	.LASF90:
 3359 0511 77747365 		.ascii	"wtsemp\000"
 3359      6D7000
 3360              	.LASF88:
 3361 0518 77747472 		.ascii	"wttrp\000"
 3361      7000
 3362              	.LASF1:
 3363 051e 7369676E 		.ascii	"signed char\000"
 3363      65642063 
 3363      68617200 
 3364              	.LASF57:
 3365 052a 64656C74 		.ascii	"delta\000"
 3365      6100
 3366              	.LASF6:
 3367 0530 73686F72 		.ascii	"short unsigned int\000"
 3367      7420756E 
 3367      7369676E 
 3367      65642069 
 3367      6E7400
 3368              	.LASF72:
 3369 0543 73746B61 		.ascii	"stkalign_t\000"
 3369      6C69676E 
 3369      5F7400
 3370              	.LASF53:
 3371 054e 63757272 		.ascii	"current\000"
 3371      656E7400 
 3372              	.LASF31:
 3373 0556 6F6C6465 		.ascii	"older\000"
 3373      7200
 3374              	.LASF113:
 3375 055c 2F686F6D 		.ascii	"/home/awygle/ChibiOS-RT/demos/STM32/RT-STM32F030R8-"
 3375      652F6177 
 3375      79676C65 
 3375      2F436869 
 3375      62694F53 
 3376 058f 4E55434C 		.ascii	"NUCLEO64\000"
 3376      454F3634 
ARM GAS  /tmp/cc2bmhpq.s 			page 96


 3376      00
 3377              	.LASF86:
 3378 0598 65786974 		.ascii	"exitcode\000"
 3378      636F6465 
 3378      00
 3379              	.LASF42:
 3380 05a1 6D706F6F 		.ascii	"mpool\000"
 3380      6C00
 3381              		.comm	__gnu_lto_v1,1,1
 3382              		.ident	"GCC: (4.8.3-18ubuntu2+12) 4.8.3"
ARM GAS  /tmp/cc2bmhpq.s 			page 97


DEFINED SYMBOLS
                            *ABS*:0000000000000000 chvt.c
     /tmp/cc2bmhpq.s:526    .text._vt_init:0000000000000000 $t
     /tmp/cc2bmhpq.s:532    .text._vt_init:0000000000000000 _vt_init
     /tmp/cc2bmhpq.s:559    .text._vt_init:0000000000000018 $d
     /tmp/cc2bmhpq.s:564    .text.chVTDoSetI:0000000000000000 $t
     /tmp/cc2bmhpq.s:570    .text.chVTDoSetI:0000000000000000 chVTDoSetI
     /tmp/cc2bmhpq.s:743    .text.chVTDoSetI:000000000000007c $d
     /tmp/cc2bmhpq.s:752    .text.chVTDoResetI:0000000000000000 $t
     /tmp/cc2bmhpq.s:758    .text.chVTDoResetI:0000000000000000 chVTDoResetI
     /tmp/cc2bmhpq.s:896    .text.chVTDoResetI:0000000000000070 $d
                            *COM*:0000000000000001 __gnu_lto_v1
                     .debug_frame:0000000000000010 $d
     /tmp/cc2bmhpq.s:563    .text._vt_init:000000000000001c $t
     /tmp/cc2bmhpq.s:751    .text.chVTDoSetI:0000000000000084 $t
     /tmp/cc2bmhpq.s:905    .text.chVTDoResetI:0000000000000078 $t

UNDEFINED SYMBOLS
ch
stSetAlarm
stStartAlarm
stStopAlarm
