ARM GAS  /tmp/ccWLWVLN.s 			page 1


   1              		.cpu cortex-m0
   2              		.fpu softvfp
   3              		.eabi_attribute 20, 1
   4              		.eabi_attribute 21, 1
   5              		.eabi_attribute 23, 3
   6              		.eabi_attribute 24, 1
   7              		.eabi_attribute 25, 1
   8              		.eabi_attribute 26, 1
   9              		.eabi_attribute 30, 2
  10              		.eabi_attribute 34, 0
  11              		.eabi_attribute 18, 4
  12              		.code	16
  13              		.file	"hal.c"
  14              		.text
  15              	.Ltext0:
  16              		.section	.gnu.lto_.jmpfuncs.7ab60f1d9e1fcee,"",%progbits
  17 0000 789C6362 		.ascii	"x\234cb`b\300\006\244\2414#\204d\252f\370\3250\243A"
  17      6062C006 
  17      A4A13423 
  17      8464AA66 
  17      F8D530A3 
  18 0015 20939121 		.ascii	" \223\221!\227\021*\005\000@s\004\031"
  18      97112A05 
  18      00407304 
  18      19
  19              		.text
  20              		.section	.gnu.lto_.inline.7ab60f1d9e1fcee,"",%progbits
  21 0000 789C6362 		.ascii	"x\234cb`b\300\006\364\2404#\003\003\247)#X\021\333\002"
  21      6062C006 
  21      F4A03423 
  21      0303A729 
  21      235811DB 
  22 0015 79B05A46 		.ascii	"y\260ZF.\024\202\211\033\244\012\314d\000\0003\352\001"
  22      2E148289 
  22      1BA40ACC 
  22      64000033 
  22      EA01
  23 0027 76       		.ascii	"v"
  24              		.text
  25              		.section	.gnu.lto_.pureconst.7ab60f1d9e1fcee,"",%progbits
  26 0000 789C6362 		.ascii	"x\234cb`b`f\200\000F\006\011\000\000\203\000!"
  26      60626066 
  26      80004606 
  26      09000083 
  26      0021
  27              		.text
  28              		.section	.gnu.lto_halInit.7ab60f1d9e1fcee,"",%progbits
  29 0000 789C6362 		.ascii	"x\234cb`b@\007\222@\254\314\310\300 \003\244\031\231"
  29      60624007 
  29      9240ACCC 
  29      C8C02003 
  29      A41999
  30 0013 19189926 		.ascii	"\031\030\231&\234c`h\344`bd\0041\030\030\031\352\231"
  30      9C636068 
  30      E4606264 
  30      04311818 
  30      19EA99
ARM GAS  /tmp/ccWLWVLN.s 			page 2


  31 0026 18EB2319 		.ascii	"\030\353#\031\301j\3273\035x\360\377\377\272\017\033"
  31      C16AD733 
  31      1D78F0FF 
  31      FFBA0F1B 
  32 0036 1FAE6414 		.ascii	"\037\256d\024b\007\012\2602\26444LP``H\006+\010\001"
  32      62070AB0 
  32      32B43434 
  32      4C506060 
  32      48062B08 
  33 004b 92205DA1 		.ascii	"\222 ]\241\214L \232\371<C\363\203\177v\211\214\013"
  33      8C4C209A 
  33      F93C43F3 
  33      837F7689 
  33      8C0B
  34 005d 195981B2 		.ascii	"\031Y\201\262\325\014\277\032:\032\0042\031\201\252"
  34      D50CBF1A 
  34      3A1A0432 
  34      1981AA
  35 006c 21E66582 		.ascii	"!\346e\202\350\363\014-\017:\2231\0241%3B\034\013\022"
  35      E8F30C2D 
  35      0F3A9331 
  35      14312533 
  35      421C0B12 
  36 0080 91C86464 		.ascii	"\221\310dd\316ed\200*\312dd\001ik~pv1\0336\303\231\221"
  36      CE656480 
  36      2ACA6464 
  36      01696B7E 
  36      7076311B 
  37 0098 0D6F7E30 		.ascii	"\015o~0\243\225\035\233*\026TU\363\227b5\213\025\241"
  37      A3951D9B 
  37      2A165455 
  37      F3976235 
  37      8B15A1
  38 00ab EA2243E3 		.ascii	"\352\"C\343\203\225\2520E\020\020\002\224\000\372\024"
  38      8395AA30 
  38      45101002 
  38      9400FA14 
  39 00bb E452293D 		.ascii	"\344R)==}\010\312/\326\317H\314\321/.J\006\321z\311"
  39      3D7D08CA 
  39      2FD6CF48 
  39      CCD12F2E 
  39      4A06D17A 
  40 00d0 0C00C0F8 		.ascii	"\014\000\300\370P\030"
  40      5018
  41              		.text
  42              		.section	.gnu.lto_.symbol_nodes.7ab60f1d9e1fcee,"",%progbits
  43 0000 789C45C8 		.ascii	"x\234E\310\273\015\2000\014\204\341;'amG\212\204(\231"
  43      BB0D8030 
  43      0C84E13B 
  43      27616D47 
  43      8A842899 
  44 0014 80861178 		.ascii	"\200\206\021x\327\364\314\000b\217\210( \342\346\367"
  44      D7F4CC00 
  44      628F8828 
  44      20E2E6F7 
  45 0024 7702418D 		.ascii	"w\002A\215\357d\240\002\355\001\250v\015\335\314\364"
  45      EF64A002 
ARM GAS  /tmp/ccWLWVLN.s 			page 3


  45      ED01A876 
  45      0DDDCCF4 
  46 0034 811B95EF 		.ascii	"\201\033\225\357\352=\271R\245h\241\232\242\211j\213"
  46      EA3DB952 
  46      A568A19A 
  46      A2896A8B 
  47 0044 46AAFB65 		.ascii	"F\252\373eP!\2341\325\241\317\265\330s\015\356\\A\270"
  47      50219C31 
  47      D5A1CFB5 
  47      D8730DEE 
  47      5C41B8
  48 0057 22F10041 		.ascii	"\"\361\000A\262'\307"
  48      B227C7
  49              		.text
  50              		.section	.gnu.lto_.refs.7ab60f1d9e1fcee,"",%progbits
  51 0000 789C6362 		.ascii	"x\234cb`b`e\200\000F\006&F\006\000\000\237\000\016"
  51      60626065 
  51      80004606 
  51      26460600 
  51      009F000E 
  52              		.text
  53              		.section	.gnu.lto_.decls.7ab60f1d9e1fcee,"",%progbits
  54 0000 789C9596 		.ascii	"x\234\225\226Ql\024E\030\307\277\271\273^{pV\323D\""
  54      516C1445 
  54      18C7BFB9 
  54      BB5E7B70 
  54      56D34422 
  55 0014 A4C2D5A4 		.ascii	"\244\302\325\244>\220\330mZ4}\202`k\221\244\302\005"
  55      3E90D86D 
  55      5A347D82 
  55      606B91A4 
  55      C205
  56 0026 6CE2DB66 		.ascii	"l\342\333f\271\333r\227\\o7\273{\212O\016\305TB\372"
  56      B9DB7297 
  56      5C6F37BB 
  56      7B8A4F0E 
  56      C55442FA 
  57 003a D05625D6 		.ascii	"\320V%\326\020r\025*\220\240\304>H\243\244\036`\323"
  57      1072152A 
  57      90A0C43E 
  57      48A3A41E 
  57      60D3
  58 004c 92504B4F 		.ascii	"\222PKO\240H\205^\214/&>41\021c\260\347\314\354no\367"
  58      A048855E 
  58      8C2F263E 
  58      34311163 
  58      B0E7CCEC 
  59 0063 BADBEE4D 		.ascii	"\272\333\356M\372}\263w\373}\277\371\317\367\355M\327"
  59      FA7DB377 
  59      FB7DBFF9 
  59      CFF7ED4D 
  59      D7
  60 0074 073EF804 		.ascii	"\007>\370\004\000\212d<\015\001\324\373\200|\003\260"
  60      008A643C 
  60      0D01D4FB 
  60      807C03B0 
  61 0084 9B182236 		.ascii	"\233\030\"6\012\372\010\022\273M\354\016\261<\261\273"
ARM GAS  /tmp/ccWLWVLN.s 			page 4


  61      0AFA0812 
  61      BB4DEC0E 
  61      B13CB1BB 
  62 0094 C4EE137B 		.ascii	"\304\356\023{h\304\375\012\366Ac\253\210=&6Kl\311`-"
  62      68C4FD0A 
  62      F64163AB 
  62      883D2636 
  62      4B6CC960 
  63 00a9 94F11E1A 		.ascii	"\224\361\036\032\234\273\006\367\216\013o3\234\302\270"
  63      9CBB06F7 
  63      8E0B6F33 
  63      9CC2B8
  64 00b8 0F67FBF1 		.ascii	"\017g\373\361\2333\265u0\204\311\310b\214fj\001\336"
  64      9B33B575 
  64      3084C9C8 
  64      628C666A 
  64      01DE
  65 00ca 4102AA0D 		.ascii	"A\002\252\015A\241\206]\205C0@\011\215p\036\343\301"
  65      41A1865D 
  65      85433040 
  65      098D701E 
  65      E3C1
  66 00dc C2D4E436 		.ascii	"\302\324\3446\0340\022\"\356\321\002:\207\032a\3438"
  66      1C301222 
  66      EED1023A 
  66      871A61E3 
  66      38
  67 00ed 1A3986EA 		.ascii	"\0329\206\352`'\\\"\201\203D\323v\233N\266*\316}\237"
  67      60275C22 
  67      818344D3 
  67      769B4EB6 
  67      2ACE7D9F 
  68 0101 0FE3801E 		.ascii	"\017\343\200\036I3\276D;\301a4@\226\006\317\347\317"
  68      4933BE44 
  68      3BC16134 
  68      409606CF 
  68      E7CF
  69 0113 209CBD81 		.ascii	" \234\275\201\234VG\346\352\365\253[\312\215\344QD@"
  69      9C5647E6 
  69      EAF5AB5B 
  69      CA8DE451 
  69      4440
  70 0125 9748BC0F 		.ascii	"\227H\274\017\366 \033~C\004Us\231d\352I\206\332\305"
  70      F6201B7E 
  70      43045573 
  70      9964EA49 
  70      86DAC5
  71 0138 39A6F6B2 		.ascii	"9\246\366\262\007\265}\271\245\2713[\251\332\020\234"
  71      07B57DB9 
  71      A5B9335B 
  71      A9DA109C 
  72 0148 2C756475 		.ascii	",udu\265\210\271X\240\324\202{\375S\327Q\037i\226\200"
  72      B588B958 
  72      A0D4827B 
  72      FD53D751 
  72      1F699680 
  73 015c AE90341F 		.ascii	"\256\2204\037\310v\321\336I\177M\3778\204N0\3228#]@"
ARM GAS  /tmp/ccWLWVLN.s 			page 5


  73      C876D1DE 
  73      497F4DFF 
  73      38844E30 
  73      D238235D 
  74 0171 769480AA 		.ascii	"v\224\200\252CV\315\354\263\031@y\354\266qA\237\371"
  74      4356CDEC 
  74      B3194079 
  74      ECB67141 
  74      9FF9
  75 0183 67A1D270 		.ascii	"g\241\322p\037\214\263Ei\265\234\244\032\227\3720\002"
  75      1F8CB345 
  75      69B59CA4 
  75      1A97FA30 
  75      02
  76 0194 6C152C9C 		.ascii	"l\025,\234_\271\205\360p\330\254\306D\305\270\210\255"
  76      5FB985F0 
  76      70D8ACC6 
  76      44C5B888 
  76      AD
  77 01a5 217FCF85 		.ascii	"!\177\317\205\007\005\023\366\203\027X\215\253\266\334"
  77      070513F6 
  77      8317588D 
  77      ABB6DC
  78 01b4 BF56D874 		.ascii	"\277V\330t\3050\273\262\025+l\326\013\3549we\303y\013"
  78      C530BBB2 
  78      152B6CD6 
  78      0BEC3977 
  78      65C3790B 
  79 01c8 6CBE6298 		.ascii	"l\276b\230]\331i+\354\276\027\330\013\016\312\234\206"
  79      5DD9692B 
  79      ECBE17D8 
  79      0B0ECA9C 
  79      86
  80 01d9 F5E725A0 		.ascii	"\365\347%\240\257\310\241\"\240\257Q\003\361\3372?\301"
  80      AFC8A122 
  80      A0AF5103 
  80      F1DF323F 
  80      C1
  81 01ea FC77CC5F 		.ascii	"\374w\314_c~\222\371\034\361\253\303\007\213L\323XI"
  81      637E92F9 
  81      1CF1ABC3 
  81      078B4CD3 
  81      5849
  82 01fc 93FD67BC 		.ascii	"\223\375g\274\321C\206s\017\016\321\015\352\207\304"
  82      D1438673 
  82      0F0ED10D 
  82      EA87C4
  83 020b 6F9E60B6 		.ascii	"o\236`\266\035Fl\260e\013\354\017O\2606we\377X`\313"
  83      1D466CB0 
  83      650BEC0F 
  83      4FB03677 
  83      65FF5860 
  84 0220 9E605177 		.ascii	"\236`Qwe\237\035.\301\236x\202\311\3535\322\354\333"
  84      659F1D2E 
  84      C19E7882 
  84      C9EB35D2 
  84      ECDB
ARM GAS  /tmp/ccWLWVLN.s 			page 6


  85 0232 05D6B78B 		.ascii	"\005\326\267\213\25437\231\237b~\232\371[\366^\255\254"
  85      AC333799 
  85      9F627E9A 
  85      F95BF65E 
  85      ADAC
  86 0244 3984F473 		.ascii	"9\204\364s\337B\035[}&\300+\327\351Y\244\311\243h\263"
  86      DF421D5B 
  86      7D26C02B 
  86      D7E959A4 
  86      C9A368B3 
  87 0258 19B203CE 		.ascii	"\031\262\003\316\342l\241\360\315\360\265\340\010\316"
  87      E26CA1F0 
  87      CDF0B5E0 
  87      08CE
  88 0266 7D888BC5 		.ascii	"}\210\213\305\017`\013|\312\3767\366\223SR\023\320\356"
  88      0F600B7C 
  88      CAFE37F6 
  88      93535213 
  88      D0EE
  89 0278 E75D41B3 		.ascii	"\347]A\263h\213q\325\3557\267r\316g\337\012\300\313"
  89      688B71D5 
  89      ED37B772 
  89      CE67DF0A 
  89      C0CB
  90 028a 304679F8 		.ascii	"0Fy\370\"\3663\032\215\277\215v\330\267\367\023\362"
  90      22F6331A 
  90      8DBF8D76 
  90      D8B7F713 
  90      F2
  91 029b 59BFA0BA 		.ascii	"Y\277\240\272\012\203\205\253\037/\034GC'\2623x\231"
  91      0A8385AB 
  91      1F2F1C47 
  91      4327B233 
  91      7899
  92 02ad 9E9CFA8A 		.ascii	"\236\234\372\212\344 X\263\206\016\231w\204<8\375g\375"
  92      E42058B3 
  92      860E9977 
  92      843C38FD 
  92      67FD
  93 02bf 08BEA16F 		.ascii	"\010\276\241o\316D|\344wF\374\354\210\310\177>\027X"
  93      CE447CE4 
  93      7746FCEC 
  93      88C87F3E 
  93      1758
  94 02d1 83B8EA82 		.ascii	"\203\270\352\202\270\347\210\370}|`+\036\355\313\025"
  94      B8E788F8 
  94      7D7C602B 
  94      1EEDCB15 
  95 02e1 8B7B2AA8 		.ascii	"\213{*\250\360\202Qa?{\2452zW*7\253\370\244\213\216"
  95      F0825161 
  95      3F7BA532 
  95      7A572A37 
  95      ABF8A48B 
  96 02f6 5F1C754C 		.ascii	"_\034uL\234}\262}\315V\376sA,\332\021/\301(^&/DW\006"
  96      9C7DB27D 
  96      CD56FE73 
  96      412CDA11 
ARM GAS  /tmp/ccWLWVLN.s 			page 7


  96      2FC1285E 
  97 030f DA8E5304 		.ascii	"\332\216S\004~Z,\"\"\370\013\366\3439\0250!\356/>\217"
  97      7E5A2C22 
  97      22F80BF6 
  97      E3391530 
  97      21EE2F3E 
  98 0324 4A40DBFB 		.ascii	"J@\333\373\230.\304\255\012\217K\017lY\326\302:YK\245"
  98      982EC4AD 
  98      0A8F4B0F 
  98      6C59D6C2 
  98      3A594BA5 
  99 0338 2C78B5A9 		.ascii	",x\265\251\211\323\377$\225K\010)N\226\024M\345\016"
  99      89D3FF24 
  99      954B0829 
  99      4E96144D 
  99      E50E
 100 034a BFFD566B 		.ascii	"\277\375Vk\013\327\325\325\301\355\213\356?\370n\013"
 100      0BD7D5D5 
 100      C1ED8BEE 
 100      3FF86E0B 
 101 035a BDC5CBC4 		.ascii	"\275\305\313\304R\251xS\002\202\373\016tG\332\241N\325"
 101      52A97853 
 101      0282FB0E 
 101      7447DAA1 
 101      4ED5
 102 036c 7A5B5BF8 		.ascii	"z[[\370\243rR\342UQ\313\310\274\366\"\227Q\025.\231"
 102      A37252E2 
 102      5551CBC8 
 102      BCF62297 
 102      51152E99 
 103 0380 8EA53271 		.ascii	"\216\2452q\221K\213\357\245\222G8U\213'\323\032\311"
 103      914B8BEF 
 103      A5924738 
 103      558B27D3 
 103      1AC9
 104 0392 ABC99099 		.ascii	"\253\311\220\231dh\2578\205\365\012\261D2-r|\\\354\021"
 104      6468AF38 
 104      85F50AB1 
 104      44322D72 
 104      7C5CEC11 
 105 03a6 32298DD7 		.ascii	"2)\215\327\336\227E\225\244m\342y3\261\252W\212\213"
 105      DE974595 
 105      A46DE279 
 105      33B1AA57 
 105      8A8B
 106 03b8 4A50A2B7 		.ascii	"JP\242\267\224jI\225E1\256T\311\0319\256\370\245\270"
 106      946A4995 
 106      4531AE54 
 106      C91939AE 
 106      F8A5B8
 107 03cb 12107A94 		.ascii	"\022\020z\224\024u\211`to\207\240\011\301\350\353\372"
 107      14758960 
 107      746F87A0 
 107      09C1E8EB 
 107      FA
 108 03dc D4AE4F1D 		.ascii	"\324\256O\035\372\324I\247PtoW\273\224\356I\036\335"
 108      FAD449A7 
ARM GAS  /tmp/ccWLWVLN.s 			page 8


 108      50746F57 
 108      BB94EE49 
 108      1EDD
 109 03ee 565E0555 		.ascii	"V^\005U\211\321\271)\006\325d\332\237Nj\015\345!\246"
 109      89D1B929 
 109      06D564DA 
 109      9F4E6A0D 
 109      E521A6
 110 0401 785A1995 		.ascii	"xZ\031\225n.\250j4\260\245<\360\210$(qZR\376@w{\327"
 110      6E2EA86A 
 110      34B0A53C 
 110      F0882428 
 110      715A52FE 
 111 0419 1B075FDB 		.ascii	"\033\007_\333\305w6\2676\037j\323\357\220\314\020\273"
 111      C57736B7 
 111      361F6AD3 
 111      EF90CC10 
 111      BB
 112 042a A0C98DEB 		.ascii	"\240\311\215\353\256\"*I\242\211\256\304\202\2371;\302"
 112      AE222A49 
 112      A289AEC4 
 112      829F313B 
 112      C2
 113 043b 27C9A7E6 		.ascii	"'\311\247\346\365:\311|g\363\261c\014\24471\234\260"
 113      F53AC97C 
 113      67F3B163 
 113      0CA43731 
 113      9CB0
 114 044d 64D75194 		.ascii	"d\327Q\224Y\367\030+\312\377\037\222\235\335"
 114      59F7182B 
 114      CAFF1F92 
 114      9DDD
 115              		.text
 116              		.section	.gnu.lto_.symtab.7ab60f1d9e1fcee,"",%progbits
 117 0000 68616C49 		.ascii	"halInit\000\000\000\000\000\000\000\000\000\000\000"
 117      6E697400 
 117      00000000 
 117      00000000 
 117      0000
 118 0012 00CC0000 		.ascii	"\000\314\000\000\000pal_default_config\000\000\002\000"
 118      0070616C 
 118      5F646566 
 118      61756C74 
 118      5F636F6E 
 119 002d 00000000 		.ascii	"\000\000\000\000\000\000\000\000\334\000\000\000stI"
 119      00000000 
 119      DC000000 
 119      737449
 120 003c 6E697400 		.ascii	"nit\000\000\002\000\000\000\000\000\000\000\000\000"
 120      00020000 
 120      00000000 
 120      000000
 121 004b D0000000 		.ascii	"\320\000\000\000boardInit\000\000\002\000\000\000\000"
 121      626F6172 
 121      64496E69 
 121      74000002 
 121      00000000 
ARM GAS  /tmp/ccWLWVLN.s 			page 9


 122 005f 00000000 		.ascii	"\000\000\000\000\000\322\000\000\000sdInit\000\000\002"
 122      00D20000 
 122      00736449 
 122      6E697400 
 122      0002
 123 0071 00000000 		.ascii	"\000\000\000\000\000\000\000\000\000\324\000\000\000"
 123      00000000 
 123      00D40000 
 123      00
 124 007e 5F70616C 		.ascii	"_pal_lld_init\000\000\002\000\000\000\000\000\000\000"
 124      5F6C6C64 
 124      5F696E69 
 124      74000002 
 124      00000000 
 125 0095 0000D600 		.ascii	"\000\000\326\000\000\000hal_lld_init\000\000\002\000"
 125      00006861 
 125      6C5F6C6C 
 125      645F696E 
 125      69740000 
 126 00ab 00000000 		.ascii	"\000\000\000\000\000\000\000\000\332\000\000\000"
 126      00000000 
 126      DA000000 
 127              		.text
 128              		.section	.gnu.lto_.opts,"",%progbits
 129 0000 272D6D63 		.ascii	"'-mcpu=cortex-m0' '-mno-thumb-interwork' '-mthumb' "
 129      70753D63 
 129      6F727465 
 129      782D6D30 
 129      2720272D 
 130 0033 272D6767 		.ascii	"'-ggdb' '-O2' '-fomit-frame-pointer' '-falign-funct"
 130      64622720 
 130      272D4F32 
 130      2720272D 
 130      666F6D69 
 131 0066 696F6E73 		.ascii	"ions=16' '-ffunction-sections' '-fdata-sections' '-"
 131      3D313627 
 131      20272D66 
 131      66756E63 
 131      74696F6E 
 132 0099 666E6F2D 		.ascii	"fno-common' '-flto'\000"
 132      636F6D6D 
 132      6F6E2720 
 132      272D666C 
 132      746F2700 
 133              		.text
 134              		.cfi_sections	.debug_frame
 135              		.section	.text.halInit,"ax",%progbits
 136              		.align	2
 137              		.p2align 4,,15
 138              		.global	halInit
 139              		.code	16
 140              		.thumb_func
 141              		.type	halInit, %function
 142              	halInit:
 143              	.LFB179:
 144              		.file 1 "../../../os/hal/src/hal.c"
 145              		.loc 1 56 0
ARM GAS  /tmp/ccWLWVLN.s 			page 10


 146              		.cfi_startproc
 147 0000 08B5     		push	{r3, lr}
 148              		.cfi_def_cfa_offset 8
 149              		.cfi_offset 3, -8
 150              		.cfi_offset 14, -4
 151              		.loc 1 62 0
 152 0002 FFF7FEFF 		bl	hal_lld_init
 153              	.LVL0:
 154              		.loc 1 65 0
 155 0006 0548     		ldr	r0, .L2
 156 0008 FFF7FEFF 		bl	_pal_lld_init
 157              	.LVL1:
 158              		.loc 1 145 0
 159              		@ sp needed
 160              		.loc 1 101 0
 161 000c FFF7FEFF 		bl	sdInit
 162              	.LVL2:
 163              		.loc 1 136 0
 164 0010 FFF7FEFF 		bl	boardInit
 165              	.LVL3:
 166              		.loc 1 143 0
 167 0014 FFF7FEFF 		bl	stInit
 168              	.LVL4:
 169              		.loc 1 145 0
 170 0018 08BD     		pop	{r3, pc}
 171              	.L3:
 172 001a C046     		.align	2
 173              	.L2:
 174 001c 00000000 		.word	pal_default_config
 175              		.cfi_endproc
 176              	.LFE179:
 177              		.size	halInit, .-halInit
 178              		.text
 179              	.Letext0:
 180              		.file 2 "/usr/include/newlib/machine/_default_types.h"
 181              		.file 3 "/usr/include/newlib/stdint.h"
 182              		.file 4 "../../../os/common/ports/ARMCMx/compilers/GCC/chtypes.h"
 183              		.file 5 "../../../os/rt/include/chsystypes.h"
 184              		.file 6 "../../../os/rt/include/chschd.h"
 185              		.file 7 "../../../os/common/ports/ARMCMx/chcore.h"
 186              		.file 8 "../../../os/common/ports/ARMCMx/chcore_v6m.h"
 187              		.file 9 "../../../os/rt/include/chsem.h"
 188              		.file 10 "../../../os/rt/include/chmtx.h"
 189              		.file 11 "../../../os/hal/ports/STM32/LLD/GPIOv2/hal_pal_lld.h"
 190              		.file 12 "../../../os/hal/ports/STM32/STM32F0xx/hal_lld.h"
 191              		.file 13 "../../../os/hal/include/hal_serial.h"
 192              		.file 14 "../../../os/hal/boards/ST_NUCLEO64_F030R8/board.h"
 193              		.file 15 "../../../os/hal/include/hal_st.h"
 194              		.file 16 "../../../os/hal/osal/rt/osal.h"
 195              		.section	.debug_info,"",%progbits
 196              	.Ldebug_info0:
 197 0000 2F070000 		.4byte	0x72f
 198 0004 0400     		.2byte	0x4
 199 0006 00000000 		.4byte	.Ldebug_abbrev0
 200 000a 04       		.byte	0x4
 201 000b 01       		.uleb128 0x1
 202 000c E4000000 		.4byte	.LASF107
ARM GAS  /tmp/ccWLWVLN.s 			page 11


 203 0010 01       		.byte	0x1
 204 0011 D1010000 		.4byte	.LASF108
 205 0015 EA040000 		.4byte	.LASF109
 206 0019 00000000 		.4byte	.Ldebug_ranges0+0
 207 001d 00000000 		.4byte	0
 208 0021 00000000 		.4byte	.Ldebug_line0
 209 0025 02       		.uleb128 0x2
 210 0026 04       		.byte	0x4
 211 0027 05       		.byte	0x5
 212 0028 696E7400 		.ascii	"int\000"
 213 002c 03       		.uleb128 0x3
 214 002d 04       		.byte	0x4
 215 002e 07       		.byte	0x7
 216 002f 50000000 		.4byte	.LASF0
 217 0033 03       		.uleb128 0x3
 218 0034 01       		.byte	0x1
 219 0035 06       		.byte	0x6
 220 0036 9D040000 		.4byte	.LASF1
 221 003a 04       		.uleb128 0x4
 222 003b CC030000 		.4byte	.LASF4
 223 003f 02       		.byte	0x2
 224 0040 1D       		.byte	0x1d
 225 0041 45000000 		.4byte	0x45
 226 0045 03       		.uleb128 0x3
 227 0046 01       		.byte	0x1
 228 0047 08       		.byte	0x8
 229 0048 4E040000 		.4byte	.LASF2
 230 004c 03       		.uleb128 0x3
 231 004d 02       		.byte	0x2
 232 004e 05       		.byte	0x5
 233 004f 6E030000 		.4byte	.LASF3
 234 0053 04       		.uleb128 0x4
 235 0054 02020000 		.4byte	.LASF5
 236 0058 02       		.byte	0x2
 237 0059 2B       		.byte	0x2b
 238 005a 5E000000 		.4byte	0x5e
 239 005e 03       		.uleb128 0x3
 240 005f 02       		.byte	0x2
 241 0060 07       		.byte	0x7
 242 0061 AF040000 		.4byte	.LASF6
 243 0065 04       		.uleb128 0x4
 244 0066 71000000 		.4byte	.LASF7
 245 006a 02       		.byte	0x2
 246 006b 3F       		.byte	0x3f
 247 006c 70000000 		.4byte	0x70
 248 0070 03       		.uleb128 0x3
 249 0071 04       		.byte	0x4
 250 0072 05       		.byte	0x5
 251 0073 78030000 		.4byte	.LASF8
 252 0077 04       		.uleb128 0x4
 253 0078 5C040000 		.4byte	.LASF9
 254 007c 02       		.byte	0x2
 255 007d 41       		.byte	0x41
 256 007e 82000000 		.4byte	0x82
 257 0082 03       		.uleb128 0x3
 258 0083 04       		.byte	0x4
 259 0084 07       		.byte	0x7
ARM GAS  /tmp/ccWLWVLN.s 			page 12


 260 0085 FF030000 		.4byte	.LASF10
 261 0089 03       		.uleb128 0x3
 262 008a 08       		.byte	0x8
 263 008b 05       		.byte	0x5
 264 008c 0D030000 		.4byte	.LASF11
 265 0090 04       		.uleb128 0x4
 266 0091 81020000 		.4byte	.LASF12
 267 0095 02       		.byte	0x2
 268 0096 5B       		.byte	0x5b
 269 0097 9B000000 		.4byte	0x9b
 270 009b 03       		.uleb128 0x3
 271 009c 08       		.byte	0x8
 272 009d 07       		.byte	0x7
 273 009e EB010000 		.4byte	.LASF13
 274 00a2 04       		.uleb128 0x4
 275 00a3 E3020000 		.4byte	.LASF14
 276 00a7 03       		.byte	0x3
 277 00a8 2A       		.byte	0x2a
 278 00a9 3A000000 		.4byte	0x3a
 279 00ad 04       		.uleb128 0x4
 280 00ae 5E030000 		.4byte	.LASF15
 281 00b2 03       		.byte	0x3
 282 00b3 36       		.byte	0x36
 283 00b4 53000000 		.4byte	0x53
 284 00b8 04       		.uleb128 0x4
 285 00b9 31040000 		.4byte	.LASF16
 286 00bd 03       		.byte	0x3
 287 00be 41       		.byte	0x41
 288 00bf 65000000 		.4byte	0x65
 289 00c3 04       		.uleb128 0x4
 290 00c4 87010000 		.4byte	.LASF17
 291 00c8 03       		.byte	0x3
 292 00c9 42       		.byte	0x42
 293 00ca 77000000 		.4byte	0x77
 294 00ce 04       		.uleb128 0x4
 295 00cf A7030000 		.4byte	.LASF18
 296 00d3 03       		.byte	0x3
 297 00d4 4E       		.byte	0x4e
 298 00d5 90000000 		.4byte	0x90
 299 00d9 04       		.uleb128 0x4
 300 00da 4B030000 		.4byte	.LASF19
 301 00de 04       		.byte	0x4
 302 00df 3C       		.byte	0x3c
 303 00e0 A2000000 		.4byte	0xa2
 304 00e4 04       		.uleb128 0x4
 305 00e5 D3020000 		.4byte	.LASF20
 306 00e9 04       		.byte	0x4
 307 00ea 3D       		.byte	0x3d
 308 00eb A2000000 		.4byte	0xa2
 309 00ef 04       		.uleb128 0x4
 310 00f0 F7030000 		.4byte	.LASF21
 311 00f4 04       		.byte	0x4
 312 00f5 3E       		.byte	0x3e
 313 00f6 A2000000 		.4byte	0xa2
 314 00fa 04       		.uleb128 0x4
 315 00fb B8010000 		.4byte	.LASF22
 316 00ff 04       		.byte	0x4
ARM GAS  /tmp/ccWLWVLN.s 			page 13


 317 0100 40       		.byte	0x40
 318 0101 C3000000 		.4byte	0xc3
 319 0105 04       		.uleb128 0x4
 320 0106 1B030000 		.4byte	.LASF23
 321 010a 04       		.byte	0x4
 322 010b 41       		.byte	0x41
 323 010c B8000000 		.4byte	0xb8
 324 0110 04       		.uleb128 0x4
 325 0111 98010000 		.4byte	.LASF24
 326 0115 04       		.byte	0x4
 327 0116 43       		.byte	0x43
 328 0117 C3000000 		.4byte	0xc3
 329 011b 04       		.uleb128 0x4
 330 011c 0D020000 		.4byte	.LASF25
 331 0120 04       		.byte	0x4
 332 0121 45       		.byte	0x45
 333 0122 B8000000 		.4byte	0xb8
 334 0126 04       		.uleb128 0x4
 335 0127 34000000 		.4byte	.LASF26
 336 012b 05       		.byte	0x5
 337 012c 35       		.byte	0x35
 338 012d AD000000 		.4byte	0xad
 339 0131 04       		.uleb128 0x4
 340 0132 5B020000 		.4byte	.LASF27
 341 0136 05       		.byte	0x5
 342 0137 3F       		.byte	0x3f
 343 0138 3C010000 		.4byte	0x13c
 344 013c 05       		.uleb128 0x5
 345 013d F4020000 		.4byte	.LASF45
 346 0141 44       		.byte	0x44
 347 0142 06       		.byte	0x6
 348 0143 9A       		.byte	0x9a
 349 0144 1A020000 		.4byte	0x21a
 350 0148 06       		.uleb128 0x6
 351 0149 2B040000 		.4byte	.LASF28
 352 014d 06       		.byte	0x6
 353 014e 9B       		.byte	0x9b
 354 014f 4F020000 		.4byte	0x24f
 355 0153 00       		.byte	0
 356 0154 06       		.uleb128 0x6
 357 0155 9F020000 		.4byte	.LASF29
 358 0159 06       		.byte	0x6
 359 015a 9C       		.byte	0x9c
 360 015b FA000000 		.4byte	0xfa
 361 015f 08       		.byte	0x8
 362 0160 07       		.uleb128 0x7
 363 0161 63747800 		.ascii	"ctx\000"
 364 0165 06       		.byte	0x6
 365 0166 9D       		.byte	0x9d
 366 0167 3B040000 		.4byte	0x43b
 367 016b 0C       		.byte	0xc
 368 016c 06       		.uleb128 0x6
 369 016d 48040000 		.4byte	.LASF30
 370 0171 06       		.byte	0x6
 371 0172 9F       		.byte	0x9f
 372 0173 25020000 		.4byte	0x225
 373 0177 10       		.byte	0x10
ARM GAS  /tmp/ccWLWVLN.s 			page 14


 374 0178 06       		.uleb128 0x6
 375 0179 E4040000 		.4byte	.LASF31
 376 017d 06       		.byte	0x6
 377 017e A0       		.byte	0xa0
 378 017f 25020000 		.4byte	0x225
 379 0183 14       		.byte	0x14
 380 0184 06       		.uleb128 0x6
 381 0185 DF030000 		.4byte	.LASF32
 382 0189 06       		.byte	0x6
 383 018a A7       		.byte	0xa7
 384 018b 96050000 		.4byte	0x596
 385 018f 18       		.byte	0x18
 386 0190 06       		.uleb128 0x6
 387 0191 CC020000 		.4byte	.LASF33
 388 0195 06       		.byte	0x6
 389 0196 B0       		.byte	0xb0
 390 0197 A8050000 		.4byte	0x5a8
 391 019b 1C       		.byte	0x1c
 392 019c 06       		.uleb128 0x6
 393 019d 85040000 		.4byte	.LASF34
 394 01a1 06       		.byte	0x6
 395 01a2 B5       		.byte	0xb5
 396 01a3 E4000000 		.4byte	0xe4
 397 01a7 20       		.byte	0x20
 398 01a8 06       		.uleb128 0x6
 399 01a9 2E000000 		.4byte	.LASF35
 400 01ad 06       		.byte	0x6
 401 01ae B9       		.byte	0xb9
 402 01af D9000000 		.4byte	0xd9
 403 01b3 21       		.byte	0x21
 404 01b4 06       		.uleb128 0x6
 405 01b5 7B000000 		.4byte	.LASF36
 406 01b9 06       		.byte	0x6
 407 01ba BE       		.byte	0xbe
 408 01bb EF000000 		.4byte	0xef
 409 01bf 22       		.byte	0x22
 410 01c0 08       		.uleb128 0x8
 411 01c1 7500     		.ascii	"u\000"
 412 01c3 06       		.byte	0x6
 413 01c4 0F01     		.2byte	0x10f
 414 01c6 CB040000 		.4byte	0x4cb
 415 01ca 24       		.byte	0x24
 416 01cb 09       		.uleb128 0x9
 417 01cc 67040000 		.4byte	.LASF37
 418 01d0 06       		.byte	0x6
 419 01d1 1401     		.2byte	0x114
 420 01d3 2B020000 		.4byte	0x22b
 421 01d7 28       		.byte	0x28
 422 01d8 09       		.uleb128 0x9
 423 01d9 EB020000 		.4byte	.LASF38
 424 01dd 06       		.byte	0x6
 425 01de 1A01     		.2byte	0x11a
 426 01e0 4F020000 		.4byte	0x24f
 427 01e4 2C       		.byte	0x2c
 428 01e5 09       		.uleb128 0x9
 429 01e6 47000000 		.4byte	.LASF39
 430 01ea 06       		.byte	0x6
ARM GAS  /tmp/ccWLWVLN.s 			page 15


 431 01eb 2001     		.2byte	0x120
 432 01ed 10010000 		.4byte	0x110
 433 01f1 34       		.byte	0x34
 434 01f2 09       		.uleb128 0x9
 435 01f3 3C020000 		.4byte	.LASF40
 436 01f7 06       		.byte	0x6
 437 01f8 2701     		.2byte	0x127
 438 01fa 90050000 		.4byte	0x590
 439 01fe 38       		.byte	0x38
 440 01ff 09       		.uleb128 0x9
 441 0200 3E000000 		.4byte	.LASF41
 442 0204 06       		.byte	0x6
 443 0205 2B01     		.2byte	0x12b
 444 0207 FA000000 		.4byte	0xfa
 445 020b 3C       		.byte	0x3c
 446 020c 09       		.uleb128 0x9
 447 020d 2F050000 		.4byte	.LASF42
 448 0211 06       		.byte	0x6
 449 0212 3201     		.2byte	0x132
 450 0214 02030000 		.4byte	0x302
 451 0218 40       		.byte	0x40
 452 0219 00       		.byte	0
 453 021a 04       		.uleb128 0x4
 454 021b B9020000 		.4byte	.LASF43
 455 021f 05       		.byte	0x5
 456 0220 44       		.byte	0x44
 457 0221 25020000 		.4byte	0x225
 458 0225 0A       		.uleb128 0xa
 459 0226 04       		.byte	0x4
 460 0227 31010000 		.4byte	0x131
 461 022b 04       		.uleb128 0x4
 462 022c 62000000 		.4byte	.LASF44
 463 0230 05       		.byte	0x5
 464 0231 49       		.byte	0x49
 465 0232 36020000 		.4byte	0x236
 466 0236 05       		.uleb128 0x5
 467 0237 00000000 		.4byte	.LASF46
 468 023b 04       		.byte	0x4
 469 023c 06       		.byte	0x6
 470 023d 88       		.byte	0x88
 471 023e 4F020000 		.4byte	0x24f
 472 0242 06       		.uleb128 0x6
 473 0243 5D000000 		.4byte	.LASF47
 474 0247 06       		.byte	0x6
 475 0248 89       		.byte	0x89
 476 0249 25020000 		.4byte	0x225
 477 024d 00       		.byte	0
 478 024e 00       		.byte	0
 479 024f 04       		.uleb128 0x4
 480 0250 2C020000 		.4byte	.LASF48
 481 0254 05       		.byte	0x5
 482 0255 50       		.byte	0x50
 483 0256 5A020000 		.4byte	0x25a
 484 025a 05       		.uleb128 0x5
 485 025b BA000000 		.4byte	.LASF49
 486 025f 08       		.byte	0x8
 487 0260 06       		.byte	0x6
ARM GAS  /tmp/ccWLWVLN.s 			page 16


 488 0261 8F       		.byte	0x8f
 489 0262 7F020000 		.4byte	0x27f
 490 0266 06       		.uleb128 0x6
 491 0267 5D000000 		.4byte	.LASF47
 492 026b 06       		.byte	0x6
 493 026c 90       		.byte	0x90
 494 026d 25020000 		.4byte	0x225
 495 0271 00       		.byte	0
 496 0272 06       		.uleb128 0x6
 497 0273 B5000000 		.4byte	.LASF50
 498 0277 06       		.byte	0x6
 499 0278 91       		.byte	0x91
 500 0279 25020000 		.4byte	0x225
 501 027d 04       		.byte	0x4
 502 027e 00       		.byte	0
 503 027f 04       		.uleb128 0x4
 504 0280 1E040000 		.4byte	.LASF51
 505 0284 05       		.byte	0x5
 506 0285 57       		.byte	0x57
 507 0286 8A020000 		.4byte	0x28a
 508 028a 0B       		.uleb128 0xb
 509 028b 9B000000 		.4byte	.LASF52
 510 028f 1C       		.byte	0x1c
 511 0290 06       		.byte	0x6
 512 0291 6A01     		.2byte	0x16a
 513 0293 E6020000 		.4byte	0x2e6
 514 0297 09       		.uleb128 0x9
 515 0298 2B040000 		.4byte	.LASF28
 516 029c 06       		.byte	0x6
 517 029d 6B01     		.2byte	0x16b
 518 029f 4F020000 		.4byte	0x24f
 519 02a3 00       		.byte	0
 520 02a4 09       		.uleb128 0x9
 521 02a5 9F020000 		.4byte	.LASF29
 522 02a9 06       		.byte	0x6
 523 02aa 6C01     		.2byte	0x16c
 524 02ac FA000000 		.4byte	0xfa
 525 02b0 08       		.byte	0x8
 526 02b1 08       		.uleb128 0x8
 527 02b2 63747800 		.ascii	"ctx\000"
 528 02b6 06       		.byte	0x6
 529 02b7 6E01     		.2byte	0x16e
 530 02b9 3B040000 		.4byte	0x43b
 531 02bd 0C       		.byte	0xc
 532 02be 09       		.uleb128 0x9
 533 02bf 48040000 		.4byte	.LASF30
 534 02c3 06       		.byte	0x6
 535 02c4 7101     		.2byte	0x171
 536 02c6 25020000 		.4byte	0x225
 537 02ca 10       		.byte	0x10
 538 02cb 09       		.uleb128 0x9
 539 02cc E4040000 		.4byte	.LASF31
 540 02d0 06       		.byte	0x6
 541 02d1 7201     		.2byte	0x172
 542 02d3 25020000 		.4byte	0x225
 543 02d7 14       		.byte	0x14
 544 02d8 09       		.uleb128 0x9
ARM GAS  /tmp/ccWLWVLN.s 			page 17


 545 02d9 CD040000 		.4byte	.LASF53
 546 02dd 06       		.byte	0x6
 547 02de 7501     		.2byte	0x175
 548 02e0 25020000 		.4byte	0x225
 549 02e4 18       		.byte	0x18
 550 02e5 00       		.byte	0
 551 02e6 04       		.uleb128 0x4
 552 02e7 CB000000 		.4byte	.LASF54
 553 02eb 05       		.byte	0x5
 554 02ec 5C       		.byte	0x5c
 555 02ed F1020000 		.4byte	0x2f1
 556 02f1 0A       		.uleb128 0xa
 557 02f2 04       		.byte	0x4
 558 02f3 F7020000 		.4byte	0x2f7
 559 02f7 0C       		.uleb128 0xc
 560 02f8 02030000 		.4byte	0x302
 561 02fc 0D       		.uleb128 0xd
 562 02fd 02030000 		.4byte	0x302
 563 0301 00       		.byte	0
 564 0302 0E       		.uleb128 0xe
 565 0303 04       		.byte	0x4
 566 0304 04       		.uleb128 0x4
 567 0305 27030000 		.4byte	.LASF55
 568 0309 05       		.byte	0x5
 569 030a 61       		.byte	0x61
 570 030b 0F030000 		.4byte	0x30f
 571 030f 0B       		.uleb128 0xb
 572 0310 C0010000 		.4byte	.LASF56
 573 0314 14       		.byte	0x14
 574 0315 06       		.byte	0x6
 575 0316 4501     		.2byte	0x145
 576 0318 5E030000 		.4byte	0x35e
 577 031c 09       		.uleb128 0x9
 578 031d 5D000000 		.4byte	.LASF47
 579 0321 06       		.byte	0x6
 580 0322 4601     		.2byte	0x146
 581 0324 AE050000 		.4byte	0x5ae
 582 0328 00       		.byte	0
 583 0329 09       		.uleb128 0x9
 584 032a B5000000 		.4byte	.LASF50
 585 032e 06       		.byte	0x6
 586 032f 4701     		.2byte	0x147
 587 0331 AE050000 		.4byte	0x5ae
 588 0335 04       		.byte	0x4
 589 0336 09       		.uleb128 0x9
 590 0337 A9040000 		.4byte	.LASF57
 591 033b 06       		.byte	0x6
 592 033c 4801     		.2byte	0x148
 593 033e 26010000 		.4byte	0x126
 594 0342 08       		.byte	0x8
 595 0343 09       		.uleb128 0x9
 596 0344 A9000000 		.4byte	.LASF58
 597 0348 06       		.byte	0x6
 598 0349 4901     		.2byte	0x149
 599 034b E6020000 		.4byte	0x2e6
 600 034f 0C       		.byte	0xc
 601 0350 08       		.uleb128 0x8
ARM GAS  /tmp/ccWLWVLN.s 			page 18


 602 0351 70617200 		.ascii	"par\000"
 603 0355 06       		.byte	0x6
 604 0356 4B01     		.2byte	0x14b
 605 0358 02030000 		.4byte	0x302
 606 035c 10       		.byte	0x10
 607 035d 00       		.byte	0
 608 035e 04       		.uleb128 0x4
 609 035f 6F040000 		.4byte	.LASF59
 610 0363 05       		.byte	0x5
 611 0364 66       		.byte	0x66
 612 0365 69030000 		.4byte	0x369
 613 0369 0B       		.uleb128 0xb
 614 036a 44020000 		.4byte	.LASF60
 615 036e 0C       		.byte	0xc
 616 036f 06       		.byte	0x6
 617 0370 5501     		.2byte	0x155
 618 0372 AB030000 		.4byte	0x3ab
 619 0376 09       		.uleb128 0x9
 620 0377 5D000000 		.4byte	.LASF47
 621 037b 06       		.byte	0x6
 622 037c 5601     		.2byte	0x156
 623 037e AE050000 		.4byte	0x5ae
 624 0382 00       		.byte	0
 625 0383 09       		.uleb128 0x9
 626 0384 B5000000 		.4byte	.LASF50
 627 0388 06       		.byte	0x6
 628 0389 5801     		.2byte	0x158
 629 038b AE050000 		.4byte	0x5ae
 630 038f 04       		.byte	0x4
 631 0390 09       		.uleb128 0x9
 632 0391 A9040000 		.4byte	.LASF57
 633 0395 06       		.byte	0x6
 634 0396 5A01     		.2byte	0x15a
 635 0398 26010000 		.4byte	0x126
 636 039c 08       		.byte	0x8
 637 039d 09       		.uleb128 0x9
 638 039e 9E030000 		.4byte	.LASF61
 639 03a2 06       		.byte	0x6
 640 03a3 6201     		.2byte	0x162
 641 03a5 26010000 		.4byte	0x126
 642 03a9 0A       		.byte	0xa
 643 03aa 00       		.byte	0
 644 03ab 04       		.uleb128 0x4
 645 03ac FE020000 		.4byte	.LASF62
 646 03b0 05       		.byte	0x5
 647 03b1 6B       		.byte	0x6b
 648 03b2 B6030000 		.4byte	0x3b6
 649 03b6 0B       		.uleb128 0xb
 650 03b7 D4000000 		.4byte	.LASF63
 651 03bb 04       		.byte	0x4
 652 03bc 06       		.byte	0x6
 653 03bd 7C01     		.2byte	0x17c
 654 03bf D1030000 		.4byte	0x3d1
 655 03c3 09       		.uleb128 0x9
 656 03c4 41030000 		.4byte	.LASF64
 657 03c8 06       		.byte	0x6
 658 03c9 8401     		.2byte	0x184
ARM GAS  /tmp/ccWLWVLN.s 			page 19


 659 03cb B4050000 		.4byte	0x5b4
 660 03cf 00       		.byte	0
 661 03d0 00       		.byte	0
 662 03d1 04       		.uleb128 0x4
 663 03d2 8B040000 		.4byte	.LASF65
 664 03d6 05       		.byte	0x5
 665 03d7 70       		.byte	0x70
 666 03d8 DC030000 		.4byte	0x3dc
 667 03dc 0B       		.uleb128 0xb
 668 03dd 94030000 		.4byte	.LASF66
 669 03e1 70       		.byte	0x70
 670 03e2 06       		.byte	0x6
 671 03e3 9C01     		.2byte	0x19c
 672 03e5 1E040000 		.4byte	0x41e
 673 03e9 09       		.uleb128 0x9
 674 03ea B8030000 		.4byte	.LASF67
 675 03ee 06       		.byte	0x6
 676 03ef A001     		.2byte	0x1a0
 677 03f1 7F020000 		.4byte	0x27f
 678 03f5 00       		.byte	0
 679 03f6 09       		.uleb128 0x9
 680 03f7 87000000 		.4byte	.LASF68
 681 03fb 06       		.byte	0x6
 682 03fc A401     		.2byte	0x1a4
 683 03fe 5E030000 		.4byte	0x35e
 684 0402 1C       		.byte	0x1c
 685 0403 08       		.uleb128 0x8
 686 0404 64626700 		.ascii	"dbg\000"
 687 0408 06       		.byte	0x6
 688 0409 A801     		.2byte	0x1a8
 689 040b AB030000 		.4byte	0x3ab
 690 040f 28       		.byte	0x28
 691 0410 09       		.uleb128 0x9
 692 0411 53030000 		.4byte	.LASF69
 693 0415 06       		.byte	0x6
 694 0416 AC01     		.2byte	0x1ac
 695 0418 31010000 		.4byte	0x131
 696 041c 2C       		.byte	0x2c
 697 041d 00       		.byte	0
 698 041e 03       		.uleb128 0x3
 699 041f 04       		.byte	0x4
 700 0420 07       		.byte	0x7
 701 0421 EE030000 		.4byte	.LASF70
 702 0425 04       		.uleb128 0x4
 703 0426 25000000 		.4byte	.LASF71
 704 042a 07       		.byte	0x7
 705 042b 65       		.byte	0x65
 706 042c 02030000 		.4byte	0x302
 707 0430 04       		.uleb128 0x4
 708 0431 C2040000 		.4byte	.LASF72
 709 0435 07       		.byte	0x7
 710 0436 6D       		.byte	0x6d
 711 0437 CE000000 		.4byte	0xce
 712 043b 05       		.uleb128 0x5
 713 043c 8E000000 		.4byte	.LASF73
 714 0440 04       		.byte	0x4
 715 0441 07       		.byte	0x7
ARM GAS  /tmp/ccWLWVLN.s 			page 20


 716 0442 89       		.byte	0x89
 717 0443 53040000 		.4byte	0x453
 718 0447 07       		.uleb128 0x7
 719 0448 737000   		.ascii	"sp\000"
 720 044b 07       		.byte	0x7
 721 044c 8A       		.byte	0x8a
 722 044d C5040000 		.4byte	0x4c5
 723 0451 00       		.byte	0
 724 0452 00       		.byte	0
 725 0453 05       		.uleb128 0x5
 726 0454 81030000 		.4byte	.LASF74
 727 0458 24       		.byte	0x24
 728 0459 08       		.byte	0x8
 729 045a C3       		.byte	0xc3
 730 045b C5040000 		.4byte	0x4c5
 731 045f 07       		.uleb128 0x7
 732 0460 723800   		.ascii	"r8\000"
 733 0463 08       		.byte	0x8
 734 0464 C4       		.byte	0xc4
 735 0465 25040000 		.4byte	0x425
 736 0469 00       		.byte	0
 737 046a 07       		.uleb128 0x7
 738 046b 723900   		.ascii	"r9\000"
 739 046e 08       		.byte	0x8
 740 046f C5       		.byte	0xc5
 741 0470 25040000 		.4byte	0x425
 742 0474 04       		.byte	0x4
 743 0475 07       		.uleb128 0x7
 744 0476 72313000 		.ascii	"r10\000"
 745 047a 08       		.byte	0x8
 746 047b C6       		.byte	0xc6
 747 047c 25040000 		.4byte	0x425
 748 0480 08       		.byte	0x8
 749 0481 07       		.uleb128 0x7
 750 0482 72313100 		.ascii	"r11\000"
 751 0486 08       		.byte	0x8
 752 0487 C7       		.byte	0xc7
 753 0488 25040000 		.4byte	0x425
 754 048c 0C       		.byte	0xc
 755 048d 07       		.uleb128 0x7
 756 048e 723400   		.ascii	"r4\000"
 757 0491 08       		.byte	0x8
 758 0492 C8       		.byte	0xc8
 759 0493 25040000 		.4byte	0x425
 760 0497 10       		.byte	0x10
 761 0498 07       		.uleb128 0x7
 762 0499 723500   		.ascii	"r5\000"
 763 049c 08       		.byte	0x8
 764 049d C9       		.byte	0xc9
 765 049e 25040000 		.4byte	0x425
 766 04a2 14       		.byte	0x14
 767 04a3 07       		.uleb128 0x7
 768 04a4 723600   		.ascii	"r6\000"
 769 04a7 08       		.byte	0x8
 770 04a8 CA       		.byte	0xca
 771 04a9 25040000 		.4byte	0x425
 772 04ad 18       		.byte	0x18
ARM GAS  /tmp/ccWLWVLN.s 			page 21


 773 04ae 07       		.uleb128 0x7
 774 04af 723700   		.ascii	"r7\000"
 775 04b2 08       		.byte	0x8
 776 04b3 CB       		.byte	0xcb
 777 04b4 25040000 		.4byte	0x425
 778 04b8 1C       		.byte	0x1c
 779 04b9 07       		.uleb128 0x7
 780 04ba 6C7200   		.ascii	"lr\000"
 781 04bd 08       		.byte	0x8
 782 04be CC       		.byte	0xcc
 783 04bf 25040000 		.4byte	0x425
 784 04c3 20       		.byte	0x20
 785 04c4 00       		.byte	0
 786 04c5 0A       		.uleb128 0xa
 787 04c6 04       		.byte	0x4
 788 04c7 53040000 		.4byte	0x453
 789 04cb 0F       		.uleb128 0xf
 790 04cc 04       		.byte	0x4
 791 04cd 06       		.byte	0x6
 792 04ce D2       		.byte	0xd2
 793 04cf 2E050000 		.4byte	0x52e
 794 04d3 10       		.uleb128 0x10
 795 04d4 64020000 		.4byte	.LASF75
 796 04d8 06       		.byte	0x6
 797 04d9 D9       		.byte	0xd9
 798 04da 05010000 		.4byte	0x105
 799 04de 10       		.uleb128 0x10
 800 04df 26050000 		.4byte	.LASF76
 801 04e3 06       		.byte	0x6
 802 04e4 E0       		.byte	0xe0
 803 04e5 05010000 		.4byte	0x105
 804 04e9 10       		.uleb128 0x10
 805 04ea 80000000 		.4byte	.LASF77
 806 04ee 06       		.byte	0x6
 807 04ef E7       		.byte	0xe7
 808 04f0 02030000 		.4byte	0x302
 809 04f4 10       		.uleb128 0x10
 810 04f5 97040000 		.4byte	.LASF78
 811 04f9 06       		.byte	0x6
 812 04fa EE       		.byte	0xee
 813 04fb 2E050000 		.4byte	0x52e
 814 04ff 10       		.uleb128 0x10
 815 0500 90010000 		.4byte	.LASF79
 816 0504 06       		.byte	0x6
 817 0505 F3       		.byte	0xf3
 818 0506 05010000 		.4byte	0x105
 819 050a 10       		.uleb128 0x10
 820 050b 39040000 		.4byte	.LASF80
 821 050f 06       		.byte	0x6
 822 0510 FC       		.byte	0xfc
 823 0511 59050000 		.4byte	0x559
 824 0515 11       		.uleb128 0x11
 825 0516 17000000 		.4byte	.LASF81
 826 051a 06       		.byte	0x6
 827 051b 0501     		.2byte	0x105
 828 051d 90050000 		.4byte	0x590
 829 0521 11       		.uleb128 0x11
ARM GAS  /tmp/ccWLWVLN.s 			page 22


 830 0522 AE000000 		.4byte	.LASF82
 831 0526 06       		.byte	0x6
 832 0527 0D01     		.2byte	0x10d
 833 0529 10010000 		.4byte	0x110
 834 052d 00       		.byte	0
 835 052e 0A       		.uleb128 0xa
 836 052f 04       		.byte	0x4
 837 0530 1A020000 		.4byte	0x21a
 838 0534 05       		.uleb128 0x5
 839 0535 AB010000 		.4byte	.LASF83
 840 0539 0C       		.byte	0xc
 841 053a 09       		.byte	0x9
 842 053b 34       		.byte	0x34
 843 053c 59050000 		.4byte	0x559
 844 0540 06       		.uleb128 0x6
 845 0541 2B040000 		.4byte	.LASF28
 846 0545 09       		.byte	0x9
 847 0546 35       		.byte	0x35
 848 0547 4F020000 		.4byte	0x24f
 849 054b 00       		.byte	0
 850 054c 07       		.uleb128 0x7
 851 054d 636E7400 		.ascii	"cnt\000"
 852 0551 09       		.byte	0x9
 853 0552 37       		.byte	0x37
 854 0553 1B010000 		.4byte	0x11b
 855 0557 08       		.byte	0x8
 856 0558 00       		.byte	0
 857 0559 0A       		.uleb128 0xa
 858 055a 04       		.byte	0x4
 859 055b 34050000 		.4byte	0x534
 860 055f 05       		.uleb128 0x5
 861 0560 78020000 		.4byte	.LASF84
 862 0564 10       		.byte	0x10
 863 0565 0A       		.byte	0xa
 864 0566 39       		.byte	0x39
 865 0567 90050000 		.4byte	0x590
 866 056b 06       		.uleb128 0x6
 867 056c 2B040000 		.4byte	.LASF28
 868 0570 0A       		.byte	0xa
 869 0571 3A       		.byte	0x3a
 870 0572 4F020000 		.4byte	0x24f
 871 0576 00       		.byte	0
 872 0577 06       		.uleb128 0x6
 873 0578 26020000 		.4byte	.LASF85
 874 057c 0A       		.byte	0xa
 875 057d 3C       		.byte	0x3c
 876 057e 25020000 		.4byte	0x225
 877 0582 08       		.byte	0x8
 878 0583 06       		.uleb128 0x6
 879 0584 5D000000 		.4byte	.LASF47
 880 0588 0A       		.byte	0xa
 881 0589 3E       		.byte	0x3e
 882 058a C4050000 		.4byte	0x5c4
 883 058e 0C       		.byte	0xc
 884 058f 00       		.byte	0
 885 0590 0A       		.uleb128 0xa
 886 0591 04       		.byte	0x4
ARM GAS  /tmp/ccWLWVLN.s 			page 23


 887 0592 5F050000 		.4byte	0x55f
 888 0596 0A       		.uleb128 0xa
 889 0597 04       		.byte	0x4
 890 0598 9C050000 		.4byte	0x59c
 891 059c 12       		.uleb128 0x12
 892 059d A1050000 		.4byte	0x5a1
 893 05a1 03       		.uleb128 0x3
 894 05a2 01       		.byte	0x1
 895 05a3 08       		.byte	0x8
 896 05a4 B4020000 		.4byte	.LASF86
 897 05a8 0A       		.uleb128 0xa
 898 05a9 04       		.byte	0x4
 899 05aa 30040000 		.4byte	0x430
 900 05ae 0A       		.uleb128 0xa
 901 05af 04       		.byte	0x4
 902 05b0 04030000 		.4byte	0x304
 903 05b4 13       		.uleb128 0x13
 904 05b5 96050000 		.4byte	0x596
 905 05b9 04       		.uleb128 0x4
 906 05ba 40040000 		.4byte	.LASF87
 907 05be 0A       		.byte	0xa
 908 05bf 34       		.byte	0x34
 909 05c0 5F050000 		.4byte	0x55f
 910 05c4 0A       		.uleb128 0xa
 911 05c5 04       		.byte	0x4
 912 05c6 B9050000 		.4byte	0x5b9
 913 05ca 03       		.uleb128 0x3
 914 05cb 01       		.byte	0x1
 915 05cc 02       		.byte	0x2
 916 05cd 6B020000 		.4byte	.LASF88
 917 05d1 14       		.uleb128 0x14
 918 05d2 1C       		.byte	0x1c
 919 05d3 0B       		.byte	0xb
 920 05d4 F5       		.byte	0xf5
 921 05d5 30060000 		.4byte	0x630
 922 05d9 06       		.uleb128 0x6
 923 05da A4020000 		.4byte	.LASF89
 924 05de 0B       		.byte	0xb
 925 05df F7       		.byte	0xf7
 926 05e0 C3000000 		.4byte	0xc3
 927 05e4 00       		.byte	0
 928 05e5 06       		.uleb128 0x6
 929 05e6 A4010000 		.4byte	.LASF90
 930 05ea 0B       		.byte	0xb
 931 05eb F9       		.byte	0xf9
 932 05ec C3000000 		.4byte	0xc3
 933 05f0 04       		.byte	0x4
 934 05f1 06       		.uleb128 0x6
 935 05f2 DC040000 		.4byte	.LASF91
 936 05f6 0B       		.byte	0xb
 937 05f7 FB       		.byte	0xfb
 938 05f8 C3000000 		.4byte	0xc3
 939 05fc 08       		.byte	0x8
 940 05fd 06       		.uleb128 0x6
 941 05fe 21030000 		.4byte	.LASF92
 942 0602 0B       		.byte	0xb
 943 0603 FD       		.byte	0xfd
ARM GAS  /tmp/ccWLWVLN.s 			page 24


 944 0604 C3000000 		.4byte	0xc3
 945 0608 0C       		.byte	0xc
 946 0609 07       		.uleb128 0x7
 947 060a 6F647200 		.ascii	"odr\000"
 948 060e 0B       		.byte	0xb
 949 060f FF       		.byte	0xff
 950 0610 C3000000 		.4byte	0xc3
 951 0614 10       		.byte	0x10
 952 0615 09       		.uleb128 0x9
 953 0616 3C030000 		.4byte	.LASF93
 954 061a 0B       		.byte	0xb
 955 061b 0101     		.2byte	0x101
 956 061d C3000000 		.4byte	0xc3
 957 0621 14       		.byte	0x14
 958 0622 09       		.uleb128 0x9
 959 0623 37030000 		.4byte	.LASF94
 960 0627 0B       		.byte	0xb
 961 0628 0301     		.2byte	0x103
 962 062a C3000000 		.4byte	0xc3
 963 062e 18       		.byte	0x18
 964 062f 00       		.byte	0
 965 0630 15       		.uleb128 0x15
 966 0631 13020000 		.4byte	.LASF95
 967 0635 0B       		.byte	0xb
 968 0636 0401     		.2byte	0x104
 969 0638 D1050000 		.4byte	0x5d1
 970 063c 16       		.uleb128 0x16
 971 063d 8C       		.byte	0x8c
 972 063e 0B       		.byte	0xb
 973 063f 0D01     		.2byte	0x10d
 974 0641 87060000 		.4byte	0x687
 975 0645 09       		.uleb128 0x9
 976 0646 8D030000 		.4byte	.LASF96
 977 064a 0B       		.byte	0xb
 978 064b 1001     		.2byte	0x110
 979 064d 30060000 		.4byte	0x630
 980 0651 00       		.byte	0
 981 0652 09       		.uleb128 0x9
 982 0653 71020000 		.4byte	.LASF97
 983 0657 0B       		.byte	0xb
 984 0658 1401     		.2byte	0x114
 985 065a 30060000 		.4byte	0x630
 986 065e 1C       		.byte	0x1c
 987 065f 09       		.uleb128 0x9
 988 0660 10000000 		.4byte	.LASF98
 989 0664 0B       		.byte	0xb
 990 0665 1801     		.2byte	0x118
 991 0667 30060000 		.4byte	0x630
 992 066b 38       		.byte	0x38
 993 066c 09       		.uleb128 0x9
 994 066d 67030000 		.4byte	.LASF99
 995 0671 0B       		.byte	0xb
 996 0672 1C01     		.2byte	0x11c
 997 0674 30060000 		.4byte	0x630
 998 0678 54       		.byte	0x54
 999 0679 09       		.uleb128 0x9
 1000 067a D5040000 		.4byte	.LASF100
ARM GAS  /tmp/ccWLWVLN.s 			page 25


 1001 067e 0B       		.byte	0xb
 1002 067f 2401     		.2byte	0x124
 1003 0681 30060000 		.4byte	0x630
 1004 0685 70       		.byte	0x70
 1005 0686 00       		.byte	0
 1006 0687 15       		.uleb128 0x15
 1007 0688 E4030000 		.4byte	.LASF101
 1008 068c 0B       		.byte	0xb
 1009 068d 3A01     		.2byte	0x13a
 1010 068f 3C060000 		.4byte	0x63c
 1011 0693 17       		.uleb128 0x17
 1012 0694 D6030000 		.4byte	.LASF110
 1013 0698 10       		.byte	0x10
 1014 0699 C101     		.2byte	0x1c1
 1015 069b 03       		.byte	0x3
 1016 069c 18       		.uleb128 0x18
 1017 069d B0030000 		.4byte	.LASF111
 1018 06a1 01       		.byte	0x1
 1019 06a2 38       		.byte	0x38
 1020 06a3 00000000 		.4byte	.LFB179
 1021 06a7 20000000 		.4byte	.LFE179-.LFB179
 1022 06ab 01       		.uleb128 0x1
 1023 06ac 9C       		.byte	0x9c
 1024 06ad DF060000 		.4byte	0x6df
 1025 06b1 19       		.uleb128 0x19
 1026 06b2 06000000 		.4byte	.LVL0
 1027 06b6 FB060000 		.4byte	0x6fb
 1028 06ba 19       		.uleb128 0x19
 1029 06bb 0C000000 		.4byte	.LVL1
 1030 06bf 03070000 		.4byte	0x703
 1031 06c3 19       		.uleb128 0x19
 1032 06c4 10000000 		.4byte	.LVL2
 1033 06c8 1B070000 		.4byte	0x71b
 1034 06cc 19       		.uleb128 0x19
 1035 06cd 14000000 		.4byte	.LVL3
 1036 06d1 23070000 		.4byte	0x723
 1037 06d5 19       		.uleb128 0x19
 1038 06d6 18000000 		.4byte	.LVL4
 1039 06da 2B070000 		.4byte	0x72b
 1040 06de 00       		.byte	0
 1041 06df 1A       		.uleb128 0x1a
 1042 06e0 636800   		.ascii	"ch\000"
 1043 06e3 06       		.byte	0x6
 1044 06e4 D201     		.2byte	0x1d2
 1045 06e6 D1030000 		.4byte	0x3d1
 1046 06ea 1B       		.uleb128 0x1b
 1047 06eb 8C020000 		.4byte	.LASF102
 1048 06ef 0B       		.byte	0xb
 1049 06f0 1E02     		.2byte	0x21e
 1050 06f2 F6060000 		.4byte	0x6f6
 1051 06f6 12       		.uleb128 0x12
 1052 06f7 87060000 		.4byte	0x687
 1053 06fb 1C       		.uleb128 0x1c
 1054 06fc 11040000 		.4byte	.LASF103
 1055 0700 0C       		.byte	0xc
 1056 0701 B603     		.2byte	0x3b6
 1057 0703 1D       		.uleb128 0x1d
ARM GAS  /tmp/ccWLWVLN.s 			page 26


 1058 0704 BE030000 		.4byte	.LASF112
 1059 0708 0B       		.byte	0xb
 1060 0709 2302     		.2byte	0x223
 1061 070b 15070000 		.4byte	0x715
 1062 070f 0D       		.uleb128 0xd
 1063 0710 15070000 		.4byte	0x715
 1064 0714 00       		.byte	0
 1065 0715 0A       		.uleb128 0xa
 1066 0716 04       		.byte	0x4
 1067 0717 F6060000 		.4byte	0x6f6
 1068 071b 1C       		.uleb128 0x1c
 1069 071c 1E000000 		.4byte	.LASF104
 1070 0720 0D       		.byte	0xd
 1071 0721 0E01     		.2byte	0x10e
 1072 0723 1C       		.uleb128 0x1c
 1073 0724 AA020000 		.4byte	.LASF105
 1074 0728 0E       		.byte	0xe
 1075 0729 2803     		.2byte	0x328
 1076 072b 1E       		.uleb128 0x1e
 1077 072c DC020000 		.4byte	.LASF106
 1078 0730 0F       		.byte	0xf
 1079 0731 56       		.byte	0x56
 1080 0732 00       		.byte	0
 1081              		.section	.debug_abbrev,"",%progbits
 1082              	.Ldebug_abbrev0:
 1083 0000 01       		.uleb128 0x1
 1084 0001 11       		.uleb128 0x11
 1085 0002 01       		.byte	0x1
 1086 0003 25       		.uleb128 0x25
 1087 0004 0E       		.uleb128 0xe
 1088 0005 13       		.uleb128 0x13
 1089 0006 0B       		.uleb128 0xb
 1090 0007 03       		.uleb128 0x3
 1091 0008 0E       		.uleb128 0xe
 1092 0009 1B       		.uleb128 0x1b
 1093 000a 0E       		.uleb128 0xe
 1094 000b 55       		.uleb128 0x55
 1095 000c 17       		.uleb128 0x17
 1096 000d 11       		.uleb128 0x11
 1097 000e 01       		.uleb128 0x1
 1098 000f 10       		.uleb128 0x10
 1099 0010 17       		.uleb128 0x17
 1100 0011 00       		.byte	0
 1101 0012 00       		.byte	0
 1102 0013 02       		.uleb128 0x2
 1103 0014 24       		.uleb128 0x24
 1104 0015 00       		.byte	0
 1105 0016 0B       		.uleb128 0xb
 1106 0017 0B       		.uleb128 0xb
 1107 0018 3E       		.uleb128 0x3e
 1108 0019 0B       		.uleb128 0xb
 1109 001a 03       		.uleb128 0x3
 1110 001b 08       		.uleb128 0x8
 1111 001c 00       		.byte	0
 1112 001d 00       		.byte	0
 1113 001e 03       		.uleb128 0x3
 1114 001f 24       		.uleb128 0x24
ARM GAS  /tmp/ccWLWVLN.s 			page 27


 1115 0020 00       		.byte	0
 1116 0021 0B       		.uleb128 0xb
 1117 0022 0B       		.uleb128 0xb
 1118 0023 3E       		.uleb128 0x3e
 1119 0024 0B       		.uleb128 0xb
 1120 0025 03       		.uleb128 0x3
 1121 0026 0E       		.uleb128 0xe
 1122 0027 00       		.byte	0
 1123 0028 00       		.byte	0
 1124 0029 04       		.uleb128 0x4
 1125 002a 16       		.uleb128 0x16
 1126 002b 00       		.byte	0
 1127 002c 03       		.uleb128 0x3
 1128 002d 0E       		.uleb128 0xe
 1129 002e 3A       		.uleb128 0x3a
 1130 002f 0B       		.uleb128 0xb
 1131 0030 3B       		.uleb128 0x3b
 1132 0031 0B       		.uleb128 0xb
 1133 0032 49       		.uleb128 0x49
 1134 0033 13       		.uleb128 0x13
 1135 0034 00       		.byte	0
 1136 0035 00       		.byte	0
 1137 0036 05       		.uleb128 0x5
 1138 0037 13       		.uleb128 0x13
 1139 0038 01       		.byte	0x1
 1140 0039 03       		.uleb128 0x3
 1141 003a 0E       		.uleb128 0xe
 1142 003b 0B       		.uleb128 0xb
 1143 003c 0B       		.uleb128 0xb
 1144 003d 3A       		.uleb128 0x3a
 1145 003e 0B       		.uleb128 0xb
 1146 003f 3B       		.uleb128 0x3b
 1147 0040 0B       		.uleb128 0xb
 1148 0041 01       		.uleb128 0x1
 1149 0042 13       		.uleb128 0x13
 1150 0043 00       		.byte	0
 1151 0044 00       		.byte	0
 1152 0045 06       		.uleb128 0x6
 1153 0046 0D       		.uleb128 0xd
 1154 0047 00       		.byte	0
 1155 0048 03       		.uleb128 0x3
 1156 0049 0E       		.uleb128 0xe
 1157 004a 3A       		.uleb128 0x3a
 1158 004b 0B       		.uleb128 0xb
 1159 004c 3B       		.uleb128 0x3b
 1160 004d 0B       		.uleb128 0xb
 1161 004e 49       		.uleb128 0x49
 1162 004f 13       		.uleb128 0x13
 1163 0050 38       		.uleb128 0x38
 1164 0051 0B       		.uleb128 0xb
 1165 0052 00       		.byte	0
 1166 0053 00       		.byte	0
 1167 0054 07       		.uleb128 0x7
 1168 0055 0D       		.uleb128 0xd
 1169 0056 00       		.byte	0
 1170 0057 03       		.uleb128 0x3
 1171 0058 08       		.uleb128 0x8
ARM GAS  /tmp/ccWLWVLN.s 			page 28


 1172 0059 3A       		.uleb128 0x3a
 1173 005a 0B       		.uleb128 0xb
 1174 005b 3B       		.uleb128 0x3b
 1175 005c 0B       		.uleb128 0xb
 1176 005d 49       		.uleb128 0x49
 1177 005e 13       		.uleb128 0x13
 1178 005f 38       		.uleb128 0x38
 1179 0060 0B       		.uleb128 0xb
 1180 0061 00       		.byte	0
 1181 0062 00       		.byte	0
 1182 0063 08       		.uleb128 0x8
 1183 0064 0D       		.uleb128 0xd
 1184 0065 00       		.byte	0
 1185 0066 03       		.uleb128 0x3
 1186 0067 08       		.uleb128 0x8
 1187 0068 3A       		.uleb128 0x3a
 1188 0069 0B       		.uleb128 0xb
 1189 006a 3B       		.uleb128 0x3b
 1190 006b 05       		.uleb128 0x5
 1191 006c 49       		.uleb128 0x49
 1192 006d 13       		.uleb128 0x13
 1193 006e 38       		.uleb128 0x38
 1194 006f 0B       		.uleb128 0xb
 1195 0070 00       		.byte	0
 1196 0071 00       		.byte	0
 1197 0072 09       		.uleb128 0x9
 1198 0073 0D       		.uleb128 0xd
 1199 0074 00       		.byte	0
 1200 0075 03       		.uleb128 0x3
 1201 0076 0E       		.uleb128 0xe
 1202 0077 3A       		.uleb128 0x3a
 1203 0078 0B       		.uleb128 0xb
 1204 0079 3B       		.uleb128 0x3b
 1205 007a 05       		.uleb128 0x5
 1206 007b 49       		.uleb128 0x49
 1207 007c 13       		.uleb128 0x13
 1208 007d 38       		.uleb128 0x38
 1209 007e 0B       		.uleb128 0xb
 1210 007f 00       		.byte	0
 1211 0080 00       		.byte	0
 1212 0081 0A       		.uleb128 0xa
 1213 0082 0F       		.uleb128 0xf
 1214 0083 00       		.byte	0
 1215 0084 0B       		.uleb128 0xb
 1216 0085 0B       		.uleb128 0xb
 1217 0086 49       		.uleb128 0x49
 1218 0087 13       		.uleb128 0x13
 1219 0088 00       		.byte	0
 1220 0089 00       		.byte	0
 1221 008a 0B       		.uleb128 0xb
 1222 008b 13       		.uleb128 0x13
 1223 008c 01       		.byte	0x1
 1224 008d 03       		.uleb128 0x3
 1225 008e 0E       		.uleb128 0xe
 1226 008f 0B       		.uleb128 0xb
 1227 0090 0B       		.uleb128 0xb
 1228 0091 3A       		.uleb128 0x3a
ARM GAS  /tmp/ccWLWVLN.s 			page 29


 1229 0092 0B       		.uleb128 0xb
 1230 0093 3B       		.uleb128 0x3b
 1231 0094 05       		.uleb128 0x5
 1232 0095 01       		.uleb128 0x1
 1233 0096 13       		.uleb128 0x13
 1234 0097 00       		.byte	0
 1235 0098 00       		.byte	0
 1236 0099 0C       		.uleb128 0xc
 1237 009a 15       		.uleb128 0x15
 1238 009b 01       		.byte	0x1
 1239 009c 27       		.uleb128 0x27
 1240 009d 19       		.uleb128 0x19
 1241 009e 01       		.uleb128 0x1
 1242 009f 13       		.uleb128 0x13
 1243 00a0 00       		.byte	0
 1244 00a1 00       		.byte	0
 1245 00a2 0D       		.uleb128 0xd
 1246 00a3 05       		.uleb128 0x5
 1247 00a4 00       		.byte	0
 1248 00a5 49       		.uleb128 0x49
 1249 00a6 13       		.uleb128 0x13
 1250 00a7 00       		.byte	0
 1251 00a8 00       		.byte	0
 1252 00a9 0E       		.uleb128 0xe
 1253 00aa 0F       		.uleb128 0xf
 1254 00ab 00       		.byte	0
 1255 00ac 0B       		.uleb128 0xb
 1256 00ad 0B       		.uleb128 0xb
 1257 00ae 00       		.byte	0
 1258 00af 00       		.byte	0
 1259 00b0 0F       		.uleb128 0xf
 1260 00b1 17       		.uleb128 0x17
 1261 00b2 01       		.byte	0x1
 1262 00b3 0B       		.uleb128 0xb
 1263 00b4 0B       		.uleb128 0xb
 1264 00b5 3A       		.uleb128 0x3a
 1265 00b6 0B       		.uleb128 0xb
 1266 00b7 3B       		.uleb128 0x3b
 1267 00b8 0B       		.uleb128 0xb
 1268 00b9 01       		.uleb128 0x1
 1269 00ba 13       		.uleb128 0x13
 1270 00bb 00       		.byte	0
 1271 00bc 00       		.byte	0
 1272 00bd 10       		.uleb128 0x10
 1273 00be 0D       		.uleb128 0xd
 1274 00bf 00       		.byte	0
 1275 00c0 03       		.uleb128 0x3
 1276 00c1 0E       		.uleb128 0xe
 1277 00c2 3A       		.uleb128 0x3a
 1278 00c3 0B       		.uleb128 0xb
 1279 00c4 3B       		.uleb128 0x3b
 1280 00c5 0B       		.uleb128 0xb
 1281 00c6 49       		.uleb128 0x49
 1282 00c7 13       		.uleb128 0x13
 1283 00c8 00       		.byte	0
 1284 00c9 00       		.byte	0
 1285 00ca 11       		.uleb128 0x11
ARM GAS  /tmp/ccWLWVLN.s 			page 30


 1286 00cb 0D       		.uleb128 0xd
 1287 00cc 00       		.byte	0
 1288 00cd 03       		.uleb128 0x3
 1289 00ce 0E       		.uleb128 0xe
 1290 00cf 3A       		.uleb128 0x3a
 1291 00d0 0B       		.uleb128 0xb
 1292 00d1 3B       		.uleb128 0x3b
 1293 00d2 05       		.uleb128 0x5
 1294 00d3 49       		.uleb128 0x49
 1295 00d4 13       		.uleb128 0x13
 1296 00d5 00       		.byte	0
 1297 00d6 00       		.byte	0
 1298 00d7 12       		.uleb128 0x12
 1299 00d8 26       		.uleb128 0x26
 1300 00d9 00       		.byte	0
 1301 00da 49       		.uleb128 0x49
 1302 00db 13       		.uleb128 0x13
 1303 00dc 00       		.byte	0
 1304 00dd 00       		.byte	0
 1305 00de 13       		.uleb128 0x13
 1306 00df 35       		.uleb128 0x35
 1307 00e0 00       		.byte	0
 1308 00e1 49       		.uleb128 0x49
 1309 00e2 13       		.uleb128 0x13
 1310 00e3 00       		.byte	0
 1311 00e4 00       		.byte	0
 1312 00e5 14       		.uleb128 0x14
 1313 00e6 13       		.uleb128 0x13
 1314 00e7 01       		.byte	0x1
 1315 00e8 0B       		.uleb128 0xb
 1316 00e9 0B       		.uleb128 0xb
 1317 00ea 3A       		.uleb128 0x3a
 1318 00eb 0B       		.uleb128 0xb
 1319 00ec 3B       		.uleb128 0x3b
 1320 00ed 0B       		.uleb128 0xb
 1321 00ee 01       		.uleb128 0x1
 1322 00ef 13       		.uleb128 0x13
 1323 00f0 00       		.byte	0
 1324 00f1 00       		.byte	0
 1325 00f2 15       		.uleb128 0x15
 1326 00f3 16       		.uleb128 0x16
 1327 00f4 00       		.byte	0
 1328 00f5 03       		.uleb128 0x3
 1329 00f6 0E       		.uleb128 0xe
 1330 00f7 3A       		.uleb128 0x3a
 1331 00f8 0B       		.uleb128 0xb
 1332 00f9 3B       		.uleb128 0x3b
 1333 00fa 05       		.uleb128 0x5
 1334 00fb 49       		.uleb128 0x49
 1335 00fc 13       		.uleb128 0x13
 1336 00fd 00       		.byte	0
 1337 00fe 00       		.byte	0
 1338 00ff 16       		.uleb128 0x16
 1339 0100 13       		.uleb128 0x13
 1340 0101 01       		.byte	0x1
 1341 0102 0B       		.uleb128 0xb
 1342 0103 0B       		.uleb128 0xb
ARM GAS  /tmp/ccWLWVLN.s 			page 31


 1343 0104 3A       		.uleb128 0x3a
 1344 0105 0B       		.uleb128 0xb
 1345 0106 3B       		.uleb128 0x3b
 1346 0107 05       		.uleb128 0x5
 1347 0108 01       		.uleb128 0x1
 1348 0109 13       		.uleb128 0x13
 1349 010a 00       		.byte	0
 1350 010b 00       		.byte	0
 1351 010c 17       		.uleb128 0x17
 1352 010d 2E       		.uleb128 0x2e
 1353 010e 00       		.byte	0
 1354 010f 03       		.uleb128 0x3
 1355 0110 0E       		.uleb128 0xe
 1356 0111 3A       		.uleb128 0x3a
 1357 0112 0B       		.uleb128 0xb
 1358 0113 3B       		.uleb128 0x3b
 1359 0114 05       		.uleb128 0x5
 1360 0115 27       		.uleb128 0x27
 1361 0116 19       		.uleb128 0x19
 1362 0117 20       		.uleb128 0x20
 1363 0118 0B       		.uleb128 0xb
 1364 0119 00       		.byte	0
 1365 011a 00       		.byte	0
 1366 011b 18       		.uleb128 0x18
 1367 011c 2E       		.uleb128 0x2e
 1368 011d 01       		.byte	0x1
 1369 011e 3F       		.uleb128 0x3f
 1370 011f 19       		.uleb128 0x19
 1371 0120 03       		.uleb128 0x3
 1372 0121 0E       		.uleb128 0xe
 1373 0122 3A       		.uleb128 0x3a
 1374 0123 0B       		.uleb128 0xb
 1375 0124 3B       		.uleb128 0x3b
 1376 0125 0B       		.uleb128 0xb
 1377 0126 27       		.uleb128 0x27
 1378 0127 19       		.uleb128 0x19
 1379 0128 11       		.uleb128 0x11
 1380 0129 01       		.uleb128 0x1
 1381 012a 12       		.uleb128 0x12
 1382 012b 06       		.uleb128 0x6
 1383 012c 40       		.uleb128 0x40
 1384 012d 18       		.uleb128 0x18
 1385 012e 9742     		.uleb128 0x2117
 1386 0130 19       		.uleb128 0x19
 1387 0131 01       		.uleb128 0x1
 1388 0132 13       		.uleb128 0x13
 1389 0133 00       		.byte	0
 1390 0134 00       		.byte	0
 1391 0135 19       		.uleb128 0x19
 1392 0136 898201   		.uleb128 0x4109
 1393 0139 00       		.byte	0
 1394 013a 11       		.uleb128 0x11
 1395 013b 01       		.uleb128 0x1
 1396 013c 31       		.uleb128 0x31
 1397 013d 13       		.uleb128 0x13
 1398 013e 00       		.byte	0
 1399 013f 00       		.byte	0
ARM GAS  /tmp/ccWLWVLN.s 			page 32


 1400 0140 1A       		.uleb128 0x1a
 1401 0141 34       		.uleb128 0x34
 1402 0142 00       		.byte	0
 1403 0143 03       		.uleb128 0x3
 1404 0144 08       		.uleb128 0x8
 1405 0145 3A       		.uleb128 0x3a
 1406 0146 0B       		.uleb128 0xb
 1407 0147 3B       		.uleb128 0x3b
 1408 0148 05       		.uleb128 0x5
 1409 0149 49       		.uleb128 0x49
 1410 014a 13       		.uleb128 0x13
 1411 014b 3F       		.uleb128 0x3f
 1412 014c 19       		.uleb128 0x19
 1413 014d 3C       		.uleb128 0x3c
 1414 014e 19       		.uleb128 0x19
 1415 014f 00       		.byte	0
 1416 0150 00       		.byte	0
 1417 0151 1B       		.uleb128 0x1b
 1418 0152 34       		.uleb128 0x34
 1419 0153 00       		.byte	0
 1420 0154 03       		.uleb128 0x3
 1421 0155 0E       		.uleb128 0xe
 1422 0156 3A       		.uleb128 0x3a
 1423 0157 0B       		.uleb128 0xb
 1424 0158 3B       		.uleb128 0x3b
 1425 0159 05       		.uleb128 0x5
 1426 015a 49       		.uleb128 0x49
 1427 015b 13       		.uleb128 0x13
 1428 015c 3F       		.uleb128 0x3f
 1429 015d 19       		.uleb128 0x19
 1430 015e 3C       		.uleb128 0x3c
 1431 015f 19       		.uleb128 0x19
 1432 0160 00       		.byte	0
 1433 0161 00       		.byte	0
 1434 0162 1C       		.uleb128 0x1c
 1435 0163 2E       		.uleb128 0x2e
 1436 0164 00       		.byte	0
 1437 0165 3F       		.uleb128 0x3f
 1438 0166 19       		.uleb128 0x19
 1439 0167 03       		.uleb128 0x3
 1440 0168 0E       		.uleb128 0xe
 1441 0169 3A       		.uleb128 0x3a
 1442 016a 0B       		.uleb128 0xb
 1443 016b 3B       		.uleb128 0x3b
 1444 016c 05       		.uleb128 0x5
 1445 016d 27       		.uleb128 0x27
 1446 016e 19       		.uleb128 0x19
 1447 016f 3C       		.uleb128 0x3c
 1448 0170 19       		.uleb128 0x19
 1449 0171 00       		.byte	0
 1450 0172 00       		.byte	0
 1451 0173 1D       		.uleb128 0x1d
 1452 0174 2E       		.uleb128 0x2e
 1453 0175 01       		.byte	0x1
 1454 0176 3F       		.uleb128 0x3f
 1455 0177 19       		.uleb128 0x19
 1456 0178 03       		.uleb128 0x3
ARM GAS  /tmp/ccWLWVLN.s 			page 33


 1457 0179 0E       		.uleb128 0xe
 1458 017a 3A       		.uleb128 0x3a
 1459 017b 0B       		.uleb128 0xb
 1460 017c 3B       		.uleb128 0x3b
 1461 017d 05       		.uleb128 0x5
 1462 017e 27       		.uleb128 0x27
 1463 017f 19       		.uleb128 0x19
 1464 0180 3C       		.uleb128 0x3c
 1465 0181 19       		.uleb128 0x19
 1466 0182 01       		.uleb128 0x1
 1467 0183 13       		.uleb128 0x13
 1468 0184 00       		.byte	0
 1469 0185 00       		.byte	0
 1470 0186 1E       		.uleb128 0x1e
 1471 0187 2E       		.uleb128 0x2e
 1472 0188 00       		.byte	0
 1473 0189 3F       		.uleb128 0x3f
 1474 018a 19       		.uleb128 0x19
 1475 018b 03       		.uleb128 0x3
 1476 018c 0E       		.uleb128 0xe
 1477 018d 3A       		.uleb128 0x3a
 1478 018e 0B       		.uleb128 0xb
 1479 018f 3B       		.uleb128 0x3b
 1480 0190 0B       		.uleb128 0xb
 1481 0191 27       		.uleb128 0x27
 1482 0192 19       		.uleb128 0x19
 1483 0193 3C       		.uleb128 0x3c
 1484 0194 19       		.uleb128 0x19
 1485 0195 00       		.byte	0
 1486 0196 00       		.byte	0
 1487 0197 00       		.byte	0
 1488              		.section	.debug_aranges,"",%progbits
 1489 0000 1C000000 		.4byte	0x1c
 1490 0004 0200     		.2byte	0x2
 1491 0006 00000000 		.4byte	.Ldebug_info0
 1492 000a 04       		.byte	0x4
 1493 000b 00       		.byte	0
 1494 000c 0000     		.2byte	0
 1495 000e 0000     		.2byte	0
 1496 0010 00000000 		.4byte	.LFB179
 1497 0014 20000000 		.4byte	.LFE179-.LFB179
 1498 0018 00000000 		.4byte	0
 1499 001c 00000000 		.4byte	0
 1500              		.section	.debug_ranges,"",%progbits
 1501              	.Ldebug_ranges0:
 1502 0000 00000000 		.4byte	.LFB179
 1503 0004 20000000 		.4byte	.LFE179
 1504 0008 00000000 		.4byte	0
 1505 000c 00000000 		.4byte	0
 1506              		.section	.debug_line,"",%progbits
 1507              	.Ldebug_line0:
 1508 0000 59020000 		.section	.debug_str,"MS",%progbits,1
 1508      02003602 
 1508      00000201 
 1508      FB0E0D00 
 1508      01010101 
 1509              	.LASF46:
ARM GAS  /tmp/ccWLWVLN.s 			page 34


 1510 0000 63685F74 		.ascii	"ch_threads_list\000"
 1510      68726561 
 1510      64735F6C 
 1510      69737400 
 1511              	.LASF98:
 1512 0010 50434461 		.ascii	"PCData\000"
 1512      746100
 1513              	.LASF81:
 1514 0017 77746D74 		.ascii	"wtmtxp\000"
 1514      787000
 1515              	.LASF104:
 1516 001e 7364496E 		.ascii	"sdInit\000"
 1516      697400
 1517              	.LASF71:
 1518 0025 72656761 		.ascii	"regarm_t\000"
 1518      726D5F74 
 1518      00
 1519              	.LASF35:
 1520 002e 666C6167 		.ascii	"flags\000"
 1520      7300
 1521              	.LASF26:
 1522 0034 73797374 		.ascii	"systime_t\000"
 1522      696D655F 
 1522      7400
 1523              	.LASF41:
 1524 003e 7265616C 		.ascii	"realprio\000"
 1524      7072696F 
 1524      00
 1525              	.LASF39:
 1526 0047 6570656E 		.ascii	"epending\000"
 1526      64696E67 
 1526      00
 1527              	.LASF0:
 1528 0050 756E7369 		.ascii	"unsigned int\000"
 1528      676E6564 
 1528      20696E74 
 1528      00
 1529              	.LASF47:
 1530 005d 6E657874 		.ascii	"next\000"
 1530      00
 1531              	.LASF44:
 1532 0062 74687265 		.ascii	"threads_list_t\000"
 1532      6164735F 
 1532      6C697374 
 1532      5F7400
 1533              	.LASF7:
 1534 0071 5F5F696E 		.ascii	"__int32_t\000"
 1534      7433325F 
 1534      7400
 1535              	.LASF36:
 1536 007b 72656673 		.ascii	"refs\000"
 1536      00
 1537              	.LASF77:
 1538 0080 77746F62 		.ascii	"wtobjp\000"
 1538      6A7000
 1539              	.LASF68:
 1540 0087 76746C69 		.ascii	"vtlist\000"
ARM GAS  /tmp/ccWLWVLN.s 			page 35


 1540      737400
 1541              	.LASF73:
 1542 008e 706F7274 		.ascii	"port_context\000"
 1542      5F636F6E 
 1542      74657874 
 1542      00
 1543              	.LASF52:
 1544 009b 63685F72 		.ascii	"ch_ready_list\000"
 1544      65616479 
 1544      5F6C6973 
 1544      7400
 1545              	.LASF58:
 1546 00a9 66756E63 		.ascii	"func\000"
 1546      00
 1547              	.LASF82:
 1548 00ae 65776D61 		.ascii	"ewmask\000"
 1548      736B00
 1549              	.LASF50:
 1550 00b5 70726576 		.ascii	"prev\000"
 1550      00
 1551              	.LASF49:
 1552 00ba 63685F74 		.ascii	"ch_threads_queue\000"
 1552      68726561 
 1552      64735F71 
 1552      75657565 
 1552      00
 1553              	.LASF54:
 1554 00cb 76746675 		.ascii	"vtfunc_t\000"
 1554      6E635F74 
 1554      00
 1555              	.LASF63:
 1556 00d4 63685F73 		.ascii	"ch_system_debug\000"
 1556      79737465 
 1556      6D5F6465 
 1556      62756700 
 1557              	.LASF107:
 1558 00e4 474E5520 		.ascii	"GNU C 4.8.3 -mcpu=cortex-m0 -mno-thumb-interwork -m"
 1558      4320342E 
 1558      382E3320 
 1558      2D6D6370 
 1558      753D636F 
 1559 0117 7468756D 		.ascii	"thumb -ggdb -O2 -fomit-frame-pointer -falign-functi"
 1559      62202D67 
 1559      67646220 
 1559      2D4F3220 
 1559      2D666F6D 
 1560 014a 6F6E733D 		.ascii	"ons=16 -ffunction-sections -fdata-sections -fno-com"
 1560      3136202D 
 1560      6666756E 
 1560      6374696F 
 1560      6E2D7365 
 1561 017d 6D6F6E20 		.ascii	"mon -flto\000"
 1561      2D666C74 
 1561      6F00
 1562              	.LASF17:
 1563 0187 75696E74 		.ascii	"uint32_t\000"
 1563      33325F74 
ARM GAS  /tmp/ccWLWVLN.s 			page 36


 1563      00
 1564              	.LASF79:
 1565 0190 73656E74 		.ascii	"sentmsg\000"
 1565      6D736700 
 1566              	.LASF24:
 1567 0198 6576656E 		.ascii	"eventmask_t\000"
 1567      746D6173 
 1567      6B5F7400 
 1568              	.LASF90:
 1569 01a4 6F747970 		.ascii	"otyper\000"
 1569      657200
 1570              	.LASF83:
 1571 01ab 63685F73 		.ascii	"ch_semaphore\000"
 1571      656D6170 
 1571      686F7265 
 1571      00
 1572              	.LASF22:
 1573 01b8 74707269 		.ascii	"tprio_t\000"
 1573      6F5F7400 
 1574              	.LASF56:
 1575 01c0 63685F76 		.ascii	"ch_virtual_timer\000"
 1575      69727475 
 1575      616C5F74 
 1575      696D6572 
 1575      00
 1576              	.LASF108:
 1577 01d1 2E2E2F2E 		.ascii	"../../../os/hal/src/hal.c\000"
 1577      2E2F2E2E 
 1577      2F6F732F 
 1577      68616C2F 
 1577      7372632F 
 1578              	.LASF13:
 1579 01eb 6C6F6E67 		.ascii	"long long unsigned int\000"
 1579      206C6F6E 
 1579      6720756E 
 1579      7369676E 
 1579      65642069 
 1580              	.LASF5:
 1581 0202 5F5F7569 		.ascii	"__uint16_t\000"
 1581      6E743136 
 1581      5F7400
 1582              	.LASF25:
 1583 020d 636E745F 		.ascii	"cnt_t\000"
 1583      7400
 1584              	.LASF95:
 1585 0213 73746D33 		.ascii	"stm32_gpio_setup_t\000"
 1585      325F6770 
 1585      696F5F73 
 1585      65747570 
 1585      5F7400
 1586              	.LASF85:
 1587 0226 6F776E65 		.ascii	"owner\000"
 1587      7200
 1588              	.LASF48:
 1589 022c 74687265 		.ascii	"threads_queue_t\000"
 1589      6164735F 
 1589      71756575 
ARM GAS  /tmp/ccWLWVLN.s 			page 37


 1589      655F7400 
 1590              	.LASF40:
 1591 023c 6D74786C 		.ascii	"mtxlist\000"
 1591      69737400 
 1592              	.LASF60:
 1593 0244 63685F76 		.ascii	"ch_virtual_timers_list\000"
 1593      69727475 
 1593      616C5F74 
 1593      696D6572 
 1593      735F6C69 
 1594              	.LASF27:
 1595 025b 74687265 		.ascii	"thread_t\000"
 1595      61645F74 
 1595      00
 1596              	.LASF75:
 1597 0264 7264796D 		.ascii	"rdymsg\000"
 1597      736700
 1598              	.LASF88:
 1599 026b 5F426F6F 		.ascii	"_Bool\000"
 1599      6C00
 1600              	.LASF97:
 1601 0271 50424461 		.ascii	"PBData\000"
 1601      746100
 1602              	.LASF84:
 1603 0278 63685F6D 		.ascii	"ch_mutex\000"
 1603      75746578 
 1603      00
 1604              	.LASF12:
 1605 0281 5F5F7569 		.ascii	"__uint64_t\000"
 1605      6E743634 
 1605      5F7400
 1606              	.LASF102:
 1607 028c 70616C5F 		.ascii	"pal_default_config\000"
 1607      64656661 
 1607      756C745F 
 1607      636F6E66 
 1607      696700
 1608              	.LASF29:
 1609 029f 7072696F 		.ascii	"prio\000"
 1609      00
 1610              	.LASF89:
 1611 02a4 6D6F6465 		.ascii	"moder\000"
 1611      7200
 1612              	.LASF105:
 1613 02aa 626F6172 		.ascii	"boardInit\000"
 1613      64496E69 
 1613      7400
 1614              	.LASF86:
 1615 02b4 63686172 		.ascii	"char\000"
 1615      00
 1616              	.LASF43:
 1617 02b9 74687265 		.ascii	"thread_reference_t\000"
 1617      61645F72 
 1617      65666572 
 1617      656E6365 
 1617      5F7400
 1618              	.LASF33:
ARM GAS  /tmp/ccWLWVLN.s 			page 38


 1619 02cc 77616261 		.ascii	"wabase\000"
 1619      736500
 1620              	.LASF20:
 1621 02d3 74737461 		.ascii	"tstate_t\000"
 1621      74655F74 
 1621      00
 1622              	.LASF106:
 1623 02dc 7374496E 		.ascii	"stInit\000"
 1623      697400
 1624              	.LASF14:
 1625 02e3 75696E74 		.ascii	"uint8_t\000"
 1625      385F7400 
 1626              	.LASF38:
 1627 02eb 6D736771 		.ascii	"msgqueue\000"
 1627      75657565 
 1627      00
 1628              	.LASF45:
 1629 02f4 63685F74 		.ascii	"ch_thread\000"
 1629      68726561 
 1629      6400
 1630              	.LASF62:
 1631 02fe 73797374 		.ascii	"system_debug_t\000"
 1631      656D5F64 
 1631      65627567 
 1631      5F7400
 1632              	.LASF11:
 1633 030d 6C6F6E67 		.ascii	"long long int\000"
 1633      206C6F6E 
 1633      6720696E 
 1633      7400
 1634              	.LASF23:
 1635 031b 6D73675F 		.ascii	"msg_t\000"
 1635      7400
 1636              	.LASF92:
 1637 0321 70757064 		.ascii	"pupdr\000"
 1637      7200
 1638              	.LASF55:
 1639 0327 76697274 		.ascii	"virtual_timer_t\000"
 1639      75616C5F 
 1639      74696D65 
 1639      725F7400 
 1640              	.LASF94:
 1641 0337 61667268 		.ascii	"afrh\000"
 1641      00
 1642              	.LASF93:
 1643 033c 6166726C 		.ascii	"afrl\000"
 1643      00
 1644              	.LASF64:
 1645 0341 70616E69 		.ascii	"panic_msg\000"
 1645      635F6D73 
 1645      6700
 1646              	.LASF19:
 1647 034b 746D6F64 		.ascii	"tmode_t\000"
 1647      655F7400 
 1648              	.LASF69:
 1649 0353 6D61696E 		.ascii	"mainthread\000"
 1649      74687265 
ARM GAS  /tmp/ccWLWVLN.s 			page 39


 1649      616400
 1650              	.LASF15:
 1651 035e 75696E74 		.ascii	"uint16_t\000"
 1651      31365F74 
 1651      00
 1652              	.LASF99:
 1653 0367 50444461 		.ascii	"PDData\000"
 1653      746100
 1654              	.LASF3:
 1655 036e 73686F72 		.ascii	"short int\000"
 1655      7420696E 
 1655      7400
 1656              	.LASF8:
 1657 0378 6C6F6E67 		.ascii	"long int\000"
 1657      20696E74 
 1657      00
 1658              	.LASF74:
 1659 0381 706F7274 		.ascii	"port_intctx\000"
 1659      5F696E74 
 1659      63747800 
 1660              	.LASF96:
 1661 038d 50414461 		.ascii	"PAData\000"
 1661      746100
 1662              	.LASF66:
 1663 0394 63685F73 		.ascii	"ch_system\000"
 1663      79737465 
 1663      6D00
 1664              	.LASF61:
 1665 039e 6C617374 		.ascii	"lasttime\000"
 1665      74696D65 
 1665      00
 1666              	.LASF18:
 1667 03a7 75696E74 		.ascii	"uint64_t\000"
 1667      36345F74 
 1667      00
 1668              	.LASF111:
 1669 03b0 68616C49 		.ascii	"halInit\000"
 1669      6E697400 
 1670              	.LASF67:
 1671 03b8 726C6973 		.ascii	"rlist\000"
 1671      7400
 1672              	.LASF112:
 1673 03be 5F70616C 		.ascii	"_pal_lld_init\000"
 1673      5F6C6C64 
 1673      5F696E69 
 1673      7400
 1674              	.LASF4:
 1675 03cc 5F5F7569 		.ascii	"__uint8_t\000"
 1675      6E74385F 
 1675      7400
 1676              	.LASF110:
 1677 03d6 6F73616C 		.ascii	"osalInit\000"
 1677      496E6974 
 1677      00
 1678              	.LASF32:
 1679 03df 6E616D65 		.ascii	"name\000"
 1679      00
ARM GAS  /tmp/ccWLWVLN.s 			page 40


 1680              	.LASF101:
 1681 03e4 50414C43 		.ascii	"PALConfig\000"
 1681      6F6E6669 
 1681      6700
 1682              	.LASF70:
 1683 03ee 73697A65 		.ascii	"sizetype\000"
 1683      74797065 
 1683      00
 1684              	.LASF21:
 1685 03f7 74726566 		.ascii	"trefs_t\000"
 1685      735F7400 
 1686              	.LASF10:
 1687 03ff 6C6F6E67 		.ascii	"long unsigned int\000"
 1687      20756E73 
 1687      69676E65 
 1687      6420696E 
 1687      7400
 1688              	.LASF103:
 1689 0411 68616C5F 		.ascii	"hal_lld_init\000"
 1689      6C6C645F 
 1689      696E6974 
 1689      00
 1690              	.LASF51:
 1691 041e 72656164 		.ascii	"ready_list_t\000"
 1691      795F6C69 
 1691      73745F74 
 1691      00
 1692              	.LASF28:
 1693 042b 71756575 		.ascii	"queue\000"
 1693      6500
 1694              	.LASF16:
 1695 0431 696E7433 		.ascii	"int32_t\000"
 1695      325F7400 
 1696              	.LASF80:
 1697 0439 77747365 		.ascii	"wtsemp\000"
 1697      6D7000
 1698              	.LASF87:
 1699 0440 6D757465 		.ascii	"mutex_t\000"
 1699      785F7400 
 1700              	.LASF30:
 1701 0448 6E657765 		.ascii	"newer\000"
 1701      7200
 1702              	.LASF2:
 1703 044e 756E7369 		.ascii	"unsigned char\000"
 1703      676E6564 
 1703      20636861 
 1703      7200
 1704              	.LASF9:
 1705 045c 5F5F7569 		.ascii	"__uint32_t\000"
 1705      6E743332 
 1705      5F7400
 1706              	.LASF37:
 1707 0467 77616974 		.ascii	"waiting\000"
 1707      696E6700 
 1708              	.LASF59:
 1709 046f 76697274 		.ascii	"virtual_timers_list_t\000"
 1709      75616C5F 
ARM GAS  /tmp/ccWLWVLN.s 			page 41


 1709      74696D65 
 1709      72735F6C 
 1709      6973745F 
 1710              	.LASF34:
 1711 0485 73746174 		.ascii	"state\000"
 1711      6500
 1712              	.LASF65:
 1713 048b 63685F73 		.ascii	"ch_system_t\000"
 1713      79737465 
 1713      6D5F7400 
 1714              	.LASF78:
 1715 0497 77747472 		.ascii	"wttrp\000"
 1715      7000
 1716              	.LASF1:
 1717 049d 7369676E 		.ascii	"signed char\000"
 1717      65642063 
 1717      68617200 
 1718              	.LASF57:
 1719 04a9 64656C74 		.ascii	"delta\000"
 1719      6100
 1720              	.LASF6:
 1721 04af 73686F72 		.ascii	"short unsigned int\000"
 1721      7420756E 
 1721      7369676E 
 1721      65642069 
 1721      6E7400
 1722              	.LASF72:
 1723 04c2 73746B61 		.ascii	"stkalign_t\000"
 1723      6C69676E 
 1723      5F7400
 1724              	.LASF53:
 1725 04cd 63757272 		.ascii	"current\000"
 1725      656E7400 
 1726              	.LASF100:
 1727 04d5 50464461 		.ascii	"PFData\000"
 1727      746100
 1728              	.LASF91:
 1729 04dc 6F737065 		.ascii	"ospeedr\000"
 1729      65647200 
 1730              	.LASF31:
 1731 04e4 6F6C6465 		.ascii	"older\000"
 1731      7200
 1732              	.LASF109:
 1733 04ea 2F686F6D 		.ascii	"/home/awygle/ChibiOS-RT/demos/STM32/RT-STM32F030R8-"
 1733      652F6177 
 1733      79676C65 
 1733      2F436869 
 1733      62694F53 
 1734 051d 4E55434C 		.ascii	"NUCLEO64\000"
 1734      454F3634 
 1734      00
 1735              	.LASF76:
 1736 0526 65786974 		.ascii	"exitcode\000"
 1736      636F6465 
 1736      00
 1737              	.LASF42:
 1738 052f 6D706F6F 		.ascii	"mpool\000"
ARM GAS  /tmp/ccWLWVLN.s 			page 42


 1738      6C00
 1739              		.comm	__gnu_lto_v1,1,1
 1740              		.ident	"GCC: (4.8.3-18ubuntu2+12) 4.8.3"
ARM GAS  /tmp/ccWLWVLN.s 			page 43


DEFINED SYMBOLS
                            *ABS*:0000000000000000 hal.c
     /tmp/ccWLWVLN.s:136    .text.halInit:0000000000000000 $t
     /tmp/ccWLWVLN.s:142    .text.halInit:0000000000000000 halInit
     /tmp/ccWLWVLN.s:174    .text.halInit:000000000000001c $d
                            *COM*:0000000000000001 __gnu_lto_v1
                     .debug_frame:0000000000000010 $d

UNDEFINED SYMBOLS
hal_lld_init
_pal_lld_init
sdInit
boardInit
stInit
pal_default_config
