ARM GAS  /tmp/ccpHTHLn.s 			page 1


   1              		.cpu cortex-m0
   2              		.fpu softvfp
   3              		.eabi_attribute 20, 1
   4              		.eabi_attribute 21, 1
   5              		.eabi_attribute 23, 3
   6              		.eabi_attribute 24, 1
   7              		.eabi_attribute 25, 1
   8              		.eabi_attribute 26, 1
   9              		.eabi_attribute 30, 2
  10              		.eabi_attribute 34, 0
  11              		.eabi_attribute 18, 4
  12              		.code	16
  13              		.file	"hal_lld.c"
  14              		.text
  15              	.Ltext0:
  16              		.section	.gnu.lto_.jmpfuncs.fe745ddf6af10afd,"",%progbits
  17 0000 789C6362 		.ascii	"x\234cb`b\300\0068\24143\003\003#\003H\015\000\001\211"
  17      6062C006 
  17      38A13433 
  17      03032303 
  17      480D0001 
  18 0015 0014     		.ascii	"\000\024"
  19              		.text
  20              		.section	.gnu.lto_.inline.fe745ddf6af10afd,"",%progbits
  21 0000 789C6362 		.ascii	"x\234cb`b\300\006\\\24043\003\203\230\020#\003\223\332"
  21      6062C006 
  21      5CA03433 
  21      03839810 
  21      230393DA 
  22 0014 89DF8C0C 		.ascii	"\211\337\214\014l\013\344\301\252\031\031\004%\201b"
  22      6C0BE4C1 
  22      AA191904 
  22      258162
  23 0023 52134E23 		.ascii	"R\023N#\211q\001\011&\006\2535L@\231\274\206\325*p\031"
  23      89710109 
  23      2606AB35 
  23      4C4099BC 
  23      86D52A70 
  24 0038 06004564 		.ascii	"\006\000Ed\011\017"
  24      090F
  25              		.text
  26              		.section	.gnu.lto_.pureconst.fe745ddf6af10afd,"",%progbits
  27 0000 789C6362 		.ascii	"x\234cb`b`g\200\000f\006)F)&)\000\001\313\000`"
  27      60626067 
  27      80006606 
  27      29462926 
  27      290001CB 
  28              		.text
  29              		.section	.gnu.lto_hal_lld_backup_domain_init.fe745ddf6af10afd,"",%progbits
  30 0000 789CA592 		.ascii	"x\234\245\222\277K#A\024\307\337\233\235\331\004M4A"
  30      BF4B2341 
  30      14C7DF9B 
  30      9DD9044D 
  30      3441
  31 0012 6C55B03C 		.ascii	"lU\260<\310\372\243\361/\020D\254L@+\361\007h\270\200"
  31      C8FAA3F1 
  31      2F1044AC 
ARM GAS  /tmp/ccpHTHLn.s 			page 2


  31      4C402BF1 
  31      0768B880 
  32 0026 A257D839 		.ascii	"\242W\3309\213),-\217\263\211m\012m\375U\210X\330(\010"
  32      8B292C2D 
  32      8FB3896D 
  32      0A6DFD55 
  32      8858D828 
  33 003b 16414483 		.ascii	"\026AD\203\215\242\026\226\012\202\2767\223\335\015"
  33      8DA21696 
  33      0A82BE37 
  33      93DD0D
  34 004a C2897719 		.ascii	"\302\211w\031v\277\273\373\336\316g\276\363\336\010"
  34      76BFBBFB 
  34      DECE67BE 
  34      F3DE08
  35 0059 10F0790C 		.ascii	"\020\360y\014\323\375\346\000\364\321\023c\200b\375"
  35      D3FDE600 
  35      F4D11363 
  35      8062FD
  36 0068 0CC08F0B 		.ascii	"\014\300\217\013\341\224\006@7\311\347v\320\011\007"
  36      E1940640 
  36      37C9E776 
  36      D00907
  37 0077 A50D4BA1 		.ascii	"\245\015K\241.<\012\273\007\035\024V\350\332\260\213"
  37      2E3C0ABB 
  37      071D1456 
  37      E8DAB08B 
  38 0087 C82F80B0 		.ascii	"\310/\200\260\"\034\251\\\\\031GC\337\026\207\325\367"
  38      221CA95C 
  38      5C194743 
  38      DF1687D5 
  38      F7
  39 0098 F7ADABD7 		.ascii	"\367\255\253\327\333=L\267I\310#(\226\030K\234\245\231"
  39      DB3D4CB7 
  39      49C82328 
  39      96184B9C 
  39      A599
  40 00aa 25C19264 		.ascii	"%\301\222diaI\261\244Yh((j\275\336\0050m>\263\244\274"
  40      696149B1 
  40      A4596828 
  40      286ABDDE 
  40      05306D3E 
  41 00c1 560E053F 		.ascii	"V\016\005?\235S8\272\334\271NN\342&*\230E\371\003\312"
  41      9D5338BA 
  41      DCB94E4E 
  41      E2262A98 
  41      45F903CA 
  42 00d5 BAE8A7F2 		.ascii	"\272\350\247\362\210\033\360\007\363(\306H\034]\365"
  42      881BF007 
  42      F328C648 
  42      1C5DF5
  43 00e4 B504F36A 		.ascii	"\265\004\363j|Ma\260\377SX\335u\202\331\212\000\374"
  43      7C4D61B0 
  43      FF5358DD 
  43      7582D98A 
  43      00FC
  44 00f6 13686152 		.ascii	"\023haRGC6\363oP\342\230\311\227k\235\0018f\010\030"
ARM GAS  /tmp/ccpHTHLn.s 			page 3


  44      474336F3 
  44      6F50E298 
  44      C9976B9D 
  44      01386608 
  45 010b 02CC2A4A 		.ascii	"\002\314*J\227\326j\000U\003`\344j\177\265\214\301\364"
  45      97D66A00 
  45      550360E4 
  45      6A7FB58C 
  45      C1F4
  46 011d 3811AC2F 		.ascii	"8\021\254/\227\222'P|\362\303\035\307mB\326\3654G\206"
  46      97922750 
  46      7CF2C31D 
  46      C76D42D6 
  46      F5344786 
  47 0131 4A035C9A 		.ascii	"J\003\\\232\235\312Mk\375\026t\3577-X\250\2412\346\245"
  47      9DCA4D6B 
  47      FD1674EF 
  47      372D58A8 
  47      A132E6A5 
  48 0145 010C46B6 		.ascii	"\001\014F\266d\330\262\312C%\334]sc\305I\020\241fW\230"
  48      64D8B2CA 
  48      4325DC5D 
  48      7363C549 
  48      10A16657 
  49 015a EA1CDF45 		.ascii	"\352\034\337E\325I\230L\375\310Q\374\3023&~?\276\204"
  49      D549984C 
  49      FDC851FC 
  49      C233267E 
  49      3FBE84
  50 016d 94E4E71E 		.ascii	"\224\344\347\036\177\303EtpZ\010\020\365\341\357\007"
  50      7FC34574 
  50      705A0810 
  50      F5E1EF07 
  51 017d E76B2871 		.ascii	"\347k(q\354\301\271\377\031\200S\015\331J\023\240\256"
  51      ECC1B9FF 
  51      1980530D 
  51      D94A13A0 
  51      AE
  52 018e 34FFEF2B 		.ascii	"4\377\357+\035\324\3165\035<\007\277\272\327mQ\301\310"
  52      1DD4CE35 
  52      1D3C07BF 
  52      BAD76D51 
  52      C1C8
  53 01a0 D2CF94E3 		.ascii	"\322\317\224\343uz2\031\317^\363K\336\334d\301[\230"
  53      757A3219 
  53      CF5EF34B 
  53      DEDC64C1 
  53      5B98
  54 01b2 5FFCB5E4 		.ascii	"_\374\265\344\215fG\372\373\254\016\366,/sf\242P\230"
  54      8D6647FA 
  54      FBAC0EF6 
  54      2C2F7366 
  54      A25098
  55 01c5 C94CC307 		.ascii	"\311L\303\007\035\033\357\230"
  55      1D1BEF98 
  56              		.text
  57              		.section	.gnu.lto_hal_lld_init.fe745ddf6af10afd,"",%progbits
ARM GAS  /tmp/ccpHTHLn.s 			page 4


  58 0000 789CAD93 		.ascii	"x\234\255\223=H\002a\030\307\237\347\275\273\322P4\232"
  58      3D480261 
  58      18C79FE7 
  58      BDBBD250 
  58      349A
  59 0012 DCC4A521 		.ascii	"\334\304\245!\360,\227Z\032\203\206\246\014j\0123(A"
  59      F02C975A 
  59      1A8386A6 
  59      0C6A0A33 
  59      2841
  60 0024 30324268 		.ascii	"02Bh\3605\035$\034\244\251\217E\211(Z\232\333\244\275"
  60      F0351D24 
  60      1CA4A98F 
  60      4589285A 
  60      9ADBA4BD 
  61 0038 A4D5960B 		.ascii	"\244\325\226\013jt1\210\012\352z\336\3730J!\225\036"
  61      6A743188 
  61      0AEA7ADE 
  61      FB304A21 
  61      951E
  62 004a EE9EE73E 		.ascii	"\356\236\347>\336\377\377\376?^\216\001\203\337\345"
  62      DEFFFFFE 
  62      3F5E8E01 
  62      83DFE5
  63 0059 A3735806 		.ascii	"\243sX\006\230\246\211\022 +\335\002d\035\014Q\\\000"
  63      98A68912 
  63      202BDD02 
  63      641D0C51 
  63      5C00
  64 006b 42866166 		.ascii	"B\206af\011\305R\026\200\012\347\373\332S\363\320\267"
  64      09C55216 
  64      800AE7FB 
  64      DA53F3D0 
  64      B7
  65 007c 57DE2DF1 		.ascii	"W\336-\361O]\3078\222i\030!\206\260H7\3507\006\223\177"
  65      4F5DC738 
  65      92691821 
  65      86B04837 
  65      E8370693 
  66 0091 7EC55456 		.ascii	"~\305TV\017j\305\241R\266\300u=c\350\246\376\322]\262"
  66      0F6AC5A1 
  66      52B6C075 
  66      3D63E8A6 
  66      FED25DB2 
  67 00a5 AAA6EBC5 		.ascii	"\252\246\353\305\267\307\207\006\216x\031D\261\202\001"
  67      B7C78706 
  67      8E781944 
  67      B18201
  68 00b4 50689ED0 		.ascii	"Ph\236\320t\000\2718Es\211\346\026\215J\201<\347%?\010"
  68      7400B938 
  68      457389E6 
  68      168D4A81 
  68      3CE7253F 
  69 00c9 6FAA0875 		.ascii	"o\252\010u\301\262\200LL\351\006\256\353\257M_\024O"
  69      C1B2804C 
  69      4CE906AE 
  69      EBAF4D5F 
ARM GAS  /tmp/ccpHTHLn.s 			page 5


  69      144F
  70 00db 51813564 		.ascii	"Q\2015dcp\301\363Yo\034\245c8\242\014\262\010\242\360"
  70      6370C1F3 
  70      596F1CA5 
  70      6338A20C 
  70      B208A2F0 
  71 00ef 7281CB46 		.ascii	"r\201\313F&\305H\262\202v&\322O\232\342\336\224\342"
  71      26C548B2 
  71      827626D2 
  71      4F9AE2DE 
  71      94E2
  72 0101 09E8549E 		.ascii	"\011\350T\236v\023\354\301C\262B\324\013\317hC(\335"
  72      7613ECC1 
  72      43B242D4 
  72      0BCF6843 
  72      28DD
  73 0113 46C1BE21 		.ascii	"F\301\276!\360\037 \260\035\342\374\033\302\321m\024"
  73      F01F20B0 
  73      1DE2FC1B 
  73      C2D16D14 
  74 0123 D682C85D 		.ascii	"\326\202\310]I\266\332I\006v\272\017+\335lo\210\246"
  74      49B6DA49 
  74      0676BA0F 
  74      2BDD6C6F 
  74      88A6
  75 0135 2F59F581 		.ascii	"/Y\365\201\306:\354\317K\013\315\325m\004\251\023\232"
  75      C63AECCF 
  75      4B0BCDD5 
  75      6D04A913 
  75      9A
  76 0146 9B0C0C34 		.ascii	"\233\014\0144N\205}\241I\026\232\033\240\0069\355\376"
  76      4E857DA1 
  76      49169A1B 
  76      A00639ED 
  76      FE
  77 0157 CC63EA01 		.ascii	"\314c\352\001v\340\235\02789\014\304\254\375\211\343"
  77      76E09D17 
  77      38390CC4 
  77      ACFD89E3 
  78 0167 20C01D64 		.ascii	" \300\035d\265\306\250\275\310\254\010-\240?H\240\206"
  78      B5C6A8BD 
  78      C8AC082D 
  78      A03F48A0 
  78      86
  79 0178 8241D53C 		.ascii	"\202A\325<\222)u=\232P7\222\233[)u>2\027\2360\373L("
  79      9229753D 
  79      9A503792 
  79      9B5B2975 
  79      3E32179E 
  80 0190 9D166F96 		.ascii	"\235\026o\226\023\211\325`\014\224\355d\"\0302\372\370"
  80      1389D560 
  80      0C94ED64 
  80      221832FA 
  80      F8
  81 01a1 17D41FF7 		.ascii	"\027\324\037\367\021"
  81      11
  82              		.text
ARM GAS  /tmp/ccpHTHLn.s 			page 6


  83              		.section	.gnu.lto_stm32_clock_init.fe745ddf6af10afd,"",%progbits
  84 0000 789CA556 		.ascii	"x\234\245V\317K\033A\030\235o6\233\335$\233l~\031E\017"
  84      CF4B1B41 
  84      189D6F36 
  84      9BDD249B 
  84      6C7E1945 
  85 0015 06455143 		.ascii	"\006EQC\215\325\277 \227B\017=U\241=\025k\301\012\202"
  85      8DD5BF20 
  85      97420F3D 
  85      55A13D15 
  85      6BC10A82 
  86 0029 A5F6E0CD 		.ascii	"\245\366\340\315\015\346\320C\017\036C\013\305\266`"
  86      0DE6D043 
  86      0F1E430B 
  86      C5B660
  87 0038 41680B1E 		.ascii	"Ah\013\036J\252\320\212\024\332\213-\275\205\320\203"
  87      4AAAD08A 
  87      14DA8B2D 
  87      BD85D083 
  88 0048 D883C5F6 		.ascii	"\330\203\305\366\344\311\026!\235ofw'\325\010\233l\320"
  88      E4C91621 
  88      9D6F6677 
  88      27D5089B 
  88      6CD0
  89 005a B7C9BCCC 		.ascii	"\267\311\274\314\333o\336\367f'\224Pr\366\365\213\375"
  89      DB6FDEF7 
  89      66279450 
  89      72F6F58B 
  89      FD
  90 006b 6722848C 		.ascii	"g\"\204\214\263+t\020\240\253_\010)\352\024\024\361"
  90      B32B7410 
  90      A0AB5F08 
  90      29EA1414 
  90      F1
  91 007c 46A1E947 		.ascii	"F\241\351G\237\010\261\302\201\222F,#-\306\013\001P"
  91      9F08B1C2 
  91      8192462C 
  91      232DC60B 
  91      0150
  92 008e 05AFD294 		.ascii	"\005\257\322\224\340\203\234O\211\361B\0204\301k4)x"
  92      E0839C4F 
  92      89F14210 
  92      34C16B34 
  92      2978
  93 00a0 9DF34931 		.ascii	"\235\363I1^\320!$\370\020M\010>\314\371\204\030/\204"
  93      5ED02124 
  93      F8104D08 
  93      3ECCF984 
  93      182F84
  94 00b3 2122F808 		.ascii	"!\"\370\010\215\013\336\340|\\\214\027\014\210\012>"
  94      8D0BDEE0 
  94      7C5C8C17 
  94      0C880A3E 
  95 00c3 4A4DC1C7 		.ascii	"JM\301\3078o\212\361B\014\000\257\004\3102U\322\001"
  95      386F8AF1 
  95      420C00AF 
  95      04C83255 
ARM GAS  /tmp/ccpHTHLn.s 			page 7


  95      D201
  96 00d5 3515D492 		.ascii	"5\025\324\222z(\021\216\304\215\250\031\203\345\233"
  96      7A28118E 
  96      C48DA819 
  96      83E59B
  97 00e4 C057FF86 		.ascii	"\300W\377\206\356\354\327\353\257O\277>\375\0165z\211"
  97      EEECD7EB 
  97      AF4FBF3E 
  97      FD0E357A 
  97      89
  98 00f5 9239200A 		.ascii	"\2229 \012\202\212\020D\320\020t\2040\202\201\020E\210"
  98      828A1044 
  98      D0107484 
  98      30828110 
  98      4588
  99 0107 21980849 		.ascii	"!\230\010I\204\024B\007B\006\241\023\241\013\241\033"
  99      84144207 
  99      4206A113 
  99      A10BA11B 
 100 0117 A107A117 		.ascii	"\241\007\241\027!\213\320\207\320\2170\2000\2100\204"
 100      218BD087 
 100      D08F3080 
 100      30883084 
 101 0127 308C3082 		.ascii	"0\2140\202\220C`/\225\224,k5K\310\014\3778\311\220\255"
 101      9043602F 
 101      95942C6B 
 101      354BC80C 
 101      FF38C990 
 102 013c 740A28BB 		.ascii	"t\012(\273({d\267v\362\274\006\323\360\014T2\0134G6"
 102      287B64B7 
 102      76F2BC06 
 102      D3F00C54 
 102      320B3447 
 103 0151 AC52313E 		.ascii	"\254R1>\007\360\204<\2069\2407\030(\326\332C+@\370["
 103      07F0843C 
 103      8639A037 
 103      1828D6DA 
 103      432B40F8 
 104 0166 BEECDBE0 		.ascii	"\276\354\333\340\264\177\217\254\274S\234\331\312\254"
 104      B47F8FAC 
 104      BC539CD9 
 104      CAAC
 105 0174 F83E01CE 		.ascii	"\370>\001\316\354^\025Dk\232\263\366gV\242BX\017x\215"
 105      EC5E1544 
 105      6B9AB3F6 
 105      6756A242 
 105      580F788D 
 106 0188 E5177FDD 		.ascii	"\345\027\177\335\032U\256\007\255\224\270\275\262\351"
 106      1A55AE07 
 106      AD94B8BD 
 106      B2E9
 107 0196 4E0F3205 		.ascii	"N\0172\005^$f\3713\371xX\234p)>\336\370\232\2044a\361"
 107      5E2466F9 
 107      33F97858 
 107      9C70293E 
 107      DEF89A84 
 108 01ad 80290838 		.ascii	"\200)\0108vU\327\217\\-\315\353\322\240\241\026\327"
ARM GAS  /tmp/ccpHTHLn.s 			page 8


 108      7655D78F 
 108      5C2DCDEB 
 108      D2A0A116 
 108      D7
 109 01be 2E9D09F0 		.ascii	".\235\011\360;\236\326\353u\263-\313\300\266L\347\223"
 109      3B9ED6EB 
 109      75B32DCB 
 109      C0B64CE7 
 109      93
 110 01cf 6B3FD7A9 		.ascii	"k?\327\251#\036n\275\264vo\036v\372\245\312~\275<vM"
 110      231E6EBD 
 110      B4766F1E 
 110      76FAA5CA 
 110      7EBD3C76 
 111 01e4 323CF6AB 		.ascii	"2<\366\253\321\243\225\267\356\364(S\340.\031\274_\245"
 111      D1A395B7 
 111      EEF42853 
 111      E02E19BC 
 111      5FA5
 112 01f6 DFB25FD1 		.ascii	"\337\262_\321&\375J\331\375\012:\375*o\310x\307\332"
 112      26FD4AD9 
 112      FD0A3AFD 
 112      2A6FC878 
 112      C7DA
 113 0208 88B7EC97 		.ascii	"\210\267\354\227\311\004\370\035\377\370\313\267\311"
 113      C904F81D 
 113      FFF8CBB7 
 113      C9
 114 0215 27572A1B 		.ascii	"'W*\033N\220\204\200\025\365h\021\216\200\335\262Zu"
 114      4E908480 
 114      15F56811 
 114      8E80DDB2 
 114      5A75
 115 0227 F3C05D5E 		.ascii	"\363\300]^\322k%T.O\356\336\024\023\360\261{\251\275"
 115      D26B2554 
 115      2E4FEEDE 
 115      1413F0B1 
 115      7BA9BD
 116 023a BA949306 		.ascii	"\272\224\223\006\315M\303\311\246\334\275\035\036\323"
 116      CD4DC3C9 
 116      A6DCBD1D 
 116      1ED3
 117 0248 D0506263 		.ascii	"\320Pbc\0322L\341\202\335\233i\222\206\244\235\006\335"
 117      1A324CE1 
 117      82DD9B69 
 117      9286A49D 
 117      06DD
 118 025a 4DC396B4 		.ascii	"M\303\226\264\253\323\353\322\224fvu1\001\037v)\266"
 118      ABD3EBD2 
 118      94667675 
 118      31011F76 
 118      29B6
 119 026c 5D5D8E5D 		.ascii	"]]\216]!\327\256\312\226\334<\335\036\355j(\261\361"
 119      21D7AECA 
 119      96DC3CDD 
 119      1EED6A28 
 119      B1F1
ARM GAS  /tmp/ccpHTHLn.s 			page 9


 120 027e 61D7C314 		.ascii	"a\327\303\024.\260\253\247\211]\011\333\256\260mW\245"
 120      2EB0ABA7 
 120      895D09DB 
 120      AEB06D57 
 120      A5
 121 028f BA7DEC23 		.ascii	"\272}\354#\243\226\265f\233S)\277oY(p.\354\225\362\207"
 121      A396B566 
 121      9B5329BF 
 121      6F592870 
 121      2EEC95F2 
 122 02a4 9655D4F3 		.ascii	"\226U\324\363[\246r \237\340\275\276\016\274,\023\340"
 122      5BA67220 
 122      9FE0BDBE 
 122      0EBC2C13 
 122      E0
 123 02b5 365A96A5 		.ascii	"6Z\226\245\373z&d\235\030D\334\030T\017\344\256\351"
 123      FB7A2664 
 123      9D1844DC 
 123      18540FE4 
 123      AEE9
 124 02c7 F377E6F5 		.ascii	"\363w\346\3653\005\247\316\370\271$\3647IB\334N\202"
 124      3305A7CE 
 124      F8B924F4 
 124      374942DC 
 124      4E82
 125 02d9 E124E1E4 		.ascii	"\341$\341\344\307\031\353/\273\305\004p\276j\3558\305"
 125      C719EB2F 
 125      BBC50470 
 125      BE6AED38 
 125      C5
 126 02ea A8763141 		.ascii	"\250v1Ai}\302\266\276|(\255\037h\343\360\224\326\017"
 126      697DC2B6 
 126      BE7C28AD 
 126      1F68E3F0 
 126      94D60F
 127 02fd 320137D9 		.ascii	"2\0017\331\355\237]\203\216\357Q\271\375\016\345\366"
 127      ED9F5D83 
 127      8EEF51B9 
 127      FD0EE5F6 
 128 030d 1BF27776 		.ascii	"\033\362wv\0153\205\013\316\256a>\256\377g\272i\233"
 128      0D33850B 
 128      CEAE613E 
 128      AEFF67BA 
 128      699B
 129 031f 1E737F9A 		.ascii	"\036s\177\232\035u;\337\037\361\2722\255\231[9&\340"
 129      1D753BDF 
 129      1FF1BA32 
 129      AD995B39 
 129      26E0
 130 0331 E361A5D9 		.ascii	"\343a\245\331n\345\010\371F\212\373\257rb\272\254\034"
 130      6EE508F9 
 130      468AFBAF 
 130      7262BAAC 
 130      1C
 131 0342 58C5D888 		.ascii	"X\305\330\210\261\321\321\274\370[X\314\337\235\236"
 131      B1D1D1BC 
 131      F85B58CC 
ARM GAS  /tmp/ccpHTHLn.s 			page 10


 131      DF9D9E
 132 0351 CFDF5BB8 		.ascii	"\317\337[\270\377`1\177}\362\332\304\270\300+cKK\310"
 132      FF60317F 
 132      7DF2DAC4 
 132      B8C02B63 
 132      4B4BC8
 133 0364 DC9A9FBF 		.ascii	"\334\232\237\2773:C\376\001gJ\203\327"
 133      333A43FE 
 133      01674A83 
 133      D7
 134              		.text
 135              		.section	.gnu.lto_.symbol_nodes.fe745ddf6af10afd,"",%progbits
 136 0000 789C6362 		.ascii	"x\234cb`b\260c\200\002\246-\214\365\014\014\023\316"
 136      6062B063 
 136      8002A62D 
 136      8CF50C0C 
 136      13CE
 137 0012 3130D4D7 		.ascii	"10\324\327\317\355Hd\332\312X\317\010\345\316\353`d"
 137      CFED4864 
 137      DACA58CF 
 137      08E5CEEB 
 137      6064
 138 0024 DAC658CF 		.ascii	"\332\306X\317\204\340\262nfd`\255g`fd`X\324\376F\236"
 138      84E0B26E 
 138      666460AD 
 138      67606664 
 138      6058D4FE 
 139 003a 01005D6F 		.ascii	"\001\000]o\022H"
 139      1248
 140              		.text
 141              		.section	.gnu.lto_.refs.fe745ddf6af10afd,"",%progbits
 142 0000 789C6362 		.ascii	"x\234cb`b`d\200\002\000\000F\000\006"
 142      60626064 
 142      80020000 
 142      460006
 143              		.text
 144              		.section	.gnu.lto_.decls.fe745ddf6af10afd,"",%progbits
 145 0000 789C9D96 		.ascii	"x\234\235\226oL\023g\034\307\237\347\332A;:0&\222m\311"
 145      6F4C1367 
 145      1CC79FE7 
 145      DA413B3A 
 145      3026926D 
 146 0015 465DE666 		.ascii	"F]\346f\314\326\"d\011\257\234p\200\230M%W\230\356U"
 146      CCD62264 
 146      09AF9C70 
 146      80984D25 
 146      5798EE55 
 147 0029 73B42534 		.ascii	"s\264%4\366\017\241G\206\357n\260lf/&,\323,\213\272"
 147      F60FA147 
 147      86EF6EB0 
 147      6C662F26 
 147      2CD32C8B 
 148 003e E21C1B8B 		.ascii	"\342\034\033\2133\216):uP\221\032\302\214e@\212J\210"
 148      338E293A 
 148      7550911A 
 148      C28C6540 
 148      8A4A88
ARM GAS  /tmp/ccpHTHLn.s 			page 11


 149 0051 2532B32D 		.ascii	"%2\263-f\323\020c\226\271u\277{zG\237\353z\345\352\023"
 149      66D31063 
 149      96B975BF 
 149      7B7A479F 
 149      EB7AE5EA 
 150 0066 BEBF3E7D 		.ascii	"\276\277>}\356y>\317\367\371s\277\302 \006\275\202\021"
 150      EE793ECF 
 150      F7F973BF 
 150      C22006BD 
 150      8211
 151 0078 4A42F117 		.ascii	"JB\361\027#\024\207\272\021!\264\005\245\213\001\324"
 151      231487BA 
 151      1121B405 
 151      A58B01D4 
 152 0088 0F1A000D 		.ascii	"\017\032\000\015\202\240\013:\201\324Ez^\000*\004\235"
 152      82A00B3A 
 152      81D4457A 
 152      5E002A04 
 152      9D
 153 0099 010D8346 		.ascii	"\001\015\203FA\021\320-\020\003\272\000\232\225\307"
 153      4111D02D 
 153      1003BA00 
 153      9A95C7
 154 00a8 F7A3FF17 		.ascii	"\367\243\377\027\211o\222\031`\005Yd\226\302H\200\216"
 154      896F9219 
 154      60055964 
 154      96C24880 
 154      8E
 155 00b9 A194BF39 		.ascii	"\241\224\2779\320U\320$hZ\346\017hp\0073\274)\274E\320"
 155      D055D024 
 155      685AE60F 
 155      68700733 
 155      BC29BC45 
 156 00ce 4379CE28 		.ascii	"Cy\316(\350\012h\001\024\007\335\000\315\203\356\200"
 156      E80A6801 
 156      1407DD00 
 156      CD83EE80 
 157 00de A664CF83 		.ascii	"\246d\317\203Y\330e\350\250\030\271\227\210\316\177"
 157      59D865E8 
 157      A818B997 
 157      88CE7F
 158 00ed F48C18EE 		.ascii	"\364\214\030\356\216$\223\257\243RtP\204\022~_\024\261"
 158      8E2493AF 
 158      A3527450 
 158      84127E5F 
 158      14B1
 159 00ff C0E32DEB 		.ascii	"\300\343-\353\320\036\314\343b3\262\222\212\305L\026"
 159      D01ECCE3 
 159      6233B292 
 159      8AC54C16 
 160 010f 80108F8F 		.ascii	"\200\020\217\217\341R\271\326lH\341\030T\211\321&4\010"
 160      E152B9D6 
 160      6C48E118 
 160      5489D126 
 160      3408
 161 0121 E37B4571 		.ascii	"\343{Eq\354e\234eJ\204^B_J3\210_\213\006\302\227\010"
 161      EC659C65 
ARM GAS  /tmp/ccpHTHLn.s 			page 12


 161      4A845E42 
 161      5F4A3388 
 161      5F8B06C2 
 162 0137 FDB88CEE 		.ascii	"\375\270\214\356\302\343/0\223i4\234\210\364\035\370"
 162      C2E32F30 
 162      9369349C 
 162      88F41DF8 
 163 0147 098B1F8B 		.ascii	"\011\213\037\213\217\222I\203l\200A\315\030\252\307"
 163      8F924983 
 163      6C8041CD 
 163      18AAC7
 164 0156 F1A69CFC 		.ascii	"\361\246\234\374\201L\376WY\371\217b\226\336w\023\311"
 164      814CFE57 
 164      59F98F62 
 164      96DE7713 
 164      C9
 165 0167 6499026F 		.ascii	"d\231\002o\321\003\037\314\204\177\243\206\277\200\372"
 165      D1031FCC 
 165      847FA386 
 165      BF80FA
 166 0176 C5F058E4 		.ascii	"\305\360X\344\363\337&$\363\342\275d\262\304\214\366"
 166      F3DF2624 
 166      F3E2BD64 
 166      B2C48CF6 
 167 0186 8B62B7B4 		.ascii	"\213b\267\264\313\015\023pY\262m\361\006t\034\26611"
 167      CB0D1370 
 167      59B26DF1 
 167      06741CB6 
 167      3131
 168 0198 F741F412 		.ascii	"\367A\364\022\356\206\303\340\361\267\330\014\226\372"
 168      EE86C3E0 
 168      F1B7D80C 
 168      96FA
 169 01a6 B0DA937E 		.ascii	"\260\332\223~\324\203\311\361>\334CP\247\010j\"\003"
 169      D483C9F1 
 169      3EDC4350 
 169      A7086A22 
 169      03
 170 01b7 C5E342B3 		.ascii	"\305\343B\263z%\360]\351 \361\310c\271\"\275s%(\337"
 170      7A25F05D 
 170      E920F1C8 
 170      63B922BD 
 170      732528DF 
 171 01cb EE0C9A59 		.ascii	"\356\014\232Y\231T\353b}\017\333\367<\272\215\217\210"
 171      9954EB62 
 171      7D0FDBF7 
 171      3CBA8D8F 
 171      88
 172 01dc 26D2B247 		.ascii	"&\322\262G^\273x\375~\251\274\336\236\234\353\345\361"
 172      5EBB78FD 
 172      7EA9BCDE 
 172      9E9CEBE5 
 172      F1
 173 01ed 49BC4197 		.ascii	"I\274A\227\235\265\250\217\334\366\255\024j\253\202"
 173      9DB5A88F 
 173      DCF6AD14 
 173      6AAB82
ARM GAS  /tmp/ccpHTHLn.s 			page 13


 174 01fc 32A5B76E 		.ascii	"2\245\267n\371\300\370k\242h\342\3610^\013k\030b\324"
 174      F9C0F86B 
 174      A268E2F1 
 174      305E0B6B 
 174      1862D4
 175 020f 1BB72A46 		.ascii	"\033\267*F\362\364\003\014M\015\"P1\362\327\214E4\246"
 175      F2F4030C 
 175      4D0D2250 
 175      31F2D78C 
 175      4534A6
 176 0222 DA51C635 		.ascii	"\332Q\3065\243\312z\024\026\337\353\211\3743\363\011"
 176      A3CA7A14 
 176      16DFEB89 
 176      FC33F309 
 177 0232 BCA36380 		.ascii	"\274\243c\200<C\316n\204X\220\306f\333\001\271\212V"
 177      3C43CE6E 
 177      845890C6 
 177      66DB01B9 
 177      8A56
 178 0244 F6AFD89C 		.ascii	"\366\257\330\234\301\373w\306\322\313+\260Ky\303\254"
 178      C1FB77C6 
 178      D2CB2BB0 
 178      4B79C3AC 
 179 0254 D9AC2AD7 		.ascii	"\331\254*\327 \275R\036\237''q\001\257\207\370#\304"
 179      20BD521E 
 179      9F272771 
 179      01AF87F8 
 179      23C4
 180 0266 9552843E 		.ascii	"\225R\204>L\337\333\324\306j]\210Q\\\244\214\222w\332"
 180      4CDFDBD4 
 180      C66A5D88 
 180      515CA48C 
 180      9277DA
 181 0279 4A6D74C4 		.ascii	"Jmt\304\240\364\257Z9\260\310B\034[y\034!\247\025\315"
 181      A0F4AF5A 
 181      39B0C842 
 181      1C5B791C 
 181      21A715CD 
 182 028d 7E5ADA0C 		.ascii	"~Z\332\014i\316\313\231\247u$NN\353\262\256\323\372"
 182      69CECB99 
 182      A775244E 
 182      4EEBB2AE 
 182      D3FA
 183 029f 2E4E9F16 		.ascii	".N\237\026\217/\302\225N\215}\274\323\032\212S\247\365"
 183      8F2FC295 
 183      4E8D7DBC 
 183      D31A8A53 
 183      A7F5
 184 02b1 33594F3E 		.ascii	"3YO>0\253\012v\232\206\305\365\300L\332\316\206i\330"
 184      30AB0A76 
 184      9A86C5F5 
 184      C04CDACE 
 184      8669D8
 185 02c4 CDBC616A 		.ascii	"\315\274ajg\347h\330m=\2605\332\316\316\323\260\273"
 185      67E768D8 
 185      6D3DB035 
 185      DACECED3 
ARM GAS  /tmp/ccpHTHLn.s 			page 14


 185      B0BB
 186 02d6 79C3D4CE 		.ascii	"y\303\324\316.\322\260e=\260\247\265\235\215\320\260"
 186      2ED2B065 
 186      3DB0A7B5 
 186      9D8DD0B0 
 187 02e6 BFF386A9 		.ascii	"\277\363\206\251\235M\321\260\036\203\016\230U\333\331"
 187      9D4DD1B0 
 187      1E830E98 
 187      55DBD9
 188 02f5 741AC6E3 		.ascii	"t\032\306\343\021=\227\326\252\355l\226v\266_\217\263"
 188      113D97D6 
 188      AAED6C96 
 188      76B65F8F 
 188      B3
 189 0306 8DDACEE2 		.ascii	"\215\332\316\3424\2547o\230\332\331u\032vH\017\254\\"
 189      34AC376F 
 189      98DAD975 
 189      1A76480F 
 189      AC5C
 190 0318 DBD94D1A 		.ascii	"\333\331M\032v8o\230\025i\026:\013\361x\234d\322(\311"
 190      76386F98 
 190      1569163A 
 190      0BF1789C 
 190      64D228C9 
 191 032c A457489C 		.ascii	"\244WH\234 q\222\304\253$^#q\212\304i\022gI\214\223"
 191      207192C4 
 191      AB245E23 
 191      718AC469 
 191      1267498C 
 192 0341 3847E20D 		.ascii	"8G\342\015\022\347I\\\310\221\221#92\362\255tF\316\030"
 192      12E7495C 
 192      C8919123 
 192      3932F2AD 
 192      7446CE18 
 193 0355 25FDDFA4 		.ascii	"%\375\337\2445*\2213\217\207\031\245\377\213h%\217\237"
 193      352A9133 
 193      8F8719A5 
 193      FF8B6825 
 193      8F9F
 194 0367 8D49797C 		.ascii	"\215Iy|\221\344\361\260a\325<\256fHs.e\346\361\276\030"
 194      91E4F1B0 
 194      61D53CAE 
 194      6648732E 
 194      65E6F1BE 
 195 037c C9E34BBA 		.ascii	"\311\343K\272\362\370\301\230\372W\367$\261\260\364"
 195      F2F8C198 
 195      FA57F724 
 195      B1B0F4
 196 038b D879FC50 		.ascii	"\330y\374P\214\272+Cy\303\324\267\370S\032vV\017,G\036"
 196      8CBA2B43 
 196      79C3D4B7 
 196      F8531A76 
 196      560F2C47 
 197 03a0 FF8C868D 		.ascii	"\377\214\206\215\346\015S;;\034\243\322H\352\267o\025"
 197      E60D533B 
 197      3B1CA3D2 
 197      48EAB76F 
ARM GAS  /tmp/ccpHTHLn.s 			page 15


 197      15
 198 03b1 588E3C7E 		.ascii	"X\216<~\224v6\246\307Y\216<~\212\206E\365\300r\344\361"
 198      947636A6 
 198      C7598E3C 
 198      7E8A8645 
 198      F5C072E4 
 199 03c6 211A762D 		.ascii	"!\032v-o\230\332\331i\0326\255\007f\315\342,[\241_\002"
 199      6F98DAD9 
 199      691A36AD 
 199      0766CDE2 
 199      2C5BA15F 
 200 03db 1EFF42D2 		.ascii	"\036\377B\322\310\035\362\372\377J\342\357$\336%\361"
 200      C81DF2FA 
 200      FF4AE2EF 
 200      24DE25F1 
 201 03eb 0F12FF24 		.ascii	"\017\022\377$\361>\211\313$>\310\221(\026s$\212\207"
 201      F13E89CB 
 201      243EC891 
 201      28167324 
 201      8A87
 202 03fd E9571E95 		.ascii	"\351W\036\225\333l\366\324_0do\343}\366\366`\207\020"
 202      DB6CF6D4 
 202      5F30646F 
 202      E37DF6F6 
 202      608710
 203 0410 B23B9A76 		.ascii	"\262;\232vTV\244b}yW\227\364\304\351\363\271m.\364\254"
 203      5456A462 
 203      7D795797 
 203      F4C4E9F3 
 203      B96D2EF4 
 204 0425 5C75B6F0 		.ascii	"\\u\266\360\256\275\235\355Nw\320\317{\003No\300+\024"
 204      AEBD9DED 
 204      4E77D0CF 
 204      7B034E6F 
 204      C02B14
 205 0438 6CDBD96C 		.ascii	"l\333\331le\221E\351!\265\255\011\011\376\312\012\247"
 205      659145E9 
 205      21B5AD09 
 205      09FECA0A 
 205      A7
 206 0449 CB1774ED 		.ascii	"\313\027t\355%\015\317\331;C\035vo\300\345\353t{\354"
 206      250DCFD9 
 206      3B431D76 
 206      6FC0E5EB 
 206      747BEC
 207 045c 01CF3B3E 		.ascii	"\001\317;>o\213=$\270\275\001\301\326\206L\235\360\011"
 207      6F8B3D24 
 207      B8BD01C1 
 207      D6864C9D 
 207      F009
 208 046e FD8557B3 		.ascii	"\375\205W\263u\363\363\2566o\300cw\272=\255|\247Op\012"
 208      75F3F3AE 
 208      366FC063 
 208      77BA3DAD 
 208      7CA74F70 
 209 0483 FBDA3D21 		.ascii	"\373\332=!\030\366\244\323\251\014,q\354\013\011\036"
 209      18F6A4D3 
ARM GAS  /tmp/ccpHTHLn.s 			page 16


 209      A90C2C71 
 209      EC0B091E 
 210 0493 3F1BECF0 		.ascii	"?\033\354\360\260\322\244\353ln^\340m\031\255U\364\262"
 210      B0D2A4EB 
 210      6C6E5EE0 
 210      6D19AD55 
 210      F4B2
 211 04a5 5D41BF3F 		.ascii	"]A\277?\030\260{\272\004;\273\303\261\335\001\353\246"
 211      18B07BBA 
 211      043BBBC3 
 211      B1DD01EB 
 211      A6
 212 04b6 964E16D0 		.ascii	"\226N\026\320Z^Y\336U\0053\0255\356\346\234M0m\255\247"
 212      5A5E59DE 
 212      55053315 
 212      35EEE69C 
 212      4D306DAD 
 213 04cb 95613903 		.ascii	"\225a9\003\353\340\2128\226U\232\214l\3756h\334\316"
 213      EBE08A38 
 213      96559A8C 
 213      6CFD3668 
 213      DCCE
 214 04dd 99AA1B6B 		.ascii	"\231\252\033k*8G\023\251l\226*\005\325\0155u;\271B\351"
 214      2A384713 
 214      A96C962A 
 214      05D50D35 
 214      753BB942 
 215 04f2 81FCB919 		.ascii	"\201\374\271\031>\2155\265,|i\250\221\372<!\015\257"
 215      3E8D35B5 
 215      2C7C69A8 
 215      91FA3C21 
 215      0DAF
 216 0504 20B1D2C0 		.ascii	" \261\322\300r\025O\325\277Y\355hP\340\206j\2263\276"
 216      72154FD5 
 216      BF59ED68 
 216      50E0866A 
 216      9633BE
 217 0517 51F73657 		.ascii	"Q\3676W\270\253\261I\372d\034\034S\315\231\270:G\035"
 217      B8ABB149 
 217      FA641C1C 
 217      53CD99B8 
 217      3A471D
 218 052a F7565DAD 		.ascii	"\367V]\255aW\015g\334\3155r\377\001U\215@i"
 218      61570D67 
 218      DCCD3572 
 218      FF01558D 
 218      4069
 219              		.text
 220              		.section	.gnu.lto_.symtab.fe745ddf6af10afd,"",%progbits
 221 0000 68616C5F 		.ascii	"hal_lld_init\000\000\000\000\000\000\000\000\000\000"
 221      6C6C645F 
 221      696E6974 
 221      00000000 
 221      00000000 
 222 0016 0000A600 		.ascii	"\000\000\246\000\000\000stm32_clock_init\000\000\000"
 222      00007374 
 222      6D33325F 
ARM GAS  /tmp/ccpHTHLn.s 			page 17


 222      636C6F63 
 222      6B5F696E 
 223 002f 00000000 		.ascii	"\000\000\000\000\000\000\000\000\000\251\000\000\000"
 223      00000000 
 223      00A90000 
 223      00
 224 003c 53797374 		.ascii	"SystemCoreClock\000\000\000\000\000\000\000\000\000"
 224      656D436F 
 224      7265436C 
 224      6F636B00 
 224      00000000 
 225 0054 000000AC 		.ascii	"\000\000\000\254\000\000\000"
 225      000000
 226              		.text
 227              		.section	.gnu.lto_.opts,"",%progbits
 228 0000 272D6D63 		.ascii	"'-mcpu=cortex-m0' '-mno-thumb-interwork' '-mthumb' "
 228      70753D63 
 228      6F727465 
 228      782D6D30 
 228      2720272D 
 229 0033 272D6767 		.ascii	"'-ggdb' '-O2' '-fomit-frame-pointer' '-falign-funct"
 229      64622720 
 229      272D4F32 
 229      2720272D 
 229      666F6D69 
 230 0066 696F6E73 		.ascii	"ions=16' '-ffunction-sections' '-fdata-sections' '-"
 230      3D313627 
 230      20272D66 
 230      66756E63 
 230      74696F6E 
 231 0099 666E6F2D 		.ascii	"fno-common' '-flto'\000"
 231      636F6D6D 
 231      6F6E2720 
 231      272D666C 
 231      746F2700 
 232              		.text
 233              		.cfi_sections	.debug_frame
 234              		.section	.text.hal_lld_init,"ax",%progbits
 235              		.align	2
 236              		.p2align 4,,15
 237              		.global	hal_lld_init
 238              		.code	16
 239              		.thumb_func
 240              		.type	hal_lld_init, %function
 241              	hal_lld_init:
 242              	.LFB180:
 243              		.file 1 "../../../os/hal/ports/STM32/STM32F0xx/hal_lld.c"
 244              		.loc 1 224 0
 245              		.cfi_startproc
 246              		.loc 1 227 0
 247 0000 1A4B     		ldr	r3, .L5
 248 0002 0121     		mov	r1, #1
 249 0004 9A6A     		ldr	r2, [r3, #40]
 250 0006 4942     		neg	r1, r1
 251 0008 0022     		mov	r2, #0
 252              		.loc 1 224 0
 253 000a 10B5     		push	{r4, lr}
ARM GAS  /tmp/ccpHTHLn.s 			page 18


 254              		.cfi_def_cfa_offset 8
 255              		.cfi_offset 4, -8
 256              		.cfi_offset 14, -4
 257              		.loc 1 227 0
 258 000c 9962     		str	r1, [r3, #40]
 259 000e 9A62     		str	r2, [r3, #40]
 260              		.loc 1 228 0
 261 0010 1869     		ldr	r0, [r3, #16]
 262 0012 1961     		str	r1, [r3, #16]
 263 0014 1A61     		str	r2, [r3, #16]
 264              		.loc 1 229 0
 265 0016 D968     		ldr	r1, [r3, #12]
 266 0018 1548     		ldr	r0, .L5+4
 267 001a 0143     		orr	r1, r0
 268 001c D960     		str	r1, [r3, #12]
 269 001e DA60     		str	r2, [r3, #12]
 270              		.loc 1 232 0
 271 0020 D869     		ldr	r0, [r3, #28]
 272 0022 8021     		mov	r1, #128
 273 0024 4905     		lsl	r1, r1, #21
 274 0026 0143     		orr	r1, r0
 275 0028 D961     		str	r1, [r3, #28]
 276              	.LBB4:
 277              	.LBB5:
 278              		.loc 1 57 0
 279 002a 1249     		ldr	r1, .L5+8
 280 002c 8020     		mov	r0, #128
 281 002e 0C68     		ldr	r4, [r1]
 282 0030 4000     		lsl	r0, r0, #1
 283 0032 2043     		orr	r0, r4
 284 0034 0860     		str	r0, [r1]
 285              		.loc 1 60 0
 286 0036 196A     		ldr	r1, [r3, #32]
 287 0038 C020     		mov	r0, #192
 288 003a 8000     		lsl	r0, r0, #2
 289 003c 0840     		and	r0, r1
 290 003e 8021     		mov	r1, #128
 291 0040 8900     		lsl	r1, r1, #2
 292 0042 8842     		cmp	r0, r1
 293 0044 03D0     		beq	.L2
 294              		.loc 1 62 0
 295 0046 8021     		mov	r1, #128
 296 0048 4902     		lsl	r1, r1, #9
 297 004a 1962     		str	r1, [r3, #32]
 298              		.loc 1 63 0
 299 004c 1A62     		str	r2, [r3, #32]
 300              	.L2:
 301              		.loc 1 82 0
 302 004e 074B     		ldr	r3, .L5
 303 0050 8022     		mov	r2, #128
 304 0052 196A     		ldr	r1, [r3, #32]
 305 0054 1202     		lsl	r2, r2, #8
 306 0056 1142     		tst	r1, r2
 307 0058 07D1     		bne	.L1
 308              		.loc 1 84 0
 309 005a 186A     		ldr	r0, [r3, #32]
 310 005c 8021     		mov	r1, #128
ARM GAS  /tmp/ccpHTHLn.s 			page 19


 311 005e 8900     		lsl	r1, r1, #2
 312 0060 0143     		orr	r1, r0
 313 0062 1962     		str	r1, [r3, #32]
 314              		.loc 1 87 0
 315 0064 196A     		ldr	r1, [r3, #32]
 316 0066 0A43     		orr	r2, r1
 317 0068 1A62     		str	r2, [r3, #32]
 318              	.L1:
 319              	.LBE5:
 320              	.LBE4:
 321              		.loc 1 245 0
 322              		@ sp needed
 323 006a 10BD     		pop	{r4, pc}
 324              	.L6:
 325              		.align	2
 326              	.L5:
 327 006c 00100240 		.word	1073876992
 328 0070 FFFFBFFF 		.word	-4194305
 329 0074 00700040 		.word	1073770496
 330              		.cfi_endproc
 331              	.LFE180:
 332              		.size	hal_lld_init, .-hal_lld_init
 333 0078 C046C046 		.section	.text.stm32_clock_init,"ax",%progbits
 333      C046C046 
 334              		.align	2
 335              		.p2align 4,,15
 336              		.global	stm32_clock_init
 337              		.code	16
 338              		.thumb_func
 339              		.type	stm32_clock_init, %function
 340              	stm32_clock_init:
 341              	.LFB181:
 342              		.loc 1 254 0
 343              		.cfi_startproc
 344              		.loc 1 259 0
 345 0000 2748     		ldr	r0, .L20
 346 0002 0123     		mov	r3, #1
 347 0004 0268     		ldr	r2, [r0]
 348              		.loc 1 260 0
 349 0006 0221     		mov	r1, #2
 350              		.loc 1 259 0
 351 0008 1343     		orr	r3, r2
 352 000a 0360     		str	r3, [r0]
 353              	.L9:
 354              		.loc 1 260 0 discriminator 1
 355 000c 0368     		ldr	r3, [r0]
 356 000e 244A     		ldr	r2, .L20
 357 0010 1942     		tst	r1, r3
 358 0012 FBD0     		beq	.L9
 359              		.loc 1 266 0
 360 0014 5368     		ldr	r3, [r2, #4]
 361 0016 0321     		mov	r1, #3
 362 0018 8B43     		bic	r3, r1
 363 001a 5360     		str	r3, [r2, #4]
 364              		.loc 1 267 0
 365 001c 5368     		ldr	r3, [r2, #4]
 366              		.loc 1 268 0
ARM GAS  /tmp/ccpHTHLn.s 			page 20


 367 001e 101C     		mov	r0, r2
 368              		.loc 1 267 0
 369 0020 5360     		str	r3, [r2, #4]
 370              		.loc 1 268 0
 371 0022 0C21     		mov	r1, #12
 372              	.L11:
 373              		.loc 1 268 0 is_stmt 0 discriminator 1
 374 0024 4368     		ldr	r3, [r0, #4]
 375 0026 1E4A     		ldr	r2, .L20
 376 0028 0B40     		and	r3, r1
 377 002a FBD1     		bne	.L11
 378              		.loc 1 272 0 is_stmt 1
 379 002c 1168     		ldr	r1, [r2]
 380 002e F920     		mov	r0, #249
 381 0030 0140     		and	r1, r0
 382 0032 1160     		str	r1, [r2]
 383              		.loc 1 273 0
 384 0034 5360     		str	r3, [r2, #4]
 385              		.loc 1 290 0
 386 0036 516B     		ldr	r1, [r2, #52]
 387 0038 0123     		mov	r3, #1
 388 003a 0B43     		orr	r3, r1
 389 003c 5363     		str	r3, [r2, #52]
 390              		.loc 1 291 0
 391 003e 0220     		mov	r0, #2
 392              	.L13:
 393              		.loc 1 291 0 is_stmt 0 discriminator 1
 394 0040 536B     		ldr	r3, [r2, #52]
 395 0042 1749     		ldr	r1, .L20
 396 0044 1842     		tst	r0, r3
 397 0046 FBD0     		beq	.L13
 398              		.loc 1 304 0 is_stmt 1
 399 0048 4A6A     		ldr	r2, [r1, #36]
 400 004a 0123     		mov	r3, #1
 401 004c 1343     		orr	r3, r2
 402 004e 4B62     		str	r3, [r1, #36]
 403              		.loc 1 305 0
 404 0050 0220     		mov	r0, #2
 405              	.L15:
 406              		.loc 1 305 0 is_stmt 0 discriminator 1
 407 0052 4B6A     		ldr	r3, [r1, #36]
 408 0054 124A     		ldr	r2, .L20
 409 0056 1842     		tst	r0, r3
 410 0058 FBD0     		beq	.L15
 411              		.loc 1 310 0 is_stmt 1
 412 005a A023     		mov	r3, #160
 413 005c 9B03     		lsl	r3, r3, #14
 414 005e 5360     		str	r3, [r2, #4]
 415              		.loc 1 312 0
 416 0060 0023     		mov	r3, #0
 417 0062 D362     		str	r3, [r2, #44]
 418              		.loc 1 316 0
 419 0064 1363     		str	r3, [r2, #48]
 420              		.loc 1 321 0
 421 0066 1168     		ldr	r1, [r2]
 422 0068 8023     		mov	r3, #128
 423 006a 5B04     		lsl	r3, r3, #17
ARM GAS  /tmp/ccpHTHLn.s 			page 21


 424 006c 0B43     		orr	r3, r1
 425              		.loc 1 322 0
 426 006e 8020     		mov	r0, #128
 427              		.loc 1 321 0
 428 0070 1360     		str	r3, [r2]
 429              		.loc 1 322 0
 430 0072 8004     		lsl	r0, r0, #18
 431              	.L17:
 432              		.loc 1 322 0 is_stmt 0 discriminator 1
 433 0074 1368     		ldr	r3, [r2]
 434 0076 0A49     		ldr	r1, .L20
 435 0078 0342     		tst	r3, r0
 436 007a FBD0     		beq	.L17
 437              		.loc 1 327 0 is_stmt 1
 438 007c 094B     		ldr	r3, .L20+4
 439 007e 1122     		mov	r2, #17
 440 0080 1A60     		str	r2, [r3]
 441              		.loc 1 332 0
 442 0082 4A68     		ldr	r2, [r1, #4]
 443 0084 0223     		mov	r3, #2
 444 0086 1343     		orr	r3, r2
 445 0088 4B60     		str	r3, [r1, #4]
 446              		.loc 1 333 0
 447 008a 0C20     		mov	r0, #12
 448              	.L19:
 449              		.loc 1 333 0 is_stmt 0 discriminator 1
 450 008c 4B68     		ldr	r3, [r1, #4]
 451 008e 044A     		ldr	r2, .L20
 452 0090 0340     		and	r3, r0
 453 0092 082B     		cmp	r3, #8
 454 0094 FAD1     		bne	.L19
 455              		.loc 1 339 0 is_stmt 1
 456 0096 9169     		ldr	r1, [r2, #24]
 457 0098 0123     		mov	r3, #1
 458 009a 0B43     		orr	r3, r1
 459 009c 9361     		str	r3, [r2, #24]
 460              		.loc 1 341 0
 461              		@ sp needed
 462 009e 7047     		bx	lr
 463              	.L21:
 464              		.align	2
 465              	.L20:
 466 00a0 00100240 		.word	1073876992
 467 00a4 00200240 		.word	1073881088
 468              		.cfi_endproc
 469              	.LFE181:
 470              		.size	stm32_clock_init, .-stm32_clock_init
 471              		.global	SystemCoreClock
 472 00a8 C046C046 		.section	.data.SystemCoreClock,"aw",%progbits
 472      C046C046 
 473              		.align	2
 474              		.type	SystemCoreClock, %object
 475              		.size	SystemCoreClock, 4
 476              	SystemCoreClock:
 477 0000 006CDC02 		.word	48000000
 478              		.text
 479              	.Letext0:
ARM GAS  /tmp/ccpHTHLn.s 			page 22


 480              		.file 2 "/usr/include/newlib/machine/_default_types.h"
 481              		.file 3 "/usr/include/newlib/stdint.h"
 482              		.file 4 "../../../os/common/ports/ARMCMx/compilers/GCC/chtypes.h"
 483              		.file 5 "../../../os/rt/include/chsystypes.h"
 484              		.file 6 "../../../os/rt/include/chschd.h"
 485              		.file 7 "../../../os/common/ext/CMSIS/ST/STM32F0xx/stm32f030x8.h"
 486              		.file 8 "../../../os/common/ports/ARMCMx/chcore.h"
 487              		.file 9 "../../../os/common/ports/ARMCMx/chcore_v6m.h"
 488              		.file 10 "../../../os/rt/include/chsem.h"
 489              		.file 11 "../../../os/rt/include/chmtx.h"
 490              		.section	.debug_info,"",%progbits
 491              	.Ldebug_info0:
 492 0000 A4070000 		.4byte	0x7a4
 493 0004 0400     		.2byte	0x4
 494 0006 00000000 		.4byte	.Ldebug_abbrev0
 495 000a 04       		.byte	0x4
 496 000b 01       		.uleb128 0x1
 497 000c 05010000 		.4byte	.LASF107
 498 0010 01       		.byte	0x1
 499 0011 09030000 		.4byte	.LASF108
 500 0015 15050000 		.4byte	.LASF109
 501 0019 00000000 		.4byte	.Ldebug_ranges0+0
 502 001d 00000000 		.4byte	0
 503 0021 00000000 		.4byte	.Ldebug_line0
 504 0025 02       		.uleb128 0x2
 505 0026 04       		.byte	0x4
 506 0027 05       		.byte	0x5
 507 0028 696E7400 		.ascii	"int\000"
 508 002c 03       		.uleb128 0x3
 509 002d 04       		.byte	0x4
 510 002e 07       		.byte	0x7
 511 002f 6C000000 		.4byte	.LASF0
 512 0033 03       		.uleb128 0x3
 513 0034 01       		.byte	0x1
 514 0035 06       		.byte	0x6
 515 0036 C6040000 		.4byte	.LASF1
 516 003a 04       		.uleb128 0x4
 517 003b 08040000 		.4byte	.LASF4
 518 003f 02       		.byte	0x2
 519 0040 1D       		.byte	0x1d
 520 0041 45000000 		.4byte	0x45
 521 0045 03       		.uleb128 0x3
 522 0046 01       		.byte	0x1
 523 0047 08       		.byte	0x8
 524 0048 77040000 		.4byte	.LASF2
 525 004c 03       		.uleb128 0x3
 526 004d 02       		.byte	0x2
 527 004e 05       		.byte	0x5
 528 004f B6030000 		.4byte	.LASF3
 529 0053 04       		.uleb128 0x4
 530 0054 2D020000 		.4byte	.LASF5
 531 0058 02       		.byte	0x2
 532 0059 2B       		.byte	0x2b
 533 005a 5E000000 		.4byte	0x5e
 534 005e 03       		.uleb128 0x3
 535 005f 02       		.byte	0x2
 536 0060 07       		.byte	0x7
ARM GAS  /tmp/ccpHTHLn.s 			page 23


 537 0061 D8040000 		.4byte	.LASF6
 538 0065 04       		.uleb128 0x4
 539 0066 92000000 		.4byte	.LASF7
 540 006a 02       		.byte	0x2
 541 006b 3F       		.byte	0x3f
 542 006c 70000000 		.4byte	0x70
 543 0070 03       		.uleb128 0x3
 544 0071 04       		.byte	0x4
 545 0072 05       		.byte	0x5
 546 0073 CC030000 		.4byte	.LASF8
 547 0077 04       		.uleb128 0x4
 548 0078 85040000 		.4byte	.LASF9
 549 007c 02       		.byte	0x2
 550 007d 41       		.byte	0x41
 551 007e 82000000 		.4byte	0x82
 552 0082 03       		.uleb128 0x3
 553 0083 04       		.byte	0x4
 554 0084 07       		.byte	0x7
 555 0085 28040000 		.4byte	.LASF10
 556 0089 03       		.uleb128 0x3
 557 008a 08       		.byte	0x8
 558 008b 05       		.byte	0x5
 559 008c 52030000 		.4byte	.LASF11
 560 0090 04       		.uleb128 0x4
 561 0091 B0020000 		.4byte	.LASF12
 562 0095 02       		.byte	0x2
 563 0096 5B       		.byte	0x5b
 564 0097 9B000000 		.4byte	0x9b
 565 009b 03       		.uleb128 0x3
 566 009c 08       		.byte	0x8
 567 009d 07       		.byte	0x7
 568 009e 0E020000 		.4byte	.LASF13
 569 00a2 04       		.uleb128 0x4
 570 00a3 F8020000 		.4byte	.LASF14
 571 00a7 03       		.byte	0x3
 572 00a8 2A       		.byte	0x2a
 573 00a9 3A000000 		.4byte	0x3a
 574 00ad 04       		.uleb128 0x4
 575 00ae AD030000 		.4byte	.LASF15
 576 00b2 03       		.byte	0x3
 577 00b3 36       		.byte	0x36
 578 00b4 53000000 		.4byte	0x53
 579 00b8 04       		.uleb128 0x4
 580 00b9 5A040000 		.4byte	.LASF16
 581 00bd 03       		.byte	0x3
 582 00be 41       		.byte	0x41
 583 00bf 65000000 		.4byte	0x65
 584 00c3 04       		.uleb128 0x4
 585 00c4 C3010000 		.4byte	.LASF17
 586 00c8 03       		.byte	0x3
 587 00c9 42       		.byte	0x42
 588 00ca 77000000 		.4byte	0x77
 589 00ce 04       		.uleb128 0x4
 590 00cf F4030000 		.4byte	.LASF18
 591 00d3 03       		.byte	0x3
 592 00d4 4E       		.byte	0x4e
 593 00d5 90000000 		.4byte	0x90
ARM GAS  /tmp/ccpHTHLn.s 			page 24


 594 00d9 04       		.uleb128 0x4
 595 00da 9A030000 		.4byte	.LASF19
 596 00de 04       		.byte	0x4
 597 00df 3C       		.byte	0x3c
 598 00e0 A2000000 		.4byte	0xa2
 599 00e4 04       		.uleb128 0x4
 600 00e5 E8020000 		.4byte	.LASF20
 601 00e9 04       		.byte	0x4
 602 00ea 3D       		.byte	0x3d
 603 00eb A2000000 		.4byte	0xa2
 604 00ef 04       		.uleb128 0x4
 605 00f0 20040000 		.4byte	.LASF21
 606 00f4 04       		.byte	0x4
 607 00f5 3E       		.byte	0x3e
 608 00f6 A2000000 		.4byte	0xa2
 609 00fa 04       		.uleb128 0x4
 610 00fb F5010000 		.4byte	.LASF22
 611 00ff 04       		.byte	0x4
 612 0100 40       		.byte	0x40
 613 0101 C3000000 		.4byte	0xc3
 614 0105 04       		.uleb128 0x4
 615 0106 60030000 		.4byte	.LASF23
 616 010a 04       		.byte	0x4
 617 010b 41       		.byte	0x41
 618 010c B8000000 		.4byte	0xb8
 619 0110 04       		.uleb128 0x4
 620 0111 D4010000 		.4byte	.LASF24
 621 0115 04       		.byte	0x4
 622 0116 43       		.byte	0x43
 623 0117 C3000000 		.4byte	0xc3
 624 011b 04       		.uleb128 0x4
 625 011c 38020000 		.4byte	.LASF25
 626 0120 04       		.byte	0x4
 627 0121 45       		.byte	0x45
 628 0122 B8000000 		.4byte	0xb8
 629 0126 04       		.uleb128 0x4
 630 0127 50000000 		.4byte	.LASF26
 631 012b 05       		.byte	0x5
 632 012c 35       		.byte	0x35
 633 012d AD000000 		.4byte	0xad
 634 0131 04       		.uleb128 0x4
 635 0132 78020000 		.4byte	.LASF27
 636 0136 05       		.byte	0x5
 637 0137 3F       		.byte	0x3f
 638 0138 3C010000 		.4byte	0x13c
 639 013c 05       		.uleb128 0x5
 640 013d 39030000 		.4byte	.LASF45
 641 0141 44       		.byte	0x44
 642 0142 06       		.byte	0x6
 643 0143 9A       		.byte	0x9a
 644 0144 1A020000 		.4byte	0x21a
 645 0148 06       		.uleb128 0x6
 646 0149 54040000 		.4byte	.LASF28
 647 014d 06       		.byte	0x6
 648 014e 9B       		.byte	0x9b
 649 014f 4F020000 		.4byte	0x24f
 650 0153 00       		.byte	0
ARM GAS  /tmp/ccpHTHLn.s 			page 25


 651 0154 06       		.uleb128 0x6
 652 0155 C4020000 		.4byte	.LASF29
 653 0159 06       		.byte	0x6
 654 015a 9C       		.byte	0x9c
 655 015b FA000000 		.4byte	0xfa
 656 015f 08       		.byte	0x8
 657 0160 07       		.uleb128 0x7
 658 0161 63747800 		.ascii	"ctx\000"
 659 0165 06       		.byte	0x6
 660 0166 9D       		.byte	0x9d
 661 0167 B7050000 		.4byte	0x5b7
 662 016b 0C       		.byte	0xc
 663 016c 06       		.uleb128 0x6
 664 016d 71040000 		.4byte	.LASF30
 665 0171 06       		.byte	0x6
 666 0172 9F       		.byte	0x9f
 667 0173 25020000 		.4byte	0x225
 668 0177 10       		.byte	0x10
 669 0178 06       		.uleb128 0x6
 670 0179 0F050000 		.4byte	.LASF31
 671 017d 06       		.byte	0x6
 672 017e A0       		.byte	0xa0
 673 017f 25020000 		.4byte	0x225
 674 0183 14       		.byte	0x14
 675 0184 06       		.uleb128 0x6
 676 0185 12040000 		.4byte	.LASF32
 677 0189 06       		.byte	0x6
 678 018a A7       		.byte	0xa7
 679 018b 12070000 		.4byte	0x712
 680 018f 18       		.byte	0x18
 681 0190 06       		.uleb128 0x6
 682 0191 E1020000 		.4byte	.LASF33
 683 0195 06       		.byte	0x6
 684 0196 B0       		.byte	0xb0
 685 0197 24070000 		.4byte	0x724
 686 019b 1C       		.byte	0x1c
 687 019c 06       		.uleb128 0x6
 688 019d AE040000 		.4byte	.LASF34
 689 01a1 06       		.byte	0x6
 690 01a2 B5       		.byte	0xb5
 691 01a3 E4000000 		.4byte	0xe4
 692 01a7 20       		.byte	0x20
 693 01a8 06       		.uleb128 0x6
 694 01a9 4A000000 		.4byte	.LASF35
 695 01ad 06       		.byte	0x6
 696 01ae B9       		.byte	0xb9
 697 01af D9000000 		.4byte	0xd9
 698 01b3 21       		.byte	0x21
 699 01b4 06       		.uleb128 0x6
 700 01b5 9C000000 		.4byte	.LASF36
 701 01b9 06       		.byte	0x6
 702 01ba BE       		.byte	0xbe
 703 01bb EF000000 		.4byte	0xef
 704 01bf 22       		.byte	0x22
 705 01c0 08       		.uleb128 0x8
 706 01c1 7500     		.ascii	"u\000"
 707 01c3 06       		.byte	0x6
ARM GAS  /tmp/ccpHTHLn.s 			page 26


 708 01c4 0F01     		.2byte	0x10f
 709 01c6 47060000 		.4byte	0x647
 710 01ca 24       		.byte	0x24
 711 01cb 09       		.uleb128 0x9
 712 01cc 90040000 		.4byte	.LASF37
 713 01d0 06       		.byte	0x6
 714 01d1 1401     		.2byte	0x114
 715 01d3 2B020000 		.4byte	0x22b
 716 01d7 28       		.byte	0x28
 717 01d8 09       		.uleb128 0x9
 718 01d9 00030000 		.4byte	.LASF38
 719 01dd 06       		.byte	0x6
 720 01de 1A01     		.2byte	0x11a
 721 01e0 4F020000 		.4byte	0x24f
 722 01e4 2C       		.byte	0x2c
 723 01e5 09       		.uleb128 0x9
 724 01e6 63000000 		.4byte	.LASF39
 725 01ea 06       		.byte	0x6
 726 01eb 2001     		.2byte	0x120
 727 01ed 10010000 		.4byte	0x110
 728 01f1 34       		.byte	0x34
 729 01f2 09       		.uleb128 0x9
 730 01f3 59020000 		.4byte	.LASF40
 731 01f7 06       		.byte	0x6
 732 01f8 2701     		.2byte	0x127
 733 01fa 0C070000 		.4byte	0x70c
 734 01fe 38       		.byte	0x38
 735 01ff 09       		.uleb128 0x9
 736 0200 5A000000 		.4byte	.LASF41
 737 0204 06       		.byte	0x6
 738 0205 2B01     		.2byte	0x12b
 739 0207 FA000000 		.4byte	0xfa
 740 020b 3C       		.byte	0x3c
 741 020c 09       		.uleb128 0x9
 742 020d 5A050000 		.4byte	.LASF42
 743 0211 06       		.byte	0x6
 744 0212 3201     		.2byte	0x132
 745 0214 02030000 		.4byte	0x302
 746 0218 40       		.byte	0x40
 747 0219 00       		.byte	0
 748 021a 04       		.uleb128 0x4
 749 021b CE020000 		.4byte	.LASF43
 750 021f 05       		.byte	0x5
 751 0220 44       		.byte	0x44
 752 0221 25020000 		.4byte	0x225
 753 0225 0A       		.uleb128 0xa
 754 0226 04       		.byte	0x4
 755 0227 31010000 		.4byte	0x131
 756 022b 04       		.uleb128 0x4
 757 022c 7E000000 		.4byte	.LASF44
 758 0230 05       		.byte	0x5
 759 0231 49       		.byte	0x49
 760 0232 36020000 		.4byte	0x236
 761 0236 05       		.uleb128 0x5
 762 0237 00000000 		.4byte	.LASF46
 763 023b 04       		.byte	0x4
 764 023c 06       		.byte	0x6
ARM GAS  /tmp/ccpHTHLn.s 			page 27


 765 023d 88       		.byte	0x88
 766 023e 4F020000 		.4byte	0x24f
 767 0242 06       		.uleb128 0x6
 768 0243 79000000 		.4byte	.LASF47
 769 0247 06       		.byte	0x6
 770 0248 89       		.byte	0x89
 771 0249 25020000 		.4byte	0x225
 772 024d 00       		.byte	0
 773 024e 00       		.byte	0
 774 024f 04       		.uleb128 0x4
 775 0250 49020000 		.4byte	.LASF48
 776 0254 05       		.byte	0x5
 777 0255 50       		.byte	0x50
 778 0256 5A020000 		.4byte	0x25a
 779 025a 05       		.uleb128 0x5
 780 025b DB000000 		.4byte	.LASF49
 781 025f 08       		.byte	0x8
 782 0260 06       		.byte	0x6
 783 0261 8F       		.byte	0x8f
 784 0262 7F020000 		.4byte	0x27f
 785 0266 06       		.uleb128 0x6
 786 0267 79000000 		.4byte	.LASF47
 787 026b 06       		.byte	0x6
 788 026c 90       		.byte	0x90
 789 026d 25020000 		.4byte	0x225
 790 0271 00       		.byte	0
 791 0272 06       		.uleb128 0x6
 792 0273 D6000000 		.4byte	.LASF50
 793 0277 06       		.byte	0x6
 794 0278 91       		.byte	0x91
 795 0279 25020000 		.4byte	0x225
 796 027d 04       		.byte	0x4
 797 027e 00       		.byte	0
 798 027f 04       		.uleb128 0x4
 799 0280 47040000 		.4byte	.LASF51
 800 0284 05       		.byte	0x5
 801 0285 57       		.byte	0x57
 802 0286 8A020000 		.4byte	0x28a
 803 028a 0B       		.uleb128 0xb
 804 028b BC000000 		.4byte	.LASF52
 805 028f 1C       		.byte	0x1c
 806 0290 06       		.byte	0x6
 807 0291 6A01     		.2byte	0x16a
 808 0293 E6020000 		.4byte	0x2e6
 809 0297 09       		.uleb128 0x9
 810 0298 54040000 		.4byte	.LASF28
 811 029c 06       		.byte	0x6
 812 029d 6B01     		.2byte	0x16b
 813 029f 4F020000 		.4byte	0x24f
 814 02a3 00       		.byte	0
 815 02a4 09       		.uleb128 0x9
 816 02a5 C4020000 		.4byte	.LASF29
 817 02a9 06       		.byte	0x6
 818 02aa 6C01     		.2byte	0x16c
 819 02ac FA000000 		.4byte	0xfa
 820 02b0 08       		.byte	0x8
 821 02b1 08       		.uleb128 0x8
ARM GAS  /tmp/ccpHTHLn.s 			page 28


 822 02b2 63747800 		.ascii	"ctx\000"
 823 02b6 06       		.byte	0x6
 824 02b7 6E01     		.2byte	0x16e
 825 02b9 B7050000 		.4byte	0x5b7
 826 02bd 0C       		.byte	0xc
 827 02be 09       		.uleb128 0x9
 828 02bf 71040000 		.4byte	.LASF30
 829 02c3 06       		.byte	0x6
 830 02c4 7101     		.2byte	0x171
 831 02c6 25020000 		.4byte	0x225
 832 02ca 10       		.byte	0x10
 833 02cb 09       		.uleb128 0x9
 834 02cc 0F050000 		.4byte	.LASF31
 835 02d0 06       		.byte	0x6
 836 02d1 7201     		.2byte	0x172
 837 02d3 25020000 		.4byte	0x225
 838 02d7 14       		.byte	0x14
 839 02d8 09       		.uleb128 0x9
 840 02d9 F6040000 		.4byte	.LASF53
 841 02dd 06       		.byte	0x6
 842 02de 7501     		.2byte	0x175
 843 02e0 25020000 		.4byte	0x225
 844 02e4 18       		.byte	0x18
 845 02e5 00       		.byte	0
 846 02e6 04       		.uleb128 0x4
 847 02e7 EC000000 		.4byte	.LASF54
 848 02eb 05       		.byte	0x5
 849 02ec 5C       		.byte	0x5c
 850 02ed F1020000 		.4byte	0x2f1
 851 02f1 0A       		.uleb128 0xa
 852 02f2 04       		.byte	0x4
 853 02f3 F7020000 		.4byte	0x2f7
 854 02f7 0C       		.uleb128 0xc
 855 02f8 02030000 		.4byte	0x302
 856 02fc 0D       		.uleb128 0xd
 857 02fd 02030000 		.4byte	0x302
 858 0301 00       		.byte	0
 859 0302 0E       		.uleb128 0xe
 860 0303 04       		.byte	0x4
 861 0304 04       		.uleb128 0x4
 862 0305 66030000 		.4byte	.LASF55
 863 0309 05       		.byte	0x5
 864 030a 61       		.byte	0x61
 865 030b 0F030000 		.4byte	0x30f
 866 030f 0B       		.uleb128 0xb
 867 0310 FD010000 		.4byte	.LASF56
 868 0314 14       		.byte	0x14
 869 0315 06       		.byte	0x6
 870 0316 4501     		.2byte	0x145
 871 0318 5E030000 		.4byte	0x35e
 872 031c 09       		.uleb128 0x9
 873 031d 79000000 		.4byte	.LASF47
 874 0321 06       		.byte	0x6
 875 0322 4601     		.2byte	0x146
 876 0324 2A070000 		.4byte	0x72a
 877 0328 00       		.byte	0
 878 0329 09       		.uleb128 0x9
ARM GAS  /tmp/ccpHTHLn.s 			page 29


 879 032a D6000000 		.4byte	.LASF50
 880 032e 06       		.byte	0x6
 881 032f 4701     		.2byte	0x147
 882 0331 2A070000 		.4byte	0x72a
 883 0335 04       		.byte	0x4
 884 0336 09       		.uleb128 0x9
 885 0337 D2040000 		.4byte	.LASF57
 886 033b 06       		.byte	0x6
 887 033c 4801     		.2byte	0x148
 888 033e 26010000 		.4byte	0x126
 889 0342 08       		.byte	0x8
 890 0343 09       		.uleb128 0x9
 891 0344 CA000000 		.4byte	.LASF58
 892 0348 06       		.byte	0x6
 893 0349 4901     		.2byte	0x149
 894 034b E6020000 		.4byte	0x2e6
 895 034f 0C       		.byte	0xc
 896 0350 08       		.uleb128 0x8
 897 0351 70617200 		.ascii	"par\000"
 898 0355 06       		.byte	0x6
 899 0356 4B01     		.2byte	0x14b
 900 0358 02030000 		.4byte	0x302
 901 035c 10       		.byte	0x10
 902 035d 00       		.byte	0
 903 035e 04       		.uleb128 0x4
 904 035f 98040000 		.4byte	.LASF59
 905 0363 05       		.byte	0x5
 906 0364 66       		.byte	0x66
 907 0365 69030000 		.4byte	0x369
 908 0369 0B       		.uleb128 0xb
 909 036a 61020000 		.4byte	.LASF60
 910 036e 0C       		.byte	0xc
 911 036f 06       		.byte	0x6
 912 0370 5501     		.2byte	0x155
 913 0372 AB030000 		.4byte	0x3ab
 914 0376 09       		.uleb128 0x9
 915 0377 79000000 		.4byte	.LASF47
 916 037b 06       		.byte	0x6
 917 037c 5601     		.2byte	0x156
 918 037e 2A070000 		.4byte	0x72a
 919 0382 00       		.byte	0
 920 0383 09       		.uleb128 0x9
 921 0384 D6000000 		.4byte	.LASF50
 922 0388 06       		.byte	0x6
 923 0389 5801     		.2byte	0x158
 924 038b 2A070000 		.4byte	0x72a
 925 038f 04       		.byte	0x4
 926 0390 09       		.uleb128 0x9
 927 0391 D2040000 		.4byte	.LASF57
 928 0395 06       		.byte	0x6
 929 0396 5A01     		.2byte	0x15a
 930 0398 26010000 		.4byte	0x126
 931 039c 08       		.byte	0x8
 932 039d 09       		.uleb128 0x9
 933 039e EB030000 		.4byte	.LASF61
 934 03a2 06       		.byte	0x6
 935 03a3 6201     		.2byte	0x162
ARM GAS  /tmp/ccpHTHLn.s 			page 30


 936 03a5 26010000 		.4byte	0x126
 937 03a9 0A       		.byte	0xa
 938 03aa 00       		.byte	0
 939 03ab 04       		.uleb128 0x4
 940 03ac 43030000 		.4byte	.LASF62
 941 03b0 05       		.byte	0x5
 942 03b1 6B       		.byte	0x6b
 943 03b2 B6030000 		.4byte	0x3b6
 944 03b6 0B       		.uleb128 0xb
 945 03b7 F5000000 		.4byte	.LASF63
 946 03bb 04       		.byte	0x4
 947 03bc 06       		.byte	0x6
 948 03bd 7C01     		.2byte	0x17c
 949 03bf D1030000 		.4byte	0x3d1
 950 03c3 09       		.uleb128 0x9
 951 03c4 8A030000 		.4byte	.LASF64
 952 03c8 06       		.byte	0x6
 953 03c9 8401     		.2byte	0x184
 954 03cb 30070000 		.4byte	0x730
 955 03cf 00       		.byte	0
 956 03d0 00       		.byte	0
 957 03d1 04       		.uleb128 0x4
 958 03d2 B4040000 		.4byte	.LASF65
 959 03d6 05       		.byte	0x5
 960 03d7 70       		.byte	0x70
 961 03d8 DC030000 		.4byte	0x3dc
 962 03dc 0B       		.uleb128 0xb
 963 03dd E1030000 		.4byte	.LASF66
 964 03e1 70       		.byte	0x70
 965 03e2 06       		.byte	0x6
 966 03e3 9C01     		.2byte	0x19c
 967 03e5 1E040000 		.4byte	0x41e
 968 03e9 09       		.uleb128 0x9
 969 03ea 02040000 		.4byte	.LASF67
 970 03ee 06       		.byte	0x6
 971 03ef A001     		.2byte	0x1a0
 972 03f1 7F020000 		.4byte	0x27f
 973 03f5 00       		.byte	0
 974 03f6 09       		.uleb128 0x9
 975 03f7 A8000000 		.4byte	.LASF68
 976 03fb 06       		.byte	0x6
 977 03fc A401     		.2byte	0x1a4
 978 03fe 5E030000 		.4byte	0x35e
 979 0402 1C       		.byte	0x1c
 980 0403 08       		.uleb128 0x8
 981 0404 64626700 		.ascii	"dbg\000"
 982 0408 06       		.byte	0x6
 983 0409 A801     		.2byte	0x1a8
 984 040b AB030000 		.4byte	0x3ab
 985 040f 28       		.byte	0x28
 986 0410 09       		.uleb128 0x9
 987 0411 A2030000 		.4byte	.LASF69
 988 0415 06       		.byte	0x6
 989 0416 AC01     		.2byte	0x1ac
 990 0418 31010000 		.4byte	0x131
 991 041c 2C       		.byte	0x2c
 992 041d 00       		.byte	0
ARM GAS  /tmp/ccpHTHLn.s 			page 31


 993 041e 03       		.uleb128 0x3
 994 041f 04       		.byte	0x4
 995 0420 07       		.byte	0x7
 996 0421 17040000 		.4byte	.LASF70
 997 0425 0F       		.uleb128 0xf
 998 0426 C3000000 		.4byte	0xc3
 999 042a 10       		.uleb128 0x10
 1000 042b 24       		.byte	0x24
 1001 042c 07       		.byte	0x7
 1002 042d E0       		.byte	0xe0
 1003 042e 9C040000 		.4byte	0x49c
 1004 0432 07       		.uleb128 0x7
 1005 0433 41435200 		.ascii	"ACR\000"
 1006 0437 07       		.byte	0x7
 1007 0438 E2       		.byte	0xe2
 1008 0439 25040000 		.4byte	0x425
 1009 043d 00       		.byte	0
 1010 043e 06       		.uleb128 0x6
 1011 043f 3E020000 		.4byte	.LASF71
 1012 0443 07       		.byte	0x7
 1013 0444 E3       		.byte	0xe3
 1014 0445 25040000 		.4byte	0x425
 1015 0449 04       		.byte	0x4
 1016 044a 06       		.uleb128 0x6
 1017 044b 25020000 		.4byte	.LASF72
 1018 044f 07       		.byte	0x7
 1019 0450 E4       		.byte	0xe4
 1020 0451 25040000 		.4byte	0x425
 1021 0455 08       		.byte	0x8
 1022 0456 07       		.uleb128 0x7
 1023 0457 535200   		.ascii	"SR\000"
 1024 045a 07       		.byte	0x7
 1025 045b E5       		.byte	0xe5
 1026 045c 25040000 		.4byte	0x425
 1027 0460 0C       		.byte	0xc
 1028 0461 07       		.uleb128 0x7
 1029 0462 435200   		.ascii	"CR\000"
 1030 0465 07       		.byte	0x7
 1031 0466 E6       		.byte	0xe6
 1032 0467 25040000 		.4byte	0x425
 1033 046b 10       		.byte	0x10
 1034 046c 07       		.uleb128 0x7
 1035 046d 415200   		.ascii	"AR\000"
 1036 0470 07       		.byte	0x7
 1037 0471 E7       		.byte	0xe7
 1038 0472 25040000 		.4byte	0x425
 1039 0476 14       		.byte	0x14
 1040 0477 06       		.uleb128 0x6
 1041 0478 10000000 		.4byte	.LASF73
 1042 047c 07       		.byte	0x7
 1043 047d E8       		.byte	0xe8
 1044 047e 25040000 		.4byte	0x425
 1045 0482 18       		.byte	0x18
 1046 0483 07       		.uleb128 0x7
 1047 0484 4F425200 		.ascii	"OBR\000"
 1048 0488 07       		.byte	0x7
 1049 0489 E9       		.byte	0xe9
ARM GAS  /tmp/ccpHTHLn.s 			page 32


 1050 048a 25040000 		.4byte	0x425
 1051 048e 1C       		.byte	0x1c
 1052 048f 06       		.uleb128 0x6
 1053 0490 81020000 		.4byte	.LASF74
 1054 0494 07       		.byte	0x7
 1055 0495 EA       		.byte	0xea
 1056 0496 25040000 		.4byte	0x425
 1057 049a 20       		.byte	0x20
 1058 049b 00       		.byte	0
 1059 049c 04       		.uleb128 0x4
 1060 049d 8D020000 		.4byte	.LASF75
 1061 04a1 07       		.byte	0x7
 1062 04a2 EB       		.byte	0xeb
 1063 04a3 2A040000 		.4byte	0x42a
 1064 04a7 11       		.uleb128 0x11
 1065 04a8 08       		.byte	0x8
 1066 04a9 07       		.byte	0x7
 1067 04aa 3C01     		.2byte	0x13c
 1068 04ac CA040000 		.4byte	0x4ca
 1069 04b0 08       		.uleb128 0x8
 1070 04b1 435200   		.ascii	"CR\000"
 1071 04b4 07       		.byte	0x7
 1072 04b5 3E01     		.2byte	0x13e
 1073 04b7 25040000 		.4byte	0x425
 1074 04bb 00       		.byte	0
 1075 04bc 08       		.uleb128 0x8
 1076 04bd 43535200 		.ascii	"CSR\000"
 1077 04c1 07       		.byte	0x7
 1078 04c2 3F01     		.2byte	0x13f
 1079 04c4 25040000 		.4byte	0x425
 1080 04c8 04       		.byte	0x4
 1081 04c9 00       		.byte	0
 1082 04ca 12       		.uleb128 0x12
 1083 04cb C0030000 		.4byte	.LASF76
 1084 04cf 07       		.byte	0x7
 1085 04d0 4001     		.2byte	0x140
 1086 04d2 A7040000 		.4byte	0x4a7
 1087 04d6 11       		.uleb128 0x11
 1088 04d7 38       		.byte	0x38
 1089 04d8 07       		.byte	0x7
 1090 04d9 4601     		.2byte	0x146
 1091 04db 95050000 		.4byte	0x595
 1092 04df 08       		.uleb128 0x8
 1093 04e0 435200   		.ascii	"CR\000"
 1094 04e3 07       		.byte	0x7
 1095 04e4 4801     		.2byte	0x148
 1096 04e6 25040000 		.4byte	0x425
 1097 04ea 00       		.byte	0
 1098 04eb 09       		.uleb128 0x9
 1099 04ec FD030000 		.4byte	.LASF77
 1100 04f0 07       		.byte	0x7
 1101 04f1 4901     		.2byte	0x149
 1102 04f3 25040000 		.4byte	0x425
 1103 04f7 04       		.byte	0x4
 1104 04f8 08       		.uleb128 0x8
 1105 04f9 43495200 		.ascii	"CIR\000"
 1106 04fd 07       		.byte	0x7
ARM GAS  /tmp/ccpHTHLn.s 			page 33


 1107 04fe 4A01     		.2byte	0x14a
 1108 0500 25040000 		.4byte	0x425
 1109 0504 08       		.byte	0x8
 1110 0505 09       		.uleb128 0x9
 1111 0506 41000000 		.4byte	.LASF78
 1112 050a 07       		.byte	0x7
 1113 050b 4B01     		.2byte	0x14b
 1114 050d 25040000 		.4byte	0x425
 1115 0511 0C       		.byte	0xc
 1116 0512 09       		.uleb128 0x9
 1117 0513 BB020000 		.4byte	.LASF79
 1118 0517 07       		.byte	0x7
 1119 0518 4C01     		.2byte	0x14c
 1120 051a 25040000 		.4byte	0x425
 1121 051e 10       		.byte	0x10
 1122 051f 09       		.uleb128 0x9
 1123 0520 F1020000 		.4byte	.LASF80
 1124 0524 07       		.byte	0x7
 1125 0525 4D01     		.2byte	0x14d
 1126 0527 25040000 		.4byte	0x425
 1127 052b 14       		.byte	0x14
 1128 052c 09       		.uleb128 0x9
 1129 052d 82030000 		.4byte	.LASF81
 1130 0531 07       		.byte	0x7
 1131 0532 4E01     		.2byte	0x14e
 1132 0534 25040000 		.4byte	0x425
 1133 0538 18       		.byte	0x18
 1134 0539 09       		.uleb128 0x9
 1135 053a 19000000 		.4byte	.LASF82
 1136 053e 07       		.byte	0x7
 1137 053f 4F01     		.2byte	0x14f
 1138 0541 25040000 		.4byte	0x425
 1139 0545 1C       		.byte	0x1c
 1140 0546 09       		.uleb128 0x9
 1141 0547 8D000000 		.4byte	.LASF83
 1142 054b 07       		.byte	0x7
 1143 054c 5001     		.2byte	0x150
 1144 054e 25040000 		.4byte	0x425
 1145 0552 20       		.byte	0x20
 1146 0553 08       		.uleb128 0x8
 1147 0554 43535200 		.ascii	"CSR\000"
 1148 0558 07       		.byte	0x7
 1149 0559 5101     		.2byte	0x151
 1150 055b 25040000 		.4byte	0x425
 1151 055f 24       		.byte	0x24
 1152 0560 09       		.uleb128 0x9
 1153 0561 E0010000 		.4byte	.LASF84
 1154 0565 07       		.byte	0x7
 1155 0566 5201     		.2byte	0x152
 1156 0568 25040000 		.4byte	0x425
 1157 056c 28       		.byte	0x28
 1158 056d 09       		.uleb128 0x9
 1159 056e 76030000 		.4byte	.LASF85
 1160 0572 07       		.byte	0x7
 1161 0573 5301     		.2byte	0x153
 1162 0575 25040000 		.4byte	0x425
 1163 0579 2C       		.byte	0x2c
ARM GAS  /tmp/ccpHTHLn.s 			page 34


 1164 057a 09       		.uleb128 0x9
 1165 057b 7C030000 		.4byte	.LASF86
 1166 057f 07       		.byte	0x7
 1167 0580 5401     		.2byte	0x154
 1168 0582 25040000 		.4byte	0x425
 1169 0586 30       		.byte	0x30
 1170 0587 08       		.uleb128 0x8
 1171 0588 43523200 		.ascii	"CR2\000"
 1172 058c 07       		.byte	0x7
 1173 058d 5501     		.2byte	0x155
 1174 058f 25040000 		.4byte	0x425
 1175 0593 34       		.byte	0x34
 1176 0594 00       		.byte	0
 1177 0595 12       		.uleb128 0x12
 1178 0596 9B020000 		.4byte	.LASF87
 1179 059a 07       		.byte	0x7
 1180 059b 5601     		.2byte	0x156
 1181 059d D6040000 		.4byte	0x4d6
 1182 05a1 04       		.uleb128 0x4
 1183 05a2 38000000 		.4byte	.LASF88
 1184 05a6 08       		.byte	0x8
 1185 05a7 65       		.byte	0x65
 1186 05a8 02030000 		.4byte	0x302
 1187 05ac 04       		.uleb128 0x4
 1188 05ad EB040000 		.4byte	.LASF89
 1189 05b1 08       		.byte	0x8
 1190 05b2 6D       		.byte	0x6d
 1191 05b3 CE000000 		.4byte	0xce
 1192 05b7 05       		.uleb128 0x5
 1193 05b8 AF000000 		.4byte	.LASF90
 1194 05bc 04       		.byte	0x4
 1195 05bd 08       		.byte	0x8
 1196 05be 89       		.byte	0x89
 1197 05bf CF050000 		.4byte	0x5cf
 1198 05c3 07       		.uleb128 0x7
 1199 05c4 737000   		.ascii	"sp\000"
 1200 05c7 08       		.byte	0x8
 1201 05c8 8A       		.byte	0x8a
 1202 05c9 41060000 		.4byte	0x641
 1203 05cd 00       		.byte	0
 1204 05ce 00       		.byte	0
 1205 05cf 05       		.uleb128 0x5
 1206 05d0 D5030000 		.4byte	.LASF91
 1207 05d4 24       		.byte	0x24
 1208 05d5 09       		.byte	0x9
 1209 05d6 C3       		.byte	0xc3
 1210 05d7 41060000 		.4byte	0x641
 1211 05db 07       		.uleb128 0x7
 1212 05dc 723800   		.ascii	"r8\000"
 1213 05df 09       		.byte	0x9
 1214 05e0 C4       		.byte	0xc4
 1215 05e1 A1050000 		.4byte	0x5a1
 1216 05e5 00       		.byte	0
 1217 05e6 07       		.uleb128 0x7
 1218 05e7 723900   		.ascii	"r9\000"
 1219 05ea 09       		.byte	0x9
 1220 05eb C5       		.byte	0xc5
ARM GAS  /tmp/ccpHTHLn.s 			page 35


 1221 05ec A1050000 		.4byte	0x5a1
 1222 05f0 04       		.byte	0x4
 1223 05f1 07       		.uleb128 0x7
 1224 05f2 72313000 		.ascii	"r10\000"
 1225 05f6 09       		.byte	0x9
 1226 05f7 C6       		.byte	0xc6
 1227 05f8 A1050000 		.4byte	0x5a1
 1228 05fc 08       		.byte	0x8
 1229 05fd 07       		.uleb128 0x7
 1230 05fe 72313100 		.ascii	"r11\000"
 1231 0602 09       		.byte	0x9
 1232 0603 C7       		.byte	0xc7
 1233 0604 A1050000 		.4byte	0x5a1
 1234 0608 0C       		.byte	0xc
 1235 0609 07       		.uleb128 0x7
 1236 060a 723400   		.ascii	"r4\000"
 1237 060d 09       		.byte	0x9
 1238 060e C8       		.byte	0xc8
 1239 060f A1050000 		.4byte	0x5a1
 1240 0613 10       		.byte	0x10
 1241 0614 07       		.uleb128 0x7
 1242 0615 723500   		.ascii	"r5\000"
 1243 0618 09       		.byte	0x9
 1244 0619 C9       		.byte	0xc9
 1245 061a A1050000 		.4byte	0x5a1
 1246 061e 14       		.byte	0x14
 1247 061f 07       		.uleb128 0x7
 1248 0620 723600   		.ascii	"r6\000"
 1249 0623 09       		.byte	0x9
 1250 0624 CA       		.byte	0xca
 1251 0625 A1050000 		.4byte	0x5a1
 1252 0629 18       		.byte	0x18
 1253 062a 07       		.uleb128 0x7
 1254 062b 723700   		.ascii	"r7\000"
 1255 062e 09       		.byte	0x9
 1256 062f CB       		.byte	0xcb
 1257 0630 A1050000 		.4byte	0x5a1
 1258 0634 1C       		.byte	0x1c
 1259 0635 07       		.uleb128 0x7
 1260 0636 6C7200   		.ascii	"lr\000"
 1261 0639 09       		.byte	0x9
 1262 063a CC       		.byte	0xcc
 1263 063b A1050000 		.4byte	0x5a1
 1264 063f 20       		.byte	0x20
 1265 0640 00       		.byte	0
 1266 0641 0A       		.uleb128 0xa
 1267 0642 04       		.byte	0x4
 1268 0643 CF050000 		.4byte	0x5cf
 1269 0647 13       		.uleb128 0x13
 1270 0648 04       		.byte	0x4
 1271 0649 06       		.byte	0x6
 1272 064a D2       		.byte	0xd2
 1273 064b AA060000 		.4byte	0x6aa
 1274 064f 14       		.uleb128 0x14
 1275 0650 86020000 		.4byte	.LASF92
 1276 0654 06       		.byte	0x6
 1277 0655 D9       		.byte	0xd9
ARM GAS  /tmp/ccpHTHLn.s 			page 36


 1278 0656 05010000 		.4byte	0x105
 1279 065a 14       		.uleb128 0x14
 1280 065b 51050000 		.4byte	.LASF93
 1281 065f 06       		.byte	0x6
 1282 0660 E0       		.byte	0xe0
 1283 0661 05010000 		.4byte	0x105
 1284 0665 14       		.uleb128 0x14
 1285 0666 A1000000 		.4byte	.LASF94
 1286 066a 06       		.byte	0x6
 1287 066b E7       		.byte	0xe7
 1288 066c 02030000 		.4byte	0x302
 1289 0670 14       		.uleb128 0x14
 1290 0671 C0040000 		.4byte	.LASF95
 1291 0675 06       		.byte	0x6
 1292 0676 EE       		.byte	0xee
 1293 0677 AA060000 		.4byte	0x6aa
 1294 067b 14       		.uleb128 0x14
 1295 067c CC010000 		.4byte	.LASF96
 1296 0680 06       		.byte	0x6
 1297 0681 F3       		.byte	0xf3
 1298 0682 05010000 		.4byte	0x105
 1299 0686 14       		.uleb128 0x14
 1300 0687 62040000 		.4byte	.LASF97
 1301 068b 06       		.byte	0x6
 1302 068c FC       		.byte	0xfc
 1303 068d D5060000 		.4byte	0x6d5
 1304 0691 15       		.uleb128 0x15
 1305 0692 31000000 		.4byte	.LASF98
 1306 0696 06       		.byte	0x6
 1307 0697 0501     		.2byte	0x105
 1308 0699 0C070000 		.4byte	0x70c
 1309 069d 15       		.uleb128 0x15
 1310 069e CF000000 		.4byte	.LASF99
 1311 06a2 06       		.byte	0x6
 1312 06a3 0D01     		.2byte	0x10d
 1313 06a5 10010000 		.4byte	0x110
 1314 06a9 00       		.byte	0
 1315 06aa 0A       		.uleb128 0xa
 1316 06ab 04       		.byte	0x4
 1317 06ac 1A020000 		.4byte	0x21a
 1318 06b0 05       		.uleb128 0x5
 1319 06b1 E8010000 		.4byte	.LASF100
 1320 06b5 0C       		.byte	0xc
 1321 06b6 0A       		.byte	0xa
 1322 06b7 34       		.byte	0x34
 1323 06b8 D5060000 		.4byte	0x6d5
 1324 06bc 06       		.uleb128 0x6
 1325 06bd 54040000 		.4byte	.LASF28
 1326 06c1 0A       		.byte	0xa
 1327 06c2 35       		.byte	0x35
 1328 06c3 4F020000 		.4byte	0x24f
 1329 06c7 00       		.byte	0
 1330 06c8 07       		.uleb128 0x7
 1331 06c9 636E7400 		.ascii	"cnt\000"
 1332 06cd 0A       		.byte	0xa
 1333 06ce 37       		.byte	0x37
 1334 06cf 1B010000 		.4byte	0x11b
ARM GAS  /tmp/ccpHTHLn.s 			page 37


 1335 06d3 08       		.byte	0x8
 1336 06d4 00       		.byte	0
 1337 06d5 0A       		.uleb128 0xa
 1338 06d6 04       		.byte	0x4
 1339 06d7 B0060000 		.4byte	0x6b0
 1340 06db 05       		.uleb128 0x5
 1341 06dc A7020000 		.4byte	.LASF101
 1342 06e0 10       		.byte	0x10
 1343 06e1 0B       		.byte	0xb
 1344 06e2 39       		.byte	0x39
 1345 06e3 0C070000 		.4byte	0x70c
 1346 06e7 06       		.uleb128 0x6
 1347 06e8 54040000 		.4byte	.LASF28
 1348 06ec 0B       		.byte	0xb
 1349 06ed 3A       		.byte	0x3a
 1350 06ee 4F020000 		.4byte	0x24f
 1351 06f2 00       		.byte	0
 1352 06f3 06       		.uleb128 0x6
 1353 06f4 43020000 		.4byte	.LASF102
 1354 06f8 0B       		.byte	0xb
 1355 06f9 3C       		.byte	0x3c
 1356 06fa 25020000 		.4byte	0x225
 1357 06fe 08       		.byte	0x8
 1358 06ff 06       		.uleb128 0x6
 1359 0700 79000000 		.4byte	.LASF47
 1360 0704 0B       		.byte	0xb
 1361 0705 3E       		.byte	0x3e
 1362 0706 40070000 		.4byte	0x740
 1363 070a 0C       		.byte	0xc
 1364 070b 00       		.byte	0
 1365 070c 0A       		.uleb128 0xa
 1366 070d 04       		.byte	0x4
 1367 070e DB060000 		.4byte	0x6db
 1368 0712 0A       		.uleb128 0xa
 1369 0713 04       		.byte	0x4
 1370 0714 18070000 		.4byte	0x718
 1371 0718 16       		.uleb128 0x16
 1372 0719 1D070000 		.4byte	0x71d
 1373 071d 03       		.uleb128 0x3
 1374 071e 01       		.byte	0x1
 1375 071f 08       		.byte	0x8
 1376 0720 C9020000 		.4byte	.LASF103
 1377 0724 0A       		.uleb128 0xa
 1378 0725 04       		.byte	0x4
 1379 0726 AC050000 		.4byte	0x5ac
 1380 072a 0A       		.uleb128 0xa
 1381 072b 04       		.byte	0x4
 1382 072c 04030000 		.4byte	0x304
 1383 0730 0F       		.uleb128 0xf
 1384 0731 12070000 		.4byte	0x712
 1385 0735 04       		.uleb128 0x4
 1386 0736 69040000 		.4byte	.LASF104
 1387 073a 0B       		.byte	0xb
 1388 073b 34       		.byte	0x34
 1389 073c DB060000 		.4byte	0x6db
 1390 0740 0A       		.uleb128 0xa
 1391 0741 04       		.byte	0x4
ARM GAS  /tmp/ccpHTHLn.s 			page 38


 1392 0742 35070000 		.4byte	0x735
 1393 0746 03       		.uleb128 0x3
 1394 0747 01       		.byte	0x1
 1395 0748 02       		.byte	0x2
 1396 0749 94030000 		.4byte	.LASF105
 1397 074d 17       		.uleb128 0x17
 1398 074e A8010000 		.4byte	.LASF110
 1399 0752 01       		.byte	0x1
 1400 0753 36       		.byte	0x36
 1401 0754 01       		.byte	0x1
 1402 0755 18       		.uleb128 0x18
 1403 0756 3A040000 		.4byte	.LASF111
 1404 075a 01       		.byte	0x1
 1405 075b E0       		.byte	0xe0
 1406 075c 00000000 		.4byte	.LFB180
 1407 0760 78000000 		.4byte	.LFE180-.LFB180
 1408 0764 01       		.uleb128 0x1
 1409 0765 9C       		.byte	0x9c
 1410 0766 7A070000 		.4byte	0x77a
 1411 076a 19       		.uleb128 0x19
 1412 076b 4D070000 		.4byte	0x74d
 1413 076f 2A000000 		.4byte	.LBB4
 1414 0773 40000000 		.4byte	.LBE4-.LBB4
 1415 0777 01       		.byte	0x1
 1416 0778 EB       		.byte	0xeb
 1417 0779 00       		.byte	0
 1418 077a 1A       		.uleb128 0x1a
 1419 077b FE040000 		.4byte	.LASF112
 1420 077f 01       		.byte	0x1
 1421 0780 FE       		.byte	0xfe
 1422 0781 00000000 		.4byte	.LFB181
 1423 0785 A8000000 		.4byte	.LFE181-.LFB181
 1424 0789 01       		.uleb128 0x1
 1425 078a 9C       		.byte	0x9c
 1426 078b 1B       		.uleb128 0x1b
 1427 078c 21000000 		.4byte	.LASF106
 1428 0790 01       		.byte	0x1
 1429 0791 27       		.byte	0x27
 1430 0792 C3000000 		.4byte	0xc3
 1431 0796 05       		.uleb128 0x5
 1432 0797 03       		.byte	0x3
 1433 0798 00000000 		.4byte	SystemCoreClock
 1434 079c 1C       		.uleb128 0x1c
 1435 079d 636800   		.ascii	"ch\000"
 1436 07a0 06       		.byte	0x6
 1437 07a1 D201     		.2byte	0x1d2
 1438 07a3 D1030000 		.4byte	0x3d1
 1439 07a7 00       		.byte	0
 1440              		.section	.debug_abbrev,"",%progbits
 1441              	.Ldebug_abbrev0:
 1442 0000 01       		.uleb128 0x1
 1443 0001 11       		.uleb128 0x11
 1444 0002 01       		.byte	0x1
 1445 0003 25       		.uleb128 0x25
 1446 0004 0E       		.uleb128 0xe
 1447 0005 13       		.uleb128 0x13
 1448 0006 0B       		.uleb128 0xb
ARM GAS  /tmp/ccpHTHLn.s 			page 39


 1449 0007 03       		.uleb128 0x3
 1450 0008 0E       		.uleb128 0xe
 1451 0009 1B       		.uleb128 0x1b
 1452 000a 0E       		.uleb128 0xe
 1453 000b 55       		.uleb128 0x55
 1454 000c 17       		.uleb128 0x17
 1455 000d 11       		.uleb128 0x11
 1456 000e 01       		.uleb128 0x1
 1457 000f 10       		.uleb128 0x10
 1458 0010 17       		.uleb128 0x17
 1459 0011 00       		.byte	0
 1460 0012 00       		.byte	0
 1461 0013 02       		.uleb128 0x2
 1462 0014 24       		.uleb128 0x24
 1463 0015 00       		.byte	0
 1464 0016 0B       		.uleb128 0xb
 1465 0017 0B       		.uleb128 0xb
 1466 0018 3E       		.uleb128 0x3e
 1467 0019 0B       		.uleb128 0xb
 1468 001a 03       		.uleb128 0x3
 1469 001b 08       		.uleb128 0x8
 1470 001c 00       		.byte	0
 1471 001d 00       		.byte	0
 1472 001e 03       		.uleb128 0x3
 1473 001f 24       		.uleb128 0x24
 1474 0020 00       		.byte	0
 1475 0021 0B       		.uleb128 0xb
 1476 0022 0B       		.uleb128 0xb
 1477 0023 3E       		.uleb128 0x3e
 1478 0024 0B       		.uleb128 0xb
 1479 0025 03       		.uleb128 0x3
 1480 0026 0E       		.uleb128 0xe
 1481 0027 00       		.byte	0
 1482 0028 00       		.byte	0
 1483 0029 04       		.uleb128 0x4
 1484 002a 16       		.uleb128 0x16
 1485 002b 00       		.byte	0
 1486 002c 03       		.uleb128 0x3
 1487 002d 0E       		.uleb128 0xe
 1488 002e 3A       		.uleb128 0x3a
 1489 002f 0B       		.uleb128 0xb
 1490 0030 3B       		.uleb128 0x3b
 1491 0031 0B       		.uleb128 0xb
 1492 0032 49       		.uleb128 0x49
 1493 0033 13       		.uleb128 0x13
 1494 0034 00       		.byte	0
 1495 0035 00       		.byte	0
 1496 0036 05       		.uleb128 0x5
 1497 0037 13       		.uleb128 0x13
 1498 0038 01       		.byte	0x1
 1499 0039 03       		.uleb128 0x3
 1500 003a 0E       		.uleb128 0xe
 1501 003b 0B       		.uleb128 0xb
 1502 003c 0B       		.uleb128 0xb
 1503 003d 3A       		.uleb128 0x3a
 1504 003e 0B       		.uleb128 0xb
 1505 003f 3B       		.uleb128 0x3b
ARM GAS  /tmp/ccpHTHLn.s 			page 40


 1506 0040 0B       		.uleb128 0xb
 1507 0041 01       		.uleb128 0x1
 1508 0042 13       		.uleb128 0x13
 1509 0043 00       		.byte	0
 1510 0044 00       		.byte	0
 1511 0045 06       		.uleb128 0x6
 1512 0046 0D       		.uleb128 0xd
 1513 0047 00       		.byte	0
 1514 0048 03       		.uleb128 0x3
 1515 0049 0E       		.uleb128 0xe
 1516 004a 3A       		.uleb128 0x3a
 1517 004b 0B       		.uleb128 0xb
 1518 004c 3B       		.uleb128 0x3b
 1519 004d 0B       		.uleb128 0xb
 1520 004e 49       		.uleb128 0x49
 1521 004f 13       		.uleb128 0x13
 1522 0050 38       		.uleb128 0x38
 1523 0051 0B       		.uleb128 0xb
 1524 0052 00       		.byte	0
 1525 0053 00       		.byte	0
 1526 0054 07       		.uleb128 0x7
 1527 0055 0D       		.uleb128 0xd
 1528 0056 00       		.byte	0
 1529 0057 03       		.uleb128 0x3
 1530 0058 08       		.uleb128 0x8
 1531 0059 3A       		.uleb128 0x3a
 1532 005a 0B       		.uleb128 0xb
 1533 005b 3B       		.uleb128 0x3b
 1534 005c 0B       		.uleb128 0xb
 1535 005d 49       		.uleb128 0x49
 1536 005e 13       		.uleb128 0x13
 1537 005f 38       		.uleb128 0x38
 1538 0060 0B       		.uleb128 0xb
 1539 0061 00       		.byte	0
 1540 0062 00       		.byte	0
 1541 0063 08       		.uleb128 0x8
 1542 0064 0D       		.uleb128 0xd
 1543 0065 00       		.byte	0
 1544 0066 03       		.uleb128 0x3
 1545 0067 08       		.uleb128 0x8
 1546 0068 3A       		.uleb128 0x3a
 1547 0069 0B       		.uleb128 0xb
 1548 006a 3B       		.uleb128 0x3b
 1549 006b 05       		.uleb128 0x5
 1550 006c 49       		.uleb128 0x49
 1551 006d 13       		.uleb128 0x13
 1552 006e 38       		.uleb128 0x38
 1553 006f 0B       		.uleb128 0xb
 1554 0070 00       		.byte	0
 1555 0071 00       		.byte	0
 1556 0072 09       		.uleb128 0x9
 1557 0073 0D       		.uleb128 0xd
 1558 0074 00       		.byte	0
 1559 0075 03       		.uleb128 0x3
 1560 0076 0E       		.uleb128 0xe
 1561 0077 3A       		.uleb128 0x3a
 1562 0078 0B       		.uleb128 0xb
ARM GAS  /tmp/ccpHTHLn.s 			page 41


 1563 0079 3B       		.uleb128 0x3b
 1564 007a 05       		.uleb128 0x5
 1565 007b 49       		.uleb128 0x49
 1566 007c 13       		.uleb128 0x13
 1567 007d 38       		.uleb128 0x38
 1568 007e 0B       		.uleb128 0xb
 1569 007f 00       		.byte	0
 1570 0080 00       		.byte	0
 1571 0081 0A       		.uleb128 0xa
 1572 0082 0F       		.uleb128 0xf
 1573 0083 00       		.byte	0
 1574 0084 0B       		.uleb128 0xb
 1575 0085 0B       		.uleb128 0xb
 1576 0086 49       		.uleb128 0x49
 1577 0087 13       		.uleb128 0x13
 1578 0088 00       		.byte	0
 1579 0089 00       		.byte	0
 1580 008a 0B       		.uleb128 0xb
 1581 008b 13       		.uleb128 0x13
 1582 008c 01       		.byte	0x1
 1583 008d 03       		.uleb128 0x3
 1584 008e 0E       		.uleb128 0xe
 1585 008f 0B       		.uleb128 0xb
 1586 0090 0B       		.uleb128 0xb
 1587 0091 3A       		.uleb128 0x3a
 1588 0092 0B       		.uleb128 0xb
 1589 0093 3B       		.uleb128 0x3b
 1590 0094 05       		.uleb128 0x5
 1591 0095 01       		.uleb128 0x1
 1592 0096 13       		.uleb128 0x13
 1593 0097 00       		.byte	0
 1594 0098 00       		.byte	0
 1595 0099 0C       		.uleb128 0xc
 1596 009a 15       		.uleb128 0x15
 1597 009b 01       		.byte	0x1
 1598 009c 27       		.uleb128 0x27
 1599 009d 19       		.uleb128 0x19
 1600 009e 01       		.uleb128 0x1
 1601 009f 13       		.uleb128 0x13
 1602 00a0 00       		.byte	0
 1603 00a1 00       		.byte	0
 1604 00a2 0D       		.uleb128 0xd
 1605 00a3 05       		.uleb128 0x5
 1606 00a4 00       		.byte	0
 1607 00a5 49       		.uleb128 0x49
 1608 00a6 13       		.uleb128 0x13
 1609 00a7 00       		.byte	0
 1610 00a8 00       		.byte	0
 1611 00a9 0E       		.uleb128 0xe
 1612 00aa 0F       		.uleb128 0xf
 1613 00ab 00       		.byte	0
 1614 00ac 0B       		.uleb128 0xb
 1615 00ad 0B       		.uleb128 0xb
 1616 00ae 00       		.byte	0
 1617 00af 00       		.byte	0
 1618 00b0 0F       		.uleb128 0xf
 1619 00b1 35       		.uleb128 0x35
ARM GAS  /tmp/ccpHTHLn.s 			page 42


 1620 00b2 00       		.byte	0
 1621 00b3 49       		.uleb128 0x49
 1622 00b4 13       		.uleb128 0x13
 1623 00b5 00       		.byte	0
 1624 00b6 00       		.byte	0
 1625 00b7 10       		.uleb128 0x10
 1626 00b8 13       		.uleb128 0x13
 1627 00b9 01       		.byte	0x1
 1628 00ba 0B       		.uleb128 0xb
 1629 00bb 0B       		.uleb128 0xb
 1630 00bc 3A       		.uleb128 0x3a
 1631 00bd 0B       		.uleb128 0xb
 1632 00be 3B       		.uleb128 0x3b
 1633 00bf 0B       		.uleb128 0xb
 1634 00c0 01       		.uleb128 0x1
 1635 00c1 13       		.uleb128 0x13
 1636 00c2 00       		.byte	0
 1637 00c3 00       		.byte	0
 1638 00c4 11       		.uleb128 0x11
 1639 00c5 13       		.uleb128 0x13
 1640 00c6 01       		.byte	0x1
 1641 00c7 0B       		.uleb128 0xb
 1642 00c8 0B       		.uleb128 0xb
 1643 00c9 3A       		.uleb128 0x3a
 1644 00ca 0B       		.uleb128 0xb
 1645 00cb 3B       		.uleb128 0x3b
 1646 00cc 05       		.uleb128 0x5
 1647 00cd 01       		.uleb128 0x1
 1648 00ce 13       		.uleb128 0x13
 1649 00cf 00       		.byte	0
 1650 00d0 00       		.byte	0
 1651 00d1 12       		.uleb128 0x12
 1652 00d2 16       		.uleb128 0x16
 1653 00d3 00       		.byte	0
 1654 00d4 03       		.uleb128 0x3
 1655 00d5 0E       		.uleb128 0xe
 1656 00d6 3A       		.uleb128 0x3a
 1657 00d7 0B       		.uleb128 0xb
 1658 00d8 3B       		.uleb128 0x3b
 1659 00d9 05       		.uleb128 0x5
 1660 00da 49       		.uleb128 0x49
 1661 00db 13       		.uleb128 0x13
 1662 00dc 00       		.byte	0
 1663 00dd 00       		.byte	0
 1664 00de 13       		.uleb128 0x13
 1665 00df 17       		.uleb128 0x17
 1666 00e0 01       		.byte	0x1
 1667 00e1 0B       		.uleb128 0xb
 1668 00e2 0B       		.uleb128 0xb
 1669 00e3 3A       		.uleb128 0x3a
 1670 00e4 0B       		.uleb128 0xb
 1671 00e5 3B       		.uleb128 0x3b
 1672 00e6 0B       		.uleb128 0xb
 1673 00e7 01       		.uleb128 0x1
 1674 00e8 13       		.uleb128 0x13
 1675 00e9 00       		.byte	0
 1676 00ea 00       		.byte	0
ARM GAS  /tmp/ccpHTHLn.s 			page 43


 1677 00eb 14       		.uleb128 0x14
 1678 00ec 0D       		.uleb128 0xd
 1679 00ed 00       		.byte	0
 1680 00ee 03       		.uleb128 0x3
 1681 00ef 0E       		.uleb128 0xe
 1682 00f0 3A       		.uleb128 0x3a
 1683 00f1 0B       		.uleb128 0xb
 1684 00f2 3B       		.uleb128 0x3b
 1685 00f3 0B       		.uleb128 0xb
 1686 00f4 49       		.uleb128 0x49
 1687 00f5 13       		.uleb128 0x13
 1688 00f6 00       		.byte	0
 1689 00f7 00       		.byte	0
 1690 00f8 15       		.uleb128 0x15
 1691 00f9 0D       		.uleb128 0xd
 1692 00fa 00       		.byte	0
 1693 00fb 03       		.uleb128 0x3
 1694 00fc 0E       		.uleb128 0xe
 1695 00fd 3A       		.uleb128 0x3a
 1696 00fe 0B       		.uleb128 0xb
 1697 00ff 3B       		.uleb128 0x3b
 1698 0100 05       		.uleb128 0x5
 1699 0101 49       		.uleb128 0x49
 1700 0102 13       		.uleb128 0x13
 1701 0103 00       		.byte	0
 1702 0104 00       		.byte	0
 1703 0105 16       		.uleb128 0x16
 1704 0106 26       		.uleb128 0x26
 1705 0107 00       		.byte	0
 1706 0108 49       		.uleb128 0x49
 1707 0109 13       		.uleb128 0x13
 1708 010a 00       		.byte	0
 1709 010b 00       		.byte	0
 1710 010c 17       		.uleb128 0x17
 1711 010d 2E       		.uleb128 0x2e
 1712 010e 00       		.byte	0
 1713 010f 03       		.uleb128 0x3
 1714 0110 0E       		.uleb128 0xe
 1715 0111 3A       		.uleb128 0x3a
 1716 0112 0B       		.uleb128 0xb
 1717 0113 3B       		.uleb128 0x3b
 1718 0114 0B       		.uleb128 0xb
 1719 0115 27       		.uleb128 0x27
 1720 0116 19       		.uleb128 0x19
 1721 0117 20       		.uleb128 0x20
 1722 0118 0B       		.uleb128 0xb
 1723 0119 00       		.byte	0
 1724 011a 00       		.byte	0
 1725 011b 18       		.uleb128 0x18
 1726 011c 2E       		.uleb128 0x2e
 1727 011d 01       		.byte	0x1
 1728 011e 3F       		.uleb128 0x3f
 1729 011f 19       		.uleb128 0x19
 1730 0120 03       		.uleb128 0x3
 1731 0121 0E       		.uleb128 0xe
 1732 0122 3A       		.uleb128 0x3a
 1733 0123 0B       		.uleb128 0xb
ARM GAS  /tmp/ccpHTHLn.s 			page 44


 1734 0124 3B       		.uleb128 0x3b
 1735 0125 0B       		.uleb128 0xb
 1736 0126 27       		.uleb128 0x27
 1737 0127 19       		.uleb128 0x19
 1738 0128 11       		.uleb128 0x11
 1739 0129 01       		.uleb128 0x1
 1740 012a 12       		.uleb128 0x12
 1741 012b 06       		.uleb128 0x6
 1742 012c 40       		.uleb128 0x40
 1743 012d 18       		.uleb128 0x18
 1744 012e 9742     		.uleb128 0x2117
 1745 0130 19       		.uleb128 0x19
 1746 0131 01       		.uleb128 0x1
 1747 0132 13       		.uleb128 0x13
 1748 0133 00       		.byte	0
 1749 0134 00       		.byte	0
 1750 0135 19       		.uleb128 0x19
 1751 0136 1D       		.uleb128 0x1d
 1752 0137 00       		.byte	0
 1753 0138 31       		.uleb128 0x31
 1754 0139 13       		.uleb128 0x13
 1755 013a 11       		.uleb128 0x11
 1756 013b 01       		.uleb128 0x1
 1757 013c 12       		.uleb128 0x12
 1758 013d 06       		.uleb128 0x6
 1759 013e 58       		.uleb128 0x58
 1760 013f 0B       		.uleb128 0xb
 1761 0140 59       		.uleb128 0x59
 1762 0141 0B       		.uleb128 0xb
 1763 0142 00       		.byte	0
 1764 0143 00       		.byte	0
 1765 0144 1A       		.uleb128 0x1a
 1766 0145 2E       		.uleb128 0x2e
 1767 0146 00       		.byte	0
 1768 0147 3F       		.uleb128 0x3f
 1769 0148 19       		.uleb128 0x19
 1770 0149 03       		.uleb128 0x3
 1771 014a 0E       		.uleb128 0xe
 1772 014b 3A       		.uleb128 0x3a
 1773 014c 0B       		.uleb128 0xb
 1774 014d 3B       		.uleb128 0x3b
 1775 014e 0B       		.uleb128 0xb
 1776 014f 27       		.uleb128 0x27
 1777 0150 19       		.uleb128 0x19
 1778 0151 11       		.uleb128 0x11
 1779 0152 01       		.uleb128 0x1
 1780 0153 12       		.uleb128 0x12
 1781 0154 06       		.uleb128 0x6
 1782 0155 40       		.uleb128 0x40
 1783 0156 18       		.uleb128 0x18
 1784 0157 9742     		.uleb128 0x2117
 1785 0159 19       		.uleb128 0x19
 1786 015a 00       		.byte	0
 1787 015b 00       		.byte	0
 1788 015c 1B       		.uleb128 0x1b
 1789 015d 34       		.uleb128 0x34
 1790 015e 00       		.byte	0
ARM GAS  /tmp/ccpHTHLn.s 			page 45


 1791 015f 03       		.uleb128 0x3
 1792 0160 0E       		.uleb128 0xe
 1793 0161 3A       		.uleb128 0x3a
 1794 0162 0B       		.uleb128 0xb
 1795 0163 3B       		.uleb128 0x3b
 1796 0164 0B       		.uleb128 0xb
 1797 0165 49       		.uleb128 0x49
 1798 0166 13       		.uleb128 0x13
 1799 0167 3F       		.uleb128 0x3f
 1800 0168 19       		.uleb128 0x19
 1801 0169 02       		.uleb128 0x2
 1802 016a 18       		.uleb128 0x18
 1803 016b 00       		.byte	0
 1804 016c 00       		.byte	0
 1805 016d 1C       		.uleb128 0x1c
 1806 016e 34       		.uleb128 0x34
 1807 016f 00       		.byte	0
 1808 0170 03       		.uleb128 0x3
 1809 0171 08       		.uleb128 0x8
 1810 0172 3A       		.uleb128 0x3a
 1811 0173 0B       		.uleb128 0xb
 1812 0174 3B       		.uleb128 0x3b
 1813 0175 05       		.uleb128 0x5
 1814 0176 49       		.uleb128 0x49
 1815 0177 13       		.uleb128 0x13
 1816 0178 3F       		.uleb128 0x3f
 1817 0179 19       		.uleb128 0x19
 1818 017a 3C       		.uleb128 0x3c
 1819 017b 19       		.uleb128 0x19
 1820 017c 00       		.byte	0
 1821 017d 00       		.byte	0
 1822 017e 00       		.byte	0
 1823              		.section	.debug_aranges,"",%progbits
 1824 0000 24000000 		.4byte	0x24
 1825 0004 0200     		.2byte	0x2
 1826 0006 00000000 		.4byte	.Ldebug_info0
 1827 000a 04       		.byte	0x4
 1828 000b 00       		.byte	0
 1829 000c 0000     		.2byte	0
 1830 000e 0000     		.2byte	0
 1831 0010 00000000 		.4byte	.LFB180
 1832 0014 78000000 		.4byte	.LFE180-.LFB180
 1833 0018 00000000 		.4byte	.LFB181
 1834 001c A8000000 		.4byte	.LFE181-.LFB181
 1835 0020 00000000 		.4byte	0
 1836 0024 00000000 		.4byte	0
 1837              		.section	.debug_ranges,"",%progbits
 1838              	.Ldebug_ranges0:
 1839 0000 00000000 		.4byte	.LFB180
 1840 0004 78000000 		.4byte	.LFE180
 1841 0008 00000000 		.4byte	.LFB181
 1842 000c A8000000 		.4byte	.LFE181
 1843 0010 00000000 		.4byte	0
 1844 0014 00000000 		.4byte	0
 1845              		.section	.debug_line,"",%progbits
 1846              	.Ldebug_line0:
 1847 0000 13020000 		.section	.debug_str,"MS",%progbits,1
ARM GAS  /tmp/ccpHTHLn.s 			page 46


 1847      02009101 
 1847      00000201 
 1847      FB0E0D00 
 1847      01010101 
 1848              	.LASF46:
 1849 0000 63685F74 		.ascii	"ch_threads_list\000"
 1849      68726561 
 1849      64735F6C 
 1849      69737400 
 1850              	.LASF73:
 1851 0010 52455345 		.ascii	"RESERVED\000"
 1851      52564544 
 1851      00
 1852              	.LASF82:
 1853 0019 41504231 		.ascii	"APB1ENR\000"
 1853      454E5200 
 1854              	.LASF106:
 1855 0021 53797374 		.ascii	"SystemCoreClock\000"
 1855      656D436F 
 1855      7265436C 
 1855      6F636B00 
 1856              	.LASF98:
 1857 0031 77746D74 		.ascii	"wtmtxp\000"
 1857      787000
 1858              	.LASF88:
 1859 0038 72656761 		.ascii	"regarm_t\000"
 1859      726D5F74 
 1859      00
 1860              	.LASF78:
 1861 0041 41504232 		.ascii	"APB2RSTR\000"
 1861      52535452 
 1861      00
 1862              	.LASF35:
 1863 004a 666C6167 		.ascii	"flags\000"
 1863      7300
 1864              	.LASF26:
 1865 0050 73797374 		.ascii	"systime_t\000"
 1865      696D655F 
 1865      7400
 1866              	.LASF41:
 1867 005a 7265616C 		.ascii	"realprio\000"
 1867      7072696F 
 1867      00
 1868              	.LASF39:
 1869 0063 6570656E 		.ascii	"epending\000"
 1869      64696E67 
 1869      00
 1870              	.LASF0:
 1871 006c 756E7369 		.ascii	"unsigned int\000"
 1871      676E6564 
 1871      20696E74 
 1871      00
 1872              	.LASF47:
 1873 0079 6E657874 		.ascii	"next\000"
 1873      00
 1874              	.LASF44:
 1875 007e 74687265 		.ascii	"threads_list_t\000"
ARM GAS  /tmp/ccpHTHLn.s 			page 47


 1875      6164735F 
 1875      6C697374 
 1875      5F7400
 1876              	.LASF83:
 1877 008d 42444352 		.ascii	"BDCR\000"
 1877      00
 1878              	.LASF7:
 1879 0092 5F5F696E 		.ascii	"__int32_t\000"
 1879      7433325F 
 1879      7400
 1880              	.LASF36:
 1881 009c 72656673 		.ascii	"refs\000"
 1881      00
 1882              	.LASF94:
 1883 00a1 77746F62 		.ascii	"wtobjp\000"
 1883      6A7000
 1884              	.LASF68:
 1885 00a8 76746C69 		.ascii	"vtlist\000"
 1885      737400
 1886              	.LASF90:
 1887 00af 706F7274 		.ascii	"port_context\000"
 1887      5F636F6E 
 1887      74657874 
 1887      00
 1888              	.LASF52:
 1889 00bc 63685F72 		.ascii	"ch_ready_list\000"
 1889      65616479 
 1889      5F6C6973 
 1889      7400
 1890              	.LASF58:
 1891 00ca 66756E63 		.ascii	"func\000"
 1891      00
 1892              	.LASF99:
 1893 00cf 65776D61 		.ascii	"ewmask\000"
 1893      736B00
 1894              	.LASF50:
 1895 00d6 70726576 		.ascii	"prev\000"
 1895      00
 1896              	.LASF49:
 1897 00db 63685F74 		.ascii	"ch_threads_queue\000"
 1897      68726561 
 1897      64735F71 
 1897      75657565 
 1897      00
 1898              	.LASF54:
 1899 00ec 76746675 		.ascii	"vtfunc_t\000"
 1899      6E635F74 
 1899      00
 1900              	.LASF63:
 1901 00f5 63685F73 		.ascii	"ch_system_debug\000"
 1901      79737465 
 1901      6D5F6465 
 1901      62756700 
 1902              	.LASF107:
 1903 0105 474E5520 		.ascii	"GNU C 4.8.3 -mcpu=cortex-m0 -mno-thumb-interwork -m"
 1903      4320342E 
 1903      382E3320 
ARM GAS  /tmp/ccpHTHLn.s 			page 48


 1903      2D6D6370 
 1903      753D636F 
 1904 0138 7468756D 		.ascii	"thumb -ggdb -O2 -fomit-frame-pointer -falign-functi"
 1904      62202D67 
 1904      67646220 
 1904      2D4F3220 
 1904      2D666F6D 
 1905 016b 6F6E733D 		.ascii	"ons=16 -ffunction-sections -fdata-sections -fno-com"
 1905      3136202D 
 1905      6666756E 
 1905      6374696F 
 1905      6E2D7365 
 1906 019e 6D6F6E20 		.ascii	"mon -flto\000"
 1906      2D666C74 
 1906      6F00
 1907              	.LASF110:
 1908 01a8 68616C5F 		.ascii	"hal_lld_backup_domain_init\000"
 1908      6C6C645F 
 1908      6261636B 
 1908      75705F64 
 1908      6F6D6169 
 1909              	.LASF17:
 1910 01c3 75696E74 		.ascii	"uint32_t\000"
 1910      33325F74 
 1910      00
 1911              	.LASF96:
 1912 01cc 73656E74 		.ascii	"sentmsg\000"
 1912      6D736700 
 1913              	.LASF24:
 1914 01d4 6576656E 		.ascii	"eventmask_t\000"
 1914      746D6173 
 1914      6B5F7400 
 1915              	.LASF84:
 1916 01e0 41484252 		.ascii	"AHBRSTR\000"
 1916      53545200 
 1917              	.LASF100:
 1918 01e8 63685F73 		.ascii	"ch_semaphore\000"
 1918      656D6170 
 1918      686F7265 
 1918      00
 1919              	.LASF22:
 1920 01f5 74707269 		.ascii	"tprio_t\000"
 1920      6F5F7400 
 1921              	.LASF56:
 1922 01fd 63685F76 		.ascii	"ch_virtual_timer\000"
 1922      69727475 
 1922      616C5F74 
 1922      696D6572 
 1922      00
 1923              	.LASF13:
 1924 020e 6C6F6E67 		.ascii	"long long unsigned int\000"
 1924      206C6F6E 
 1924      6720756E 
 1924      7369676E 
 1924      65642069 
 1925              	.LASF72:
 1926 0225 4F50544B 		.ascii	"OPTKEYR\000"
ARM GAS  /tmp/ccpHTHLn.s 			page 49


 1926      45595200 
 1927              	.LASF5:
 1928 022d 5F5F7569 		.ascii	"__uint16_t\000"
 1928      6E743136 
 1928      5F7400
 1929              	.LASF25:
 1930 0238 636E745F 		.ascii	"cnt_t\000"
 1930      7400
 1931              	.LASF71:
 1932 023e 4B455952 		.ascii	"KEYR\000"
 1932      00
 1933              	.LASF102:
 1934 0243 6F776E65 		.ascii	"owner\000"
 1934      7200
 1935              	.LASF48:
 1936 0249 74687265 		.ascii	"threads_queue_t\000"
 1936      6164735F 
 1936      71756575 
 1936      655F7400 
 1937              	.LASF40:
 1938 0259 6D74786C 		.ascii	"mtxlist\000"
 1938      69737400 
 1939              	.LASF60:
 1940 0261 63685F76 		.ascii	"ch_virtual_timers_list\000"
 1940      69727475 
 1940      616C5F74 
 1940      696D6572 
 1940      735F6C69 
 1941              	.LASF27:
 1942 0278 74687265 		.ascii	"thread_t\000"
 1942      61645F74 
 1942      00
 1943              	.LASF74:
 1944 0281 57525052 		.ascii	"WRPR\000"
 1944      00
 1945              	.LASF92:
 1946 0286 7264796D 		.ascii	"rdymsg\000"
 1946      736700
 1947              	.LASF75:
 1948 028d 464C4153 		.ascii	"FLASH_TypeDef\000"
 1948      485F5479 
 1948      70654465 
 1948      6600
 1949              	.LASF87:
 1950 029b 5243435F 		.ascii	"RCC_TypeDef\000"
 1950      54797065 
 1950      44656600 
 1951              	.LASF101:
 1952 02a7 63685F6D 		.ascii	"ch_mutex\000"
 1952      75746578 
 1952      00
 1953              	.LASF12:
 1954 02b0 5F5F7569 		.ascii	"__uint64_t\000"
 1954      6E743634 
 1954      5F7400
 1955              	.LASF79:
 1956 02bb 41504231 		.ascii	"APB1RSTR\000"
ARM GAS  /tmp/ccpHTHLn.s 			page 50


 1956      52535452 
 1956      00
 1957              	.LASF29:
 1958 02c4 7072696F 		.ascii	"prio\000"
 1958      00
 1959              	.LASF103:
 1960 02c9 63686172 		.ascii	"char\000"
 1960      00
 1961              	.LASF43:
 1962 02ce 74687265 		.ascii	"thread_reference_t\000"
 1962      61645F72 
 1962      65666572 
 1962      656E6365 
 1962      5F7400
 1963              	.LASF33:
 1964 02e1 77616261 		.ascii	"wabase\000"
 1964      736500
 1965              	.LASF20:
 1966 02e8 74737461 		.ascii	"tstate_t\000"
 1966      74655F74 
 1966      00
 1967              	.LASF80:
 1968 02f1 41484245 		.ascii	"AHBENR\000"
 1968      4E5200
 1969              	.LASF14:
 1970 02f8 75696E74 		.ascii	"uint8_t\000"
 1970      385F7400 
 1971              	.LASF38:
 1972 0300 6D736771 		.ascii	"msgqueue\000"
 1972      75657565 
 1972      00
 1973              	.LASF108:
 1974 0309 2E2E2F2E 		.ascii	"../../../os/hal/ports/STM32/STM32F0xx/hal_lld.c\000"
 1974      2E2F2E2E 
 1974      2F6F732F 
 1974      68616C2F 
 1974      706F7274 
 1975              	.LASF45:
 1976 0339 63685F74 		.ascii	"ch_thread\000"
 1976      68726561 
 1976      6400
 1977              	.LASF62:
 1978 0343 73797374 		.ascii	"system_debug_t\000"
 1978      656D5F64 
 1978      65627567 
 1978      5F7400
 1979              	.LASF11:
 1980 0352 6C6F6E67 		.ascii	"long long int\000"
 1980      206C6F6E 
 1980      6720696E 
 1980      7400
 1981              	.LASF23:
 1982 0360 6D73675F 		.ascii	"msg_t\000"
 1982      7400
 1983              	.LASF55:
 1984 0366 76697274 		.ascii	"virtual_timer_t\000"
 1984      75616C5F 
ARM GAS  /tmp/ccpHTHLn.s 			page 51


 1984      74696D65 
 1984      725F7400 
 1985              	.LASF85:
 1986 0376 43464752 		.ascii	"CFGR2\000"
 1986      3200
 1987              	.LASF86:
 1988 037c 43464752 		.ascii	"CFGR3\000"
 1988      3300
 1989              	.LASF81:
 1990 0382 41504232 		.ascii	"APB2ENR\000"
 1990      454E5200 
 1991              	.LASF64:
 1992 038a 70616E69 		.ascii	"panic_msg\000"
 1992      635F6D73 
 1992      6700
 1993              	.LASF105:
 1994 0394 5F426F6F 		.ascii	"_Bool\000"
 1994      6C00
 1995              	.LASF19:
 1996 039a 746D6F64 		.ascii	"tmode_t\000"
 1996      655F7400 
 1997              	.LASF69:
 1998 03a2 6D61696E 		.ascii	"mainthread\000"
 1998      74687265 
 1998      616400
 1999              	.LASF15:
 2000 03ad 75696E74 		.ascii	"uint16_t\000"
 2000      31365F74 
 2000      00
 2001              	.LASF3:
 2002 03b6 73686F72 		.ascii	"short int\000"
 2002      7420696E 
 2002      7400
 2003              	.LASF76:
 2004 03c0 5057525F 		.ascii	"PWR_TypeDef\000"
 2004      54797065 
 2004      44656600 
 2005              	.LASF8:
 2006 03cc 6C6F6E67 		.ascii	"long int\000"
 2006      20696E74 
 2006      00
 2007              	.LASF91:
 2008 03d5 706F7274 		.ascii	"port_intctx\000"
 2008      5F696E74 
 2008      63747800 
 2009              	.LASF66:
 2010 03e1 63685F73 		.ascii	"ch_system\000"
 2010      79737465 
 2010      6D00
 2011              	.LASF61:
 2012 03eb 6C617374 		.ascii	"lasttime\000"
 2012      74696D65 
 2012      00
 2013              	.LASF18:
 2014 03f4 75696E74 		.ascii	"uint64_t\000"
 2014      36345F74 
 2014      00
ARM GAS  /tmp/ccpHTHLn.s 			page 52


 2015              	.LASF77:
 2016 03fd 43464752 		.ascii	"CFGR\000"
 2016      00
 2017              	.LASF67:
 2018 0402 726C6973 		.ascii	"rlist\000"
 2018      7400
 2019              	.LASF4:
 2020 0408 5F5F7569 		.ascii	"__uint8_t\000"
 2020      6E74385F 
 2020      7400
 2021              	.LASF32:
 2022 0412 6E616D65 		.ascii	"name\000"
 2022      00
 2023              	.LASF70:
 2024 0417 73697A65 		.ascii	"sizetype\000"
 2024      74797065 
 2024      00
 2025              	.LASF21:
 2026 0420 74726566 		.ascii	"trefs_t\000"
 2026      735F7400 
 2027              	.LASF10:
 2028 0428 6C6F6E67 		.ascii	"long unsigned int\000"
 2028      20756E73 
 2028      69676E65 
 2028      6420696E 
 2028      7400
 2029              	.LASF111:
 2030 043a 68616C5F 		.ascii	"hal_lld_init\000"
 2030      6C6C645F 
 2030      696E6974 
 2030      00
 2031              	.LASF51:
 2032 0447 72656164 		.ascii	"ready_list_t\000"
 2032      795F6C69 
 2032      73745F74 
 2032      00
 2033              	.LASF28:
 2034 0454 71756575 		.ascii	"queue\000"
 2034      6500
 2035              	.LASF16:
 2036 045a 696E7433 		.ascii	"int32_t\000"
 2036      325F7400 
 2037              	.LASF97:
 2038 0462 77747365 		.ascii	"wtsemp\000"
 2038      6D7000
 2039              	.LASF104:
 2040 0469 6D757465 		.ascii	"mutex_t\000"
 2040      785F7400 
 2041              	.LASF30:
 2042 0471 6E657765 		.ascii	"newer\000"
 2042      7200
 2043              	.LASF2:
 2044 0477 756E7369 		.ascii	"unsigned char\000"
 2044      676E6564 
 2044      20636861 
 2044      7200
 2045              	.LASF9:
ARM GAS  /tmp/ccpHTHLn.s 			page 53


 2046 0485 5F5F7569 		.ascii	"__uint32_t\000"
 2046      6E743332 
 2046      5F7400
 2047              	.LASF37:
 2048 0490 77616974 		.ascii	"waiting\000"
 2048      696E6700 
 2049              	.LASF59:
 2050 0498 76697274 		.ascii	"virtual_timers_list_t\000"
 2050      75616C5F 
 2050      74696D65 
 2050      72735F6C 
 2050      6973745F 
 2051              	.LASF34:
 2052 04ae 73746174 		.ascii	"state\000"
 2052      6500
 2053              	.LASF65:
 2054 04b4 63685F73 		.ascii	"ch_system_t\000"
 2054      79737465 
 2054      6D5F7400 
 2055              	.LASF95:
 2056 04c0 77747472 		.ascii	"wttrp\000"
 2056      7000
 2057              	.LASF1:
 2058 04c6 7369676E 		.ascii	"signed char\000"
 2058      65642063 
 2058      68617200 
 2059              	.LASF57:
 2060 04d2 64656C74 		.ascii	"delta\000"
 2060      6100
 2061              	.LASF6:
 2062 04d8 73686F72 		.ascii	"short unsigned int\000"
 2062      7420756E 
 2062      7369676E 
 2062      65642069 
 2062      6E7400
 2063              	.LASF89:
 2064 04eb 73746B61 		.ascii	"stkalign_t\000"
 2064      6C69676E 
 2064      5F7400
 2065              	.LASF53:
 2066 04f6 63757272 		.ascii	"current\000"
 2066      656E7400 
 2067              	.LASF112:
 2068 04fe 73746D33 		.ascii	"stm32_clock_init\000"
 2068      325F636C 
 2068      6F636B5F 
 2068      696E6974 
 2068      00
 2069              	.LASF31:
 2070 050f 6F6C6465 		.ascii	"older\000"
 2070      7200
 2071              	.LASF109:
 2072 0515 2F686F6D 		.ascii	"/home/awygle/ChibiOS-RT/demos/STM32/RT-STM32F030R8-"
 2072      652F6177 
 2072      79676C65 
 2072      2F436869 
 2072      62694F53 
ARM GAS  /tmp/ccpHTHLn.s 			page 54


 2073 0548 4E55434C 		.ascii	"NUCLEO64\000"
 2073      454F3634 
 2073      00
 2074              	.LASF93:
 2075 0551 65786974 		.ascii	"exitcode\000"
 2075      636F6465 
 2075      00
 2076              	.LASF42:
 2077 055a 6D706F6F 		.ascii	"mpool\000"
 2077      6C00
 2078              		.comm	__gnu_lto_v1,1,1
 2079              		.ident	"GCC: (4.8.3-18ubuntu2+12) 4.8.3"
ARM GAS  /tmp/ccpHTHLn.s 			page 55


DEFINED SYMBOLS
                            *ABS*:0000000000000000 hal_lld.c
     /tmp/ccpHTHLn.s:235    .text.hal_lld_init:0000000000000000 $t
     /tmp/ccpHTHLn.s:241    .text.hal_lld_init:0000000000000000 hal_lld_init
     /tmp/ccpHTHLn.s:327    .text.hal_lld_init:000000000000006c $d
     /tmp/ccpHTHLn.s:334    .text.stm32_clock_init:0000000000000000 $t
     /tmp/ccpHTHLn.s:340    .text.stm32_clock_init:0000000000000000 stm32_clock_init
     /tmp/ccpHTHLn.s:466    .text.stm32_clock_init:00000000000000a0 $d
     /tmp/ccpHTHLn.s:476    .data.SystemCoreClock:0000000000000000 SystemCoreClock
     /tmp/ccpHTHLn.s:473    .data.SystemCoreClock:0000000000000000 $d
                            *COM*:0000000000000001 __gnu_lto_v1
                     .debug_frame:0000000000000010 $d
     /tmp/ccpHTHLn.s:333    .text.hal_lld_init:0000000000000078 $t
     /tmp/ccpHTHLn.s:472    .text.stm32_clock_init:00000000000000a8 $t

NO UNDEFINED SYMBOLS
