ARM GAS  /tmp/ccxQrKxw.s 			page 1


   1              		.cpu cortex-m0
   2              		.fpu softvfp
   3              		.eabi_attribute 20, 1
   4              		.eabi_attribute 21, 1
   5              		.eabi_attribute 23, 3
   6              		.eabi_attribute 24, 1
   7              		.eabi_attribute 25, 1
   8              		.eabi_attribute 26, 1
   9              		.eabi_attribute 30, 2
  10              		.eabi_attribute 34, 0
  11              		.eabi_attribute 18, 4
  12              		.code	16
  13              		.file	"hal_pal_lld.c"
  14              		.text
  15              	.Ltext0:
  16              		.section	.gnu.lto_.jmpfuncs.5497293772b92f41,"",%progbits
  17 0000 789C6362 		.ascii	"x\234cb`b\300\006\330\2404\023\003##;\003\000\001/\000"
  17      6062C006 
  17      D8A03413 
  17      0323233B 
  17      0300012F 
  18 0015 16       		.ascii	"\026"
  19              		.text
  20              		.section	.gnu.lto_.inline.5497293772b92f41,"",%progbits
  21 0000 789C6362 		.ascii	"x\234cb`b\300\006vBi\240\354\031\206\323\014\214\354"
  21      6062C006 
  21      764269A0 
  21      EC1986D3 
  21      0C8CEC
  22 0013 0C8C0C0C 		.ascii	"\014\214\014\014\314\012`\322\001L&\200\311\006F0\265"
  22      CC0A60D2 
  22      014C2680 
  22      C9064630 
  22      B5
  23 0024 00421D80 		.ascii	"\000B\035\200P\014\002\031\007\326\2601(5\374bdb`|\301"
  23      500C0219 
  23      07D6B031 
  23      2835FC62 
  23      6462607C 
  24 0039 CE022141 		.ascii	"\316\002!A\004\007\230\311\001\"\004\300L\001\020\241"
  24      040798C9 
  24      012204C0 
  24      4C0110A1 
  25 0049 00662A80 		.ascii	"\000f*\200\010\0070\323\001D4@t\203\254\000\222L\020"
  25      080730D3 
  25      01443440 
  25      7483AC00 
  25      924C10
  26 005c 0ED8B98C 		.ascii	"\016\330\271\214\014\347\030\3662122\001mc`.\272\360"
  26      0CE718F6 
  26      32313232 
  26      016D6360 
  26      2EBAF0
  27 006f 47914162 		.ascii	"G\221Ab\316Ef&\006\241\013=\214,`\207\003\000|c\037"
  27      CE456626 
  27      06A10B3D 
  27      8C2C6087 
ARM GAS  /tmp/ccxQrKxw.s 			page 2


  27      03007C63 
  28 0084 C5       		.ascii	"\305"
  29              		.text
  30              		.section	.gnu.lto_.pureconst.5497293772b92f41,"",%progbits
  31 0000 789C6362 		.ascii	"x\234cb`b`e\200\000&\006)F)\000\001\006\000A"
  31      60626065 
  31      80002606 
  31      29462900 
  31      01060041 
  32              		.text
  33              		.section	.gnu.lto__pal_lld_init.5497293772b92f41,"",%progbits
  34 0000 789CB599 		.ascii	"x\234\265\231Kl\033U\024\206\357\275\343\361\333\036"
  34      4B6C1B55 
  34      1486EFBD 
  34      E3F1DB1E 
  35 0010 E7FD725E 		.ascii	"\347\375r^\316\373iQT)+V\225P\245\"@\030\011V\310\004"
  35      CEFB6951 
  35      54292B56 
  35      9550A522 
  35      40180956 
  36 0026 31584A88 		.ascii	"1XJ\210E\201\015\213^\227\012e\201\204U\361\210`\001"
  36      45810D8B 
  36      5E970A65 
  36      818455F1 
  36      886001
  37 0039 159B1020 		.ascii	"\025\233\020 ]\322\224\215\325\005RU%$;\324UD\027\200"
  37      5DD2948D 
  37      D5055255 
  37      25243BD4 
  37      55441780 
  38 004d 2A552DE9 		.ascii	"*U-\351\242ec\346\314q2\307\225\355\353*7\243\370\237"
  38      A26563E6 
  38      CC7132C7 
  38      95EDEB2A 
  38      37A3F89F 
  39 0061 198FE7F8 		.ascii	"\031\217\347\370\233{\216\277M\004\023\354\311\255\307"
  39      9B7B8EBF 
  39      4D0413EC 
  39      C9ADC7
  40 0070 799D76E2 		.ascii	"y\235v\342\214\263\347\006\343\242\270\303X!(8\207\003"
  40      8CB3E706 
  40      E3A2B8C3 
  40      58212838 
  40      8703
  41 0082 C6D905C1 		.ascii	"\306\331\005\301/\274\316\335\317^\025\245\375ry\363"
  41      2FBCCEDD 
  41      CF5E15A5 
  41      FD7279F3 
  42 0092 FE6F9B9F 		.ascii	"\376o\233\237\362\015\361\262`9\316\014\010\223/s\026"
  42      F20DF1B2 
  42      6039CE0C 
  42      08932F73 
  42      16
  43 00a3 81A32844 		.ascii	"\201\243(D\014\"\016aA$ Z Z!\332 \332!: :!\272 \272"
  43      0C220E61 
  43      4124205A 
  43      205A21DA 
ARM GAS  /tmp/ccxQrKxw.s 			page 3


  43      20DA213A 
  44 00bd 217A207A 		.ascii	"!z z!\372 \222\020\375\020\003\020\203\020C\020\303"
  44      21FA2092 
  44      10FD1003 
  44      10831043 
  44      10C3
  45 00cf 10298811 		.ascii	"\020)\210\021\210Q\2101\210q\210\011\210I\210)\210i"
  45      88518831 
  45      88718809 
  45      88498829 
  45      8869
  46 00e1 88198859 		.ascii	"\210\031\210Y\2109\010g3\331%)\213C\214-\272\247\031"
  46      88390867 
  46      33D92529 
  46      8B438C2D 
  46      BAA719
  47 00f4 27E1A15F 		.ascii	"'\341\241_\345\002\366\3066\273q{\355\240;\313\257p"
  47      E502F6C6 
  47      36BB717B 
  47      EDA03BCB 
  47      AF70
  48 0106 93D95CCC 		.ascii	"\223\331\\\314\260\015y\251\220\310q\376\015\373\232"
  48      B00D79A9 
  48      90C871FE 
  48      0DFB9A
  49 0115 E7B878CD 		.ascii	"\347\270x\315\011C~\267*}\314=t\027\351M~\270\264\333"
  49      09437EB7 
  49      2A7DCC3D 
  49      7417E94D 
  49      7EB8B4DB 
  50 0129 ECE32DE3 		.ascii	"\354\343-\343\360n\303\306\3173)\037\011\367\342\215"
  50      F06EC3C6 
  50      CF33291F 
  50      09F7E28D 
  51 0139 B378EDE9 		.ascii	"\263x\355\351\312\332p~\223]\334\377\373\216\037\357"
  51      CADA707E 
  51      935DDCFF 
  51      FB8E1FEF 
  52 0149 5FE6FC23 		.ascii	"_\346\374#\366\237t\012\370\240TQ\312\017r\334\304Z"
  52      F69F740A 
  52      F8A05451 
  52      CA0F72DC 
  52      C45A
  53 015b 7E9B9B50 		.ascii	"~\233\233P#P\251\201E\360>\346\326)\365\341Y\212]\221"
  53      2350A981 
  53      45F03EE6 
  53      D629F5E1 
  53      598A5D91 
  54 016f F272E9C1 		.ascii	"\362r\351\301'\267\270\274,\013\367\313e+\307\203\202"
  54      27B7B8BC 
  54      2C0BF7CB 
  54      652BC783 
  54      82
  55 0180 2D70581D 		.ascii	"-pX\035\250\021\032rwa_\365\000\301{A)e\311\307\236"
  55      A8111A72 
  55      77615FF5 
  55      00C17B41 
ARM GAS  /tmp/ccxQrKxw.s 			page 4


  55      2965C9C7 
  56 0195 00AB59D2 		.ascii	"\000\253Y\322'\330s\252\222\313\300\271\315.\336~\364"
  56      27D873AA 
  56      92CBC0B9 
  56      CD2EDE7E 
  56      F4
  57 01a6 6DFF518F 		.ascii	"m\377Q\217\360@~\377\231\003\374#O9\017\361\203\223"
  57      F0407EFF 
  57      9903FC23 
  57      4F390FF1 
  57      8393
  58 01b8 870FB388 		.ascii	"\207\017\263\210\217f\363\010\256A\251\374\217S8\342"
  58      8F66F308 
  58      AE41A9FC 
  58      8F5338E2 
  59 01c8 AC4241C2 		.ascii	"\254BA\302\322D+\013\341\253,\204\200\0337q\025\234"
  59      D2442B0B 
  59      E1AB2C84 
  59      801B3771 
  59      159C
  60 01da 56DCDC0D 		.ascii	"V\334\334\015g\371\317G\315\220\317`7\012E\2707F\036"
  60      67F9CF47 
  60      CD90CF60 
  60      370A45B8 
  60      37461E
  61 01ed D13DACD4 		.ascii	"\321=\254\3240\216j8_\213\300k\177\356\032X\310\346"
  61      308E6A38 
  61      5F8BC06B 
  61      7FEE1A58 
  61      C8E6
  62 01ff 51A89568 		.ascii	"Q\250\225h\004\341\323\000a\022\210(B\\#\0201%\204_"
  62      04E1D300 
  62      61128828 
  62      425C2310 
  62      3125845F 
  63 0213 03448040 		.ascii	"\003D\200@\304\020\342\017\002\021WB\0045@\204\010D"
  63      C410E20F 
  63      02115742 
  63      04354084 
  63      0844
  64 0225 BC323F04 		.ascii	"\2742?\004\302RB\2045@D\010\204U\231\211;\036DB\011"
  64      C2524284 
  64      35404408 
  64      84559989 
  64      3B1E4442 
  65 023a 11D50011 		.ascii	"\021\325\000\021#\020\211\312L\020\210\026%D\\\003\204"
  65      231089CA 
  65      4C108816 
  65      25445C03 
  65      84
  66 024b 45205AD0 		.ascii	"E Z\320\014w=e\211\246\225\225xJee\371\206\363\353n"
  66      0C773D65 
  66      89A69595 
  66      784A6565 
  66      F986F3EB 
  67 0260 C659AB9E 		.ascii	"\306Y\253\236\263\3566vV\226\377\244\254\271\014N\251"
  67      B3EE3676 
ARM GAS  /tmp/ccxQrKxw.s 			page 5


  67      5696FFA4 
  67      ACB90C4E 
  67      A9
  68 0271 23ADAB20 		.ascii	"#\255\253 \255\337]i\355\324\222V\253BZI\"\255\275\352"
  68      ADDF5D69 
  68      EDD49256 
  68      AB425A49 
  68      22ADBDEA 
  69 0285 B6EC366E 		.ascii	"\266\3546n\313jMi\355a[Z\251\264v\335\331h\253?\033"
  69      CB6A4D69 
  69      ED615B5A 
  69      A9B476DD 
  69      D968AB3F 
  70 029a 4922AD63 		.ascii	"I\"\255cB\230\004\242\215J\013!\332\225\020~\015\020"
  70      429804A2 
  70      8D4A0B21 
  70      DA95107E 
  70      0D10
  71 02ac 0102D14E 		.ascii	"\001\002\321N\245\205\020\035J\210\240\006\210\020\201"
  71      A585101D 
  71      4A88A006 
  71      881081
  72 02bb E8A0D242 		.ascii	"\350\240\322B\210N%DX\003D\204@tRi!D\227\022\"\252\001"
  72      884E2544 
  72      58034484 
  72      40745269 
  72      21449712 
  73 02d2 224620BA 		.ascii	"\"F \272\250\264\020\242[\011\021\327\000a\021\210n"
  73      A8B410A2 
  73      5B0911D7 
  73      00611188 
  73      6E
  74 02e3 54C33D4F 		.ascii	"T\303=OZF\323\322j91i\025=i\335\323!-\243\256\264~\005"
  74      5A46D3D2 
  74      6A393169 
  74      153D69DD 
  74      D3212DA3 
  75 02fb 69FDEB4A 		.ascii	"i\375\353J\353A-i\365(\244\265@\244\365\260\272-\007"
  75      EB412D69 
  75      F528A4B5 
  75      40A4F5B0 
  75      BA2D07
  76 030e 8DDB52AC 		.ascii	"\215\333R\254)\255\207\330\226\036*\255\003w6z\353\317"
  76      29AD87D8 
  76      961E2AAD 
  76      0377367A 
  76      EBCF
  77 0320 C60291D6 		.ascii	"\306\002\221\3261!L\002\321K\245\205\020}J\010\277\006"
  77      31214C02 
  77      D14BA585 
  77      107D4A08 
  77      BF06
  78 0332 880081E8 		.ascii	"\210\000\201\350\243\322B\210\244\022\"\250\001\"D "
  78      A3D24288 
  78      A41222A8 
  78      01224420 
  79 0342 92545A08 		.ascii	"\222TZ\010\321\257\204\010k\200\210\020\210~*-\204\030"
ARM GAS  /tmp/ccxQrKxw.s 			page 6


  79      D1AF8408 
  79      6B808810 
  79      887E2A2D 
  79      8418
  80 0354 50424435 		.ascii	"PBD5@\304\010\304\000\225\026B\014*!\342\032 ,\0021"
  80      40C408C4 
  80      00951642 
  80      0C2A21E2 
  80      1A202C02 
  81 0369 886A78EC 		.ascii	"\210jx\354I\313\327\264\264ZOLZk\236\264\036\353\220"
  81      49CBD7B4 
  81      B45A4F4C 
  81      5A6B9EB4 
  81      1EEB90
  82 037c 96AFAEB4 		.ascii	"\226\257\256\264\376\002i}!@Z\237\213\032\322\032RH"
  82      FE02697D 
  82      21405A9F 
  82      8B1AD21A 
  82      5248
  83 038e 2B43A4F5 		.ascii	"+C\244\365\225\250j\313\227\242a[\326jJ\313\255\341"
  83      95A86ACB 
  83      97A2615B 
  83      D66A4ACB 
  83      ADE1
  84 03a0 7C2D9516 		.ascii	"|-\225\026\024\262\371p\375\331\310\020i\035\023\302"
  84      14B2F970 
  84      FDD9C810 
  84      691D13C2 
  85 03b0 2410C354 		.ascii	"$\020\303TZ\010\221RB\3705@\004\010D\212J\013!F\224"
  85      5A089152 
  85      42F83540 
  85      0408448A 
  85      4A0B2146 
  86 03c5 10410D10 		.ascii	"\020A\015\020!\0021B\245\205\020\243J\210\260\006\210"
  86      21023142 
  86      A58510A3 
  86      4A88B006 
  86      88
  87 03d6 088118A5 		.ascii	"\010\201\030\245\322B\2101%DT\003D\214@\214Qi!\304\270"
  87      D2428831 
  87      25445403 
  87      448C408C 
  87      516921C4 
  88 03eb 1222AE01 		.ascii	"\022\"\256\001\302\"\020\343\250\206\262'-\263ii\265"
  88      C22210E3 
  88      A886B227 
  88      2DB36969 
  88      B5
  89 03fc 9D98B4D6 		.ascii	"\235\230\264\326=i\225uH\313\254+\2552H\353\232+\255"
  89      3D699575 
  89      48CBAC2B 
  89      AD3248EB 
  89      9A2BAD
  90 040f 5F6A496B 		.ascii	"_jIkB!\255<\221\326\365\352\266l5n\313zMi]\307\266L"
  90      4221AD3C 
  90      91D6F5EA 
  90      B66C356E 
ARM GAS  /tmp/ccxQrKxw.s 			page 7


  90      CB7A4D69 
  91 0427 50696DB9 		.ascii	"Pim\271\2631Y\1776\362DZ\307\2040\011\304$\225\026B"
  91      B331597F 
  91      36F2445A 
  91      C7843009 
  91      C4249516 
  92 043c 4C2921FC 		.ascii	"L)!\374\032 \002\004b\212J\013!\246\225\020A\015\020"
  92      1A200204 
  92      628A4A0B 
  92      21A69510 
  92      410D10
  93 044f 2102314D 		.ascii	"!\0021M\245\205\0203J\210\260\006\210\010\201\230\241"
  93      A5851033 
  93      4A88B006 
  93      88088198 
  93      A1
  94 0460 D2428859 		.ascii	"\322B\210Y%DT\003D\214@\314Ri!\304\234\022\"\256\001"
  94      25445403 
  94      448C40CC 
  94      526921C4 
  94      9C1222AE 
  95 0475 C2221073 		.ascii	"\302\"\020s\214\355\261\302\376\372\330\221{\334-\343"
  95      8CEDB1C2 
  95      FEFAD891 
  95      7BDC2DE3 
  96 0485 FC688B3B 		.ascii	"\374h\213;\356?ZN\317\317\247\361o\345|\372\235\354"
  96      EE3F5A4E 
  96      CFCFA7F1 
  96      6FE57CFA 
  96      9DEC
  97 0497 523ABFF2 		.ascii	"R:\277\362\336\373\347\323\257d^x\366T\372\334\2713"
  97      DEFBE7D3 
  97      AF645E78 
  97      F654FADC 
  97      B933
  98 04a9 E9E75F3A 		.ascii	"\351\347_:\373\342\207\247\340\322\033y\347\265\264"
  98      FBE287A7 
  98      E0D21B79 
  98      E7B5B4
  99 04b8 F4D6FC22 		.ascii	"\364\326\374\"3\355|n%\357_\\y\367\355\234\375?\352"
  99      33ED7C6E 
  99      25EF5F5C 
  99      79F7ED9C 
  99      FD3FEA
 100 04cb A2041B   		.ascii	"\242\004\033"
 101              		.text
 102              		.section	.gnu.lto__pal_lld_setgroupmode.5497293772b92f41,"",%progbits
 103 0000 789C9D57 		.ascii	"x\234\235WklTE\024\236\231\273ww\273\217\026(B\237\264"
 103      6B6C5445 
 103      149E99BB 
 103      7777BB8F 
 103      1628429F 
 104 0015 9447098F 		.ascii	"\224G\011\217.\345e\241\002\341]\241M\237$\360G)\264"
 104      2EE565A1 
 104      02E15DA1 
 104      4D9F24F0 
 104      4729B4
ARM GAS  /tmp/ccxQrKxw.s 			page 8


 105 0028 592AADAD 		.ascii	"Y*\255\255m5\321?l\331\376h,!\215by\330\230\"\022D\202"
 105      6D35D13F 
 105      6CD9FE68 
 105      2C218D62 
 105      79D89822 
 106 003f A53658A4 		.ascii	"\2456X\244Mi\215F\210h4\361\007\253&bM \206\006\301"
 106      4D698D46 
 106      886834F1 
 106      07AB2662 
 106      4D208606 
 107 0054 0625015D 		.ascii	"\006%\001]\317\231\307\335W\343.\335\264g\356\234s\276"
 107      CF99C7DD 
 107      57E32EDD 
 107      B467EE9C 
 107      73BE
 108 0066 6FBE9939 		.ascii	"o\276\2319;w\226\021F\302?\347\341\377\316\024B\232"
 108      3B779611 
 108      46C23FE7 
 108      E1FFCE14 
 108      429A
 109 0078 A0A50984 		.ascii	"\240\245\011\204\262\216o\011i\2612\252\211\007\215"
 109      B28E6F09 
 109      69B132AA 
 109      89078D
 110 0087 99DAB289 		.ascii	"\231\332\262\211\307\346@\35301\375\3763\320\213\353"
 110      C7E640EB 
 110      3031FDFE 
 110      33D08BEB 
 111 0097 CE839ECE 		.ascii	"\316\203\236\316\314<f\34113\265\012\210E=X\251C<\304"
 111      CC3C66E1 
 111      3133B50A 
 111      88453D58 
 111      A9433CC4 
 112 00ab 311B4FB4 		.ascii	"1\033O\264\363D\233r\333\325\203\203\305\267Z \356<"
 112      F3449B72 
 112      DBD58383 
 112      C5B75A20 
 112      EE3C
 113 00bd FC158104 		.ascii	"\374\025\201\004\247\030|\304\032O)>\020J\0162\315\244"
 113      A7187CC4 
 113      1A4F293E 
 113      104A0E32 
 113      CDA4
 114 00cf 9B2DD638 		.ascii	"\233-\3268\233\335\341\214\247\007wS\024o\317\"\247"
 114      9BDDE18C 
 114      A7077753 
 114      146FCF22 
 114      A7
 115 00e0 3C9E8E5B 		.ascii	"<\236\216[_\366?\240'\216\016\267v{\236\370\375\224"
 115      5FF63FA0 
 115      278E0EB7 
 115      767B9EF8 
 115      FD94
 116 00f2 D6509868 		.ascii	"\326P\230h\036%\373(\331\005\035\232\311\033f\012\235"
 116      1E25FB28 
 116      D9051D9A 
 116      C91B660A 
ARM GAS  /tmp/ccxQrKxw.s 			page 9


 116      9D
 117 0103 39C7BE35 		.ascii	"9\307\2765|\254\375H\262\247\373P\207\347_\200\326P"
 117      7CACFD48 
 117      B2A7FB50 
 117      87E75F80 
 117      D650
 118 0115 8D917531 		.ascii	"\215\221u1\"\217\177\355\350hi\363\370\375\0079ls\214"
 118      228F7FED 
 118      E86869F3 
 118      F8FD0739 
 118      6C738C
 119 0128 B093A1B0 		.ascii	"\260\223\241\260\0351\302\272Ba\3451\302\336\013\205"
 119      1D31C2BA 
 119      4261E531 
 119      C2DE0B85 
 120 0138 ED8E1176 		.ascii	"\355\216\021v1\024\366B\214\260\376\366\243a\213\271"
 120      3114F642 
 120      8CB0FEF6 
 120      A3618BB9 
 121 0148 3736A4E7 		.ascii	"76\244\347a\3255O\353\260\337\277\236\243\016\304\210"
 121      61D5354F 
 121      EBB0DFBF 
 121      9EA30EC4 
 121      88
 122 0159 FA2704F5 		.ascii	"\372'\004\365r\214\250w\252\203Q\257DC\365\260\341["
 122      728CA877 
 122      AA8351AF 
 122      4443F5B0 
 122      E15B
 123 016b 7E7F976F 		.ascii	"~\177\227ol\364C\232\270\223\222:,\257Jz\232f\021\015"
 123      6CF4439A 
 123      B893923A 
 123      2CAF4A7A 
 123      9A66110D 
 124 017f DA33D09A 		.ascii	"\3323\320\232\240=\013\255\016\3559h\315\320^\200\326"
 124      A03D0BAD 
 124      0EED3968 
 124      CDD05E80 
 124      D6
 125 0190 46EB28B5 		.ascii	"F\353(\265\313d\007\251\241&\247D\304c'A\302\246`g\252"
 125      CB6407A9 
 125      A126A744 
 125      C4632741 
 125      C2A66067 
 126 01a5 C44EC34E 		.ascii	"\304N\303N\"t\316Cg:\020\220\031\350\231\211&\011M2"
 126      2274CE43 
 126      673A1090 
 126      19E89989 
 126      26094D32 
 127 01b9 18920209 		.ascii	"\030\222\002\011=\220\220\012\355)h\323\320\231\016"
 127      3D90900A 
 127      ED2968D3 
 127      D0990E
 128 01c8 9D5EE8CC 		.ascii	"\235^\350\314\302\264\014\364d\242\231\015\356>pgag"
 128      C2B40CF4 
 128      64A2990D 
 128      EE3E7067 
ARM GAS  /tmp/ccxQrKxw.s 			page 10


 128      6167
 129 01da 0E742E41 		.ascii	"\016t.Ag.0\263y\2308\037M6\232\005h\026\242Y\204f1\232"
 129      672E30B3 
 129      7998381F 
 129      4D369A05 
 129      6816A259 
 130 01f2 25685C68 		.ascii	"%h\\h\226\242\311E\263\034\315\0124+\321\254B\223\207"
 130      96A2C945 
 130      B31CCD0A 
 130      342BD1AC 
 130      429387
 131 0205 66359A35 		.ascii	"f5\2325h\362\321\254E\263\016\315z4\033\320lD\263\011"
 131      68F2D1AC 
 131      45B30ECD 
 131      7A341BD0 
 131      6C44B309 
 132 0219 CD16345B 		.ascii	"\315\0264[\321lCS\200f;\232\035h\012\321\024\241)\306"
 132      D16C4353 
 132      80663B9A 
 132      1D680AD1 
 132      14A129C6 
 133 022d 152F91EB 		.ascii	"\025/\221\353V*\227\254L\256V\271\\\334\012\271\342"
 133      562A97AC 
 133      4CAE56B9 
 133      5CDC0AB9 
 133      E2
 134 023e F0D1492B 		.ascii	"\360\321I+\034\012\231\302/P\002#\020baU\366>~\220T"
 134      1C0A99C2 
 134      2F500223 
 134      10626155 
 134      F63E7E90 
 135 0253 80851368 		.ascii	"\200\205\023h'e\320h\337\020\357\200\267\2473\255\222"
 135      2765D068 
 135      DF10EF80 
 135      B7A733AD 
 135      92
 136 0264 F6539DB8 		.ascii	"\366S\235\270\251\335MmX\030&\015R\257\023&\374\202"
 136      A9DD4D6D 
 136      5818260D 
 136      52AF1326 
 136      FC82
 137 0276 1FA28470 		.ascii	"\037\242\204p@_\347s\012\340P\000\254$\010~\354mT!'"
 137      405FE773 
 137      0AE05000 
 137      AC24087E 
 137      EC6D5421 
 138 028b 44778913 		.ascii	"Dw\211\023*\204\353\014\347rJ\256\376\000W\274\342J"
 138      2A84EB0C 
 138      E7724AAE 
 138      FE0057BC 
 138      E24A
 139 029d 8AE04A80 		.ascii	"\212\340J\200(\347\012\323u\226s%H\256\201\000\327\024"
 139      28E70AD3 
 139      75967325 
 139      48AE8100 
 139      D714
 140 02af C5B52782 		.ascii	"\305\265'\202k*D9\227\036\312u\216sM\225\\W\003\\\323"
ARM GAS  /tmp/ccxQrKxw.s 			page 11


 140      6B2A4439 
 140      971ECA75 
 140      8E734D95 
 140      5C57035C 
 141 02c4 14972721 		.ascii	"\024\227'!\202,\021\302\234\314\022Jv\236\223%\242\357"
 141      822C11C2 
 141      9CCC124A 
 141      769E9325 
 141      A2EF
 142 02d6 50F74D5D 		.ascii	"P\367M]\271q'0]S\337\270\235\360\010\007\277\006iV\""
 142      B9712730 
 142      5D53DFB8 
 142      9DF00807 
 142      BF066956 
 143 02eb 13DCD4CC 		.ascii	"\023\334\324\314q\334!T\351\001\207\230\262)\340\020"
 143      71DC2154 
 143      E9018798 
 143      B229E010 
 144 02fb EBA9051C 		.ascii	"\353\251\005\034b\263\230r@I\271)\225\323\272\333\231"
 144      62B39872 
 144      4049B929 
 144      95D3BADB 
 144      99
 145 030c A1A4CF00 		.ascii	"\241\244\317\000/\237\026\326\3055\322:\326\222k\204"
 145      2F9F16D6 
 145      C535D23A 
 145      D6926B84 
 146 031c B83F702E 		.ascii	"\270?p.\370\010u\323\351\014L\261\363\311\203\375>\302"
 146      F80875D3 
 146      E90C4CB1 
 146      F3C983FD 
 146      3EC2
 147 032e A018D8A0 		.ascii	"\240\030\330\240\257\301M\313\235?\217\327\372\210\006"
 147      AFC14DCB 
 147      9D3F8FD7 
 147      FA8806
 148 033d 3BCA6EA0 		.ascii	";\312n\240\243\304\371A\223\217\230`W\330\017\273\335"
 148      A3C4F941 
 148      938F9860 
 148      57D80FBB 
 148      DD
 149 034e B4D43938 		.ascii	"\264\32498\336\354#:\254,\033\303x\231\363\006\002\314"
 149      DEEC233A 
 149      AC2C1BC3 
 149      7899F306 
 149      02CC
 150 0360 7219D8E1 		.ascii	"r\031\330\341\237\300Y\341\034\033\337\203\253a\"m\331"
 150      9FC059E1 
 150      1C1BDF83 
 150      AB61226D 
 150      D9
 151 0371 A22AFFEE 		.ascii	"\242*\377\356,0\312\273\207\227q/\267}\334^\342%-\364"
 151      2C30CABB 
 151      8797712F 
 151      B77DDC5E 
 151      E2252DF4 
 152 0385 C2C74D67 		.ascii	"\302\307Mg\302\252q\325\026\261Goz?\205\315\270\314"
ARM GAS  /tmp/ccxQrKxw.s 			page 12


 152      C2AA71D5 
 152      16B1476F 
 152      7A3F85CD 
 152      B8CC
 153 0397 A79304E1 		.ascii	"\247\223\004\341\240\"=t\317;DU,\031\302\034p\301\373"
 153      A0223D74 
 153      CF3B4455 
 153      2C19C21C 
 153      70C1FB
 154 03aa BEE14CE1 		.ascii	"\276\341L\341\033\233,w\3642\337\272\036\276\252)\222"
 154      1B9B2C77 
 154      F432DFBA 
 154      1EBEAA29 
 154      92
 155 03bb E071E72C 		.ascii	"\340q\347,\225\234\312\367\013\0314\345J\343%\201\353"
 155      959CCAF7 
 155      0B1934E5 
 155      4AE32581 
 155      EB
 156 03cc 9E2AF35F 		.ascii	"\236*\363_R\241t\210\206\360\366r\336t)\332\337\231"
 156      52A17488 
 156      86F0F672 
 156      DE7429DA 
 156      DF99
 157 03de A33267A9 		.ascii	"\2432g\251\0311\245\372\015\025\312\200h\330\220\231"
 157      1931A5FA 
 157      0D15CA80 
 157      68D89099 
 158 03ee F2EB01C1 		.ascii	"\362\353\001\301\360!gC4d\310>>\344l9\355\323\3072T"
 158      F0216743 
 158      3464C83E 
 158      3EE46C39 
 158      EDD3C732 
 159 0403 66162749 		.ascii	"f\026'I |\356\241$s\334\270\342A$\2278\311\034\314\373"
 159      207CEEA1 
 159      2473DCB8 
 159      E2412497 
 159      38C91CCC 
 160 0418 FCC7CB57 		.ascii	"\374\307\313W~5\224\314[D>\362\264\002\221\376.9\011"
 160      7E3594CC 
 160      5B443EF2 
 160      B40291FE 
 160      2E3909
 161 042b 8DD94DE7 		.ascii	"\215\331M\347\"\257\205\227\322^\252\212\012\370\007"
 161      22AF8597 
 161      D25EAA8A 
 161      0AF807
 162 043a BD43C626 		.ascii	"\275C\306&\315W\2130\020\264s\331@\007!\356\377\314"
 162      CD578B30 
 162      10B473D9 
 162      400721EE 
 162      FFCC
 163 044c FBA7E15F 		.ascii	"\373\247\341_\300C\032\037\374\372E\273p\363q[<\317"
 163      C0431A1F 
 163      FCFA45BB 
 163      70F3715B 
 163      3CCF
ARM GAS  /tmp/ccxQrKxw.s 			page 13


 164 045e 461919D0 		.ascii	"F\031\031\320B\364\315 \321\013\243\210\246\301\242"
 164      42F4CD20 
 164      D10BA388 
 164      A6C1A2
 165 046d 470D1D8B 		.ascii	"G\015\035\213\3242\016x\257\030\316\305@\007!)\372/"
 165      D4320E78 
 165      AF18CEC5 
 165      40072129 
 165      FA2F
 166 047f C3BF8487 		.ascii	"\303\277\204\207LO)\232J\321K\204\350GA\242]QD3C4\350"
 166      4C4F299A 
 166      4AD14B84 
 166      E84741A2 
 166      5D514433 
 167 0496 FBC4D0B1 		.ascii	"\373\304\320\261\224\353vI}\367\014\177.\017\351O\251"
 167      94EB7649 
 167      7DF70C7F 
 167      2E0FE94F 
 167      A9
 168 04a7 8F497DB9 		.ascii	"\217I}\271x\210|qg\304\327\356T\204\314(\337\300q\247"
 168      78887C71 
 168      67C4D7EE 
 168      5484CC28 
 168      DFC071A7 
 169 04bb 9347360D 		.ascii	"\223G6\015N\233\333#\277\264\307\253Dq\030XB\022\315"
 169      4E9BDB23 
 169      BFB4C7AB 
 169      44711858 
 169      4212CD
 170 04ce 6450D770 		.ascii	"dP\327p\306\307\207~7f\274<\312\2145c\306\260M\201\035"
 170      C6C7877E 
 170      3766BC3C 
 170      CA8C3563 
 170      C6B04D81 
 171 04e3 59210B35 		.ascii	"Y!\0135d\031V\002\035\204\"\226a\025\017\245\210e\370"
 171      64195602 
 171      1D842296 
 171      61150FA5 
 171      8865F8
 172 04f6 2E7419D6 		.ascii	".t\031\326G\031\031\320J\277E\351\277\031\244?/\212"
 172      471919D0 
 172      4ABF45E9 
 172      BF19A43F 
 172      2F8A
 173 0508 7ED3C4FA 		.ascii	"~\323\304\372WO\244\177\015\320A(B\177>\017=\255~\223"
 173      574FA47F 
 173      0DD04128 
 173      427F3E0F 
 173      3DAD7E93 
 174 051c D49FAFF4 		.ascii	"\324\237\257\364[q\243x\305\015=0\364\257\215\242_\017"
 174      5B71A378 
 174      C50D3D30 
 174      F4AF8DA2 
 174      5F0F
 175 052e AEB880FE 		.ascii	"\256\270\200\376u\274\342\326F|#\326\363\020\023R\357"
 175      75BCE2D6 
 175      467C23D6 
ARM GAS  /tmp/ccxQrKxw.s 			page 14


 175      F3101352 
 175      EF
 176 053f 874ACD8F 		.ascii	"\207J\315\2172\010\240\225\3248\322\221&Je4 u\303\344"
 176      3208A095 
 176      D438D291 
 176      264A6534 
 176      2075C3E4 
 177 0553 A46EE452 		.ascii	"\244n\344R7DH\335\304C\223\225\272\211\277ao\217\274"
 177      374448DD 
 177      C4439395 
 177      BA89BF61 
 177      6F8FBC
 178 0566 7DE47F6B 		.ascii	"}\344\177k\336F\332\342E\315\214\006jf\313\344j~\353"
 178      DE46DAE2 
 178      45CD8C06 
 178      6A66CBE4 
 178      6A7EEB
 179 0579 4435B30D 		.ascii	"D5\263\015\350 \024Q3\005<4\331\232/P\372\355J\377\361"
 179      E8201451 
 179      33053C34 
 179      D99A2F50 
 179      FAED4AFF 
 180 058e DF02FAB7 		.ascii	"\337\002\372\267O\256\346wL\244\277\020\350 \024\241"
 180      4FAEE677 
 180      4CA4BF10 
 180      E82014A1 
 181 059e BF888726 		.ascii	"\277\210\207&[\363EJ\277\203\337\305\370\015\357jW\212"
 181      5BF3454A 
 181      BF83DFC5 
 181      F80DEF6A 
 181      578A
 182 05b0 BA0D15CB 		.ascii	"\272\015\025\313\213\022\301\243\330\270\343\361kU\261"
 182      8B12C1A3 
 182      D8B8E3F1 
 182      6B55B1
 183 05bf 3CF47A8F 		.ascii	"<\364z\2178\214\354\260\273\023\362:\011\374\334\327"
 183      388CECB0 
 183      BB13F23A 
 183      09FCDCD7 
 184 05cf F8DBF66E 		.ascii	"\370\333\366n\227q\331.\2017X$\257\272\320\225\310\327"
 184      9771D92E 
 184      81375824 
 184      AFBAD095 
 184      C8D7
 185 05e1 F31F5DE9 		.ascii	"\363\037]\351\012P\012o\217\211n\324\342JX*\001\343"
 185      0A500A6F 
 185      8F896ED4 
 185      E24A582A 
 185      01E3
 186 05f3 5DA90A50 		.ascii	"]\251\012P\006\307\371D\000q\251,\223\200\207\206\242"
 186      06C7F944 
 186      0071A92C 
 186      93808786 
 186      A2
 187 0604 72796687 		.ascii	"ryf\207\347\213\033e9\317o\363>\356JR\200\012U\307a"
 187      E78B1B65 
 187      39CF6FF3 
ARM GAS  /tmp/ccxQrKxw.s 			page 15


 187      3EEE4A52 
 187      800A55C7 
 188 0619 5310D7D8 		.ascii	"S\020\327\330\0125\377x\374\255\361=i\271u\342\0165"
 188      0A35FF78 
 188      FCADF13D 
 188      69B975E2 
 188      0E35
 189 062b EE6CFC53 		.ascii	"\356l\374S\001\357\267V\013\016\2672'\307%\376\352\233"
 189      01EFB756 
 189      0B0EB732 
 189      27C725FE 
 189      EA9B
 190 063d 5CFB2B6B 		.ascii	"\\\373+k]\015\365\215\315M\256\362\212\242\345\313\\"
 190      5D0DF58D 
 190      CD4DAEF2 
 190      8AA2E5CB 
 190      5C
 191 064e 85859B5D 		.ascii	"\205\205\233]\333J\236/~m\031\206^l\200\377\332\332"
 191      DB4A9E2F 
 191      7E6D1986 
 191      5E6C80FF 
 191      DADA
 192 0660 AA9C7D44 		.ascii	"\252\234}D\337[\323\234\263T\257\253\257\252n4\3277"
 192      DF5BD39C 
 192      B354AFAB 
 192      AFAA6E34 
 192      D737
 193 0672 BFDE50DD 		.ascii	"\277\336P\335h\251oj\250\256\256j\324\033^m\250j4U\326"
 193      68A96F6A 
 193      A8AEAE6A 
 193      D41B5E6D 
 193      A86A3455 
 194 0687 36376A90 		.ascii	"67j\220e\305\207\272\312\246\003\254.\227\325-cu+\376"
 194      65C587BA 
 194      CAA603AC 
 194      2E97D52D 
 194      63752BFE 
 195 069b 0370B2EE 		.ascii	"\003p\262\356B"
 195      42
 196              		.text
 197              		.section	.gnu.lto_.symbol_nodes.5497293772b92f41,"",%progbits
 198 0000 789C6362 		.ascii	"x\234cb`bP`\200\002\246-\214\365\014\014\023\31610\324"
 198      60625060 
 198      8002A62D 
 198      8CF50C0C 
 198      13CE3130 
 199 0015 D7CFEB60 		.ascii	"\327\317\353`d\332\312X\317\210\3402\000\000\233\356"
 199      64DACA58 
 199      CF88E032 
 199      00009BEE 
 200 0025 0999     		.ascii	"\011\231"
 201              		.text
 202              		.section	.gnu.lto_.refs.5497293772b92f41,"",%progbits
 203 0000 789C6362 		.ascii	"x\234cb`b`d\200\002\000\000F\000\006"
 203      60626064 
 203      80020000 
 203      460006
ARM GAS  /tmp/ccxQrKxw.s 			page 16


 204              		.text
 205              		.section	.gnu.lto_.decls.5497293772b92f41,"",%progbits
 206 0000 789CBD59 		.ascii	"x\234\275Y}lS\327\025\277\367=\307q\032\217E\264 \320"
 206      7D6C53D7 
 206      15BFF73D 
 206      C7711A8F 
 206      45B420D0 
 207 0014 3AE14AEB 		.ascii	":\341J\353\206\252\016C\3206\366\325.q\002\311\032\032"
 207      86AA0E43 
 207      D036F6D5 
 207      2E7102C9 
 207      1A1A
 208 0026 EB05B40F 		.ascii	"\353\005\264\017M\262\336b\007\254%\261e;\033\373\357"
 208      4DB2DE62 
 208      07AC25B1 
 208      653B1BFB 
 208      EF
 209 0037 92145645 		.ascii	"\222\024VE\035KR\306H\313\207i!M)4$\245-\020 \246l("
 209      1D4B52C6 
 209      48CB8769 
 209      214D2934 
 209      24A52D10 
 210 004f 2288D084 		.ascii	"\"\210\320\204\245U\012K:D?4\321e\332\250\326U\305\273"
 210      A5550A4B 
 210      3A443F34 
 210      D165DAA8 
 210      D655C5BB 
 211 0063 F7BC67FB 		.ascii	"\367\274g\373^\343g\277\227U{\3629\367\372\276s~\367"
 211      5EE367BF 
 211      97557BF2 
 211      39F7FABE 
 211      737EF7
 212 0076 773FDE3D 		.ascii	"w?\336=\307\317\022\222\320\3170BIzm\372\022BG$\204"
 212      C7CF1292 
 212      D0CF3042 
 212      497A6DFA 
 212      12424724 
 213 008b 6484D023 		.ascii	"d\204\320#(s\321&t\200\312$\272\373b\355\013\250\024"
 213      2873D126 
 213      7480CA24 
 213      BAFB62ED 
 213      0BA814
 214 009e 53B94E65 		.ascii	"S\271Ne)\305\372\016\225\357R\371>\225C\264\355 \025"
 214      29C5FA0E 
 214      95EF52F9 
 214      3E9543B4 
 214      ED2015
 215 00b1 07D6EC9C 		.ascii	"\007\326\354\234\014\233\326\277G\345-Z\277\217\312"
 215      0C9BD6BF 
 215      47E52D5A 
 215      BF8FCA
 216 00c0 725A7F89 		.ascii	"rZ\177\211\226'\251\314P\031\246\362.\2253TnP\031\241"
 216      9627A9CC 
 216      5019A6F2 
 216      2E953354 
 216      6E5019A1 
 217 00d4 F23E9573 		.ascii	"\362>\225s\254Cj{\236q\242\345 -\257Q\271@e\224\312"
ARM GAS  /tmp/ccxQrKxw.s 			page 17


 217      AC436A7B 
 217      9E71A2E5 
 217      202DAF51 
 217      B9406594 
 218 00e9 452A9738 		.ascii	"E*\2278\276\217R\033;-\257P\251\241\365Z*?\244\362\030"
 218      BE8F521B 
 218      3B2DAF50 
 218      A9A1F55A 
 218      2A3FA4F2 
 219 00fe 953A2C8E 		.ascii	"\225:,\216\203\215\315A\305\2062<\207\270q1\256SH\303"
 219      838DCD41 
 219      C586323C 
 219      87B87131 
 219      AE5348C3 
 220 0112 9BD1F9DD 		.ascii	"\233\321\371\335\320\3710.\327\264*\340\260\371\273"
 220      D0F9302E 
 220      D7B42AE0 
 220      B0F9BB
 221 0121 8F7E594C 		.ascii	"\217~YLeaV?\313\320>\022\237\235\335\366\321\261\245"
 221      6561563F 
 221      CBD03E12 
 221      9F9DDDF6 
 221      D1B1A5
 222 0134 24DE9E48 		.ascii	"$\336\236H&\037E\213\321\357\011\275\342\333\011\301"
 222      261F458B 
 222      D1EF09BD 
 222      E2DB09C1 
 223 0144 31153FB2 		.ascii	"1\025?\262\010\375\030\253xA\011rA\305Y\002\244\020"
 223      08FD18AB 
 223      78410972 
 223      41C55902 
 223      A410
 224 0156 52F17378 		.ascii	"R\361sx1\324d\030\"*E\235\204\2643\307\232\321\005\013"
 224      31D46418 
 224      222A459D 
 224      84B433C7 
 224      9AD1050B 
 225 016a 5137A050 		.ascii	"Q7\240P\220Q:\000\035b\326\221\302x\212\021y\020\035"
 225      90513A00 
 225      1D62D691 
 225      C2788A11 
 225      79101D
 226 017d 24A46BF6 		.ascii	"$\244k\366\037\037\276 \023\342\320]\\\306\366*\356"
 226      1F1FBE20 
 226      13E2D05D 
 226      5CC6F62A 
 226      EE
 227 018e C30FA2C2 		.ascii	"\303\017\242\302v\314\262\037/D\017\241\027\251a\027"
 227      76CCB21F 
 227      2F440FA1 
 227      17A96117 
 228 019e 216F7C4B 		.ascii	"!o|K\0347tL\022\303\023Nb\323L\231\313\213\370\241\034"
 228      1C37744C 
 228      12C3134E 
 228      62D34C99 
 228      CB8BF8A1 
 229 01b3 5B0A3D80 		.ascii	"[\012=\200\342\314\370\315\211=\230\304\337\300\271"
ARM GAS  /tmp/ccxQrKxw.s 			page 18


 229      E2CCF8CD 
 229      893D98C4 
 229      DFC0B9
 230 01c2 BAC7A9EE 		.ascii	"\272\307\251\356\357O\217*\321;\201]*>B\355%\324\206"
 230      EF4F8F2A 
 230      D13B815D 
 230      2A3E42ED 
 230      25D486
 231 01d5 05F88210 		.ascii	"\005\370\202\020\214\315\000\365\324\234t\266\357\214"
 231      8CCD00F5 
 231      D49C74B6 
 231      EF8C
 232 01e3 03DB0113 		.ascii	"\003\333\001\023l\333\0233\343{\2262\266%\350\311\314"
 232      6CDB1333 
 232      E37B9632 
 232      B625E8C9 
 232      CC
 233 01f4 A2A09C4B 		.ascii	"\242\240\234K\251\257\302`\347\237\316\341v\272^*\036"
 233      A9AFC260 
 233      E79FCEE1 
 233      76BA5E2A 
 233      1E
 234 0205 A26E12EA 		.ascii	"\242n\022\352\303\"k\363P#c\177\354\306\035\000\365"
 234      C3226BF3 
 234      5023637F 
 234      ECC61D00 
 234      F5
 235 0216 2A405DCF 		.ascii	"*@]\317\202Rqq\011O\032\276\247\014\030\036\334\326"
 235      82527171 
 235      094F1ABE 
 235      A70C181E 
 235      DCD6
 236 0228 2BEC2CF8 		.ascii	"+\354,\370\"\262j.\241\017\240S6]\271\250\352U\355\322"
 236      22B26A2E 
 236      A10FA053 
 236      365DB9A8 
 236      EA55EDD2 
 237 023c 0D84299C 		.ascii	"\015\204)\234\235\273\271\037\24605\037\037Y\306s\011"
 237      9DBBB91F 
 237      A630351F 
 237      1F59C673 
 237      09
 238 024d 4BF2F1B8 		.ascii	"K\362\361\270\263KM\201\3356\003\3460$\227\370\017\017"
 238      B34B4D81 
 238      DD3603E6 
 238      302497F8 
 238      0F0F
 239 025f F6996530 		.ascii	"\366\231e0\221\331\035\036\254C2\001Vf\314\254g\202"
 239      91D91D1E 
 239      AC433201 
 239      5666CCAC 
 239      6782
 240 0271 03FB8D65 		.ascii	"\003\373\215e0\221\331.\036\354)3`Kr0\313u\361\017\230"
 240      3091D92E 
 240      1EEC2933 
 240      604B7230 
 240      CB75F10F 
ARM GAS  /tmp/ccxQrKxw.s 			page 19


 241 0286 8A8FD173 		.ascii	"\212\217\321sE\305\203\370\001\252O\202\036\006}\006"
 241      45C583F8 
 241      01AA4F82 
 241      1E067D06 
 242 0296 F408E873 		.ascii	"\364\010\350s\240\317S\235\276$\324\015\234\3723\234"
 242      A0CF539D 
 242      BE24D40D 
 242      9CFA339C 
 243 02a6 C407B9D0 		.ascii	"\304\007\271\320.#\211\267\0256@\355\230\330m\012L\030"
 243      2E2389B7 
 243      153640ED 
 243      98D86D0A 
 243      4C18
 244 02b8 A14B009B 		.ascii	"\241K\000\233\343\300\366\233\002[c\314\354\337\034"
 244      E3C0F69B 
 244      025B63CC 
 244      ECDF1C
 245 02c7 589F2930 		.ascii	"X\237)0\2571\263\335\015\031\260\243\246\300\302\371"
 245      AF31B3DD 
 245      0D19B0A3 
 245      A6C0C2F9 
 246 02d7 1632B56E 		.ascii	"\0262\265n\207a\335^\202\225\271\000z\024\364E\320\227"
 246      8761DD5E 
 246      8295B900 
 246      7A14F445 
 246      D097
 247 02e9 C4B53A2E 		.ascii	"\304\265:.e\237B\332\311\317\241\366\247\367\0042\213"
 247      659F42DA 
 247      C9CFA1F6 
 247      A7F70432 
 247      8B
 248 02fa 6B141D0F 		.ascii	"k\024\035\017\342\322\014\356F\231\343q6\213\307W\320"
 248      E2D20CEE 
 248      4699E371 
 248      368BC757 
 248      D0
 249 030b F384F4D0 		.ascii	"\363\204\364\320 \374\201\255\227$l\232\253\204.\201"
 249      20FC81AD 
 249      97246C9A 
 249      AB842E81 
 250 031b D901BC2C 		.ascii	"\331\001\274,g\027\351\016\276\212\016\261`\362[\262"
 250      6717E90E 
 250      BE8A0EB1 
 250      60F25BB2 
 251 032b AD0C43B8 		.ascii	"\255\014C\270F\272\2270\260q,\361\015Z\334O\334\271"
 251      46BA9730 
 251      B0712CF1 
 251      0D5ADC4F 
 251      DCB9
 252 033d E8ECDA3A 		.ascii	"\350\354\332:\233L.3\037\364\257\026\016\372B\\\223"
 252      9B4C2E33 
 252      1FF4AF16 
 252      0EFA425C 
 252      93
 253 034e 52000FA3 		.ascii	"R\000\017\243L\300?\260\237\005|\025\277\005\373aR*"
 253      4CC03FB0 
 253      9F057C15 
ARM GAS  /tmp/ccxQrKxw.s 			page 20


 253      BF05FB61 
 253      522A
 254 0360 1C1E0518 		.ascii	"\034\036\005\030\306c:;<~z\031\302\343t\341\360\370"
 254      C6633A3B 
 254      3C7E7A19 
 254      C2E374E1 
 254      F0F8
 255 0372 44472279 		.ascii	"DG\"y\231\013\217\035yc\232\212_\201Mf&\344\314\302"
 255      990B8F1D 
 255      79639A8A 
 255      5F814D66 
 255      26E4CCC2 
 256 0386 48A6E717 		.ascii	"H\246\347\027r(\255.\355 \276\016\307\335{\226\301\\"
 256      7228AD2E 
 256      ED20BE0E 
 256      C7DD7B96 
 256      C15C
 257 0398 02580F0F 		.ascii	"\002X\017\017v\313\014\230Q\274\241`;y\260\333\226\301"
 257      76CB0C98 
 257      51BCA160 
 257      3B79B0DB 
 257      96C1
 258 03aa 4466BB78 		.ascii	"Df\273x\260O\315\200\031\305\033\012\266\233\007KZ\006"
 258      B04FCD80 
 258      19C51B0A 
 258      B69B074B 
 258      5A06
 259 03bc E3996D4D 		.ascii	"\343\231mM\274>~\021\223\036\347\275\250\207\220\255"
 259      BC3E7E11 
 259      931EE7BD 
 259      A88790AD 
 260 03cc 246E37DA 		.ascii	"$n7\332\024\010\201\011\311k\242\342\277\341{\305M\372"
 260      14088109 
 260      C96BA2E2 
 260      BFE17BC5 
 260      4DFA
 261 03de ECEF16B0 		.ascii	"\354\357\026\260M\312\332\013\347p{\365\034.\035\231"
 261      4DCADA0B 
 261      E7707BF5 
 261      1C2E1D99 
 262 03ee 65AC63CE 		.ascii	"e\254c\316'\241!\211W\307KI\2473\225\231\377\240?\017"
 262      27A12189 
 262      57C74B49 
 262      A7339599 
 262      FFA03F0F 
 263 0402 F1B9ECA7 		.ascii	"\361\271\354\247k\377\270\344\322\232\013\363\036\034"
 263      6BFFB8E4 
 263      D29A0BF3 
 263      1E1C
 264 0410 DFB384C4 		.ascii	"\337\263\204\304\317\245rO\262\235,\347\372*K\365\305"
 264      CFA5724F 
 264      B29D2CE7 
 264      FA2A4BF5 
 264      C5
 265 0421 CE8F74EE 		.ascii	"\316\217t\356\371\372\303p \374\023\006\272M\316\231"
 265      F9FAC370 
 265      20FC1306 
ARM GAS  /tmp/ccxQrKxw.s 			page 21


 265      BA4DCE99 
 266 0431 799A001A 		.ascii	"y\232\000\032\031;\372m\000\372\030\200v\310\331'\276"
 266      193BFA6D 
 266      00FA1880 
 266      76C8D927 
 266      BE
 267 0442 9C9577CA 		.ascii	"\234\225w\312\342S-\227d*\311\244\214\254\031K\250\027"
 267      E2532D97 
 267      642AC9A4 
 267      8CAC194B 
 267      A817
 268 0454 3A9CCBEC 		.ascii	":\234\313\354?\201\244\231\234s\037L]j&\366Z\306+\313"
 268      3F81A499 
 268      9C731F4C 
 268      5D6A26F6 
 268      5AC62BCB 
 269 0468 5A13093D 		.ascii	"Z\023\011=?\337m\303\215<\025\021oA\374\373\273\030"
 269      3FDF6DC3 
 269      8D3C1511 
 269      6F41FCFB 
 269      BB18
 270 047a 570FC926 		.ascii	"W\017\311&\036\272\\y\231\376\004\237\340\237\340\303"
 270      1EBA5C79 
 270      99FE049F 
 270      E09FE0C3 
 271 048a 96C15C02 		.ascii	"\226\301\\\002\330)\036l\300\014\230\313\230\331i\036"
 271      D8291E6C 
 271      C00C98CB 
 271      98D9691E 
 272 049a ECB86530 		.ascii	"\354\270e0\221\331Y\036\354\244\031\260\345\371\026"
 272      91D9591E 
 272      ECA419B0 
 272      E5F916
 273 04a9 45589F69 		.ascii	"EX\237i.\227}\007\302\3255X\251\031\320\357\202\276"
 273      2E977D07 
 273      C2D53558 
 273      A919D0EF 
 273      82BE
 274 04bb 01FA26E8 		.ascii	"\001\372&\350\367A\177\010\372\016h\"1\335\016\372\011"
 274      F7417F08 
 274      FA0E6822 
 274      31DD0EFA 
 274      09
 275 04cc A9407EA3 		.ascii	"\251@~\243\377\304\235\334u?;\315\246 ]9\223\365\254"
 275      FFC49DDC 
 275      753F3BCD 
 275      A6205D39 
 275      93F5AC
 276 04df 09998116 		.ascii	"\011\231\201\026\352\215N\233'\245R\203C\345\256{z\332"
 276      EA8D4E9B 
 276      27A55283 
 276      43E5AE7B 
 276      7ADA
 277 04f1 61FAB768 		.ascii	"a\372\267h\"\371\364\"\306\261Sb\263>z\327y\300NV\241"
 277      22F9F422 
 277      C6B15362 
 277      B33E7AD7 
ARM GAS  /tmp/ccxQrKxw.s 			page 22


 277      79C04E56 
 278 0506 3F533F44 		.ascii	"?S?D-\263\330\275XR\361\016\340\360\347\317\211CVR\371"
 278      2DB3D8BD 
 278      5852F10E 
 278      E0F0E7CF 
 278      89435652 
 279 051b 972C583D 		.ascii	"\227,X=\251\2749\360\211\236Tj\253\364/0\2334L*\231"
 279      A9BC39F0 
 279      899E546A 
 279      ABF42F30 
 279      9B344C2A 
 280 0530 95EE9BE8 		.ascii	"\225\356\233\350\036;B\343\217\224\232\274O\012\270"
 280      1E3B42E3 
 280      8F949ABC 
 280      4F0AB8
 281 053f 32AB94EB 		.ascii	"2\253\224\353\323c}\232\2536\346;\005\\\231\025J\245"
 281      D3637D9A 
 281      AB36E63B 
 281      055C9915 
 281      4AA5
 282 0551 B2896467 		.ascii	"\262\211dgG\034\023{:\231\235\314Nf\273%!\231\315\221"
 282      471C137B 
 282      3A999DCC 
 282      4E66BB25 
 282      2199CD91 
 283 0565 2F2664FE 		.ascii	"/&d\376\007\216\036\034\376\360\327\271\237jo%z%\226"
 283      078E1E1C 
 283      FEF0D7B9 
 283      9F6A6F25 
 283      7A2596
 284 0578 779EB615 		.ascii	"w\236\266\025\314;E\034\326\367\036)+2\356\235\202\274"
 284      CC3B451C 
 284      D6F71E29 
 284      2B32EE9D 
 284      82BC
 285 058a 93B517CE 		.ascii	"\223\265\027\316;\007\247v\352!];\006F\201\002\363\235"
 285      3B07A776 
 285      EA215D3B 
 285      06468102 
 285      F39D
 286 059c 5FC23834 		.ascii	"_\30284\305\235)c\226\301\\\002\330q\036\354\212\031"
 286      C59D2963 
 286      96C15C02 
 286      D8711EEC 
 286      8A19
 287 05ae B03C09E3 		.ascii	"\260<\011\343k<\330U\313`\"\263\023<\330u3`y\022\306"
 287      6B3CD855 
 287      CB6022B3 
 287      133CD875 
 287      33607912 
 288 05c3 533CD87B 		.ascii	"S<\330{\226\301Df\247y\260[f\300\362\004\302\263<\330"
 288      96C14466 
 288      A779B05B 
 288      66C0F204 
 288      C2B33CD8 
 289 05d7 6DCB6022 		.ascii	"m\313`\"\263+<\330gf\300\\\306\314&x\260\366\"\253`"
 289      B32B3CD8 
ARM GAS  /tmp/ccxQrKxw.s 			page 23


 289      6766C05C 
 289      C6CC2678 
 289      B0F622AB 
 290 05ec 22B3AB3C 		.ascii	"\"\263\253<\330v3`\271\002\241\0166\305\203\355\260"
 290      D8763360 
 290      B902A10E 
 290      36C583ED 
 290      B0
 291 05fd 0C26327B 		.ascii	"\014&2{\233\007\333i\006l\2451\263i\036\354\031\313"
 291      9B07DB69 
 291      066CA531 
 291      B3691EEC 
 291      19CB
 292 060f 602E6478 		.ascii	"`.dx\361\247\220\212\367J,\336\357\203\310\035\007\375"
 292      F1A7908A 
 292      F74A2CDE 
 292      EF83C81D 
 292      07FD
 293 0621 1CE883A0 		.ascii	"\034\350\203\240\373@\367\203>\014\372\010\350\227A"
 293      FB40F783 
 293      3E0CFA08 
 293      E89741
 294 0630 1F033D04 		.ascii	"\037\003=\004\3728\350\327@\237\3403\200\254H\336k0"
 294      FA38E8D7 
 294      409FE033 
 294      80AC48DE 
 294      6B30
 295 0642 08C6EB94 		.ascii	"\010\306\353\224T\232\323\313\340\357\000\341\275\217"
 295      549AD3CB 
 295      E0EF00E1 
 295      BD8F
 296 0650 8A8F42E6 		.ascii	"\212\217B\3462 \274\203\261\374N\316\210\332p\206\232"
 296      3220BC83 
 296      B1FC4ECE 
 296      88DA7086 
 296      9A
 297 0661 1936E87F 		.ascii	"\0316\350\177g\222N\017\022\237\303\313\005\366\306"
 297      67924E0F 
 297      129FC3CB 
 297      05F6C6
 298 0670 2631377B 		.ascii	"&17{hf\207\376O\315\010\301\026\376\253IH\302k\033-"
 298      686687FE 
 298      4FCD08C1 
 298      16FEAB49 
 298      48C26B1B 
 299 0685 AF4A7FD1 		.ascii	"\257J\177\321\347&+\245\330W\224+\245 \275\201\032\315"
 299      E7262BA5 
 299      D857942B 
 299      A520BD81 
 299      1ACD
 300 0697 5D422F80 		.ascii	"]B/\200\305\210d\024\327\231U\312\355\331\013\316.\254"
 300      C5886414 
 300      D79955CA 
 300      EDD90BCE 
 300      2EAC
 301 06a9 75A5E237 		.ascii	"u\245\3427\261\224\327Q'\244\277\333\032&\336%\351l"
 301      B194D751 
ARM GAS  /tmp/ccxQrKxw.s 			page 24


 301      27A4BFDB 
 301      1A26DE25 
 301      E96C
 302 06bb 803909CF 		.ascii	"\2009\011\317\302y1\033\370\032\352\203\277k.\217ne"
 302      C279311B 
 302      F81AEA83 
 302      BF6B2E8F 
 302      6E65
 303 06cd 7FC070CB 		.ascii	"\177\300p\313\316\337'C\361\262\377\337M\364\215\025"
 303      CEDF2743 
 303      F1B2FFDF 
 303      4DF48D15 
 304 06dd 2BDCDA27 		.ascii	"+\334\332'\024uoV\233\335\341P$\026u7lX\277\272\334"
 304      14756F56 
 304      9BDDE150 
 304      24167537 
 304      6C58BFBA 
 305 06f2 5D5757E5 		.ascii	"]WW\345^\347\255\255\377e9\273\345\013Sin\366\257h\234"
 305      5EE7ADAD 
 305      FF6539BB 
 305      E50B5369 
 305      6EF6AF68 
 306 0707 97D76664 		.ascii	"\227\327fd_\367\370F\227\007-\214\306ZV\227\3736\205"
 306      5FF7F846 
 306      97072D8C 
 306      C65A5697 
 306      FB3685
 307 071a 83215F34 		.ascii	"\203!_4\020k\013\373b_v\267E#\356`kcs\233?\340n\015"
 307      106B0BFB 
 307      625F76B7 
 307      4523EE60 
 307      6B63739B 
 308 0732 FCAA39F8 		.ascii	"\374\2529\370sw4\346\017\266\306\250\237\243\215\226"
 308      737734E6 
 308      0FB6C6A8 
 308      9FA38D96 
 309 0742 D423F6F5 		.ascii	"\324#\366\365\\f-j\343\346`k\300\355\363\007\232\324"
 309      5C662D6A 
 309      E3E6606B 
 309      C0EDF307 
 309      9AD4
 310 0754 B6E6982F 		.ascii	"\266\346\230/\366\353p J\335\356\361\371R\216E-!\177"
 310      F6EB7020 
 310      4ADDEEF1 
 310      F9528E45 
 310      2D217F
 311 0767 20620FB1 		.ascii	" b\017\261[\221\342P4\034\010\370#E\341\266\260?\"\207"
 311      5B91E250 
 311      341C08F8 
 311      2345E1B6 
 311      B03F2287 
 312 077b FC119BDA 		.ascii	"\374\021\233\332\024ifj\263\335[Q\245\306T\273\267R"
 312      1469666A 
 312      B3DD5B51 
 312      A5C654BB 
 312      B752
 313 078d 2B3C5A51 		.ascii	"+<ZQ\245\025kYQ\342\255\250\363\204Z\233\202\233\276"
ARM GAS  /tmp/ccxQrKxw.s 			page 25


 313      A5156B59 
 313      51E2ADA8 
 313      F3845A9B 
 313      829BBE
 314 07a0 901A9B2F 		.ascii	"\220\032\233/\330\032\214\331\033\241\321\311\215.V"
 314      D81A8CD9 
 314      1BA1D1C9 
 314      8D2E56
 315 07af B4BEBEAA 		.ascii	"\264\276\276\252Z\261\327o\370\211\267Z)\256o\360VW"
 315      5AB1D76F 
 315      F889B75A 
 315      29AE6FF0 
 315      5657
 316 07c1 572945DE 		.ascii	"W)E\336\215\336*E\256\245R_\245\340\037"
 316      8DDE2A45 
 316      AEA5525F 
 316      A5E01F
 317 07d0 C1F0567D 		.ascii	"\301\360V}\323\027\323\011\263\252L'\246\250\2619\240"
 317      D317D309 
 317      B3AA4C27 
 317      A6A8B139 
 317      A0
 318 07e1 46708DAD 		.ascii	"Fp\215\255\262AQlu\236\307\024[\305Z\245\216\251\032"
 318      B241516C 
 318      759EC714 
 318      5BC55AA5 
 318      8EA91A
 319 07f4 B95251EE 		.ascii	"\271RQ\356\011\206\330\264\007\375\276\230S\253\266"
 319      0986D8B4 
 319      07FDBE98 
 319      53ABB6
 320 0803 A8D15FF8 		.ascii	"\250\321_\370b\216`\210\015\327\027[\224\346G\3216E"
 320      628E6088 
 320      0DD7175B 
 320      94E647D1 
 320      3645
 321 0815 426D61D6 		.ascii	"Bma\326nc\2266fjc_\327\360K\331\030ji\011\265\272\003"
 321      6E639636 
 321      666A635F 
 321      D7F04BD9 
 321      186A6909 
 322 082c 5B626ECF 		.ascii	"[bn\317\372\206\332\006\272\242\332\242\256]\271e\213"
 322      FA86DA06 
 322      BAA2DAA2 
 322      AE5DB965 
 322      8B
 323 083d 1B46D6B4 		.ascii	"\033F\326\264r\365\312-k\350\364\226*\036\217o\003\235"
 323      72F5CA2D 
 323      6BE8F496 
 323      2A1E8F6F 
 323      039D
 324 084f D0AA4093 		.ascii	"\320\252@\223\344Ql\236\265\353\024\331S\2538*\274\225"
 324      E4516C9E 
 324      B5EB14D9 
 324      53AB382A 
 324      BC95
 325 0861 E54AC306 		.ascii	"\345J\303\006\250\254b\025{EMe\365\343J1\273\241\227"
ARM GAS  /tmp/ccxQrKxw.s 			page 26


 325      A8AC6215 
 325      7B454D65 
 325      F5E34A31 
 325      BBA197
 326 0874 AB6869AB 		.ascii	"\253hi\253\254\362P\217\006\332PS\311\354\212\030D9"
 326      ACF2508F 
 326      06DA5053 
 326      C9EC8A18 
 326      4439
 327 0886 E8D5B247 		.ascii	"\350\325\262G)w\260ie\023Y\304T\370\277p\011\306\014"
 327      2977B069 
 327      651359C4 
 327      54F8BF70 
 327      09C60C
 328              		.text
 329              		.section	.gnu.lto_.symtab.5497293772b92f41,"",%progbits
 330 0000 5F70616C 		.ascii	"_pal_lld_init\000\000\000\000\000\000\000\000\000\000"
 330      5F6C6C64 
 330      5F696E69 
 330      74000000 
 330      00000000 
 331 0017 0000A100 		.ascii	"\000\000\241\000\000\000_pal_lld_setgroupmode\000\000"
 331      00005F70 
 331      616C5F6C 
 331      6C645F73 
 331      65746772 
 332 0034 00000000 		.ascii	"\000\000\000\000\000\000\000\000\000\000\323\000\000"
 332      00000000 
 332      0000D300 
 332      00
 333 0041 00       		.ascii	"\000"
 334              		.text
 335              		.section	.gnu.lto_.opts,"",%progbits
 336 0000 272D6D63 		.ascii	"'-mcpu=cortex-m0' '-mno-thumb-interwork' '-mthumb' "
 336      70753D63 
 336      6F727465 
 336      782D6D30 
 336      2720272D 
 337 0033 272D6767 		.ascii	"'-ggdb' '-O2' '-fomit-frame-pointer' '-falign-funct"
 337      64622720 
 337      272D4F32 
 337      2720272D 
 337      666F6D69 
 338 0066 696F6E73 		.ascii	"ions=16' '-ffunction-sections' '-fdata-sections' '-"
 338      3D313627 
 338      20272D66 
 338      66756E63 
 338      74696F6E 
 339 0099 666E6F2D 		.ascii	"fno-common' '-flto'\000"
 339      636F6D6D 
 339      6F6E2720 
 339      272D666C 
 339      746F2700 
 340              		.text
 341              		.cfi_sections	.debug_frame
 342              		.section	.text._pal_lld_init,"ax",%progbits
 343              		.align	2
ARM GAS  /tmp/ccxQrKxw.s 			page 27


 344              		.p2align 4,,15
 345              		.global	_pal_lld_init
 346              		.code	16
 347              		.thumb_func
 348              		.type	_pal_lld_init, %function
 349              	_pal_lld_init:
 350              	.LFB180:
 351              		.file 1 "../../../os/hal/ports/STM32/LLD/GPIOv2/hal_pal_lld.c"
 352              		.loc 1 88 0
 353              		.cfi_startproc
 354              	.LVL0:
 355              		.loc 1 100 0
 356 0000 2A4B     		ldr	r3, .L2
 357 0002 BC22     		mov	r2, #188
 358 0004 5969     		ldr	r1, [r3, #20]
 359 0006 D203     		lsl	r2, r2, #15
 360 0008 0A43     		orr	r2, r1
 361 000a 5A61     		str	r2, [r3, #20]
 362              	.LVL1:
 363              	.LBB12:
 364              	.LBB13:
 365              		.loc 1 63 0
 366 000c 4268     		ldr	r2, [r0, #4]
 367 000e 9023     		mov	r3, #144
 368 0010 DB05     		lsl	r3, r3, #23
 369 0012 5A60     		str	r2, [r3, #4]
 370              		.loc 1 64 0
 371 0014 8268     		ldr	r2, [r0, #8]
 372              	.LBE13:
 373              	.LBE12:
 374              		.loc 1 144 0
 375              		@ sp needed
 376              	.LBB15:
 377              	.LBB14:
 378              		.loc 1 64 0
 379 0016 9A60     		str	r2, [r3, #8]
 380              		.loc 1 65 0
 381 0018 C268     		ldr	r2, [r0, #12]
 382 001a DA60     		str	r2, [r3, #12]
 383              		.loc 1 66 0
 384 001c 0269     		ldr	r2, [r0, #16]
 385 001e 5A61     		str	r2, [r3, #20]
 386              		.loc 1 67 0
 387 0020 4269     		ldr	r2, [r0, #20]
 388 0022 1A62     		str	r2, [r3, #32]
 389              		.loc 1 68 0
 390 0024 8269     		ldr	r2, [r0, #24]
 391 0026 5A62     		str	r2, [r3, #36]
 392              		.loc 1 69 0
 393 0028 0268     		ldr	r2, [r0]
 394 002a 1A60     		str	r2, [r3]
 395              	.LVL2:
 396              	.LBE14:
 397              	.LBE15:
 398              	.LBB16:
 399              	.LBB17:
 400              		.loc 1 63 0
ARM GAS  /tmp/ccxQrKxw.s 			page 28


 401 002c 026A     		ldr	r2, [r0, #32]
 402 002e 204B     		ldr	r3, .L2+4
 403 0030 5A60     		str	r2, [r3, #4]
 404              		.loc 1 64 0
 405 0032 426A     		ldr	r2, [r0, #36]
 406 0034 9A60     		str	r2, [r3, #8]
 407              		.loc 1 65 0
 408 0036 826A     		ldr	r2, [r0, #40]
 409 0038 DA60     		str	r2, [r3, #12]
 410              		.loc 1 66 0
 411 003a C26A     		ldr	r2, [r0, #44]
 412 003c 5A61     		str	r2, [r3, #20]
 413              		.loc 1 67 0
 414 003e 026B     		ldr	r2, [r0, #48]
 415 0040 1A62     		str	r2, [r3, #32]
 416              		.loc 1 68 0
 417 0042 426B     		ldr	r2, [r0, #52]
 418 0044 5A62     		str	r2, [r3, #36]
 419              		.loc 1 69 0
 420 0046 C269     		ldr	r2, [r0, #28]
 421 0048 1A60     		str	r2, [r3]
 422              	.LVL3:
 423              	.LBE17:
 424              	.LBE16:
 425              	.LBB18:
 426              	.LBB19:
 427              		.loc 1 63 0
 428 004a C26B     		ldr	r2, [r0, #60]
 429 004c 194B     		ldr	r3, .L2+8
 430 004e 5A60     		str	r2, [r3, #4]
 431              		.loc 1 64 0
 432 0050 026C     		ldr	r2, [r0, #64]
 433 0052 9A60     		str	r2, [r3, #8]
 434              		.loc 1 65 0
 435 0054 426C     		ldr	r2, [r0, #68]
 436 0056 DA60     		str	r2, [r3, #12]
 437              		.loc 1 66 0
 438 0058 826C     		ldr	r2, [r0, #72]
 439 005a 5A61     		str	r2, [r3, #20]
 440              		.loc 1 67 0
 441 005c C26C     		ldr	r2, [r0, #76]
 442 005e 1A62     		str	r2, [r3, #32]
 443              		.loc 1 68 0
 444 0060 026D     		ldr	r2, [r0, #80]
 445 0062 5A62     		str	r2, [r3, #36]
 446              		.loc 1 69 0
 447 0064 826B     		ldr	r2, [r0, #56]
 448 0066 1A60     		str	r2, [r3]
 449              	.LVL4:
 450              	.LBE19:
 451              	.LBE18:
 452              	.LBB20:
 453              	.LBB21:
 454              		.loc 1 63 0
 455 0068 826D     		ldr	r2, [r0, #88]
 456 006a 134B     		ldr	r3, .L2+12
 457 006c 5A60     		str	r2, [r3, #4]
ARM GAS  /tmp/ccxQrKxw.s 			page 29


 458              		.loc 1 64 0
 459 006e C26D     		ldr	r2, [r0, #92]
 460 0070 9A60     		str	r2, [r3, #8]
 461              		.loc 1 65 0
 462 0072 026E     		ldr	r2, [r0, #96]
 463 0074 DA60     		str	r2, [r3, #12]
 464              		.loc 1 66 0
 465 0076 426E     		ldr	r2, [r0, #100]
 466 0078 5A61     		str	r2, [r3, #20]
 467              		.loc 1 67 0
 468 007a 826E     		ldr	r2, [r0, #104]
 469 007c 1A62     		str	r2, [r3, #32]
 470              		.loc 1 68 0
 471 007e C26E     		ldr	r2, [r0, #108]
 472 0080 5A62     		str	r2, [r3, #36]
 473              		.loc 1 69 0
 474 0082 426D     		ldr	r2, [r0, #84]
 475 0084 1A60     		str	r2, [r3]
 476              	.LVL5:
 477              	.LBE21:
 478              	.LBE20:
 479              	.LBB22:
 480              	.LBB23:
 481              		.loc 1 63 0
 482 0086 426F     		ldr	r2, [r0, #116]
 483 0088 0C4B     		ldr	r3, .L2+16
 484 008a 5A60     		str	r2, [r3, #4]
 485              		.loc 1 64 0
 486 008c 826F     		ldr	r2, [r0, #120]
 487 008e 9A60     		str	r2, [r3, #8]
 488              		.loc 1 65 0
 489 0090 C26F     		ldr	r2, [r0, #124]
 490 0092 DA60     		str	r2, [r3, #12]
 491              		.loc 1 66 0
 492 0094 8022     		mov	r2, #128
 493 0096 8258     		ldr	r2, [r0, r2]
 494 0098 5A61     		str	r2, [r3, #20]
 495              		.loc 1 67 0
 496 009a 8422     		mov	r2, #132
 497 009c 8258     		ldr	r2, [r0, r2]
 498 009e 1A62     		str	r2, [r3, #32]
 499              		.loc 1 68 0
 500 00a0 8822     		mov	r2, #136
 501 00a2 8258     		ldr	r2, [r0, r2]
 502 00a4 5A62     		str	r2, [r3, #36]
 503              		.loc 1 69 0
 504 00a6 026F     		ldr	r2, [r0, #112]
 505 00a8 1A60     		str	r2, [r3]
 506              	.LBE23:
 507              	.LBE22:
 508              		.loc 1 144 0
 509 00aa 7047     		bx	lr
 510              	.L3:
 511              		.align	2
 512              	.L2:
 513 00ac 00100240 		.word	1073876992
 514 00b0 00040048 		.word	1207960576
ARM GAS  /tmp/ccxQrKxw.s 			page 30


 515 00b4 00080048 		.word	1207961600
 516 00b8 000C0048 		.word	1207962624
 517 00bc 00140048 		.word	1207964672
 518              		.cfi_endproc
 519              	.LFE180:
 520              		.size	_pal_lld_init, .-_pal_lld_init
 521              		.section	.text._pal_lld_setgroupmode,"ax",%progbits
 522              		.align	2
 523              		.p2align 4,,15
 524              		.global	_pal_lld_setgroupmode
 525              		.code	16
 526              		.thumb_func
 527              		.type	_pal_lld_setgroupmode, %function
 528              	_pal_lld_setgroupmode:
 529              	.LFB181:
 530              		.loc 1 161 0
 531              		.cfi_startproc
 532              	.LVL6:
 533 0000 F0B5     		push	{r4, r5, r6, r7, lr}
 534              		.cfi_def_cfa_offset 20
 535              		.cfi_offset 4, -20
 536              		.cfi_offset 5, -16
 537              		.cfi_offset 6, -12
 538              		.cfi_offset 7, -8
 539              		.cfi_offset 14, -4
 540 0002 5F46     		mov	r7, fp
 541 0004 5646     		mov	r6, r10
 542 0006 4D46     		mov	r5, r9
 543 0008 4446     		mov	r4, r8
 544 000a F0B4     		push	{r4, r5, r6, r7}
 545              		.cfi_def_cfa_offset 36
 546              		.cfi_offset 8, -36
 547              		.cfi_offset 9, -32
 548              		.cfi_offset 10, -28
 549              		.cfi_offset 11, -24
 550              		.loc 1 163 0
 551 000c 0324     		mov	r4, #3
 552              		.loc 1 164 0
 553 000e 5707     		lsl	r7, r2, #29
 554              		.loc 1 165 0
 555 0010 D606     		lsl	r6, r2, #27
 556              		.loc 1 166 0
 557 0012 5506     		lsl	r5, r2, #25
 558              		.loc 1 163 0
 559 0014 1440     		and	r4, r2
 560              	.LVL7:
 561              		.loc 1 167 0
 562 0016 5205     		lsl	r2, r2, #21
 563              	.LVL8:
 564 0018 120F     		lsr	r2, r2, #28
 565              		.loc 1 161 0
 566 001a 83B0     		sub	sp, sp, #12
 567              		.cfi_def_cfa_offset 48
 568              		.loc 1 166 0
 569 001c AD0F     		lsr	r5, r5, #30
 570              		.loc 1 167 0
 571 001e 9346     		mov	fp, r2
ARM GAS  /tmp/ccxQrKxw.s 			page 31


 572              		.loc 1 170 0
 573 0020 0122     		mov	r2, #1
 574              		.loc 1 164 0
 575 0022 FF0F     		lsr	r7, r7, #31
 576              	.LVL9:
 577              		.loc 1 165 0
 578 0024 B60F     		lsr	r6, r6, #30
 579              	.LVL10:
 580              		.loc 1 168 0
 581 0026 0023     		mov	r3, #0
 582              		.loc 1 170 0
 583 0028 9446     		mov	ip, r2
 584              	.LBB24:
 585              		.loc 1 187 0
 586 002a 0095     		str	r5, [sp]
 587 002c 0EE0     		b	.L11
 588              	.LVL11:
 589              	.L17:
 590              		.loc 1 194 0
 591 002e 026A     		ldr	r2, [r0, #32]
 592 0030 4D46     		mov	r5, r9
 593 0032 AA43     		bic	r2, r5
 594 0034 4546     		mov	r5, r8
 595 0036 2A43     		orr	r2, r5
 596 0038 0262     		str	r2, [r0, #32]
 597              	.LVL12:
 598              	.L5:
 599              	.LBE24:
 600              		.loc 1 199 0
 601 003a 4908     		lsr	r1, r1, #1
 602              	.LVL13:
 603              		.loc 1 200 0
 604 003c 3ED0     		beq	.L4
 605              	.L18:
 606              		.loc 1 204 0
 607 003e 009A     		ldr	r2, [sp]
 608              		.loc 1 202 0
 609 0040 7F00     		lsl	r7, r7, #1
 610              	.LVL14:
 611              		.loc 1 204 0
 612 0042 9200     		lsl	r2, r2, #2
 613              		.loc 1 203 0
 614 0044 B600     		lsl	r6, r6, #2
 615              	.LVL15:
 616              		.loc 1 204 0
 617 0046 0092     		str	r2, [sp]
 618              	.LVL16:
 619              		.loc 1 205 0
 620 0048 A400     		lsl	r4, r4, #2
 621              	.LVL17:
 622              		.loc 1 206 0
 623 004a 0133     		add	r3, r3, #1
 624              	.LVL18:
 625              	.L11:
 626              		.loc 1 170 0
 627 004c 6546     		mov	r5, ip
 628 004e 0D42     		tst	r5, r1
ARM GAS  /tmp/ccxQrKxw.s 			page 32


 629 0050 F3D0     		beq	.L5
 630              	.LBB25:
 631              		.loc 1 173 0
 632 0052 0722     		mov	r2, #7
 633 0054 1A40     		and	r2, r3
 634 0056 9500     		lsl	r5, r2, #2
 635 0058 5A46     		mov	r2, fp
 636 005a AA40     		lsl	r2, r2, r5
 637 005c 9046     		mov	r8, r2
 638              	.LVL19:
 639              		.loc 1 176 0
 640 005e 0F22     		mov	r2, #15
 641              	.LVL20:
 642 0060 AA40     		lsl	r2, r2, r5
 643 0062 9146     		mov	r9, r2
 644              	.LVL21:
 645              		.loc 1 177 0
 646 0064 4568     		ldr	r5, [r0, #4]
 647              		.loc 1 174 0
 648 0066 6246     		mov	r2, ip
 649              	.LVL22:
 650 0068 9A40     		lsl	r2, r2, r3
 651              		.loc 1 177 0
 652 006a 9543     		bic	r5, r2
 653 006c 2A1C     		mov	r2, r5
 654 006e 3A43     		orr	r2, r7
 655 0070 4260     		str	r2, [r0, #4]
 656              		.loc 1 178 0
 657 0072 8568     		ldr	r5, [r0, #8]
 658              		.loc 1 175 0
 659 0074 0322     		mov	r2, #3
 660              		.loc 1 178 0
 661 0076 AA46     		mov	r10, r5
 662 0078 5D00     		lsl	r5, r3, #1
 663              		.loc 1 175 0
 664 007a AA40     		lsl	r2, r2, r5
 665              	.LVL23:
 666              		.loc 1 178 0
 667 007c D543     		mvn	r5, r2
 668 007e 5246     		mov	r2, r10
 669              	.LVL24:
 670 0080 2A40     		and	r2, r5
 671 0082 3243     		orr	r2, r6
 672 0084 8260     		str	r2, [r0, #8]
 673 0086 0195     		str	r5, [sp, #4]
 674              		.loc 1 179 0
 675 0088 C568     		ldr	r5, [r0, #12]
 676              	.LVL25:
 677 008a 2A1C     		mov	r2, r5
 678 008c 019D     		ldr	r5, [sp, #4]
 679 008e 2A40     		and	r2, r5
 680 0090 009D     		ldr	r5, [sp]
 681 0092 2A43     		orr	r2, r5
 682 0094 C260     		str	r2, [r0, #12]
 683              		.loc 1 180 0
 684 0096 022C     		cmp	r4, #2
 685 0098 17D0     		beq	.L16
ARM GAS  /tmp/ccxQrKxw.s 			page 33


 686              		.loc 1 192 0
 687 009a 0268     		ldr	r2, [r0]
 688 009c 9246     		mov	r10, r2
 689 009e 019A     		ldr	r2, [sp, #4]
 690 00a0 5546     		mov	r5, r10
 691 00a2 2A40     		and	r2, r5
 692 00a4 2243     		orr	r2, r4
 693 00a6 0260     		str	r2, [r0]
 694              		.loc 1 193 0
 695 00a8 072B     		cmp	r3, #7
 696 00aa C0D9     		bls	.L17
 697              		.loc 1 196 0
 698 00ac 426A     		ldr	r2, [r0, #36]
 699 00ae 4D46     		mov	r5, r9
 700 00b0 AA43     		bic	r2, r5
 701 00b2 4546     		mov	r5, r8
 702 00b4 2A43     		orr	r2, r5
 703 00b6 4262     		str	r2, [r0, #36]
 704              	.LBE25:
 705              		.loc 1 199 0
 706 00b8 4908     		lsr	r1, r1, #1
 707              	.LVL26:
 708              		.loc 1 200 0
 709 00ba C0D1     		bne	.L18
 710              	.LVL27:
 711              	.L4:
 712              		.loc 1 208 0
 713 00bc 03B0     		add	sp, sp, #12
 714              	.LVL28:
 715              		@ sp needed
 716              	.LVL29:
 717              	.LVL30:
 718              	.LVL31:
 719              	.LVL32:
 720 00be 3CBC     		pop	{r2, r3, r4, r5}
 721 00c0 9046     		mov	r8, r2
 722 00c2 9946     		mov	r9, r3
 723 00c4 A246     		mov	r10, r4
 724 00c6 AB46     		mov	fp, r5
 725 00c8 F0BD     		pop	{r4, r5, r6, r7, pc}
 726              	.LVL33:
 727              	.L16:
 728              	.LBB26:
 729              		.loc 1 183 0
 730 00ca 072B     		cmp	r3, #7
 731 00cc 0FD8     		bhi	.L7
 732              		.loc 1 184 0
 733 00ce 026A     		ldr	r2, [r0, #32]
 734 00d0 151C     		mov	r5, r2
 735              	.LVL34:
 736 00d2 4A46     		mov	r2, r9
 737 00d4 9543     		bic	r5, r2
 738 00d6 4246     		mov	r2, r8
 739 00d8 1543     		orr	r5, r2
 740 00da 0562     		str	r5, [r0, #32]
 741              	.L8:
 742              		.loc 1 187 0 discriminator 1
ARM GAS  /tmp/ccxQrKxw.s 			page 34


 743 00dc 0268     		ldr	r2, [r0]
 744 00de 9046     		mov	r8, r2
 745              	.LVL35:
 746 00e0 019A     		ldr	r2, [sp, #4]
 747 00e2 4546     		mov	r5, r8
 748 00e4 2A40     		and	r2, r5
 749 00e6 0225     		mov	r5, #2
 750 00e8 2A43     		orr	r2, r5
 751 00ea 0260     		str	r2, [r0]
 752 00ec A5E7     		b	.L5
 753              	.LVL36:
 754              	.L7:
 755              		.loc 1 186 0
 756 00ee 456A     		ldr	r5, [r0, #36]
 757              	.LVL37:
 758 00f0 2A1C     		mov	r2, r5
 759 00f2 4D46     		mov	r5, r9
 760 00f4 AA43     		bic	r2, r5
 761 00f6 4546     		mov	r5, r8
 762 00f8 2A43     		orr	r2, r5
 763 00fa 4262     		str	r2, [r0, #36]
 764 00fc EEE7     		b	.L8
 765              	.LBE26:
 766              		.cfi_endproc
 767              	.LFE181:
 768              		.size	_pal_lld_setgroupmode, .-_pal_lld_setgroupmode
 769 00fe C046     		.text
 770              	.Letext0:
 771              		.file 2 "/usr/include/newlib/machine/_default_types.h"
 772              		.file 3 "/usr/include/newlib/stdint.h"
 773              		.file 4 "../../../os/common/ports/ARMCMx/compilers/GCC/chtypes.h"
 774              		.file 5 "../../../os/rt/include/chsystypes.h"
 775              		.file 6 "../../../os/rt/include/chschd.h"
 776              		.file 7 "../../../os/common/ext/CMSIS/ST/STM32F0xx/stm32f030x8.h"
 777              		.file 8 "../../../os/common/ports/ARMCMx/chcore.h"
 778              		.file 9 "../../../os/common/ports/ARMCMx/chcore_v6m.h"
 779              		.file 10 "../../../os/rt/include/chsem.h"
 780              		.file 11 "../../../os/rt/include/chmtx.h"
 781              		.file 12 "../../../os/hal/ports/STM32/LLD/GPIOv2/hal_pal_lld.h"
 782              		.section	.debug_info,"",%progbits
 783              	.Ldebug_info0:
 784 0000 5E0A0000 		.4byte	0xa5e
 785 0004 0400     		.2byte	0x4
 786 0006 00000000 		.4byte	.Ldebug_abbrev0
 787 000a 04       		.byte	0x4
 788 000b 01       		.uleb128 0x1
 789 000c 02010000 		.4byte	.LASF135
 790 0010 01       		.byte	0x1
 791 0011 07040000 		.4byte	.LASF136
 792 0015 B6050000 		.4byte	.LASF137
 793 0019 38000000 		.4byte	.Ldebug_ranges0+0x38
 794 001d 00000000 		.4byte	0
 795 0021 00000000 		.4byte	.Ldebug_line0
 796 0025 02       		.uleb128 0x2
 797 0026 04       		.byte	0x4
 798 0027 05       		.byte	0x5
 799 0028 696E7400 		.ascii	"int\000"
ARM GAS  /tmp/ccxQrKxw.s 			page 35


 800 002c 03       		.uleb128 0x3
 801 002d 04       		.byte	0x4
 802 002e 07       		.byte	0x7
 803 002f 5F000000 		.4byte	.LASF0
 804 0033 03       		.uleb128 0x3
 805 0034 01       		.byte	0x1
 806 0035 06       		.byte	0x6
 807 0036 69050000 		.4byte	.LASF1
 808 003a 04       		.uleb128 0x4
 809 003b 7F040000 		.4byte	.LASF4
 810 003f 02       		.byte	0x2
 811 0040 1D       		.byte	0x1d
 812 0041 45000000 		.4byte	0x45
 813 0045 03       		.uleb128 0x3
 814 0046 01       		.byte	0x1
 815 0047 08       		.byte	0x8
 816 0048 F6040000 		.4byte	.LASF2
 817 004c 03       		.uleb128 0x3
 818 004d 02       		.byte	0x2
 819 004e 05       		.byte	0x5
 820 004f E8030000 		.4byte	.LASF3
 821 0053 04       		.uleb128 0x4
 822 0054 0E020000 		.4byte	.LASF5
 823 0058 02       		.byte	0x2
 824 0059 2B       		.byte	0x2b
 825 005a 5E000000 		.4byte	0x5e
 826 005e 03       		.uleb128 0x3
 827 005f 02       		.byte	0x2
 828 0060 07       		.byte	0x7
 829 0061 7B050000 		.4byte	.LASF6
 830 0065 04       		.uleb128 0x4
 831 0066 8A000000 		.4byte	.LASF7
 832 006a 02       		.byte	0x2
 833 006b 3F       		.byte	0x3f
 834 006c 70000000 		.4byte	0x70
 835 0070 03       		.uleb128 0x3
 836 0071 04       		.byte	0x4
 837 0072 05       		.byte	0x5
 838 0073 F2030000 		.4byte	.LASF8
 839 0077 04       		.uleb128 0x4
 840 0078 09050000 		.4byte	.LASF9
 841 007c 02       		.byte	0x2
 842 007d 41       		.byte	0x41
 843 007e 82000000 		.4byte	0x82
 844 0082 03       		.uleb128 0x3
 845 0083 04       		.byte	0x4
 846 0084 07       		.byte	0x7
 847 0085 AF040000 		.4byte	.LASF10
 848 0089 03       		.uleb128 0x3
 849 008a 08       		.byte	0x8
 850 008b 05       		.byte	0x5
 851 008c 43030000 		.4byte	.LASF11
 852 0090 04       		.uleb128 0x4
 853 0091 B1020000 		.4byte	.LASF12
 854 0095 02       		.byte	0x2
 855 0096 5B       		.byte	0x5b
 856 0097 9B000000 		.4byte	0x9b
ARM GAS  /tmp/ccxQrKxw.s 			page 36


 857 009b 03       		.uleb128 0x3
 858 009c 08       		.byte	0x8
 859 009d 07       		.byte	0x7
 860 009e F7010000 		.4byte	.LASF13
 861 00a2 04       		.uleb128 0x4
 862 00a3 19030000 		.4byte	.LASF14
 863 00a7 03       		.byte	0x3
 864 00a8 2A       		.byte	0x2a
 865 00a9 3A000000 		.4byte	0x3a
 866 00ad 04       		.uleb128 0x4
 867 00ae D1030000 		.4byte	.LASF15
 868 00b2 03       		.byte	0x3
 869 00b3 36       		.byte	0x36
 870 00b4 53000000 		.4byte	0x53
 871 00b8 04       		.uleb128 0x4
 872 00b9 D4040000 		.4byte	.LASF16
 873 00bd 03       		.byte	0x3
 874 00be 41       		.byte	0x41
 875 00bf 65000000 		.4byte	0x65
 876 00c3 04       		.uleb128 0x4
 877 00c4 A5010000 		.4byte	.LASF17
 878 00c8 03       		.byte	0x3
 879 00c9 42       		.byte	0x42
 880 00ca 77000000 		.4byte	0x77
 881 00ce 04       		.uleb128 0x4
 882 00cf 5D040000 		.4byte	.LASF18
 883 00d3 03       		.byte	0x3
 884 00d4 4E       		.byte	0x4e
 885 00d5 90000000 		.4byte	0x90
 886 00d9 04       		.uleb128 0x4
 887 00da B6030000 		.4byte	.LASF19
 888 00de 04       		.byte	0x4
 889 00df 3C       		.byte	0x3c
 890 00e0 A2000000 		.4byte	0xa2
 891 00e4 04       		.uleb128 0x4
 892 00e5 09030000 		.4byte	.LASF20
 893 00e9 04       		.byte	0x4
 894 00ea 3D       		.byte	0x3d
 895 00eb A2000000 		.4byte	0xa2
 896 00ef 04       		.uleb128 0x4
 897 00f0 A1040000 		.4byte	.LASF21
 898 00f4 04       		.byte	0x4
 899 00f5 3E       		.byte	0x3e
 900 00f6 A2000000 		.4byte	0xa2
 901 00fa 04       		.uleb128 0x4
 902 00fb DE010000 		.4byte	.LASF22
 903 00ff 04       		.byte	0x4
 904 0100 40       		.byte	0x40
 905 0101 C3000000 		.4byte	0xc3
 906 0105 04       		.uleb128 0x4
 907 0106 51030000 		.4byte	.LASF23
 908 010a 04       		.byte	0x4
 909 010b 41       		.byte	0x41
 910 010c B8000000 		.4byte	0xb8
 911 0110 04       		.uleb128 0x4
 912 0111 B6010000 		.4byte	.LASF24
 913 0115 04       		.byte	0x4
ARM GAS  /tmp/ccxQrKxw.s 			page 37


 914 0116 43       		.byte	0x43
 915 0117 C3000000 		.4byte	0xc3
 916 011b 04       		.uleb128 0x4
 917 011c 19020000 		.4byte	.LASF25
 918 0120 04       		.byte	0x4
 919 0121 45       		.byte	0x45
 920 0122 B8000000 		.4byte	0xb8
 921 0126 04       		.uleb128 0x4
 922 0127 43000000 		.4byte	.LASF26
 923 012b 05       		.byte	0x5
 924 012c 35       		.byte	0x35
 925 012d AD000000 		.4byte	0xad
 926 0131 04       		.uleb128 0x4
 927 0132 85020000 		.4byte	.LASF27
 928 0136 05       		.byte	0x5
 929 0137 3F       		.byte	0x3f
 930 0138 3C010000 		.4byte	0x13c
 931 013c 05       		.uleb128 0x5
 932 013d 2A030000 		.4byte	.LASF45
 933 0141 44       		.byte	0x44
 934 0142 06       		.byte	0x6
 935 0143 9A       		.byte	0x9a
 936 0144 1A020000 		.4byte	0x21a
 937 0148 06       		.uleb128 0x6
 938 0149 CE040000 		.4byte	.LASF28
 939 014d 06       		.byte	0x6
 940 014e 9B       		.byte	0x9b
 941 014f 4F020000 		.4byte	0x24f
 942 0153 00       		.byte	0
 943 0154 06       		.uleb128 0x6
 944 0155 D6020000 		.4byte	.LASF29
 945 0159 06       		.byte	0x6
 946 015a 9C       		.byte	0x9c
 947 015b FA000000 		.4byte	0xfa
 948 015f 08       		.byte	0x8
 949 0160 07       		.uleb128 0x7
 950 0161 63747800 		.ascii	"ctx\000"
 951 0165 06       		.byte	0x6
 952 0166 9D       		.byte	0x9d
 953 0167 0B050000 		.4byte	0x50b
 954 016b 0C       		.byte	0xc
 955 016c 06       		.uleb128 0x6
 956 016d F0040000 		.4byte	.LASF30
 957 0171 06       		.byte	0x6
 958 0172 9F       		.byte	0x9f
 959 0173 25020000 		.4byte	0x225
 960 0177 10       		.byte	0x10
 961 0178 06       		.uleb128 0x6
 962 0179 B0050000 		.4byte	.LASF31
 963 017d 06       		.byte	0x6
 964 017e A0       		.byte	0xa0
 965 017f 25020000 		.4byte	0x225
 966 0183 14       		.byte	0x14
 967 0184 06       		.uleb128 0x6
 968 0185 89040000 		.4byte	.LASF32
 969 0189 06       		.byte	0x6
 970 018a A7       		.byte	0xa7
ARM GAS  /tmp/ccxQrKxw.s 			page 38


 971 018b 66060000 		.4byte	0x666
 972 018f 18       		.byte	0x18
 973 0190 06       		.uleb128 0x6
 974 0191 F9020000 		.4byte	.LASF33
 975 0195 06       		.byte	0x6
 976 0196 B0       		.byte	0xb0
 977 0197 78060000 		.4byte	0x678
 978 019b 1C       		.byte	0x1c
 979 019c 06       		.uleb128 0x6
 980 019d 32050000 		.4byte	.LASF34
 981 01a1 06       		.byte	0x6
 982 01a2 B5       		.byte	0xb5
 983 01a3 E4000000 		.4byte	0xe4
 984 01a7 20       		.byte	0x20
 985 01a8 06       		.uleb128 0x6
 986 01a9 3D000000 		.4byte	.LASF35
 987 01ad 06       		.byte	0x6
 988 01ae B9       		.byte	0xb9
 989 01af D9000000 		.4byte	0xd9
 990 01b3 21       		.byte	0x21
 991 01b4 06       		.uleb128 0x6
 992 01b5 94000000 		.4byte	.LASF36
 993 01b9 06       		.byte	0x6
 994 01ba BE       		.byte	0xbe
 995 01bb EF000000 		.4byte	0xef
 996 01bf 22       		.byte	0x22
 997 01c0 08       		.uleb128 0x8
 998 01c1 7500     		.ascii	"u\000"
 999 01c3 06       		.byte	0x6
 1000 01c4 0F01     		.2byte	0x10f
 1001 01c6 9B050000 		.4byte	0x59b
 1002 01ca 24       		.byte	0x24
 1003 01cb 09       		.uleb128 0x9
 1004 01cc 14050000 		.4byte	.LASF37
 1005 01d0 06       		.byte	0x6
 1006 01d1 1401     		.2byte	0x114
 1007 01d3 2B020000 		.4byte	0x22b
 1008 01d7 28       		.byte	0x28
 1009 01d8 09       		.uleb128 0x9
 1010 01d9 21030000 		.4byte	.LASF38
 1011 01dd 06       		.byte	0x6
 1012 01de 1A01     		.2byte	0x11a
 1013 01e0 4F020000 		.4byte	0x24f
 1014 01e4 2C       		.byte	0x2c
 1015 01e5 09       		.uleb128 0x9
 1016 01e6 56000000 		.4byte	.LASF39
 1017 01ea 06       		.byte	0x6
 1018 01eb 2001     		.2byte	0x120
 1019 01ed 10010000 		.4byte	0x110
 1020 01f1 34       		.byte	0x34
 1021 01f2 09       		.uleb128 0x9
 1022 01f3 66020000 		.4byte	.LASF40
 1023 01f7 06       		.byte	0x6
 1024 01f8 2701     		.2byte	0x127
 1025 01fa 60060000 		.4byte	0x660
 1026 01fe 38       		.byte	0x38
 1027 01ff 09       		.uleb128 0x9
ARM GAS  /tmp/ccxQrKxw.s 			page 39


 1028 0200 4D000000 		.4byte	.LASF41
 1029 0204 06       		.byte	0x6
 1030 0205 2B01     		.2byte	0x12b
 1031 0207 FA000000 		.4byte	0xfa
 1032 020b 3C       		.byte	0x3c
 1033 020c 09       		.uleb128 0x9
 1034 020d 00060000 		.4byte	.LASF42
 1035 0211 06       		.byte	0x6
 1036 0212 3201     		.2byte	0x132
 1037 0214 02030000 		.4byte	0x302
 1038 0218 40       		.byte	0x40
 1039 0219 00       		.byte	0
 1040 021a 04       		.uleb128 0x4
 1041 021b E6020000 		.4byte	.LASF43
 1042 021f 05       		.byte	0x5
 1043 0220 44       		.byte	0x44
 1044 0221 25020000 		.4byte	0x225
 1045 0225 0A       		.uleb128 0xa
 1046 0226 04       		.byte	0x4
 1047 0227 31010000 		.4byte	0x131
 1048 022b 04       		.uleb128 0x4
 1049 022c 71000000 		.4byte	.LASF44
 1050 0230 05       		.byte	0x5
 1051 0231 49       		.byte	0x49
 1052 0232 36020000 		.4byte	0x236
 1053 0236 05       		.uleb128 0x5
 1054 0237 00000000 		.4byte	.LASF46
 1055 023b 04       		.byte	0x4
 1056 023c 06       		.byte	0x6
 1057 023d 88       		.byte	0x88
 1058 023e 4F020000 		.4byte	0x24f
 1059 0242 06       		.uleb128 0x6
 1060 0243 6C000000 		.4byte	.LASF47
 1061 0247 06       		.byte	0x6
 1062 0248 89       		.byte	0x89
 1063 0249 25020000 		.4byte	0x225
 1064 024d 00       		.byte	0
 1065 024e 00       		.byte	0
 1066 024f 04       		.uleb128 0x4
 1067 0250 50020000 		.4byte	.LASF48
 1068 0254 05       		.byte	0x5
 1069 0255 50       		.byte	0x50
 1070 0256 5A020000 		.4byte	0x25a
 1071 025a 05       		.uleb128 0x5
 1072 025b D8000000 		.4byte	.LASF49
 1073 025f 08       		.byte	0x8
 1074 0260 06       		.byte	0x6
 1075 0261 8F       		.byte	0x8f
 1076 0262 7F020000 		.4byte	0x27f
 1077 0266 06       		.uleb128 0x6
 1078 0267 6C000000 		.4byte	.LASF47
 1079 026b 06       		.byte	0x6
 1080 026c 90       		.byte	0x90
 1081 026d 25020000 		.4byte	0x225
 1082 0271 00       		.byte	0
 1083 0272 06       		.uleb128 0x6
 1084 0273 D3000000 		.4byte	.LASF50
ARM GAS  /tmp/ccxQrKxw.s 			page 40


 1085 0277 06       		.byte	0x6
 1086 0278 91       		.byte	0x91
 1087 0279 25020000 		.4byte	0x225
 1088 027d 04       		.byte	0x4
 1089 027e 00       		.byte	0
 1090 027f 04       		.uleb128 0x4
 1091 0280 C1040000 		.4byte	.LASF51
 1092 0284 05       		.byte	0x5
 1093 0285 57       		.byte	0x57
 1094 0286 8A020000 		.4byte	0x28a
 1095 028a 0B       		.uleb128 0xb
 1096 028b B4000000 		.4byte	.LASF52
 1097 028f 1C       		.byte	0x1c
 1098 0290 06       		.byte	0x6
 1099 0291 6A01     		.2byte	0x16a
 1100 0293 E6020000 		.4byte	0x2e6
 1101 0297 09       		.uleb128 0x9
 1102 0298 CE040000 		.4byte	.LASF28
 1103 029c 06       		.byte	0x6
 1104 029d 6B01     		.2byte	0x16b
 1105 029f 4F020000 		.4byte	0x24f
 1106 02a3 00       		.byte	0
 1107 02a4 09       		.uleb128 0x9
 1108 02a5 D6020000 		.4byte	.LASF29
 1109 02a9 06       		.byte	0x6
 1110 02aa 6C01     		.2byte	0x16c
 1111 02ac FA000000 		.4byte	0xfa
 1112 02b0 08       		.byte	0x8
 1113 02b1 08       		.uleb128 0x8
 1114 02b2 63747800 		.ascii	"ctx\000"
 1115 02b6 06       		.byte	0x6
 1116 02b7 6E01     		.2byte	0x16e
 1117 02b9 0B050000 		.4byte	0x50b
 1118 02bd 0C       		.byte	0xc
 1119 02be 09       		.uleb128 0x9
 1120 02bf F0040000 		.4byte	.LASF30
 1121 02c3 06       		.byte	0x6
 1122 02c4 7101     		.2byte	0x171
 1123 02c6 25020000 		.4byte	0x225
 1124 02ca 10       		.byte	0x10
 1125 02cb 09       		.uleb128 0x9
 1126 02cc B0050000 		.4byte	.LASF31
 1127 02d0 06       		.byte	0x6
 1128 02d1 7201     		.2byte	0x172
 1129 02d3 25020000 		.4byte	0x225
 1130 02d7 14       		.byte	0x14
 1131 02d8 09       		.uleb128 0x9
 1132 02d9 99050000 		.4byte	.LASF53
 1133 02dd 06       		.byte	0x6
 1134 02de 7501     		.2byte	0x175
 1135 02e0 25020000 		.4byte	0x225
 1136 02e4 18       		.byte	0x18
 1137 02e5 00       		.byte	0
 1138 02e6 04       		.uleb128 0x4
 1139 02e7 E9000000 		.4byte	.LASF54
 1140 02eb 05       		.byte	0x5
 1141 02ec 5C       		.byte	0x5c
ARM GAS  /tmp/ccxQrKxw.s 			page 41


 1142 02ed F1020000 		.4byte	0x2f1
 1143 02f1 0A       		.uleb128 0xa
 1144 02f2 04       		.byte	0x4
 1145 02f3 F7020000 		.4byte	0x2f7
 1146 02f7 0C       		.uleb128 0xc
 1147 02f8 02030000 		.4byte	0x302
 1148 02fc 0D       		.uleb128 0xd
 1149 02fd 02030000 		.4byte	0x302
 1150 0301 00       		.byte	0
 1151 0302 0E       		.uleb128 0xe
 1152 0303 04       		.byte	0x4
 1153 0304 04       		.uleb128 0x4
 1154 0305 5D030000 		.4byte	.LASF55
 1155 0309 05       		.byte	0x5
 1156 030a 61       		.byte	0x61
 1157 030b 0F030000 		.4byte	0x30f
 1158 030f 0B       		.uleb128 0xb
 1159 0310 E6010000 		.4byte	.LASF56
 1160 0314 14       		.byte	0x14
 1161 0315 06       		.byte	0x6
 1162 0316 4501     		.2byte	0x145
 1163 0318 5E030000 		.4byte	0x35e
 1164 031c 09       		.uleb128 0x9
 1165 031d 6C000000 		.4byte	.LASF47
 1166 0321 06       		.byte	0x6
 1167 0322 4601     		.2byte	0x146
 1168 0324 7E060000 		.4byte	0x67e
 1169 0328 00       		.byte	0
 1170 0329 09       		.uleb128 0x9
 1171 032a D3000000 		.4byte	.LASF50
 1172 032e 06       		.byte	0x6
 1173 032f 4701     		.2byte	0x147
 1174 0331 7E060000 		.4byte	0x67e
 1175 0335 04       		.byte	0x4
 1176 0336 09       		.uleb128 0x9
 1177 0337 75050000 		.4byte	.LASF57
 1178 033b 06       		.byte	0x6
 1179 033c 4801     		.2byte	0x148
 1180 033e 26010000 		.4byte	0x126
 1181 0342 08       		.byte	0x8
 1182 0343 09       		.uleb128 0x9
 1183 0344 C2000000 		.4byte	.LASF58
 1184 0348 06       		.byte	0x6
 1185 0349 4901     		.2byte	0x149
 1186 034b E6020000 		.4byte	0x2e6
 1187 034f 0C       		.byte	0xc
 1188 0350 08       		.uleb128 0x8
 1189 0351 70617200 		.ascii	"par\000"
 1190 0355 06       		.byte	0x6
 1191 0356 4B01     		.2byte	0x14b
 1192 0358 02030000 		.4byte	0x302
 1193 035c 10       		.byte	0x10
 1194 035d 00       		.byte	0
 1195 035e 04       		.uleb128 0x4
 1196 035f 1C050000 		.4byte	.LASF59
 1197 0363 05       		.byte	0x5
 1198 0364 66       		.byte	0x66
ARM GAS  /tmp/ccxQrKxw.s 			page 42


 1199 0365 69030000 		.4byte	0x369
 1200 0369 0B       		.uleb128 0xb
 1201 036a 6E020000 		.4byte	.LASF60
 1202 036e 0C       		.byte	0xc
 1203 036f 06       		.byte	0x6
 1204 0370 5501     		.2byte	0x155
 1205 0372 AB030000 		.4byte	0x3ab
 1206 0376 09       		.uleb128 0x9
 1207 0377 6C000000 		.4byte	.LASF47
 1208 037b 06       		.byte	0x6
 1209 037c 5601     		.2byte	0x156
 1210 037e 7E060000 		.4byte	0x67e
 1211 0382 00       		.byte	0
 1212 0383 09       		.uleb128 0x9
 1213 0384 D3000000 		.4byte	.LASF50
 1214 0388 06       		.byte	0x6
 1215 0389 5801     		.2byte	0x158
 1216 038b 7E060000 		.4byte	0x67e
 1217 038f 04       		.byte	0x4
 1218 0390 09       		.uleb128 0x9
 1219 0391 75050000 		.4byte	.LASF57
 1220 0395 06       		.byte	0x6
 1221 0396 5A01     		.2byte	0x15a
 1222 0398 26010000 		.4byte	0x126
 1223 039c 08       		.byte	0x8
 1224 039d 09       		.uleb128 0x9
 1225 039e 54040000 		.4byte	.LASF61
 1226 03a2 06       		.byte	0x6
 1227 03a3 6201     		.2byte	0x162
 1228 03a5 26010000 		.4byte	0x126
 1229 03a9 0A       		.byte	0xa
 1230 03aa 00       		.byte	0
 1231 03ab 04       		.uleb128 0x4
 1232 03ac 34030000 		.4byte	.LASF62
 1233 03b0 05       		.byte	0x5
 1234 03b1 6B       		.byte	0x6b
 1235 03b2 B6030000 		.4byte	0x3b6
 1236 03b6 0B       		.uleb128 0xb
 1237 03b7 F2000000 		.4byte	.LASF63
 1238 03bb 04       		.byte	0x4
 1239 03bc 06       		.byte	0x6
 1240 03bd 7C01     		.2byte	0x17c
 1241 03bf D1030000 		.4byte	0x3d1
 1242 03c3 09       		.uleb128 0x9
 1243 03c4 A6030000 		.4byte	.LASF64
 1244 03c8 06       		.byte	0x6
 1245 03c9 8401     		.2byte	0x184
 1246 03cb 84060000 		.4byte	0x684
 1247 03cf 00       		.byte	0
 1248 03d0 00       		.byte	0
 1249 03d1 04       		.uleb128 0x4
 1250 03d2 57050000 		.4byte	.LASF65
 1251 03d6 05       		.byte	0x5
 1252 03d7 70       		.byte	0x70
 1253 03d8 DC030000 		.4byte	0x3dc
 1254 03dc 0B       		.uleb128 0xb
 1255 03dd 43040000 		.4byte	.LASF66
ARM GAS  /tmp/ccxQrKxw.s 			page 43


 1256 03e1 70       		.byte	0x70
 1257 03e2 06       		.byte	0x6
 1258 03e3 9C01     		.2byte	0x19c
 1259 03e5 1E040000 		.4byte	0x41e
 1260 03e9 09       		.uleb128 0x9
 1261 03ea 6B040000 		.4byte	.LASF67
 1262 03ee 06       		.byte	0x6
 1263 03ef A001     		.2byte	0x1a0
 1264 03f1 7F020000 		.4byte	0x27f
 1265 03f5 00       		.byte	0
 1266 03f6 09       		.uleb128 0x9
 1267 03f7 A0000000 		.4byte	.LASF68
 1268 03fb 06       		.byte	0x6
 1269 03fc A401     		.2byte	0x1a4
 1270 03fe 5E030000 		.4byte	0x35e
 1271 0402 1C       		.byte	0x1c
 1272 0403 08       		.uleb128 0x8
 1273 0404 64626700 		.ascii	"dbg\000"
 1274 0408 06       		.byte	0x6
 1275 0409 A801     		.2byte	0x1a8
 1276 040b AB030000 		.4byte	0x3ab
 1277 040f 28       		.byte	0x28
 1278 0410 09       		.uleb128 0x9
 1279 0411 BE030000 		.4byte	.LASF69
 1280 0415 06       		.byte	0x6
 1281 0416 AC01     		.2byte	0x1ac
 1282 0418 31010000 		.4byte	0x131
 1283 041c 2C       		.byte	0x2c
 1284 041d 00       		.byte	0
 1285 041e 03       		.uleb128 0x3
 1286 041f 04       		.byte	0x4
 1287 0420 07       		.byte	0x7
 1288 0421 98040000 		.4byte	.LASF70
 1289 0425 0F       		.uleb128 0xf
 1290 0426 C3000000 		.4byte	0xc3
 1291 042a 10       		.uleb128 0x10
 1292 042b 38       		.byte	0x38
 1293 042c 07       		.byte	0x7
 1294 042d 4601     		.2byte	0x146
 1295 042f E9040000 		.4byte	0x4e9
 1296 0433 08       		.uleb128 0x8
 1297 0434 435200   		.ascii	"CR\000"
 1298 0437 07       		.byte	0x7
 1299 0438 4801     		.2byte	0x148
 1300 043a 25040000 		.4byte	0x425
 1301 043e 00       		.byte	0
 1302 043f 09       		.uleb128 0x9
 1303 0440 66040000 		.4byte	.LASF71
 1304 0444 07       		.byte	0x7
 1305 0445 4901     		.2byte	0x149
 1306 0447 25040000 		.4byte	0x425
 1307 044b 04       		.byte	0x4
 1308 044c 08       		.uleb128 0x8
 1309 044d 43495200 		.ascii	"CIR\000"
 1310 0451 07       		.byte	0x7
 1311 0452 4A01     		.2byte	0x14a
 1312 0454 25040000 		.4byte	0x425
ARM GAS  /tmp/ccxQrKxw.s 			page 44


 1313 0458 08       		.byte	0x8
 1314 0459 09       		.uleb128 0x9
 1315 045a 34000000 		.4byte	.LASF72
 1316 045e 07       		.byte	0x7
 1317 045f 4B01     		.2byte	0x14b
 1318 0461 25040000 		.4byte	0x425
 1319 0465 0C       		.byte	0xc
 1320 0466 09       		.uleb128 0x9
 1321 0467 CD020000 		.4byte	.LASF73
 1322 046b 07       		.byte	0x7
 1323 046c 4C01     		.2byte	0x14c
 1324 046e 25040000 		.4byte	0x425
 1325 0472 10       		.byte	0x10
 1326 0473 09       		.uleb128 0x9
 1327 0474 12030000 		.4byte	.LASF74
 1328 0478 07       		.byte	0x7
 1329 0479 4D01     		.2byte	0x14d
 1330 047b 25040000 		.4byte	0x425
 1331 047f 14       		.byte	0x14
 1332 0480 09       		.uleb128 0x9
 1333 0481 9E030000 		.4byte	.LASF75
 1334 0485 07       		.byte	0x7
 1335 0486 4E01     		.2byte	0x14e
 1336 0488 25040000 		.4byte	0x425
 1337 048c 18       		.byte	0x18
 1338 048d 09       		.uleb128 0x9
 1339 048e 10000000 		.4byte	.LASF76
 1340 0492 07       		.byte	0x7
 1341 0493 4F01     		.2byte	0x14f
 1342 0495 25040000 		.4byte	0x425
 1343 0499 1C       		.byte	0x1c
 1344 049a 09       		.uleb128 0x9
 1345 049b 85000000 		.4byte	.LASF77
 1346 049f 07       		.byte	0x7
 1347 04a0 5001     		.2byte	0x150
 1348 04a2 25040000 		.4byte	0x425
 1349 04a6 20       		.byte	0x20
 1350 04a7 08       		.uleb128 0x8
 1351 04a8 43535200 		.ascii	"CSR\000"
 1352 04ac 07       		.byte	0x7
 1353 04ad 5101     		.2byte	0x151
 1354 04af 25040000 		.4byte	0x425
 1355 04b3 24       		.byte	0x24
 1356 04b4 09       		.uleb128 0x9
 1357 04b5 C2010000 		.4byte	.LASF78
 1358 04b9 07       		.byte	0x7
 1359 04ba 5201     		.2byte	0x152
 1360 04bc 25040000 		.4byte	0x425
 1361 04c0 28       		.byte	0x28
 1362 04c1 09       		.uleb128 0x9
 1363 04c2 92030000 		.4byte	.LASF79
 1364 04c6 07       		.byte	0x7
 1365 04c7 5301     		.2byte	0x153
 1366 04c9 25040000 		.4byte	0x425
 1367 04cd 2C       		.byte	0x2c
 1368 04ce 09       		.uleb128 0x9
 1369 04cf 98030000 		.4byte	.LASF80
ARM GAS  /tmp/ccxQrKxw.s 			page 45


 1370 04d3 07       		.byte	0x7
 1371 04d4 5401     		.2byte	0x154
 1372 04d6 25040000 		.4byte	0x425
 1373 04da 30       		.byte	0x30
 1374 04db 08       		.uleb128 0x8
 1375 04dc 43523200 		.ascii	"CR2\000"
 1376 04e0 07       		.byte	0x7
 1377 04e1 5501     		.2byte	0x155
 1378 04e3 25040000 		.4byte	0x425
 1379 04e7 34       		.byte	0x34
 1380 04e8 00       		.byte	0
 1381 04e9 11       		.uleb128 0x11
 1382 04ea 95020000 		.4byte	.LASF81
 1383 04ee 07       		.byte	0x7
 1384 04ef 5601     		.2byte	0x156
 1385 04f1 2A040000 		.4byte	0x42a
 1386 04f5 04       		.uleb128 0x4
 1387 04f6 2B000000 		.4byte	.LASF82
 1388 04fa 08       		.byte	0x8
 1389 04fb 65       		.byte	0x65
 1390 04fc 02030000 		.4byte	0x302
 1391 0500 04       		.uleb128 0x4
 1392 0501 8E050000 		.4byte	.LASF83
 1393 0505 08       		.byte	0x8
 1394 0506 6D       		.byte	0x6d
 1395 0507 CE000000 		.4byte	0xce
 1396 050b 05       		.uleb128 0x5
 1397 050c A7000000 		.4byte	.LASF84
 1398 0510 04       		.byte	0x4
 1399 0511 08       		.byte	0x8
 1400 0512 89       		.byte	0x89
 1401 0513 23050000 		.4byte	0x523
 1402 0517 07       		.uleb128 0x7
 1403 0518 737000   		.ascii	"sp\000"
 1404 051b 08       		.byte	0x8
 1405 051c 8A       		.byte	0x8a
 1406 051d 95050000 		.4byte	0x595
 1407 0521 00       		.byte	0
 1408 0522 00       		.byte	0
 1409 0523 05       		.uleb128 0x5
 1410 0524 FB030000 		.4byte	.LASF85
 1411 0528 24       		.byte	0x24
 1412 0529 09       		.byte	0x9
 1413 052a C3       		.byte	0xc3
 1414 052b 95050000 		.4byte	0x595
 1415 052f 07       		.uleb128 0x7
 1416 0530 723800   		.ascii	"r8\000"
 1417 0533 09       		.byte	0x9
 1418 0534 C4       		.byte	0xc4
 1419 0535 F5040000 		.4byte	0x4f5
 1420 0539 00       		.byte	0
 1421 053a 07       		.uleb128 0x7
 1422 053b 723900   		.ascii	"r9\000"
 1423 053e 09       		.byte	0x9
 1424 053f C5       		.byte	0xc5
 1425 0540 F5040000 		.4byte	0x4f5
 1426 0544 04       		.byte	0x4
ARM GAS  /tmp/ccxQrKxw.s 			page 46


 1427 0545 07       		.uleb128 0x7
 1428 0546 72313000 		.ascii	"r10\000"
 1429 054a 09       		.byte	0x9
 1430 054b C6       		.byte	0xc6
 1431 054c F5040000 		.4byte	0x4f5
 1432 0550 08       		.byte	0x8
 1433 0551 07       		.uleb128 0x7
 1434 0552 72313100 		.ascii	"r11\000"
 1435 0556 09       		.byte	0x9
 1436 0557 C7       		.byte	0xc7
 1437 0558 F5040000 		.4byte	0x4f5
 1438 055c 0C       		.byte	0xc
 1439 055d 07       		.uleb128 0x7
 1440 055e 723400   		.ascii	"r4\000"
 1441 0561 09       		.byte	0x9
 1442 0562 C8       		.byte	0xc8
 1443 0563 F5040000 		.4byte	0x4f5
 1444 0567 10       		.byte	0x10
 1445 0568 07       		.uleb128 0x7
 1446 0569 723500   		.ascii	"r5\000"
 1447 056c 09       		.byte	0x9
 1448 056d C9       		.byte	0xc9
 1449 056e F5040000 		.4byte	0x4f5
 1450 0572 14       		.byte	0x14
 1451 0573 07       		.uleb128 0x7
 1452 0574 723600   		.ascii	"r6\000"
 1453 0577 09       		.byte	0x9
 1454 0578 CA       		.byte	0xca
 1455 0579 F5040000 		.4byte	0x4f5
 1456 057d 18       		.byte	0x18
 1457 057e 07       		.uleb128 0x7
 1458 057f 723700   		.ascii	"r7\000"
 1459 0582 09       		.byte	0x9
 1460 0583 CB       		.byte	0xcb
 1461 0584 F5040000 		.4byte	0x4f5
 1462 0588 1C       		.byte	0x1c
 1463 0589 07       		.uleb128 0x7
 1464 058a 6C7200   		.ascii	"lr\000"
 1465 058d 09       		.byte	0x9
 1466 058e CC       		.byte	0xcc
 1467 058f F5040000 		.4byte	0x4f5
 1468 0593 20       		.byte	0x20
 1469 0594 00       		.byte	0
 1470 0595 0A       		.uleb128 0xa
 1471 0596 04       		.byte	0x4
 1472 0597 23050000 		.4byte	0x523
 1473 059b 12       		.uleb128 0x12
 1474 059c 04       		.byte	0x4
 1475 059d 06       		.byte	0x6
 1476 059e D2       		.byte	0xd2
 1477 059f FE050000 		.4byte	0x5fe
 1478 05a3 13       		.uleb128 0x13
 1479 05a4 8E020000 		.4byte	.LASF86
 1480 05a8 06       		.byte	0x6
 1481 05a9 D9       		.byte	0xd9
 1482 05aa 05010000 		.4byte	0x105
 1483 05ae 13       		.uleb128 0x13
ARM GAS  /tmp/ccxQrKxw.s 			page 47


 1484 05af F2050000 		.4byte	.LASF87
 1485 05b3 06       		.byte	0x6
 1486 05b4 E0       		.byte	0xe0
 1487 05b5 05010000 		.4byte	0x105
 1488 05b9 13       		.uleb128 0x13
 1489 05ba 99000000 		.4byte	.LASF88
 1490 05be 06       		.byte	0x6
 1491 05bf E7       		.byte	0xe7
 1492 05c0 02030000 		.4byte	0x302
 1493 05c4 13       		.uleb128 0x13
 1494 05c5 63050000 		.4byte	.LASF89
 1495 05c9 06       		.byte	0x6
 1496 05ca EE       		.byte	0xee
 1497 05cb FE050000 		.4byte	0x5fe
 1498 05cf 13       		.uleb128 0x13
 1499 05d0 AE010000 		.4byte	.LASF90
 1500 05d4 06       		.byte	0x6
 1501 05d5 F3       		.byte	0xf3
 1502 05d6 05010000 		.4byte	0x105
 1503 05da 13       		.uleb128 0x13
 1504 05db E1040000 		.4byte	.LASF91
 1505 05df 06       		.byte	0x6
 1506 05e0 FC       		.byte	0xfc
 1507 05e1 29060000 		.4byte	0x629
 1508 05e5 14       		.uleb128 0x14
 1509 05e6 18000000 		.4byte	.LASF92
 1510 05ea 06       		.byte	0x6
 1511 05eb 0501     		.2byte	0x105
 1512 05ed 60060000 		.4byte	0x660
 1513 05f1 14       		.uleb128 0x14
 1514 05f2 C7000000 		.4byte	.LASF93
 1515 05f6 06       		.byte	0x6
 1516 05f7 0D01     		.2byte	0x10d
 1517 05f9 10010000 		.4byte	0x110
 1518 05fd 00       		.byte	0
 1519 05fe 0A       		.uleb128 0xa
 1520 05ff 04       		.byte	0x4
 1521 0600 1A020000 		.4byte	0x21a
 1522 0604 05       		.uleb128 0x5
 1523 0605 D1010000 		.4byte	.LASF94
 1524 0609 0C       		.byte	0xc
 1525 060a 0A       		.byte	0xa
 1526 060b 34       		.byte	0x34
 1527 060c 29060000 		.4byte	0x629
 1528 0610 06       		.uleb128 0x6
 1529 0611 CE040000 		.4byte	.LASF28
 1530 0615 0A       		.byte	0xa
 1531 0616 35       		.byte	0x35
 1532 0617 4F020000 		.4byte	0x24f
 1533 061b 00       		.byte	0
 1534 061c 07       		.uleb128 0x7
 1535 061d 636E7400 		.ascii	"cnt\000"
 1536 0621 0A       		.byte	0xa
 1537 0622 37       		.byte	0x37
 1538 0623 1B010000 		.4byte	0x11b
 1539 0627 08       		.byte	0x8
 1540 0628 00       		.byte	0
ARM GAS  /tmp/ccxQrKxw.s 			page 48


 1541 0629 0A       		.uleb128 0xa
 1542 062a 04       		.byte	0x4
 1543 062b 04060000 		.4byte	0x604
 1544 062f 05       		.uleb128 0x5
 1545 0630 A8020000 		.4byte	.LASF95
 1546 0634 10       		.byte	0x10
 1547 0635 0B       		.byte	0xb
 1548 0636 39       		.byte	0x39
 1549 0637 60060000 		.4byte	0x660
 1550 063b 06       		.uleb128 0x6
 1551 063c CE040000 		.4byte	.LASF28
 1552 0640 0B       		.byte	0xb
 1553 0641 3A       		.byte	0x3a
 1554 0642 4F020000 		.4byte	0x24f
 1555 0646 00       		.byte	0
 1556 0647 06       		.uleb128 0x6
 1557 0648 4A020000 		.4byte	.LASF96
 1558 064c 0B       		.byte	0xb
 1559 064d 3C       		.byte	0x3c
 1560 064e 25020000 		.4byte	0x225
 1561 0652 08       		.byte	0x8
 1562 0653 06       		.uleb128 0x6
 1563 0654 6C000000 		.4byte	.LASF47
 1564 0658 0B       		.byte	0xb
 1565 0659 3E       		.byte	0x3e
 1566 065a 94060000 		.4byte	0x694
 1567 065e 0C       		.byte	0xc
 1568 065f 00       		.byte	0
 1569 0660 0A       		.uleb128 0xa
 1570 0661 04       		.byte	0x4
 1571 0662 2F060000 		.4byte	0x62f
 1572 0666 0A       		.uleb128 0xa
 1573 0667 04       		.byte	0x4
 1574 0668 6C060000 		.4byte	0x66c
 1575 066c 15       		.uleb128 0x15
 1576 066d 71060000 		.4byte	0x671
 1577 0671 03       		.uleb128 0x3
 1578 0672 01       		.byte	0x1
 1579 0673 08       		.byte	0x8
 1580 0674 E1020000 		.4byte	.LASF97
 1581 0678 0A       		.uleb128 0xa
 1582 0679 04       		.byte	0x4
 1583 067a 00050000 		.4byte	0x500
 1584 067e 0A       		.uleb128 0xa
 1585 067f 04       		.byte	0x4
 1586 0680 04030000 		.4byte	0x304
 1587 0684 0F       		.uleb128 0xf
 1588 0685 66060000 		.4byte	0x666
 1589 0689 04       		.uleb128 0x4
 1590 068a E8040000 		.4byte	.LASF98
 1591 068e 0B       		.byte	0xb
 1592 068f 34       		.byte	0x34
 1593 0690 2F060000 		.4byte	0x62f
 1594 0694 0A       		.uleb128 0xa
 1595 0695 04       		.byte	0x4
 1596 0696 89060000 		.4byte	0x689
 1597 069a 03       		.uleb128 0x3
ARM GAS  /tmp/ccxQrKxw.s 			page 49


 1598 069b 01       		.byte	0x1
 1599 069c 02       		.byte	0x2
 1600 069d B0030000 		.4byte	.LASF99
 1601 06a1 16       		.uleb128 0x16
 1602 06a2 04       		.byte	0x4
 1603 06a3 0C       		.byte	0xc
 1604 06a4 E7       		.byte	0xe7
 1605 06a5 C2060000 		.4byte	0x6c2
 1606 06a9 07       		.uleb128 0x7
 1607 06aa 73657400 		.ascii	"set\000"
 1608 06ae 0C       		.byte	0xc
 1609 06af E8       		.byte	0xe8
 1610 06b0 AD000000 		.4byte	0xad
 1611 06b4 00       		.byte	0
 1612 06b5 06       		.uleb128 0x6
 1613 06b6 60020000 		.4byte	.LASF100
 1614 06ba 0C       		.byte	0xc
 1615 06bb E9       		.byte	0xe9
 1616 06bc AD000000 		.4byte	0xad
 1617 06c0 02       		.byte	0x2
 1618 06c1 00       		.byte	0
 1619 06c2 12       		.uleb128 0x12
 1620 06c3 04       		.byte	0x4
 1621 06c4 0C       		.byte	0xc
 1622 06c5 E5       		.byte	0xe5
 1623 06c6 DD060000 		.4byte	0x6dd
 1624 06ca 17       		.uleb128 0x17
 1625 06cb 5700     		.ascii	"W\000"
 1626 06cd 0C       		.byte	0xc
 1627 06ce E6       		.byte	0xe6
 1628 06cf C3000000 		.4byte	0xc3
 1629 06d3 17       		.uleb128 0x17
 1630 06d4 4800     		.ascii	"H\000"
 1631 06d6 0C       		.byte	0xc
 1632 06d7 EA       		.byte	0xea
 1633 06d8 A1060000 		.4byte	0x6a1
 1634 06dc 00       		.byte	0
 1635 06dd 16       		.uleb128 0x16
 1636 06de 2C       		.byte	0x2c
 1637 06df 0C       		.byte	0xc
 1638 06e0 DD       		.byte	0xdd
 1639 06e1 6A070000 		.4byte	0x76a
 1640 06e5 06       		.uleb128 0x6
 1641 06e6 1F020000 		.4byte	.LASF101
 1642 06ea 0C       		.byte	0xc
 1643 06eb DF       		.byte	0xdf
 1644 06ec 25040000 		.4byte	0x425
 1645 06f0 00       		.byte	0
 1646 06f1 06       		.uleb128 0x6
 1647 06f2 4D040000 		.4byte	.LASF102
 1648 06f6 0C       		.byte	0xc
 1649 06f7 E0       		.byte	0xe0
 1650 06f8 25040000 		.4byte	0x425
 1651 06fc 04       		.byte	0x4
 1652 06fd 06       		.uleb128 0x6
 1653 06fe C9030000 		.4byte	.LASF103
 1654 0702 0C       		.byte	0xc
ARM GAS  /tmp/ccxQrKxw.s 			page 50


 1655 0703 E1       		.byte	0xe1
 1656 0704 25040000 		.4byte	0x425
 1657 0708 08       		.byte	0x8
 1658 0709 06       		.uleb128 0x6
 1659 070a C7020000 		.4byte	.LASF104
 1660 070e 0C       		.byte	0xc
 1661 070f E2       		.byte	0xe2
 1662 0710 25040000 		.4byte	0x425
 1663 0714 0C       		.byte	0xc
 1664 0715 07       		.uleb128 0x7
 1665 0716 49445200 		.ascii	"IDR\000"
 1666 071a 0C       		.byte	0xc
 1667 071b E3       		.byte	0xe3
 1668 071c 25040000 		.4byte	0x425
 1669 0720 10       		.byte	0x10
 1670 0721 07       		.uleb128 0x7
 1671 0722 4F445200 		.ascii	"ODR\000"
 1672 0726 0C       		.byte	0xc
 1673 0727 E4       		.byte	0xe4
 1674 0728 25040000 		.4byte	0x425
 1675 072c 14       		.byte	0x14
 1676 072d 06       		.uleb128 0x6
 1677 072e 26000000 		.4byte	.LASF105
 1678 0732 0C       		.byte	0xc
 1679 0733 EB       		.byte	0xeb
 1680 0734 6A070000 		.4byte	0x76a
 1681 0738 18       		.byte	0x18
 1682 0739 06       		.uleb128 0x6
 1683 073a FB050000 		.4byte	.LASF106
 1684 073e 0C       		.byte	0xc
 1685 073f EC       		.byte	0xec
 1686 0740 25040000 		.4byte	0x425
 1687 0744 1C       		.byte	0x1c
 1688 0745 06       		.uleb128 0x6
 1689 0746 04050000 		.4byte	.LASF107
 1690 074a 0C       		.byte	0xc
 1691 074b ED       		.byte	0xed
 1692 074c 25040000 		.4byte	0x425
 1693 0750 20       		.byte	0x20
 1694 0751 06       		.uleb128 0x6
 1695 0752 25020000 		.4byte	.LASF108
 1696 0756 0C       		.byte	0xc
 1697 0757 EE       		.byte	0xee
 1698 0758 25040000 		.4byte	0x425
 1699 075c 24       		.byte	0x24
 1700 075d 07       		.uleb128 0x7
 1701 075e 42525200 		.ascii	"BRR\000"
 1702 0762 0C       		.byte	0xc
 1703 0763 EF       		.byte	0xef
 1704 0764 25040000 		.4byte	0x425
 1705 0768 28       		.byte	0x28
 1706 0769 00       		.byte	0
 1707 076a 0F       		.uleb128 0xf
 1708 076b C2060000 		.4byte	0x6c2
 1709 076f 04       		.uleb128 0x4
 1710 0770 3D020000 		.4byte	.LASF109
 1711 0774 0C       		.byte	0xc
ARM GAS  /tmp/ccxQrKxw.s 			page 51


 1712 0775 F0       		.byte	0xf0
 1713 0776 DD060000 		.4byte	0x6dd
 1714 077a 16       		.uleb128 0x16
 1715 077b 1C       		.byte	0x1c
 1716 077c 0C       		.byte	0xc
 1717 077d F5       		.byte	0xf5
 1718 077e D9070000 		.4byte	0x7d9
 1719 0782 06       		.uleb128 0x6
 1720 0783 DB020000 		.4byte	.LASF110
 1721 0787 0C       		.byte	0xc
 1722 0788 F7       		.byte	0xf7
 1723 0789 C3000000 		.4byte	0xc3
 1724 078d 00       		.byte	0
 1725 078e 06       		.uleb128 0x6
 1726 078f CA010000 		.4byte	.LASF111
 1727 0793 0C       		.byte	0xc
 1728 0794 F9       		.byte	0xf9
 1729 0795 C3000000 		.4byte	0xc3
 1730 0799 04       		.byte	0x4
 1731 079a 06       		.uleb128 0x6
 1732 079b A8050000 		.4byte	.LASF112
 1733 079f 0C       		.byte	0xc
 1734 07a0 FB       		.byte	0xfb
 1735 07a1 C3000000 		.4byte	0xc3
 1736 07a5 08       		.byte	0x8
 1737 07a6 06       		.uleb128 0x6
 1738 07a7 57030000 		.4byte	.LASF113
 1739 07ab 0C       		.byte	0xc
 1740 07ac FD       		.byte	0xfd
 1741 07ad C3000000 		.4byte	0xc3
 1742 07b1 0C       		.byte	0xc
 1743 07b2 07       		.uleb128 0x7
 1744 07b3 6F647200 		.ascii	"odr\000"
 1745 07b7 0C       		.byte	0xc
 1746 07b8 FF       		.byte	0xff
 1747 07b9 C3000000 		.4byte	0xc3
 1748 07bd 10       		.byte	0x10
 1749 07be 09       		.uleb128 0x9
 1750 07bf 88030000 		.4byte	.LASF114
 1751 07c3 0C       		.byte	0xc
 1752 07c4 0101     		.2byte	0x101
 1753 07c6 C3000000 		.4byte	0xc3
 1754 07ca 14       		.byte	0x14
 1755 07cb 09       		.uleb128 0x9
 1756 07cc 83030000 		.4byte	.LASF115
 1757 07d0 0C       		.byte	0xc
 1758 07d1 0301     		.2byte	0x103
 1759 07d3 C3000000 		.4byte	0xc3
 1760 07d7 18       		.byte	0x18
 1761 07d8 00       		.byte	0
 1762 07d9 11       		.uleb128 0x11
 1763 07da 2A020000 		.4byte	.LASF116
 1764 07de 0C       		.byte	0xc
 1765 07df 0401     		.2byte	0x104
 1766 07e1 7A070000 		.4byte	0x77a
 1767 07e5 10       		.uleb128 0x10
 1768 07e6 8C       		.byte	0x8c
ARM GAS  /tmp/ccxQrKxw.s 			page 52


 1769 07e7 0C       		.byte	0xc
 1770 07e8 0D01     		.2byte	0x10d
 1771 07ea 30080000 		.4byte	0x830
 1772 07ee 09       		.uleb128 0x9
 1773 07ef 3C040000 		.4byte	.LASF117
 1774 07f3 0C       		.byte	0xc
 1775 07f4 1001     		.2byte	0x110
 1776 07f6 D9070000 		.4byte	0x7d9
 1777 07fa 00       		.byte	0
 1778 07fb 09       		.uleb128 0x9
 1779 07fc A1020000 		.4byte	.LASF118
 1780 0800 0C       		.byte	0xc
 1781 0801 1401     		.2byte	0x114
 1782 0803 D9070000 		.4byte	0x7d9
 1783 0807 1C       		.byte	0x1c
 1784 0808 09       		.uleb128 0x9
 1785 0809 1F000000 		.4byte	.LASF119
 1786 080d 0C       		.byte	0xc
 1787 080e 1801     		.2byte	0x118
 1788 0810 D9070000 		.4byte	0x7d9
 1789 0814 38       		.byte	0x38
 1790 0815 09       		.uleb128 0x9
 1791 0816 DA030000 		.4byte	.LASF120
 1792 081a 0C       		.byte	0xc
 1793 081b 1C01     		.2byte	0x11c
 1794 081d D9070000 		.4byte	0x7d9
 1795 0821 54       		.byte	0x54
 1796 0822 09       		.uleb128 0x9
 1797 0823 A1050000 		.4byte	.LASF121
 1798 0827 0C       		.byte	0xc
 1799 0828 2401     		.2byte	0x124
 1800 082a D9070000 		.4byte	0x7d9
 1801 082e 70       		.byte	0x70
 1802 082f 00       		.byte	0
 1803 0830 11       		.uleb128 0x11
 1804 0831 8E040000 		.4byte	.LASF122
 1805 0835 0C       		.byte	0xc
 1806 0836 3A01     		.2byte	0x13a
 1807 0838 E5070000 		.4byte	0x7e5
 1808 083c 11       		.uleb128 0x11
 1809 083d 6D030000 		.4byte	.LASF123
 1810 0841 0C       		.byte	0xc
 1811 0842 3F01     		.2byte	0x13f
 1812 0844 C3000000 		.4byte	0xc3
 1813 0848 11       		.uleb128 0x11
 1814 0849 7A030000 		.4byte	.LASF124
 1815 084d 0C       		.byte	0xc
 1816 084e 4401     		.2byte	0x144
 1817 0850 C3000000 		.4byte	0xc3
 1818 0854 11       		.uleb128 0x11
 1819 0855 BC020000 		.4byte	.LASF125
 1820 0859 0C       		.byte	0xc
 1821 085a 5101     		.2byte	0x151
 1822 085c 60080000 		.4byte	0x860
 1823 0860 0A       		.uleb128 0xa
 1824 0861 04       		.byte	0x4
 1825 0862 6F070000 		.4byte	0x76f
ARM GAS  /tmp/ccxQrKxw.s 			page 53


 1826 0866 18       		.uleb128 0x18
 1827 0867 38050000 		.4byte	.LASF138
 1828 086b 01       		.byte	0x1
 1829 086c 3D       		.byte	0x3d
 1830 086d 01       		.byte	0x1
 1831 086e 89080000 		.4byte	0x889
 1832 0872 19       		.uleb128 0x19
 1833 0873 A9040000 		.4byte	.LASF126
 1834 0877 01       		.byte	0x1
 1835 0878 3D       		.byte	0x3d
 1836 0879 60080000 		.4byte	0x860
 1837 087d 19       		.uleb128 0x19
 1838 087e E1030000 		.4byte	.LASF127
 1839 0882 01       		.byte	0x1
 1840 0883 3D       		.byte	0x3d
 1841 0884 89080000 		.4byte	0x889
 1842 0888 00       		.byte	0
 1843 0889 0A       		.uleb128 0xa
 1844 088a 04       		.byte	0x4
 1845 088b 8F080000 		.4byte	0x88f
 1846 088f 15       		.uleb128 0x15
 1847 0890 D9070000 		.4byte	0x7d9
 1848 0894 1A       		.uleb128 0x1a
 1849 0895 71040000 		.4byte	.LASF128
 1850 0899 01       		.byte	0x1
 1851 089a 58       		.byte	0x58
 1852 089b 00000000 		.4byte	.LFB180
 1853 089f C0000000 		.4byte	.LFE180-.LFB180
 1854 08a3 01       		.uleb128 0x1
 1855 08a4 9C       		.byte	0x9c
 1856 08a5 71090000 		.4byte	0x971
 1857 08a9 1B       		.uleb128 0x1b
 1858 08aa E1030000 		.4byte	.LASF127
 1859 08ae 01       		.byte	0x1
 1860 08af 58       		.byte	0x58
 1861 08b0 71090000 		.4byte	0x971
 1862 08b4 01       		.uleb128 0x1
 1863 08b5 50       		.byte	0x50
 1864 08b6 1C       		.uleb128 0x1c
 1865 08b7 66080000 		.4byte	0x866
 1866 08bb 0C000000 		.4byte	.LBB12
 1867 08bf 00000000 		.4byte	.Ldebug_ranges0+0
 1868 08c3 01       		.byte	0x1
 1869 08c4 70       		.byte	0x70
 1870 08c5 DA080000 		.4byte	0x8da
 1871 08c9 1D       		.uleb128 0x1d
 1872 08ca 7D080000 		.4byte	0x87d
 1873 08ce 01       		.uleb128 0x1
 1874 08cf 50       		.byte	0x50
 1875 08d0 1E       		.uleb128 0x1e
 1876 08d1 72080000 		.4byte	0x872
 1877 08d5 00000048 		.4byte	0x48000000
 1878 08d9 00       		.byte	0
 1879 08da 1F       		.uleb128 0x1f
 1880 08db 66080000 		.4byte	0x866
 1881 08df 2C000000 		.4byte	.LBB16
 1882 08e3 1E000000 		.4byte	.LBE16-.LBB16
ARM GAS  /tmp/ccxQrKxw.s 			page 54


 1883 08e7 01       		.byte	0x1
 1884 08e8 73       		.byte	0x73
 1885 08e9 00090000 		.4byte	0x900
 1886 08ed 1D       		.uleb128 0x1d
 1887 08ee 7D080000 		.4byte	0x87d
 1888 08f2 03       		.uleb128 0x3
 1889 08f3 70       		.byte	0x70
 1890 08f4 1C       		.sleb128 28
 1891 08f5 9F       		.byte	0x9f
 1892 08f6 1E       		.uleb128 0x1e
 1893 08f7 72080000 		.4byte	0x872
 1894 08fb 00040048 		.4byte	0x48000400
 1895 08ff 00       		.byte	0
 1896 0900 1F       		.uleb128 0x1f
 1897 0901 66080000 		.4byte	0x866
 1898 0905 4A000000 		.4byte	.LBB18
 1899 0909 1E000000 		.4byte	.LBE18-.LBB18
 1900 090d 01       		.byte	0x1
 1901 090e 76       		.byte	0x76
 1902 090f 26090000 		.4byte	0x926
 1903 0913 1D       		.uleb128 0x1d
 1904 0914 7D080000 		.4byte	0x87d
 1905 0918 03       		.uleb128 0x3
 1906 0919 70       		.byte	0x70
 1907 091a 38       		.sleb128 56
 1908 091b 9F       		.byte	0x9f
 1909 091c 1E       		.uleb128 0x1e
 1910 091d 72080000 		.4byte	0x872
 1911 0921 00080048 		.4byte	0x48000800
 1912 0925 00       		.byte	0
 1913 0926 1F       		.uleb128 0x1f
 1914 0927 66080000 		.4byte	0x866
 1915 092b 68000000 		.4byte	.LBB20
 1916 092f 1E000000 		.4byte	.LBE20-.LBB20
 1917 0933 01       		.byte	0x1
 1918 0934 79       		.byte	0x79
 1919 0935 4D090000 		.4byte	0x94d
 1920 0939 1D       		.uleb128 0x1d
 1921 093a 7D080000 		.4byte	0x87d
 1922 093e 04       		.uleb128 0x4
 1923 093f 70       		.byte	0x70
 1924 0940 D400     		.sleb128 84
 1925 0942 9F       		.byte	0x9f
 1926 0943 1E       		.uleb128 0x1e
 1927 0944 72080000 		.4byte	0x872
 1928 0948 000C0048 		.4byte	0x48000c00
 1929 094c 00       		.byte	0
 1930 094d 20       		.uleb128 0x20
 1931 094e 66080000 		.4byte	0x866
 1932 0952 86000000 		.4byte	.LBB22
 1933 0956 24000000 		.4byte	.LBE22-.LBB22
 1934 095a 01       		.byte	0x1
 1935 095b 7F       		.byte	0x7f
 1936 095c 1D       		.uleb128 0x1d
 1937 095d 7D080000 		.4byte	0x87d
 1938 0961 04       		.uleb128 0x4
 1939 0962 70       		.byte	0x70
ARM GAS  /tmp/ccxQrKxw.s 			page 55


 1940 0963 F000     		.sleb128 112
 1941 0965 9F       		.byte	0x9f
 1942 0966 1E       		.uleb128 0x1e
 1943 0967 72080000 		.4byte	0x872
 1944 096b 00140048 		.4byte	0x48001400
 1945 096f 00       		.byte	0
 1946 0970 00       		.byte	0
 1947 0971 0A       		.uleb128 0xa
 1948 0972 04       		.byte	0x4
 1949 0973 77090000 		.4byte	0x977
 1950 0977 15       		.uleb128 0x15
 1951 0978 30080000 		.4byte	0x830
 1952 097c 1A       		.uleb128 0x1a
 1953 097d 41050000 		.4byte	.LASF129
 1954 0981 01       		.byte	0x1
 1955 0982 9F       		.byte	0x9f
 1956 0983 00000000 		.4byte	.LFB181
 1957 0987 FE000000 		.4byte	.LFE181-.LFB181
 1958 098b 01       		.uleb128 0x1
 1959 098c 9C       		.byte	0x9c
 1960 098d 560A0000 		.4byte	0xa56
 1961 0991 1B       		.uleb128 0x1b
 1962 0992 DC040000 		.4byte	.LASF130
 1963 0996 01       		.byte	0x1
 1964 0997 9F       		.byte	0x9f
 1965 0998 54080000 		.4byte	0x854
 1966 099c 01       		.uleb128 0x1
 1967 099d 50       		.byte	0x50
 1968 099e 21       		.uleb128 0x21
 1969 099f 8D030000 		.4byte	.LASF131
 1970 09a3 01       		.byte	0x1
 1971 09a4 A0       		.byte	0xa0
 1972 09a5 3C080000 		.4byte	0x83c
 1973 09a9 00000000 		.4byte	.LLST0
 1974 09ad 21       		.uleb128 0x21
 1975 09ae CE000000 		.4byte	.LASF132
 1976 09b2 01       		.byte	0x1
 1977 09b3 A1       		.byte	0xa1
 1978 09b4 48080000 		.4byte	0x848
 1979 09b8 1E000000 		.4byte	.LLST1
 1980 09bc 22       		.uleb128 0x22
 1981 09bd DB020000 		.4byte	.LASF110
 1982 09c1 01       		.byte	0x1
 1983 09c2 A3       		.byte	0xa3
 1984 09c3 C3000000 		.4byte	0xc3
 1985 09c7 3F000000 		.4byte	.LLST2
 1986 09cb 22       		.uleb128 0x22
 1987 09cc CA010000 		.4byte	.LASF111
 1988 09d0 01       		.byte	0x1
 1989 09d1 A4       		.byte	0xa4
 1990 09d2 C3000000 		.4byte	0xc3
 1991 09d6 5D000000 		.4byte	.LLST3
 1992 09da 22       		.uleb128 0x22
 1993 09db A8050000 		.4byte	.LASF112
 1994 09df 01       		.byte	0x1
 1995 09e0 A5       		.byte	0xa5
 1996 09e1 C3000000 		.4byte	0xc3
ARM GAS  /tmp/ccxQrKxw.s 			page 56


 1997 09e5 7B000000 		.4byte	.LLST4
 1998 09e9 22       		.uleb128 0x22
 1999 09ea 57030000 		.4byte	.LASF113
 2000 09ee 01       		.byte	0x1
 2001 09ef A6       		.byte	0xa6
 2002 09f0 C3000000 		.4byte	0xc3
 2003 09f4 99000000 		.4byte	.LLST5
 2004 09f8 22       		.uleb128 0x22
 2005 09f9 80000000 		.4byte	.LASF133
 2006 09fd 01       		.byte	0x1
 2007 09fe A7       		.byte	0xa7
 2008 09ff C3000000 		.4byte	0xc3
 2009 0a03 09010000 		.4byte	.LLST6
 2010 0a07 23       		.uleb128 0x23
 2011 0a08 62697400 		.ascii	"bit\000"
 2012 0a0c 01       		.byte	0x1
 2013 0a0d A8       		.byte	0xa8
 2014 0a0e C3000000 		.4byte	0xc3
 2015 0a12 39010000 		.4byte	.LLST7
 2016 0a16 24       		.uleb128 0x24
 2017 0a17 18000000 		.4byte	.Ldebug_ranges0+0x18
 2018 0a1b 22       		.uleb128 0x22
 2019 0a1c 00030000 		.4byte	.LASF134
 2020 0a20 01       		.byte	0x1
 2021 0a21 AB       		.byte	0xab
 2022 0a22 C3000000 		.4byte	0xc3
 2023 0a26 58010000 		.4byte	.LLST8
 2024 0a2a 23       		.uleb128 0x23
 2025 0a2b 6D3100   		.ascii	"m1\000"
 2026 0a2e 01       		.byte	0x1
 2027 0a2f AB       		.byte	0xab
 2028 0a30 C3000000 		.4byte	0xc3
 2029 0a34 AB010000 		.4byte	.LLST9
 2030 0a38 23       		.uleb128 0x23
 2031 0a39 6D3200   		.ascii	"m2\000"
 2032 0a3c 01       		.byte	0x1
 2033 0a3d AB       		.byte	0xab
 2034 0a3e C3000000 		.4byte	0xc3
 2035 0a42 E0010000 		.4byte	.LLST10
 2036 0a46 23       		.uleb128 0x23
 2037 0a47 6D3400   		.ascii	"m4\000"
 2038 0a4a 01       		.byte	0x1
 2039 0a4b AB       		.byte	0xab
 2040 0a4c C3000000 		.4byte	0xc3
 2041 0a50 3F020000 		.4byte	.LLST11
 2042 0a54 00       		.byte	0
 2043 0a55 00       		.byte	0
 2044 0a56 25       		.uleb128 0x25
 2045 0a57 636800   		.ascii	"ch\000"
 2046 0a5a 06       		.byte	0x6
 2047 0a5b D201     		.2byte	0x1d2
 2048 0a5d D1030000 		.4byte	0x3d1
 2049 0a61 00       		.byte	0
 2050              		.section	.debug_abbrev,"",%progbits
 2051              	.Ldebug_abbrev0:
 2052 0000 01       		.uleb128 0x1
 2053 0001 11       		.uleb128 0x11
ARM GAS  /tmp/ccxQrKxw.s 			page 57


 2054 0002 01       		.byte	0x1
 2055 0003 25       		.uleb128 0x25
 2056 0004 0E       		.uleb128 0xe
 2057 0005 13       		.uleb128 0x13
 2058 0006 0B       		.uleb128 0xb
 2059 0007 03       		.uleb128 0x3
 2060 0008 0E       		.uleb128 0xe
 2061 0009 1B       		.uleb128 0x1b
 2062 000a 0E       		.uleb128 0xe
 2063 000b 55       		.uleb128 0x55
 2064 000c 17       		.uleb128 0x17
 2065 000d 11       		.uleb128 0x11
 2066 000e 01       		.uleb128 0x1
 2067 000f 10       		.uleb128 0x10
 2068 0010 17       		.uleb128 0x17
 2069 0011 00       		.byte	0
 2070 0012 00       		.byte	0
 2071 0013 02       		.uleb128 0x2
 2072 0014 24       		.uleb128 0x24
 2073 0015 00       		.byte	0
 2074 0016 0B       		.uleb128 0xb
 2075 0017 0B       		.uleb128 0xb
 2076 0018 3E       		.uleb128 0x3e
 2077 0019 0B       		.uleb128 0xb
 2078 001a 03       		.uleb128 0x3
 2079 001b 08       		.uleb128 0x8
 2080 001c 00       		.byte	0
 2081 001d 00       		.byte	0
 2082 001e 03       		.uleb128 0x3
 2083 001f 24       		.uleb128 0x24
 2084 0020 00       		.byte	0
 2085 0021 0B       		.uleb128 0xb
 2086 0022 0B       		.uleb128 0xb
 2087 0023 3E       		.uleb128 0x3e
 2088 0024 0B       		.uleb128 0xb
 2089 0025 03       		.uleb128 0x3
 2090 0026 0E       		.uleb128 0xe
 2091 0027 00       		.byte	0
 2092 0028 00       		.byte	0
 2093 0029 04       		.uleb128 0x4
 2094 002a 16       		.uleb128 0x16
 2095 002b 00       		.byte	0
 2096 002c 03       		.uleb128 0x3
 2097 002d 0E       		.uleb128 0xe
 2098 002e 3A       		.uleb128 0x3a
 2099 002f 0B       		.uleb128 0xb
 2100 0030 3B       		.uleb128 0x3b
 2101 0031 0B       		.uleb128 0xb
 2102 0032 49       		.uleb128 0x49
 2103 0033 13       		.uleb128 0x13
 2104 0034 00       		.byte	0
 2105 0035 00       		.byte	0
 2106 0036 05       		.uleb128 0x5
 2107 0037 13       		.uleb128 0x13
 2108 0038 01       		.byte	0x1
 2109 0039 03       		.uleb128 0x3
 2110 003a 0E       		.uleb128 0xe
ARM GAS  /tmp/ccxQrKxw.s 			page 58


 2111 003b 0B       		.uleb128 0xb
 2112 003c 0B       		.uleb128 0xb
 2113 003d 3A       		.uleb128 0x3a
 2114 003e 0B       		.uleb128 0xb
 2115 003f 3B       		.uleb128 0x3b
 2116 0040 0B       		.uleb128 0xb
 2117 0041 01       		.uleb128 0x1
 2118 0042 13       		.uleb128 0x13
 2119 0043 00       		.byte	0
 2120 0044 00       		.byte	0
 2121 0045 06       		.uleb128 0x6
 2122 0046 0D       		.uleb128 0xd
 2123 0047 00       		.byte	0
 2124 0048 03       		.uleb128 0x3
 2125 0049 0E       		.uleb128 0xe
 2126 004a 3A       		.uleb128 0x3a
 2127 004b 0B       		.uleb128 0xb
 2128 004c 3B       		.uleb128 0x3b
 2129 004d 0B       		.uleb128 0xb
 2130 004e 49       		.uleb128 0x49
 2131 004f 13       		.uleb128 0x13
 2132 0050 38       		.uleb128 0x38
 2133 0051 0B       		.uleb128 0xb
 2134 0052 00       		.byte	0
 2135 0053 00       		.byte	0
 2136 0054 07       		.uleb128 0x7
 2137 0055 0D       		.uleb128 0xd
 2138 0056 00       		.byte	0
 2139 0057 03       		.uleb128 0x3
 2140 0058 08       		.uleb128 0x8
 2141 0059 3A       		.uleb128 0x3a
 2142 005a 0B       		.uleb128 0xb
 2143 005b 3B       		.uleb128 0x3b
 2144 005c 0B       		.uleb128 0xb
 2145 005d 49       		.uleb128 0x49
 2146 005e 13       		.uleb128 0x13
 2147 005f 38       		.uleb128 0x38
 2148 0060 0B       		.uleb128 0xb
 2149 0061 00       		.byte	0
 2150 0062 00       		.byte	0
 2151 0063 08       		.uleb128 0x8
 2152 0064 0D       		.uleb128 0xd
 2153 0065 00       		.byte	0
 2154 0066 03       		.uleb128 0x3
 2155 0067 08       		.uleb128 0x8
 2156 0068 3A       		.uleb128 0x3a
 2157 0069 0B       		.uleb128 0xb
 2158 006a 3B       		.uleb128 0x3b
 2159 006b 05       		.uleb128 0x5
 2160 006c 49       		.uleb128 0x49
 2161 006d 13       		.uleb128 0x13
 2162 006e 38       		.uleb128 0x38
 2163 006f 0B       		.uleb128 0xb
 2164 0070 00       		.byte	0
 2165 0071 00       		.byte	0
 2166 0072 09       		.uleb128 0x9
 2167 0073 0D       		.uleb128 0xd
ARM GAS  /tmp/ccxQrKxw.s 			page 59


 2168 0074 00       		.byte	0
 2169 0075 03       		.uleb128 0x3
 2170 0076 0E       		.uleb128 0xe
 2171 0077 3A       		.uleb128 0x3a
 2172 0078 0B       		.uleb128 0xb
 2173 0079 3B       		.uleb128 0x3b
 2174 007a 05       		.uleb128 0x5
 2175 007b 49       		.uleb128 0x49
 2176 007c 13       		.uleb128 0x13
 2177 007d 38       		.uleb128 0x38
 2178 007e 0B       		.uleb128 0xb
 2179 007f 00       		.byte	0
 2180 0080 00       		.byte	0
 2181 0081 0A       		.uleb128 0xa
 2182 0082 0F       		.uleb128 0xf
 2183 0083 00       		.byte	0
 2184 0084 0B       		.uleb128 0xb
 2185 0085 0B       		.uleb128 0xb
 2186 0086 49       		.uleb128 0x49
 2187 0087 13       		.uleb128 0x13
 2188 0088 00       		.byte	0
 2189 0089 00       		.byte	0
 2190 008a 0B       		.uleb128 0xb
 2191 008b 13       		.uleb128 0x13
 2192 008c 01       		.byte	0x1
 2193 008d 03       		.uleb128 0x3
 2194 008e 0E       		.uleb128 0xe
 2195 008f 0B       		.uleb128 0xb
 2196 0090 0B       		.uleb128 0xb
 2197 0091 3A       		.uleb128 0x3a
 2198 0092 0B       		.uleb128 0xb
 2199 0093 3B       		.uleb128 0x3b
 2200 0094 05       		.uleb128 0x5
 2201 0095 01       		.uleb128 0x1
 2202 0096 13       		.uleb128 0x13
 2203 0097 00       		.byte	0
 2204 0098 00       		.byte	0
 2205 0099 0C       		.uleb128 0xc
 2206 009a 15       		.uleb128 0x15
 2207 009b 01       		.byte	0x1
 2208 009c 27       		.uleb128 0x27
 2209 009d 19       		.uleb128 0x19
 2210 009e 01       		.uleb128 0x1
 2211 009f 13       		.uleb128 0x13
 2212 00a0 00       		.byte	0
 2213 00a1 00       		.byte	0
 2214 00a2 0D       		.uleb128 0xd
 2215 00a3 05       		.uleb128 0x5
 2216 00a4 00       		.byte	0
 2217 00a5 49       		.uleb128 0x49
 2218 00a6 13       		.uleb128 0x13
 2219 00a7 00       		.byte	0
 2220 00a8 00       		.byte	0
 2221 00a9 0E       		.uleb128 0xe
 2222 00aa 0F       		.uleb128 0xf
 2223 00ab 00       		.byte	0
 2224 00ac 0B       		.uleb128 0xb
ARM GAS  /tmp/ccxQrKxw.s 			page 60


 2225 00ad 0B       		.uleb128 0xb
 2226 00ae 00       		.byte	0
 2227 00af 00       		.byte	0
 2228 00b0 0F       		.uleb128 0xf
 2229 00b1 35       		.uleb128 0x35
 2230 00b2 00       		.byte	0
 2231 00b3 49       		.uleb128 0x49
 2232 00b4 13       		.uleb128 0x13
 2233 00b5 00       		.byte	0
 2234 00b6 00       		.byte	0
 2235 00b7 10       		.uleb128 0x10
 2236 00b8 13       		.uleb128 0x13
 2237 00b9 01       		.byte	0x1
 2238 00ba 0B       		.uleb128 0xb
 2239 00bb 0B       		.uleb128 0xb
 2240 00bc 3A       		.uleb128 0x3a
 2241 00bd 0B       		.uleb128 0xb
 2242 00be 3B       		.uleb128 0x3b
 2243 00bf 05       		.uleb128 0x5
 2244 00c0 01       		.uleb128 0x1
 2245 00c1 13       		.uleb128 0x13
 2246 00c2 00       		.byte	0
 2247 00c3 00       		.byte	0
 2248 00c4 11       		.uleb128 0x11
 2249 00c5 16       		.uleb128 0x16
 2250 00c6 00       		.byte	0
 2251 00c7 03       		.uleb128 0x3
 2252 00c8 0E       		.uleb128 0xe
 2253 00c9 3A       		.uleb128 0x3a
 2254 00ca 0B       		.uleb128 0xb
 2255 00cb 3B       		.uleb128 0x3b
 2256 00cc 05       		.uleb128 0x5
 2257 00cd 49       		.uleb128 0x49
 2258 00ce 13       		.uleb128 0x13
 2259 00cf 00       		.byte	0
 2260 00d0 00       		.byte	0
 2261 00d1 12       		.uleb128 0x12
 2262 00d2 17       		.uleb128 0x17
 2263 00d3 01       		.byte	0x1
 2264 00d4 0B       		.uleb128 0xb
 2265 00d5 0B       		.uleb128 0xb
 2266 00d6 3A       		.uleb128 0x3a
 2267 00d7 0B       		.uleb128 0xb
 2268 00d8 3B       		.uleb128 0x3b
 2269 00d9 0B       		.uleb128 0xb
 2270 00da 01       		.uleb128 0x1
 2271 00db 13       		.uleb128 0x13
 2272 00dc 00       		.byte	0
 2273 00dd 00       		.byte	0
 2274 00de 13       		.uleb128 0x13
 2275 00df 0D       		.uleb128 0xd
 2276 00e0 00       		.byte	0
 2277 00e1 03       		.uleb128 0x3
 2278 00e2 0E       		.uleb128 0xe
 2279 00e3 3A       		.uleb128 0x3a
 2280 00e4 0B       		.uleb128 0xb
 2281 00e5 3B       		.uleb128 0x3b
ARM GAS  /tmp/ccxQrKxw.s 			page 61


 2282 00e6 0B       		.uleb128 0xb
 2283 00e7 49       		.uleb128 0x49
 2284 00e8 13       		.uleb128 0x13
 2285 00e9 00       		.byte	0
 2286 00ea 00       		.byte	0
 2287 00eb 14       		.uleb128 0x14
 2288 00ec 0D       		.uleb128 0xd
 2289 00ed 00       		.byte	0
 2290 00ee 03       		.uleb128 0x3
 2291 00ef 0E       		.uleb128 0xe
 2292 00f0 3A       		.uleb128 0x3a
 2293 00f1 0B       		.uleb128 0xb
 2294 00f2 3B       		.uleb128 0x3b
 2295 00f3 05       		.uleb128 0x5
 2296 00f4 49       		.uleb128 0x49
 2297 00f5 13       		.uleb128 0x13
 2298 00f6 00       		.byte	0
 2299 00f7 00       		.byte	0
 2300 00f8 15       		.uleb128 0x15
 2301 00f9 26       		.uleb128 0x26
 2302 00fa 00       		.byte	0
 2303 00fb 49       		.uleb128 0x49
 2304 00fc 13       		.uleb128 0x13
 2305 00fd 00       		.byte	0
 2306 00fe 00       		.byte	0
 2307 00ff 16       		.uleb128 0x16
 2308 0100 13       		.uleb128 0x13
 2309 0101 01       		.byte	0x1
 2310 0102 0B       		.uleb128 0xb
 2311 0103 0B       		.uleb128 0xb
 2312 0104 3A       		.uleb128 0x3a
 2313 0105 0B       		.uleb128 0xb
 2314 0106 3B       		.uleb128 0x3b
 2315 0107 0B       		.uleb128 0xb
 2316 0108 01       		.uleb128 0x1
 2317 0109 13       		.uleb128 0x13
 2318 010a 00       		.byte	0
 2319 010b 00       		.byte	0
 2320 010c 17       		.uleb128 0x17
 2321 010d 0D       		.uleb128 0xd
 2322 010e 00       		.byte	0
 2323 010f 03       		.uleb128 0x3
 2324 0110 08       		.uleb128 0x8
 2325 0111 3A       		.uleb128 0x3a
 2326 0112 0B       		.uleb128 0xb
 2327 0113 3B       		.uleb128 0x3b
 2328 0114 0B       		.uleb128 0xb
 2329 0115 49       		.uleb128 0x49
 2330 0116 13       		.uleb128 0x13
 2331 0117 00       		.byte	0
 2332 0118 00       		.byte	0
 2333 0119 18       		.uleb128 0x18
 2334 011a 2E       		.uleb128 0x2e
 2335 011b 01       		.byte	0x1
 2336 011c 03       		.uleb128 0x3
 2337 011d 0E       		.uleb128 0xe
 2338 011e 3A       		.uleb128 0x3a
ARM GAS  /tmp/ccxQrKxw.s 			page 62


 2339 011f 0B       		.uleb128 0xb
 2340 0120 3B       		.uleb128 0x3b
 2341 0121 0B       		.uleb128 0xb
 2342 0122 27       		.uleb128 0x27
 2343 0123 19       		.uleb128 0x19
 2344 0124 20       		.uleb128 0x20
 2345 0125 0B       		.uleb128 0xb
 2346 0126 01       		.uleb128 0x1
 2347 0127 13       		.uleb128 0x13
 2348 0128 00       		.byte	0
 2349 0129 00       		.byte	0
 2350 012a 19       		.uleb128 0x19
 2351 012b 05       		.uleb128 0x5
 2352 012c 00       		.byte	0
 2353 012d 03       		.uleb128 0x3
 2354 012e 0E       		.uleb128 0xe
 2355 012f 3A       		.uleb128 0x3a
 2356 0130 0B       		.uleb128 0xb
 2357 0131 3B       		.uleb128 0x3b
 2358 0132 0B       		.uleb128 0xb
 2359 0133 49       		.uleb128 0x49
 2360 0134 13       		.uleb128 0x13
 2361 0135 00       		.byte	0
 2362 0136 00       		.byte	0
 2363 0137 1A       		.uleb128 0x1a
 2364 0138 2E       		.uleb128 0x2e
 2365 0139 01       		.byte	0x1
 2366 013a 3F       		.uleb128 0x3f
 2367 013b 19       		.uleb128 0x19
 2368 013c 03       		.uleb128 0x3
 2369 013d 0E       		.uleb128 0xe
 2370 013e 3A       		.uleb128 0x3a
 2371 013f 0B       		.uleb128 0xb
 2372 0140 3B       		.uleb128 0x3b
 2373 0141 0B       		.uleb128 0xb
 2374 0142 27       		.uleb128 0x27
 2375 0143 19       		.uleb128 0x19
 2376 0144 11       		.uleb128 0x11
 2377 0145 01       		.uleb128 0x1
 2378 0146 12       		.uleb128 0x12
 2379 0147 06       		.uleb128 0x6
 2380 0148 40       		.uleb128 0x40
 2381 0149 18       		.uleb128 0x18
 2382 014a 9742     		.uleb128 0x2117
 2383 014c 19       		.uleb128 0x19
 2384 014d 01       		.uleb128 0x1
 2385 014e 13       		.uleb128 0x13
 2386 014f 00       		.byte	0
 2387 0150 00       		.byte	0
 2388 0151 1B       		.uleb128 0x1b
 2389 0152 05       		.uleb128 0x5
 2390 0153 00       		.byte	0
 2391 0154 03       		.uleb128 0x3
 2392 0155 0E       		.uleb128 0xe
 2393 0156 3A       		.uleb128 0x3a
 2394 0157 0B       		.uleb128 0xb
 2395 0158 3B       		.uleb128 0x3b
ARM GAS  /tmp/ccxQrKxw.s 			page 63


 2396 0159 0B       		.uleb128 0xb
 2397 015a 49       		.uleb128 0x49
 2398 015b 13       		.uleb128 0x13
 2399 015c 02       		.uleb128 0x2
 2400 015d 18       		.uleb128 0x18
 2401 015e 00       		.byte	0
 2402 015f 00       		.byte	0
 2403 0160 1C       		.uleb128 0x1c
 2404 0161 1D       		.uleb128 0x1d
 2405 0162 01       		.byte	0x1
 2406 0163 31       		.uleb128 0x31
 2407 0164 13       		.uleb128 0x13
 2408 0165 52       		.uleb128 0x52
 2409 0166 01       		.uleb128 0x1
 2410 0167 55       		.uleb128 0x55
 2411 0168 17       		.uleb128 0x17
 2412 0169 58       		.uleb128 0x58
 2413 016a 0B       		.uleb128 0xb
 2414 016b 59       		.uleb128 0x59
 2415 016c 0B       		.uleb128 0xb
 2416 016d 01       		.uleb128 0x1
 2417 016e 13       		.uleb128 0x13
 2418 016f 00       		.byte	0
 2419 0170 00       		.byte	0
 2420 0171 1D       		.uleb128 0x1d
 2421 0172 05       		.uleb128 0x5
 2422 0173 00       		.byte	0
 2423 0174 31       		.uleb128 0x31
 2424 0175 13       		.uleb128 0x13
 2425 0176 02       		.uleb128 0x2
 2426 0177 18       		.uleb128 0x18
 2427 0178 00       		.byte	0
 2428 0179 00       		.byte	0
 2429 017a 1E       		.uleb128 0x1e
 2430 017b 05       		.uleb128 0x5
 2431 017c 00       		.byte	0
 2432 017d 31       		.uleb128 0x31
 2433 017e 13       		.uleb128 0x13
 2434 017f 1C       		.uleb128 0x1c
 2435 0180 06       		.uleb128 0x6
 2436 0181 00       		.byte	0
 2437 0182 00       		.byte	0
 2438 0183 1F       		.uleb128 0x1f
 2439 0184 1D       		.uleb128 0x1d
 2440 0185 01       		.byte	0x1
 2441 0186 31       		.uleb128 0x31
 2442 0187 13       		.uleb128 0x13
 2443 0188 11       		.uleb128 0x11
 2444 0189 01       		.uleb128 0x1
 2445 018a 12       		.uleb128 0x12
 2446 018b 06       		.uleb128 0x6
 2447 018c 58       		.uleb128 0x58
 2448 018d 0B       		.uleb128 0xb
 2449 018e 59       		.uleb128 0x59
 2450 018f 0B       		.uleb128 0xb
 2451 0190 01       		.uleb128 0x1
 2452 0191 13       		.uleb128 0x13
ARM GAS  /tmp/ccxQrKxw.s 			page 64


 2453 0192 00       		.byte	0
 2454 0193 00       		.byte	0
 2455 0194 20       		.uleb128 0x20
 2456 0195 1D       		.uleb128 0x1d
 2457 0196 01       		.byte	0x1
 2458 0197 31       		.uleb128 0x31
 2459 0198 13       		.uleb128 0x13
 2460 0199 11       		.uleb128 0x11
 2461 019a 01       		.uleb128 0x1
 2462 019b 12       		.uleb128 0x12
 2463 019c 06       		.uleb128 0x6
 2464 019d 58       		.uleb128 0x58
 2465 019e 0B       		.uleb128 0xb
 2466 019f 59       		.uleb128 0x59
 2467 01a0 0B       		.uleb128 0xb
 2468 01a1 00       		.byte	0
 2469 01a2 00       		.byte	0
 2470 01a3 21       		.uleb128 0x21
 2471 01a4 05       		.uleb128 0x5
 2472 01a5 00       		.byte	0
 2473 01a6 03       		.uleb128 0x3
 2474 01a7 0E       		.uleb128 0xe
 2475 01a8 3A       		.uleb128 0x3a
 2476 01a9 0B       		.uleb128 0xb
 2477 01aa 3B       		.uleb128 0x3b
 2478 01ab 0B       		.uleb128 0xb
 2479 01ac 49       		.uleb128 0x49
 2480 01ad 13       		.uleb128 0x13
 2481 01ae 02       		.uleb128 0x2
 2482 01af 17       		.uleb128 0x17
 2483 01b0 00       		.byte	0
 2484 01b1 00       		.byte	0
 2485 01b2 22       		.uleb128 0x22
 2486 01b3 34       		.uleb128 0x34
 2487 01b4 00       		.byte	0
 2488 01b5 03       		.uleb128 0x3
 2489 01b6 0E       		.uleb128 0xe
 2490 01b7 3A       		.uleb128 0x3a
 2491 01b8 0B       		.uleb128 0xb
 2492 01b9 3B       		.uleb128 0x3b
 2493 01ba 0B       		.uleb128 0xb
 2494 01bb 49       		.uleb128 0x49
 2495 01bc 13       		.uleb128 0x13
 2496 01bd 02       		.uleb128 0x2
 2497 01be 17       		.uleb128 0x17
 2498 01bf 00       		.byte	0
 2499 01c0 00       		.byte	0
 2500 01c1 23       		.uleb128 0x23
 2501 01c2 34       		.uleb128 0x34
 2502 01c3 00       		.byte	0
 2503 01c4 03       		.uleb128 0x3
 2504 01c5 08       		.uleb128 0x8
 2505 01c6 3A       		.uleb128 0x3a
 2506 01c7 0B       		.uleb128 0xb
 2507 01c8 3B       		.uleb128 0x3b
 2508 01c9 0B       		.uleb128 0xb
 2509 01ca 49       		.uleb128 0x49
ARM GAS  /tmp/ccxQrKxw.s 			page 65


 2510 01cb 13       		.uleb128 0x13
 2511 01cc 02       		.uleb128 0x2
 2512 01cd 17       		.uleb128 0x17
 2513 01ce 00       		.byte	0
 2514 01cf 00       		.byte	0
 2515 01d0 24       		.uleb128 0x24
 2516 01d1 0B       		.uleb128 0xb
 2517 01d2 01       		.byte	0x1
 2518 01d3 55       		.uleb128 0x55
 2519 01d4 17       		.uleb128 0x17
 2520 01d5 00       		.byte	0
 2521 01d6 00       		.byte	0
 2522 01d7 25       		.uleb128 0x25
 2523 01d8 34       		.uleb128 0x34
 2524 01d9 00       		.byte	0
 2525 01da 03       		.uleb128 0x3
 2526 01db 08       		.uleb128 0x8
 2527 01dc 3A       		.uleb128 0x3a
 2528 01dd 0B       		.uleb128 0xb
 2529 01de 3B       		.uleb128 0x3b
 2530 01df 05       		.uleb128 0x5
 2531 01e0 49       		.uleb128 0x49
 2532 01e1 13       		.uleb128 0x13
 2533 01e2 3F       		.uleb128 0x3f
 2534 01e3 19       		.uleb128 0x19
 2535 01e4 3C       		.uleb128 0x3c
 2536 01e5 19       		.uleb128 0x19
 2537 01e6 00       		.byte	0
 2538 01e7 00       		.byte	0
 2539 01e8 00       		.byte	0
 2540              		.section	.debug_loc,"",%progbits
 2541              	.Ldebug_loc0:
 2542              	.LLST0:
 2543 0000 00000000 		.4byte	.LVL6
 2544 0004 3C000000 		.4byte	.LVL13
 2545 0008 0100     		.2byte	0x1
 2546 000a 51       		.byte	0x51
 2547 000b 3C000000 		.4byte	.LVL13
 2548 000f FE000000 		.4byte	.LFE181
 2549 0013 0100     		.2byte	0x1
 2550 0015 51       		.byte	0x51
 2551 0016 00000000 		.4byte	0
 2552 001a 00000000 		.4byte	0
 2553              	.LLST1:
 2554 001e 00000000 		.4byte	.LVL6
 2555 0022 18000000 		.4byte	.LVL8
 2556 0026 0100     		.2byte	0x1
 2557 0028 52       		.byte	0x52
 2558 0029 18000000 		.4byte	.LVL8
 2559 002d FE000000 		.4byte	.LFE181
 2560 0031 0400     		.2byte	0x4
 2561 0033 F3       		.byte	0xf3
 2562 0034 01       		.uleb128 0x1
 2563 0035 52       		.byte	0x52
 2564 0036 9F       		.byte	0x9f
 2565 0037 00000000 		.4byte	0
 2566 003b 00000000 		.4byte	0
ARM GAS  /tmp/ccxQrKxw.s 			page 66


 2567              	.LLST2:
 2568 003f 16000000 		.4byte	.LVL7
 2569 0043 BE000000 		.4byte	.LVL29
 2570 0047 0100     		.2byte	0x1
 2571 0049 54       		.byte	0x54
 2572 004a CA000000 		.4byte	.LVL33
 2573 004e FE000000 		.4byte	.LFE181
 2574 0052 0100     		.2byte	0x1
 2575 0054 54       		.byte	0x54
 2576 0055 00000000 		.4byte	0
 2577 0059 00000000 		.4byte	0
 2578              	.LLST3:
 2579 005d 24000000 		.4byte	.LVL9
 2580 0061 BE000000 		.4byte	.LVL31
 2581 0065 0100     		.2byte	0x1
 2582 0067 57       		.byte	0x57
 2583 0068 CA000000 		.4byte	.LVL33
 2584 006c FE000000 		.4byte	.LFE181
 2585 0070 0100     		.2byte	0x1
 2586 0072 57       		.byte	0x57
 2587 0073 00000000 		.4byte	0
 2588 0077 00000000 		.4byte	0
 2589              	.LLST4:
 2590 007b 26000000 		.4byte	.LVL10
 2591 007f BE000000 		.4byte	.LVL30
 2592 0083 0100     		.2byte	0x1
 2593 0085 56       		.byte	0x56
 2594 0086 CA000000 		.4byte	.LVL33
 2595 008a FE000000 		.4byte	.LFE181
 2596 008e 0100     		.2byte	0x1
 2597 0090 56       		.byte	0x56
 2598 0091 00000000 		.4byte	0
 2599 0095 00000000 		.4byte	0
 2600              	.LLST5:
 2601 0099 26000000 		.4byte	.LVL10
 2602 009d 2E000000 		.4byte	.LVL11
 2603 00a1 0100     		.2byte	0x1
 2604 00a3 55       		.byte	0x55
 2605 00a4 2E000000 		.4byte	.LVL11
 2606 00a8 48000000 		.4byte	.LVL16
 2607 00ac 0200     		.2byte	0x2
 2608 00ae 7D       		.byte	0x7d
 2609 00af 00       		.sleb128 0
 2610 00b0 48000000 		.4byte	.LVL16
 2611 00b4 4C000000 		.4byte	.LVL18
 2612 00b8 0100     		.2byte	0x1
 2613 00ba 52       		.byte	0x52
 2614 00bb 4C000000 		.4byte	.LVL18
 2615 00bf BE000000 		.4byte	.LVL28
 2616 00c3 0200     		.2byte	0x2
 2617 00c5 7D       		.byte	0x7d
 2618 00c6 00       		.sleb128 0
 2619 00c7 BE000000 		.4byte	.LVL28
 2620 00cb CA000000 		.4byte	.LVL33
 2621 00cf 0200     		.2byte	0x2
 2622 00d1 91       		.byte	0x91
 2623 00d2 50       		.sleb128 -48
ARM GAS  /tmp/ccxQrKxw.s 			page 67


 2624 00d3 CA000000 		.4byte	.LVL33
 2625 00d7 D2000000 		.4byte	.LVL34
 2626 00db 0100     		.2byte	0x1
 2627 00dd 55       		.byte	0x55
 2628 00de D2000000 		.4byte	.LVL34
 2629 00e2 EE000000 		.4byte	.LVL36
 2630 00e6 0200     		.2byte	0x2
 2631 00e8 7D       		.byte	0x7d
 2632 00e9 00       		.sleb128 0
 2633 00ea EE000000 		.4byte	.LVL36
 2634 00ee F0000000 		.4byte	.LVL37
 2635 00f2 0100     		.2byte	0x1
 2636 00f4 55       		.byte	0x55
 2637 00f5 F0000000 		.4byte	.LVL37
 2638 00f9 FE000000 		.4byte	.LFE181
 2639 00fd 0200     		.2byte	0x2
 2640 00ff 7D       		.byte	0x7d
 2641 0100 00       		.sleb128 0
 2642 0101 00000000 		.4byte	0
 2643 0105 00000000 		.4byte	0
 2644              	.LLST6:
 2645 0109 26000000 		.4byte	.LVL10
 2646 010d BE000000 		.4byte	.LVL32
 2647 0111 0100     		.2byte	0x1
 2648 0113 5B       		.byte	0x5b
 2649 0114 BE000000 		.4byte	.LVL32
 2650 0118 CA000000 		.4byte	.LVL33
 2651 011c 0800     		.2byte	0x8
 2652 011e F3       		.byte	0xf3
 2653 011f 01       		.uleb128 0x1
 2654 0120 52       		.byte	0x52
 2655 0121 45       		.byte	0x45
 2656 0122 24       		.byte	0x24
 2657 0123 4C       		.byte	0x4c
 2658 0124 25       		.byte	0x25
 2659 0125 9F       		.byte	0x9f
 2660 0126 CA000000 		.4byte	.LVL33
 2661 012a FE000000 		.4byte	.LFE181
 2662 012e 0100     		.2byte	0x1
 2663 0130 5B       		.byte	0x5b
 2664 0131 00000000 		.4byte	0
 2665 0135 00000000 		.4byte	0
 2666              	.LLST7:
 2667 0139 26000000 		.4byte	.LVL10
 2668 013d 2E000000 		.4byte	.LVL11
 2669 0141 0200     		.2byte	0x2
 2670 0143 30       		.byte	0x30
 2671 0144 9F       		.byte	0x9f
 2672 0145 2E000000 		.4byte	.LVL11
 2673 0149 FE000000 		.4byte	.LFE181
 2674 014d 0100     		.2byte	0x1
 2675 014f 53       		.byte	0x53
 2676 0150 00000000 		.4byte	0
 2677 0154 00000000 		.4byte	0
 2678              	.LLST8:
 2679 0158 2E000000 		.4byte	.LVL11
 2680 015c 3A000000 		.4byte	.LVL12
ARM GAS  /tmp/ccxQrKxw.s 			page 68


 2681 0160 0100     		.2byte	0x1
 2682 0162 58       		.byte	0x58
 2683 0163 5E000000 		.4byte	.LVL19
 2684 0167 60000000 		.4byte	.LVL20
 2685 016b 0100     		.2byte	0x1
 2686 016d 52       		.byte	0x52
 2687 016e 60000000 		.4byte	.LVL20
 2688 0172 BC000000 		.4byte	.LVL27
 2689 0176 0100     		.2byte	0x1
 2690 0178 58       		.byte	0x58
 2691 0179 CA000000 		.4byte	.LVL33
 2692 017d E0000000 		.4byte	.LVL35
 2693 0181 0100     		.2byte	0x1
 2694 0183 58       		.byte	0x58
 2695 0184 E0000000 		.4byte	.LVL35
 2696 0188 EE000000 		.4byte	.LVL36
 2697 018c 0A00     		.2byte	0xa
 2698 018e 7B       		.byte	0x7b
 2699 018f 00       		.sleb128 0
 2700 0190 73       		.byte	0x73
 2701 0191 00       		.sleb128 0
 2702 0192 37       		.byte	0x37
 2703 0193 1A       		.byte	0x1a
 2704 0194 32       		.byte	0x32
 2705 0195 24       		.byte	0x24
 2706 0196 24       		.byte	0x24
 2707 0197 9F       		.byte	0x9f
 2708 0198 EE000000 		.4byte	.LVL36
 2709 019c FE000000 		.4byte	.LFE181
 2710 01a0 0100     		.2byte	0x1
 2711 01a2 58       		.byte	0x58
 2712 01a3 00000000 		.4byte	0
 2713 01a7 00000000 		.4byte	0
 2714              	.LLST9:
 2715 01ab 2E000000 		.4byte	.LVL11
 2716 01af 3A000000 		.4byte	.LVL12
 2717 01b3 0500     		.2byte	0x5
 2718 01b5 31       		.byte	0x31
 2719 01b6 73       		.byte	0x73
 2720 01b7 00       		.sleb128 0
 2721 01b8 24       		.byte	0x24
 2722 01b9 9F       		.byte	0x9f
 2723 01ba 5E000000 		.4byte	.LVL19
 2724 01be BC000000 		.4byte	.LVL27
 2725 01c2 0500     		.2byte	0x5
 2726 01c4 31       		.byte	0x31
 2727 01c5 73       		.byte	0x73
 2728 01c6 00       		.sleb128 0
 2729 01c7 24       		.byte	0x24
 2730 01c8 9F       		.byte	0x9f
 2731 01c9 CA000000 		.4byte	.LVL33
 2732 01cd FE000000 		.4byte	.LFE181
 2733 01d1 0500     		.2byte	0x5
 2734 01d3 31       		.byte	0x31
 2735 01d4 73       		.byte	0x73
 2736 01d5 00       		.sleb128 0
 2737 01d6 24       		.byte	0x24
ARM GAS  /tmp/ccxQrKxw.s 			page 69


 2738 01d7 9F       		.byte	0x9f
 2739 01d8 00000000 		.4byte	0
 2740 01dc 00000000 		.4byte	0
 2741              	.LLST10:
 2742 01e0 2E000000 		.4byte	.LVL11
 2743 01e4 3A000000 		.4byte	.LVL12
 2744 01e8 0500     		.2byte	0x5
 2745 01ea 91       		.byte	0x91
 2746 01eb 54       		.sleb128 -44
 2747 01ec 06       		.byte	0x6
 2748 01ed 20       		.byte	0x20
 2749 01ee 9F       		.byte	0x9f
 2750 01ef 5E000000 		.4byte	.LVL19
 2751 01f3 7C000000 		.4byte	.LVL23
 2752 01f7 0700     		.2byte	0x7
 2753 01f9 33       		.byte	0x33
 2754 01fa 73       		.byte	0x73
 2755 01fb 00       		.sleb128 0
 2756 01fc 31       		.byte	0x31
 2757 01fd 24       		.byte	0x24
 2758 01fe 24       		.byte	0x24
 2759 01ff 9F       		.byte	0x9f
 2760 0200 7C000000 		.4byte	.LVL23
 2761 0204 80000000 		.4byte	.LVL24
 2762 0208 0100     		.2byte	0x1
 2763 020a 52       		.byte	0x52
 2764 020b 80000000 		.4byte	.LVL24
 2765 020f 8A000000 		.4byte	.LVL25
 2766 0213 0400     		.2byte	0x4
 2767 0215 75       		.byte	0x75
 2768 0216 00       		.sleb128 0
 2769 0217 20       		.byte	0x20
 2770 0218 9F       		.byte	0x9f
 2771 0219 8A000000 		.4byte	.LVL25
 2772 021d BC000000 		.4byte	.LVL27
 2773 0221 0500     		.2byte	0x5
 2774 0223 91       		.byte	0x91
 2775 0224 54       		.sleb128 -44
 2776 0225 06       		.byte	0x6
 2777 0226 20       		.byte	0x20
 2778 0227 9F       		.byte	0x9f
 2779 0228 CA000000 		.4byte	.LVL33
 2780 022c FE000000 		.4byte	.LFE181
 2781 0230 0500     		.2byte	0x5
 2782 0232 91       		.byte	0x91
 2783 0233 54       		.sleb128 -44
 2784 0234 06       		.byte	0x6
 2785 0235 20       		.byte	0x20
 2786 0236 9F       		.byte	0x9f
 2787 0237 00000000 		.4byte	0
 2788 023b 00000000 		.4byte	0
 2789              	.LLST11:
 2790 023f 2E000000 		.4byte	.LVL11
 2791 0243 3A000000 		.4byte	.LVL12
 2792 0247 0100     		.2byte	0x1
 2793 0249 59       		.byte	0x59
 2794 024a 64000000 		.4byte	.LVL21
ARM GAS  /tmp/ccxQrKxw.s 			page 70


 2795 024e 68000000 		.4byte	.LVL22
 2796 0252 0100     		.2byte	0x1
 2797 0254 52       		.byte	0x52
 2798 0255 68000000 		.4byte	.LVL22
 2799 0259 BC000000 		.4byte	.LVL27
 2800 025d 0100     		.2byte	0x1
 2801 025f 59       		.byte	0x59
 2802 0260 CA000000 		.4byte	.LVL33
 2803 0264 FE000000 		.4byte	.LFE181
 2804 0268 0100     		.2byte	0x1
 2805 026a 59       		.byte	0x59
 2806 026b 00000000 		.4byte	0
 2807 026f 00000000 		.4byte	0
 2808              		.section	.debug_aranges,"",%progbits
 2809 0000 24000000 		.4byte	0x24
 2810 0004 0200     		.2byte	0x2
 2811 0006 00000000 		.4byte	.Ldebug_info0
 2812 000a 04       		.byte	0x4
 2813 000b 00       		.byte	0
 2814 000c 0000     		.2byte	0
 2815 000e 0000     		.2byte	0
 2816 0010 00000000 		.4byte	.LFB180
 2817 0014 C0000000 		.4byte	.LFE180-.LFB180
 2818 0018 00000000 		.4byte	.LFB181
 2819 001c FE000000 		.4byte	.LFE181-.LFB181
 2820 0020 00000000 		.4byte	0
 2821 0024 00000000 		.4byte	0
 2822              		.section	.debug_ranges,"",%progbits
 2823              	.Ldebug_ranges0:
 2824 0000 0C000000 		.4byte	.LBB12
 2825 0004 16000000 		.4byte	.LBE12
 2826 0008 16000000 		.4byte	.LBB15
 2827 000c 2C000000 		.4byte	.LBE15
 2828 0010 00000000 		.4byte	0
 2829 0014 00000000 		.4byte	0
 2830 0018 2A000000 		.4byte	.LBB24
 2831 001c 3A000000 		.4byte	.LBE24
 2832 0020 52000000 		.4byte	.LBB25
 2833 0024 B8000000 		.4byte	.LBE25
 2834 0028 CA000000 		.4byte	.LBB26
 2835 002c FE000000 		.4byte	.LBE26
 2836 0030 00000000 		.4byte	0
 2837 0034 00000000 		.4byte	0
 2838 0038 00000000 		.4byte	.LFB180
 2839 003c C0000000 		.4byte	.LFE180
 2840 0040 00000000 		.4byte	.LFB181
 2841 0044 FE000000 		.4byte	.LFE181
 2842 0048 00000000 		.4byte	0
 2843 004c 00000000 		.4byte	0
 2844              		.section	.debug_line,"",%progbits
 2845              	.Ldebug_line0:
 2846 0000 49020000 		.section	.debug_str,"MS",%progbits,1
 2846      0200A701 
 2846      00000201 
 2846      FB0E0D00 
 2846      01010101 
 2847              	.LASF46:
ARM GAS  /tmp/ccxQrKxw.s 			page 71


 2848 0000 63685F74 		.ascii	"ch_threads_list\000"
 2848      68726561 
 2848      64735F6C 
 2848      69737400 
 2849              	.LASF76:
 2850 0010 41504231 		.ascii	"APB1ENR\000"
 2850      454E5200 
 2851              	.LASF92:
 2852 0018 77746D74 		.ascii	"wtmtxp\000"
 2852      787000
 2853              	.LASF119:
 2854 001f 50434461 		.ascii	"PCData\000"
 2854      746100
 2855              	.LASF105:
 2856 0026 42535252 		.ascii	"BSRR\000"
 2856      00
 2857              	.LASF82:
 2858 002b 72656761 		.ascii	"regarm_t\000"
 2858      726D5F74 
 2858      00
 2859              	.LASF72:
 2860 0034 41504232 		.ascii	"APB2RSTR\000"
 2860      52535452 
 2860      00
 2861              	.LASF35:
 2862 003d 666C6167 		.ascii	"flags\000"
 2862      7300
 2863              	.LASF26:
 2864 0043 73797374 		.ascii	"systime_t\000"
 2864      696D655F 
 2864      7400
 2865              	.LASF41:
 2866 004d 7265616C 		.ascii	"realprio\000"
 2866      7072696F 
 2866      00
 2867              	.LASF39:
 2868 0056 6570656E 		.ascii	"epending\000"
 2868      64696E67 
 2868      00
 2869              	.LASF0:
 2870 005f 756E7369 		.ascii	"unsigned int\000"
 2870      676E6564 
 2870      20696E74 
 2870      00
 2871              	.LASF47:
 2872 006c 6E657874 		.ascii	"next\000"
 2872      00
 2873              	.LASF44:
 2874 0071 74687265 		.ascii	"threads_list_t\000"
 2874      6164735F 
 2874      6C697374 
 2874      5F7400
 2875              	.LASF133:
 2876 0080 616C7472 		.ascii	"altr\000"
 2876      00
 2877              	.LASF77:
 2878 0085 42444352 		.ascii	"BDCR\000"
ARM GAS  /tmp/ccxQrKxw.s 			page 72


 2878      00
 2879              	.LASF7:
 2880 008a 5F5F696E 		.ascii	"__int32_t\000"
 2880      7433325F 
 2880      7400
 2881              	.LASF36:
 2882 0094 72656673 		.ascii	"refs\000"
 2882      00
 2883              	.LASF88:
 2884 0099 77746F62 		.ascii	"wtobjp\000"
 2884      6A7000
 2885              	.LASF68:
 2886 00a0 76746C69 		.ascii	"vtlist\000"
 2886      737400
 2887              	.LASF84:
 2888 00a7 706F7274 		.ascii	"port_context\000"
 2888      5F636F6E 
 2888      74657874 
 2888      00
 2889              	.LASF52:
 2890 00b4 63685F72 		.ascii	"ch_ready_list\000"
 2890      65616479 
 2890      5F6C6973 
 2890      7400
 2891              	.LASF58:
 2892 00c2 66756E63 		.ascii	"func\000"
 2892      00
 2893              	.LASF93:
 2894 00c7 65776D61 		.ascii	"ewmask\000"
 2894      736B00
 2895              	.LASF132:
 2896 00ce 6D6F6465 		.ascii	"mode\000"
 2896      00
 2897              	.LASF50:
 2898 00d3 70726576 		.ascii	"prev\000"
 2898      00
 2899              	.LASF49:
 2900 00d8 63685F74 		.ascii	"ch_threads_queue\000"
 2900      68726561 
 2900      64735F71 
 2900      75657565 
 2900      00
 2901              	.LASF54:
 2902 00e9 76746675 		.ascii	"vtfunc_t\000"
 2902      6E635F74 
 2902      00
 2903              	.LASF63:
 2904 00f2 63685F73 		.ascii	"ch_system_debug\000"
 2904      79737465 
 2904      6D5F6465 
 2904      62756700 
 2905              	.LASF135:
 2906 0102 474E5520 		.ascii	"GNU C 4.8.3 -mcpu=cortex-m0 -mno-thumb-interwork -m"
 2906      4320342E 
 2906      382E3320 
 2906      2D6D6370 
 2906      753D636F 
ARM GAS  /tmp/ccxQrKxw.s 			page 73


 2907 0135 7468756D 		.ascii	"thumb -ggdb -O2 -fomit-frame-pointer -falign-functi"
 2907      62202D67 
 2907      67646220 
 2907      2D4F3220 
 2907      2D666F6D 
 2908 0168 6F6E733D 		.ascii	"ons=16 -ffunction-sections -fdata-sections -fno-com"
 2908      3136202D 
 2908      6666756E 
 2908      6374696F 
 2908      6E2D7365 
 2909 019b 6D6F6E20 		.ascii	"mon -flto\000"
 2909      2D666C74 
 2909      6F00
 2910              	.LASF17:
 2911 01a5 75696E74 		.ascii	"uint32_t\000"
 2911      33325F74 
 2911      00
 2912              	.LASF90:
 2913 01ae 73656E74 		.ascii	"sentmsg\000"
 2913      6D736700 
 2914              	.LASF24:
 2915 01b6 6576656E 		.ascii	"eventmask_t\000"
 2915      746D6173 
 2915      6B5F7400 
 2916              	.LASF78:
 2917 01c2 41484252 		.ascii	"AHBRSTR\000"
 2917      53545200 
 2918              	.LASF111:
 2919 01ca 6F747970 		.ascii	"otyper\000"
 2919      657200
 2920              	.LASF94:
 2921 01d1 63685F73 		.ascii	"ch_semaphore\000"
 2921      656D6170 
 2921      686F7265 
 2921      00
 2922              	.LASF22:
 2923 01de 74707269 		.ascii	"tprio_t\000"
 2923      6F5F7400 
 2924              	.LASF56:
 2925 01e6 63685F76 		.ascii	"ch_virtual_timer\000"
 2925      69727475 
 2925      616C5F74 
 2925      696D6572 
 2925      00
 2926              	.LASF13:
 2927 01f7 6C6F6E67 		.ascii	"long long unsigned int\000"
 2927      206C6F6E 
 2927      6720756E 
 2927      7369676E 
 2927      65642069 
 2928              	.LASF5:
 2929 020e 5F5F7569 		.ascii	"__uint16_t\000"
 2929      6E743136 
 2929      5F7400
 2930              	.LASF25:
 2931 0219 636E745F 		.ascii	"cnt_t\000"
 2931      7400
ARM GAS  /tmp/ccxQrKxw.s 			page 74


 2932              	.LASF101:
 2933 021f 4D4F4445 		.ascii	"MODER\000"
 2933      5200
 2934              	.LASF108:
 2935 0225 41465248 		.ascii	"AFRH\000"
 2935      00
 2936              	.LASF116:
 2937 022a 73746D33 		.ascii	"stm32_gpio_setup_t\000"
 2937      325F6770 
 2937      696F5F73 
 2937      65747570 
 2937      5F7400
 2938              	.LASF109:
 2939 023d 73746D33 		.ascii	"stm32_gpio_t\000"
 2939      325F6770 
 2939      696F5F74 
 2939      00
 2940              	.LASF96:
 2941 024a 6F776E65 		.ascii	"owner\000"
 2941      7200
 2942              	.LASF48:
 2943 0250 74687265 		.ascii	"threads_queue_t\000"
 2943      6164735F 
 2943      71756575 
 2943      655F7400 
 2944              	.LASF100:
 2945 0260 636C6561 		.ascii	"clear\000"
 2945      7200
 2946              	.LASF40:
 2947 0266 6D74786C 		.ascii	"mtxlist\000"
 2947      69737400 
 2948              	.LASF60:
 2949 026e 63685F76 		.ascii	"ch_virtual_timers_list\000"
 2949      69727475 
 2949      616C5F74 
 2949      696D6572 
 2949      735F6C69 
 2950              	.LASF27:
 2951 0285 74687265 		.ascii	"thread_t\000"
 2951      61645F74 
 2951      00
 2952              	.LASF86:
 2953 028e 7264796D 		.ascii	"rdymsg\000"
 2953      736700
 2954              	.LASF81:
 2955 0295 5243435F 		.ascii	"RCC_TypeDef\000"
 2955      54797065 
 2955      44656600 
 2956              	.LASF118:
 2957 02a1 50424461 		.ascii	"PBData\000"
 2957      746100
 2958              	.LASF95:
 2959 02a8 63685F6D 		.ascii	"ch_mutex\000"
 2959      75746578 
 2959      00
 2960              	.LASF12:
 2961 02b1 5F5F7569 		.ascii	"__uint64_t\000"
ARM GAS  /tmp/ccxQrKxw.s 			page 75


 2961      6E743634 
 2961      5F7400
 2962              	.LASF125:
 2963 02bc 696F706F 		.ascii	"ioportid_t\000"
 2963      72746964 
 2963      5F7400
 2964              	.LASF104:
 2965 02c7 50555044 		.ascii	"PUPDR\000"
 2965      5200
 2966              	.LASF73:
 2967 02cd 41504231 		.ascii	"APB1RSTR\000"
 2967      52535452 
 2967      00
 2968              	.LASF29:
 2969 02d6 7072696F 		.ascii	"prio\000"
 2969      00
 2970              	.LASF110:
 2971 02db 6D6F6465 		.ascii	"moder\000"
 2971      7200
 2972              	.LASF97:
 2973 02e1 63686172 		.ascii	"char\000"
 2973      00
 2974              	.LASF43:
 2975 02e6 74687265 		.ascii	"thread_reference_t\000"
 2975      61645F72 
 2975      65666572 
 2975      656E6365 
 2975      5F7400
 2976              	.LASF33:
 2977 02f9 77616261 		.ascii	"wabase\000"
 2977      736500
 2978              	.LASF134:
 2979 0300 616C7472 		.ascii	"altrmask\000"
 2979      6D61736B 
 2979      00
 2980              	.LASF20:
 2981 0309 74737461 		.ascii	"tstate_t\000"
 2981      74655F74 
 2981      00
 2982              	.LASF74:
 2983 0312 41484245 		.ascii	"AHBENR\000"
 2983      4E5200
 2984              	.LASF14:
 2985 0319 75696E74 		.ascii	"uint8_t\000"
 2985      385F7400 
 2986              	.LASF38:
 2987 0321 6D736771 		.ascii	"msgqueue\000"
 2987      75657565 
 2987      00
 2988              	.LASF45:
 2989 032a 63685F74 		.ascii	"ch_thread\000"
 2989      68726561 
 2989      6400
 2990              	.LASF62:
 2991 0334 73797374 		.ascii	"system_debug_t\000"
 2991      656D5F64 
 2991      65627567 
ARM GAS  /tmp/ccxQrKxw.s 			page 76


 2991      5F7400
 2992              	.LASF11:
 2993 0343 6C6F6E67 		.ascii	"long long int\000"
 2993      206C6F6E 
 2993      6720696E 
 2993      7400
 2994              	.LASF23:
 2995 0351 6D73675F 		.ascii	"msg_t\000"
 2995      7400
 2996              	.LASF113:
 2997 0357 70757064 		.ascii	"pupdr\000"
 2997      7200
 2998              	.LASF55:
 2999 035d 76697274 		.ascii	"virtual_timer_t\000"
 2999      75616C5F 
 2999      74696D65 
 2999      725F7400 
 3000              	.LASF123:
 3001 036d 696F706F 		.ascii	"ioportmask_t\000"
 3001      72746D61 
 3001      736B5F74 
 3001      00
 3002              	.LASF124:
 3003 037a 696F6D6F 		.ascii	"iomode_t\000"
 3003      64655F74 
 3003      00
 3004              	.LASF115:
 3005 0383 61667268 		.ascii	"afrh\000"
 3005      00
 3006              	.LASF114:
 3007 0388 6166726C 		.ascii	"afrl\000"
 3007      00
 3008              	.LASF131:
 3009 038d 6D61736B 		.ascii	"mask\000"
 3009      00
 3010              	.LASF79:
 3011 0392 43464752 		.ascii	"CFGR2\000"
 3011      3200
 3012              	.LASF80:
 3013 0398 43464752 		.ascii	"CFGR3\000"
 3013      3300
 3014              	.LASF75:
 3015 039e 41504232 		.ascii	"APB2ENR\000"
 3015      454E5200 
 3016              	.LASF64:
 3017 03a6 70616E69 		.ascii	"panic_msg\000"
 3017      635F6D73 
 3017      6700
 3018              	.LASF99:
 3019 03b0 5F426F6F 		.ascii	"_Bool\000"
 3019      6C00
 3020              	.LASF19:
 3021 03b6 746D6F64 		.ascii	"tmode_t\000"
 3021      655F7400 
 3022              	.LASF69:
 3023 03be 6D61696E 		.ascii	"mainthread\000"
 3023      74687265 
ARM GAS  /tmp/ccxQrKxw.s 			page 77


 3023      616400
 3024              	.LASF103:
 3025 03c9 4F535045 		.ascii	"OSPEEDR\000"
 3025      45445200 
 3026              	.LASF15:
 3027 03d1 75696E74 		.ascii	"uint16_t\000"
 3027      31365F74 
 3027      00
 3028              	.LASF120:
 3029 03da 50444461 		.ascii	"PDData\000"
 3029      746100
 3030              	.LASF127:
 3031 03e1 636F6E66 		.ascii	"config\000"
 3031      696700
 3032              	.LASF3:
 3033 03e8 73686F72 		.ascii	"short int\000"
 3033      7420696E 
 3033      7400
 3034              	.LASF8:
 3035 03f2 6C6F6E67 		.ascii	"long int\000"
 3035      20696E74 
 3035      00
 3036              	.LASF85:
 3037 03fb 706F7274 		.ascii	"port_intctx\000"
 3037      5F696E74 
 3037      63747800 
 3038              	.LASF136:
 3039 0407 2E2E2F2E 		.ascii	"../../../os/hal/ports/STM32/LLD/GPIOv2/hal_pal_lld."
 3039      2E2F2E2E 
 3039      2F6F732F 
 3039      68616C2F 
 3039      706F7274 
 3040 043a 6300     		.ascii	"c\000"
 3041              	.LASF117:
 3042 043c 50414461 		.ascii	"PAData\000"
 3042      746100
 3043              	.LASF66:
 3044 0443 63685F73 		.ascii	"ch_system\000"
 3044      79737465 
 3044      6D00
 3045              	.LASF102:
 3046 044d 4F545950 		.ascii	"OTYPER\000"
 3046      455200
 3047              	.LASF61:
 3048 0454 6C617374 		.ascii	"lasttime\000"
 3048      74696D65 
 3048      00
 3049              	.LASF18:
 3050 045d 75696E74 		.ascii	"uint64_t\000"
 3050      36345F74 
 3050      00
 3051              	.LASF71:
 3052 0466 43464752 		.ascii	"CFGR\000"
 3052      00
 3053              	.LASF67:
 3054 046b 726C6973 		.ascii	"rlist\000"
 3054      7400
ARM GAS  /tmp/ccxQrKxw.s 			page 78


 3055              	.LASF128:
 3056 0471 5F70616C 		.ascii	"_pal_lld_init\000"
 3056      5F6C6C64 
 3056      5F696E69 
 3056      7400
 3057              	.LASF4:
 3058 047f 5F5F7569 		.ascii	"__uint8_t\000"
 3058      6E74385F 
 3058      7400
 3059              	.LASF32:
 3060 0489 6E616D65 		.ascii	"name\000"
 3060      00
 3061              	.LASF122:
 3062 048e 50414C43 		.ascii	"PALConfig\000"
 3062      6F6E6669 
 3062      6700
 3063              	.LASF70:
 3064 0498 73697A65 		.ascii	"sizetype\000"
 3064      74797065 
 3064      00
 3065              	.LASF21:
 3066 04a1 74726566 		.ascii	"trefs_t\000"
 3066      735F7400 
 3067              	.LASF126:
 3068 04a9 6770696F 		.ascii	"gpiop\000"
 3068      7000
 3069              	.LASF10:
 3070 04af 6C6F6E67 		.ascii	"long unsigned int\000"
 3070      20756E73 
 3070      69676E65 
 3070      6420696E 
 3070      7400
 3071              	.LASF51:
 3072 04c1 72656164 		.ascii	"ready_list_t\000"
 3072      795F6C69 
 3072      73745F74 
 3072      00
 3073              	.LASF28:
 3074 04ce 71756575 		.ascii	"queue\000"
 3074      6500
 3075              	.LASF16:
 3076 04d4 696E7433 		.ascii	"int32_t\000"
 3076      325F7400 
 3077              	.LASF130:
 3078 04dc 706F7274 		.ascii	"port\000"
 3078      00
 3079              	.LASF91:
 3080 04e1 77747365 		.ascii	"wtsemp\000"
 3080      6D7000
 3081              	.LASF98:
 3082 04e8 6D757465 		.ascii	"mutex_t\000"
 3082      785F7400 
 3083              	.LASF30:
 3084 04f0 6E657765 		.ascii	"newer\000"
 3084      7200
 3085              	.LASF2:
 3086 04f6 756E7369 		.ascii	"unsigned char\000"
ARM GAS  /tmp/ccxQrKxw.s 			page 79


 3086      676E6564 
 3086      20636861 
 3086      7200
 3087              	.LASF107:
 3088 0504 4146524C 		.ascii	"AFRL\000"
 3088      00
 3089              	.LASF9:
 3090 0509 5F5F7569 		.ascii	"__uint32_t\000"
 3090      6E743332 
 3090      5F7400
 3091              	.LASF37:
 3092 0514 77616974 		.ascii	"waiting\000"
 3092      696E6700 
 3093              	.LASF59:
 3094 051c 76697274 		.ascii	"virtual_timers_list_t\000"
 3094      75616C5F 
 3094      74696D65 
 3094      72735F6C 
 3094      6973745F 
 3095              	.LASF34:
 3096 0532 73746174 		.ascii	"state\000"
 3096      6500
 3097              	.LASF138:
 3098 0538 696E6974 		.ascii	"initgpio\000"
 3098      6770696F 
 3098      00
 3099              	.LASF129:
 3100 0541 5F70616C 		.ascii	"_pal_lld_setgroupmode\000"
 3100      5F6C6C64 
 3100      5F736574 
 3100      67726F75 
 3100      706D6F64 
 3101              	.LASF65:
 3102 0557 63685F73 		.ascii	"ch_system_t\000"
 3102      79737465 
 3102      6D5F7400 
 3103              	.LASF89:
 3104 0563 77747472 		.ascii	"wttrp\000"
 3104      7000
 3105              	.LASF1:
 3106 0569 7369676E 		.ascii	"signed char\000"
 3106      65642063 
 3106      68617200 
 3107              	.LASF57:
 3108 0575 64656C74 		.ascii	"delta\000"
 3108      6100
 3109              	.LASF6:
 3110 057b 73686F72 		.ascii	"short unsigned int\000"
 3110      7420756E 
 3110      7369676E 
 3110      65642069 
 3110      6E7400
 3111              	.LASF83:
 3112 058e 73746B61 		.ascii	"stkalign_t\000"
 3112      6C69676E 
 3112      5F7400
 3113              	.LASF53:
ARM GAS  /tmp/ccxQrKxw.s 			page 80


 3114 0599 63757272 		.ascii	"current\000"
 3114      656E7400 
 3115              	.LASF121:
 3116 05a1 50464461 		.ascii	"PFData\000"
 3116      746100
 3117              	.LASF112:
 3118 05a8 6F737065 		.ascii	"ospeedr\000"
 3118      65647200 
 3119              	.LASF31:
 3120 05b0 6F6C6465 		.ascii	"older\000"
 3120      7200
 3121              	.LASF137:
 3122 05b6 2F686F6D 		.ascii	"/home/awygle/ChibiOS-RT/demos/STM32/RT-STM32F030R8-"
 3122      652F6177 
 3122      79676C65 
 3122      2F436869 
 3122      62694F53 
 3123 05e9 4E55434C 		.ascii	"NUCLEO64\000"
 3123      454F3634 
 3123      00
 3124              	.LASF87:
 3125 05f2 65786974 		.ascii	"exitcode\000"
 3125      636F6465 
 3125      00
 3126              	.LASF106:
 3127 05fb 4C434B52 		.ascii	"LCKR\000"
 3127      00
 3128              	.LASF42:
 3129 0600 6D706F6F 		.ascii	"mpool\000"
 3129      6C00
 3130              		.comm	__gnu_lto_v1,1,1
 3131              		.ident	"GCC: (4.8.3-18ubuntu2+12) 4.8.3"
ARM GAS  /tmp/ccxQrKxw.s 			page 81


DEFINED SYMBOLS
                            *ABS*:0000000000000000 hal_pal_lld.c
     /tmp/ccxQrKxw.s:343    .text._pal_lld_init:0000000000000000 $t
     /tmp/ccxQrKxw.s:349    .text._pal_lld_init:0000000000000000 _pal_lld_init
     /tmp/ccxQrKxw.s:513    .text._pal_lld_init:00000000000000ac $d
     /tmp/ccxQrKxw.s:522    .text._pal_lld_setgroupmode:0000000000000000 $t
     /tmp/ccxQrKxw.s:528    .text._pal_lld_setgroupmode:0000000000000000 _pal_lld_setgroupmode
                            *COM*:0000000000000001 __gnu_lto_v1
                     .debug_frame:0000000000000010 $d

NO UNDEFINED SYMBOLS
