ARM GAS  /tmp/ccxQrKxw.s 			page 1


   1              		.cpu cortex-m0
   2              		.fpu softvfp
   3              		.eabi_attribute 20, 1
   4              		.eabi_attribute 21, 1
   5              		.eabi_attribute 23, 3
   6              		.eabi_attribute 24, 1
   7              		.eabi_attribute 25, 1
   8              		.eabi_attribute 26, 1
   9              		.eabi_attribute 30, 2
  10              		.eabi_attribute 34, 0
  11              		.eabi_attribute 18, 4
  12              		.code	16
  13              		.file	"hal_pal_lld.c"
  14              		.text
  15              	.Ltext0:
  16              		.section	.gnu.lto_.jmpfuncs.5497293772b92f41,"",%progbits
  17 0000 789C6362 		.ascii	"x\234cb`b\300\006\330\2404\023\003##;\003\000\001/\000"
  17      6062C006 
  17      D8A03413 
  17      0323233B 
  17      0300012F 
  18 0015 16       		.ascii	"\026"
  19              		.text
  20              		.section	.gnu.lto_.inline.5497293772b92f41,"",%progbits
  21 0000 789C6362 		.ascii	"x\234cb`b\300\006vBi\240\354\031\206\323\014\214\354"
  21      6062C006 
  21      764269A0 
  21      EC1986D3 
  21      0C8CEC
  22 0013 0C8C0C0C 		.ascii	"\014\214\014\014\314\012`\322\001L&\200\311\006F0\265"
  22      CC0A60D2 
  22      014C2680 
  22      C9064630 
  22      B5
  23 0024 00421D80 		.ascii	"\000B\035\200P\014\002\031\007\326\2601(5\374bdb`|\301"
  23      500C0219 
  23      07D6B031 
  23      2835FC62 
  23      6462607C 
  24 0039 CE022141 		.ascii	"\316\002!A\004\007\230\311\001\"\004\300L\001\020\241"
  24      040798C9 
  24      012204C0 
  24      4C0110A1 
  25 0049 00662A80 		.ascii	"\000f*\200\010\0070\323\001D4@t\203\254\000\222L\020"
  25      080730D3 
  25      01443440 
  25      7483AC00 
  25      924C10
  26 005c 0ED8B98C 		.ascii	"\016\330\271\214\014\347\030\3662122\001mc`.\272\360"
  26      0CE718F6 
  26      32313232 
  26      016D6360 
  26      2EBAF0
  27 006f 47914162 		.ascii	"G\221Ab\316Ef&\006\241\013=\214,`\207\003\000|c\037"
  27      CE456626 
  27      06A10B3D 
  27      8C2C6087 
ARM GAS  /tmp/ccxQrKxw.s 			page 2


  27      03007C63 
  28 0084 C5       		.ascii	"\305"
  29              		.text
  30              		.section	.gnu.lto_.pureconst.5497293772b92f41,"",%progbits
  31 0000 789C6362 		.ascii	"x\234cb`b`e\200\000&\006)F)\000\001\006\000A"
  31      60626065 
  31      80002606 
  31      29462900 
  31      01060041 
  32              		.text
  33              		.section	.gnu.lto__pal_lld_init.5497293772b92f41,"",%progbits
  34 0000 789CB599 		.ascii	"x\234\265\231Kl\033U\024\206\357\275\343\361\333\036"
  34      4B6C1B55 
  34      1486EFBD 
  34      E3F1DB1E 
  35 0010 E7FD725E 		.ascii	"\347\375r^\316\373iQT)+V\225P\245\"@\030\011V\310\004"
  35      CEFB6951 
  35      54292B56 
  35      9550A522 
  35      40180956 
  36 0026 31584A88 		.ascii	"1XJ\210E\201\015\213^\227\012e\201\204U\361\210`\001"
  36      45810D8B 
  36      5E970A65 
  36      818455F1 
  36      886001
  37 0039 159B1020 		.ascii	"\025\233\020 ]\322\224\215\325\005RU%$;\324UD\027\200"
  37      5DD2948D 
  37      D5055255 
  37      25243BD4 
  37      55441780 
  38 004d 2A552DE9 		.ascii	"*U-\351\242ec\346\314q2\307\225\355\353*7\243\370\237"
  38      A26563E6 
  38      CC7132C7 
  38      95EDEB2A 
  38      37A3F89F 
  39 0061 198FE7F8 		.ascii	"\031\217\347\370\233{\216\277M\004\023\354\311\255\307"
  39      9B7B8EBF 
  39      4D0413EC 
  39      C9ADC7
  40 0070 799D76E2 		.ascii	"y\235v\342\214\263\347\006\343\242\270\303X!(8\207\003"
  40      8CB3E706 
  40      E3A2B8C3 
  40      58212838 
  40      8703
  41 0082 C6D905C1 		.ascii	"\306\331\005\301/\274\316\335\317^\025\245\375ry\363"
  41      2FBCCEDD 
  41      CF5E15A5 
  41      FD7279F3 
  42 0092 FE6F9B9F 		.ascii	"\376o\233\237\362\015\361\262`9\316\014\010\223/s\026"
  42      F20DF1B2 
  42      6039CE0C 
  42      08932F73 
  42      16
  43 00a3 81A32844 		.ascii	"\201\243(D\014\"\016aA$ Z Z!\332 \332!: :!\272 \272"
  43      0C220E61 
  43      4124205A 
  43      205A21DA 
ARM GAS  /tmp/ccxQrKxw.s 			page 3


  43      20DA213A 
  44 00bd 217A207A 		.ascii	"!z z!\372 \222\020\375\020\003\020\203\020C\020\303"
  44      21FA2092 
  44      10FD1003 
  44      10831043 
  44      10C3
  45 00cf 10298811 		.ascii	"\020)\210\021\210Q\2101\210q\210\011\210I\210)\210i"
  45      88518831 
  45      88718809 
  45      88498829 
  45      8869
  46 00e1 88198859 		.ascii	"\210\031\210Y\2109\010g3\331%)\213C\214-\272\247\031"
  46      88390867 
  46      33D92529 
  46      8B438C2D 
  46      BAA719
  47 00f4 27E1A15F 		.ascii	"'\341\241_\345\002\366\3066\273q{\355\240;\313\257p"
  47      E502F6C6 
  47      36BB717B 
  47      EDA03BCB 
  47      AF70
  48 0106 93D95CCC 		.ascii	"\223\331\\\314\260\015y\251\220\310q\376\015\373\232"
  48      B00D79A9 
  48      90C871FE 
  48      0DFB9A
  49 0115 E7B878CD 		.ascii	"\347\270x\315\011C~\267*}\314=t\027\351M~\270\264\333"
  49      09437EB7 
  49      2A7DCC3D 
  49      7417E94D 
  49      7EB8B4DB 
  50 0129 ECE32DE3 		.ascii	"\354\343-\343\360n\303\306\3173)\037\011\367\342\215"
  50      F06EC3C6 
  50      CF33291F 
  50      09F7E28D 
  51 0139 B378EDE9 		.ascii	"\263x\355\351\312\332p~\223]\334\377\373\216\037\357"
  51      CADA707E 
  51      935DDCFF 
  51      FB8E1FEF 
  52 0149 5FE6FC23 		.ascii	"_\346\374#\366\237t\012\370\240TQ\312\017r\334\304Z"
  52      F69F740A 
  52      F8A05451 
  52      CA0F72DC 
  52      C45A
  53 015b 7E9B9B50 		.ascii	"~\233\233P#P\251\201E\360>\346\326)\365\341Y\212]\221"
  53      2350A981 
  53      45F03EE6 
  53      D629F5E1 
  53      598A5D91 
  54 016f F272E9C1 		.ascii	"\362r\351\301'\267\270\274,\013\367\313e+\307\203\202"
  54      27B7B8BC 
  54      2C0BF7CB 
  54      652BC783 
  54      82
  55 0180 2D70581D 		.ascii	"-pX\035\250\021\032rwa_\365\000\301{A)e\311\307\236"
  55      A8111A72 
  55      77615FF5 
  55      00C17B41 
ARM GAS  /tmp/ccxQrKxw.s 			page 4


  55      2965C9C7 
  56 0195 00AB59D2 		.ascii	"\000\253Y\322'\330s\252\222\313\300\271\315.\336~\364"
  56      27D873AA 
  56      92CBC0B9 
  56      CD2EDE7E 
  56      F4
  57 01a6 6DFF518F 		.ascii	"m\377Q\217\360@~\377\231\003\374#O9\017\361\203\223"
  57      F0407EFF 
  57      9903FC23 
  57      4F390FF1 
  57      8393
  58 01b8 870FB388 		.ascii	"\207\017\263\210\217f\363\010\256A\251\374\217S8\342"
  58      8F66F308 
  58      AE41A9FC 
  58      8F5338E2 
  59 01c8 AC4241C2 		.ascii	"\254BA\302\322D+\013\341\253,\204\200\0337q\025\234"
  59      D2442B0B 
  59      E1AB2C84 
  59      801B3771 
  59      159C
  60 01da 56DCDC0D 		.ascii	"V\334\334\015g\371\317G\315\220\317`7\012E\2707F\036"
  60      67F9CF47 
  60      CD90CF60 
  60      370A45B8 
  60      37461E
  61 01ed D13DACD4 		.ascii	"\321=\254\3240\216j8_\213\300k\177\356\032X\310\346"
  61      308E6A38 
  61      5F8BC06B 
  61      7FEE1A58 
  61      C8E6
  62 01ff 51A89568 		.ascii	"Q\250\225h\004\341\323\000a\022\210(B\\#\0201%\204_"
  62      04E1D300 
  62      61128828 
  62      425C2310 
  62      3125845F 
  63 0213 03448040 		.ascii	"\003D\200@\304\020\342\017\002\021WB\0045@\204\010D"
  63      C410E20F 
  63      02115742 
  63      04354084 
  63      0844
  64 0225 BC323F04 		.ascii	"\2742?\004\302RB\2045@D\010\204U\231\211;\036DB\011"
  64      C2524284 
  64      35404408 
  64      84559989 
  64      3B1E4442 
  65 023a 11D50011 		.ascii	"\021\325\000\021#\020\211\312L\020\210\026%D\\\003\204"
  65      231089CA 
  65      4C108816 
  65      25445C03 
  65      84
  66 024b 45205AD0 		.ascii	"E Z\320\014w=e\211\246\225\225xJee\371\206\363\353n"
  66      0C773D65 
  66      89A69595 
  66      784A6565 
  66      F986F3EB 
  67 0260 C659AB9E 		.ascii	"\306Y\253\236\263\3566vV\226\377\244\254\271\014N\251"
  67      B3EE3676 
ARM GAS  /tmp/ccxQrKxw.s 			page 5


  67      5696FFA4 
  67      ACB90C4E 
  67      A9
  68 0271 23ADAB20 		.ascii	"#\255\253 \255\337]i\355\324\222V\253BZI\"\255\275\352"
  68      ADDF5D69 
  68      EDD49256 
  68      AB425A49 
  68      22ADBDEA 
  69 0285 B6EC366E 		.ascii	"\266\3546n\313jMi\355a[Z\251\264v\335\331h\253?\033"
  69      CB6A4D69 
  69      ED615B5A 
  69      A9B476DD 
  69      D968AB3F 
  70 029a 4922AD63 		.ascii	"I\"\255cB\230\004\242\215J\013!\332\225\020~\015\020"
  70      429804A2 
  70      8D4A0B21 
  70      DA95107E 
  70      0D10
  71 02ac 0102D14E 		.ascii	"\001\002\321N\245\205\020\035J\210\240\006\210\020\201"
  71      A585101D 
  71      4A88A006 
  71      881081
  72 02bb E8A0D242 		.ascii	"\350\240\322B\210N%DX\003D\204@tRi!D\227\022\"\252\001"
  72      884E2544 
  72      58034484 
  72      40745269 
  72      21449712 
  73 02d2 224620BA 		.ascii	"\"F \272\250\264\020\242[\011\021\327\000a\021\210n"
  73      A8B410A2 
  73      5B0911D7 
  73      00611188 
  73      6E
  74 02e3 54C33D4F 		.ascii	"T\303=OZF\323\322j91i\025=i\335\323!-\243\256\264~\005"
  74      5A46D3D2 
  74      6A393169 
  74      153D69DD 
  74      D3212DA3 
  75 02fb 69FDEB4A 		.ascii	"i\375\353J\353A-i\365(\244\265@\244\365\260\272-\007"
  75      EB412D69 
  75      F528A4B5 
  75      40A4F5B0 
  75      BA2D07
  76 030e 8DDB52AC 		.ascii	"\215\333R\254)\255\207\330\226\036*\255\003w6z\353\317"
  76      29AD87D8 
  76      961E2AAD 
  76      0377367A 
  76      EBCF
  77 0320 C60291D6 		.ascii	"\306\002\221\3261!L\002\321K\245\205\020}J\010\277\006"
  77      31214C02 
  77      D14BA585 
  77      107D4A08 
  77      BF06
  78 0332 880081E8 		.ascii	"\210\000\201\350\243\322B\210\244\022\"\250\001\"D "
  78      A3D24288 
  78      A41222A8 
  78      01224420 
  79 0342 92545A08 		.ascii	"\222TZ\010\321\257\204\010k\200\210\020\210~*-\204\030"
ARM GAS  /tmp/ccxQrKxw.s 			page 6


  79      D1AF8408 
  79      6B808810 
  79      887E2A2D 
  79      8418
  80 0354 50424435 		.ascii	"PBD5@\304\010\304\000\225\026B\014*!\342\032 ,\0021"
  80      40C408C4 
  80      00951642 
  80      0C2A21E2 
  80      1A202C02 
  81 0369 886A78EC 		.ascii	"\210jx\354I\313\327\264\264ZOLZk\236\264\036\353\220"
  81      49CBD7B4 
  81      B45A4F4C 
  81      5A6B9EB4 
  81      1EEB90
  82 037c 96AFAEB4 		.ascii	"\226\257\256\264\376\002i}!@Z\237\213\032\322\032RH"
  82      FE02697D 
  82      21405A9F 
  82      8B1AD21A 
  82      5248
  83 038e 2B43A4F5 		.ascii	"+C\244\365\225\250j\313\227\242a[\326jJ\313\255\341"
  83      95A86ACB 
  83      97A2615B 
  83      D66A4ACB 
  83      ADE1
  84 03a0 7C2D9516 		.ascii	"|-\225\026\024\262\371p\375\331\310\020i\035\023\302"
  84      14B2F970 
  84      FDD9C810 
  84      691D13C2 
  85 03b0 2410C354 		.ascii	"$\020\303TZ\010\221RB\3705@\004\010D\212J\013!F\224"
  85      5A089152 
  85      42F83540 
  85      0408448A 
  85      4A0B2146 
  86 03c5 10410D10 		.ascii	"\020A\015\020!\0021B\245\205\020\243J\210\260\006\210"
  86      21023142 
  86      A58510A3 
  86      4A88B006 
  86      88
  87 03d6 088118A5 		.ascii	"\010\201\030\245\322B\2101%DT\003D\214@\214Qi!\304\270"
  87      D2428831 
  87      25445403 
  87      448C408C 
  87      516921C4 
  88 03eb 1222AE01 		.ascii	"\022\"\256\001\302\"\020\343\250\206\262'-\263ii\265"
  88      C22210E3 
  88      A886B227 
  88      2DB36969 
  88      B5
  89 03fc 9D98B4D6 		.ascii	"\235\230\264\326=i\225uH\313\254+\2552H\353\232+\255"
  89      3D699575 
  89      48CBAC2B 
  89      AD3248EB 
  89      9A2BAD
  90 040f 5F6A496B 		.ascii	"_jIkB!\255<\221\326\365\352\266l5n\313zMi]\307\266L"
  90      4221AD3C 
  90      91D6F5EA 
  90      B66C356E 
ARM GAS  /tmp/ccxQrKxw.s 			page 7


  90      CB7A4D69 
  91 0427 50696DB9 		.ascii	"Pim\271\2631Y\1776\362DZ\307\2040\011\304$\225\026B"
  91      B331597F 
  91      36F2445A 
  91      C7843009 
  91      C4249516 
  92 043c 4C2921FC 		.ascii	"L)!\374\032 \002\004b\212J\013!\246\225\020A\015\020"
  92      1A200204 
  92      628A4A0B 
  92      21A69510 
  92      410D10
  93 044f 2102314D 		.ascii	"!\0021M\245\205\0203J\210\260\006\210\010\201\230\241"
  93      A5851033 
  93      4A88B006 
  93      88088198 
  93      A1
  94 0460 D2428859 		.ascii	"\322B\210Y%DT\003D\214@\314Ri!\304\234\022\"\256\001"
  94      25445403 
  94      448C40CC 
  94      526921C4 
  94      9C1222AE 
  95 0475 C2221073 		.ascii	"\302\"\020s\214\355\261\302\376\372\330\221{\334-\343"
  95      8CEDB1C2 
  95      FEFAD891 
  95      7BDC2DE3 
  96 0485 FC688B3B 		.ascii	"\374h\213;\356?ZN\317\317\247\361o\345|\372\235\354"
  96      EE3F5A4E 
  96      CFCFA7F1 
  96      6FE57CFA 
  96      9DEC
  97 0497 523ABFF2 		.ascii	"R:\277\362\336\373\347\323\257d^x\366T\372\334\2713"
  97      DEFBE7D3 
  97      AF645E78 
  97      F654FADC 
  97      B933
  98 04a9 E9E75F3A 		.ascii	"\351\347_:\373\342\207\247\340\322\033y\347\265\264"
  98      FBE287A7 
  98      E0D21B79 
  98      E7B5B4
  99 04b8 F4D6FC22 		.ascii	"\364\326\374\"3\355|n%\357_\\y\367\355\234\375?\352"
  99      33ED7C6E 
  99      25EF5F5C 
  99      79F7ED9C 
  99      FD3FEA
 100 04cb A2041B   		.ascii	"\242\004\033"
 101              		.text
 102              		.section	.gnu.lto__pal_lld_setgroupmode.5497293772b92f41,"",%progbits
 103 0000 789C9D57 		.ascii	"x\234\235WklTE\024\236\231\273ww\273\217\026(B\237\264"
 103      6B6C5445 
 103      149E99BB 
 103      7777BB8F 
 103      1628429F 
 104 0015 9447098F 		.ascii	"\224G\011\217.\345e\241\002\341]\241M\237$\360G)\264"
 104      2EE565A1 
 104      02E15DA1 
 104      4D9F24F0 
 104      4729B4
ARM GAS  /tmp/ccxQrKxw.s 			page 8


 105 0028 592AADAD 		.ascii	"Y*\255\255m5\321?l\331\376h,!\215by\330\230\"\022D\202"
 105      6D35D13F 
 105      6CD9FE68 
 105      2C218D62 
 105      79D89822 
 106 003f A53658A4 		.ascii	"\2456X\244Mi\215F\210h4\361\007\253&bM \206\006\301"
 106      4D698D46 
 106      886834F1 
 106      07AB2662 
 106      4D208606 
 107 0054 0625015D 		.ascii	"\006%\001]\317\231\307\335W\343.\335\264g\356\234s\276"
 107      CF99C7DD 
 107      57E32EDD 
 107      B467EE9C 
 107      73BE
 108 0066 6FBE9939 		.ascii	"o\276\2319;w\226\021F\302?\347\341\377\316\024B\232"
 108      3B779611 
 108      46C23FE7 
 108      E1FFCE14 
 108      429A
 109 0078 A0A50984 		.ascii	"\240\245\011\204\262\216o\011i\2612\252\211\007\215"
 109      B28E6F09 
 109      69B132AA 
 109      89078D
 110 0087 99DAB289 		.ascii	"\231\332\262\211\307\346@\35301\375\3763\320\213\353"
 110      C7E640EB 
 110      3031FDFE 
 110      33D08BEB 
 111 0097 CE839ECE 		.ascii	"\316\203\236\316\314<f\34113\265\012\210E=X\251C<\304"
 111      CC3C66E1 
 111      3133B50A 
 111      88453D58 
 111      A9433CC4 
 112 00ab 311B4FB4 		.ascii	"1\033O\264\363D\233r\333\325\203\203\305\267Z \356<"
 112      F3449B72 
 112      DBD58383 
 112      C5B75A20 
 112      EE3C
 113 00bd FC158104 		.ascii	"\374\025\201\004\247\030|\304\032O)>\020J\0162\315\244"
 113      A7187CC4 
 113      1A4F293E 
 113      104A0E32 
 113      CDA4
 114 00cf 9B2DD638 		.ascii	"\233-\3268\233\335\341\214\247\007wS\024o\317\"\247"
 114      9BDDE18C 
 114      A7077753 
 114      146FCF22 
 114      A7
 115 00e0 3C9E8E5B 		.ascii	"<\236\216[_\366?\240'\216\016\267v{\236\370\375\224"
 115      5FF63FA0 
 115      278E0EB7 
 115      767B9EF8 
 115      FD94
 116 00f2 D6509868 		.ascii	"\326P\230h\036%\373(\331\005\035\232\311\033f\012\235"
 116      1E25FB28 
 116      D9051D9A 
 116      C91B660A 
ARM GAS  /tmp/ccxQrKxw.s 			page 9


 116      9D
 117 0103 39C7BE35 		.ascii	"9\307\2765|\254\375H\262\247\373P\207\347_\200\326P"
 117      7CACFD48 
 117      B2A7FB50 
 117      87E75F80 
 117      D650
 118 0115 8D917531 		.ascii	"\215\221u1\"\217\177\355\350hi\363\370\375\0079ls\214"
 118      228F7FED 
 118      E86869F3 
 118      F8FD0739 
 118      6C738C
 119 0128 B093A1B0 		.ascii	"\260\223\241\260\0351\302\272Ba\3451\302\336\013\205"
 119      1D31C2BA 
 119      4261E531 
 119      C2DE0B85 
 120 0138 ED8E1176 		.ascii	"\355\216\021v1\024\366B\214\260\376\366\243a\213\271"
 120      3114F642 
 120      8CB0FEF6 
 120      A3618BB9 
 121 0148 3736A4E7 		.ascii	"76\244\347a\3255O\353\260\337\277\236\243\016\304\210"
 121      61D5354F 
 121      EBB0DFBF 
 121      9EA30EC4 
 121      88
 122 0159 FA2704F5 		.ascii	"\372'\004\365r\214\250w\252\203Q\257DC\365\260\341["
 122      728CA877 
 122      AA8351AF 
 122      4443F5B0 
 122      E15B
 123 016b 7E7F976F 		.ascii	"~\177\227ol\364C\232\270\223\222:,\257Jz\232f\021\015"
 123      6CF4439A 
 123      B893923A 
 123      2CAF4A7A 
 123      9A66110D 
 124 017f DA33D09A 		.ascii	"\3323\320\232\240=\013\255\016\3559h\315\320^\200\326"
 124      A03D0BAD 
 124      0EED3968 
 124      CDD05E80 
 124      D6
 125 0190 46EB28B5 		.ascii	"F\353(\265\313d\007\251\241&\247D\304c'A\302\246`g\252"
 125      CB6407A9 
 125      A126A744 
 125      C4632741 
 125      C2A66067 
 126 01a5 C44EC34E 		.ascii	"\304N\303N\"t\316Cg:\020\220\031\350\231\211&\011M2"
 126      2274CE43 
 126      673A1090 
 126      19E89989 
 126      26094D32 
 127 01b9 18920209 		.ascii	"\030\222\002\011=\220\220\012\355)h\323\320\231\016"
 127      3D90900A 
 127      ED2968D3 
 127      D0990E
 128 01c8 9D5EE8CC 		.ascii	"\235^\350\314\302\264\014\364d\242\231\015\356>pgag"
 128      C2B40CF4 
 128      64A2990D 
 128      EE3E7067 
ARM GAS  /tmp/ccxQrKxw.s 			page 10


 128      6167
 129 01da 0E742E41 		.ascii	"\016t.Ag.0\263y\2308\037M6\232\005h\026\242Y\204f1\232"
 129      672E30B3 
 129      7998381F 
 129      4D369A05 
 129      6816A259 
 130 01f2 25685C68 		.ascii	"%h\\h\226\242\311E\263\034\315\0124+\321\254B\223\207"
 130      96A2C945 
 130      B31CCD0A 
 130      342BD1AC 
 130      429387
 131 0205 66359A35 		.ascii	"f5\2325h\362\321\254E\263\016\315z4\033\320lD\263\011"
 131      68F2D1AC 
 131      45B30ECD 
 131      7A341BD0 
 131      6C44B309 
 132 0219 CD16345B 		.ascii	"\315\0264[\321lCS\200f;\232\035h\012\321\024\241)\306"
 132      D16C4353 
 132      80663B9A 
 132      1D680AD1 
 132      14A129C6 
 133 022d 152F91EB 		.ascii	"\025/\221\353V*\227\254L\256V\271\\\334\012\271\342"
 133      562A97AC 
 133      4CAE56B9 
 133      5CDC0AB9 
 133      E2
 134 023e F0D1492B 		.ascii	"\360\321I+\034\012\231\302/P\002#\020baU\366>~\220T"
 134      1C0A99C2 
 134      2F500223 
 134      10626155 
 134      F63E7E90 
 135 0253 80851368 		.ascii	"\200\205\023h'e\320h\337\020\357\200\267\2473\255\222"
 135      2765D068 
 135      DF10EF80 
 135      B7A733AD 
 135      92
 136 0264 F6539DB8 		.ascii	"\366S\235\270\251\335MmX\030&\015R\257\023&\374\202"
 136      A9DD4D6D 
 136      5818260D 
 136      52AF1326 
 136      FC82
 137 0276 1FA28470 		.ascii	"\037\242\204p@_\347s\012\340P\000\254$\010~\354mT!'"
 137      405FE773 
 137      0AE05000 
 137      AC24087E 
 137      EC6D5421 
 138 028b 44778913 		.ascii	"Dw\211\023*\204\353\014\347rJ\256\376\000W\274\342J"
 138      2A84EB0C 
 138      E7724AAE 
 138      FE0057BC 
 138      E24A
 139 029d 8AE04A80 		.ascii	"\212\340J\200(\347\012\323u\226s%H\256\201\000\327\024"
 139      28E70AD3 
 139      75967325 
 139      48AE8100 
 139      D714
 140 02af C5B52782 		.ascii	"\305\265'\202k*D9\227\036\312u\216sM\225\\W\003\\\323"
ARM GAS  /tmp/ccxQrKxw.s 			page 11


 140      6B2A4439 
 140      971ECA75 
 140      8E734D95 
 140      5C57035C 
 141 02c4 14972721 		.ascii	"\024\227'!\202,\021\302\234\314\022Jv\236\223%\242\357"
 141      822C11C2 
 141      9CCC124A 
 141      769E9325 
 141      A2EF
 142 02d6 50F74D5D 		.ascii	"P\367M]\271q'0]S\337\270\235\360\010\007\277\006iV\""
 142      B9712730 
 142      5D53DFB8 
 142      9DF00807 
 142      BF066956 
 143 02eb 13DCD4CC 		.ascii	"\023\334\324\314q\334!T\351\001\207\230\262)\340\020"
 143      71DC2154 
 143      E9018798 
 143      B229E010 
 144 02fb EBA9051C 		.ascii	"\353\251\005\034b\263\230r@I\271)\225\323\272\333\231"
 144      62B39872 
 144      4049B929 
 144      95D3BADB 
 144      99
 145 030c A1A4CF00 		.ascii	"\241\244\317\000/\237\026\326\3055\322:\326\222k\204"
 145      2F9F16D6 
 145      C535D23A 
 145      D6926B84 
 146 031c B83F702E 		.ascii	"\270?p.\370\010u\323\351\014L\261\363\311\203\375>\302"
 146      F80875D3 
 146      E90C4CB1 
 146      F3C983FD 
 146      3EC2
 147 032e A018D8A0 		.ascii	"\240\030\330\240\257\301M\313\235?\217\327\372\210\006"
 147      AFC14DCB 
 147      9D3F8FD7 
 147      FA8806
 148 033d 3BCA6EA0 		.ascii	";\312n\240\243\304\371A\223\217\230`W\330\017\273\335"
 148      A3C4F941 
 148      938F9860 
 148      57D80FBB 
 148      DD
 149 034e B4D43938 		.ascii	"\264\32498\336\354#:\254,\033\303x\231\363\006\002\314"
 149      DEEC233A 
 149      AC2C1BC3 
 149      7899F306 
 149      02CC
 150 0360 7219D8E1 		.ascii	"r\031\330\341\237\300Y\341\034\033\337\203\253a\"m\331"
 150      9FC059E1 
 150      1C1BDF83 
 150      AB61226D 
 150      D9
 151 0371 A22AFFEE 		.ascii	"\242*\377\356,0\312\273\207\227q/\267}\334^\342%-\364"
 151      2C30CABB 
 151      8797712F 
 151      B77DDC5E 
 151      E2252DF4 
 152 0385 C2C74D67 		.ascii	"\302\307Mg\302\252q\325\026\261Goz?\205\315\270\314"
ARM GAS  /tmp/ccxQrKxw.s 			page 12


 152      C2AA71D5 
 152      16B1476F 
 152      7A3F85CD 
 152      B8CC
 153 0397 A79304E1 		.ascii	"\247\223\004\341\240\"=t\317;DU,\031\302\034p\301\373"
 153      A0223D74 
 153      CF3B4455 
 153      2C19C21C 
 153      70C1FB
 154 03aa BEE14CE1 		.ascii	"\276\341L\341\033\233,w\3642\337\272\036\276\252)\222"
 154      1B9B2C77 
 154      F432DFBA 
 154      1EBEAA29 
 154      92
 155 03bb E071E72C 		.ascii	"\340q\347,\225\234\312\367\013\0314\345J\343%\201\353"
 155      959CCAF7 
 155      0B1934E5 
 155      4AE32581 
 155      EB
 156 03cc 9E2AF35F 		.ascii	"\236*\363_R\241t\210\206\360\366r\336t)\332\337\231"
 156      52A17488 
 156      86F0F672 
 156      DE7429DA 
 156      DF99
 157 03de A33267A9 		.ascii	"\2432g\251\0311\245\372\015\025\312\200h\330\220\231"
 157      1931A5FA 
 157      0D15CA80 
 157      68D89099 
 158 03ee F2EB01C1 		.ascii	"\362\353\001\301\360!gC4d\310>>\344l9\355\323\3072T"
 158      F0216743 
 158      3464C83E 
 158      3EE46C39 
 158      EDD3C732 
 159 0403 66162749 		.ascii	"f\026'I |\356\241$s\334\270\342A$\2278\311\034\314\373"
 159      207CEEA1 
 159      2473DCB8 
 159      E2412497 
 159      38C91CCC 
 160 0418 FCC7CB57 		.ascii	"\374\307\313W~5\224\314[D>\362\264\002\221\376.9\011"
 160      7E3594CC 
 160      5B443EF2 
 160      B40291FE 
 160      2E3909
 161 042b 8DD94DE7 		.ascii	"\215\331M\347\"\257\205\227\322^\252\212\012\370\007"
 161      22AF8597 
 161      D25EAA8A 
 161      0AF807
 162 043a BD43C626 		.ascii	"\275C\306&\315W\2130\020\264s\331@\007!\356\377\314"
 162      CD578B30 
 162      10B473D9 
 162      400721EE 
 162      FFCC
 163 044c FBA7E15F 		.ascii	"\373\247\341_\300C\032\037\374\372E\273p\363q[<\317"
 163      C0431A1F 
 163      FCFA45BB 
 163      70F3715B 
 163      3CCF
ARM GAS  /tmp/ccxQrKxw.s 			page 13


 164 045e 461919D0 		.ascii	"F\031\031\320B\364\315 \321\013\243\210\246\301\242"
 164      42F4CD20 
 164      D10BA388 
 164      A6C1A2
 165 046d 470D1D8B 		.ascii	"G\015\035\213\3242\016x\257\030\316\305@\007!)\372/"
 165      D4320E78 
 165      AF18CEC5 
 165      40072129 
 165      FA2F
 166 047f C3BF8487 		.ascii	"\303\277\204\207LO)\232J\321K\204\350GA\242]QD3C4\350"
 166      4C4F299A 
 166      4AD14B84 
 166      E84741A2 
 166      5D514433 
 167 0496 FBC4D0B1 		.ascii	"\373\304\320\261\224\353vI}\367\014\177.\017\351O\251"
 167      94EB7649 
 167      7DF70C7F 
 167      2E0FE94F 
 167      A9
 168 04a7 8F497DB9 		.ascii	"\217I}\271x\210|qg\304\327\356T\204\314(\337\300q\247"
 168      78887C71 
 168      67C4D7EE 
 168      5484CC28 
 168      DFC071A7 
 169 04bb 9347360D 		.ascii	"\223G6\015N\233\333#\277\264\307\253Dq\030XB\022\315"
 169      4E9BDB23 
 169      BFB4C7AB 
 169      44711858 
 169      4212CD
 170 04ce 6450D770 		.ascii	"dP\327p\306\307\207~7f\274<\312\2145c\306\260M\201\035"
 170      C6C7877E 
 170      3766BC3C 
 170      CA8C3563 
 170      C6B04D81 
 171 04e3 59210B35 		.ascii	"Y!\0135d\031V\002\035\204\"\226a\025\017\245\210e\370"
 171      64195602 
 171      1D842296 
 171      61150FA5 
 171      8865F8
 172 04f6 2E7419D6 		.ascii	".t\031\326G\031\031\320J\277E\351\277\031\244?/\212"
 172      471919D0 
 172      4ABF45E9 
 172      BF19A43F 
 172      2F8A
 173 0508 7ED3C4FA 		.ascii	"~\323\304\372WO\244\177\015\320A(B\177>\017=\255~\223"
 173      574FA47F 
 173      0DD04128 
 173      427F3E0F 
 173      3DAD7E93 
 174 051c D49FAFF4 		.ascii	"\324\237\257\364[q\243x\305\015=0\364\257\215\242_\017"
 174      5B71A378 
 174      C50D3D30 
 174      F4AF8DA2 
 174      5F0F
 175 052e AEB880FE 		.ascii	"\256\270\200\376u\274\342\326F|#\326\363\020\023R\357"
 175      75BCE2D6 
 175      467C23D6 
ARM GAS  /tmp/ccxQrKxw.s 			page 14


 175      F3101352 
 175      EF
 176 053f 874ACD8F 		.ascii	"\207J\315\2172\010\240\225\3248\322\221&Je4 u\303\344"
 176      3208A095 
 176      D438D291 
 176      264A6534 
 176      2075C3E4 
 177 0553 A46EE452 		.ascii	"\244n\344R7DH\335\304C\223\225\272\211\277ao\217\274"
 177      374448DD 
 177      C4439395 
 177      BA89BF61 
 177      6F8FBC
 178 0566 7DE47F6B 		.ascii	"}\344\177k\336F\332\342E\315\214\006jf\313\344j~\353"
 178      DE46DAE2 
 178      45CD8C06 
 178      6A66CBE4 
 178      6A7EEB
 179 0579 4435B30D 		.ascii	"D5\263\015\350 \024Q3\005<4\331\232/P\372\355J\377\361"
 179      E8201451 
 179      33053C34 
 179      D99A2F50 
 179      FAED4AFF 
 180 058e DF02FAB7 		.ascii	"\337\002\372\267O\256\346wL\244\277\020\350 \024\241"
 180      4FAEE677 
 180      4CA4BF10 
 180      E82014A1 
 181 059e BF888726 		.ascii	"\277\210\207&[\363EJ\277\203\337\305\370\015\357jW\212"
 181      5BF3454A 
 181      BF83DFC5 
 181      F80DEF6A 
 181      578A
 182 05b0 BA0D15CB 		.ascii	"\272\015\025\313\213\022\301\243\330\270\343\361kU\261"
 182      8B12C1A3 
 182      D8B8E3F1 
 182      6B55B1
 183 05bf 3CF47A8F 		.ascii	"<\364z\2178\214\354\260\273\023\362:\011\374\334\327"
 183      388CECB0 
 183      BB13F23A 
 183      09FCDCD7 
 184 05cf F8DBF66E 		.ascii	"\370\333\366n\227q\331.\2017X$\257\272\320\225\310\327"
 184      9771D92E 
 184      81375824 
 184      AFBAD095 
 184      C8D7
 185 05e1 F31F5DE9 		.ascii	"\363\037]\351\012P\012o\217\211n\324\342JX*\001\343"
 185      0A500A6F 
 185      8F896ED4 
 185      E24A582A 
 185      01E3
 186 05f3 5DA90A50 		.ascii	"]\251\012P\006\307\371D\000q\251,\223\200\207\206\242"
 186      06C7F944 
 186      0071A92C 
 186      93808786 
 186      A2
 187 0604 72796687 		.ascii	"ryf\207\347\213\033e9\317o\363>\356JR\200\012U\307a"
 187      E78B1B65 
 187      39CF6FF3 
ARM GAS  /tmp/ccxQrKxw.s 			page 15


 187      3EEE4A52 
 187      800A55C7 
 188 0619 5310D7D8 		.ascii	"S\020\327\330\0125\377x\374\255\361=i\271u\342\0165"
 188      0A35FF78 
 188      FCADF13D 
 188      69B975E2 
 188      0E35
 189 062b EE6CFC53 		.ascii	"\356l\374S\001\357\267V\013\016\2672'\307%\376\352\233"
 189      01EFB756 
 189      0B0EB732 
 189      27C725FE 
 189      EA9B
 190 063d 5CFB2B6B 		.ascii	"\\\373+k]\015\365\215\315M\256\362\212\242\345\313\\"
 190      5D0DF58D 
 190      CD4DAEF2 
 190      8AA2E5CB 
 190      5C
 191 064e 85859B5D 		.ascii	"\205\205\233]\333J\236/~m\031\206^l\200\377\332\332"
 191      DB4A9E2F 
 191      7E6D1986 
 191      5E6C80FF 
 191      DADA
 192 0660 AA9C7D44 		.ascii	"\252\234}D\337[\323\234\263T\257\253\257\252n4\3277"
 192      DF5BD39C 
 192      B354AFAB 
 192      AFAA6E34 
 192      D737
 193 0672 BFDE50DD 		.ascii	"\277\336P\335h\251oj\250\256\256j\324\033^m\250j4U\326"
 193      68A96F6A 
 193      A8AEAE6A 
 193      D41B5E6D 
 193      A86A3455 
 194 0687 36376A90 		.ascii	"67j\220e\305\207\272\312\246\003\254.\227\325-cu+\376"
 194      65C587BA 
 194      CAA603AC 
 194      2E97D52D 
 194      63752BFE 
 195 069b 0370B2EE 		.ascii	"\003p\262\356B"
 195      42
 196              		.text
 197              		.section	.gnu.lto_.symbol_nodes.5497293772b92f41,"",%progbits
 198 0000 789C6362 		.ascii	"x\234cb`bP`\200\002\246-\214\365\014\014\023\31610\324"
 198      60625060 
 198      8002A62D 
 198      8CF50C0C 
 198      13CE3130 
 199 0015 D7CFEB60 		.ascii	"\327\317\353`d\332\312X\317\210\3402\000\000\233\356"
 199      64DACA58 
 199      CF88E032 
 199      00009BEE 
 200 0025 0999     		.ascii	"\011\231"
 201              		.text
 202              		.section	.gnu.lto_.refs.5497293772b92f41,"",%progbits
 203 0000 789C6362 		.ascii	"x\234cb`b`d\200\002\000\000F\000\006"
 203      60626064 
 203      80020000 
 203      460006
ARM GAS  /tmp/ccxQrKxw.s 			page 16


 204              		.text
 205              		.section	.gnu.lto_.decls.5497293772b92f41,"",%progbits
 206 0000 789CBD59 		.ascii	"x\234\275Y}lS\327\025\277\367=\307q\032\217E\264 \320"
 206      7D6C53D7 
 206      15BFF73D 
 206      C7711A8F 
 206      45B420D0 
 207 0014 3AE14AEB 		.ascii	":\341J\353\206\252\016C\3206\366\325.q\002\311\032\032"
 207      86AA0E43 
 207      D036F6D5 
 207      2E7102C9 
 207      1A1A
 208 0026 EB05B40F 		.ascii	"\353\005\264\017M\262\336b\007\254%\261e;\033\373\357"
 208      4DB2DE62 
 208      07AC25B1 
 208      653B1BFB 
 208      EF
 209 0037 92145645 		.ascii	"\222\024VE\035KR\306H\313\207i!M)4$\245-\020 \246l("
 209      1D4B52C6 
 209      48CB8769 
 209      214D2934 
 209      24A52D10 
 210 004f 2288D084 		.ascii	"\"\210\320\204\245U\012K:D?4\321e\332\250\326U\305\273"
 210      A5550A4B 
 210      3A443F34 
 210      D165DAA8 
 210      D655C5BB 
 211 0063 F7BC67FB 		.ascii	"\367\274g\373^\343g\277\227U{\3629\367\372\276s~\367"
 211      5EE367BF 
 211      97557BF2 
 211      39F7FABE 
 211      737EF7
 212 0076 773FDE3D 		.ascii	"w?\336=\307\317\022\222\320\3170BIzm\372\022BG$\204"
 212      C7CF1292 
 212      D0CF3042 
 212      497A6DFA 
 212      12424724 
 213 008b 6484D023 		.ascii	"d\204\320#(s\321&t\200\312$\272\373b\355\013\250\024"
 213      2873D126 
 213      7480CA24 
 213      BAFB62ED 
 213      0BA814
 214 009e 53B94E65 		.ascii	"S\271Ne)\305\372\016\225\357R\371>\225C\264\355 \025"
 214      29C5FA0E 
 214      95EF52F9 
 214      3E9543B4 
 214      ED2015
 215 00b1 07D6EC9C 		.ascii	"\007\326\354\234\014\233\326\277G\345-Z\277\217\312"
 215      0C9BD6BF 
 215      47E52D5A 
 215      BF8FCA
 216 00c0 725A7F89 		.ascii	"rZ\177\211\226'\251\314P\031\246\362.\2253TnP\031\241"
 216      9627A9CC 
 216      5019A6F2 
 216      2E953354 
 216      6E5019A1 
 217 00d4 F23E9573 		.ascii	"\362>\225s\254Cj{\236q\242\345 -\257Q\271@e\224\312"
ARM GAS  /tmp/ccxQrKxw.s 			page 17


 217      AC436A7B 
 217      9E71A2E5 
 217      202DAF51 
 217      B9406594 
 218 00e9 452A9738 		.ascii	"E*\2278\276\217R\033;-\257P\251\241\365Z*?\244\362\030"
 218      BE8F521B 
 218      3B2DAF50 
 218      A9A1F55A 
 218      2A3FA4F2 
 219 00fe 953A2C8E 		.ascii	"\225:,\216\203\215\315A\305\2062<\207\270q1\256SH\303"
 219      838DCD41 
 219      C586323C 
 219      87B87131 
 219      AE5348C3 
 220 0112 9BD1F9DD 		.ascii	"\233\321\371\335\320\3710.\327\264*\340\260\371\273"
 220      D0F9302E 
 220      D7B42AE0 
 220      B0F9BB
 221 0121 8F7E594C 		.ascii	"\217~YLeaV?\313\320>\022\237\235\335\366\321\261\245"
 221      6561563F 
 221      CBD03E12 
 221      9F9DDDF6 
 221      D1B1A5
 222 0134 24DE9E48 		.ascii	"$\336\236H&\037E\213\321\357\011\275\342\333\011\301"
 222      261F458B 
 222      D1EF09BD 
 222      E2DB09C1 
 223 0144 31153FB2 		.ascii	"1\025?\262\010\375\030\253xA\011rA\305Y\002\244\020"
 223      08FD18AB 
 223      78410972 
 223      41C55902 
 223      A410
 224 0156 52F17378 		.ascii	"R\361sx1\324d\030\"*E\235\204\2643\307\232\321\005\013"
 224      31D46418 
 224      222A459D 
 224      84B433C7 
 224      9AD1050B 
 225 016a 5137A050 		.ascii	"Q7\240P\220Q:\000\035b\326\221\302x\212\021y\020\035"
 225      90513A00 
 225      1D62D691 
 225      C2788A11 
 225      79101D
 226 017d 24A46BF6 		.ascii	"$\244k\366\037\037\276 \023\342\320]\\\306\366*\356"
 226      1F1FBE20 
 226      13E2D05D 
 226      5CC6F62A 
 226      EE
 227 018e C30FA2C2 		.ascii	"\303\017\242\302v\314\262\037/D\017\241\027\251a\027"
 227      76CCB21F 
 227      2F440FA1 
 227      17A96117 
 228 019e 216F7C4B 		.ascii	"!o|K\0347tL\022\303\023Nb\323L\231\313\213\370\241\034"
 228      1C37744C 
 228      12C3134E 
 228      62D34C99 
 228      CB8BF8A1 
 229 01b3 5B0A3D80 		.ascii	"[\012=\200\342\314\370\315\211=\230\304\337\300\271"
ARM GAS  /tmp/ccxQrKxw.s 			page 18


 229      E2CCF8CD 
 229      893D98C4 
 229      DFC0B9
 230 01c2 BAC7A9EE 		.ascii	"\272\307\251\356\357O\217*\321;\201]*>B\355%\324\206"
 230      EF4F8F2A 
 230      D13B815D 
 230      2A3E42ED 
 230      25D486
 231 01d5 05F88210 		.ascii	"\005\370\202\020\214\315\000\365\324\234t\266\357\214"
 231      8CCD00F5 
 231      D49C74B6 
 231      EF8C
 232 01e3 03DB0113 		.ascii	"\003\333\001\023l\333\0233\343{\2262\266%\350\311\314"
 232      6CDB1333 
 232      E37B9632 
 232      B625E8C9 
 232      CC
 233 01f4 A2A09C4B 		.ascii	"\242\240\234K\251\257\302`\347\237\316\341v\272^*\036"
 233      A9AFC260 
 233      E79FCEE1 
 233      76BA5E2A 
 233      1E
 234 0205 A26E12EA 		.ascii	"\242n\022\352\303\"k\363P#c\177\354\306\035\000\365"
 234      C3226BF3 
 234      5023637F 
 234      ECC61D00 
 234      F5
 235 0216 2A405DCF 		.ascii	"*@]\317\202Rqq\011O\032\276\247\014\030\036\334\326"
 235      82527171 
 235      094F1ABE 
 235      A70C181E 
 235      DCD6
 236 0228 2BEC2CF8 		.ascii	"+\354,\370\"\262j.\241\017\240S6]\271\250\352U\355\322"
 236      22B26A2E 
 236      A10FA053 
 236      365DB9A8 
 236      EA55EDD2 
 237 023c 0D84299C 		.ascii	"\015\204)\234\235\273\271\037\24605\037\037Y\306s\011"
 237      9DBBB91F 
 237      A630351F 
 237      1F59C673 
 237      09
 238 024d 4BF2F1B8 		.ascii	"K\362\361\270\263KM\201\3356\003\3460$\227\370\017\017"
 238      B34B4D81 
 238      DD3603E6 
 238      302497F8 
 238      0F0F
 239 025f F6996530 		.ascii	"\366\231e0\221\331\035\036\254C2\001Vf\314\254g\202"
 239      91D91D1E 
 239      AC433201 
 239      5666CCAC 
 239      6782
 240 0271 03FB8D65 		.ascii	"\003\373\215e0\221\331.\036\354)3`Kr0\313u\361\017\230"
 240      3091D92E 
 240      1EEC2933 
 240      604B7230 
 240      CB75F10F 
ARM GAS  /tmp/ccxQrKxw.s 			page 19


 241 0286 8A8FD173 		.ascii	"\212\217\321sE\305\203\370\001\252O\202\036\006}\006"
 241      45C583F8 
 241      01AA4F82 
 241      1E067D06 
 242 0296 F408E873 		.ascii	"\364\010\350s\240\317S\235\276$\324\015\234\3723\234"
 242      A0CF539D 
 242      BE24D40D 
 242      9CFA339C 
 243 02a6 C407B9D0 		.ascii	"\304\007\271\320.#\211\267\0256@\355\230\330m\012L\030"
 243      2E2389B7 
 243      153640ED 
 243      98D86D0A 
 243      4C18
 244 02b8 A14B009B 		.ascii	"\241K\000\233\343\300\366\233\002[c\314\354\337\034"
 244      E3C0F69B 
 244      025B63CC 
 244      ECDF1C
 245 02c7 589F2930 		.ascii	"X\237)0\2571\263\335\015\031\260\243\246\300\302\371"
 245      AF31B3DD 
 245      0D19B0A3 
 245      A6C0C2F9 
 246 02d7 1632B56E 		.ascii	"\0262\265n\207a\335^\202\225\271\000z\024\364E\320\227"
 246      8761DD5E 
 246      8295B900 
 246      7A14F445 
 246      D097
 247 02e9 C4B53A2E 		.ascii	"\304\265:.e\237B\332\311\317\241\366\247\367\0042\213"
 247      659F42DA 
 247      C9CFA1F6 
 247      A7F70432 
 247      8B
 248 02fa 6B141D0F 		.ascii	"k\024\035\017\342\322\014\356F\231\343q6\213\307W\320"
 248      E2D20CEE 
 248      4699E371 
 248      368BC757 
 248      D0
 249 030b F384F4D0 		.ascii	"\363\204\364\320 \374\201\255\227$l\232\253\204.\201"
 249      20FC81AD 
 249      97246C9A 
 249      AB842E81 
 250 031b D901BC2C 		.ascii	"\331\001\274,g\027\351\016\276\212\016\261`\362[\262"
 250      6717E90E 
 250      BE8A0EB1 
 250      60F25BB2 
 251 032b AD0C43B8 		.ascii	"\255\014C\270F\272\2270\260q,\361\015Z\334O\334\271"
 251      46BA9730 
 251      B0712CF1 
 251      0D5ADC4F 
 251      DCB9
 252 033d E8ECDA3A 		.ascii	"\350\354\332:\233L.3\037\364\257\026\016\372B\\\223"
 252      9B4C2E33 
 252      1FF4AF16 
 252      0EFA425C 
 252      93
 253 034e 52000FA3 		.ascii	"R\000\017\243L\300?\260\237\005|\025\277\005\373aR*"
 253      4CC03FB0 
 253      9F057C15 
ARM GAS  /tmp/ccxQrKxw.s 			page 20


 253      BF05FB61 
 253      522A
 254 0360 1C1E0518 		.ascii	"\034\036\005\030\306c:;<~z\031\302\343t\341\360\370"
 254      C6633A3B 
 254      3C7E7A19 
 254      C2E374E1 
 254      F0F8
 255 0372 44472279 		.ascii	"DG\"y\231\013\217\035yc\232\212_\201Mf&\344\314\302"
 255      990B8F1D 
 255      79639A8A 
 255      5F814D66 
 255      26E4CCC2 
 256 0386 48A6E717 		.ascii	"H\246\347\027r(\255.\355 \276\016\307\335{\226\301\\"
 256      7228AD2E 
 256      ED20BE0E 
 256      C7DD7B96 
 256      C15C
 257 0398 02580F0F 		.ascii	"\002X\017\017v\313\014\230Q\274\241`;y\260\333\226\301"
 257      76CB0C98 
 257      51BCA160 
 257      3B79B0DB 
 257      96C1
 258 03aa 4466BB78 		.ascii	"Df\273x\260O\315\200\031\305\033\012\266\233\007KZ\006"
 258      B04FCD80 
 258      19C51B0A 
 258      B69B074B 
 258      5A06
 259 03bc E3996D4D 		.ascii	"\343\231mM\274>~\021\223\036\347\275\250\207\220\255"
 259      BC3E7E11 
 259      931EE7BD 
 259      A88790AD 
 260 03cc 246E37DA 		.ascii	"$n7\332\024\010\201\011\311k\242\342\277\341{\305M\372"
 260      14088109 
 260      C96BA2E2 
 260      BFE17BC5 
 260      4DFA
 261 03de ECEF16B0 		.ascii	"\354\357\026\260M\312\332\013\347p{\365\034.\035\231"
 261      4DCADA0B 
 261      E7707BF5 
 261      1C2E1D99 
 262 03ee 65AC63CE 		.ascii	"e\254c\316'\241!\211W\307KI\2473\225\231\377\240?\017"
 262      27A12189 
 262      57C74B49 
 262      A7339599 
 262      FFA03F0F 
 263 0402 F1B9ECA7 		.ascii	"\361\271\354\247k\377\270\344\322\232\013\363\036\034"
 263      6BFFB8E4 
 263      D29A0BF3 
 263      1E1C
 264 0410 DFB384C4 		.ascii	"\337\263\204\304\317\245rO\262\235,\347\372*K\365\305"
 264      CFA5724F 
 264      B29D2CE7 
 264      FA2A4BF5 
 264      C5
 265 0421 CE8F74EE 		.ascii	"\316\217t\356\371\372\303p \374\023\006\272M\316\231"
 265      F9FAC370 
 265      20FC1306 
ARM GAS  /tmp/ccxQrKxw.s 			page 21


 265      BA4DCE99 
 266 0431 799A001A 		.ascii	"y\232\000\032\031;\372m\000\372\030\200v\310\331'\276"
 266      193BFA6D 
 266      00FA1880 
 266      76C8D927 
 266      BE
 267 0442 9C9577CA 		.ascii	"\234\225w\312\342S-\227d*\311\244\214\254\031K\250\027"
 267      E2532D97 
 267      642AC9A4 
 267      8CAC194B 
 267      A817
 268 0454 3A9CCBEC 		.ascii	":\234\313\354?\201\244\231\234s\037L]j&\366Z\306+\313"
 268      3F81A499 
 268      9C731F4C 
 268      5D6A26F6 
 268      5AC62BCB 
 269 0468 5A13093D 		.ascii	"Z\023\011=?\337m\303\215<\025\021oA\374\373\273\030"
 269      3FDF6DC3 
 269      8D3C1511 
 269      6F41FCFB 
 269      BB18
 270 047a 570FC926 		.ascii	"W\017\311&\036\272\\y\231\376\004\237\340\237\340\303"
 270      1EBA5C79 
 270      99FE049F 
 270      E09FE0C3 
 271 048a 96C15C02 		.ascii	"\226\301\\\002\330)\036l\300\014\230\313\230\331i\036"
 271      D8291E6C 
 271      C00C98CB 
 271      98D9691E 
 272 049a ECB86530 		.ascii	"\354\270e0\221\331Y\036\354\244\031\260\345\371\026"
 272      91D9591E 
 272      ECA419B0 
 272      E5F916
 273 04a9 45589F69 		.ascii	"EX\237i.\227}\007\302\3255X\251\031\320\357\202\276"
 273      2E977D07 
 273      C2D53558 
 273      A919D0EF 
 273      82BE
 274 04bb 01FA26E8 		.ascii	"\001\372&\350\367A\177\010\372\016h\"1\335\016\372\011"
 274      F7417F08 
 274      FA0E6822 
 274      31DD0EFA 
 274      09
 275 04cc A9407EA3 		.ascii	"\251@~\243\377\304\235\334u?;\315\246 ]9\223\365\254"
 275      FFC49DDC 
 275      753F3BCD 
 275      A6205D39 
 275      93F5AC
 276 04df 09998116 		.ascii	"\011\231\201\026\352\215N\233'\245R\203C\345\256{z\332"
 276      EA8D4E9B 
 276      27A55283 
 276      43E5AE7B 
 276      7ADA
 277 04f1 61FAB768 		.ascii	"a\372\267h\"\371\364\"\306\261Sb\263>z\327y\300NV\241"
 277      22F9F422 
 277      C6B15362 
 277      B33E7AD7 
ARM GAS  /tmp/ccxQrKxw.s 			page 22


 277      79C04E56 
 278 0506 3F533F44 		.ascii	"?S?D-\263\330\275XR\361\016\340\360\347\317\211CVR\371"
 278      2DB3D8BD 
 278      5852F10E 
 278      E0F0E7CF 
 278      89435652 
 279 051b 972C583D 		.ascii	"\227,X=\251\2749\360\211\236Tj\253\364/0\2334L*\231"
 279      A9BC39F0 
 279      899E546A 
 279      ABF42F30 
 279      9B344C2A 
 280 0530 95EE9BE8 		.ascii	"\225\356\233\350\036;B\343\217\224\232\274O\012\270"
 280      1E3B42E3 
 280      8F949ABC 
 280      4F0AB8
 281 053f 32AB94EB 		.ascii	"2\253\224\353\323c}\232\2536\346;\005\\\231\025J\245"
 281      D3637D9A 
 281      AB36E63B 
 281      055C9915 
 281      4AA5
 282 0551 B2896467 		.ascii	"\262\211dgG\034\023{:\231\235\314Nf\273%!\231\315\221"
 282      471C137B 
 282      3A999DCC 
 282      4E66BB25 
 282      2199CD91 
 283 0565 2F2664FE 		.ascii	"/&d\376\007\216\036\034\376\360\327\271\237jo%z%\226"
 283      078E1E1C 
 283      FEF0D7B9 
 283      9F6A6F25 
 283      7A2596
 284 0578 779EB615 		.ascii	"w\236\266\025\314;E\034\326\367\036)+2\356\235\202\274"
 284      CC3B451C 
 284      D6F71E29 
 284      2B32EE9D 
 284      82BC
 285 058a 93B517CE 		.ascii	"\223\265\027\316;\007\247v\352!];\006F\201\002\363\235"
 285      3B07A776 
 285      EA215D3B 
 285      06468102 
 285      F39D
 286 059c 5FC23834 		.ascii	"_\30284\305\235)c\226\301\\\002\330q\036\354\212\031"
 286      C59D2963 
 286      96C15C02 
 286      D8711EEC 
 286      8A19
 287 05ae B03C09E3 		.ascii	"\260<\011\343k<\330U\313`\"\263\023<\330u3`y\022\306"
 287      6B3CD855 
 287      CB6022B3 
 287      133CD875 
 287      33607912 
 288 05c3 533CD87B 		.ascii	"S<\330{\226\301Df\247y\260[f\300\362\004\302\263<\330"
 288      96C14466 
 288      A779B05B 
 288      66C0F204 
 288      C2B33CD8 
 289 05d7 6DCB6022 		.ascii	"m\313`\"\263+<\330gf\300\\\306\314&x\260\366\"\253`"
 289      B32B3CD8 
ARM GAS  /tmp/ccxQrKxw.s 			page 23


 289      6766C05C 
 289      C6CC2678 
 289      B0F622AB 
 290 05ec 22B3AB3C 		.ascii	"\"\263\253<\330v3`\271\002\241\0166\305\203\355\260"
 290      D8763360 
 290      B902A10E 
 290      36C583ED 
 290      B0
 291 05fd 0C26327B 		.ascii	"\014&2{\233\007\333i\006l\2451\263i\036\354\031\313"
 291      9B07DB69 
 291      066CA531 
 291      B3691EEC 
 291      19CB
 292 060f 602E6478 		.ascii	"`.dx\361\247\220\212\367J,\336\357\203\310\035\007\375"
 292      F1A7908A 
 292      F74A2CDE 
 292      EF83C81D 
 292      07FD
 293 0621 1CE883A0 		.ascii	"\034\350\203\240\373@\367\203>\014\372\010\350\227A"
 293      FB40F783 
 293      3E0CFA08 
 293      E89741
 294 0630 1F033D04 		.ascii	"\037\003=\004\3728\350\327@\237\3403\200\254H\336k0"
 294      FA38E8D7 
 294      409FE033 
 294      80AC48DE 
 294      6B30
 295 0642 08C6EB94 		.ascii	"\010\306\353\224T\232\323\313\340\357\000\341\275\217"
 295      549AD3CB 
 295      E0EF00E1 
 295      BD8F
 296 0650 8A8F42E6 		.ascii	"\212\217B\3462 \274\203\261\374N\316\210\332p\206\232"
 296      3220BC83 
 296      B1FC4ECE 
 296      88DA7086 
 296      9A
 297 0661 1936E87F 		.ascii	"\0316\350\177g\222N\017\022\237\303\313\005\366\306"
 297      67924E0F 
 297      129FC3CB 
 297      05F6C6
 298 0670 2631377B 		.ascii	"&17{hf\207\376O\315\010\301\026\376\253IH\302k\033-"
 298      686687FE 
 298      4FCD08C1 
 298      16FEAB49 
 298      48C26B1B 
 299 0685 AF4A7FD1 		.ascii	"\257J\177\321\347&+\245\330W\224+\245 \275\201\032\315"
 299      E7262BA5 
 299      D857942B 
 299      A520BD81 
 299      1ACD
 300 0697 5D422F80 		.ascii	"]B/\200\305\210d\024\327\231U\312\355\331\013\316.\254"
 300      C5886414 
 300      D79955CA 
 300      EDD90BCE 
 300      2EAC
 301 06a9 75A5E237 		.ascii	"u\245\3427\261\224\327Q'\244\277\333\032&\336%\351l"
 301      B194D751 
ARM GAS  /tmp/ccxQrKxw.s 			page 24


 301      27A4BFDB 
 301      1A26DE25 
 301      E96C
 302 06bb 803909CF 		.ascii	"\2009\011\317\302y1\033\370\032\352\203\277k.\217ne"
 302      C279311B 
 302      F81AEA83 
 302      BF6B2E8F 
 302      6E65
 303 06cd 7FC070CB 		.ascii	"\177\300p\313\316\337'C\361\262\377\337M\364\215\025"
 303      CEDF2743 
 303      F1B2FFDF 
 303      4DF48D15 
 304 06dd 2BDCDA27 		.ascii	"+\334\332'\024uoV\233\335\341P$\026u7lX\277\272\334"
 304      14756F56 
 304      9BDDE150 
 304      24167537 
 304      6C58BFBA 
 305 06f2 5D5757E5 		.ascii	"]WW\345^\347\255\255\377e9\273\345\013Sin\366\257h\234"
 305      5EE7ADAD 
 305      FF6539BB 
 305      E50B5369 
 305      6EF6AF68 
 306 0707 97D76664 		.ascii	"\227\327fd_\367\370F\227\007-\214\306ZV\227\3736\205"
 306      5FF7F846 
 306      97072D8C 
 306      C65A5697 
 306      FB3685
 307 071a 83215F34 		.ascii	"\203!_4\020k\013\373b_v\267E#\356`kcs\233?\340n\015"
 307      106B0BFB 
 307      625F76B7 
 307      4523EE60 
 307      6B63739B 
 308 0732 FCAA39F8 		.ascii	"\374\2529\370sw4\346\017\266\306\250\237\243\215\226"
 308      737734E6 
 308      0FB6C6A8 
 308      9FA38D96 
 309 0742 D423F6F5 		.ascii	"\324#\366\365\\f-j\343\346`k\300\355\363\007\232\324"
 309      5C662D6A 
 309      E3E6606B 
 309      C0EDF307 
 309      9AD4
 310 0754 B6E6982F 		.ascii	"\266\346\230/\366\353p J\335\356\361\371R\216E-!\177"
 310      F6EB7020 
 310      4ADDEEF1 
 310      F9528E45 
 310      2D217F
 311 0767 20620FB1 		.ascii	" b\017\261[\221\342P4\034\010\370#E\341\266\260?\"\207"
 311      5B91E250 
 311      341C08F8 
 311      2345E1B6 
 311      B03F2287 
 312 077b FC119BDA 		.ascii	"\374\021\233\332\024ifj\263\335[Q\245\306T\273\267R"
 312      1469666A 
 312      B3DD5B51 
 312      A5C654BB 
 312      B752
 313 078d 2B3C5A51 		.ascii	"+<ZQ\245\025kYQ\342\255\250\363\204Z\233\202\233\276"
ARM GAS  /tmp/ccxQrKxw.s 			page 25


 313      A5156B59 
 313      51E2ADA8 
 313      F3845A9B 
 313      829BBE
 314 07a0 901A9B2F 		.ascii	"\220\032\233/\330\032\214\331\033\241\321\311\215.V"
 314      D81A8CD9 
 314      1BA1D1C9 
 314      8D2E56
 315 07af B4BEBEAA 		.ascii	"\264\276\276\252Z\261\327o\370\211\267Z)\256o\360VW"
 315      5AB1D76F 
 315      F889B75A 
 315      29AE6FF0 
 315      5657
 316 07c1 572945DE 		.ascii	"W)E\336\215\336*E\256\245R_\245\340\037"
 316      8DDE2A45 
 316      AEA5525F 
 316      A5E01F
 317 07d0 C1F0567D 		.ascii	"\301\360V}\323\027\323\011\263\252L'\246\250\2619\240"
 317      D317D309 
 317      B3AA4C27 
 317      A6A8B139 
 317      A0
 318 07e1 46708DAD 		.ascii	"Fp\215\255\262AQlu\236\307\024[\305Z\245\216\251\032"
 318      B241516C 
 318      759EC714 
 318      5BC55AA5 
 318      8EA91A
 319 07f4 B95251EE 		.ascii	"\271RQ\356\011\206\330\264\007\375\276\230S\253\266"
 319      0986D8B4 
 319      07FDBE98 
 319      53ABB6
 320 0803 A8D15FF8 		.ascii	"\250\321_\370b\216`\210\015\327\027[\224\346G\3216E"
 320      628E6088 
 320      0DD7175B 
 320      94E647D1 
 320      3645
 321 0815 426D61D6 		.ascii	"Bma\326nc\2266fjc_\327\360K\331\030ji\011\265\272\003"
 321      6E639636 
 321      666A635F 
 321      D7F04BD9 
 321      186A6909 
 322 082c 5B626ECF 		.ascii	"[bn\317\372\206\332\006\272\242\332\242\256]\271e\213"
 322      FA86DA06 
 322      BAA2DAA2 
 322      AE5DB965 
 322      8B
 323 083d 1B46D6B4 		.ascii	"\033F\326\264r\365\312-k\350\364\226*\036\217o\003\235"
 323      72F5CA2D 
 323      6BE8F496 
 323      2A1E8F6F 
 323      039D
 324 084f D0AA4093 		.ascii	"\320\252@\223\344Ql\236\265\353\024\331S\2538*\274\225"
 324      E4516C9E 
 324      B5EB14D9 
 324      53AB382A 
 324      BC95
 325 0861 E54AC306 		.ascii	"\345J\303\006\250\254b\025{EMe\365\343J1\273\241\227"
ARM GAS  /tmp/ccxQrKxw.s 			page 26


 325      A8AC6215 
 325      7B454D65 
 325      F5E34A31 
 325      BBA197
 326 0874 AB6869AB 		.ascii	"\253hi\253\254\362P\217\006\332PS\311\354\212\030D9"
 326      ACF2508F 
 326      06DA5053 
 326      C9EC8A18 
 326      4439
 327 0886 E8D5B247 		.ascii	"\350\325\262G)w\260ie\023Y\304T\370\277p\011\306\014"
 327      2977B069 
 327      651359C4 
 327      54F8BF70 
 327      09C60C
 328              		.text
 329              		.section	.gnu.lto_.symtab.5497293772b92f41,"",%progbits
 330 0000 5F70616C 		.ascii	"_pal_lld_init\000\000\000\000\000\000\000\000\000\000"
 330      5F6C6C64 
 330      5F696E69 
 330      74000000 
 330      00000000 
 331 0017 0000A100 		.ascii	"\000\000\241\000\000\000_pal_lld_setgroupmode\000\000"
 331      00005F70 
 331      616C5F6C 
 331      6C645F73 
 331      65746772 
 332 0034 00000000 		.ascii	"\000\000\000\000\000\000\000\000\000\000\323\000\000"
 332      00000000 
 332      0000D300 
 332      00
 333 0041 00       		.ascii	"\000"
 334              		.text
 335              		.section	.gnu.lto_.opts,"",%progbits
 336 0000 272D6D63 		.ascii	"'-mcpu=cortex-m0' '-mno-thumb-interwork' '-mthumb' "
 336      70753D63 
 336      6F727465 
 336      782D6D30 
 336      2720272D 
 337 0033 272D6767 		.ascii	"'-ggdb' '-O2' '-fomit-frame-pointer' '-falign-funct"
 337      64622720 
 337      272D4F32 
 337      2720272D 
 337      666F6D69 
 338 0066 696F6E73 		.ascii	"ions=16' '-ffunction-sections' '-fdata-sections' '-"
 338      3D313627 
 338      20272D66 
 338      66756E63 
 338      74696F6E 
 339 0099 666E6F2D 		.ascii	"fno-common' '-flto'\000"
 339      636F6D6D 
 339      6F6E2720 
 339      272D666C 
 339      746F2700 
 340              		.text
 341              		.cfi_sections	.debug_frame
 342              		.section	.text._pal_lld_init,"ax",%progbits
 343              		.align	2
ARM GAS  /tmp/ccxQrKxw.s 			page 27


 344              		.p2align 4,,15
 345              		.global	_pal_lld_init
 346              		.code	16
 347              		.thumb_func
 348              		.type	_pal_lld_init, %function
 349              	_pal_lld_init:
 350              	.LFB180:
 351              		.file 1 "../../../os/hal/ports/STM32/LLD/GPIOv2/hal_pal_lld.c"
 352              		.loc 1 88 0
 353              		.cfi_startproc
 354              	.LVL0:
 355              		.loc 1 100 0
 356 0000 2A4B     		ldr	r3, .L2
 357 0002 BC22     		mov	r2, #188
 358 0004 5969     		ldr	r1, [r3, #20]
 359 0006 D203     		lsl	r2, r2, #15
 360 0008 0A43     		orr	r2, r1
 361 000a 5A61     		str	r2, [r3, #20]
 362              	.LVL1:
 363              	.LBB12:
 364              	.LBB13:
 365              		.loc 1 63 0
 366 000c 4268     		ldr	r2, [r0, #4]
 367 000e 9023     		mov	r3, #144
 368 0010 DB05     		lsl	r3, r3, #23
 369 0012 5A60     		str	r2, [r3, #4]
 370              		.loc 1 64 0
 371 0014 8268     		ldr	r2, [r0, #8]
 372              	.LBE13:
 373              	.LBE12:
 374              		.loc 1 144 0
 375              		@ sp needed
 376              	.LBB15:
 377              	.LBB14:
 378              		.loc 1 64 0
 379 0016 9A60     		str	r2, [r3, #8]
 380              		.loc 1 65 0
 381 0018 C268     		ldr	r2, [r0, #12]
 382 001a DA60     		str	r2, [r3, #12]
 383              		.loc 1 66 0
 384 001c 0269     		ldr	r2, [r0, #16]
 385 001e 5A61     		str	r2, [r3, #20]
 386              		.loc 1 67 0
 387 0020 4269     		ldr	r2, [r0, #20]
 388 0022 1A62     		str	r2, [r3, #32]
 389              		.loc 1 68 0
 390 0024 8269     		ldr	r2, [r0, #24]
 391 0026 5A62     		str	r2, [r3, #36]
 392              		.loc 1 69 0
 393 0028 0268     		ldr	r2, [r0]
 394 002a 1A60     		str	r2, [r3]
 395              	.LVL2:
 396              	.LBE14:
 397              	.LBE15:
 398              	.LBB16:
 399              	.LBB17:
 400              		.loc 1 63 0
ARM GAS  /tmp/ccxQrKxw.s 			page 28


 401 002c 026A     		ldr	r2, [r0, #32]
 402 002e 204B     		ldr	r3, .L2+4
 403 0030 5A60     		str	r2, [r3, #4]
 404              		.loc 1 64 0
 405 0032 426A     		ldr	r2, [r0, #36]
 406 0034 9A60     		str	r2, [r3, #8]
 407              		.loc 1 65 0
 408 0036 826A     		ldr	r2, [r0, #40]
 409 0038 DA60     		str	r2, [r3, #12]
 410              		.loc 1 66 0
 411 003a C26A     		ldr	r2, [r0, #44]
 412 003c 5A61     		str	r2, [r3, #20]
 413              		.loc 1 67 0
 414 003e 026B     		ldr	r2, [r0, #48]
 415 0040 1A62     		str	r2, [r3, #32]
 416              		.loc 1 68 0
 417 0042 426B     		ldr	r2, [r0, #52]
 418 0044 5A62     		str	r2, [r3, #36]
 419              		.loc 1 69 0
 420 0046 C269     		ldr	r2, [r0, #28]
 421 0048 1A60     		str	r2, [r3]
 422              	.LVL3:
 423              	.LBE17:
 424              	.LBE16:
 425              	.LBB18:
 426              	.LBB19:
 427              		.loc 1 63 0
 428 004a C26B     		ldr	r2, [r0, #60]
 429 004c 194B     		ldr	r3, .L2+8
 430 004e 5A60     		str	r2, [r3, #4]
 431              		.loc 1 64 0
 432 0050 026C     		ldr	r2, [r0, #64]
 433 0052 9A60     		str	r2, [r3, #8]
 434              		.loc 1 65 0
 435 0054 426C     		ldr	r2, [r0, #68]
 436 0056 DA60     		str	r2, [r3, #12]
 437              		.loc 1 66 0
 438 0058 826C     		ldr	r2, [r0, #72]
 439 005a 5A61     		str	r2, [r3, #20]
 440              		.loc 1 67 0
 441 005c C26C     		ldr	r2, [r0, #76]
 442 005e 1A62     		str	r2, [r3, #32]
 443              		.loc 1 68 0
 444 0060 026D     		ldr	r2, [r0, #80]
 445 0062 5A62     		str	r2, [r3, #36]
 446              		.loc 1 69 0
 447 0064 826B     		ldr	r2, [r0, #56]
 448 0066 1A60     		str	r2, [r3]
 449              	.LVL4:
 450              	.LBE19:
 451              	.LBE18:
 452              	.LBB20:
 453              	.LBB21:
 454              		.loc 1 63 0
 455 0068 826D     		ldr	r2, [r0, #88]
 456 006a 134B     		ldr	r3, .L2+12
 457 006c 5A60     		str	r2, [r3, #4]
ARM GAS  /tmp/ccxQrKxw.s 			page 29


 458              		.loc 1 64 0
 459 006e C26D     		ldr	r2, [r0, #92]
 460 0070 9A60     		str	r2, [r3, #8]
 461              		.loc 1 65 0
 462 0072 026E     		ldr	r2, [r0, #96]
 463 0074 DA60     		str	r2, [r3, #12]
 464              		.loc 1 66 0
 465 0076 426E     		ldr	r2, [r0, #100]
 466 0078 5A61     		str	r2, [r3, #20]
 467              		.loc 1 67 0
 468 007a 826E     		ldr	r2, [r0, #104]
 469 007c 1A62     		str	r2, [r3, #32]
 470              		.loc 1 68 0
 471 007e C26E     		ldr	r2, [r0, #108]
 472 0080 5A62     		str	r2, [r3, #36]
 473              		.loc 1 69 0
 474 0082 426D     		ldr	r2, [r0, #84]
 475 0084 1A60     		str	r2, [r3]
 476              	.LVL5:
 477              	.LBE21:
 478              	.LBE20:
 479              	.LBB22:
 480              	.LBB23:
 481              		.loc 1 63 0
 482 0086 426F     		ldr	r2, [r0, #116]
 483 0088 0C4B     		ldr	r3, .L2+16
 484 008a 5A60     		str	r2, [r3, #4]
 485              		.loc 1 64 0
 486 008c 826F     		ldr	r2, [r0, #120]
 487 008e 9A60     		str	r2, [r3, #8]
 488              		.loc 1 65 0
 489 0090 C26F     		ldr	r2, [r0, #124]
 490 0092 DA60     		str	r2, [r3, #12]
 491              		.loc 1 66 0
 492 0094 8022     		mov	r2, #128
 493 0096 8258     		ldr	r2, [r0, r2]
 494 0098 5A61     		str	r2, [r3, #20]
 495              		.loc 1 67 0
 496 009a 8422     		mov	r2, #132
 497 009c 8258     		ldr	r2, [r0, r2]
 498 009e 1A62     		str	r2, [r3, #32]
 499              		.loc 1 68 0
 500 00a0 8822     		mov	r2, #136
 501 00a2 8258     		ldr	r2, [r0, r2]
 502 00a4 5A62     		str	r2, [r3, #36]
 503              		.loc 1 69 0
 504 00a6 026F     		ldr	r2, [r0, #112]
 505 00a8 1A60     		str	r2, [r3]
 506              	.LBE23:
 507              	.LBE22:
 508              		.loc 1 144 0
 509 00aa 7047     		bx	lr
 510              	.L3:
 511              		.align	2
 512              	.L2:
 513 00ac 00100240 		.word	1073876992
 514 00b0 00040048 		.word	1207960576
ARM GAS  /tmp/ccxQrKxw.s 			page 30


 515 00b4 00080048 		.word	1207961600
 516 00b8 000C0048 		.word	1207962624
 517 00bc 00140048 		.word	1207964672
 518              		.cfi_endproc
 519              	.LFE180:
 520              		.size	_pal_lld_init, .-_pal_lld_init
 521              		.section	.text._pal_lld_setgroupmode,"ax",%progbits
 522              		.align	2
 523              		.p2align 4,,15
 524              		.global	_pal_lld_setgroupmode
 525              		.code	16
 526              		.thumb_func
 527              		.type	_pal_lld_setgroupmode, %function
 528              	_pal_lld_setgroupmode:
 529              	.LFB181:
 530              		.loc 1 161 0
 531              		.cfi_startproc
 532              	.LVL6:
 533 0000 F0B5     		push	{r4, r5, r6, r7, lr}
 534              		.cfi_def_cfa_offset 20
 535              		.cfi_offset 4, -20
 536              		.cfi_offset 5, -16
 537              		.cfi_offset 6, -12
 538              		.cfi_offset 7, -8
 539              		.cfi_offset 14, -4
 540 0002 5F46     		mov	r7, fp
 541 0004 5646     		mov	r6, r10
 542 0006 4D46     		mov	r5, r9
 543 0008 4446     		mov	r4, r8
 544 000a F0B4     		push	{r4, r5, r6, r7}
 545              		.cfi_def_cfa_offset 36
 546              		.cfi_offset 8, -36
 547              		.cfi_offset 9, -32
 548              		.cfi_offset 10, -28
 549              		.cfi_offset 11, -24
 550              		.loc 1 163 0
 551 000c 0324     		mov	r4, #3
 552              		.loc 1 164 0
 553 000e 5707     		lsl	r7, r2, #29
 554              		.loc 1 165 0
 555 0010 D606     		lsl	r6, r2, #27
 556              		.loc 1 166 0
 557 0012 5506     		lsl	r5, r2, #25
 558              		.loc 1 163 0
 559 0014 1440     		and	r4, r2
 560              	.LVL7:
 561              		.loc 1 167 0
 562 0016 5205     		lsl	r2, r2, #21
 563              	.LVL8:
 564 0018 120F     		lsr	r2, r2, #28
 565              		.loc 1 161 0
 566 001a 83B0     		sub	sp, sp, #12
 567              		.cfi_def_cfa_offset 48
 568              		.loc 1 166 0
 569 001c AD0F     		lsr	r5, r5, #30
 570              		.loc 1 167 0
 571 001e 9346     		mov	fp, r2
ARM GAS  /tmp/ccxQrKxw.s 			page 31


 572              		.loc 1 170 0
 573 0020 0122     		mov	r2, #1
 574              		.loc 1 164 0
 575 0022 FF0F     		lsr	r7, r7, #31
 576              	.LVL9:
 577              		.loc 1 165 0
 578 0024 B60F     		lsr	r6, r6, #30
 579              	.LVL10:
 580              		.loc 1 168 0
 581 0026 0023     		mov	r3, #0
 582              		.loc 1 170 0
 583 0028 9446     		mov	ip, r2
 584              	.LBB24:
 585              		.loc 1 187 0
 586 002a 0095     		str	r5, [sp]
 587 002c 0EE0     		b	.L11
 588              	.LVL11:
 589              	.L17:
 590              		.loc 1 194 0
 591 002e 026A     		ldr	r2, [r0, #32]
 592 0030 4D46     		mov	r5, r9
 593 0032 AA43     		bic	r2, r5
 594 0034 4546     		mov	r5, r8
 595 0036 2A43     		orr	r2, r5
 596 0038 0262     		str	r2, [r0, #32]
 597              	.LVL12:
 598              	.L5:
 599              	.LBE24:
 600              		.loc 1 199 0
 601 003a 4908     		lsr	r1, r1, #1
 602              	.LVL13:
 603              		.loc 1 200 0
 604 003c 3ED0     		beq	.L4
 605              	.L18:
 606              		.loc 1 204 0
 607 003e 009A     		ldr	r2, [sp]
 608              		.loc 1 202 0
 609 0040 7F00     		lsl	r7, r7, #1
 610              	.LVL14:
 611              		.loc 1 204 0
 612 0042 9200     		lsl	r2, r2, #2
 613              		.loc 1 203 0
 614 0044 B600     		lsl	r6, r6, #2
 615              	.LVL15:
 616              		.loc 1 204 0
 617 0046 0092     		str	r2, [sp]
 618              	.LVL16:
 619              		.loc 1 205 0
 620 0048 A400     		lsl	r4, r4, #2
 621              	.LVL17:
 622              		.loc 1 206 0
 623 004a 0133     		add	r3, r3, #1
 624              	.LVL18:
 625              	.L11:
 626              		.loc 1 170 0
 627 004c 6546     		mov	r5, ip
 628 004e 0D42     		tst	r5, r1
ARM GAS  /tmp/ccxQrKxw.s 			page 32


 629 0050 F3D0     		beq	.L5
 630              	.LBB25:
 631              		.loc 1 173 0
 632 0052 0722     		mov	r2, #7
 633 0054 1A40     		and	r2, r3
 634 0056 9500     		lsl	r5, r2, #2
 635 0058 5A46     		mov	r2, fp
 636 005a AA40     		lsl	r2, r2, r5
 637 005c 9046     		mov	r8, r2
 638              	.LVL19:
 639              		.loc 1 176 0
 640 005e 0F22     		mov	r2, #15
 641              	.LVL20:
 642 0060 AA40     		lsl	r2, r2, r5
 643 0062 9146     		mov	r9, r2
 644              	.LVL21:
 645              		.loc 1 177 0
 646 0064 4568     		ldr	r5, [r0, #4]
 647              		.loc 1 174 0
 648 0066 6246     		mov	r2, ip
 649              	.LVL22:
 650 0068 9A40     		lsl	r2, r2, r3
 651              		.loc 1 177 0
 652 006a 9543     		bic	r5, r2
 653 006c 2A1C     		mov	r2, r5
 654 006e 3A43     		orr	r2, r7
 655 0070 4260     		str	r2, [r0, #4]
 656              		.loc 1 178 0
 657 0072 8568     		ldr	r5, [r0, #8]
 658              		.loc 1 175 0
 659 0074 0322     		mov	r2, #3
 660              		.loc 1 178 0
 661 0076 AA46     		mov	r10, r5
 662 0078 5D00     		lsl	r5, r3, #1
 663              		.loc 1 175 0
 664 007a AA40     		lsl	r2, r2, r5
 665              	.LVL23:
 666              		.loc 1 178 0
 667 007c D543     		mvn	r5, r2
 668 007e 5246     		mov	r2, r10
 669              	.LVL24:
 670 0080 2A40     		and	r2, r5
 671 0082 3243     		orr	r2, r6
 672 0084 8260     		str	r2, [r0, #8]
 673 0086 0195     		str	r5, [sp, #4]
 674              		.loc 1 179 0
 675 0088 C568     		ldr	r5, [r0, #12]
 676              	.LVL25:
 677 008a 2A1C     		mov	r2, r5
 678 008c 019D     		ldr	r5, [sp, #4]
 679 008e 2A40     		and	r2, r5
 680 0090 009D     		ldr	r5, [sp]
 681 0092 2A43     		orr	r2, r5
 682 0094 C260     		str	r2, [r0, #12]
 683              		.loc 1 180 0
 684 0096 022C     		cmp	r4, #2
 685 0098 17D0     		beq	.L16
ARM GAS  /tmp/ccxQrKxw.s 			page 33


 686              		.loc 1 192 0
 687 009a 0268     		ldr	r2, [r0]
 688 009c 9246     		mov	r10, r2
 689 009e 019A     		ldr	r2, [sp, #4]
 690 00a0 5546     		mov	r5, r10
 691 00a2 2A40     		and	r2, r5
 692 00a4 2243     		orr	r2, r4
 693 00a6 0260     		str	r2, [r0]
 694              		.loc 1 193 0
 695 00a8 072B     		cmp	r3, #7
 696 00aa C0D9     		bls	.L17
 697              		.loc 1 196 0
 698 00ac 426A     		ldr	r2, [r0, #36]
 699 00ae 4D46     		mov	r5, r9
 700 00b0 AA43     		bic	r2, r5
 701 00b2 4546     		mov	r5, r8
 702 00b4 2A43     		orr	r2, r5
 703 00b6 4262     		str	r2, [r0, #36]
 704              	.LBE25:
 705              		.loc 1 199 0
 706 00b8 4908     		lsr	r1, r1, #1
 707              	.LVL26:
 708              		.loc 1 200 0
 709 00ba C0D1     		bne	.L18
 710              	.LVL27:
 711              	.L4:
 712              		.loc 1 208 0
 713 00bc 03B0     		add	sp, sp, #12
 714              	.LVL28:
 715              		@ sp needed
 716              	.LVL29:
 717              	.LVL30:
 718              	.LVL31:
 719              	.LVL32:
 720 00be 3CBC     		pop	{r2, r3, r4, r5}
 721 00c0 9046     		mov	r8, r2
 722 00c2 9946     		mov	r9, r3
 723 00c4 A246     		mov	r10, r4
 724 00c6 AB46     		mov	fp, r5
 725 00c8 F0BD     		pop	{r4, r5, r6, r7, pc}
 726              	.LVL33:
 727              	.L16:
 728              	.LBB26:
 729              		.loc 1 183 0
 730 00ca 072B     		cmp	r3, #7
 731 00cc 0FD8     		bhi	.L7
 732              		.loc 1 184 0
 733 00ce 026A     		ldr	r2, [r0, #32]
 734 00d0 151C     		mov	r5, r2
 735              	.LVL34:
 736 00d2 4A46     		mov	r2, r9
 737 00d4 9543     		bic	r5, r2
 738 00d6 4246     		mov	r2, r8
 739 00d8 1543     		orr	r5, r2
 740 00da 0562     		str	r5, [r0, #32]
 741              	.L8:
 742              		.loc 1 187 0 discriminator 1
ARM GAS  /tmp/ccxQrKxw.s 			page 34


 743 00dc 0268     		ldr	r2, [r0]
 744 00de 9046     		mov	r8, r2
 745              	.LVL35:
 746 00e0 019A     		ldr	r2, [sp, #4]
 747 00e2 4546     		mov	r5, r8
 748 00e4 2A40     		and	r2, r5
 749 00e6 0225     		mov	r5, #2
 750 00e8 2A43     		orr	r2, r5
 751 00ea 0260     		str	r2, [r0]
 752 00ec A5E7     		b	.L5
 753              	.LVL36:
 754              	.L7:
 755              		.loc 1 186 0
 756 00ee 456A     		ldr	r5, [r0, #36]
 757              	.LVL37:
 758 00f0 2A1C     		mov	r2, r5
 759 00f2 4D46     		mov	r5, r9
 760 00f4 AA43     		bic	r2, r5
 761 00f6 4546     		mov	r5, r8
 762 00f8 2A43     		orr	r2, r5
 763 00fa 4262     		str	r2, [r0, #36]
 764 00fc EEE7     		b	.L8
 765              	.LBE26:
 766              		.cfi_endproc
 767              	.LFE181:
 768              		.size	_pal_lld_setgroupmode, .-_pal_lld_setgroupmode
 769 00fe C046     		.text
 770              	.Letext0:
 771              		.file 2 "/usr/include/newlib/machine/_default_types.h"
 772              		.file 3 "/usr/include/newlib/stdint.h"
 773              		.file 4 "../../../os/common/ports/ARMCMx/compilers/GCC/chtypes.h"
 774              		.file 5 "../../../os/rt/include/chsystypes.h"
 775              		.file 6 "../../../os/rt/include/chschd.h"
 776              		.file 7 "../../../os/common/ext/CMSIS/ST/STM32F0xx/stm32f030x8.h"
 777              		.file 8 "../../../os/common/ports/ARMCMx/chcore.h"
 778              		.file 9 "../../../os/common/ports/ARMCMx/chcore_v6m.h"
 779              		.file 10 "../../../os/rt/include/chsem.h"
 780              		.file 11 "../../../os/rt/include/chmtx.h"
 781              		.file 12 "../../../os/hal/ports/STM32/LLD/GPIOv2/hal_pal_lld.h"