ARM GAS  /tmp/ccNLiF6t.s 			page 1


   1              		.cpu cortex-m0
   2              		.fpu softvfp
   3              		.eabi_attribute 20, 1
   4              		.eabi_attribute 21, 1
   5              		.eabi_attribute 23, 3
   6              		.eabi_attribute 24, 1
   7              		.eabi_attribute 25, 1
   8              		.eabi_attribute 26, 1
   9              		.eabi_attribute 30, 2
  10              		.eabi_attribute 34, 0
  11              		.eabi_attribute 18, 4
  12              		.code	16
  13              		.file	"hal_st_lld.c"
  14              		.text
  15              	.Ltext0:
  16              		.section	.gnu.lto_.jmpfuncs.45b8977494ea395d,"",%progbits
  17 0000 789C6362 		.ascii	"x\234cb`b\300\006\324\2414P\226\021H12E0f\202\030@\036"
  17      6062C006 
  17      D4A13450 
  17      96114831 
  17      32453066 
  18 0018 1398CD28 		.ascii	"\023\230\315(\000\224\0043@\006\000\0003\244\002\226"
  18      00940433 
  18      40060000 
  18      33A40296 
  19              		.text
  20              		.section	.gnu.lto_.inline.45b8977494ea395d,"",%progbits
  21 0000 789C6362 		.ascii	"x\234cb`b\300\006\234\2404P\226W\214\221\201\211\357"
  21      6062C006 
  21      9CA03450 
  21      96578C91 
  21      8189EF
  22 0013 5E0003DB 		.ascii	"^\000\003\333\002y\260b&n\006\006\306\011~\214\\P5\214"
  22      0279B062 
  22      266E0606 
  22      C6097E8C 
  22      5C50358C 
  23 0027 40282203 		.ascii	"@(\"\003T$\363\340\026#\\\0253\017X7\003\000\352\216"
  23      5424F3E0 
  23      16235C15 
  23      330F5837 
  23      0300EA8E 
  24 003b 064D     		.ascii	"\006M"
  25              		.text
  26              		.section	.gnu.lto_.pureconst.45b8977494ea395d,"",%progbits
  27 0000 789C6362 		.ascii	"x\234cb`b`e\200\000&\006+F)\000\001f\000a"
  27      60626065 
  27      80002606 
  27      2B462900 
  27      01660061 
  28              		.text
  29              		.section	.gnu.lto_Vector80.45b8977494ea395d,"",%progbits
  30 0000 789C8D52 		.ascii	"x\234\215RMh\023A\024~ow\363\3274j\361\242 i\361\242"
  30      4D681341 
  30      147E6F77 
  30      F3D7346A 
  30      F1A22069 
ARM GAS  /tmp/ccNLiF6t.s 			page 2


  31 0016 20CDD216 		.ascii	" \315\322\026zV\352\245\320x0)\350)\304Ih\026\222n\311"
  31      7A56EAA5 
  31      D0783029 
  31      E829C449 
  31      6816926E 
  32 002b C6D2E2A1 		.ascii	"\306\322\342\241\023\223C\241\202EA\374\307RD\260\007"
  32      139343A1 
  32      824541FC 
  32      C75244B0 
  32      07
  33 003c 5114A45E 		.ascii	"Q\024\244^\212\247\212\264\245\027\021/\246\024\012"
  33      8AA78AB4 
  33      A517112F 
  33      A6140A
  34 004b 05158397 		.ascii	"\005\025\203\227\332\277\370f'\233\256U\301agf\337{"
  34      DABFF866 
  34      279BAE55 
  34      C1616766 
  34      DF7B
  35 005d DF7CEF7D 		.ascii	"\337|\357}oF\001\005\366\217N\232\347T\200\237\264\243"
  35      6F460105 
  35      F68F4E9A 
  35      E754809F 
  35      B4A3
  36 006f 0750995C 		.ascii	"\007P\231\\\004(\372\025E\235\015\003o\322>\350\300"
  36      0428FA15 
  36      459D0D03 
  36      6FD23EE8 
  36      C0
  37 0080 9B55D4A4 		.ascii	"\233U\324\244[C\024?\2000\246\250\032\216]D\301\201"
  37      5B43143F 
  37      8030A6A8 
  37      1A8E5D44 
  37      C181
  38 0092 C7618AF3 		.ascii	"\307a\212\363\033\225\307\233w\216\362GW'\371n\255\206"
  38      1B95C79B 
  38      778EF247 
  38      5727F96E 
  38      AD86
  39 00a4 0652B66E 		.ascii	"\006R\266n\004\206p\201\014l\2637E\373=\3753e\256R\253"
  39      04867081 
  39      0C6CB337 
  39      45FB3DFD 
  39      3365AE52 
  40 00b9 6D6F6DAC 		.ascii	"mom\254\324\360\360A\015\2228El\0360P\365\212\205 \036"
  40      D4F0F041 
  40      0D923845 
  40      6C1E3050 
  40      F58A8520 
  41 00ce 28733ED9 		.ascii	"(s>\331&# \370h\304i\025\225\364\243\"vu\011\312\225"
  41      262320F8 
  41      68C46915 
  41      95F4A322 
  41      767509CA 
  42 00e3 F581244E 		.ascii	"\365\201$N\223\206\001\324\256\300&\037\347\207\014"
  42      938601D4 
  42      AEC0261F 
ARM GAS  /tmp/ccNLiF6t.s 			page 3


  42      E7870C
  43 00f2 D418DA78 		.ascii	"\324\030\332x;\271\007\210\322\013\360\016\024\211\224"
  43      3BB90788 
  43      D20BF00E 
  43      148994
  44 0101 9C840758 		.ascii	"\234\204\007X\200\267\237>n\255(\016\205\347\024<\345"
  44      80B79F3E 
  44      6EAD280E 
  44      85E7143C 
  44      E5
  45 0112 653AE4BB 		.ascii	"e:\344\273\007wi\363\013\202\000\221r\315\346\012\330"
  45      077769F3 
  45      0B820091 
  45      72CDE60A 
  45      D8
  46 0123 AC97D011 		.ascii	"\254\227\320\021\262\000\2457\2455t\216{\211A\300T\321"
  46      B200A537 
  46      A535748E 
  46      7B8941C0 
  46      54D1
  47 0135 F179287F 		.ascii	"\361y(\177)\206\032!\333\357nB?\231\263a\225Jx\275\261"
  47      29861A21 
  47      DBEF6E42 
  47      3F99B361 
  47      954A78BD 
  48 014a 55AD9760 		.ascii	"U\255\227`\347/\362\330\177V <>\361\263\010\305\352"
  48      E72FF2D8 
  48      7F56203C 
  48      3EF1B308 
  48      C5EA
  49 015c F8EAEA91 		.ascii	"\370\352\352\221z\333\234\376\315\315\\\377\032<\351"
  49      7ADB9CFE 
  49      CDCD5CFF 
  49      1A3CE9
  50 016b 587CF5E5 		.ascii	"X|\365\345\261Fd\372\326|\250}\317\272?\321\362\334"
  50      B14664FA 
  50      D67CA87D 
  50      CFBA3FD1 
  50      F2DC
  51 017d D330DF6F 		.ascii	"\3230\337o\377 C\226\304\250\331\214je\3240f\333^\231"
  51      FF204396 
  51      C4A8D98C 
  51      6A65D430 
  51      66DB5E99 
  52 0191 1CA1426E 		.ascii	"\034\241Bn\373q\205a\035\037\360\333\247\015l\222\261"
  52      FB718561 
  52      1D1FF0DB 
  52      A70D6C92 
  52      B1
  53 01a2 25287D1F 		.ascii	"%(}\037\177\262v\255}\177A\023;%\337\036\263O\242\033"
  53      7FB276AD 
  53      7D7F4113 
  53      3B25DF1E 
  53      B34FA21B 
  54 01b6 171764E8 		.ascii	"\027\027d\350O\342\013qg\342\326\232\353\302J\237\361"
  54      4FE20B71 
  54      67E2D69A 
ARM GAS  /tmp/ccNLiF6t.s 			page 4


  54      EBC24A9F 
  54      F1
  55 01c7 4F61BBC1 		.ascii	"Oa\273\301\326\206\260\231Wa\227\260o!\335%\354a\313"
  55      D686B099 
  55      576197B0 
  55      6F21DD25 
  55      EC61CB
  56 01da B24BD8CE 		.ascii	"\262K\330\316MW\372\000\315&\232A\232\3154C\216\260"
  56      4D57FA00 
  56      CD269A41 
  56      9ACD3443 
  56      8EB0
  57 01ec EA3F85C9 		.ascii	"\352?\205\311\233\323\032\317o\267\376\374\\\"B\014"
  57      9BD31ACF 
  57      6FB7FEFC 
  57      5C22420C 
  58 01fc 0FD8387A 		.ascii	"\017\3308zb\206\370]\206b\245v\302\301\311\021\247\027"
  58      6286F85D 
  58      8662A576 
  58      C2C1C911 
  58      A717
  59 020e 4A1C2249 		.ascii	"J\034\"IW$\242\313\317\264\364L2\253\017\231\371\202"
  59      5724A2CB 
  59      CFB4F44C 
  59      32AB0F99 
  59      F982
  60 0220 A5C7E2D1 		.ascii	"\245\307\342\321\256N\275\257\357\254\036\357\215\016"
  60      AE4EBDAF 
  60      EFAC1EEF 
  60      8D0E
  61 022e 778848C2 		.ascii	"w\210H\302*$\262\331T\204A a%\207\323\251D6\337\341"
  61      2A24B2D9 
  61      54844120 
  61      612587D3 
  61      A94436DF 
  62 0243 3ECDCC5C 		.ascii	">\315\314\\\316\034\324\323#\005\275'\032\353\215\351"
  62      CE1CD4D3 
  62      2305BD27 
  62      1AEB8DE9 
  63 0253 C620CB5E 		.ascii	"\306 \313^N\245u\226\263\014+1\300X$\003\355\1779!S"
  63      4EA57596 
  63      B30C2B31 
  63      C0582403 
  63      ED7F3921 
  64 0268 9E391FED 		.ascii	"\2369\037\355\211\216\350,\303\314|:1\334\235#t\253"
  64      898EE82C 
  64      C3CC7C3A 
  64      31DC9D23 
  64      74AB
  65 027a 1B9D2FEC 		.ascii	"\033\235/\3541f\254Qk\177\\ToZ\264\020P\354\024\367"
  65      3166AC51 
  65      6B7F5C54 
  65      6F5AB410 
  65      50EC14F7 
  66 028e B321CB48 		.ascii	"\263!\313H\265\031\340\313\245sf~T:\322\344\370\005"
  66      B519E0CB 
  66      A573667E 
ARM GAS  /tmp/ccNLiF6t.s 			page 5


  66      543AD2E4 
  66      F805
  67 02a0 0EB82539 		.ascii	"\016\270%9"
  68              		.text
  69              		.section	.gnu.lto_st_lld_init.45b8977494ea395d,"",%progbits
  70 0000 789C95D3 		.ascii	"x\234\225\323\275O\302@\024\000\360\367\356(_:\340\250"
  70      BD4FC240 
  70      1400F0F7 
  70      EE285F3A 
  70      E0A8
  71 0012 93AB31D2 		.ascii	"\223\2531\322(qvq!\221ILd\"\210\011\222\220`\204\270"
  71      28717671 
  71      2191494C 
  71      64228809 
  71      92906084 
  72 0027 38704448 		.ascii	"8pDH\030\034\210\023Q\007]\301\200\223\251\233as\000"
  72      181C8813 
  72      51075DC1 
  72      8093A99B 
  72      617300
  73 003a E3669C18 		.ascii	"\343f\234\030\365\0370\304\005\357\365\213/C\354\245"
  73      F51F30C4 
  73      05EFF58B 
  73      2F43ECA5 
  74 004a 7DD7F6EE 		.ascii	"}\327\366\356\375\372\332^\0310\230l\213\264\273\000"
  74      FDFADA5E 
  74      1930986C 
  74      8BB4BB00 
  75 005a 36658F1C 		.ascii	"6e\217\034\220U\273\000E/C\244\003@(0,\304P\237\333"
  75      9055BB00 
  75      452F43A4 
  75      03402830 
  75      2CC4509F 
  76 006f 62CFBDC1 		.ascii	"b\317\275\301\240\371xys\201]\266\300 \215\300)(\024"
  76      A0F97879 
  76      73815DB6 
  76      C0208DC0 
  76      292814
  77 0082 DC146453 		.ascii	"\334\024dS\240$Du\031 \251\237Fe$j\017\031\365\274\003"
  77      A0244475 
  77      1920A99F 
  77      4665246A 
  77      0F19F5BC 
  78 0097 ED0FADBE 		.ascii	"\355\017\255\276\224\300;T \205l\025\352\242T\014\244"
  78      94C03B54 
  78      20856C15 
  78      EAA2540C 
  78      A4
  79 00a8 11AFE10A 		.ascii	"\021\257\341\012\323\310\366e\340\342\266\"\\\240\037"
  79      D3C8F665 
  79      E0E2B622 
  79      5CA01F
  80 00b7 EAB73E40 		.ascii	"\352\267>@\253\340\016\234?q+\233\247\214\371\372\203"
  80      ABE00E9C 
  80      3F712B9B 
  80      A78CF9FA 
  80      83
ARM GAS  /tmp/ccNLiF6t.s 			page 6


  81 00c8 49396C0C 		.ascii	"I9l\01483StNeU\032\314\202\225I\302Ey\212x(\233\204"
  81      38335374 
  81      4E65551A 
  81      CC829549 
  81      C245798A 
  82 00e0 6212F857 		.ascii	"b\022\370WYn\011\374\243\254\331\246d\364d\255\337h"
  82      596E09FC 
  82      A3ACD9A6 
  82      64F464AD 
  82      DF68
  83 00f2 F351406C 		.ascii	"\363Q@l\331\202\233\322<\242\"L\301c\012\306w\246+8"
  83      D9829BD2 
  83      3CA2224C 
  83      C1630AC6 
  83      77A62B38 
  84 0106 F8368BD0 		.ascii	"\3706\213\320jM\307\016\037q\006\334t4\347\216k\350"
  84      6A4DC70E 
  84      1F7106DC 
  84      7434E78E 
  84      6BE8
  85 0118 80A9BCDB 		.ascii	"\200\251\274\333\312\032\334\223\022\223\203C\320;\033"
  85      CA1ADC93 
  85      12938343 
  85      D03B1B
  86 0127 546CD067 		.ascii	"Tl\320g/\3451\276\357\274H\367\264Rk9V<\323\212\346"
  86      2FE531BE 
  86      EFBC48F7 
  86      B4526B39 
  86      563CD38A 
  87 013c 5CF1DA0A 		.ascii	"\\\361\332\012\240\365\302\234+\276q\345\025\312\275"
  87      A0F5C29C 
  87      2BBE71E5 
  87      15CABD
  88 014b 972FBF81 		.ascii	"\227/\277\201\000\234\301\217L\221\313\321\2374\227"
  88      009CC18F 
  88      4C91CBD1 
  88      9F3497
  89 015a 1CCD9C0B 		.ascii	"\034\315\234\013\030\035\375\335\363\000oP\354}\256"
  89      181DFDDD 
  89      F3006F50 
  89      EC7DAE
  90 0169 5829468B 		.ascii	"X)F\213\312\351\362W\246u\025\012\006Uc\313\346\324"
  90      CAE9F257 
  90      A675150A 
  90      065563CB 
  90      E6D4
  91 017b A344463D 		.ascii	"\243DF=\316\236\344s\352n4\022\332Pwv\266\325h8r\272"
  91      CE9EE473 
  91      EA6E3412 
  91      DA507776 
  91      B6D56838 
  92 0191 4E23F15C 		.ascii	"N#\361\\>\236\311\034\006\223\360\013\337\315\367/"
  92      3E9EC91C 
  92      0693F00B 
  92      DFCDF72F 
  93              		.text
  94              		.section	.gnu.lto_.symbol_nodes.45b8977494ea395d,"",%progbits
ARM GAS  /tmp/ccNLiF6t.s 			page 7


  95 0000 789C6362 		.ascii	"x\234cb`b(g\200\002\246\315\214\365\014\014\023\316"
  95      60622867 
  95      8002A6CD 
  95      8CF50C0C 
  95      13CE
  96 0012 3130D4D7 		.ascii	"10\324\327\317\353`d\332\302X\317\210\3402nc\254g\202"
  96      CFEB6064 
  96      DAC258CF 
  96      88E0326E 
  96      63AC6782 
  97 0026 701B1A18 		.ascii	"p\033\032\030\031\2673\3263#x[\031\353Y\020\274\035"
  97      19B733D6 
  97      3323785B 
  97      19EB5910 
  97      BC1D
  98 0038 8CF5AC70 		.ascii	"\214\365\254p\0363\003\013C\363\203\177@\232\231\341"
  98      1E33030B 
  98      43F3837F 
  98      409A99E1 
  99 0048 F1561366 		.ascii	"\361V\023f\240\215\213\333\336\31033\2622\034n\177#"
  99      A08D8BDB 
  99      DEC83333 
  99      B2321C6E 
  99      7F23
 100 005a CF00006B 		.ascii	"\317\000\000k\326#$"
 100      D62324
 101              		.text
 102              		.section	.gnu.lto_.refs.45b8977494ea395d,"",%progbits
 103 0000 789C6362 		.ascii	"x\234cb`b`d\200\002\000\000F\000\006"
 103      60626064 
 103      80020000 
 103      460006
 104              		.text
 105              		.section	.gnu.lto_.decls.45b8977494ea395d,"",%progbits
 106 0000 789CA558 		.ascii	"x\234\245X\177P\024\327\035\177o\3578  Qb\255m'#\376"
 106      7F5014D7 
 106      1D7F6FEF 
 106      38202051 
 106      62AD6D27 
 107 0016 914E9B4E 		.ascii	"\221N\233N<~t2\364\237T8@\350\210:w\330:v\246\333\315"
 107      3C7E7432 
 107      F49F5438 
 107      40E8883A 
 107      77D83A76 
 108 002d 71CA4D8F 		.ascii	"q\312M\217\303\336\035\006\377r)\324\030\261\015J\214"
 108      C3DE1D06 
 108      FF7229D4 
 108      18B10D4A 
 108      8C
 109 003e C4A0818C 		.ascii	"\304\240\201\214$\350\330\206R\253\224Z<\231A4$E\023"
 109      24E8D886 
 109      52AB945A 
 109      3C994134 
 109      244513
 110 0051 241AC64A 		.ascii	"$\032\306J4\223d\234NJ5\212ML\256\337\367v\357\356\275"
 110      3493649C 
 110      4E4A358A 
ARM GAS  /tmp/ccNLiF6t.s 			page 8


 110      4D4CAEDF 
 110      F776EFEE 
 111 0066 65F7DC4D 		.ascii	"e\367\334Mw\370~\367\355\333\367>\337\317\367\373\276"
 111      77F87EF7 
 111      EDDBF73E 
 111      DFCFF7FB 
 111      BE
 112 0077 FB78DF13 		.ascii	"\373x\337\023\220\200j1B1\270\312\276\203P\272\035!"
 112      90806A31 
 112      4231B8CA 
 112      BE8350BA 
 112      1D21
 113 0089 1B42E829 		.ascii	"\033B\350)\020\001$\015\244\007)\227\003\244\017\344"
 113      1001240D 
 113      A4072997 
 113      03A40FE4 
 114 0099 18C81B20 		.ascii	"\030\310\033 '@\006A\376\212\346_d\334\303 \003 9 \331"
 114      27400641 
 114      FE8AE65F 
 114      64DCC320 
 114      03203920 
 115 00ae 20E920C3 		.ascii	" \351 \303*\346i\2203 # w@\356\202|\001r\004\344>H?"
 115      2AE66990 
 115      33202320 
 115      7740EE82 
 115      7C017204 
 116 00c6 08D04213 		.ascii	"\010\320B\023*N\237j\353K\244\274\260\2018@2Ar\260\302"
 116      2A4E9F6A 
 116      EB4BA4BC 
 116      B0813840 
 116      324172B0 
 117 00db 6511DC17 		.ascii	"e\021\334\027\203|\023\344\333 \217b\205\247\366\"\374"
 117      837C13E4 
 117      DB208F62 
 117      85A7F622 
 117      FC
 118 00ec 17A87C08 		.ascii	"\027\250|\010\207\3450\256\004\244\024d\015Nr\272\016"
 118      87E530AE 
 118      04A41464 
 118      0D4E72BA 
 118      0E
 119 00fd 02E1406B 		.ascii	"\002\341@k\261\022\203!\220\207@~\010\317?\001\231\206"
 119      B1128321 
 119      9087407E 
 119      08CF3F01 
 119      9986
 120 010f F6559077 		.ascii	"\366U\220wA>\000y\033\344<\310E\22015~\307\014\342\223"
 120      413E0079 
 120      1BE43CC8 
 120      45903135 
 120      7EC70CE2 
 121 0124 8976CAF2 		.ascii	"\211v\312\362o\344\356\035r\3459\210\317\006,\341\234"
 121      6FE4EE1D 
 121      72E53988 
 121      CF062CE1 
 121      9C
 122 0135 4C94471B 		.ascii	"L\224G\033\331\231\324\354c\350\260,\267\317\214^\237"
ARM GAS  /tmp/ccNLiF6t.s 			page 9


 122      D999D4EC 
 122      63E8B02C 
 122      B7CF8C5E 
 122      9F
 123 0146 11643943 		.ascii	"\021d9C\302=8\023 \3630z\034\035\221\341\215,\277\272"
 123      C23D3813 
 123      20F3307A 
 123      1C1D91E1 
 123      8D2CBFBA 
 124 015a E4FF42BE 		.ascii	"\344\377B\276\330\273\373G\024\271\227\"\377\002#\011"
 124      D8BBFB47 
 124      14B99722 
 124      FF022309 
 125 016a 1FC68FAB 		.ascii	"\037\306\217\2538\022N\317dq\351s|\000\001\243\257\325"
 125      38124ECF 
 125      6471E973 
 125      7C0001A3 
 125      AFD5
 126 017c 06499F87 		.ascii	"\006I\237\207\221\325\341\313\320!\271{f\346\317c\377"
 126      91D5E1CB 
 126      D021B97B 
 126      66E6CF63 
 126      FF
 127 018d 7EE42539 		.ascii	"~\344%9\332*\307b\333\321\022\264\017\234#\364e\034"
 127      DA2AC762 
 127      DBD112B4 
 127      0F9C23F4 
 127      651C
 128 019f 91F053DF 		.ascii	"\221\360S\337\320\365\200\340\037\301K\324\326z\233"
 128      D0F580E0 
 128      1FC14BD4 
 128      D67A9B
 129 01ae 62534007 		.ascii	"bS@\0071\357\004B\337E\275\004O\356\223m\024\215\214"
 129      31EF0442 
 129      DF45BD04 
 129      4FEE936D 
 129      148D8C
 130 01c1 EFC3CB78 		.ascii	"\357\303\313x\252G\261\300v(\274\242'\367\216cy\257"
 130      AA47B1C0 
 130      7628BCA2 
 130      27F78E63 
 130      79AF
 131 01d3 7C3F16B3 		.ascii	"|?\026\263\251\346\004\364\232)\003\307\264\006\376"
 131      A9E604F4 
 131      9A2903C7 
 131      B406FE
 132 01e2 30DFC04C 		.ascii	"0\337\300L\373\314\245\266\271V\274\247\245\373\234"
 132      FBCCA5B6 
 132      B956BCA7 
 132      A5FB9C
 133 01f1 3C4BE261 		.ascii	"<K\342a\336\365~\325u\033\3151\224\205v%\227\334p\242"
 133      DEF57ED5 
 133      751BCD31 
 133      94857625 
 133      97DC70A2 
 134 0205 BAEA7B26 		.ascii	"\272\352{&>\372\017n\006\023\022\036\300Y\000\260K\320"
 134      3EFA0F6E 
ARM GAS  /tmp/ccNLiF6t.s 			page 10


 134      0613121E 
 134      C05900B0 
 134      4BD0
 135 0217 2EFC8FB3 		.ascii	".\374\217\263x\366\360\314\014H\306\233\206\274C\320"
 135      78F6F0CC 
 135      0C48C69B 
 135      86BC43D0 
 136 0227 464419F4 		.ascii	"FD\031\364\027]\227\017v\334e]\216\207\365\254\001\310"
 136      175D970F 
 136      76DC655D 
 136      8E87F5AC 
 136      01C8
 137 0239 491EE467 		.ascii	"I\036\344g\330\366;{\034\352\326\213\023\370%y\304j"
 137      D8F63B7B 
 137      1CEAD68B 
 137      13F82579 
 137      C46A
 138 024b DA0CF1B1 		.ascii	"\332\014\361\261S\276+\356a\276\217\277\265\351\323"
 138      53BE2BEE 
 138      61BE8FBF 
 138      B5E9D3
 139 025a FB3B4F8F 		.ascii	"\373;O\217[\007\015#\210\241\021\243\323ZFi\231<\001"
 139      5B070D23 
 139      88A111A3 
 139      D35A4669 
 139      993C01
 140 026d A389C338 		.ascii	"\243\211\3038\261P\364\253oI\371\325K\370U\374\230\251"
 140      B150F4AB 
 140      6F49F9D5 
 140      4BF855FC 
 140      98A9
 141 027f EF3217ED 		.ascii	"\3572\027\355!\324\363\030$\331\021\207\372%J\244\322"
 141      21D4F318 
 141      24D91187 
 141      FA254AA4 
 141      D2
 142 0290 D503734F 		.ascii	"\325\003sO\322\015d\004\347\002\367\363\232(=\020\206"
 142      D20D6404 
 142      E702F7F3 
 142      9A283D10 
 142      86
 143 02a1 701A85A9 		.ascii	"p\032\205\251\312$\012*G;\246\263e\273\322\217t\202"
 143      CA240A2A 
 143      473BA6B3 
 143      65BBD28F 
 143      7482
 144 02b3 AE5ECB51 		.ascii	"\256^\313Q\267\334\332\022\3357\335\365-\271{\004 \317"
 144      B7DCDA12 
 144      DD37DDF5 
 144      2DB97B04 
 144      20CF
 145 02c5 D03DEC12 		.ascii	"\320=\354\022\245@\346\352E@mrA\345\361^\234\316n\227"
 145      A540E6EA 
 145      45406D72 
 145      41E5F15E 
 145      9CCE6E97 
 146 02d9 E260572C 		.ascii	"\342`W,\203\345q`\235,\330U3`\031\306\314\016\260`\327"
ARM GAS  /tmp/ccNLiF6t.s 			page 11


 146      83E57160 
 146      9D2CD855 
 146      336019C6 
 146      CC0EB060 
 147 02ee 2D83F1CC 		.ascii	"-\203\361\314\272X\260\217\315\200-4fv\210\005\273i"
 147      BA58B08F 
 147      CD802D34 
 147      66768805 
 147      BB69
 148 0300 198C67D6 		.ascii	"\031\214g\326\317\202}j\006l\2511\263\001\026\3543\313"
 148      CF827D6A 
 148      066CA931 
 148      B30116EC 
 148      33CB
 149 0312 603CB3E3 		.ascii	"`<\263\343,\330\347f\300\362\214\231\235`\301b\226\301"
 149      2CD8E766 
 149      C0F28C99 
 149      9D60C162 
 149      96C1
 150 0324 7866832C 		.ascii	"xf\203,X\213\335\004\330\367\214\231\015\261`\317Z\006"
 150      588BDD04 
 150      D8F78C99 
 150      0DB160CF 
 150      5A06
 151 0336 E3999D62 		.ascii	"\343\231\235b\301\332\314\200\345\0331k\216\016\377"
 151      C1DACC80 
 151      E51B316B 
 151      8E0EFF
 152 0345 BC5D5A84 		.ascii	"\274]Z\204\332\325-EA\215o+\230O-vX\217\3610\011\337"
 152      DAD52D45 
 152      418D6F2B 
 152      984F2D76 
 152      588FF130 
 153 035b C08B688B 		.ascii	"\300\213h\213n\237r\342?hv\246.G2\343C\345\037D\362"
 153      6E9F72E2 
 153      3F6876A6 
 153      2E4732E3 
 153      43E51F44 
 154 0370 F3571BC9 		.ascii	"\363W\033\311\335\232\035\005n?\257u\233g\241\3477\037"
 154      DD9A1D05 
 154      6E3FAF75 
 154      9B67A1E7 
 154      371F
 155 0382 C40B6C10 		.ascii	"\304\013l\020;\314\004q\2451\330;,X\247\031\260J\343"
 155      3BCC0471 
 155      A531D83B 
 155      2C58A719 
 155      B04AE3
 156 0395 5C9964C1 		.ascii	"\\\231d\301\272,\203\361\314\246X\260\0363`\353\214"
 156      BA2C83F1 
 156      CCA658B0 
 156      1E3360EB 
 156      8C
 157 03a6 995D66C1 		.ascii	"\231]f\301\016[\006c\2315G\337O&^\367JM\346\255\344"
 157      0E5B0663 
 157      993547DF 
 157      4F265EF7 
ARM GAS  /tmp/ccNLiF6t.s 			page 12


 157      4A4DE6AD 
 158 03bb 775B6E58 		.ascii	"w[nX\217\3410\011\337\262\234x\267\015\022\017s\211"
 158      8FE13009 
 158      DFB29C78 
 158      B70D120F 
 158      7389
 159 03cd 773B9978 		.ascii	"w;\231xG\265ns$\324\346\006\235\030\352]\354?j\011\237"
 159      47B56E73 
 159      24D4E606 
 159      9D18EA5D 
 159      EC3F6A09 
 160 03e2 A5078931 		.ascii	"\245\007\2111\274\034\364y\252\307\251~\233\352\011"
 160      BC1CF479 
 160      AAC7A97E 
 160      9BEA09
 161 03f1 AA2F52FD 		.ascii	"\252/R\375.\325\227\250~\217\352+TOS}\225\352kT\177"
 161      2ED597A8 
 161      7E8FEA2B 
 161      544F537D 
 161      95EA6B54 
 162 0406 40F54754 		.ascii	"@\365GT\177B\365M\252\377E\365\247T\317\202N\\\232S"
 162      7F42F54D 
 162      AAFF45F5 
 162      A754CF82 
 162      4E5C9A53 
 163 041a EF88C1FA 		.ascii	"\357\210\301\372\022\356w\222\007\245\370\326\320\231"
 163      12EE7792 
 163      07A5F8D6 
 163      D099
 164 0428 A3164A33 		.ascii	"\243\026J3\275\362\322\245\211\020d\260aUN$0^\220\360"
 164      BDF2D2A5 
 164      891064B0 
 164      61554E24 
 164      305E90F0 
 165 043c 1C4DA537 		.ascii	"\034M\2457\354X\033\231x|\346\230\365Q\332\361V\014"
 165      EC581B99 
 165      787CE698 
 165      F551DAF1 
 165      560C
 166 044e 27E08BE3 		.ascii	"'\340\213\343\360\351\352\254\273\226\363\340s\203<"
 166      F0E9EAAC 
 166      BB96F3E0 
 166      73833C
 167 045d 70E88785 		.ascii	"p\350\207\205\234\257\215\240\276H\206E3\253?\305\254"
 167      9CAF8DA0 
 167      BE488645 
 167      33AB3FC5 
 167      AC
 168 046e FBC959E4 		.ascii	"\373\311Y\344$\036\235\235\271r\343\334N|\246w\207\334"
 168      241E9D9D 
 168      B972E3DC 
 168      4E7CA677 
 168      87DC
 169 0480 DE3C13DB 		.ascii	"\336<\023\333\376Jta\374X?i7S-}\251\255\226\276\232"
 169      FE4A7461 
 169      FC583F69 
 169      37532D7D 
ARM GAS  /tmp/ccNLiF6t.s 			page 13


 169      A9AD96BE 
 170 0495 5F3A8095 		.ascii	"_:\200\225\256\216k\216x\231\270<n\341cS\026dAc\241"
 170      AE8E6B8E 
 170      7899B83C 
 170      6EE16353 
 170      16644163 
 171 04aa 59D0B330 		.ascii	"Y\320\2630\33166\337\302=S\026Z\264\026Z\365,D\247\336"
 171      D93636DF 
 171      C23D5316 
 171      5AB4165A 
 171      F52C44A7 
 172 04bf CB26318A 		.ascii	"\313&1\21211jK3\203\277C\213\377\254\256\007\3237?Y"
 172      31316A4B 
 172      3383BF43 
 172      8BFFACAE 
 172      07D3373F 
 173 04d4 FADF0159 		.ascii	"\372\337\001Y~N\376*\266\275\2715\341\304\030g\204\026"
 173      7E4EFE2A 
 173      B6BDB935 
 173      E1C41867 
 173      8416
 174 04e6 1A70584E 		.ascii	"\032pXN\303\251L>\2475\271K\327\344\225\033\367:u\027"
 174      C3A94C3E 
 174      A735B94B 
 174      D7E4951B 
 174      F73A7517 
 175 04fa FF8629C7 		.ascii	"\377\206)\307~\257\265\362\274n\340\006\257\237Sk\361"
 175      7EAFB5F2 
 175      BC6EE006 
 175      AF9F536B 
 175      F1
 176 050b 969D42A2 		.ascii	"\226\235B\242l\2343eb\217\326\304^]G\272:\356\314_\375"
 176      6C9C3365 
 176      628FD6C4 
 176      5E5D47BA 
 176      3AEECC5F 
 177 0520 DD0E3316 		.ascii	"\335\0163\026^\320Z\330g\220_\223\363-\274b\312\302"
 177      5ED05AD8 
 177      67905F93 
 177      F32DBC62 
 177      CAC2
 178 0532 7EAD854E 		.ascii	"~\255\205N\3350\335\233\237_\307M\341\037\320\342\277"
 178      DD30DD9B 
 178      9F5FC74D 
 178      E11FD0E2 
 178      BF
 179 0543 6C905F17 		.ascii	"l\220_\027\366\343\375-\262R\276w\357\024\342V\242\216"
 179      F6E3FD2D 
 179      B252BE77 
 179      EF14E256 
 179      A28E
 180 0555 790926E1 		.ascii	"y\011&\341\335I\014=\233\007\2656\017\3616u\352\307"
 180      DD490C3D 
 180      9B07B536 
 180      0FF13675 
 180      EAC7
 181 0567 A82DBE1B 		.ascii	"\250-\276\033\025\243D\031\372\267\273\263\033[\350"
ARM GAS  /tmp/ccNLiF6t.s 			page 14


 181      15A34419 
 181      FAB7BBB3 
 181      1B5BE8
 182 0576 0F1A3D02 		.ascii	"\017\032=\002\251Cw\244?\260\016\345qh\235)h\352\320"
 182      A94377A4 
 182      3FB00EE5 
 182      71689D29 
 182      68EAD0
 183 0589 8353B40E 		.ascii	"\203S\264\016%\375\017\256C\3774\365\002W\207\356U("
 183      25FD0FAE 
 183      43FF34F5 
 183      025787EE 
 183      5528
 184 059b 085FB70E 		.ascii	"\010_\267\016\035\230b\316/\373,\203\345q`\307Y\260"
 184      1D9862CE 
 184      2FFB2C83 
 184      E57160C7 
 184      59B0
 185 05ad 0366C052 		.ascii	"\003f\300R\324\241'X\260C\226\301xf\203,\330\353f\300"
 185      D4A12758 
 185      B04396C1 
 185      7866832C 
 185      D8EB66C0 
 186 05c1 52D4A143 		.ascii	"R\324\241C,X\277e0\236\331)\026\354\244\031\260\024"
 186      2C58BF65 
 186      309ED929 
 186      16ECA419 
 186      B014
 187 05d3 75E8300B 		.ascii	"u\3500\013v\3322\030\317\354\002\0136f\006,\317\230"
 187      76DA3218 
 187      CFEC020B 
 187      3666062C 
 187      CF98
 188 05e5 D93B2CD8 		.ascii	"\331;,\330[\226\301xf\223,\330\0053`)\352\320)\026\354"
 188      5B96C178 
 188      66932CD8 
 188      05336029 
 188      EAD02916 
 189 05fa B265309E 		.ascii	"\262e0\236\331e\026\354\237f\300\014\353\320\226\350"
 189      D96516EC 
 189      9F66C00C 
 189      EBD096E8 
 190 060a FB493009 		.ascii	"\373I0\011\277\211\005\213`y\310\360bw!\011\367\012"
 190      BF89058B 
 190      6079C8F0 
 190      62772109 
 190      F70A
 191 061c E490FD9A 		.ascii	"\344\220\375\232@\016\276}T\037\245\372\030\325\177"
 191      400EBE7D 
 191      541FA5FA 
 191      18D57F
 192 062b A4BA9FEA 		.ascii	"\244\272\237\352\001\252\217S}\202\352A\252\207\250"
 192      01AA8F53 
 192      7D82EA41 
 192      AA87A8
 193 063a 3E45F530 		.ascii	">E\3650\325Q\301\370\000\335c\340\004\341uFH\234\371"
 193      D551C1F8 
ARM GAS  /tmp/ccNLiF6t.s 			page 15


 193      00DD63E0 
 193      04E17546 
 193      489CF9
 194 064d F47ED5E3 		.ascii	"\364~\325\343*ZeW\216\316\265\341<8\225\323\035\371"
 194      2A5A6557 
 194      8ECEB5E1 
 194      3C3895D3 
 194      1DF9
 195 065f C307EFC8 		.ascii	"\303\007\357\310\363k\363Q\355\216<=\256\3742hjG\276"
 195      F36BF351 
 195      ED8E3C3D 
 195      AEFC3268 
 195      6A47BE
 196 0672 36CEEFC8 		.ascii	"6\316\357\310\267)\205\321\257\275#\317\2163\253\376"
 196      B72985D1 
 196      AFBD23CF 
 196      8E33ABFE 
 197 0682 BA205804 		.ascii	"\272 X\004\343\363\361\3268\373[\222\031f)v\344\317"
 197      E3F3F1D6 
 197      38FB5B92 
 197      19662976 
 197      E4CF
 198 0694 58B0E60C 		.ascii	"X\260\346\014\253`)\363q\224\311\307\2634\037\307h\036"
 198      AB6029F3 
 198      7194C9C7 
 198      B3341FC7 
 198      681E
 199 06a6 9DA7FA4D 		.ascii	"\235\247\372M\252\337J\221S#)r\352\037\202Q\3651\224"
 199      AADF4A91 
 199      53232972 
 199      EA1F8251 
 199      F53194
 200 06b9 A2FA9848 		.ascii	"\242\372\230H\316B\217:\033\303!\247?\350\0154\326\372"
 200      CE428F3A 
 200      1BC321A7 
 200      3FE80D34 
 200      D6FA
 201 06cb 9C41DF33 		.ascii	"\234A\3373\001\377\323\316p\244\326\037\214\254\250"
 201      01FFD3CE 
 201      70A4D61F 
 201      8CACA8
 202 06da 43198D70 		.ascii	"C\031\215p/*\024#\216Uk\326\347\271\320\023z\243\353"
 202      2F2A1423 
 202      8E556BD6 
 202      E7B9D013 
 202      7AA3EB
 203 06ed 256F9D3F 		.ascii	"%o\235?\350s\212\265\276MRc \"F\266m\361\205a\366C\242"
 203      E8738AB5 
 203      BE4D5263 
 203      202246B6 
 203      6DF18561 
 204 0704 189F5FB4 		.ascii	"\030\237_\264b\205S\371k\010;\353\244\200sKC(\022vz"
 204      628553F9 
 204      6B083BEB 
 204      A480734B 
 204      43281276 
 205 0719 6AAA8B0A 		.ascii	"j\252\213\012\235\253W\2279k\252\252\267\026\2207b8"
ARM GAS  /tmp/ccNLiF6t.s 			page 16


 205      9DAB5797 
 205      396BAAAA 
 205      B7169037 
 205      6238
 206 072b 220602B5 		.ascii	"\"\006\002\265+\274(\343\247>o\244!T\234\237\245t\211"
 206      2BBC28E3 
 206      A73E6FA4 
 206      21549C9F 
 206      A57489
 207 073e FEA03FF2 		.ascii	"\376\240?\362\004\013\344m\250\257o\010\252X%\356jW"
 207      040BE46D 
 207      A8AF6F08 
 207      AA5825EE 
 207      6A57
 208 0750 7593D35B 		.ascii	"u\223\323[\347m\010\371\304\255O\326\003\203\357\233"
 208      E76D08F9 
 208      C4AD4FD6 
 208      0383EF9B 
 209 0760 1B4D3C0D 		.ascii	"\033M<\015\3716K\241z1\222+\222\001\242?\364k\321\267"
 209      F9364BA1 
 209      7A31922B 
 209      9201A23F 
 209      F46BD1B7 
 210 0774 C51F68D8 		.ascii	"\305\037h\330\334\350[\306\242\204\"\011\377\275u\341"
 210      DCE85BC6 
 210      A2842209 
 210      FFBD75E1 
 211 0784 6DC4CF5C 		.ascii	"m\304\317\\o\235g[\270\306_\357\013UJ\301\332\200/T"
 211      6F9D675B 
 211      B8C65FEF 
 211      0B554AC1 
 211      DA802F54 
 212 0798 F5037D7F 		.ascii	"\365\003}\177U\012\252\361\340V\277\027\246/$\367\362"
 212      550AAAF1 
 212      E056BF17 
 212      A62F24F7 
 212      F2
 213 07a9 A0F474C0 		.ascii	"\240\364t\300\247x\\h.X\341H=\011\255\2378\232\225x"
 213      A7785C68 
 213      2E58E148 
 213      3D09AD9F 
 213      389A9578 
 214 07bd 10233697 		.ascii	"\020#6\227\273\000\244\320\356\251v\271\355eU\345n\301"
 214      BB00A4D0 
 214      EEA976B9 
 214      ED6555E5 
 214      6EC1
 215 07cf E3       		.ascii	"\343"
 216 07d0 B695AF72 		.ascii	"\266\225\257r\247\271\\\325\356\002\252\013\355.W\271"
 216      A7B95CD5 
 216      EE02AA0B 
 216      ED2E57B9 
 217 07e0 DBE65A53 		.ascii	"\333\346ZSc[\347q\331J\334n\233\333\005\3170\241\264"
 217      635BE771 
 217      D94ADC6E 
 217      9BDB05CF 
 217      30A1B4
ARM GAS  /tmp/ccNLiF6t.s 			page 17


 218 07f3 ACC66D2B 		.ascii	"\254\306m+#3\253K\334\302ZeV\021\214\337\340\266{\353"
 218      2333AB4B 
 218      DCC25A65 
 218      56118CDF 
 218      E0B67BEB 
 219 0807 A4D0322D 		.ascii	"\244\3202-\273\2060(\010\013\271\223h\220;\304cu\203"
 219      BB863028 
 219      080BB993 
 219      68903BC4 
 219      637583
 220 081a F75715A1 		.ascii	"\367W\025\241\206\372*\217{!\015\020\323\221Kc\034\200"
 220      86FA2A8F 
 220      7B210D10 
 220      D3914B63 
 220      1C80
 221 082c 0E7113F4 		.ascii	"\016q\023\364\210\376p(3\321U\240\263h\276\246\210\323"
 221      88FE7028 
 221      33D155A0 
 221      B368BEA6 
 221      88D3
 222 083e 55EDA9F2 		.ascii	"U\355\251\362$\203_\037\366\207\305\315^\022\301\005"
 222      24835F1F 
 222      F687C5CD 
 222      5E12C105 
 223 084e A258EB0F 		.ascii	"\242X\353\017\223\000\222u[ \005\236\221\266\205!]\002"
 223      93009275 
 223      5B20059E 
 223      91B68521 
 223      5D02
 224 0860 90968F10 		.ascii	"\220\226\217\020:k\371\325Y\254R\\\037\0140\234(I\256"
 224      3A6BF9D5 
 224      59AC525C 
 224      1F0C309C 
 224      2849AE
 225 0873 6B31E5D4 		.ascii	"k1\345\324\030\344\210f1\235\331\242\350\013\306\355"
 225      18E48866 
 225      319DD9A2 
 225      E80BC6ED 
 226 0883 16A7E4ED 		.ascii	"\026\247\344\355\251Q\026\260\"\277\251IY\272M\371E"
 226      A95116B0 
 226      22BFA949 
 226      59BA4DF9 
 226      45
 227 0894 F94DC564 		.ascii	"\371M\305d\361\334.\227X\003\037M\231o\223\000\201w"
 227      F1DC2E97 
 227      58031F4D 
 227      996F9300 
 227      8177
 228 08a6 55AC82A5 		.ascii	"U\254\202\245\250rg\224\254+-t{jh\243\2004\034%\225"
 228      A8726794 
 228      AC2B2D74 
 228      7B6A68A3 
 228      80341C25 
 229 08bb A5E56BDC 		.ascii	"\245\345k\334\351\344\205z/\200;\254\031Y<\017tT\226"
 229      E9E4857A 
 229      2F803BAC 
 229      19593C0F 
ARM GAS  /tmp/ccNLiF6t.s 			page 18


 229      745496
 230 08ce 92716904 		.ascii	"\222qi\004\242\220\352\242\234\262\322U\325\256\365"
 230      A290EAA2 
 230      9CB2D255 
 230      D5AEF5
 231 08dd 71038EAA 		.ascii	"q\003\216\2522\327\332\262r\007\231Z\261\221\334\012"
 231      32D7DAB2 
 231      7207995A 
 231      B191DC0A 
 232 08ed 2B36FE0F 		.ascii	"+6\376\017\332\177S\276"
 232      DA7F53BE 
 233              		.text
 234              		.section	.gnu.lto_.symtab.45b8977494ea395d,"",%progbits
 235 0000 56656374 		.ascii	"Vector80\000\000\000\000\000\000\000\000\000\000\000"
 235      6F723830 
 235      00000000 
 235      00000000 
 235      000000
 236 0013 00A80000 		.ascii	"\000\250\000\000\000st_lld_init\000\000\000\000\000"
 236      0073745F 
 236      6C6C645F 
 236      696E6974 
 236      00000000 
 237 0028 00000000 		.ascii	"\000\000\000\000\000\000\000\254\000\000\000_port_i"
 237      000000AC 
 237      0000005F 
 237      706F7274 
 237      5F69
 238 003a 72715F65 		.ascii	"rq_epilogue\000\000\002\000\000\000\000\000\000\000"
 238      70696C6F 
 238      67756500 
 238      00020000 
 238      00000000 
 239 004f 0000AF00 		.ascii	"\000\000\257\000\000\000chSysTimerHandlerI\000\000\002"
 239      00006368 
 239      53797354 
 239      696D6572 
 239      48616E64 
 240 006a 00000000 		.ascii	"\000\000\000\000\000\000\000\000\000\266\000\000\000"
 240      00000000 
 240      00B60000 
 240      00
 241 0077 6E766963 		.ascii	"nvicEnableVector\000\000\002\000\000\000\000\000\000"
 241      456E6162 
 241      6C655665 
 241      63746F72 
 241      00000200 
 242 0090 000000B9 		.ascii	"\000\000\000\271\000\000\000"
 242      000000
 243              		.text
 244              		.section	.gnu.lto_.opts,"",%progbits
 245 0000 272D6D63 		.ascii	"'-mcpu=cortex-m0' '-mno-thumb-interwork' '-mthumb' "
 245      70753D63 
 245      6F727465 
 245      782D6D30 
 245      2720272D 
 246 0033 272D6767 		.ascii	"'-ggdb' '-O2' '-fomit-frame-pointer' '-falign-funct"
ARM GAS  /tmp/ccNLiF6t.s 			page 19


 246      64622720 
 246      272D4F32 
 246      2720272D 
 246      666F6D69 
 247 0066 696F6E73 		.ascii	"ions=16' '-ffunction-sections' '-fdata-sections' '-"
 247      3D313627 
 247      20272D66 
 247      66756E63 
 247      74696F6E 
 248 0099 666E6F2D 		.ascii	"fno-common' '-flto'\000"
 248      636F6D6D 
 248      6F6E2720 
 248      272D666C 
 248      746F2700 
 249              		.text
 250              		.cfi_sections	.debug_frame
 251              		.section	.text.Vector80,"ax",%progbits
 252              		.align	2
 253              		.p2align 4,,15
 254              		.global	Vector80
 255              		.code	16
 256              		.thumb_func
 257              		.type	Vector80, %function
 258              	Vector80:
 259              	.LFB179:
 260              		.file 1 "../../../os/hal/ports/STM32/LLD/TIMv1/hal_st_lld.c"
 261              		.loc 1 239 0
 262              		.cfi_startproc
 263              		.loc 1 246 0
 264 0000 074B     		ldr	r3, .L7
 265              		.loc 1 239 0
 266 0002 10B5     		push	{r4, lr}
 267              		.cfi_def_cfa_offset 8
 268              		.cfi_offset 4, -8
 269              		.cfi_offset 14, -4
 270              		.loc 1 246 0
 271 0004 1A69     		ldr	r2, [r3, #16]
 272              		.loc 1 241 0
 273 0006 7446     		mov	r4, lr
 274              	.LVL0:
 275              		.loc 1 246 0
 276 0008 9107     		lsl	r1, r2, #30
 277 000a 05D5     		bpl	.L2
 278              		.loc 1 247 0
 279 000c 0022     		mov	r2, #0
 280 000e 1A61     		str	r2, [r3, #16]
 281              	.LBB52:
 282              	.LBB53:
 283              	.LBB54:
 284              	.LBB55:
 285              	.LBB56:
 286              	.LBB57:
 287              		.file 2 "../../../os/common/ext/CMSIS/include/cmsis_gcc.h"
 288              		.loc 2 71 0
 289              	@ 71 "../../../os/common/ext/CMSIS/include/cmsis_gcc.h" 1
 290 0010 72B6     		cpsid i
 291              	@ 0 "" 2
ARM GAS  /tmp/ccNLiF6t.s 			page 20


 292              		.code	16
 293              	.LBE57:
 294              	.LBE56:
 295              	.LBE55:
 296              	.LBE54:
 297              	.LBE53:
 298              	.LBE52:
 299              	.LBB58:
 300              	.LBB59:
 301              		.file 3 "../../../os/hal/osal/rt/osal.h"
 302              		.loc 3 585 0
 303 0012 FFF7FEFF 		bl	chSysTimerHandlerI
 304              	.LVL1:
 305              	.LBE59:
 306              	.LBE58:
 307              	.LBB60:
 308              	.LBB61:
 309              	.LBB62:
 310              	.LBB63:
 311              	.LBB64:
 312              	.LBB65:
 313              		.loc 2 60 0
 314              	@ 60 "../../../os/common/ext/CMSIS/include/cmsis_gcc.h" 1
 315 0016 62B6     		cpsie i
 316              	@ 0 "" 2
 317              		.code	16
 318              	.L2:
 319              	.LBE65:
 320              	.LBE64:
 321              	.LBE63:
 322              	.LBE62:
 323              	.LBE61:
 324              	.LBE60:
 325              		.loc 1 254 0
 326 0018 201C     		mov	r0, r4
 327 001a FFF7FEFF 		bl	_port_irq_epilogue
 328              	.LVL2:
 329              		.loc 1 255 0
 330              		@ sp needed
 331              	.LVL3:
 332 001e 10BD     		pop	{r4, pc}
 333              	.L8:
 334              		.align	2
 335              	.L7:
 336 0020 00040040 		.word	1073742848
 337              		.cfi_endproc
 338              	.LFE179:
 339              		.size	Vector80, .-Vector80
 340 0024 C046C046 		.section	.text.st_lld_init,"ax",%progbits
 340      C046C046 
 340      C046C046 
 341              		.align	2
 342              		.p2align 4,,15
 343              		.global	st_lld_init
 344              		.code	16
 345              		.thumb_func
 346              		.type	st_lld_init, %function
ARM GAS  /tmp/ccNLiF6t.s 			page 21


 347              	st_lld_init:
 348              	.LFB180:
 349              		.loc 1 267 0
 350              		.cfi_startproc
 351 0000 08B5     		push	{r3, lr}
 352              		.cfi_def_cfa_offset 8
 353              		.cfi_offset 3, -8
 354              		.cfi_offset 14, -4
 355              		.loc 1 273 0
 356 0002 0D4B     		ldr	r3, .L10
 357 0004 0222     		mov	r2, #2
 358 0006 D969     		ldr	r1, [r3, #28]
 359              		.loc 1 289 0
 360 0008 1020     		mov	r0, #16
 361              		.loc 1 273 0
 362 000a 1143     		orr	r1, r2
 363 000c D961     		str	r1, [r3, #28]
 364              		.loc 1 276 0
 365 000e 0B4B     		ldr	r3, .L10+4
 366              		.loc 1 304 0
 367              		@ sp needed
 368              		.loc 1 276 0
 369 0010 9968     		ldr	r1, [r3, #8]
 370 0012 0A43     		orr	r2, r1
 371 0014 9A60     		str	r2, [r3, #8]
 372              		.loc 1 279 0
 373 0016 0A4B     		ldr	r3, .L10+8
 374 0018 0A4A     		ldr	r2, .L10+12
 375              		.loc 1 289 0
 376 001a 0221     		mov	r1, #2
 377              		.loc 1 279 0
 378 001c 9A62     		str	r2, [r3, #40]
 379              		.loc 1 280 0
 380 001e 0A4A     		ldr	r2, .L10+16
 381 0020 DA62     		str	r2, [r3, #44]
 382              		.loc 1 281 0
 383 0022 0022     		mov	r2, #0
 384 0024 9A61     		str	r2, [r3, #24]
 385              		.loc 1 282 0
 386 0026 5A63     		str	r2, [r3, #52]
 387              		.loc 1 283 0
 388 0028 DA60     		str	r2, [r3, #12]
 389              		.loc 1 284 0
 390 002a 5A60     		str	r2, [r3, #4]
 391              		.loc 1 285 0
 392 002c 0122     		mov	r2, #1
 393 002e 5A61     		str	r2, [r3, #20]
 394              		.loc 1 286 0
 395 0030 1A60     		str	r2, [r3]
 396              		.loc 1 289 0
 397 0032 FFF7FEFF 		bl	nvicEnableVector
 398              	.LVL4:
 399              		.loc 1 304 0
 400 0036 08BD     		pop	{r3, pc}
 401              	.L11:
 402              		.align	2
 403              	.L10:
ARM GAS  /tmp/ccNLiF6t.s 			page 22


 404 0038 00100240 		.word	1073876992
 405 003c 00580140 		.word	1073829888
 406 0040 00040040 		.word	1073742848
 407 0044 7FBB0000 		.word	47999
 408 0048 FFFF0000 		.word	65535
 409              		.cfi_endproc
 410              	.LFE180:
 411              		.size	st_lld_init, .-st_lld_init
 412 004c C046C046 		.text
 413              	.Letext0:
 414              		.file 4 "/usr/include/newlib/machine/_default_types.h"
 415              		.file 5 "/usr/include/newlib/stdint.h"
 416              		.file 6 "../../../os/common/ports/ARMCMx/compilers/GCC/chtypes.h"
 417              		.file 7 "../../../os/rt/include/chsystypes.h"
 418              		.file 8 "../../../os/rt/include/chschd.h"
 419              		.file 9 "../../../os/common/ext/CMSIS/ST/STM32F0xx/stm32f030x8.h"
 420              		.file 10 "../../../os/common/ports/ARMCMx/chcore.h"
 421              		.file 11 "../../../os/common/ports/ARMCMx/chcore_v6m.h"
 422              		.file 12 "../../../os/hal/ports/STM32/LLD/TIMv1/stm32_tim.h"
 423              		.file 13 "../../../os/rt/include/chsem.h"
 424              		.file 14 "../../../os/rt/include/chmtx.h"
 425              		.file 15 "../../../os/rt/include/chsys.h"
 426              		.file 16 "../../../os/hal/ports/common/ARMCMx/nvic.h"