ARM GAS  /tmp/ccBaX2pP.s 			page 1


   1              		.cpu cortex-m0
   2              		.fpu softvfp
   3              		.eabi_attribute 20, 1
   4              		.eabi_attribute 21, 1
   5              		.eabi_attribute 23, 3
   6              		.eabi_attribute 24, 1
   7              		.eabi_attribute 25, 1
   8              		.eabi_attribute 26, 1
   9              		.eabi_attribute 30, 2
  10              		.eabi_attribute 34, 0
  11              		.eabi_attribute 18, 4
  12              		.code	16
  13              		.file	"hal_st.c"
  14              		.text
  15              	.Ltext0:
  16              		.section	.gnu.lto_.jmpfuncs.912019e263c6d8ca,"",%progbits
  17 0000 789C6362 		.ascii	"x\234cb`b\300\006x\2414+\020322103\26200\000\000\002"
  17      6062C006 
  17      78A1342B 
  17      10333232 
  17      313033B2 
  18 0019 6D0023   		.ascii	"m\000#"
  19              		.text
  20              		.section	.gnu.lto_.inline.912019e263c6d8ca,"",%progbits
  21 0000 789C6362 		.ascii	"x\234cb`b\300\006\362\2414+\003\003\013\017#X\021\333"
  21      6062C006 
  21      F2A1342B 
  21      03030B0F 
  21      235811DB 
  22 0014 0279B05A 		.ascii	"\002y\260ZF.\020\301\300\306\312\310\010\244\030\030"
  22      462E10C1 
  22      C0C6CAC8 
  22      08A41818 
  23 0024 98D83EE8 		.ascii	"\230\330>\350\301%\231\030X\230\201\312\231.\360\303"
  23      C1259918 
  23      589881CA 
  23      992EF0C3 
  24 0034 85984142 		.ascii	"\205\230ABP\245\310\342,\230J\031\000\300\002\010{"
  24      50A5C8E2 
  24      2C984A19 
  24      00C00208 
  24      7B
  25              		.text
  26              		.section	.gnu.lto_.pureconst.912019e263c6d8ca,"",%progbits
  27 0000 789C6362 		.ascii	"x\234cb`b\340f\200\000V\006\011F)&)f)\026)\000\004\027"
  27      6062E066 
  27      80005606 
  27      09462926 
  27      29662916 
  28 0018 009F     		.ascii	"\000\237"
  29              		.text
  30              		.section	.gnu.lto_stInit.912019e263c6d8ca,"",%progbits
  31 0000 789C6362 		.ascii	"x\234cb`b@\007\222@\\\011\304\362@\314\310\314\300\310"
  31      60624007 
  31      92405C09 
  31      C4F240CC 
  31      C8CCC0C8 
ARM GAS  /tmp/ccBaX2pP.s 			page 2


  32 0014 34E11C03 		.ascii	"4\341\034\003C#\007\023##\210\301\300\310P\317\304X"
  32      43230713 
  32      232388C1 
  32      C0C850CF 
  32      C458
  33 0026 1FC90856 		.ascii	"\037\311\010V\273\236\351\300\203\377\377\327\375X\373"
  33      BB9EE9C0 
  33      83FFFFD7 
  33      FD58FB
  34 0035 B01EA894 		.ascii	"\260\036\250\224\201\201\225\241\245\241a\202\002\003"
  34      818195A1 
  34      A5A16182 
  34      0203
  35 0043 4332583E 		.ascii	"C2X>\004H\2024\20522\201h\346\363\014\315\017\376\331"
  35      04488234 
  35      85323281 
  35      68E6F30C 
  35      CD0FFED9 
  36 0057 24322E64 		.ascii	"$2.dd\005\312V3\374j\350h\020\310d\004\252\206\030\227"
  36      6405CA56 
  36      33FC6AE8 
  36      6810C864 
  36      04AA8618 
  37 006c 09A22F32 		.ascii	"\011\242/24>\370\317\004S\004\001!@\011\240\001 \307"
  37      343EF8CF 
  37      04530401 
  37      214009A0 
  37      0120C7
  38 007f CAEAE9E9 		.ascii	"\312\352\351\351CP~\261~Fb\216~qQ2\210\216/.\321Kf\000"
  38      43507EB1 
  38      7E46628E 
  38      7E715132 
  38      888E2F2E 
  39 0097 0032792A 		.ascii	"\0002y*\325"
  39      D5
  40              		.text
  41              		.section	.gnu.lto_stStartAlarm.912019e263c6d8ca,"",%progbits
  42 0000 789C9D51 		.ascii	"x\234\235QOK\002A\024\177ov6\275\345\265C ^\243]\312"
  42      4F4B0241 
  42      147F6F76 
  42      36BDE5B5 
  42      43205EA3 
  43 0016 0FD0A54B 		.ascii	"\017\320\245K\240\2476\320\223l\026\271\240\030\356"
  43      A0A736D0 
  43      936C16B9 
  43      A018EE
  44 0025 D2D55911 		.ascii	"\322\325Y\021\211N\322)\354\244\030AI\236\"\251\016"
  44      894ED229 
  44      ECA41841 
  44      499E22A9 
  44      0E
  45 0036 96278902 		.ascii	"\226'\211\002\251S\020\004\335\303o\260\315\314\256"
  45      A9531004 
  45      DDC36FB0 
  45      CDCCAE
  46 0045 845E8286 		.ascii	"\204^\202\206\335}\263\357\375\3761C\200\300\354Z\340"
  46      DD7DB3EF 
ARM GAS  /tmp/ccBaX2pP.s 			page 3


  46      FDFE3143 
  46      80C0EC5A 
  46      E0
  47 0056 EF1702A4 		.ascii	"\357\027\002\244xE\005\220\324_\000\3340A\024\033@("
  47      78450590 
  47      D45F00DC 
  47      3041141B 
  47      4028
  48 0068 132CA751 		.ascii	"\023,\247Qb\273\244\377\351yW\267\265\363\0166\010\307"
  48      62BBA4FF 
  48      E97957B7 
  48      B5F30E36 
  48      08C7
  49 007a 14102858 		.ascii	"\024\020(Xr\250B\225\261z\264\200\374/+;\006\377\012"
  49      72A84295 
  49      B17AB480 
  49      FC2F2B3B 
  49      06FF0A
  50 008d 8D2D24A2 		.ascii	"\215-$\242*C\250\204\001b\320d\354\270\177W\033 ;b\356"
  50      2A43A884 
  50      0162D064 
  50      ECB87F57 
  50      1B203B62 
  51 00a2 D8F3E62D 		.ascii	"\330\363\346-\344\210(\012Z\012-$\021Y\224\231\254{"
  51      E488280A 
  51      5A0A2D24 
  51      11599499 
  51      AC7B
  52 00b4 1C04CF50 		.ascii	"\034\004\317P\371\036\334\274_:\201\335\304\267\377"
  52      F91EDCBC 
  52      5F3A81DD 
  52      C4B7FF
  53 00c3 F436524D 		.ascii	"\3646RMla\214#Ml\242\312\325\320\247\321\200\3718\274"
  53      6C618C23 
  53      4D6CA2CA 
  53      D5D0A7D1 
  53      80F938BC 
  54 00d7 7FFDA884 		.ascii	"\177\375\250\204Ll\363\3512tX\325ei\013\351\022\\\210"
  54      4C6CF3E9 
  54      327458D5 
  54      65690BE9 
  54      125C88
  55 00ea ED9A85EA 		.ascii	"\355\232\205\352)4\334:\213X8'\022\204\330!cT\206\011"
  55      2934DC3A 
  55      8B583827 
  55      1284D821 
  55      63548609 
  56 00fe C908DB28 		.ascii	"\311\010\333(\325\3178_v\303~\262\240\303\235\244M\357"
  56      D5CF385F 
  56      76C37EB2 
  56      A0C39DA4 
  56      4DEF
  57 0110 A4FBA0F8 		.ascii	"\244\373\240\370.\277\322\364Oi\234\222\246\242)\304"
  57      2EBFD2F4 
  57      4F699C92 
  57      A6A229C4 
  58 0120 7AFF1223 		.ascii	"z\377\022#\323b\342(G\340\216[\327\324?\234\3112\270"
ARM GAS  /tmp/ccBaX2pP.s 			page 4


  58      D362E228 
  58      47E08E5B 
  58      D7D43F9C 
  58      C932B8
  59 0133 2DBF1B31 		.ascii	"-\277\0331_\3244\335\177\212\266\2363\363\272]\312\212"
  59      5FD434DD 
  59      7F8AB69E 
  59      33F3BA5D 
  59      CA8A
  60 0145 9AB11D2D 		.ascii	"\232\261\035-\013\324\261\012\273\361Y\310~\261\344"
  60      0BD4B10A 
  60      BBF159C8 
  60      7EB1E4
  61 0154 D8FAA691 		.ascii	"\330\372\246\221\214\257\352\211\304\272nl$\017V\002"
  61      8CAFEA89 
  61      C4BA6E6C 
  61      240F5602 
  62 0164 52269FDF 		.ascii	"R&\237\337\321r\360\003v\327\221_"
  62      D172F003 
  62      76D7915F 
  63              		.text
  64              		.section	.gnu.lto_stStopAlarm.912019e263c6d8ca,"",%progbits
  65 0000 789C6362 		.ascii	"x\234cb`b@\007\222@|\024\210\203\201\230\221\231\201"
  65      60624007 
  65      92407C14 
  65      88838198 
  65      919981
  66 0013 9169C239 		.ascii	"\221i\3029\006\206F\016&FF\020\203\201\221\241\236\211"
  66      0686460E 
  66      26464610 
  66      838191A1 
  66      9E89
  67 0025 B13E9211 		.ascii	"\261>\222\021\254v=\323\201\007\377\377\257\373\326"
  67      AC763DD3 
  67      8107FFFF 
  67      AFFBD6
  68 0034 36E70DE3 		.ascii	"6\347\015\343l&\026\240\010+CKC\303\004\005\006\206"
  68      6C2616A0 
  68      082B434B 
  68      43C30405 
  68      0686
  69 0046 64B08A10 		.ascii	"d\260\212\020 \011\322\026\312\310\004\242\231\3172"
  69      2009D216 
  69      CAC804A2 
  69      99CF32
  70 0055 1CDA31E7 		.ascii	"\034\3321\347\322\363G\254pu\020\306\201\323\367\016"
  70      D2F347AC 
  70      707510C6 
  70      81D3F70E 
  71 0065 B2323024 		.ascii	"\26220$2.dd\005j\005\353\325fX\325\320\322\370`\342"
  71      322E6464 
  71      056A05EB 
  71      D56658D5 
  71      D0D2F860 
  72 007a DE69F299 		.ascii	"\336i\362\231\214\014\263\031f5Nh\020\310dd\214`\314"
  72      8C0CB319 
  72      66354E68 
ARM GAS  /tmp/ccBaX2pP.s 			page 5


  72      10C86464 
  72      8C60CC
  73 008d 64646AE8 		.ascii	"ddj\350hh`a\0003\301.I\002iId\\\014\324\016\026\005"
  73      68686061 
  73      0033C12E 
  73      49026949 
  73      645C0CD4 
  74 00a4 0B5E6468 		.ascii	"\013^dh\374\360h;\013\304T\030\010\001\232\016t\012"
  74      FCF0683B 
  74      0BC45418 
  74      08019A0E 
  74      740A
  75 00b6 489BAC9E 		.ascii	"H\233\254\236\236>\004\345\027\353g$\346\350\027\027"
  75      9E3E04E5 
  75      17EB6724 
  75      E6E81717 
  76 00c6 2583E8F8 		.ascii	"%\203\350\370\342\022\275d\006ct\331\202\374\242\222"
  76      E212BD64 
  76      066374D9 
  76      82FCA292 
  77 00d6 62FDE010 		.ascii	"b\375\340\020_c#}\037\037\027\375\020O\3372C\250\372"
  77      5F63237D 
  77      1F1F17FD 
  77      104FDF32 
  77      43A8FA
  78 00e9 F89C9C14 		.ascii	"\370\234\234\024\275\014\006\000\320]P\262"
  78      BD0C0600 
  78      D05D50B2 
  79              		.text
  80              		.section	.gnu.lto_stSetAlarm.912019e263c6d8ca,"",%progbits
  81 0000 789C5D50 		.ascii	"x\234]P\261J\003A\020\235\267\271K\322\231\326B\010"
  81      B14A0341 
  81      109DB7B9 
  81      4BD299D6 
  81      4208
  82 0012 69C53B34 		.ascii	"i\305;4\037`c\023H*OH\252pF1\007\011\221\334a\233\275"
  82      1F606313 
  82      482A4F48 
  82      AA704631 
  82      070991DC 
  83 0029 10885805 		.ascii	"\020\210X\005K\305\"\242\026\"\021\265\260\320\"\230"
  83      4BC522A2 
  83      162211B5 
  83      B0D02298 
  84 0039 2A8882D8 		.ascii	"*\210\202\330Y\211\265\2044\326\347\356\336\245\311"
  84      5989B584 
  84      34D6E7EE 
  84      DEA5C9
  85 0048 B0BB333B 		.ascii	"\260\2733;\363\336\314\333e\304h\336\026\305\316\201"
  85      F3DECCDB 
  85      65C468DE 
  85      16C5CE81 
  86 0058 A8283C62 		.ascii	"\250(<b\004\326{'\362\223\014\220\001\201Z\014\255\022"
  86      04D67B27 
  86      F2930C90 
  86      01815A0C 
  86      AD12
ARM GAS  /tmp/ccBaX2pP.s 			page 6


  87 006a 14F6960D 		.ascii	"\024\366\226\015\277\203`p\337\275\372\305\031\2133"
  87      BF836070 
  87      DFBDFAC5 
  87      198B33
  88 0079 D4411A39 		.ascii	"\324A\0329\252\250S\207\363^\272\016q\253\250\214%N"
  88      AAA85387 
  88      F35EBA0E 
  88      71ABA88C 
  88      254E
  89 008b D9630B4C 		.ascii	"\331c\013L\372\330\230\332I\242\014\3659?\036>tG\340"
  89      FAD898DA 
  89      49A20CF5 
  89      393F1E3E 
  89      7447E0
  90 009e 47DC9F06 		.ascii	"G\334\237\006\301\202\003\201HC\322\212p\300R\312\305"
  90      C1820381 
  90      4843D28A 
  90      70C052CA 
  90      C5
  91 00af E6B4EE09 		.ascii	"\346\264\356\011\020\275Q{2z\374\032x\321\270\331\334"
  91      10BD517B 
  91      327AFC1A 
  91      78D1B8D9 
  91      DC
  92 00c0 E1EBE44E 		.ascii	"\341\353\344N\267q\216\214@\332\350C\027\335\020\322"
  92      B7718E8C 
  92      40DAE843 
  92      17DD10D2 
  93 00d0 B488F932 		.ascii	"\264\210\3712~\376\374k'l\\\210\352\012\335\360\216"
  93      7EFEFC6B 
  93      276C5C88 
  93      EA0ADDF0 
  93      8E
  94 00e1 CF4B0EB4 		.ascii	"\317K\016\264e\272\226\341\272\003\375\224N\374\036"
  94      65BA96E1 
  94      BA03FD94 
  94      4EFC1E
  95 00f0 4F39884B 		.ascii	"O9\210K\005\011~\310\271\246\304$\224\204m\250\356\227"
  95      05097EC8 
  95      B9A6C424 
  95      94846DA8 
  95      EE97
  96 0102 82AFB2C9 		.ascii	"\202\257\262\311PY\224\021\223\210>\310\237\376<i\241"
  96      50599411 
  96      93883EC8 
  96      9FFE3C69 
  96      A1
  97 0113 84995942 		.ascii	"\204\231YB\212\370\001\371\240%\3030\303\325p\315\252"
  97      8AF801F9 
  97      A025C330 
  97      C3D570CD 
  97      AA
  98 0124 5D33DD66 		.ascii	"]3\335fE\372\262\353\031\025\322<\247\276\233\235\207"
  98      45FAB2EB 
  98      1915D23C 
  98      A7BE9B9D 
  98      87
ARM GAS  /tmp/ccBaX2pP.s 			page 7


  99 0135 EC379A9E 		.ascii	"\3547\232\236knZ\205\354\232\231\317o\230V\256p\260"
  99      6B6E5A85 
  99      EC9A99CF 
  99      6F9856AE 
  99      70B0
 100 0147 1A91CAB5 		.ascii	"\032\221\312\265\332\216Q\245\177Q\326m)"
 100      DA8E51A5 
 100      7F51D66D 
 100      29
 101              		.text
 102              		.section	.gnu.lto_stGetAlarm.912019e263c6d8ca,"",%progbits
 103 0000 789C6362 		.ascii	"x\234cb`b@\007\222@\374\037\210\203\201\230\221\231"
 103      60624007 
 103      9240FC1F 
 103      88838198 
 103      9199
 104 0012 819169C2 		.ascii	"\201\221i\3029\006\206F\016&FF\020\203\201\221\241\236"
 104      39068646 
 104      0E264646 
 104      10838191 
 104      A19E
 105 0024 89B13E92 		.ascii	"\211\261>\222\021\254v=\323\201\007\377\377\257\373"
 105      11AC763D 
 105      D38107FF 
 105      FFAFFB
 106 0033 D43EEF0D 		.ascii	"\324>\357\015\343|&Vf\206LF\006\026 \001\222eehih\230"
 106      E37C2656 
 106      66864C46 
 106      06162001 
 106      92656568 
 107 004a A0900B62 		.ascii	"\240\220\013b'\203\225\207\000I\220\031\241\214L \232"
 107      27839587 
 107      00499019 
 107      A18C4C20 
 107      9A
 108 005b F92CC3A1 		.ascii	"\371,\303\241;s.\375\177\304\011U\012\323s\340\364?"
 108      3B732EFD 
 108      7FC40955 
 108      0AD373E0 
 108      F43F
 109 006d 43068644 		.ascii	"C\006\206D\306\205\214\254@\235`\255\351\214\314\272"
 109      C6858CAC 
 109      409D60AD 
 109      E98CCCBA 
 110 007d 0C6B1A5A 		.ascii	"\014k\032Z\032\037L\374;\335/\223\221I\233a\025\220"
 110      1A1F4CFC 
 110      3BDD2F93 
 110      91499B61 
 110      1590
 111 008f D7309931 		.ascii	"\3270\2311\223\221y6\303\254\306\011\015\002\231\214"
 111      93917936 
 111      C3ACC609 
 111      0D02998C 
 112 009f 2C11402E 		.ascii	",\021@.kCGC\003\013\003\230\011vd\022\310\204D\306\305"
 112      6B434743 
 112      030B0398 
 112      09766412 
ARM GAS  /tmp/ccBaX2pP.s 			page 8


 112      C88444C6 
 113 00b4 202E4894 		.ascii	" .H\224\015\342O\250\010\003\303Y\206\246w\315|\211"
 113      0DE24FA8 
 113      0803C359 
 113      86A677CD 
 113      7C89
 114 00c6 8C8B80DC 		.ascii	"\214\213\200\334tF\026\240U\014\014\027\031\0327\\\262"
 114      744616A0 
 114      550C0C17 
 114      191A375C 
 114      B2
 115 00d7 87380128 		.ascii	"\2078\001(\006\321\021\002t\013\320\335\240 \223\325"
 115      06D11102 
 115      740BD0DD 
 115      A02093D5 
 116 00e7 D3D387A0 		.ascii	"\323\323\207\240\374b\375\214\304\034\375\342\242d\020"
 116      FC62FD8C 
 116      C41CFDE2 
 116      A26410
 117 00f6 1D5F5CA2 		.ascii	"\035_\\\242\227\314`\214.[\220_TR\254\037\034\342kl"
 117      97CC608C 
 117      2E5B905F 
 117      5452AC1F 
 117      1CE26B6C 
 118 010a A4EFE3E3 		.ascii	"\244\357\343\343\242\037\342\351[f\010U\037\237\223"
 118      A21FE2E9 
 118      5B660855 
 118      1F9F93
 119 0119 93A297C1 		.ascii	"\223\242\227\301\000\000!W\\*"
 119      00002157 
 119      5C2A
 120              		.text
 121              		.section	.gnu.lto_.symbol_nodes.912019e263c6d8ca,"",%progbits
 122 0000 789C4DC7 		.ascii	"x\234M\307\301\015@@\024E\321w\377\230J\025\362&\261"
 122      C10D4040 
 122      1445D177 
 122      FF984A15 
 122      F226B1
 123 0013 B1548126 		.ascii	"\261T\201&\030T\241\006\225\210\005\2119\273\023\012"
 123      1854A106 
 123      95880589 
 123      39BB130A 
 124 0023 F5FAC482 		.ascii	"\365\372\304\202\245\351\224\354y$VL\323\212\243\351"
 124      A5E994EC 
 124      7924564C 
 124      D38AA3E9 
 125 0033 8653D31D 		.ascii	"\206S\323\035w\1779p~[\012IY\303u\243\007\014@\036\232"
 125      777F3970 
 125      7E5B0A49 
 125      59C375A3 
 125      070C401E 
 126              		.text
 127              		.section	.gnu.lto_.refs.912019e263c6d8ca,"",%progbits
 128 0000 789C6362 		.ascii	"x\234cb`b`d\200\002\000\000F\000\006"
 128      60626064 
 128      80020000 
 128      460006
ARM GAS  /tmp/ccBaX2pP.s 			page 9


 129              		.text
 130              		.section	.gnu.lto_.decls.912019e263c6d8ca,"",%progbits
 131 0000 789CB558 		.ascii	"x\234\265X}l\024E\024\237\331=\372y\224\026\205T\023"
 131      7D6C1445 
 131      149FD93D 
 131      FA799416 
 131      855413
 132 0013 4231601A 		.ascii	"B1`\032\242=\333\012\221\177\020\274\022 \241J\256%"
 132      A23DDB0A 
 132      917F10BC 
 132      1220A14A 
 132      AE25
 133 0025 69E21FCB 		.ascii	"i\342\037\313\320\036\366\222~\245\267\325\020\377\231"
 133      D01EF692 
 133      7EA5B7D5 
 133      10FF99
 134 0034 B6520888 		.ascii	"\266R\010\210\264E\260 \201\343\253\224\004#T(\024="
 134      B445B020 
 134      81E3AB94 
 134      04235428 
 134      143D
 135 0046 38A014D2 		.ascii	"8\240\024\322j\305V\301Z\324C\203H\014\261\006\205\020"
 135      6AC556C1 
 135      5AD44383 
 135      480CB106 
 135      8510
 136 0058 B0E7CCEC 		.ascii	"\260\347\314\354\354\335\356\262[\366H\334\364\275\276"
 136      ECDDEEB2 
 136      5BF648DC 
 136      F4BDBE
 137 0067 DB7BEF37 		.ascii	"\333{\3577\277y\357\315\356\314\011@\000\035\020\200"
 137      BF79EFCD 
 137      EECC0940 
 137      001D1080 
 138 0077 08B99C4F 		.ascii	"\010\271\234O\003P&\000\220\000\000\230\017b\027\375"
 138      03502600 
 138      90000098 
 138      0F6217FD 
 139 0087 BC87483B 		.ascii	"\274\207H;\221.\"\335D\202D\316\202G/\352G \300y\"{"
 139      912E22DD 
 139      448244CE 
 139      82472FEA 
 139      4720C079 
 140 009d F93D81DF 		.ascii	"\371=\201\3377\363\247\230\311D\022\211\034\"\222F\304"
 140      37F3A798 
 140      C9441289 
 140      1C229246 
 140      C4
 141 00ae 49A48748 		.ascii	"I\244\207H?\221\001\"cD\034DD\"\267\211\214\020\031"
 141      3F910122 
 141      63441C44 
 141      4422B789 
 141      8C1019
 142 00c1 E6B8343E 		.ascii	"\346\2704>\302\355\317\250\037\324\343w\361\270\036"
 142      C2EDCFA8 
 142      1FD4E377 
 142      F1B81E
ARM GAS  /tmp/ccBaX2pP.s 			page 10


 143 00d0 0D16D4C4 		.ascii	"\015\026\324\304\323\357\323\0141\200\317\321./\310"
 143      D3EFD30C 
 143      3180CFD1 
 143      2E2FC8
 144 00df 79093C2E 		.ascii	"y\011<.\003*\366\347D\246\030\260\203\034S\305}\034"
 144      032AF6E7 
 144      44A618B0 
 144      831C53C5 
 144      7D1C
 145 00f1 1EF57F16 		.ascii	"\036\365\177\026*\367\246\031\260\246\203]8\020\016"
 145      2AF7A619 
 145      B0A6835D 
 145      38100E
 146 0100 AFDDDD0F 		.ascii	"\257\335\335\017q+~\030\211\210`*\330\212\311\025h\302"
 146      712B7E18 
 146      8988602A 
 146      D88AC915 
 146      68C2
 147 0112 18CA08CE 		.ascii	"\030\312\010\316\237\002J \202i\311 \213\031\316d6\000"
 147      9F024A20 
 147      8269C920 
 147      8B19CE64 
 147      3600
 148 0124 0008EE85 		.ascii	"\000\010\356\205S\271\265BT\340\004\220\005\301lp\210"
 148      53B9B542 
 148      54E00490 
 148      05C16C70 
 148      88
 149 0135 C43763FC 		.ascii	"\3047c\374\313S\217&\205\\\317\203\003t\000\334\201"
 149      CB538F26 
 149      855CCF83 
 149      037400DC 
 149      81
 150 0146 45064F01 		.ascii	"E\006O\001\366\300\351Z\027\004\367A\301\3103<\032:"
 150      F6C0E95A 
 150      1704F741 
 150      C1C8333C 
 150      1A3A
 151 0158 D5EB6CAE 		.ascii	"\325\353l\256\017G\"\323\355\223<\310I\212,\027\244"
 151      0F4722D3 
 151      ED933CC8 
 151      498A2C17 
 151      A4
 152 0169 20EB316E 		.ascii	" \3531n\300\270\011gw\220\202\360\250t5\212\372\314"
 152      C0B80967 
 152      779082F0 
 152      A874358A 
 152      FACC
 153 017b 02FB09FD 		.ascii	"\002\373\011\375p\360\370\220\200q\022\202\207 \275"
 153      70F0F890 
 153      80711282 
 153      8720BD
 154 018a 5F0409D8 		.ascii	"_\004\011\330~8\233\023\262\217\363\240\351\304\013"
 154      7E389B13 
 154      B28FF3A0 
 154      E9C40B
 155 0199 0CE730C3 		.ascii	"\014\3470\303y\367Iq\266\367}2\217\341|\312p:\241\036"
ARM GAS  /tmp/ccBaX2pP.s 			page 11


 155      79F74971 
 155      B6F77D32 
 155      8FE17CCA 
 155      703AA11E 
 156 01ad 08413159 		.ascii	"\010A1Y\237B\362Yu\240h\354kn\320:\377\217\316\261\206"
 156      9F42F259 
 156      75A068EC 
 156      6B6ED03A 
 156      FF8FCEB1 
 157 01c2 603D1134 		.ascii	"`=\0214P\235\011\366a\334\032>p\363w\261\015\207\004"
 157      509D09F6 
 157      61DC1A3E 
 157      70F377B1 
 157      0D8704
 158 01d5 35C37DCC 		.ascii	"5\303}\314\255\235t\202Y\026\024\257X\373l\302k\323"
 158      AD9D7482 
 158      591614AF 
 158      58FB6CC2 
 158      6BD3
 159 01e7 61B47FDA 		.ascii	"a\264\177\332\215\375\323i\332?w\325\376Q\232W\000\203"
 159      8DFDD369 
 159      DA3F77D5 
 159      FE519A57 
 159      0083
 160 01f9 066AE6DD 		.ascii	"\006j\346\335\331eD?a\212\336y1\212~\220\241\377d:q"
 160      D965443F 
 160      618ADE79 
 160      318A7E90 
 160      A1FF643A 
 161 020e 7C6F65B6 		.ascii	"|oe\2662\033\004\217\021 \004\273\237h\316\335FV\247"
 161      321B048F 
 161      112004BB 
 161      9F68CEDD 
 161      4656A7
 162 0221 4C59DDB9 		.ascii	"LY\335\271\270\351\031\034h\010E\"\257\032\3276E\267"
 162      B8E9191C 
 162      68084522 
 162      AF1AD736 
 162      45B7
 163 0233 5A37A74D 		.ascii	"Z7\247M\026\367-\363l5\340#\035x\202J\026\301\240\305"
 163      16F72DF3 
 163      6C35E023 
 163      1D78824A 
 163      16C1A0C5 
 164 0247 7438DE19 		.ascii	"t8\336\031\023\232\315\341\341\257\377\255\207-\215"
 164      139ACDE1 
 164      E1AFFFAD 
 164      872D8D
 165 0256 814B7834 		.ascii	"\201Kx4\022\231\004\324\002u\010\306!\025\220sz\220"
 165      129904D4 
 165      027508C6 
 165      21159073 
 165      7A90
 166 0268 54B081F2 		.ascii	"T\260\201\362 \023[r)M\211\265\232\330y\230\252F\261"
 166      20135B72 
 166      294D89B5 
 166      9AD87998 
ARM GAS  /tmp/ccBaX2pP.s 			page 12


 166      AA46B1
 167 027b C5D7C8A3 		.ascii	"\305\327\310\243\200iDt\021_8\013\3112\205|\275\216"
 167      80694474 
 167      115F380B 
 167      C932857C 
 167      BD8E
 168 028d 1782E005 		.ascii	"\027\202\340\0058\213\350D\375*IL\216\031\364U9\211"
 168      388BE844 
 168      FD2A494C 
 168      8E19F455 
 168      3989
 169 029f 66F49860 		.ascii	"f\364\230`\3728\260\301h{_O\013l$\214\020\274\304\226"
 169      FA38B0C1 
 169      687B5F4F 
 169      0B6C248C 
 169      10BCC496 
 170 02b3 4F50303E 		.ascii	"OP0>\020\022\015\017\204\307\023\212\323=\0034\323v"
 170      10120D0F 
 170      84C7138A 
 170      D33D0334 
 170      D376
 171 02c5 CAA229EF 		.ascii	"\312\242)\357\211\365\022\206*\337t\006\245u\353\265"
 171      89F51286 
 171      2ADF7406 
 171      A575EBB5 
 172 02d5 7643F04B 		.ascii	"vC\360K\230\021\313\002\216V\323i\335\245_)\353C\275"
 172      9811CB02 
 172      8E56D369 
 172      DDA55F29 
 172      EB43BD
 173 02e8 1D3544DD 		.ascii	"\0355D\335LT/0\031\264p&\321\334\342\0045fe,\271G\267"
 173      4C542F30 
 173      19B47026 
 173      D1DCE204 
 173      3566652C 
 174 02ff DD9BCB9E 		.ascii	"\335\233\313\236\265\003p2I\355\003Cj\037\013C\007\375"
 174      B5037032 
 174      49ED0343 
 174      6A1F0B43 
 174      07FD
 175 0311 86842A41 		.ascii	"\206\204*A\014\024\207\266\2148\261C\271\017Lz\232_"
 175      0C1487B6 
 175      8C38B143 
 175      B90F4C7A 
 175      9A5F
 176 0323 334000BF 		.ascii	"3@\000\277\327\030\332:\262\223\254\332sPI\254\000\326"
 176      D718DA3A 
 176      B293ACDA 
 176      735049AC 
 176      00D6
 177 0335 8990639A 		.ascii	"\211\220c\232\245\":}5\027i\311\006\274m#\316f\244\202"
 177      A5223A7D 
 177      351769C9 
 177      06BC6D23 
 177      CE66A482 
 178 0349 6D8C1B2C 		.ascii	"m\214\033,K\007\326\246\005\333l\007,\311\232\331\016"
 178      4B07D6A6 
ARM GAS  /tmp/ccBaX2pP.s 			page 13


 178      05DB6C07 
 178      2CC99AD9 
 178      0E
 179 035a 2DD88771 		.ascii	"-\330\207q\203\351\231\355\324\202m\267\003\226n\315"
 179      83E999ED 
 179      D4826DB7 
 179      03966ECD 
 180 036a 6C97166C 		.ascii	"l\227\026lg\334`zfG\264`\001;`\231\326\314:\265`\355"
 180      67DC607A 
 180      6647B460 
 180      013B6099 
 180      D6CC3AB5 
 181 0380 7183E999 		.ascii	"q\203\351\231\035\323\202\035\266\003\226e\315\254K"
 181      1DD3821D 
 181      B6039665 
 181      CDAC4B
 182 038f 0B76346E 		.ascii	"\013v4n0=\263\223Z\260\343v\300\262\255\231\235\322"
 182      303DB393 
 182      5AB0E376 
 182      C0B2AD99 
 182      9DD2
 183 03a1 8275C70D 		.ascii	"\202u\307\015\246g\366\205\026,h\007\354%+f\365\241"
 183      A667F685 
 183      162C6807 
 183      EC252B66 
 183      F5A1
 184 03b3 D36F52AC 		.ascii	"\323oR\254~\362\360\023\300Y#\226\376)i\006\246gvY\313"
 184      7EF2F013 
 184      C0592396 
 184      FE296906 
 184      A6677659 
 185 03c8 EC821D66 		.ascii	"\354\202\035f\013\254\301\006\265`}v\300\226X\027\340"
 185      0BACC106 
 185      B5607D76 
 185      C0965817 
 185      E0
 186 03d9 5B2DD840 		.ascii	"[-\330@\334`zfW\264`Cv\300\226[3\373^\013v%n0-\263\372"
 186      DC607A66 
 186      57B46043 
 186      76C0965B 
 186      33FB5E0B 
 187 03f4 D00FA49A 		.ascii	"\320\017\244\232\374\215\027X`x3.\320?\302tn\275\226"
 187      FC8D1758 
 187      6078332E 
 187      D03FC274 
 187      6EBD96
 188 0407 6E083E88 		.ascii	"n\010>\210\373\305\370\320\342\305\250=\377\305\274"
 188      FBC5F8D0 
 188      E2C5A83D 
 188      FFC5BC
 189 0416 C8B4AF19 		.ascii	"\310\264\257\031\247\255#\301\315\022\223\034\232]\332"
 189      A7AD23C1 
 189      CD12931C 
 189      9A5DDA
 190 0425 B71F8283 		.ascii	"\267\037\202\203l;4\004g\020\375\035\323W\231\036fz"
 190      6C3B3404 
 190      6710FD1D 
ARM GAS  /tmp/ccBaX2pP.s 			page 14


 190      D357991E 
 190      667A
 191 0437 84E91F99 		.ascii	"\204\351\037\231\376\231\351\353L\377\312\364\015\246"
 191      FE99E9EB 
 191      4CFFCAF4 
 191      0DA6
 192 0445 6F327D8B 		.ascii	"o2}\213\351?\230\276\315\364\237L\377\305\364\035\246"
 192      E93F98BE 
 192      CDF49F4C 
 192      FFC5F41D 
 192      A6
 193 0456 FF61FA1E 		.ascii	"\377a\372\036\323\367\211\216^\206\035\342\200E})\367"
 193      D3F7898E 
 193      5E861DE2 
 193      80457D29 
 193      F7
 194 0467 B1D80E91 		.ascii	"\261\330\016\221nNC\243dsz\355\034lm\304\312\3464\220"
 194      6E4E43A3 
 194      64737AED 
 194      1C6C6DC4 
 194      CAE63490 
 195 047b A46EF0AF 		.ascii	"\244n\360\257\213\246\033\374!\224\255\036j\376f\036"
 195      8BA61BFC 
 195      2194AD1E 
 195      6AFE661E 
 196 048b 119B1BFC 		.ascii	"\021\233\033\374a\274<3\272\277\217\030\367\367X\320"
 196      61BC3C33 
 196      BABF8F18 
 196      F7F758D0 
 197 049b ED799F03 		.ascii	"\355y\237\003{\360\345\313\341\0337\333\340\37209o\217"
 197      7BF0E5CB 
 197      E11B37DB 
 197      E0FA3039 
 197      6F8F
 198 04ad 452250DD 		.ascii	"E\"P\335j\265\245\361\235d\370@(\263-\266MI\322\366"
 198      6AB5A5F1 
 198      9D64F840 
 198      28B32DB6 
 198      4D49D2F6 
 199 04c1 81B22F21 		.ascii	"\201\262/!\001B\324\031gf\232\373\"\270N\240U\\/\304"
 199      0142D419 
 199      67669AFB 
 199      22B84EA0 
 199      555C2FC4 
 200 04d5 FA4AB155 		.ascii	"\372J\261U+\302~\262\270/\232\374\022\242\320\037?\224"
 200      2BC27EB2 
 200      B82F9AFC 
 200      12A2D01F 
 200      3F94
 201 04e7 0F5AAE0E 		.ascii	"\017Z\256\016:\221\371\306\346\243x\232{!\270A\210w"
 201      3A91F9C6 
 201      E6A3789A 
 201      7B21B841 
 201      8877
 202 04f9 816C14CC 		.ascii	"\201l\024\314\027\210S\307Y\365\"3\033\023\015\307S"
 202      178853C7 
 202      59F52233 
ARM GAS  /tmp/ccBaX2pP.s 			page 15


 202      1B130DC7 
 202      53
 203 050a 0309B247 		.ascii	"\003\011\262G\343\277\034!\230\0025\255\363\233\241"
 203      E3BF1C21 
 203      980235AD 
 203      F39BA1
 204 0519 759483CD 		.ascii	"u\224\203\315V\207\235\223\347\007\202\241\0076\013"
 204      56879D93 
 204      E70782A1 
 204      07360B
 205 0528 8F1C9E42 		.ascii	"\217\034\236B\243\241\301~\345\344\271;\224\256\266"
 205      A3A1C17E 
 205      E5E4B93B 
 205      94AEB6
 206 0537 E6418769 		.ascii	"\346A\207ik\236A\321\263g\203@\317\236-\302\023\264"
 206      6B9E41D1 
 206      B3678340 
 206      CF9E2DC2 
 206      13B4
 207 0549 668B9156 		.ascii	"f\213\221V\253yk\3365mM\004\233b\245,Q\007M\035\257"
 207      AB796BDE 
 207      356D4D04 
 207      9B62A52C 
 207      51074D1D 
 208 055e E0062F04 		.ascii	"\340\006/\004?\212\273\340m\026\005O\321MD\365\"\346"
 208      3F8ABBE0 
 208      6D16054F 
 208      D14D44F5 
 208      22E6
 209 0570 FB82E16C 		.ascii	"\373\202\341ln !\200\223\346\005\037k\205[\264\005?"
 209      6E202180 
 209      93E6051F 
 209      6B855BB4 
 209      053F
 210 0582 CD0AD26B 		.ascii	"\315\012\322k^p\343\341y\207E=\370@\037\233'zL\223h"
 210      5E70E3E1 
 210      7987453D 
 210      F8401F9B 
 210      277A4C93 
 211 0597 04B791E4 		.ascii	"\004\267\221\344\250\374\203\343\360\277\252\343\017"
 211      A8FC83E3 
 211      F0BFAAE3 
 211      0F
 212 05a4 A6E5E4B8 		.ascii	"\246\345\344\270\224\277j\277\253\034U\270\374\265\245"
 212      94BF6ABF 
 212      AB1C55B8 
 212      FCB5A5
 213 05b3 F4BFE497 		.ascii	"\364\277\344\227sJA\202_^Z\345\223\023\026\277\276\""
 213      734A4182 
 213      5F5E5AE5 
 213      931316BF 
 213      BE22
 214 05c5 CB0D666A 		.ascii	"\313\015fj}ke\227\257\252\264\242\256\314\353*-\367"
 214      7D6B6597 
 214      AFAAB4A2 
 214      AECCEB2A 
 214      2DF7
ARM GAS  /tmp/ccBaX2pP.s 			page 16


 215 05d7 AFF1CB6B 		.ascii	"\257\361\313kj\274\376\234r\220Lm_\245W\222\247\271"
 215      6ABCFE9C 
 215      72904C6D 
 215      5FA55792 
 215      A7B9
 216 05e9 EAFCB551 		.ascii	"\352\374\265Q\247*\357;\025\276U.\277\\\346\253\222"
 216      A72AEF3B 
 216      15BE552E 
 216      BF5CE6AB 
 216      92
 217 05fa 895F521D 		.ascii	"\211_R\035\371\237;W\222_4s\253D\245\345\276*\257K*"
 217      F99F3B57 
 217      925F3473 
 217      AB44A5E5 
 217      BE2AAF4B 
 218 060f F3AE4675 		.ascii	"\363\256Fu\025\262\244\302\247H\222\032\350\364\313"
 218      15B2A4C2 
 218      A748921A 
 218      E8F4CB
 219 061e 4532AA95 		.ascii	"E2\252\225\027V\240\332\312D\264\212\015\233JoV\327"
 219      1756A0DA 
 219      CA44B48A 
 219      0D9B4A6F 
 219      56D7
 220 0630 B07B29C4 		.ascii	"\260{)\304\366\312\252\271\230\233\371\306\031\327T"
 220      F6CAAAB9 
 220      989BF9C6 
 220      19D754
 221 063f D7CA7E57 		.ascii	"\327\312~WQqa~\236k\331\262\002W\361\322\302\267sy\016"
 221      5171617E 
 221      9E6BD9B2 
 221      0257F1D2 
 221      C2B77379 
 222 0654 A48A8A32 		.ascii	"\244\212\21222j\252bI>\222\014F<?O\2229\025j\346\331"
 222      326AAA62 
 222      493E920C 
 222      463C3F4F 
 222      9239156A 
 223 066a C3F4CB95 		.ascii	"\303\364\313\225\324\333W\251@\362\017\222,\272=\271"
 223      D4DB57A9 
 223      40F20F92 
 223      2CBA3DB9 
 224 067a 44F21C45 		.ascii	"D\362\034E\205n\217\243`\351\"\217P\344\021\027-\366"
 224      856E8FA3 
 224      60E9228F 
 224      50E41117 
 224      2DF6
 225 068c 4C70BB0B 		.ascii	"Lp\273\013=\271L\3479\334\356E\036\321\375z\261\270"
 225      3DB94CE7 
 225      39DCEE45 
 225      1ED1FD7A 
 225      B1B8
 226 069e BCC82D2E 		.ascii	"\274\310-.\364xD\217\233|&\001\257\025\024{\304\002"
 226      F478448F 
 226      9B7C2601 
 226      AF15147B 
 226      C402
ARM GAS  /tmp/ccBaX2pP.s 			page 17


 227 06b0 1A59B8D0 		.ascii	"\032Y\270\320#\274\241D\345\023\377\022\317dN\334O\023"
 227      23BCA144 
 227      E513FF12 
 227      CF644EDC 
 227      4F13
 228 06c2 25213A7F 		.ascii	"%!:\177\007M\223\243\264\034\325&I\322\352\272\252R"
 228      074D93A3 
 228      B41CD526 
 228      49D2EABA 
 228      AA52
 229 06d4 499AA81A 		.ascii	"I\232\250\0329ss_~%#\032S]\243\204\244\253w\274\034"
 229      3973735F 
 229      7E25231A 
 229      535DA384 
 229      A4AB77BC 
 230 06e9 431B3067 		.ascii	"C\0330g\216\372\365[\246_\317\373\017\324\344\231!"
 230      8EFAF55B 
 230      A65FCFFB 
 230      0FD4E499 
 230      21
 231              		.text
 232              		.section	.gnu.lto_.symtab.912019e263c6d8ca,"",%progbits
 233 0000 7374496E 		.ascii	"stInit\000\000\000\000\000\000\000\000\000\000\000\000"
 233      69740000 
 233      00000000 
 233      00000000 
 233      0000
 234 0012 A1000000 		.ascii	"\241\000\000\000stStartAlarm\000\000\000\000\000\000"
 234      73745374 
 234      61727441 
 234      6C61726D 
 234      00000000 
 235 0028 00000000 		.ascii	"\000\000\000\000\000\000\246\000\000\000stStopAlarm"
 235      0000A600 
 235      00007374 
 235      53746F70 
 235      416C6172 
 236 003d 00000000 		.ascii	"\000\000\000\000\000\000\000\000\000\000\000\000\266"
 236      00000000 
 236      00000000 
 236      B6
 237 004a 00000073 		.ascii	"\000\000\000stSetAlarm\000\000\000\000\000\000\000\000"
 237      74536574 
 237      416C6172 
 237      6D000000 
 237      00000000 
 238 005f 00000000 		.ascii	"\000\000\000\000\271\000\000\000stGetAlarm\000\000\000"
 238      B9000000 
 238      73744765 
 238      74416C61 
 238      726D0000 
 239 0074 00000000 		.ascii	"\000\000\000\000\000\000\000\000\000\275\000\000\000"
 239      00000000 
 239      00BD0000 
 239      00
 240 0081 73745F6C 		.ascii	"st_lld_init\000\000\002\000\000\000\000\000\000\000"
 240      6C645F69 
ARM GAS  /tmp/ccBaX2pP.s 			page 18


 240      6E697400 
 240      00020000 
 240      00000000 
 241 0096 0000C100 		.ascii	"\000\000\301\000\000\000"
 241      0000
 242              		.text
 243              		.section	.gnu.lto_.opts,"",%progbits
 244 0000 272D6D63 		.ascii	"'-mcpu=cortex-m0' '-mno-thumb-interwork' '-mthumb' "
 244      70753D63 
 244      6F727465 
 244      782D6D30 
 244      2720272D 
 245 0033 272D6767 		.ascii	"'-ggdb' '-O2' '-fomit-frame-pointer' '-falign-funct"
 245      64622720 
 245      272D4F32 
 245      2720272D 
 245      666F6D69 
 246 0066 696F6E73 		.ascii	"ions=16' '-ffunction-sections' '-fdata-sections' '-"
 246      3D313627 
 246      20272D66 
 246      66756E63 
 246      74696F6E 
 247 0099 666E6F2D 		.ascii	"fno-common' '-flto'\000"
 247      636F6D6D 
 247      6F6E2720 
 247      272D666C 
 247      746F2700 
 248              		.text
 249              		.cfi_sections	.debug_frame
 250              		.section	.text.stInit,"ax",%progbits
 251              		.align	2
 252              		.p2align 4,,15
 253              		.global	stInit
 254              		.code	16
 255              		.thumb_func
 256              		.type	stInit, %function
 257              	stInit:
 258              	.LFB179:
 259              		.file 1 "../../../os/hal/src/hal_st.c"
 260              		.loc 1 60 0
 261              		.cfi_startproc
 262 0000 08B5     		push	{r3, lr}
 263              		.cfi_def_cfa_offset 8
 264              		.cfi_offset 3, -8
 265              		.cfi_offset 14, -4
 266              		.loc 1 62 0
 267 0002 FFF7FEFF 		bl	st_lld_init
 268              	.LVL0:
 269              		.loc 1 63 0
 270              		@ sp needed
 271 0006 08BD     		pop	{r3, pc}
 272              		.cfi_endproc
 273              	.LFE179:
 274              		.size	stInit, .-stInit
 275 0008 C046C046 		.section	.text.stStartAlarm,"ax",%progbits
 275      C046C046 
 276              		.align	2
ARM GAS  /tmp/ccBaX2pP.s 			page 19


 277              		.p2align 4,,15
 278              		.global	stStartAlarm
 279              		.code	16
 280              		.thumb_func
 281              		.type	stStartAlarm, %function
 282              	stStartAlarm:
 283              	.LFB180:
 284              		.loc 1 77 0
 285              		.cfi_startproc
 286              	.LVL1:
 287              	.LBB10:
 288              	.LBB11:
 289              		.file 2 "../../../os/hal/ports/STM32/LLD/TIMv1/hal_st_lld.h"
 290              		.loc 2 155 0
 291 0000 034B     		ldr	r3, .L3
 292              		.loc 2 156 0
 293 0002 0022     		mov	r2, #0
 294              		.loc 2 155 0
 295 0004 5863     		str	r0, [r3, #52]
 296              		.loc 2 156 0
 297 0006 1A61     		str	r2, [r3, #16]
 298              		.loc 2 157 0
 299 0008 0222     		mov	r2, #2
 300 000a DA60     		str	r2, [r3, #12]
 301              	.LBE11:
 302              	.LBE10:
 303              		.loc 1 82 0
 304              		@ sp needed
 305 000c 7047     		bx	lr
 306              	.L4:
 307 000e C046     		.align	2
 308              	.L3:
 309 0010 00040040 		.word	1073742848
 310              		.cfi_endproc
 311              	.LFE180:
 312              		.size	stStartAlarm, .-stStartAlarm
 313 0014 C046C046 		.section	.text.stStopAlarm,"ax",%progbits
 313      C046C046 
 313      C046C046 
 314              		.align	2
 315              		.p2align 4,,15
 316              		.global	stStopAlarm
 317              		.code	16
 318              		.thumb_func
 319              		.type	stStopAlarm, %function
 320              	stStopAlarm:
 321              	.LFB181:
 322              		.loc 1 91 0
 323              		.cfi_startproc
 324              	.LBB12:
 325              	.LBB13:
 326              		.loc 2 167 0
 327 0000 014B     		ldr	r3, .L6
 328 0002 0022     		mov	r2, #0
 329 0004 DA60     		str	r2, [r3, #12]
 330              	.LBE13:
 331              	.LBE12:
ARM GAS  /tmp/ccBaX2pP.s 			page 20


 332              		.loc 1 94 0
 333              		@ sp needed
 334 0006 7047     		bx	lr
 335              	.L7:
 336              		.align	2
 337              	.L6:
 338 0008 00040040 		.word	1073742848
 339              		.cfi_endproc
 340              	.LFE181:
 341              		.size	stStopAlarm, .-stStopAlarm
 342 000c C046C046 		.section	.text.stSetAlarm,"ax",%progbits
 343              		.align	2
 344              		.p2align 4,,15
 345              		.global	stSetAlarm
 346              		.code	16
 347              		.thumb_func
 348              		.type	stSetAlarm, %function
 349              	stSetAlarm:
 350              	.LFB182:
 351              		.loc 1 105 0
 352              		.cfi_startproc
 353              	.LVL2:
 354              	.LBB14:
 355              	.LBB15:
 356              		.loc 2 179 0
 357 0000 014B     		ldr	r3, .L9
 358              	.LBE15:
 359              	.LBE14:
 360              		.loc 1 110 0
 361              		@ sp needed
 362              	.LBB17:
 363              	.LBB16:
 364              		.loc 2 179 0
 365 0002 5863     		str	r0, [r3, #52]
 366              	.LBE16:
 367              	.LBE17:
 368              		.loc 1 110 0
 369 0004 7047     		bx	lr
 370              	.L10:
 371 0006 C046     		.align	2
 372              	.L9:
 373 0008 00040040 		.word	1073742848
 374              		.cfi_endproc
 375              	.LFE182:
 376              		.size	stSetAlarm, .-stSetAlarm
 377 000c C046C046 		.section	.text.stGetAlarm,"ax",%progbits
 378              		.align	2
 379              		.p2align 4,,15
 380              		.global	stGetAlarm
 381              		.code	16
 382              		.thumb_func
 383              		.type	stGetAlarm, %function
 384              	stGetAlarm:
 385              	.LFB183:
 386              		.loc 1 121 0
 387              		.cfi_startproc
 388              	.LBB18:
ARM GAS  /tmp/ccBaX2pP.s 			page 21


 389              	.LBB19:
 390              		.loc 2 191 0
 391 0000 014B     		ldr	r3, .L12
 392              	.LBE19:
 393              	.LBE18:
 394              		.loc 1 126 0
 395              		@ sp needed
 396              	.LBB21:
 397              	.LBB20:
 398              		.loc 2 191 0
 399 0002 586B     		ldr	r0, [r3, #52]
 400              	.LBE20:
 401              	.LBE21:
 402              		.loc 1 125 0
 403 0004 80B2     		uxth	r0, r0
 404              		.loc 1 126 0
 405 0006 7047     		bx	lr
 406              	.L13:
 407              		.align	2
 408              	.L12:
 409 0008 00040040 		.word	1073742848
 410              		.cfi_endproc
 411              	.LFE183:
 412              		.size	stGetAlarm, .-stGetAlarm
 413 000c C046C046 		.text
 414              	.Letext0:
 415              		.file 3 "/usr/include/newlib/machine/_default_types.h"
 416              		.file 4 "/usr/include/newlib/stdint.h"
 417              		.file 5 "../../../os/common/ports/ARMCMx/compilers/GCC/chtypes.h"
 418              		.file 6 "../../../os/rt/include/chsystypes.h"
 419              		.file 7 "../../../os/rt/include/chschd.h"
 420              		.file 8 "../../../os/common/ports/ARMCMx/chcore.h"
 421              		.file 9 "../../../os/common/ports/ARMCMx/chcore_v6m.h"
 422              		.file 10 "../../../os/hal/ports/STM32/LLD/TIMv1/stm32_tim.h"
 423              		.file 11 "../../../os/rt/include/chsem.h"
 424              		.file 12 "../../../os/rt/include/chmtx.h"
 425              		.section	.debug_info,"",%progbits
 426              	.Ldebug_info0:
 427 0000 96080000 		.4byte	0x896
 428 0004 0400     		.2byte	0x4
 429 0006 00000000 		.4byte	.Ldebug_abbrev0
 430 000a 04       		.byte	0x4
 431 000b 01       		.uleb128 0x1
 432 000c EE000000 		.4byte	.LASF110
 433 0010 01       		.byte	0x1
 434 0011 1A020000 		.4byte	.LASF111
 435 0015 1F050000 		.4byte	.LASF112
 436 0019 30000000 		.4byte	.Ldebug_ranges0+0x30
 437 001d 00000000 		.4byte	0
 438 0021 00000000 		.4byte	.Ldebug_line0
 439 0025 02       		.uleb128 0x2
 440 0026 04       		.byte	0x4
 441 0027 05       		.byte	0x5
 442 0028 696E7400 		.ascii	"int\000"
 443 002c 03       		.uleb128 0x3
 444 002d 04       		.byte	0x4
 445 002e 07       		.byte	0x7
ARM GAS  /tmp/ccBaX2pP.s 			page 22


 446 002f 55000000 		.4byte	.LASF0
 447 0033 03       		.uleb128 0x3
 448 0034 01       		.byte	0x1
 449 0035 06       		.byte	0x6
 450 0036 E1040000 		.4byte	.LASF1
 451 003a 04       		.uleb128 0x4
 452 003b F8030000 		.4byte	.LASF4
 453 003f 03       		.byte	0x3
 454 0040 1D       		.byte	0x1d
 455 0041 45000000 		.4byte	0x45
 456 0045 03       		.uleb128 0x3
 457 0046 01       		.byte	0x1
 458 0047 08       		.byte	0x8
 459 0048 61040000 		.4byte	.LASF2
 460 004c 03       		.uleb128 0x3
 461 004d 02       		.byte	0x2
 462 004e 05       		.byte	0x5
 463 004f 8D030000 		.4byte	.LASF3
 464 0053 04       		.uleb128 0x4
 465 0054 37020000 		.4byte	.LASF5
 466 0058 03       		.byte	0x3
 467 0059 2B       		.byte	0x2b
 468 005a 5E000000 		.4byte	0x5e
 469 005e 03       		.uleb128 0x3
 470 005f 02       		.byte	0x2
 471 0060 07       		.byte	0x7
 472 0061 F3040000 		.4byte	.LASF6
 473 0065 04       		.uleb128 0x4
 474 0066 76000000 		.4byte	.LASF7
 475 006a 03       		.byte	0x3
 476 006b 3F       		.byte	0x3f
 477 006c 70000000 		.4byte	0x70
 478 0070 03       		.uleb128 0x3
 479 0071 04       		.byte	0x4
 480 0072 05       		.byte	0x5
 481 0073 97030000 		.4byte	.LASF8
 482 0077 04       		.uleb128 0x4
 483 0078 6F040000 		.4byte	.LASF9
 484 007c 03       		.byte	0x3
 485 007d 41       		.byte	0x41
 486 007e 82000000 		.4byte	0x82
 487 0082 03       		.uleb128 0x3
 488 0083 04       		.byte	0x4
 489 0084 07       		.byte	0x7
 490 0085 18040000 		.4byte	.LASF10
 491 0089 03       		.uleb128 0x3
 492 008a 08       		.byte	0x8
 493 008b 05       		.byte	0x5
 494 008c 36030000 		.4byte	.LASF11
 495 0090 04       		.uleb128 0x4
 496 0091 AD020000 		.4byte	.LASF12
 497 0095 03       		.byte	0x3
 498 0096 5B       		.byte	0x5b
 499 0097 9B000000 		.4byte	0x9b
 500 009b 03       		.uleb128 0x3
 501 009c 08       		.byte	0x8
 502 009d 07       		.byte	0x7
ARM GAS  /tmp/ccBaX2pP.s 			page 23


 503 009e 03020000 		.4byte	.LASF13
 504 00a2 04       		.uleb128 0x4
 505 00a3 07030000 		.4byte	.LASF14
 506 00a7 04       		.byte	0x4
 507 00a8 2A       		.byte	0x2a
 508 00a9 3A000000 		.4byte	0x3a
 509 00ad 04       		.uleb128 0x4
 510 00ae 7F030000 		.4byte	.LASF15
 511 00b2 04       		.byte	0x4
 512 00b3 36       		.byte	0x36
 513 00b4 53000000 		.4byte	0x53
 514 00b8 04       		.uleb128 0x4
 515 00b9 3D040000 		.4byte	.LASF16
 516 00bd 04       		.byte	0x4
 517 00be 41       		.byte	0x41
 518 00bf 65000000 		.4byte	0x65
 519 00c3 04       		.uleb128 0x4
 520 00c4 91010000 		.4byte	.LASF17
 521 00c8 04       		.byte	0x4
 522 00c9 42       		.byte	0x42
 523 00ca 77000000 		.4byte	0x77
 524 00ce 04       		.uleb128 0x4
 525 00cf E9030000 		.4byte	.LASF18
 526 00d3 04       		.byte	0x4
 527 00d4 4E       		.byte	0x4e
 528 00d5 90000000 		.4byte	0x90
 529 00d9 04       		.uleb128 0x4
 530 00da 64030000 		.4byte	.LASF19
 531 00de 05       		.byte	0x5
 532 00df 3C       		.byte	0x3c
 533 00e0 A2000000 		.4byte	0xa2
 534 00e4 04       		.uleb128 0x4
 535 00e5 F7020000 		.4byte	.LASF20
 536 00e9 05       		.byte	0x5
 537 00ea 3D       		.byte	0x3d
 538 00eb A2000000 		.4byte	0xa2
 539 00ef 04       		.uleb128 0x4
 540 00f0 10040000 		.4byte	.LASF21
 541 00f4 05       		.byte	0x5
 542 00f5 3E       		.byte	0x3e
 543 00f6 A2000000 		.4byte	0xa2
 544 00fa 04       		.uleb128 0x4
 545 00fb D8010000 		.4byte	.LASF22
 546 00ff 05       		.byte	0x5
 547 0100 40       		.byte	0x40
 548 0101 C3000000 		.4byte	0xc3
 549 0105 04       		.uleb128 0x4
 550 0106 44030000 		.4byte	.LASF23
 551 010a 05       		.byte	0x5
 552 010b 41       		.byte	0x41
 553 010c B8000000 		.4byte	0xb8
 554 0110 04       		.uleb128 0x4
 555 0111 AD010000 		.4byte	.LASF24
 556 0115 05       		.byte	0x5
 557 0116 43       		.byte	0x43
 558 0117 C3000000 		.4byte	0xc3
 559 011b 04       		.uleb128 0x4
ARM GAS  /tmp/ccBaX2pP.s 			page 24


 560 011c 42020000 		.4byte	.LASF25
 561 0120 05       		.byte	0x5
 562 0121 45       		.byte	0x45
 563 0122 B8000000 		.4byte	0xb8
 564 0126 04       		.uleb128 0x4
 565 0127 39000000 		.4byte	.LASF26
 566 012b 06       		.byte	0x6
 567 012c 35       		.byte	0x35
 568 012d AD000000 		.4byte	0xad
 569 0131 04       		.uleb128 0x4
 570 0132 82020000 		.4byte	.LASF27
 571 0136 06       		.byte	0x6
 572 0137 3F       		.byte	0x3f
 573 0138 3C010000 		.4byte	0x13c
 574 013c 05       		.uleb128 0x5
 575 013d 1D030000 		.4byte	.LASF45
 576 0141 44       		.byte	0x44
 577 0142 07       		.byte	0x7
 578 0143 9A       		.byte	0x9a
 579 0144 1A020000 		.4byte	0x21a
 580 0148 06       		.uleb128 0x6
 581 0149 37040000 		.4byte	.LASF28
 582 014d 07       		.byte	0x7
 583 014e 9B       		.byte	0x9b
 584 014f 4F020000 		.4byte	0x24f
 585 0153 00       		.byte	0
 586 0154 06       		.uleb128 0x6
 587 0155 BD020000 		.4byte	.LASF29
 588 0159 07       		.byte	0x7
 589 015a 9C       		.byte	0x9c
 590 015b FA000000 		.4byte	0xfa
 591 015f 08       		.byte	0x8
 592 0160 07       		.uleb128 0x7
 593 0161 63747800 		.ascii	"ctx\000"
 594 0165 07       		.byte	0x7
 595 0166 9D       		.byte	0x9d
 596 0167 60040000 		.4byte	0x460
 597 016b 0C       		.byte	0xc
 598 016c 06       		.uleb128 0x6
 599 016d 5B040000 		.4byte	.LASF30
 600 0171 07       		.byte	0x7
 601 0172 9F       		.byte	0x9f
 602 0173 25020000 		.4byte	0x225
 603 0177 10       		.byte	0x10
 604 0178 06       		.uleb128 0x6
 605 0179 19050000 		.4byte	.LASF31
 606 017d 07       		.byte	0x7
 607 017e A0       		.byte	0xa0
 608 017f 25020000 		.4byte	0x225
 609 0183 14       		.byte	0x14
 610 0184 06       		.uleb128 0x6
 611 0185 02040000 		.4byte	.LASF32
 612 0189 07       		.byte	0x7
 613 018a A7       		.byte	0xa7
 614 018b DD060000 		.4byte	0x6dd
 615 018f 18       		.byte	0x18
 616 0190 06       		.uleb128 0x6
ARM GAS  /tmp/ccBaX2pP.s 			page 25


 617 0191 DF020000 		.4byte	.LASF33
 618 0195 07       		.byte	0x7
 619 0196 B0       		.byte	0xb0
 620 0197 EF060000 		.4byte	0x6ef
 621 019b 1C       		.byte	0x1c
 622 019c 06       		.uleb128 0x6
 623 019d A9040000 		.4byte	.LASF34
 624 01a1 07       		.byte	0x7
 625 01a2 B5       		.byte	0xb5
 626 01a3 E4000000 		.4byte	0xe4
 627 01a7 20       		.byte	0x20
 628 01a8 06       		.uleb128 0x6
 629 01a9 33000000 		.4byte	.LASF35
 630 01ad 07       		.byte	0x7
 631 01ae B9       		.byte	0xb9
 632 01af D9000000 		.4byte	0xd9
 633 01b3 21       		.byte	0x21
 634 01b4 06       		.uleb128 0x6
 635 01b5 80000000 		.4byte	.LASF36
 636 01b9 07       		.byte	0x7
 637 01ba BE       		.byte	0xbe
 638 01bb EF000000 		.4byte	0xef
 639 01bf 22       		.byte	0x22
 640 01c0 08       		.uleb128 0x8
 641 01c1 7500     		.ascii	"u\000"
 642 01c3 07       		.byte	0x7
 643 01c4 0F01     		.2byte	0x10f
 644 01c6 12060000 		.4byte	0x612
 645 01ca 24       		.byte	0x24
 646 01cb 09       		.uleb128 0x9
 647 01cc 7A040000 		.4byte	.LASF37
 648 01d0 07       		.byte	0x7
 649 01d1 1401     		.2byte	0x114
 650 01d3 2B020000 		.4byte	0x22b
 651 01d7 28       		.byte	0x28
 652 01d8 09       		.uleb128 0x9
 653 01d9 0F030000 		.4byte	.LASF38
 654 01dd 07       		.byte	0x7
 655 01de 1A01     		.2byte	0x11a
 656 01e0 4F020000 		.4byte	0x24f
 657 01e4 2C       		.byte	0x2c
 658 01e5 09       		.uleb128 0x9
 659 01e6 4C000000 		.4byte	.LASF39
 660 01ea 07       		.byte	0x7
 661 01eb 2001     		.2byte	0x120
 662 01ed 10010000 		.4byte	0x110
 663 01f1 34       		.byte	0x34
 664 01f2 09       		.uleb128 0x9
 665 01f3 63020000 		.4byte	.LASF40
 666 01f7 07       		.byte	0x7
 667 01f8 2701     		.2byte	0x127
 668 01fa D7060000 		.4byte	0x6d7
 669 01fe 38       		.byte	0x38
 670 01ff 09       		.uleb128 0x9
 671 0200 43000000 		.4byte	.LASF41
 672 0204 07       		.byte	0x7
 673 0205 2B01     		.2byte	0x12b
ARM GAS  /tmp/ccBaX2pP.s 			page 26


 674 0207 FA000000 		.4byte	0xfa
 675 020b 3C       		.byte	0x3c
 676 020c 09       		.uleb128 0x9
 677 020d 72050000 		.4byte	.LASF42
 678 0211 07       		.byte	0x7
 679 0212 3201     		.2byte	0x132
 680 0214 02030000 		.4byte	0x302
 681 0218 40       		.byte	0x40
 682 0219 00       		.byte	0
 683 021a 04       		.uleb128 0x4
 684 021b CC020000 		.4byte	.LASF43
 685 021f 06       		.byte	0x6
 686 0220 44       		.byte	0x44
 687 0221 25020000 		.4byte	0x225
 688 0225 0A       		.uleb128 0xa
 689 0226 04       		.byte	0x4
 690 0227 31010000 		.4byte	0x131
 691 022b 04       		.uleb128 0x4
 692 022c 67000000 		.4byte	.LASF44
 693 0230 06       		.byte	0x6
 694 0231 49       		.byte	0x49
 695 0232 36020000 		.4byte	0x236
 696 0236 05       		.uleb128 0x5
 697 0237 00000000 		.4byte	.LASF46
 698 023b 04       		.byte	0x4
 699 023c 07       		.byte	0x7
 700 023d 88       		.byte	0x88
 701 023e 4F020000 		.4byte	0x24f
 702 0242 06       		.uleb128 0x6
 703 0243 62000000 		.4byte	.LASF47
 704 0247 07       		.byte	0x7
 705 0248 89       		.byte	0x89
 706 0249 25020000 		.4byte	0x225
 707 024d 00       		.byte	0
 708 024e 00       		.byte	0
 709 024f 04       		.uleb128 0x4
 710 0250 53020000 		.4byte	.LASF48
 711 0254 06       		.byte	0x6
 712 0255 50       		.byte	0x50
 713 0256 5A020000 		.4byte	0x25a
 714 025a 05       		.uleb128 0x5
 715 025b BF000000 		.4byte	.LASF49
 716 025f 08       		.byte	0x8
 717 0260 07       		.byte	0x7
 718 0261 8F       		.byte	0x8f
 719 0262 7F020000 		.4byte	0x27f
 720 0266 06       		.uleb128 0x6
 721 0267 62000000 		.4byte	.LASF47
 722 026b 07       		.byte	0x7
 723 026c 90       		.byte	0x90
 724 026d 25020000 		.4byte	0x225
 725 0271 00       		.byte	0
 726 0272 06       		.uleb128 0x6
 727 0273 BA000000 		.4byte	.LASF50
 728 0277 07       		.byte	0x7
 729 0278 91       		.byte	0x91
 730 0279 25020000 		.4byte	0x225
ARM GAS  /tmp/ccBaX2pP.s 			page 27


 731 027d 04       		.byte	0x4
 732 027e 00       		.byte	0
 733 027f 04       		.uleb128 0x4
 734 0280 2A040000 		.4byte	.LASF51
 735 0284 06       		.byte	0x6
 736 0285 57       		.byte	0x57
 737 0286 8A020000 		.4byte	0x28a
 738 028a 0B       		.uleb128 0xb
 739 028b A0000000 		.4byte	.LASF52
 740 028f 1C       		.byte	0x1c
 741 0290 07       		.byte	0x7
 742 0291 6A01     		.2byte	0x16a
 743 0293 E6020000 		.4byte	0x2e6
 744 0297 09       		.uleb128 0x9
 745 0298 37040000 		.4byte	.LASF28
 746 029c 07       		.byte	0x7
 747 029d 6B01     		.2byte	0x16b
 748 029f 4F020000 		.4byte	0x24f
 749 02a3 00       		.byte	0
 750 02a4 09       		.uleb128 0x9
 751 02a5 BD020000 		.4byte	.LASF29
 752 02a9 07       		.byte	0x7
 753 02aa 6C01     		.2byte	0x16c
 754 02ac FA000000 		.4byte	0xfa
 755 02b0 08       		.byte	0x8
 756 02b1 08       		.uleb128 0x8
 757 02b2 63747800 		.ascii	"ctx\000"
 758 02b6 07       		.byte	0x7
 759 02b7 6E01     		.2byte	0x16e
 760 02b9 60040000 		.4byte	0x460
 761 02bd 0C       		.byte	0xc
 762 02be 09       		.uleb128 0x9
 763 02bf 5B040000 		.4byte	.LASF30
 764 02c3 07       		.byte	0x7
 765 02c4 7101     		.2byte	0x171
 766 02c6 25020000 		.4byte	0x225
 767 02ca 10       		.byte	0x10
 768 02cb 09       		.uleb128 0x9
 769 02cc 19050000 		.4byte	.LASF31
 770 02d0 07       		.byte	0x7
 771 02d1 7201     		.2byte	0x172
 772 02d3 25020000 		.4byte	0x225
 773 02d7 14       		.byte	0x14
 774 02d8 09       		.uleb128 0x9
 775 02d9 11050000 		.4byte	.LASF53
 776 02dd 07       		.byte	0x7
 777 02de 7501     		.2byte	0x175
 778 02e0 25020000 		.4byte	0x225
 779 02e4 18       		.byte	0x18
 780 02e5 00       		.byte	0
 781 02e6 04       		.uleb128 0x4
 782 02e7 D5000000 		.4byte	.LASF54
 783 02eb 06       		.byte	0x6
 784 02ec 5C       		.byte	0x5c
 785 02ed F1020000 		.4byte	0x2f1
 786 02f1 0A       		.uleb128 0xa
 787 02f2 04       		.byte	0x4
ARM GAS  /tmp/ccBaX2pP.s 			page 28


 788 02f3 F7020000 		.4byte	0x2f7
 789 02f7 0C       		.uleb128 0xc
 790 02f8 02030000 		.4byte	0x302
 791 02fc 0D       		.uleb128 0xd
 792 02fd 02030000 		.4byte	0x302
 793 0301 00       		.byte	0
 794 0302 0E       		.uleb128 0xe
 795 0303 04       		.byte	0x4
 796 0304 04       		.uleb128 0x4
 797 0305 4A030000 		.4byte	.LASF55
 798 0309 06       		.byte	0x6
 799 030a 61       		.byte	0x61
 800 030b 0F030000 		.4byte	0x30f
 801 030f 0B       		.uleb128 0xb
 802 0310 E0010000 		.4byte	.LASF56
 803 0314 14       		.byte	0x14
 804 0315 07       		.byte	0x7
 805 0316 4501     		.2byte	0x145
 806 0318 5E030000 		.4byte	0x35e
 807 031c 09       		.uleb128 0x9
 808 031d 62000000 		.4byte	.LASF47
 809 0321 07       		.byte	0x7
 810 0322 4601     		.2byte	0x146
 811 0324 F5060000 		.4byte	0x6f5
 812 0328 00       		.byte	0
 813 0329 09       		.uleb128 0x9
 814 032a BA000000 		.4byte	.LASF50
 815 032e 07       		.byte	0x7
 816 032f 4701     		.2byte	0x147
 817 0331 F5060000 		.4byte	0x6f5
 818 0335 04       		.byte	0x4
 819 0336 09       		.uleb128 0x9
 820 0337 ED040000 		.4byte	.LASF57
 821 033b 07       		.byte	0x7
 822 033c 4801     		.2byte	0x148
 823 033e 26010000 		.4byte	0x126
 824 0342 08       		.byte	0x8
 825 0343 09       		.uleb128 0x9
 826 0344 AE000000 		.4byte	.LASF58
 827 0348 07       		.byte	0x7
 828 0349 4901     		.2byte	0x149
 829 034b E6020000 		.4byte	0x2e6
 830 034f 0C       		.byte	0xc
 831 0350 08       		.uleb128 0x8
 832 0351 70617200 		.ascii	"par\000"
 833 0355 07       		.byte	0x7
 834 0356 4B01     		.2byte	0x14b
 835 0358 02030000 		.4byte	0x302
 836 035c 10       		.byte	0x10
 837 035d 00       		.byte	0
 838 035e 04       		.uleb128 0x4
 839 035f 82040000 		.4byte	.LASF59
 840 0363 06       		.byte	0x6
 841 0364 66       		.byte	0x66
 842 0365 69030000 		.4byte	0x369
 843 0369 0B       		.uleb128 0xb
 844 036a 6B020000 		.4byte	.LASF60
ARM GAS  /tmp/ccBaX2pP.s 			page 29


 845 036e 0C       		.byte	0xc
 846 036f 07       		.byte	0x7
 847 0370 5501     		.2byte	0x155
 848 0372 AB030000 		.4byte	0x3ab
 849 0376 09       		.uleb128 0x9
 850 0377 62000000 		.4byte	.LASF47
 851 037b 07       		.byte	0x7
 852 037c 5601     		.2byte	0x156
 853 037e F5060000 		.4byte	0x6f5
 854 0382 00       		.byte	0
 855 0383 09       		.uleb128 0x9
 856 0384 BA000000 		.4byte	.LASF50
 857 0388 07       		.byte	0x7
 858 0389 5801     		.2byte	0x158
 859 038b F5060000 		.4byte	0x6f5
 860 038f 04       		.byte	0x4
 861 0390 09       		.uleb128 0x9
 862 0391 ED040000 		.4byte	.LASF57
 863 0395 07       		.byte	0x7
 864 0396 5A01     		.2byte	0x15a
 865 0398 26010000 		.4byte	0x126
 866 039c 08       		.byte	0x8
 867 039d 09       		.uleb128 0x9
 868 039e E0030000 		.4byte	.LASF61
 869 03a2 07       		.byte	0x7
 870 03a3 6201     		.2byte	0x162
 871 03a5 26010000 		.4byte	0x126
 872 03a9 0A       		.byte	0xa
 873 03aa 00       		.byte	0
 874 03ab 04       		.uleb128 0x4
 875 03ac 27030000 		.4byte	.LASF62
 876 03b0 06       		.byte	0x6
 877 03b1 6B       		.byte	0x6b
 878 03b2 B6030000 		.4byte	0x3b6
 879 03b6 0B       		.uleb128 0xb
 880 03b7 DE000000 		.4byte	.LASF63
 881 03bb 04       		.byte	0x4
 882 03bc 07       		.byte	0x7
 883 03bd 7C01     		.2byte	0x17c
 884 03bf D1030000 		.4byte	0x3d1
 885 03c3 09       		.uleb128 0x9
 886 03c4 5A030000 		.4byte	.LASF64
 887 03c8 07       		.byte	0x7
 888 03c9 8401     		.2byte	0x184
 889 03cb FB060000 		.4byte	0x6fb
 890 03cf 00       		.byte	0
 891 03d0 00       		.byte	0
 892 03d1 04       		.uleb128 0x4
 893 03d2 BD040000 		.4byte	.LASF65
 894 03d6 06       		.byte	0x6
 895 03d7 70       		.byte	0x70
 896 03d8 DC030000 		.4byte	0x3dc
 897 03dc 0B       		.uleb128 0xb
 898 03dd BE030000 		.4byte	.LASF66
 899 03e1 70       		.byte	0x70
 900 03e2 07       		.byte	0x7
 901 03e3 9C01     		.2byte	0x19c
ARM GAS  /tmp/ccBaX2pP.s 			page 30


 902 03e5 1E040000 		.4byte	0x41e
 903 03e9 09       		.uleb128 0x9
 904 03ea F2030000 		.4byte	.LASF67
 905 03ee 07       		.byte	0x7
 906 03ef A001     		.2byte	0x1a0
 907 03f1 7F020000 		.4byte	0x27f
 908 03f5 00       		.byte	0
 909 03f6 09       		.uleb128 0x9
 910 03f7 8C000000 		.4byte	.LASF68
 911 03fb 07       		.byte	0x7
 912 03fc A401     		.2byte	0x1a4
 913 03fe 5E030000 		.4byte	0x35e
 914 0402 1C       		.byte	0x1c
 915 0403 08       		.uleb128 0x8
 916 0404 64626700 		.ascii	"dbg\000"
 917 0408 07       		.byte	0x7
 918 0409 A801     		.2byte	0x1a8
 919 040b AB030000 		.4byte	0x3ab
 920 040f 28       		.byte	0x28
 921 0410 09       		.uleb128 0x9
 922 0411 6C030000 		.4byte	.LASF69
 923 0415 07       		.byte	0x7
 924 0416 AC01     		.2byte	0x1ac
 925 0418 31010000 		.4byte	0x131
 926 041c 2C       		.byte	0x2c
 927 041d 00       		.byte	0
 928 041e 03       		.uleb128 0x3
 929 041f 04       		.byte	0x4
 930 0420 07       		.byte	0x7
 931 0421 07040000 		.4byte	.LASF70
 932 0425 0F       		.uleb128 0xf
 933 0426 C3000000 		.4byte	0xc3
 934 042a 10       		.uleb128 0x10
 935 042b C3000000 		.4byte	0xc3
 936 042f 3A040000 		.4byte	0x43a
 937 0433 11       		.uleb128 0x11
 938 0434 1E040000 		.4byte	0x41e
 939 0438 01       		.byte	0x1
 940 0439 00       		.byte	0
 941 043a 10       		.uleb128 0x10
 942 043b C3000000 		.4byte	0xc3
 943 043f 4A040000 		.4byte	0x44a
 944 0443 11       		.uleb128 0x11
 945 0444 1E040000 		.4byte	0x41e
 946 0448 03       		.byte	0x3
 947 0449 00       		.byte	0
 948 044a 04       		.uleb128 0x4
 949 044b 17000000 		.4byte	.LASF71
 950 044f 08       		.byte	0x8
 951 0450 65       		.byte	0x65
 952 0451 02030000 		.4byte	0x302
 953 0455 04       		.uleb128 0x4
 954 0456 06050000 		.4byte	.LASF72
 955 045a 08       		.byte	0x8
 956 045b 6D       		.byte	0x6d
 957 045c CE000000 		.4byte	0xce
 958 0460 05       		.uleb128 0x5
ARM GAS  /tmp/ccBaX2pP.s 			page 31


 959 0461 93000000 		.4byte	.LASF73
 960 0465 04       		.byte	0x4
 961 0466 08       		.byte	0x8
 962 0467 89       		.byte	0x89
 963 0468 78040000 		.4byte	0x478
 964 046c 07       		.uleb128 0x7
 965 046d 737000   		.ascii	"sp\000"
 966 0470 08       		.byte	0x8
 967 0471 8A       		.byte	0x8a
 968 0472 EA040000 		.4byte	0x4ea
 969 0476 00       		.byte	0
 970 0477 00       		.byte	0
 971 0478 05       		.uleb128 0x5
 972 0479 A0030000 		.4byte	.LASF74
 973 047d 24       		.byte	0x24
 974 047e 09       		.byte	0x9
 975 047f C3       		.byte	0xc3
 976 0480 EA040000 		.4byte	0x4ea
 977 0484 07       		.uleb128 0x7
 978 0485 723800   		.ascii	"r8\000"
 979 0488 09       		.byte	0x9
 980 0489 C4       		.byte	0xc4
 981 048a 4A040000 		.4byte	0x44a
 982 048e 00       		.byte	0
 983 048f 07       		.uleb128 0x7
 984 0490 723900   		.ascii	"r9\000"
 985 0493 09       		.byte	0x9
 986 0494 C5       		.byte	0xc5
 987 0495 4A040000 		.4byte	0x44a
 988 0499 04       		.byte	0x4
 989 049a 07       		.uleb128 0x7
 990 049b 72313000 		.ascii	"r10\000"
 991 049f 09       		.byte	0x9
 992 04a0 C6       		.byte	0xc6
 993 04a1 4A040000 		.4byte	0x44a
 994 04a5 08       		.byte	0x8
 995 04a6 07       		.uleb128 0x7
 996 04a7 72313100 		.ascii	"r11\000"
 997 04ab 09       		.byte	0x9
 998 04ac C7       		.byte	0xc7
 999 04ad 4A040000 		.4byte	0x44a
 1000 04b1 0C       		.byte	0xc
 1001 04b2 07       		.uleb128 0x7
 1002 04b3 723400   		.ascii	"r4\000"
 1003 04b6 09       		.byte	0x9
 1004 04b7 C8       		.byte	0xc8
 1005 04b8 4A040000 		.4byte	0x44a
 1006 04bc 10       		.byte	0x10
 1007 04bd 07       		.uleb128 0x7
 1008 04be 723500   		.ascii	"r5\000"
 1009 04c1 09       		.byte	0x9
 1010 04c2 C9       		.byte	0xc9
 1011 04c3 4A040000 		.4byte	0x44a
 1012 04c7 14       		.byte	0x14
 1013 04c8 07       		.uleb128 0x7
 1014 04c9 723600   		.ascii	"r6\000"
 1015 04cc 09       		.byte	0x9
ARM GAS  /tmp/ccBaX2pP.s 			page 32


 1016 04cd CA       		.byte	0xca
 1017 04ce 4A040000 		.4byte	0x44a
 1018 04d2 18       		.byte	0x18
 1019 04d3 07       		.uleb128 0x7
 1020 04d4 723700   		.ascii	"r7\000"
 1021 04d7 09       		.byte	0x9
 1022 04d8 CB       		.byte	0xcb
 1023 04d9 4A040000 		.4byte	0x44a
 1024 04dd 1C       		.byte	0x1c
 1025 04de 07       		.uleb128 0x7
 1026 04df 6C7200   		.ascii	"lr\000"
 1027 04e2 09       		.byte	0x9
 1028 04e3 CC       		.byte	0xcc
 1029 04e4 4A040000 		.4byte	0x44a
 1030 04e8 20       		.byte	0x20
 1031 04e9 00       		.byte	0
 1032 04ea 0A       		.uleb128 0xa
 1033 04eb 04       		.byte	0x4
 1034 04ec 78040000 		.4byte	0x478
 1035 04f0 12       		.uleb128 0x12
 1036 04f1 60       		.byte	0x60
 1037 04f2 0A       		.byte	0xa
 1038 04f3 A101     		.2byte	0x1a1
 1039 04f5 FC050000 		.4byte	0x5fc
 1040 04f9 08       		.uleb128 0x8
 1041 04fa 43523100 		.ascii	"CR1\000"
 1042 04fe 0A       		.byte	0xa
 1043 04ff A201     		.2byte	0x1a2
 1044 0501 25040000 		.4byte	0x425
 1045 0505 00       		.byte	0
 1046 0506 08       		.uleb128 0x8
 1047 0507 43523200 		.ascii	"CR2\000"
 1048 050b 0A       		.byte	0xa
 1049 050c A301     		.2byte	0x1a3
 1050 050e 25040000 		.4byte	0x425
 1051 0512 04       		.byte	0x4
 1052 0513 09       		.uleb128 0x9
 1053 0514 18030000 		.4byte	.LASF75
 1054 0518 0A       		.byte	0xa
 1055 0519 A401     		.2byte	0x1a4
 1056 051b 25040000 		.4byte	0x425
 1057 051f 08       		.byte	0x8
 1058 0520 09       		.uleb128 0x9
 1059 0521 B8020000 		.4byte	.LASF76
 1060 0525 0A       		.byte	0xa
 1061 0526 A501     		.2byte	0x1a5
 1062 0528 25040000 		.4byte	0x425
 1063 052c 0C       		.byte	0xc
 1064 052d 08       		.uleb128 0x8
 1065 052e 535200   		.ascii	"SR\000"
 1066 0531 0A       		.byte	0xa
 1067 0532 A601     		.2byte	0x1a6
 1068 0534 25040000 		.4byte	0x425
 1069 0538 10       		.byte	0x10
 1070 0539 08       		.uleb128 0x8
 1071 053a 45475200 		.ascii	"EGR\000"
 1072 053e 0A       		.byte	0xa
ARM GAS  /tmp/ccBaX2pP.s 			page 33


 1073 053f A701     		.2byte	0x1a7
 1074 0541 25040000 		.4byte	0x425
 1075 0545 14       		.byte	0x14
 1076 0546 09       		.uleb128 0x9
 1077 0547 F1010000 		.4byte	.LASF77
 1078 054b 0A       		.byte	0xa
 1079 054c A801     		.2byte	0x1a8
 1080 054e 25040000 		.4byte	0x425
 1081 0552 18       		.byte	0x18
 1082 0553 09       		.uleb128 0x9
 1083 0554 F7010000 		.4byte	.LASF78
 1084 0558 0A       		.byte	0xa
 1085 0559 A901     		.2byte	0x1a9
 1086 055b 25040000 		.4byte	0x425
 1087 055f 1C       		.byte	0x1c
 1088 0560 09       		.uleb128 0x9
 1089 0561 C2020000 		.4byte	.LASF79
 1090 0565 0A       		.byte	0xa
 1091 0566 AA01     		.2byte	0x1aa
 1092 0568 25040000 		.4byte	0x425
 1093 056c 20       		.byte	0x20
 1094 056d 08       		.uleb128 0x8
 1095 056e 434E5400 		.ascii	"CNT\000"
 1096 0572 0A       		.byte	0xa
 1097 0573 AB01     		.2byte	0x1ab
 1098 0575 25040000 		.4byte	0x425
 1099 0579 24       		.byte	0x24
 1100 057a 08       		.uleb128 0x8
 1101 057b 50534300 		.ascii	"PSC\000"
 1102 057f 0A       		.byte	0xa
 1103 0580 AC01     		.2byte	0x1ac
 1104 0582 25040000 		.4byte	0x425
 1105 0586 28       		.byte	0x28
 1106 0587 08       		.uleb128 0x8
 1107 0588 41525200 		.ascii	"ARR\000"
 1108 058c 0A       		.byte	0xa
 1109 058d AD01     		.2byte	0x1ad
 1110 058f 25040000 		.4byte	0x425
 1111 0593 2C       		.byte	0x2c
 1112 0594 08       		.uleb128 0x8
 1113 0595 52435200 		.ascii	"RCR\000"
 1114 0599 0A       		.byte	0xa
 1115 059a AE01     		.2byte	0x1ae
 1116 059c 25040000 		.4byte	0x425
 1117 05a0 30       		.byte	0x30
 1118 05a1 08       		.uleb128 0x8
 1119 05a2 43435200 		.ascii	"CCR\000"
 1120 05a6 0A       		.byte	0xa
 1121 05a7 AF01     		.2byte	0x1af
 1122 05a9 FC050000 		.4byte	0x5fc
 1123 05ad 34       		.byte	0x34
 1124 05ae 09       		.uleb128 0x9
 1125 05af B9010000 		.4byte	.LASF80
 1126 05b3 0A       		.byte	0xa
 1127 05b4 B001     		.2byte	0x1b0
 1128 05b6 25040000 		.4byte	0x425
 1129 05ba 44       		.byte	0x44
ARM GAS  /tmp/ccBaX2pP.s 			page 34


 1130 05bb 08       		.uleb128 0x8
 1131 05bc 44435200 		.ascii	"DCR\000"
 1132 05c0 0A       		.byte	0xa
 1133 05c1 B101     		.2byte	0x1b1
 1134 05c3 25040000 		.4byte	0x425
 1135 05c7 48       		.byte	0x48
 1136 05c8 09       		.uleb128 0x9
 1137 05c9 D0000000 		.4byte	.LASF81
 1138 05cd 0A       		.byte	0xa
 1139 05ce B201     		.2byte	0x1b2
 1140 05d0 25040000 		.4byte	0x425
 1141 05d4 4C       		.byte	0x4c
 1142 05d5 08       		.uleb128 0x8
 1143 05d6 4F5200   		.ascii	"OR\000"
 1144 05d9 0A       		.byte	0xa
 1145 05da B301     		.2byte	0x1b3
 1146 05dc 25040000 		.4byte	0x425
 1147 05e0 50       		.byte	0x50
 1148 05e1 09       		.uleb128 0x9
 1149 05e2 FD010000 		.4byte	.LASF82
 1150 05e6 0A       		.byte	0xa
 1151 05e7 B401     		.2byte	0x1b4
 1152 05e9 25040000 		.4byte	0x425
 1153 05ed 54       		.byte	0x54
 1154 05ee 09       		.uleb128 0x9
 1155 05ef 88030000 		.4byte	.LASF83
 1156 05f3 0A       		.byte	0xa
 1157 05f4 B501     		.2byte	0x1b5
 1158 05f6 01060000 		.4byte	0x601
 1159 05fa 58       		.byte	0x58
 1160 05fb 00       		.byte	0
 1161 05fc 0F       		.uleb128 0xf
 1162 05fd 3A040000 		.4byte	0x43a
 1163 0601 0F       		.uleb128 0xf
 1164 0602 2A040000 		.4byte	0x42a
 1165 0606 13       		.uleb128 0x13
 1166 0607 92020000 		.4byte	.LASF84
 1167 060b 0A       		.byte	0xa
 1168 060c B601     		.2byte	0x1b6
 1169 060e F0040000 		.4byte	0x4f0
 1170 0612 14       		.uleb128 0x14
 1171 0613 04       		.byte	0x4
 1172 0614 07       		.byte	0x7
 1173 0615 D2       		.byte	0xd2
 1174 0616 75060000 		.4byte	0x675
 1175 061a 15       		.uleb128 0x15
 1176 061b 8B020000 		.4byte	.LASF85
 1177 061f 07       		.byte	0x7
 1178 0620 D9       		.byte	0xd9
 1179 0621 05010000 		.4byte	0x105
 1180 0625 15       		.uleb128 0x15
 1181 0626 5B050000 		.4byte	.LASF86
 1182 062a 07       		.byte	0x7
 1183 062b E0       		.byte	0xe0
 1184 062c 05010000 		.4byte	0x105
 1185 0630 15       		.uleb128 0x15
 1186 0631 85000000 		.4byte	.LASF87
ARM GAS  /tmp/ccBaX2pP.s 			page 35


 1187 0635 07       		.byte	0x7
 1188 0636 E7       		.byte	0xe7
 1189 0637 02030000 		.4byte	0x302
 1190 063b 15       		.uleb128 0x15
 1191 063c D0040000 		.4byte	.LASF88
 1192 0640 07       		.byte	0x7
 1193 0641 EE       		.byte	0xee
 1194 0642 75060000 		.4byte	0x675
 1195 0646 15       		.uleb128 0x15
 1196 0647 A5010000 		.4byte	.LASF89
 1197 064b 07       		.byte	0x7
 1198 064c F3       		.byte	0xf3
 1199 064d 05010000 		.4byte	0x105
 1200 0651 15       		.uleb128 0x15
 1201 0652 C9040000 		.4byte	.LASF90
 1202 0656 07       		.byte	0x7
 1203 0657 FC       		.byte	0xfc
 1204 0658 A0060000 		.4byte	0x6a0
 1205 065c 16       		.uleb128 0x16
 1206 065d 10000000 		.4byte	.LASF91
 1207 0661 07       		.byte	0x7
 1208 0662 0501     		.2byte	0x105
 1209 0664 D7060000 		.4byte	0x6d7
 1210 0668 16       		.uleb128 0x16
 1211 0669 B3000000 		.4byte	.LASF92
 1212 066d 07       		.byte	0x7
 1213 066e 0D01     		.2byte	0x10d
 1214 0670 10010000 		.4byte	0x110
 1215 0674 00       		.byte	0
 1216 0675 0A       		.uleb128 0xa
 1217 0676 04       		.byte	0x4
 1218 0677 1A020000 		.4byte	0x21a
 1219 067b 05       		.uleb128 0x5
 1220 067c CB010000 		.4byte	.LASF93
 1221 0680 0C       		.byte	0xc
 1222 0681 0B       		.byte	0xb
 1223 0682 34       		.byte	0x34
 1224 0683 A0060000 		.4byte	0x6a0
 1225 0687 06       		.uleb128 0x6
 1226 0688 37040000 		.4byte	.LASF28
 1227 068c 0B       		.byte	0xb
 1228 068d 35       		.byte	0x35
 1229 068e 4F020000 		.4byte	0x24f
 1230 0692 00       		.byte	0
 1231 0693 07       		.uleb128 0x7
 1232 0694 636E7400 		.ascii	"cnt\000"
 1233 0698 0B       		.byte	0xb
 1234 0699 37       		.byte	0x37
 1235 069a 1B010000 		.4byte	0x11b
 1236 069e 08       		.byte	0x8
 1237 069f 00       		.byte	0
 1238 06a0 0A       		.uleb128 0xa
 1239 06a1 04       		.byte	0x4
 1240 06a2 7B060000 		.4byte	0x67b
 1241 06a6 05       		.uleb128 0x5
 1242 06a7 A4020000 		.4byte	.LASF94
 1243 06ab 10       		.byte	0x10
ARM GAS  /tmp/ccBaX2pP.s 			page 36


 1244 06ac 0C       		.byte	0xc
 1245 06ad 39       		.byte	0x39
 1246 06ae D7060000 		.4byte	0x6d7
 1247 06b2 06       		.uleb128 0x6
 1248 06b3 37040000 		.4byte	.LASF28
 1249 06b7 0C       		.byte	0xc
 1250 06b8 3A       		.byte	0x3a
 1251 06b9 4F020000 		.4byte	0x24f
 1252 06bd 00       		.byte	0
 1253 06be 06       		.uleb128 0x6
 1254 06bf 4D020000 		.4byte	.LASF95
 1255 06c3 0C       		.byte	0xc
 1256 06c4 3C       		.byte	0x3c
 1257 06c5 25020000 		.4byte	0x225
 1258 06c9 08       		.byte	0x8
 1259 06ca 06       		.uleb128 0x6
 1260 06cb 62000000 		.4byte	.LASF47
 1261 06cf 0C       		.byte	0xc
 1262 06d0 3E       		.byte	0x3e
 1263 06d1 0B070000 		.4byte	0x70b
 1264 06d5 0C       		.byte	0xc
 1265 06d6 00       		.byte	0
 1266 06d7 0A       		.uleb128 0xa
 1267 06d8 04       		.byte	0x4
 1268 06d9 A6060000 		.4byte	0x6a6
 1269 06dd 0A       		.uleb128 0xa
 1270 06de 04       		.byte	0x4
 1271 06df E3060000 		.4byte	0x6e3
 1272 06e3 17       		.uleb128 0x17
 1273 06e4 E8060000 		.4byte	0x6e8
 1274 06e8 03       		.uleb128 0x3
 1275 06e9 01       		.byte	0x1
 1276 06ea 08       		.byte	0x8
 1277 06eb C7020000 		.4byte	.LASF96
 1278 06ef 0A       		.uleb128 0xa
 1279 06f0 04       		.byte	0x4
 1280 06f1 55040000 		.4byte	0x455
 1281 06f5 0A       		.uleb128 0xa
 1282 06f6 04       		.byte	0x4
 1283 06f7 04030000 		.4byte	0x304
 1284 06fb 0F       		.uleb128 0xf
 1285 06fc DD060000 		.4byte	0x6dd
 1286 0700 04       		.uleb128 0x4
 1287 0701 53040000 		.4byte	.LASF97
 1288 0705 0C       		.byte	0xc
 1289 0706 34       		.byte	0x34
 1290 0707 A6060000 		.4byte	0x6a6
 1291 070b 0A       		.uleb128 0xa
 1292 070c 04       		.byte	0x4
 1293 070d 00070000 		.4byte	0x700
 1294 0711 03       		.uleb128 0x3
 1295 0712 01       		.byte	0x1
 1296 0713 02       		.byte	0x2
 1297 0714 9E020000 		.4byte	.LASF98
 1298 0718 18       		.uleb128 0x18
 1299 0719 20000000 		.4byte	.LASF99
 1300 071d 02       		.byte	0x2
ARM GAS  /tmp/ccBaX2pP.s 			page 37


 1301 071e 99       		.byte	0x99
 1302 071f 03       		.byte	0x3
 1303 0720 30070000 		.4byte	0x730
 1304 0724 19       		.uleb128 0x19
 1305 0725 48020000 		.4byte	.LASF101
 1306 0729 02       		.byte	0x2
 1307 072a 99       		.byte	0x99
 1308 072b 26010000 		.4byte	0x126
 1309 072f 00       		.byte	0
 1310 0730 1A       		.uleb128 0x1a
 1311 0731 AC030000 		.4byte	.LASF113
 1312 0735 02       		.byte	0x2
 1313 0736 A5       		.byte	0xa5
 1314 0737 03       		.byte	0x3
 1315 0738 18       		.uleb128 0x18
 1316 0739 98040000 		.4byte	.LASF100
 1317 073d 02       		.byte	0x2
 1318 073e B1       		.byte	0xb1
 1319 073f 03       		.byte	0x3
 1320 0740 50070000 		.4byte	0x750
 1321 0744 19       		.uleb128 0x19
 1322 0745 48020000 		.4byte	.LASF101
 1323 0749 02       		.byte	0x2
 1324 074a B1       		.byte	0xb1
 1325 074b 26010000 		.4byte	0x126
 1326 074f 00       		.byte	0
 1327 0750 1B       		.uleb128 0x1b
 1328 0751 E6020000 		.4byte	.LASF114
 1329 0755 02       		.byte	0x2
 1330 0756 BD       		.byte	0xbd
 1331 0757 26010000 		.4byte	0x126
 1332 075b 03       		.byte	0x3
 1333 075c 1C       		.uleb128 0x1c
 1334 075d 00030000 		.4byte	.LASF102
 1335 0761 01       		.byte	0x1
 1336 0762 3C       		.byte	0x3c
 1337 0763 00000000 		.4byte	.LFB179
 1338 0767 08000000 		.4byte	.LFE179-.LFB179
 1339 076b 01       		.uleb128 0x1
 1340 076c 9C       		.byte	0x9c
 1341 076d 7B070000 		.4byte	0x77b
 1342 0771 1D       		.uleb128 0x1d
 1343 0772 06000000 		.4byte	.LVL0
 1344 0776 92080000 		.4byte	0x892
 1345 077a 00       		.byte	0
 1346 077b 1C       		.uleb128 0x1c
 1347 077c BE010000 		.4byte	.LASF103
 1348 0780 01       		.byte	0x1
 1349 0781 4D       		.byte	0x4d
 1350 0782 00000000 		.4byte	.LFB180
 1351 0786 14000000 		.4byte	.LFE180-.LFB180
 1352 078a 01       		.uleb128 0x1
 1353 078b 9C       		.byte	0x9c
 1354 078c BE070000 		.4byte	0x7be
 1355 0790 1E       		.uleb128 0x1e
 1356 0791 77030000 		.4byte	.LASF106
 1357 0795 01       		.byte	0x1
ARM GAS  /tmp/ccBaX2pP.s 			page 38


 1358 0796 4D       		.byte	0x4d
 1359 0797 26010000 		.4byte	0x126
 1360 079b 01       		.uleb128 0x1
 1361 079c 50       		.byte	0x50
 1362 079d 1F       		.uleb128 0x1f
 1363 079e 45040000 		.4byte	.LASF107
 1364 07a2 CE070000 		.4byte	0x7ce
 1365 07a6 20       		.uleb128 0x20
 1366 07a7 18070000 		.4byte	0x718
 1367 07ab 00000000 		.4byte	.LBB10
 1368 07af 0C000000 		.4byte	.LBE10-.LBB10
 1369 07b3 01       		.byte	0x1
 1370 07b4 51       		.byte	0x51
 1371 07b5 21       		.uleb128 0x21
 1372 07b6 24070000 		.4byte	0x724
 1373 07ba 01       		.uleb128 0x1
 1374 07bb 50       		.byte	0x50
 1375 07bc 00       		.byte	0
 1376 07bd 00       		.byte	0
 1377 07be 10       		.uleb128 0x10
 1378 07bf E8060000 		.4byte	0x6e8
 1379 07c3 CE070000 		.4byte	0x7ce
 1380 07c7 11       		.uleb128 0x11
 1381 07c8 1E040000 		.4byte	0x41e
 1382 07cc 0C       		.byte	0xc
 1383 07cd 00       		.byte	0
 1384 07ce 17       		.uleb128 0x17
 1385 07cf BE070000 		.4byte	0x7be
 1386 07d3 1C       		.uleb128 0x1c
 1387 07d4 D4030000 		.4byte	.LASF104
 1388 07d8 01       		.byte	0x1
 1389 07d9 5B       		.byte	0x5b
 1390 07da 00000000 		.4byte	.LFB181
 1391 07de 0C000000 		.4byte	.LFE181-.LFB181
 1392 07e2 01       		.uleb128 0x1
 1393 07e3 9C       		.byte	0x9c
 1394 07e4 F8070000 		.4byte	0x7f8
 1395 07e8 22       		.uleb128 0x22
 1396 07e9 30070000 		.4byte	0x730
 1397 07ed 00000000 		.4byte	.LBB12
 1398 07f1 06000000 		.4byte	.LBE12-.LBB12
 1399 07f5 01       		.byte	0x1
 1400 07f6 5D       		.byte	0x5d
 1401 07f7 00       		.byte	0
 1402 07f8 1C       		.uleb128 0x1c
 1403 07f9 9A010000 		.4byte	.LASF105
 1404 07fd 01       		.byte	0x1
 1405 07fe 69       		.byte	0x69
 1406 07ff 00000000 		.4byte	.LFB182
 1407 0803 0C000000 		.4byte	.LFE182-.LFB182
 1408 0807 01       		.uleb128 0x1
 1409 0808 9C       		.byte	0x9c
 1410 0809 3B080000 		.4byte	0x83b
 1411 080d 1E       		.uleb128 0x1e
 1412 080e 77030000 		.4byte	.LASF106
 1413 0812 01       		.byte	0x1
 1414 0813 69       		.byte	0x69
ARM GAS  /tmp/ccBaX2pP.s 			page 39


 1415 0814 26010000 		.4byte	0x126
 1416 0818 01       		.uleb128 0x1
 1417 0819 50       		.byte	0x50
 1418 081a 1F       		.uleb128 0x1f
 1419 081b 64050000 		.4byte	.LASF108
 1420 081f 4B080000 		.4byte	0x84b
 1421 0823 23       		.uleb128 0x23
 1422 0824 38070000 		.4byte	0x738
 1423 0828 00000000 		.4byte	.LBB14
 1424 082c 00000000 		.4byte	.Ldebug_ranges0+0
 1425 0830 01       		.byte	0x1
 1426 0831 6D       		.byte	0x6d
 1427 0832 21       		.uleb128 0x21
 1428 0833 44070000 		.4byte	0x744
 1429 0837 01       		.uleb128 0x1
 1430 0838 50       		.byte	0x50
 1431 0839 00       		.byte	0
 1432 083a 00       		.byte	0
 1433 083b 10       		.uleb128 0x10
 1434 083c E8060000 		.4byte	0x6e8
 1435 0840 4B080000 		.4byte	0x84b
 1436 0844 11       		.uleb128 0x11
 1437 0845 1E040000 		.4byte	0x41e
 1438 0849 0A       		.byte	0xa
 1439 084a 00       		.byte	0
 1440 084b 17       		.uleb128 0x17
 1441 084c 3B080000 		.4byte	0x83b
 1442 0850 24       		.uleb128 0x24
 1443 0851 D6040000 		.4byte	.LASF115
 1444 0855 01       		.byte	0x1
 1445 0856 79       		.byte	0x79
 1446 0857 26010000 		.4byte	0x126
 1447 085b 00000000 		.4byte	.LFB183
 1448 085f 0C000000 		.4byte	.LFE183-.LFB183
 1449 0863 01       		.uleb128 0x1
 1450 0864 9C       		.byte	0x9c
 1451 0865 82080000 		.4byte	0x882
 1452 0869 1F       		.uleb128 0x1f
 1453 086a AF040000 		.4byte	.LASF109
 1454 086e 82080000 		.4byte	0x882
 1455 0872 25       		.uleb128 0x25
 1456 0873 50070000 		.4byte	0x750
 1457 0877 00000000 		.4byte	.LBB18
 1458 087b 18000000 		.4byte	.Ldebug_ranges0+0x18
 1459 087f 01       		.byte	0x1
 1460 0880 7D       		.byte	0x7d
 1461 0881 00       		.byte	0
 1462 0882 17       		.uleb128 0x17
 1463 0883 3B080000 		.4byte	0x83b
 1464 0887 26       		.uleb128 0x26
 1465 0888 636800   		.ascii	"ch\000"
 1466 088b 07       		.byte	0x7
 1467 088c D201     		.2byte	0x1d2
 1468 088e D1030000 		.4byte	0x3d1
 1469 0892 27       		.uleb128 0x27
 1470 0893 C8030000 		.4byte	.LASF116
 1471 0897 02       		.byte	0x2
ARM GAS  /tmp/ccBaX2pP.s 			page 40


 1472 0898 7B       		.byte	0x7b
 1473 0899 00       		.byte	0
 1474              		.section	.debug_abbrev,"",%progbits
 1475              	.Ldebug_abbrev0:
 1476 0000 01       		.uleb128 0x1
 1477 0001 11       		.uleb128 0x11
 1478 0002 01       		.byte	0x1
 1479 0003 25       		.uleb128 0x25
 1480 0004 0E       		.uleb128 0xe
 1481 0005 13       		.uleb128 0x13
 1482 0006 0B       		.uleb128 0xb
 1483 0007 03       		.uleb128 0x3
 1484 0008 0E       		.uleb128 0xe
 1485 0009 1B       		.uleb128 0x1b
 1486 000a 0E       		.uleb128 0xe
 1487 000b 55       		.uleb128 0x55
 1488 000c 17       		.uleb128 0x17
 1489 000d 11       		.uleb128 0x11
 1490 000e 01       		.uleb128 0x1
 1491 000f 10       		.uleb128 0x10
 1492 0010 17       		.uleb128 0x17
 1493 0011 00       		.byte	0
 1494 0012 00       		.byte	0
 1495 0013 02       		.uleb128 0x2
 1496 0014 24       		.uleb128 0x24
 1497 0015 00       		.byte	0
 1498 0016 0B       		.uleb128 0xb
 1499 0017 0B       		.uleb128 0xb
 1500 0018 3E       		.uleb128 0x3e
 1501 0019 0B       		.uleb128 0xb
 1502 001a 03       		.uleb128 0x3
 1503 001b 08       		.uleb128 0x8
 1504 001c 00       		.byte	0
 1505 001d 00       		.byte	0
 1506 001e 03       		.uleb128 0x3
 1507 001f 24       		.uleb128 0x24
 1508 0020 00       		.byte	0
 1509 0021 0B       		.uleb128 0xb
 1510 0022 0B       		.uleb128 0xb
 1511 0023 3E       		.uleb128 0x3e
 1512 0024 0B       		.uleb128 0xb
 1513 0025 03       		.uleb128 0x3
 1514 0026 0E       		.uleb128 0xe
 1515 0027 00       		.byte	0
 1516 0028 00       		.byte	0
 1517 0029 04       		.uleb128 0x4
 1518 002a 16       		.uleb128 0x16
 1519 002b 00       		.byte	0
 1520 002c 03       		.uleb128 0x3
 1521 002d 0E       		.uleb128 0xe
 1522 002e 3A       		.uleb128 0x3a
 1523 002f 0B       		.uleb128 0xb
 1524 0030 3B       		.uleb128 0x3b
 1525 0031 0B       		.uleb128 0xb
 1526 0032 49       		.uleb128 0x49
 1527 0033 13       		.uleb128 0x13
 1528 0034 00       		.byte	0
ARM GAS  /tmp/ccBaX2pP.s 			page 41


 1529 0035 00       		.byte	0
 1530 0036 05       		.uleb128 0x5
 1531 0037 13       		.uleb128 0x13
 1532 0038 01       		.byte	0x1
 1533 0039 03       		.uleb128 0x3
 1534 003a 0E       		.uleb128 0xe
 1535 003b 0B       		.uleb128 0xb
 1536 003c 0B       		.uleb128 0xb
 1537 003d 3A       		.uleb128 0x3a
 1538 003e 0B       		.uleb128 0xb
 1539 003f 3B       		.uleb128 0x3b
 1540 0040 0B       		.uleb128 0xb
 1541 0041 01       		.uleb128 0x1
 1542 0042 13       		.uleb128 0x13
 1543 0043 00       		.byte	0
 1544 0044 00       		.byte	0
 1545 0045 06       		.uleb128 0x6
 1546 0046 0D       		.uleb128 0xd
 1547 0047 00       		.byte	0
 1548 0048 03       		.uleb128 0x3
 1549 0049 0E       		.uleb128 0xe
 1550 004a 3A       		.uleb128 0x3a
 1551 004b 0B       		.uleb128 0xb
 1552 004c 3B       		.uleb128 0x3b
 1553 004d 0B       		.uleb128 0xb
 1554 004e 49       		.uleb128 0x49
 1555 004f 13       		.uleb128 0x13
 1556 0050 38       		.uleb128 0x38
 1557 0051 0B       		.uleb128 0xb
 1558 0052 00       		.byte	0
 1559 0053 00       		.byte	0
 1560 0054 07       		.uleb128 0x7
 1561 0055 0D       		.uleb128 0xd
 1562 0056 00       		.byte	0
 1563 0057 03       		.uleb128 0x3
 1564 0058 08       		.uleb128 0x8
 1565 0059 3A       		.uleb128 0x3a
 1566 005a 0B       		.uleb128 0xb
 1567 005b 3B       		.uleb128 0x3b
 1568 005c 0B       		.uleb128 0xb
 1569 005d 49       		.uleb128 0x49
 1570 005e 13       		.uleb128 0x13
 1571 005f 38       		.uleb128 0x38
 1572 0060 0B       		.uleb128 0xb
 1573 0061 00       		.byte	0
 1574 0062 00       		.byte	0
 1575 0063 08       		.uleb128 0x8
 1576 0064 0D       		.uleb128 0xd
 1577 0065 00       		.byte	0
 1578 0066 03       		.uleb128 0x3
 1579 0067 08       		.uleb128 0x8
 1580 0068 3A       		.uleb128 0x3a
 1581 0069 0B       		.uleb128 0xb
 1582 006a 3B       		.uleb128 0x3b
 1583 006b 05       		.uleb128 0x5
 1584 006c 49       		.uleb128 0x49
 1585 006d 13       		.uleb128 0x13
ARM GAS  /tmp/ccBaX2pP.s 			page 42


 1586 006e 38       		.uleb128 0x38
 1587 006f 0B       		.uleb128 0xb
 1588 0070 00       		.byte	0
 1589 0071 00       		.byte	0
 1590 0072 09       		.uleb128 0x9
 1591 0073 0D       		.uleb128 0xd
 1592 0074 00       		.byte	0
 1593 0075 03       		.uleb128 0x3
 1594 0076 0E       		.uleb128 0xe
 1595 0077 3A       		.uleb128 0x3a
 1596 0078 0B       		.uleb128 0xb
 1597 0079 3B       		.uleb128 0x3b
 1598 007a 05       		.uleb128 0x5
 1599 007b 49       		.uleb128 0x49
 1600 007c 13       		.uleb128 0x13
 1601 007d 38       		.uleb128 0x38
 1602 007e 0B       		.uleb128 0xb
 1603 007f 00       		.byte	0
 1604 0080 00       		.byte	0
 1605 0081 0A       		.uleb128 0xa
 1606 0082 0F       		.uleb128 0xf
 1607 0083 00       		.byte	0
 1608 0084 0B       		.uleb128 0xb
 1609 0085 0B       		.uleb128 0xb
 1610 0086 49       		.uleb128 0x49
 1611 0087 13       		.uleb128 0x13
 1612 0088 00       		.byte	0
 1613 0089 00       		.byte	0
 1614 008a 0B       		.uleb128 0xb
 1615 008b 13       		.uleb128 0x13
 1616 008c 01       		.byte	0x1
 1617 008d 03       		.uleb128 0x3
 1618 008e 0E       		.uleb128 0xe
 1619 008f 0B       		.uleb128 0xb
 1620 0090 0B       		.uleb128 0xb
 1621 0091 3A       		.uleb128 0x3a
 1622 0092 0B       		.uleb128 0xb
 1623 0093 3B       		.uleb128 0x3b
 1624 0094 05       		.uleb128 0x5
 1625 0095 01       		.uleb128 0x1
 1626 0096 13       		.uleb128 0x13
 1627 0097 00       		.byte	0
 1628 0098 00       		.byte	0
 1629 0099 0C       		.uleb128 0xc
 1630 009a 15       		.uleb128 0x15
 1631 009b 01       		.byte	0x1
 1632 009c 27       		.uleb128 0x27
 1633 009d 19       		.uleb128 0x19
 1634 009e 01       		.uleb128 0x1
 1635 009f 13       		.uleb128 0x13
 1636 00a0 00       		.byte	0
 1637 00a1 00       		.byte	0
 1638 00a2 0D       		.uleb128 0xd
 1639 00a3 05       		.uleb128 0x5
 1640 00a4 00       		.byte	0
 1641 00a5 49       		.uleb128 0x49
 1642 00a6 13       		.uleb128 0x13
ARM GAS  /tmp/ccBaX2pP.s 			page 43


 1643 00a7 00       		.byte	0
 1644 00a8 00       		.byte	0
 1645 00a9 0E       		.uleb128 0xe
 1646 00aa 0F       		.uleb128 0xf
 1647 00ab 00       		.byte	0
 1648 00ac 0B       		.uleb128 0xb
 1649 00ad 0B       		.uleb128 0xb
 1650 00ae 00       		.byte	0
 1651 00af 00       		.byte	0
 1652 00b0 0F       		.uleb128 0xf
 1653 00b1 35       		.uleb128 0x35
 1654 00b2 00       		.byte	0
 1655 00b3 49       		.uleb128 0x49
 1656 00b4 13       		.uleb128 0x13
 1657 00b5 00       		.byte	0
 1658 00b6 00       		.byte	0
 1659 00b7 10       		.uleb128 0x10
 1660 00b8 01       		.uleb128 0x1
 1661 00b9 01       		.byte	0x1
 1662 00ba 49       		.uleb128 0x49
 1663 00bb 13       		.uleb128 0x13
 1664 00bc 01       		.uleb128 0x1
 1665 00bd 13       		.uleb128 0x13
 1666 00be 00       		.byte	0
 1667 00bf 00       		.byte	0
 1668 00c0 11       		.uleb128 0x11
 1669 00c1 21       		.uleb128 0x21
 1670 00c2 00       		.byte	0
 1671 00c3 49       		.uleb128 0x49
 1672 00c4 13       		.uleb128 0x13
 1673 00c5 2F       		.uleb128 0x2f
 1674 00c6 0B       		.uleb128 0xb
 1675 00c7 00       		.byte	0
 1676 00c8 00       		.byte	0
 1677 00c9 12       		.uleb128 0x12
 1678 00ca 13       		.uleb128 0x13
 1679 00cb 01       		.byte	0x1
 1680 00cc 0B       		.uleb128 0xb
 1681 00cd 0B       		.uleb128 0xb
 1682 00ce 3A       		.uleb128 0x3a
 1683 00cf 0B       		.uleb128 0xb
 1684 00d0 3B       		.uleb128 0x3b
 1685 00d1 05       		.uleb128 0x5
 1686 00d2 01       		.uleb128 0x1
 1687 00d3 13       		.uleb128 0x13
 1688 00d4 00       		.byte	0
 1689 00d5 00       		.byte	0
 1690 00d6 13       		.uleb128 0x13
 1691 00d7 16       		.uleb128 0x16
 1692 00d8 00       		.byte	0
 1693 00d9 03       		.uleb128 0x3
 1694 00da 0E       		.uleb128 0xe
 1695 00db 3A       		.uleb128 0x3a
 1696 00dc 0B       		.uleb128 0xb
 1697 00dd 3B       		.uleb128 0x3b
 1698 00de 05       		.uleb128 0x5
 1699 00df 49       		.uleb128 0x49
ARM GAS  /tmp/ccBaX2pP.s 			page 44


 1700 00e0 13       		.uleb128 0x13
 1701 00e1 00       		.byte	0
 1702 00e2 00       		.byte	0
 1703 00e3 14       		.uleb128 0x14
 1704 00e4 17       		.uleb128 0x17
 1705 00e5 01       		.byte	0x1
 1706 00e6 0B       		.uleb128 0xb
 1707 00e7 0B       		.uleb128 0xb
 1708 00e8 3A       		.uleb128 0x3a
 1709 00e9 0B       		.uleb128 0xb
 1710 00ea 3B       		.uleb128 0x3b
 1711 00eb 0B       		.uleb128 0xb
 1712 00ec 01       		.uleb128 0x1
 1713 00ed 13       		.uleb128 0x13
 1714 00ee 00       		.byte	0
 1715 00ef 00       		.byte	0
 1716 00f0 15       		.uleb128 0x15
 1717 00f1 0D       		.uleb128 0xd
 1718 00f2 00       		.byte	0
 1719 00f3 03       		.uleb128 0x3
 1720 00f4 0E       		.uleb128 0xe
 1721 00f5 3A       		.uleb128 0x3a
 1722 00f6 0B       		.uleb128 0xb
 1723 00f7 3B       		.uleb128 0x3b
 1724 00f8 0B       		.uleb128 0xb
 1725 00f9 49       		.uleb128 0x49
 1726 00fa 13       		.uleb128 0x13
 1727 00fb 00       		.byte	0
 1728 00fc 00       		.byte	0
 1729 00fd 16       		.uleb128 0x16
 1730 00fe 0D       		.uleb128 0xd
 1731 00ff 00       		.byte	0
 1732 0100 03       		.uleb128 0x3
 1733 0101 0E       		.uleb128 0xe
 1734 0102 3A       		.uleb128 0x3a
 1735 0103 0B       		.uleb128 0xb
 1736 0104 3B       		.uleb128 0x3b
 1737 0105 05       		.uleb128 0x5
 1738 0106 49       		.uleb128 0x49
 1739 0107 13       		.uleb128 0x13
 1740 0108 00       		.byte	0
 1741 0109 00       		.byte	0
 1742 010a 17       		.uleb128 0x17
 1743 010b 26       		.uleb128 0x26
 1744 010c 00       		.byte	0
 1745 010d 49       		.uleb128 0x49
 1746 010e 13       		.uleb128 0x13
 1747 010f 00       		.byte	0
 1748 0110 00       		.byte	0
 1749 0111 18       		.uleb128 0x18
 1750 0112 2E       		.uleb128 0x2e
 1751 0113 01       		.byte	0x1
 1752 0114 03       		.uleb128 0x3
 1753 0115 0E       		.uleb128 0xe
 1754 0116 3A       		.uleb128 0x3a
 1755 0117 0B       		.uleb128 0xb
 1756 0118 3B       		.uleb128 0x3b
ARM GAS  /tmp/ccBaX2pP.s 			page 45


 1757 0119 0B       		.uleb128 0xb
 1758 011a 27       		.uleb128 0x27
 1759 011b 19       		.uleb128 0x19
 1760 011c 20       		.uleb128 0x20
 1761 011d 0B       		.uleb128 0xb
 1762 011e 01       		.uleb128 0x1
 1763 011f 13       		.uleb128 0x13
 1764 0120 00       		.byte	0
 1765 0121 00       		.byte	0
 1766 0122 19       		.uleb128 0x19
 1767 0123 05       		.uleb128 0x5
 1768 0124 00       		.byte	0
 1769 0125 03       		.uleb128 0x3
 1770 0126 0E       		.uleb128 0xe
 1771 0127 3A       		.uleb128 0x3a
 1772 0128 0B       		.uleb128 0xb
 1773 0129 3B       		.uleb128 0x3b
 1774 012a 0B       		.uleb128 0xb
 1775 012b 49       		.uleb128 0x49
 1776 012c 13       		.uleb128 0x13
 1777 012d 00       		.byte	0
 1778 012e 00       		.byte	0
 1779 012f 1A       		.uleb128 0x1a
 1780 0130 2E       		.uleb128 0x2e
 1781 0131 00       		.byte	0
 1782 0132 03       		.uleb128 0x3
 1783 0133 0E       		.uleb128 0xe
 1784 0134 3A       		.uleb128 0x3a
 1785 0135 0B       		.uleb128 0xb
 1786 0136 3B       		.uleb128 0x3b
 1787 0137 0B       		.uleb128 0xb
 1788 0138 27       		.uleb128 0x27
 1789 0139 19       		.uleb128 0x19
 1790 013a 20       		.uleb128 0x20
 1791 013b 0B       		.uleb128 0xb
 1792 013c 00       		.byte	0
 1793 013d 00       		.byte	0
 1794 013e 1B       		.uleb128 0x1b
 1795 013f 2E       		.uleb128 0x2e
 1796 0140 00       		.byte	0
 1797 0141 03       		.uleb128 0x3
 1798 0142 0E       		.uleb128 0xe
 1799 0143 3A       		.uleb128 0x3a
 1800 0144 0B       		.uleb128 0xb
 1801 0145 3B       		.uleb128 0x3b
 1802 0146 0B       		.uleb128 0xb
 1803 0147 27       		.uleb128 0x27
 1804 0148 19       		.uleb128 0x19
 1805 0149 49       		.uleb128 0x49
 1806 014a 13       		.uleb128 0x13
 1807 014b 20       		.uleb128 0x20
 1808 014c 0B       		.uleb128 0xb
 1809 014d 00       		.byte	0
 1810 014e 00       		.byte	0
 1811 014f 1C       		.uleb128 0x1c
 1812 0150 2E       		.uleb128 0x2e
 1813 0151 01       		.byte	0x1
ARM GAS  /tmp/ccBaX2pP.s 			page 46


 1814 0152 3F       		.uleb128 0x3f
 1815 0153 19       		.uleb128 0x19
 1816 0154 03       		.uleb128 0x3
 1817 0155 0E       		.uleb128 0xe
 1818 0156 3A       		.uleb128 0x3a
 1819 0157 0B       		.uleb128 0xb
 1820 0158 3B       		.uleb128 0x3b
 1821 0159 0B       		.uleb128 0xb
 1822 015a 27       		.uleb128 0x27
 1823 015b 19       		.uleb128 0x19
 1824 015c 11       		.uleb128 0x11
 1825 015d 01       		.uleb128 0x1
 1826 015e 12       		.uleb128 0x12
 1827 015f 06       		.uleb128 0x6
 1828 0160 40       		.uleb128 0x40
 1829 0161 18       		.uleb128 0x18
 1830 0162 9742     		.uleb128 0x2117
 1831 0164 19       		.uleb128 0x19
 1832 0165 01       		.uleb128 0x1
 1833 0166 13       		.uleb128 0x13
 1834 0167 00       		.byte	0
 1835 0168 00       		.byte	0
 1836 0169 1D       		.uleb128 0x1d
 1837 016a 898201   		.uleb128 0x4109
 1838 016d 00       		.byte	0
 1839 016e 11       		.uleb128 0x11
 1840 016f 01       		.uleb128 0x1
 1841 0170 31       		.uleb128 0x31
 1842 0171 13       		.uleb128 0x13
 1843 0172 00       		.byte	0
 1844 0173 00       		.byte	0
 1845 0174 1E       		.uleb128 0x1e
 1846 0175 05       		.uleb128 0x5
 1847 0176 00       		.byte	0
 1848 0177 03       		.uleb128 0x3
 1849 0178 0E       		.uleb128 0xe
 1850 0179 3A       		.uleb128 0x3a
 1851 017a 0B       		.uleb128 0xb
 1852 017b 3B       		.uleb128 0x3b
 1853 017c 0B       		.uleb128 0xb
 1854 017d 49       		.uleb128 0x49
 1855 017e 13       		.uleb128 0x13
 1856 017f 02       		.uleb128 0x2
 1857 0180 18       		.uleb128 0x18
 1858 0181 00       		.byte	0
 1859 0182 00       		.byte	0
 1860 0183 1F       		.uleb128 0x1f
 1861 0184 34       		.uleb128 0x34
 1862 0185 00       		.byte	0
 1863 0186 03       		.uleb128 0x3
 1864 0187 0E       		.uleb128 0xe
 1865 0188 49       		.uleb128 0x49
 1866 0189 13       		.uleb128 0x13
 1867 018a 34       		.uleb128 0x34
 1868 018b 19       		.uleb128 0x19
 1869 018c 00       		.byte	0
 1870 018d 00       		.byte	0
ARM GAS  /tmp/ccBaX2pP.s 			page 47


 1871 018e 20       		.uleb128 0x20
 1872 018f 1D       		.uleb128 0x1d
 1873 0190 01       		.byte	0x1
 1874 0191 31       		.uleb128 0x31
 1875 0192 13       		.uleb128 0x13
 1876 0193 11       		.uleb128 0x11
 1877 0194 01       		.uleb128 0x1
 1878 0195 12       		.uleb128 0x12
 1879 0196 06       		.uleb128 0x6
 1880 0197 58       		.uleb128 0x58
 1881 0198 0B       		.uleb128 0xb
 1882 0199 59       		.uleb128 0x59
 1883 019a 0B       		.uleb128 0xb
 1884 019b 00       		.byte	0
 1885 019c 00       		.byte	0
 1886 019d 21       		.uleb128 0x21
 1887 019e 05       		.uleb128 0x5
 1888 019f 00       		.byte	0
 1889 01a0 31       		.uleb128 0x31
 1890 01a1 13       		.uleb128 0x13
 1891 01a2 02       		.uleb128 0x2
 1892 01a3 18       		.uleb128 0x18
 1893 01a4 00       		.byte	0
 1894 01a5 00       		.byte	0
 1895 01a6 22       		.uleb128 0x22
 1896 01a7 1D       		.uleb128 0x1d
 1897 01a8 00       		.byte	0
 1898 01a9 31       		.uleb128 0x31
 1899 01aa 13       		.uleb128 0x13
 1900 01ab 11       		.uleb128 0x11
 1901 01ac 01       		.uleb128 0x1
 1902 01ad 12       		.uleb128 0x12
 1903 01ae 06       		.uleb128 0x6
 1904 01af 58       		.uleb128 0x58
 1905 01b0 0B       		.uleb128 0xb
 1906 01b1 59       		.uleb128 0x59
 1907 01b2 0B       		.uleb128 0xb
 1908 01b3 00       		.byte	0
 1909 01b4 00       		.byte	0
 1910 01b5 23       		.uleb128 0x23
 1911 01b6 1D       		.uleb128 0x1d
 1912 01b7 01       		.byte	0x1
 1913 01b8 31       		.uleb128 0x31
 1914 01b9 13       		.uleb128 0x13
 1915 01ba 52       		.uleb128 0x52
 1916 01bb 01       		.uleb128 0x1
 1917 01bc 55       		.uleb128 0x55
 1918 01bd 17       		.uleb128 0x17
 1919 01be 58       		.uleb128 0x58
 1920 01bf 0B       		.uleb128 0xb
 1921 01c0 59       		.uleb128 0x59
 1922 01c1 0B       		.uleb128 0xb
 1923 01c2 00       		.byte	0
 1924 01c3 00       		.byte	0
 1925 01c4 24       		.uleb128 0x24
 1926 01c5 2E       		.uleb128 0x2e
 1927 01c6 01       		.byte	0x1
ARM GAS  /tmp/ccBaX2pP.s 			page 48


 1928 01c7 3F       		.uleb128 0x3f
 1929 01c8 19       		.uleb128 0x19
 1930 01c9 03       		.uleb128 0x3
 1931 01ca 0E       		.uleb128 0xe
 1932 01cb 3A       		.uleb128 0x3a
 1933 01cc 0B       		.uleb128 0xb
 1934 01cd 3B       		.uleb128 0x3b
 1935 01ce 0B       		.uleb128 0xb
 1936 01cf 27       		.uleb128 0x27
 1937 01d0 19       		.uleb128 0x19
 1938 01d1 49       		.uleb128 0x49
 1939 01d2 13       		.uleb128 0x13
 1940 01d3 11       		.uleb128 0x11
 1941 01d4 01       		.uleb128 0x1
 1942 01d5 12       		.uleb128 0x12
 1943 01d6 06       		.uleb128 0x6
 1944 01d7 40       		.uleb128 0x40
 1945 01d8 18       		.uleb128 0x18
 1946 01d9 9742     		.uleb128 0x2117
 1947 01db 19       		.uleb128 0x19
 1948 01dc 01       		.uleb128 0x1
 1949 01dd 13       		.uleb128 0x13
 1950 01de 00       		.byte	0
 1951 01df 00       		.byte	0
 1952 01e0 25       		.uleb128 0x25
 1953 01e1 1D       		.uleb128 0x1d
 1954 01e2 00       		.byte	0
 1955 01e3 31       		.uleb128 0x31
 1956 01e4 13       		.uleb128 0x13
 1957 01e5 52       		.uleb128 0x52
 1958 01e6 01       		.uleb128 0x1
 1959 01e7 55       		.uleb128 0x55
 1960 01e8 17       		.uleb128 0x17
 1961 01e9 58       		.uleb128 0x58
 1962 01ea 0B       		.uleb128 0xb
 1963 01eb 59       		.uleb128 0x59
 1964 01ec 0B       		.uleb128 0xb
 1965 01ed 00       		.byte	0
 1966 01ee 00       		.byte	0
 1967 01ef 26       		.uleb128 0x26
 1968 01f0 34       		.uleb128 0x34
 1969 01f1 00       		.byte	0
 1970 01f2 03       		.uleb128 0x3
 1971 01f3 08       		.uleb128 0x8
 1972 01f4 3A       		.uleb128 0x3a
 1973 01f5 0B       		.uleb128 0xb
 1974 01f6 3B       		.uleb128 0x3b
 1975 01f7 05       		.uleb128 0x5
 1976 01f8 49       		.uleb128 0x49
 1977 01f9 13       		.uleb128 0x13
 1978 01fa 3F       		.uleb128 0x3f
 1979 01fb 19       		.uleb128 0x19
 1980 01fc 3C       		.uleb128 0x3c
 1981 01fd 19       		.uleb128 0x19
 1982 01fe 00       		.byte	0
 1983 01ff 00       		.byte	0
 1984 0200 27       		.uleb128 0x27
ARM GAS  /tmp/ccBaX2pP.s 			page 49


 1985 0201 2E       		.uleb128 0x2e
 1986 0202 00       		.byte	0
 1987 0203 3F       		.uleb128 0x3f
 1988 0204 19       		.uleb128 0x19
 1989 0205 03       		.uleb128 0x3
 1990 0206 0E       		.uleb128 0xe
 1991 0207 3A       		.uleb128 0x3a
 1992 0208 0B       		.uleb128 0xb
 1993 0209 3B       		.uleb128 0x3b
 1994 020a 0B       		.uleb128 0xb
 1995 020b 27       		.uleb128 0x27
 1996 020c 19       		.uleb128 0x19
 1997 020d 3C       		.uleb128 0x3c
 1998 020e 19       		.uleb128 0x19
 1999 020f 00       		.byte	0
 2000 0210 00       		.byte	0
 2001 0211 00       		.byte	0
 2002              		.section	.debug_aranges,"",%progbits
 2003 0000 3C000000 		.4byte	0x3c
 2004 0004 0200     		.2byte	0x2
 2005 0006 00000000 		.4byte	.Ldebug_info0
 2006 000a 04       		.byte	0x4
 2007 000b 00       		.byte	0
 2008 000c 0000     		.2byte	0
 2009 000e 0000     		.2byte	0
 2010 0010 00000000 		.4byte	.LFB179
 2011 0014 08000000 		.4byte	.LFE179-.LFB179
 2012 0018 00000000 		.4byte	.LFB180
 2013 001c 14000000 		.4byte	.LFE180-.LFB180
 2014 0020 00000000 		.4byte	.LFB181
 2015 0024 0C000000 		.4byte	.LFE181-.LFB181
 2016 0028 00000000 		.4byte	.LFB182
 2017 002c 0C000000 		.4byte	.LFE182-.LFB182
 2018 0030 00000000 		.4byte	.LFB183
 2019 0034 0C000000 		.4byte	.LFE183-.LFB183
 2020 0038 00000000 		.4byte	0
 2021 003c 00000000 		.4byte	0
 2022              		.section	.debug_ranges,"",%progbits
 2023              	.Ldebug_ranges0:
 2024 0000 00000000 		.4byte	.LBB14
 2025 0004 02000000 		.4byte	.LBE14
 2026 0008 02000000 		.4byte	.LBB17
 2027 000c 04000000 		.4byte	.LBE17
 2028 0010 00000000 		.4byte	0
 2029 0014 00000000 		.4byte	0
 2030 0018 00000000 		.4byte	.LBB18
 2031 001c 02000000 		.4byte	.LBE18
 2032 0020 02000000 		.4byte	.LBB21
 2033 0024 04000000 		.4byte	.LBE21
 2034 0028 00000000 		.4byte	0
 2035 002c 00000000 		.4byte	0
 2036 0030 00000000 		.4byte	.LFB179
 2037 0034 08000000 		.4byte	.LFE179
 2038 0038 00000000 		.4byte	.LFB180
 2039 003c 14000000 		.4byte	.LFE180
 2040 0040 00000000 		.4byte	.LFB181
 2041 0044 0C000000 		.4byte	.LFE181
ARM GAS  /tmp/ccBaX2pP.s 			page 50


 2042 0048 00000000 		.4byte	.LFB182
 2043 004c 0C000000 		.4byte	.LFE182
 2044 0050 00000000 		.4byte	.LFB183
 2045 0054 0C000000 		.4byte	.LFE183
 2046 0058 00000000 		.4byte	0
 2047 005c 00000000 		.4byte	0
 2048              		.section	.debug_line,"",%progbits
 2049              	.Ldebug_line0:
 2050 0000 2C020000 		.section	.debug_str,"MS",%progbits,1
 2050      02008801 
 2050      00000201 
 2050      FB0E0D00 
 2050      01010101 
 2051              	.LASF46:
 2052 0000 63685F74 		.ascii	"ch_threads_list\000"
 2052      68726561 
 2052      64735F6C 
 2052      69737400 
 2053              	.LASF91:
 2054 0010 77746D74 		.ascii	"wtmtxp\000"
 2054      787000
 2055              	.LASF71:
 2056 0017 72656761 		.ascii	"regarm_t\000"
 2056      726D5F74 
 2056      00
 2057              	.LASF99:
 2058 0020 73745F6C 		.ascii	"st_lld_start_alarm\000"
 2058      6C645F73 
 2058      74617274 
 2058      5F616C61 
 2058      726D00
 2059              	.LASF35:
 2060 0033 666C6167 		.ascii	"flags\000"
 2060      7300
 2061              	.LASF26:
 2062 0039 73797374 		.ascii	"systime_t\000"
 2062      696D655F 
 2062      7400
 2063              	.LASF41:
 2064 0043 7265616C 		.ascii	"realprio\000"
 2064      7072696F 
 2064      00
 2065              	.LASF39:
 2066 004c 6570656E 		.ascii	"epending\000"
 2066      64696E67 
 2066      00
 2067              	.LASF0:
 2068 0055 756E7369 		.ascii	"unsigned int\000"
 2068      676E6564 
 2068      20696E74 
 2068      00
 2069              	.LASF47:
 2070 0062 6E657874 		.ascii	"next\000"
 2070      00
 2071              	.LASF44:
 2072 0067 74687265 		.ascii	"threads_list_t\000"
 2072      6164735F 
ARM GAS  /tmp/ccBaX2pP.s 			page 51


 2072      6C697374 
 2072      5F7400
 2073              	.LASF7:
 2074 0076 5F5F696E 		.ascii	"__int32_t\000"
 2074      7433325F 
 2074      7400
 2075              	.LASF36:
 2076 0080 72656673 		.ascii	"refs\000"
 2076      00
 2077              	.LASF87:
 2078 0085 77746F62 		.ascii	"wtobjp\000"
 2078      6A7000
 2079              	.LASF68:
 2080 008c 76746C69 		.ascii	"vtlist\000"
 2080      737400
 2081              	.LASF73:
 2082 0093 706F7274 		.ascii	"port_context\000"
 2082      5F636F6E 
 2082      74657874 
 2082      00
 2083              	.LASF52:
 2084 00a0 63685F72 		.ascii	"ch_ready_list\000"
 2084      65616479 
 2084      5F6C6973 
 2084      7400
 2085              	.LASF58:
 2086 00ae 66756E63 		.ascii	"func\000"
 2086      00
 2087              	.LASF92:
 2088 00b3 65776D61 		.ascii	"ewmask\000"
 2088      736B00
 2089              	.LASF50:
 2090 00ba 70726576 		.ascii	"prev\000"
 2090      00
 2091              	.LASF49:
 2092 00bf 63685F74 		.ascii	"ch_threads_queue\000"
 2092      68726561 
 2092      64735F71 
 2092      75657565 
 2092      00
 2093              	.LASF81:
 2094 00d0 444D4152 		.ascii	"DMAR\000"
 2094      00
 2095              	.LASF54:
 2096 00d5 76746675 		.ascii	"vtfunc_t\000"
 2096      6E635F74 
 2096      00
 2097              	.LASF63:
 2098 00de 63685F73 		.ascii	"ch_system_debug\000"
 2098      79737465 
 2098      6D5F6465 
 2098      62756700 
 2099              	.LASF110:
 2100 00ee 474E5520 		.ascii	"GNU C 4.8.3 -mcpu=cortex-m0 -mno-thumb-interwork -m"
 2100      4320342E 
 2100      382E3320 
 2100      2D6D6370 
ARM GAS  /tmp/ccBaX2pP.s 			page 52


 2100      753D636F 
 2101 0121 7468756D 		.ascii	"thumb -ggdb -O2 -fomit-frame-pointer -falign-functi"
 2101      62202D67 
 2101      67646220 
 2101      2D4F3220 
 2101      2D666F6D 
 2102 0154 6F6E733D 		.ascii	"ons=16 -ffunction-sections -fdata-sections -fno-com"
 2102      3136202D 
 2102      6666756E 
 2102      6374696F 
 2102      6E2D7365 
 2103 0187 6D6F6E20 		.ascii	"mon -flto\000"
 2103      2D666C74 
 2103      6F00
 2104              	.LASF17:
 2105 0191 75696E74 		.ascii	"uint32_t\000"
 2105      33325F74 
 2105      00
 2106              	.LASF105:
 2107 019a 73745365 		.ascii	"stSetAlarm\000"
 2107      74416C61 
 2107      726D00
 2108              	.LASF89:
 2109 01a5 73656E74 		.ascii	"sentmsg\000"
 2109      6D736700 
 2110              	.LASF24:
 2111 01ad 6576656E 		.ascii	"eventmask_t\000"
 2111      746D6173 
 2111      6B5F7400 
 2112              	.LASF80:
 2113 01b9 42445452 		.ascii	"BDTR\000"
 2113      00
 2114              	.LASF103:
 2115 01be 73745374 		.ascii	"stStartAlarm\000"
 2115      61727441 
 2115      6C61726D 
 2115      00
 2116              	.LASF93:
 2117 01cb 63685F73 		.ascii	"ch_semaphore\000"
 2117      656D6170 
 2117      686F7265 
 2117      00
 2118              	.LASF22:
 2119 01d8 74707269 		.ascii	"tprio_t\000"
 2119      6F5F7400 
 2120              	.LASF56:
 2121 01e0 63685F76 		.ascii	"ch_virtual_timer\000"
 2121      69727475 
 2121      616C5F74 
 2121      696D6572 
 2121      00
 2122              	.LASF77:
 2123 01f1 43434D52 		.ascii	"CCMR1\000"
 2123      3100
 2124              	.LASF78:
 2125 01f7 43434D52 		.ascii	"CCMR2\000"
 2125      3200
ARM GAS  /tmp/ccBaX2pP.s 			page 53


 2126              	.LASF82:
 2127 01fd 43434D52 		.ascii	"CCMR3\000"
 2127      3300
 2128              	.LASF13:
 2129 0203 6C6F6E67 		.ascii	"long long unsigned int\000"
 2129      206C6F6E 
 2129      6720756E 
 2129      7369676E 
 2129      65642069 
 2130              	.LASF111:
 2131 021a 2E2E2F2E 		.ascii	"../../../os/hal/src/hal_st.c\000"
 2131      2E2F2E2E 
 2131      2F6F732F 
 2131      68616C2F 
 2131      7372632F 
 2132              	.LASF5:
 2133 0237 5F5F7569 		.ascii	"__uint16_t\000"
 2133      6E743136 
 2133      5F7400
 2134              	.LASF25:
 2135 0242 636E745F 		.ascii	"cnt_t\000"
 2135      7400
 2136              	.LASF101:
 2137 0248 74696D65 		.ascii	"time\000"
 2137      00
 2138              	.LASF95:
 2139 024d 6F776E65 		.ascii	"owner\000"
 2139      7200
 2140              	.LASF48:
 2141 0253 74687265 		.ascii	"threads_queue_t\000"
 2141      6164735F 
 2141      71756575 
 2141      655F7400 
 2142              	.LASF40:
 2143 0263 6D74786C 		.ascii	"mtxlist\000"
 2143      69737400 
 2144              	.LASF60:
 2145 026b 63685F76 		.ascii	"ch_virtual_timers_list\000"
 2145      69727475 
 2145      616C5F74 
 2145      696D6572 
 2145      735F6C69 
 2146              	.LASF27:
 2147 0282 74687265 		.ascii	"thread_t\000"
 2147      61645F74 
 2147      00
 2148              	.LASF85:
 2149 028b 7264796D 		.ascii	"rdymsg\000"
 2149      736700
 2150              	.LASF84:
 2151 0292 73746D33 		.ascii	"stm32_tim_t\000"
 2151      325F7469 
 2151      6D5F7400 
 2152              	.LASF98:
 2153 029e 5F426F6F 		.ascii	"_Bool\000"
 2153      6C00
 2154              	.LASF94:
ARM GAS  /tmp/ccBaX2pP.s 			page 54


 2155 02a4 63685F6D 		.ascii	"ch_mutex\000"
 2155      75746578 
 2155      00
 2156              	.LASF12:
 2157 02ad 5F5F7569 		.ascii	"__uint64_t\000"
 2157      6E743634 
 2157      5F7400
 2158              	.LASF76:
 2159 02b8 44494552 		.ascii	"DIER\000"
 2159      00
 2160              	.LASF29:
 2161 02bd 7072696F 		.ascii	"prio\000"
 2161      00
 2162              	.LASF79:
 2163 02c2 43434552 		.ascii	"CCER\000"
 2163      00
 2164              	.LASF96:
 2165 02c7 63686172 		.ascii	"char\000"
 2165      00
 2166              	.LASF43:
 2167 02cc 74687265 		.ascii	"thread_reference_t\000"
 2167      61645F72 
 2167      65666572 
 2167      656E6365 
 2167      5F7400
 2168              	.LASF33:
 2169 02df 77616261 		.ascii	"wabase\000"
 2169      736500
 2170              	.LASF114:
 2171 02e6 73745F6C 		.ascii	"st_lld_get_alarm\000"
 2171      6C645F67 
 2171      65745F61 
 2171      6C61726D 
 2171      00
 2172              	.LASF20:
 2173 02f7 74737461 		.ascii	"tstate_t\000"
 2173      74655F74 
 2173      00
 2174              	.LASF102:
 2175 0300 7374496E 		.ascii	"stInit\000"
 2175      697400
 2176              	.LASF14:
 2177 0307 75696E74 		.ascii	"uint8_t\000"
 2177      385F7400 
 2178              	.LASF38:
 2179 030f 6D736771 		.ascii	"msgqueue\000"
 2179      75657565 
 2179      00
 2180              	.LASF75:
 2181 0318 534D4352 		.ascii	"SMCR\000"
 2181      00
 2182              	.LASF45:
 2183 031d 63685F74 		.ascii	"ch_thread\000"
 2183      68726561 
 2183      6400
 2184              	.LASF62:
 2185 0327 73797374 		.ascii	"system_debug_t\000"
ARM GAS  /tmp/ccBaX2pP.s 			page 55


 2185      656D5F64 
 2185      65627567 
 2185      5F7400
 2186              	.LASF11:
 2187 0336 6C6F6E67 		.ascii	"long long int\000"
 2187      206C6F6E 
 2187      6720696E 
 2187      7400
 2188              	.LASF23:
 2189 0344 6D73675F 		.ascii	"msg_t\000"
 2189      7400
 2190              	.LASF55:
 2191 034a 76697274 		.ascii	"virtual_timer_t\000"
 2191      75616C5F 
 2191      74696D65 
 2191      725F7400 
 2192              	.LASF64:
 2193 035a 70616E69 		.ascii	"panic_msg\000"
 2193      635F6D73 
 2193      6700
 2194              	.LASF19:
 2195 0364 746D6F64 		.ascii	"tmode_t\000"
 2195      655F7400 
 2196              	.LASF69:
 2197 036c 6D61696E 		.ascii	"mainthread\000"
 2197      74687265 
 2197      616400
 2198              	.LASF106:
 2199 0377 61627374 		.ascii	"abstime\000"
 2199      696D6500 
 2200              	.LASF15:
 2201 037f 75696E74 		.ascii	"uint16_t\000"
 2201      31365F74 
 2201      00
 2202              	.LASF83:
 2203 0388 43435852 		.ascii	"CCXR\000"
 2203      00
 2204              	.LASF3:
 2205 038d 73686F72 		.ascii	"short int\000"
 2205      7420696E 
 2205      7400
 2206              	.LASF8:
 2207 0397 6C6F6E67 		.ascii	"long int\000"
 2207      20696E74 
 2207      00
 2208              	.LASF74:
 2209 03a0 706F7274 		.ascii	"port_intctx\000"
 2209      5F696E74 
 2209      63747800 
 2210              	.LASF113:
 2211 03ac 73745F6C 		.ascii	"st_lld_stop_alarm\000"
 2211      6C645F73 
 2211      746F705F 
 2211      616C6172 
 2211      6D00
 2212              	.LASF66:
 2213 03be 63685F73 		.ascii	"ch_system\000"
ARM GAS  /tmp/ccBaX2pP.s 			page 56


 2213      79737465 
 2213      6D00
 2214              	.LASF116:
 2215 03c8 73745F6C 		.ascii	"st_lld_init\000"
 2215      6C645F69 
 2215      6E697400 
 2216              	.LASF104:
 2217 03d4 73745374 		.ascii	"stStopAlarm\000"
 2217      6F70416C 
 2217      61726D00 
 2218              	.LASF61:
 2219 03e0 6C617374 		.ascii	"lasttime\000"
 2219      74696D65 
 2219      00
 2220              	.LASF18:
 2221 03e9 75696E74 		.ascii	"uint64_t\000"
 2221      36345F74 
 2221      00
 2222              	.LASF67:
 2223 03f2 726C6973 		.ascii	"rlist\000"
 2223      7400
 2224              	.LASF4:
 2225 03f8 5F5F7569 		.ascii	"__uint8_t\000"
 2225      6E74385F 
 2225      7400
 2226              	.LASF32:
 2227 0402 6E616D65 		.ascii	"name\000"
 2227      00
 2228              	.LASF70:
 2229 0407 73697A65 		.ascii	"sizetype\000"
 2229      74797065 
 2229      00
 2230              	.LASF21:
 2231 0410 74726566 		.ascii	"trefs_t\000"
 2231      735F7400 
 2232              	.LASF10:
 2233 0418 6C6F6E67 		.ascii	"long unsigned int\000"
 2233      20756E73 
 2233      69676E65 
 2233      6420696E 
 2233      7400
 2234              	.LASF51:
 2235 042a 72656164 		.ascii	"ready_list_t\000"
 2235      795F6C69 
 2235      73745F74 
 2235      00
 2236              	.LASF28:
 2237 0437 71756575 		.ascii	"queue\000"
 2237      6500
 2238              	.LASF16:
 2239 043d 696E7433 		.ascii	"int32_t\000"
 2239      325F7400 
 2240              	.LASF107:
 2241 0445 5F5F6675 		.ascii	"__func__.6148\000"
 2241      6E635F5F 
 2241      2E363134 
 2241      3800
ARM GAS  /tmp/ccBaX2pP.s 			page 57


 2242              	.LASF97:
 2243 0453 6D757465 		.ascii	"mutex_t\000"
 2243      785F7400 
 2244              	.LASF30:
 2245 045b 6E657765 		.ascii	"newer\000"
 2245      7200
 2246              	.LASF2:
 2247 0461 756E7369 		.ascii	"unsigned char\000"
 2247      676E6564 
 2247      20636861 
 2247      7200
 2248              	.LASF9:
 2249 046f 5F5F7569 		.ascii	"__uint32_t\000"
 2249      6E743332 
 2249      5F7400
 2250              	.LASF37:
 2251 047a 77616974 		.ascii	"waiting\000"
 2251      696E6700 
 2252              	.LASF59:
 2253 0482 76697274 		.ascii	"virtual_timers_list_t\000"
 2253      75616C5F 
 2253      74696D65 
 2253      72735F6C 
 2253      6973745F 
 2254              	.LASF100:
 2255 0498 73745F6C 		.ascii	"st_lld_set_alarm\000"
 2255      6C645F73 
 2255      65745F61 
 2255      6C61726D 
 2255      00
 2256              	.LASF34:
 2257 04a9 73746174 		.ascii	"state\000"
 2257      6500
 2258              	.LASF109:
 2259 04af 5F5F6675 		.ascii	"__func__.6159\000"
 2259      6E635F5F 
 2259      2E363135 
 2259      3900
 2260              	.LASF65:
 2261 04bd 63685F73 		.ascii	"ch_system_t\000"
 2261      79737465 
 2261      6D5F7400 
 2262              	.LASF90:
 2263 04c9 77747365 		.ascii	"wtsemp\000"
 2263      6D7000
 2264              	.LASF88:
 2265 04d0 77747472 		.ascii	"wttrp\000"
 2265      7000
 2266              	.LASF115:
 2267 04d6 73744765 		.ascii	"stGetAlarm\000"
 2267      74416C61 
 2267      726D00
 2268              	.LASF1:
 2269 04e1 7369676E 		.ascii	"signed char\000"
 2269      65642063 
 2269      68617200 
 2270              	.LASF57:
ARM GAS  /tmp/ccBaX2pP.s 			page 58


 2271 04ed 64656C74 		.ascii	"delta\000"
 2271      6100
 2272              	.LASF6:
 2273 04f3 73686F72 		.ascii	"short unsigned int\000"
 2273      7420756E 
 2273      7369676E 
 2273      65642069 
 2273      6E7400
 2274              	.LASF72:
 2275 0506 73746B61 		.ascii	"stkalign_t\000"
 2275      6C69676E 
 2275      5F7400
 2276              	.LASF53:
 2277 0511 63757272 		.ascii	"current\000"
 2277      656E7400 
 2278              	.LASF31:
 2279 0519 6F6C6465 		.ascii	"older\000"
 2279      7200
 2280              	.LASF112:
 2281 051f 2F686F6D 		.ascii	"/home/awygle/ChibiOS-RT/demos/STM32/RT-STM32F030R8-"
 2281      652F6177 
 2281      79676C65 
 2281      2F436869 
 2281      62694F53 
 2282 0552 4E55434C 		.ascii	"NUCLEO64\000"
 2282      454F3634 
 2282      00
 2283              	.LASF86:
 2284 055b 65786974 		.ascii	"exitcode\000"
 2284      636F6465 
 2284      00
 2285              	.LASF108:
 2286 0564 5F5F6675 		.ascii	"__func__.6155\000"
 2286      6E635F5F 
 2286      2E363135 
 2286      3500
 2287              	.LASF42:
 2288 0572 6D706F6F 		.ascii	"mpool\000"
 2288      6C00
 2289              		.comm	__gnu_lto_v1,1,1
 2290              		.ident	"GCC: (4.8.3-18ubuntu2+12) 4.8.3"
ARM GAS  /tmp/ccBaX2pP.s 			page 59


DEFINED SYMBOLS
                            *ABS*:0000000000000000 hal_st.c
     /tmp/ccBaX2pP.s:251    .text.stInit:0000000000000000 $t
     /tmp/ccBaX2pP.s:257    .text.stInit:0000000000000000 stInit
     /tmp/ccBaX2pP.s:276    .text.stStartAlarm:0000000000000000 $t
     /tmp/ccBaX2pP.s:282    .text.stStartAlarm:0000000000000000 stStartAlarm
     /tmp/ccBaX2pP.s:309    .text.stStartAlarm:0000000000000010 $d
     /tmp/ccBaX2pP.s:314    .text.stStopAlarm:0000000000000000 $t
     /tmp/ccBaX2pP.s:320    .text.stStopAlarm:0000000000000000 stStopAlarm
     /tmp/ccBaX2pP.s:338    .text.stStopAlarm:0000000000000008 $d
     /tmp/ccBaX2pP.s:343    .text.stSetAlarm:0000000000000000 $t
     /tmp/ccBaX2pP.s:349    .text.stSetAlarm:0000000000000000 stSetAlarm
     /tmp/ccBaX2pP.s:373    .text.stSetAlarm:0000000000000008 $d
     /tmp/ccBaX2pP.s:378    .text.stGetAlarm:0000000000000000 $t
     /tmp/ccBaX2pP.s:384    .text.stGetAlarm:0000000000000000 stGetAlarm
     /tmp/ccBaX2pP.s:409    .text.stGetAlarm:0000000000000008 $d
                            *COM*:0000000000000001 __gnu_lto_v1
                     .debug_frame:0000000000000010 $d
     /tmp/ccBaX2pP.s:313    .text.stStartAlarm:0000000000000014 $t
     /tmp/ccBaX2pP.s:342    .text.stStopAlarm:000000000000000c $t
     /tmp/ccBaX2pP.s:377    .text.stSetAlarm:000000000000000c $t
     /tmp/ccBaX2pP.s:413    .text.stGetAlarm:000000000000000c $t

UNDEFINED SYMBOLS
st_lld_init
