ARM GAS  /tmp/cc9IMWxg.s 			page 1


   1              		.cpu cortex-m0
   2              		.fpu softvfp
   3              		.eabi_attribute 20, 1
   4              		.eabi_attribute 21, 1
   5              		.eabi_attribute 23, 3
   6              		.eabi_attribute 24, 1
   7              		.eabi_attribute 25, 1
   8              		.eabi_attribute 26, 1
   9              		.eabi_attribute 30, 2
  10              		.eabi_attribute 34, 0
  11              		.eabi_attribute 18, 4
  12              		.code	16
  13              		.file	"hal_pal.c"
  14              		.text
  15              	.Ltext0:
  16              		.section	.gnu.lto_.jmpfuncs.a3ce3040a37c529a,"",%progbits
  17 0000 789C6362 		.ascii	"x\234cb`b\300\006D\24043\003##3\02333\204\315\300X\006"
  17      6062C006 
  17      44A03433 
  17      03232333 
  17      13333384 
  18 0018 A4010623 		.ascii	"\244\001\006#\000\243"
  18      00A3
  19              		.text
  20              		.section	.gnu.lto_.inline.a3ce3040a37c529a,"",%progbits
  21 0000 789C6362 		.ascii	"x\234cb`b\300\006\276Cif\006\006N\016Ff\006F0\023D:"
  21      6062C006 
  21      BE436966 
  21      06064E0E 
  21      46660646 
  22 0018 8049050E 		.ascii	"\200I\005\016\266\017z\014l\013\344\231\030\030_\260"
  22      B60F7A0C 
  22      6C0BE499 
  22      18185FB0 
  23 0028 B3404810 		.ascii	"\263@H\020\301\001fr\200\010\0010S\000d\014#\003\037"
  23      C1016672 
  23      80080130 
  23      5300640C 
  23      23031F
  24 003b 2F230BC4 		.ascii	"/#\013\304\024FF\210\010\320\020\210\201\334L\027\370"
  24      14464688 
  24      08D01088 
  24      81DC4C17 
  24      F8
  25 004c 318C028A 		.ascii	"1\214\002\212\241\030\302\262@^\002\304R`b`\336!\256"
  25      A118C2B2 
  25      405E02C4 
  25      52606260 
  25      DE21AE
  26 005f C000B4DE 		.ascii	"\300\000\264\336\002d\016\023\003\2670\212\373\240\206"
  26      02640E13 
  26      03B7308A 
  26      FBA086
  27 006e 7202E588 		.ascii	"r\002\345\210s\036\320&\011\220I,\274@}\023\374@\220"
  27      731ED026 
  27      0990492C 
  27      BC407D13 
ARM GAS  /tmp/cc9IMWxg.s 			page 2


  27      FC4090
  28 0081 01003C62 		.ascii	"\001\000<b\037\210"
  28      1F88
  29              		.text
  30              		.section	.gnu.lto_.pureconst.a3ce3040a37c529a,"",%progbits
  31 0000 789C6362 		.ascii	"x\234cb`b`g\200\000f\006)F)&I\000\001\312\000_"
  31      60626067 
  31      80006606 
  31      29462926 
  31      490001CA 
  32              		.text
  33              		.section	.gnu.lto_palReadBus.a3ce3040a37c529a,"",%progbits
  34 0000 789C6D90 		.ascii	"x\234m\220\275N\303@\020\204g\366|\261\235\202\236\006"
  34      BD4EC340 
  34      108467F6 
  34      7CB19D82 
  34      9E06
  35 0012 A52692FD 		.ascii	"\245&\222\3752A\002\032d\\\004K\211@\344\001b\342TT"
  35      3241021A 
  35      645C044B 
  35      8940E401 
  35      62E25454 
  36 0026 1115828A 		.ascii	"\021\025\202\212\206\202\"\264H4\210\202.\010Z*$Z\304"
  36      868222B4 
  36      48348882 
  36      2E085A2A 
  36      245AC4
  37 0039 2B843D1B 		.ascii	"+\204=\033\033\201r\272\233\275\237\375fW'\020\374\037"
  37      1B8172BA 
  37      9BBD9FFD 
  37      66572710 
  37      FC1F
  38 004b EBBA4E09 		.ascii	"\353\272N\011t4\322\2002{\006N\002!\335\006\304X8\336"
  38      7434D280 
  38      327B064E 
  38      0221DD06 
  38      C45838DE 
  39 005f 61997B2B 		.ascii	"a\231{+\017\357\313\345\374\354\351\372\223\347\322"
  39      0FEFCBE5 
  39      FCECE9FA 
  39      93E7D2
  40 006e 160E0983 		.ascii	"\026\016\011\203\214\360ThU\244\245b|w\014\234\204*"
  40      8CF05468 
  40      55A4A562 
  40      7C770C9C 
  40      842A
  41 0080 9E9216D3 		.ascii	"\236\222\026\323<\237u\206T\243\2644\353\251\272\012"
  41      3C9F7586 
  41      54A3B434 
  41      EBA9BA0A 
  42 0090 5B1417CD 		.ascii	"[\024\027\315\002\223\267\273\217\027&\274R\247>M\027"
  42      0293B7BB 
  42      8F1726BC 
  42      52A73E4D 
  42      17
  43 00a1 9B19ED25 		.ascii	"\233\031\355%.\230\261\325\247lk\364\3136\366Y7\277"
  43      2E98B1D5 
ARM GAS  /tmp/cc9IMWxg.s 			page 3


  43      A76C6BF4 
  43      CB36F659 
  43      37BF
  44 00b3 C0E36E0D 		.ascii	"\300\343n\015x]\334\344SM\012*&T\017\307\330\037\206"
  44      785DDCE4 
  44      534D0A2A 
  44      26540FC7 
  44      D81F86
  45 00c6 0D336918 		.ascii	"\0153i\030[\026i\257.\"\277\300\227\251\011M\262\356"
  45      5B1669AF 
  45      2E22BFC0 
  45      97A9094D 
  45      B2EE
  46 00d8 AA983757 		.ascii	"\252\2307W\276\326\326\207\277\316A\351\354\255v6\215"
  46      BED6D687 
  46      BFCE41E9 
  46      ECAD7636 
  46      8D
  47 00e9 73715FAC 		.ascii	"sq_\254\325HXZ\005\300+\232_\010\253\304\236v\257\237"
  47      D548585A 
  47      05C02B9A 
  47      5F08ABC4 
  47      9E76AF9F 
  48 00fd E43ADA88 		.ascii	"\344:\332\210\242\270\232\207\243\370 \031\304\243\343"
  48      A2B89A87 
  48      A3F82019 
  48      C4A3E3
  49 010c D4C5BDA3 		.ascii	"\324\305\275\243d\020\245\370\006}\023S\301"
  49      6410A5F8 
  49      067D1353 
  49      C1
  50              		.text
  51              		.section	.gnu.lto_palWriteBus.a3ce3040a37c529a,"",%progbits
  52 0000 789C6D51 		.ascii	"x\234mQ\261N\002A\020\235\331=\216\343\340\016\355\264"
  52      B14E0241 
  52      109DD93D 
  52      8EE3E00E 
  52      EDB4
  53 0012 31247692 		.ascii	"1$v\222\300\007\370\005\366\230\250\2159)\360\022\210"
  53      C007F805 
  53      F698A88D 
  53      3929F012 
  53      88
  54 0023 463E0050 		.ascii	"F>\000P\012Kj\251lM\324\306\206h\242\261\260\323\304"
  54      0A4B6AA9 
  54      6C4DD4C6 
  54      8668A2B1 
  54      B0D3C4
  55 0036 CE58F105 		.ascii	"\316X\361\005\332X\232\340\233=\366\210\204\315\335"
  55      DA589AE0 
  55      9B3DF688 
  55      84CDDD
  56 0045 9BD9B733 		.ascii	"\233\331\2673o\337\334)R4\277V\361n\202.!\262&V\203"
  56      6FDFDC29 
  56      5234BF56 
  56      F16E822E 
  56      21B22656 
ARM GAS  /tmp/cc9IMWxg.s 			page 4


  57 005a 37A29EA7 		.ascii	"7\242\236\247\230%!\246\216\342\316.\233\332[\3654\236"
  57      982521A6 
  57      8EE2CE2E 
  57      9BDA5BF5 
  57      349E
  58 006c 4C6E7E5E 		.ascii	"Ln~^\356~y\250\226\025\267\2304\305L\0162\316 cW +\340"
  58      EE7E79A8 
  58      9615B798 
  58      34C54C0E 
  58      32CE2063 
  59 0084 01544EC0 		.ascii	"\001TN\300\007\350\274p\005\201@\266\241dE\001\350f"
  59      07E8BC70 
  59      058140B6 
  59      A1644501 
  59      E866
  60 0096 A8DFED0E 		.ascii	"\250\337\355\016J-\206\217\272\271\252\006\224\373\267"
  60      4A2D868F 
  60      BAB9AA06 
  60      94FBB7
  61 00a5 4121EA57 		.ascii	"A!\352W:\375\374\370^\211\370\022\3274X\227i#fgH\027"
  61      3AFDFCF8 
  61      5E89F812 
  61      D7345897 
  61      69236667 
  62 00bb 1C73A6C1 		.ascii	"\034s\246\301j\007\3215\036\017\330N\206\236\007m;P"
  62      6A07D135 
  62      1E0FD84E 
  62      869E076D 
  62      3B50
  63 00cd E4186ACF 		.ascii	"\344\030j\3172\256\321\310.\326\340T\343\354>\325\310"
  63      32AED1C8 
  63      2ED6E054 
  63      E3EC3ED5 
  63      C8
  64 00de 1A19F7BF 		.ascii	"\032\031\367\277\214gd\274\3052j&s\236\312\344\320$"
  64      8C6764BC 
  64      C5326A26 
  64      739ECAE4 
  64      D024
  65 00f0 456A2931 		.ascii	"Ej)1\371\225\236\37084\305\327)\2257\327\372sN\012\230"
  65      F9959EF8 
  65      3834C5D7 
  65      299537D7 
  65      FA734E0A 
  66 0105 C63A99B5 		.ascii	"\306:\231\265\007\020\236k\017Mm`\330Q\312\026\215n"
  66      07109E6B 
  66      0F4D6D60 
  66      D851CA16 
  66      8D6E
  67 0117 28ECF356 		.ascii	"(\354\363VB\226\351\252\333\207\251\234M\374d\"\324"
  67      4296E9AA 
  67      DB87A99C 
  67      4DFC6422 
  67      D4
  68 0128 6931EB4C 		.ascii	"i1\353L'\322\323\230\354!E\364N\275\361\343z\"cW\015"
  68      27D2D398 
  68      EC2145F4 
ARM GAS  /tmp/cc9IMWxg.s 			page 5


  68      4EBDF1E3 
  68      7A226357 
  69 013d 5F10FF4D 		.ascii	"_\020\377M\346_\253T\252\311s\324\256\036F\315j\373"
  69      E65FAB54 
  69      AAC973D4 
  69      AE1E46CD 
  69      6AFB
  70 014f A42E71FF 		.ascii	"\244.q\3778jV\352\364\0076Ft8"
  70      386A56EA 
  70      F4073646 
  70      7438
  71              		.text
  72              		.section	.gnu.lto_palSetBusMode.a3ce3040a37c529a,"",%progbits
  73 0000 789C6D90 		.ascii	"x\234m\220\277J\003A\020\306\277o\366\376\231\312R\033"
  73      BF4A0341 
  73      10C6BF6F 
  73      F6FE99CA 
  73      521B
  74 0012 09A453B8 		.ascii	"\011\244S\270{\231\010j#\347\201\347A\202bJ\213\\\324"
  74      7B99086A 
  74      23E781E7 
  74      4182624A 
  74      8B5CD4
  75 0025 C232B582 		.ascii	"\3022\265\202\340\003hZK;+\025-S\345\001$\017\240E2"
  75      E003685A 
  75      4B3B2B15 
  75      2D53E501 
  75      240FA045 
  76 003a BBE729C8 		.ascii	"\273\347)\310-\2733\273\337\316ofv\005\202\377c]\327"
  76      2DBB33BB 
  76      DFCE6F66 
  76      760582FF 
  76      635DD7
  77 004d 2181B67A 		.ascii	"!\201\266z\032P\306\257\300(\022\322n@\014\205\303]"
  77      1A50C6AF 
  77      C02812D2 
  77      6E400C85 
  77      C35D
  78 005f BAD8893C 		.ascii	"\272\330\211<\315\026\213\207\217\347\311'o\245%\354"
  78      CD168B87 
  78      8FE7C927 
  78      6FA525EC 
  79 006f 130605E1 		.ascii	"\023\006\005\341\251\241\257F\0025&\264\307Ho-\346\343"
  79      A9A1AF46 
  79      023526B4 
  79      C7486F2D 
  79      E6E3
  80 0081 B22CC7ED 		.ascii	"\262,\307\355>\265v\346\362t\325\332\344\333*\2517/"
  80      3EB576E6 
  80      F274D5DA 
  80      E4DB2AA9 
  80      372F
  81 0093 389F3E7E 		.ascii	"8\237>~\257\245\274\323\0349\315\0266\013z7\270fA?\247"
  81      AFA5BCD3 
  81      1C39CD16 
  81      360B7A37 
  81      B866413F 
ARM GAS  /tmp/cc9IMWxg.s 			page 6


  82 00a8 ECA80F5C 		.ascii	"\354\250\017\\\003\007\254\333Vf\257\006<\007\204\315"
  82      0307ACDB 
  82      5666AF06 
  82      3C0784CD 
  83 00b8 001B00DF 		.ascii	"\000\033\000\337\001Q3 \177\300\334\324D\240\220\225"
  83      01513320 
  83      7FC0DCD4 
  83      44A09095 
  84 00c8 2EEE7FA5 		.ascii	".\356\177\245P\013\347\226zCPi\300\031\276\312\253r"
  84      500BE796 
  84      7A435069 
  84      C019BECA 
  84      AB72
  85 00da B5E04AF6 		.ascii	"\265\340J\366SX\237\343B\243\202-\340\035\243\331\274"
  85      53589FE3 
  85      42A3822D 
  85      E01DA3D9 
  85      BC
  86 00eb 534757A3 		.ascii	"SGW\243\253\221\372\013\266\354F\034'\325<\036$Gi/\031"
  86      AB91FA0B 
  86      B6EC461C 
  86      27D53C1E 
  86      2447692F 
  87 0100 9C66D6EF 		.ascii	"\234f\326\357\237\244\2758\303\022\012MNp"
  87      9FA4BD38 
  87      C3120A4D 
  87      4E70
  88              		.text
  89              		.section	.gnu.lto_.symbol_nodes.a3ce3040a37c529a,"",%progbits
  90 0000 789C6362 		.ascii	"x\234cb`bpe\200\002\246\315\214\365\014\014\023\316"
  90      60627065 
  90      8002A6CD 
  90      8CF50C0C 
  90      13CE
  91 0012 3130D4D7 		.ascii	"10\324\327\317\353`d\332\302X\317\210\304\335\312X\317"
  91      CFEB6064 
  91      DAC258CF 
  91      88C4DDCA 
  91      58CF
  92 0024 84E032EE 		.ascii	"\204\3402\356`\254g\206p\033\032\030\231\231\230\031"
  92      60AC6786 
  92      701B1A18 
  92      99999819 
  93 0034 163FFCC7 		.ascii	"\026?\374\307\310\000\000\3461\025\035"
  93      C80000E6 
  93      31151D
  94              		.text
  95              		.section	.gnu.lto_.refs.a3ce3040a37c529a,"",%progbits
  96 0000 789C6362 		.ascii	"x\234cb`b`d\200\002\000\000F\000\006"
  96      60626064 
  96      80020000 
  96      460006
  97              		.text
  98              		.section	.gnu.lto_.decls.a3ce3040a37c529a,"",%progbits
  99 0000 789CB558 		.ascii	"x\234\265X{l\024E\030\237\331\273\203^{\224\002BJ\242"
  99      7B6C1445 
  99      189FD9BB 
ARM GAS  /tmp/cc9IMWxg.s 			page 7


  99      835E7B94 
  99      02424AA2 
 100 0014 B4103184 		.ascii	"\264\0201\204`\017\212%\372\017Qh\245\304b\233+\004"
 100      600F8A25 
 100      FA0F5168 
 100      A5C4629B 
 100      2B04
 101 0026 FC6B5DDA 		.ascii	"\374k]\332+\275x}\244\267\2471\2328myI\"\266\005j\015"
 101      2BBD787D 
 101      A4B7A731 
 101      9A386D79 
 101      4922B605 
 102 003c 15AE94A7 		.ascii	"\025\256\224\247Q\220B\251 \222\203\224R\013\351\021"
 102      519042A9 
 102      20928394 
 102      520BE911 
 103 004c 4CD5F83C 		.ascii	"L\325\370<\021B\032\210)\012\021\321r~3\273{\267\273"
 103      11421A88 
 103      290A11D1 
 103      727E33BB 
 103      7BB7BB
 104 005f BDBD4713 		.ascii	"\275\275G\0237\367\315\315\356\316\367\373~\337cfv\227"
 104      37F7CDCD 
 104      EECEF7FB 
 104      7EDF6366 
 104      7697
 105 0071 431C7A1B 		.ascii	"C\034z\033#\024\202\343\255\307\020\232\312!dF\010-"
 105      231482E3 
 105      ADC7109A 
 105      CA216446 
 105      082D
 106 0083 4591839E 		.ascii	"E\221\203\236w\200\334\003\031\005\261b4\346\240\367"
 106      7780DC03 
 106      1905B162 
 106      34E6A0F7 
 107 0093 D3406E81 		.ascii	"\323@n\201L\004\261\310z\235 \335 \307@\216\202\234"
 107      4C04B1C8 
 107      7A9D20DD 
 107      20C7408E 
 107      829C
 108 00a5 05390572 		.ascii	"\0059\005rG\276\177\022\244\027\3446\3100\010\226\261"
 108      47BE7F12 
 108      A417E436 
 108      C8300896 
 108      B1
 109 00b6 8006BA0B 		.ascii	"\200\006\272\0132Yg\213r\260E\261\243\266\321)\343S"
 109      3259678B 
 109      72B045B1 
 109      A3B6D129 
 109      E353
 110 00c8 5B5FC9F6 		.ascii	"[_\311\366,\262\255a\331V?\310\025\331\036\3054\201"
 110      2CB2AD61 
 110      D9563FC8 
 110      15D91EC5 
 110      3481
 111 00da FC0DF210 		.ascii	"\374\015\362\020d\246\316\346\250\201o\321l\316\002"
 111      64A6CEE6 
ARM GAS  /tmp/cc9IMWxg.s 			page 8


 111      A8816FD1 
 111      6CCE02
 112 00e9 DD542CE1 		.ascii	"\335T,\341\251\355q\252\330\321{\026\370\237\000\222"
 112      A9ED71AA 
 112      D8D17B16 
 112      F89F0092 
 113 00f9 A5B39585 		.ascii	"\245\263\225\205\366\020_0x\340\372\010\376\220\370"
 113      F6105F30 
 113      78E0FA08 
 113      FE90F8
 114 0108 379250E8 		.ascii	"7\222P\350\0354\003\355\"p\3706\023\202E+\332JH\003"
 114      1D3403ED 
 114      2270F836 
 114      1382452B 
 114      DA4A4803 
 115 011c 3D29EC4F 		.ascii	"=)\354OGh\035\026p\272\025e\263\216\315\312x\315E\373"
 115      47681D16 
 115      70BA1565 
 115      B38ECDCA 
 115      78CD45FB 
 116 0130 09690AEE 		.ascii	"\011i\012\356\030=4\237\220\024\001wb+\330_\213\321"
 116      183D349F 
 116      90140177 
 116      622BD85F 
 116      8BD1
 117 0142 7C740470 		.ascii	"|t\004p\232@\177q\224\024\242\304\241{\266\\<\217\033"
 117      9A407F71 
 117      9414A2C4 
 117      A17BB65C 
 117      3C8F1B
 118 0155 808E800F 		.ascii	"\200\216\200\0171\360w1F\002>\210\347'\01554\320\333"
 118      31F07731 
 118      46023E88 
 118      E7270D35 
 118      34D0DB
 119 0168 8C1B19D4 		.ascii	"\214\033\031\324\307\014\312\257\203\022\360D\253\232"
 119      C70CCAAF 
 119      8312F044 
 119      AB9A
 120 0176 253B5706 		.ascii	"%;W\006P<v[\356\3202\236\214\376\347\341\321\274\241"
 120      503C765B 
 120      EED0329E 
 120      8CFEE7E1 
 120      D1BCA1
 121 0189 9AFBF00C 		.ascii	"\232\373\360\014\3263\261lC\311l\213\304`*j\2469\314"
 121      D633B16C 
 121      43C96C8B 
 121      C4602A6A 
 121      A639CC
 122 019c 5645E355 		.ascii	"VE\343UE\337\246\012\354\340\267\271,g\307\360T@\371"
 122      45DFA60A 
 122      ECE0B7B9 
 122      2C67C7F0 
 122      5440F9
 123 01af 5D178B78 		.ascii	"]\027\213x(\224E\027hJ:\014\223\370\217\017\330\210"
 123      28944517 
 123      684A3A0C 
ARM GAS  /tmp/cc9IMWxg.s 			page 9


 123      93F88F0F 
 123      D888
 124 01c1 59BA8E34 		.ascii	"Y\272\2164h\232c6\362\001[\377\351\201\366\231\304w"
 124      689A6336 
 124      F2015BFF 
 124      E981F699 
 124      C477
 125 01d3 01C7231F 		.ascii	"\001\307#\037\344\024\273\013T\025\327\261\327\304\330"
 125      E414BB0B 
 125      5415D7B1 
 125      D7C4D8
 126 01e2 9F62ECEF 		.ascii	"\237b\354\357\305g\257\205\241\364N\353\351\3773\310"
 126      C567AF85 
 126      A1F44EEB 
 126      E9FF33C8 
 127 01f2 E89F8E4F 		.ascii	"\350\237\216O\177c\243?4(\321g\365\327\030\263\376\004"
 127      7F63A33F 
 127      3428D167 
 127      F5D718B3 
 127      FE04
 128 0204 7C18CF4D 		.ascii	"|\030\317M(\337\034\252\347\260L-\032\222\334\225\016"
 128      28DF1CAA 
 128      E7B04C2D 
 128      1A92DC95 
 128      0E
 129 0215 79809656 		.ascii	"y\200\226VS\300\326$\010\370,+\360-I\203ek\300Z\324"
 129      53C0D624 
 129      08F82C2B 
 129      F02D4983 
 129      656BC05A 
 130 022a 60DB1301 		.ascii	"`\333\023\001K1f\266S\015\326\2324\230\226Y\253\032"
 130      4B3166B6 
 130      530DD69A 
 130      34989659 
 130      AB1A
 131 023c AC3D11B0 		.ascii	"\254=\021\260\014cfmj0_\322`jf\365\376\236\300\000&"
 131      0C63666D 
 131      6A305FD2 
 131      606A66F5 
 131      FE9EC000 
 132 0251 2DB669A8 		.ascii	"-\266i\250\205\220z\342\233`T\024\010\261!$\346\020"
 132      85907AE2 
 132      9B605414 
 132      08B12124 
 132      E610
 133 0263 010FE069 		.ascii	"\001\017\340i\332\"\335\375~:-Rz=\376\034\373( \025"
 133      DA22DDFD 
 133      7E3A2D52 
 133      7A3DFE1C 
 133      FB282015 
 134 0277 A9B278EE 		.ascii	"\251\262x\356g\316Q\335qT\027\030\357\016\244\221m6"
 134      67CE51DD 
 134      71541718 
 134      EF0EA491 
 134      6D36
 135 0289 7976F99E 		.ascii	"yv\371\236?\034\203x@?\273\366\006\270l\351r|\336\307"
 135      3F1C8378 
ARM GAS  /tmp/cc9IMWxg.s 			page 10


 135      403FBBF6 
 135      06B86CE9 
 135      727CDEC7 
 136 029d 03ED99C4 		.ascii	"\003\355\231\304w\036\313\213;\331L\346\251le(\266\350"
 136      771ECB8B 
 136      3BD94CE6 
 136      A96C6528 
 136      B6E8
 137 02af E217DE27 		.ascii	"\342\027\336'z\026\260\005\341\032s\364 \027u\227H\000"
 137      7A16B005 
 137      E11A73F4 
 137      20177597 
 137      4800
 138 02c1 6868E0D3 		.ascii	"hh\340\323\347\030\320\020\003:\306\351\367\010\223"
 138      E718D010 
 138      033AC6E9 
 138      F70893
 139 02d0 6E8F3069 		.ascii	"n\2170ig\265\311\032\351\204B&\224\334`\016\235a\006"
 139      67B5C91A 
 139      E9844226 
 139      94DC600E 
 139      9D6106
 140 02e3 0391FAD3 		.ascii	"\003\221\372\323\220\214\227\242\206`\313\315=,tJ$\316"
 140      908C97A2 
 140      8660CBCD 
 140      3D2C744A 
 140      24CE
 141 02f5 258D97A1 		.ascii	"%\215\227\241\313\011\207z\307[6*\317%\247\005|\005"
 141      CB09877A 
 141      C75B362A 
 141      CF25A705 
 141      7C05
 142 0307 CF867610 		.ascii	"\317\206v\020Z\225\201\276D&]\246\201\3230\203?W\317"
 142      5A9581BE 
 142      44265DA6 
 142      81D33083 
 142      3F57CF
 143 031a E0CB4983 		.ascii	"\340\313I\203ek\300\316\250\301\256&\002\226m\314\354"
 143      656BC0CE 
 143      A8C1AE26 
 143      02966DCC 
 143      EC
 144 032b AC1A6C28 		.ascii	"\254\032l(i0-\263sj\260\357\023\001\233\027+)\232\374"
 144      69302DB3 
 144      736AB0EF 
 144      13019B17 
 144      2B299AFC 
 145 033f 44764301 		.ascii	"DvC\001\237a\333\325\027,S\347X\353g\355\005\326\366"
 145      9F61DBD5 
 145      172C53E7 
 145      58EB67ED 
 145      05D6F6
 146 0352 B2B68FB5 		.ascii	"\262\266\217\265\375\254\375\211\265\277\260\366W\326"
 146      FDACFD89 
 146      B5BFB0F6 
 146      57D6
 147 0360 FEA6CEAF 		.ascii	"\376\246\316\257\3613\231\377\353\326\307\351j\326\015"
ARM GAS  /tmp/cc9IMWxg.s 			page 11


 147      F13399FF 
 147      EBD6C7E9 
 147      6AD60D
 148 036f 4F011CFA 		.ascii	"O\001\034\372Y7\3274O\006\322Vo\264\332\334\002\200"
 148      5937D734 
 148      4F06D256 
 148      6FB4DADC 
 148      0280
 149 0381 E88BCA98 		.ascii	"\350\213\312\230{\034\032fv\272\306\267\307\302\024"
 149      7B1C1A66 
 149      76BAC6B7 
 149      C7C214
 150 0390 EBD93ED4 		.ascii	"\353\331>\324\202w4\222\376\205\312\023\357H\322\210"
 150      82773492 
 150      FE85CA13 
 150      EF48D288 
 151 03a0 D96A44FF 		.ascii	"\331jD\377\217\003\220\330d\036\212o\334\225\237d\357"
 151      8F0390D8 
 151      641E8A6F 
 151      DC959F64 
 151      EF
 152 03b1 30FBF7C7 		.ascii	"0\373\367\307\254R\026\335*e\321.<\026k\244\023~\366"
 152      AC5216DD 
 152      2A65D12E 
 152      3C166BA4 
 152      137EF6
 153 03c4 683025E0 		.ascii	"h0%\340E\264\035>zEu\251*\352\004\253\250\223\2546\206"
 153      45B41D3E 
 153      7A4575A9 
 153      2AEA04AB 
 153      A893AC36 
 154 03d9 597B3B5E 		.ascii	"Y{;^\205P\210\2438-\202\267&\262\230\302k\200I\353\361"
 154      855088A3 
 154      382D82B7 
 154      26B298C2 
 154      6B8049EB 
 155 03ee 93A89390 		.ascii	"\223\250\223\220\026x\233\361\233\341m\306,\251rh'\033"
 155      16789BF1 
 155      9BE16DC6 
 155      2CA97268 
 155      271B
 156 0400 D681B30C 		.ascii	"\326\201\263\014\036\314d\003O\241\0034\364_\336()\224"
 156      1ECC6403 
 156      4FA10334 
 156      F45FDE28 
 156      2994
 157 0412 528A6268 		.ascii	"R\212bh\311tF0\247\366Wz\235\362\337\337|\031\266\177"
 157      C9744630 
 157      A7F6577A 
 157      9DF2DFDF 
 157      7C19B67F 
 158 0426 F22F5DCD 		.ascii	"\362/]\3155oS\002^:\335\320\317\373\332\347y\211W\370"
 158      356F5302 
 158      5E3ADDD0 
 158      CFFBDAE7 
 158      798957F8 
 159 043a 4422A48F 		.ascii	"D\"\244\217@[\324\010\220?\313\013%u\001\377\001\014"
ARM GAS  /tmp/cc9IMWxg.s 			page 12


 159      405BD408 
 159      903FCB0B 
 159      257501FF 
 159      010C
 160 044c 057C2FB6 		.ascii	"\005|/\266\363\262Z\217\263P)\346\375\014\330XM\246"
 160      F3B25A8F 
 160      B35029E6 
 160      FD0CD858 
 160      4DA6
 161 045e C36246C8 		.ascii	"\303bF\310{dS\006f\316!YKS\004\017\242F\351\332%[S}"
 161      7B645306 
 161      66CE2159 
 161      4B53040F 
 161      A246E9DA 
 162 0476 3014CA4A 		.ascii	"0\024\312J<D\217b\204(\2117\325\343\237Ho\252\365\034"
 162      3C448F62 
 162      84288937 
 162      D5E39F48 
 162      6FAAF51C 
 163 048a 75F58849 		.ascii	"u\365\210I?o\016\341\361\274\002\352R\323eP\234\017"
 163      3F6F0EE1 
 163      F1BC02EA 
 163      52D36550 
 163      9C0F
 164 049c BF33458A 		.ascii	"\2773E\212S\311\317hB\3719A\363#\221\3663tc5:\312(?"
 164      53C9CF68 
 164      42F93941 
 164      F32391F6 
 164      33746335 
 165 04b4 A3FAFC6C 		.ascii	"\243\372\374l\344\306\344'H\303\324W\217\233\033}\375"
 165      E4C6E427 
 165      48C3D457 
 165      8F9B1B7D 
 165      FD
 166 04c5 6484BA98 		.ascii	"d\204\272\230x\226\266q\272,uG)\344\360\271\314T\027"
 166      7896B671 
 166      BA2C7547 
 166      29E4F0B9 
 166      CC5417
 167 04d8 BD8BBAE8 		.ascii	"\275\213\272\350)T\267k\251\316A\035\344\352\325\340"
 167      2954B76B 
 167      A9CE411D 
 167      E4EAD5E0 
 168 04e8 CDEB6D78 		.ascii	"\315\353mxk\2204\221G\241\020\236\202\232\330{_[\272"
 168      6B903491 
 168      47A1109E 
 168      829AD87B 
 168      5F5BBA
 169 04fb 5C12C103 		.ascii	"\\\022\301\003\376\314\266HI\244(|\261R\022\364\033"
 169      FECCB648 
 169      49A4287C 
 169      B15212F4 
 169      1B
 170 050c 05171E4C 		.ascii	"\005\027\036L23\243\217\025p\013GW\260\035\022cvK\352"
 170      3233A38F 
 170      15700B47 
 170      57B01D12 
ARM GAS  /tmp/cc9IMWxg.s 			page 13


 170      63764BEA 
 171 0520 2BBD10A6 		.ascii	"+\275\020\246\334\1770E\373\334\301\000b\253\312F\327"
 171      DC7F3045 
 171      FBDCC100 
 171      62ABCA46 
 171      D7
 172 0531 2946A575 		.ascii	")F\245u/\342\21742\372(\001\357\342\246\260\036s\204"
 172      2FE28F34 
 172      32FA2801 
 172      EFE2A6B0 
 172      1E7384
 173 0544 84774C9B 		.ascii	"\204wL\233\3250Q\255*66k\244\223\252\341\254\214\002"
 173      D53051AD 
 173      2A36366B 
 173      A493AAE1 
 173      AC8C02
 174 0557 CF82FA95 		.ascii	"\317\202\372\225TG\002\266U\331w\001\323\317RRz\374"
 174      544702B6 
 174      55D97701 
 174      D3CF5252 
 174      7AFC
 175 0569 0FFA48CA 		.ascii	"\017\372H\312gd+\375\272\244v\2469\342\214\356\263\202"
 175      67642BFD 
 175      BAA476A6 
 175      39E28CEE 
 175      B382
 176 057b 81CB633E 		.ascii	"\201\313c>>\354N\332\345v\003\227\303[\214f\024t?\340"
 176      3EEC4EDA 
 176      E5760397 
 176      C35B8C66 
 176      14743FE0 
 177 058f 74EBA78E 		.ascii	"t\353\247\216\004\207\376\322\270\254{^\241s\301\210"
 177      0487FED2 
 177      B8AC7B5E 
 177      A173C188 
 178 059f CB1E2E6C 		.ascii	"\313\036.lU\016\3247\227\342\005\252V\001I\217\025("
 178      550ED437 
 178      97E205AA 
 178      5601498F 
 178      1528
 179 05b1 DD284859 		.ascii	"\335(HY\322\201\332g\020\250I\232@\355\323\007J\265"
 179      D281DA67 
 179      10A8499A 
 179      40EDD307 
 179      4AB5
 180 05c3 22E94870 		.ascii	"\"\351Hph\223Y\035(4+'\307.\375j<\366J\301m\367\324"
 180      6893591D 
 180      28342B27 
 180      C72EFD6A 
 180      3CF64AC1 
 181 05da 95D17FBE 		.ascii	"\225\321\177\276Vp\347\224\241<\375\355\332\232:\321"
 181      5670E794 
 181      A13CFDED 
 181      DA9A3AD1 
 182 05ea 632F5DBD 		.ascii	"c/]\275jq\256\275\250(\337\276\242de\361\353\271\212"
 182      6A71AEBD 
 182      A828DFBE 
ARM GAS  /tmp/cc9IMWxg.s 			page 14


 182      A26465F1 
 182      EBB98A
 183 05fd 06EF7697 		.ascii	"\006\357v\227\347T\"\233\253\206\216\253\022<\257\361"
 183      E754229B 
 183      AB868EAB 
 183      123CAFF1 
 184 060d E284152F 		.ascii	"\342\204\025/\257\311^\216\236\260{=uvWu\231\333[\356"
 184      AFC95E8E 
 184      9EB07B3D 
 184      75765775 
 184      99DB5BEE 
 185 0621 B4573BDF 		.ascii	"\264W;\337p\273\326\333=b\271\253Z\004\215\024/\374"
 185      70BBD6DB 
 185      3D62B9AB 
 185      5A048D14 
 185      2FFC
 186 0633 2FCEE5C5 		.ascii	"/\316\345\305\247\243\015\253\022\312*]\325N;_\356\254"
 186      A7A30DAB 
 186      12CA2A5D 
 186      D54E3B5F 
 186      EEAC
 187 0645 10BC6E91 		.ascii	"\020\274n\221\027\337\254uz@-\225\347\025\3059z\246"
 187      17DFAC75 
 187      7A402D95 
 187      E715C539 
 187      7AA6
 188 0657 0A86E24C 		.ascii	"\012\206\342L%\262\254,^\346\365\330<b\025(l\250u\325"
 188      25B2AC2C 
 188      5EE6F5D8 
 188      3C621528 
 188      6CA875D5 
 189 066b F0A26555 		.ascii	"\360\242eUq~\201cB\361\352WJ\012\034\023\213KK\012\012"
 189      717E8163 
 189      42F1EA57 
 189      4A0A1C13 
 189      8B4B4B0A 
 190 0680 F21D9692 		.ascii	"\362\035\226\2225%\371\016\323J\220\342|\007^\313\310"
 190      3525F90E 
 190      D34A90E2 
 190      7C075ECB 
 190      C8
 191 0691 2D5AC28B 		.ascii	"-Z\302\213\2629\3325y\234\242\245\314\355\024\352p\241"
 191      B239DA35 
 191      799CA2A5 
 191      CCED14EA 
 191      70A1
 192 06a3 7959A9C3 		.ascii	"yY\251\303a.Z\376\222\303\374\302\213\216\"\332\024"
 192      612E5AFE 
 192      92C3FCC2 
 192      8B8E22DA 
 192      14
 193 06b4 9A96391C 		.ascii	"\232\2269\034\251R\030\\\345\020\004\251c\246!\261Q"
 193      A952185C 
 193      E51004A9 
 193      63A621B1 
 193      51
 194 06c5 0CBE42F0 		.ascii	"\014\276B\360\210\317\302\215\232\212\012\200J\005\206"
ARM GAS  /tmp/cc9IMWxg.s 			page 15


 194      88CFC28D 
 194      9A8A0A80 
 194      4A0586
 195 06d4 0EA7500E 		.ascii	"\016\247P\016\374L\353\275\23648][\347\022\235pn^\357"
 195      FC4CEBBD 
 195      9E34385D 
 195      5BE7129D 
 195      706E5EEF 
 196 06e8 123D29AE 		.ascii	"\022=)\256\232\252\232r'/N\202;\245N\021\256\257\202"
 196      9AAA9A72 
 196      272F4E82 
 196      3BA54E11 
 196      AEAF82
 197 06fb 7333BD38 		.ascii	"s3\2758]\211<\017@\033\352j\274\265\364\252\271\254"
 197      5D893C0F 
 197      401BEA6A 
 197      BCB5F4AA 
 197      B9AC
 198 070d 52A84BE1 		.ascii	"R\250K\341\371\012ou\031\317OR:9K\026=\223\247>\313"
 198      F90A6F75 
 198      19CF4F52 
 198      3A394B16 
 198      3D93A73E 
 199 0722 5BA839CB 		.ascii	"[\2509\313\373\017\225Tq\365"
 199      FB0F9554 
 199      71F5
 200              		.text
 201              		.section	.gnu.lto_.symtab.a3ce3040a37c529a,"",%progbits
 202 0000 70616C52 		.ascii	"palReadBus\000\000\000\000\000\000\000\000\000\000\000"
 202      65616442 
 202      75730000 
 202      00000000 
 202      00000000 
 203 0015 00A10000 		.ascii	"\000\241\000\000\000palWriteBus\000\000\000\000\000"
 203      0070616C 
 203      57726974 
 203      65427573 
 203      00000000 
 204 002a 00000000 		.ascii	"\000\000\000\000\000\000\000\364\000\000\000palSetB"
 204      000000F4 
 204      00000070 
 204      616C5365 
 204      7442
 205 003c 75734D6F 		.ascii	"usMode\000\000\000\000\000\000\000\000\000\000\000\000"
 205      64650000 
 205      00000000 
 205      00000000 
 205      0000
 206 004e FD000000 		.ascii	"\375\000\000\000_pal_lld_setgroupmode\000\000\002\000"
 206      5F70616C 
 206      5F6C6C64 
 206      5F736574 
 206      67726F75 
 207 006b 00000000 		.ascii	"\000\000\000\000\000\000\000\000\011\001\000\000"
 207      00000000 
 207      09010000 
 208              		.text
ARM GAS  /tmp/cc9IMWxg.s 			page 16


 209              		.section	.gnu.lto_.opts,"",%progbits
 210 0000 272D6D63 		.ascii	"'-mcpu=cortex-m0' '-mno-thumb-interwork' '-mthumb' "
 210      70753D63 
 210      6F727465 
 210      782D6D30 
 210      2720272D 
 211 0033 272D6767 		.ascii	"'-ggdb' '-O2' '-fomit-frame-pointer' '-falign-funct"
 211      64622720 
 211      272D4F32 
 211      2720272D 
 211      666F6D69 
 212 0066 696F6E73 		.ascii	"ions=16' '-ffunction-sections' '-fdata-sections' '-"
 212      3D313627 
 212      20272D66 
 212      66756E63 
 212      74696F6E 
 213 0099 666E6F2D 		.ascii	"fno-common' '-flto'\000"
 213      636F6D6D 
 213      6F6E2720 
 213      272D666C 
 213      746F2700 
 214              		.text
 215              		.cfi_sections	.debug_frame
 216              		.section	.text.palReadBus,"ax",%progbits
 217              		.align	2
 218              		.p2align 4,,15
 219              		.global	palReadBus
 220              		.code	16
 221              		.thumb_func
 222              		.type	palReadBus, %function
 223              	palReadBus:
 224              	.LFB179:
 225              		.file 1 "../../../os/hal/src/hal_pal.c"
 226              		.loc 1 65 0
 227              		.cfi_startproc
 228              	.LVL0:
 229              		.loc 1 69 0
 230 0000 0368     		ldr	r3, [r0]
 231 0002 8268     		ldr	r2, [r0, #8]
 232 0004 1B69     		ldr	r3, [r3, #16]
 233 0006 4068     		ldr	r0, [r0, #4]
 234              	.LVL1:
 235 0008 D340     		lsr	r3, r3, r2
 236 000a 1840     		and	r0, r3
 237              		.loc 1 70 0
 238              		@ sp needed
 239 000c 7047     		bx	lr
 240              		.cfi_endproc
 241              	.LFE179:
 242              		.size	palReadBus, .-palReadBus
 243 000e C046     		.section	.text.palWriteBus,"ax",%progbits
 244              		.align	2
 245              		.p2align 4,,15
 246              		.global	palWriteBus
 247              		.code	16
 248              		.thumb_func
 249              		.type	palWriteBus, %function
ARM GAS  /tmp/cc9IMWxg.s 			page 17


 250              	palWriteBus:
 251              	.LFB180:
 252              		.loc 1 90 0
 253              		.cfi_startproc
 254              	.LVL2:
 255              		.loc 1 94 0
 256 0000 4268     		ldr	r2, [r0, #4]
 257 0002 8368     		ldr	r3, [r0, #8]
 258              		.loc 1 90 0
 259 0004 30B5     		push	{r4, r5, lr}
 260              		.cfi_def_cfa_offset 12
 261              		.cfi_offset 4, -12
 262              		.cfi_offset 5, -8
 263              		.cfi_offset 14, -4
 264              		.loc 1 94 0
 265 0006 151C     		mov	r5, r2
 266 0008 0468     		ldr	r4, [r0]
 267 000a 8D43     		bic	r5, r1
 268 000c 181C     		mov	r0, r3
 269              	.LVL3:
 270 000e 1140     		and	r1, r2
 271              	.LVL4:
 272 0010 1030     		add	r0, r0, #16
 273 0012 9940     		lsl	r1, r1, r3
 274 0014 8540     		lsl	r5, r5, r0
 275 0016 0B1C     		mov	r3, r1
 276 0018 2B43     		orr	r3, r5
 277 001a A361     		str	r3, [r4, #24]
 278              		.loc 1 95 0
 279              		@ sp needed
 280 001c 30BD     		pop	{r4, r5, pc}
 281              		.cfi_endproc
 282              	.LFE180:
 283              		.size	palWriteBus, .-palWriteBus
 284 001e C046     		.section	.text.palSetBusMode,"ax",%progbits
 285              		.align	2
 286              		.p2align 4,,15
 287              		.global	palSetBusMode
 288              		.code	16
 289              		.thumb_func
 290              		.type	palSetBusMode, %function
 291              	palSetBusMode:
 292              	.LFB181:
 293              		.loc 1 113 0
 294              		.cfi_startproc
 295              	.LVL5:
 296 0000 08B5     		push	{r3, lr}
 297              		.cfi_def_cfa_offset 8
 298              		.cfi_offset 3, -8
 299              		.cfi_offset 14, -4
 300              		.loc 1 113 0
 301 0002 031C     		mov	r3, r0
 302 0004 0A1C     		mov	r2, r1
 303              		.loc 1 117 0
 304 0006 5968     		ldr	r1, [r3, #4]
 305              	.LVL6:
 306 0008 9B68     		ldr	r3, [r3, #8]
ARM GAS  /tmp/cc9IMWxg.s 			page 18


 307 000a 0068     		ldr	r0, [r0]
 308              	.LVL7:
 309 000c 9940     		lsl	r1, r1, r3
 310 000e FFF7FEFF 		bl	_pal_lld_setgroupmode
 311              	.LVL8:
 312              		.loc 1 118 0
 313              		@ sp needed
 314 0012 08BD     		pop	{r3, pc}
 315              		.cfi_endproc
 316              	.LFE181:
 317              		.size	palSetBusMode, .-palSetBusMode
 318 0014 C046C046 		.text
 318      C046C046 
 318      C046C046 
 319              	.Letext0:
 320              		.file 2 "/usr/include/newlib/machine/_default_types.h"
 321              		.file 3 "/usr/include/newlib/stdint.h"
 322              		.file 4 "../../../os/common/ports/ARMCMx/compilers/GCC/chtypes.h"
 323              		.file 5 "../../../os/rt/include/chsystypes.h"
 324              		.file 6 "../../../os/rt/include/chschd.h"
 325              		.file 7 "../../../os/common/ports/ARMCMx/chcore.h"
 326              		.file 8 "../../../os/common/ports/ARMCMx/chcore_v6m.h"
 327              		.file 9 "../../../os/rt/include/chsem.h"
 328              		.file 10 "../../../os/rt/include/chmtx.h"
 329              		.file 11 "../../../os/hal/ports/STM32/LLD/GPIOv2/hal_pal_lld.h"
 330              		.file 12 "../../../os/hal/include/hal_pal.h"