ARM GAS  /tmp/ccNLiF6t.s 			page 1


   1              		.cpu cortex-m0
   2              		.fpu softvfp
   3              		.eabi_attribute 20, 1
   4              		.eabi_attribute 21, 1
   5              		.eabi_attribute 23, 3
   6              		.eabi_attribute 24, 1
   7              		.eabi_attribute 25, 1
   8              		.eabi_attribute 26, 1
   9              		.eabi_attribute 30, 2
  10              		.eabi_attribute 34, 0
  11              		.eabi_attribute 18, 4
  12              		.code	16
  13              		.file	"hal_st_lld.c"
  14              		.text
  15              	.Ltext0:
  16              		.section	.gnu.lto_.jmpfuncs.45b8977494ea395d,"",%progbits
  17 0000 789C6362 		.ascii	"x\234cb`b\300\006\324\2414P\226\021H12E0f\202\030@\036"
  17      6062C006 
  17      D4A13450 
  17      96114831 
  17      32453066 
  18 0018 1398CD28 		.ascii	"\023\230\315(\000\224\0043@\006\000\0003\244\002\226"
  18      00940433 
  18      40060000 
  18      33A40296 
  19              		.text
  20              		.section	.gnu.lto_.inline.45b8977494ea395d,"",%progbits
  21 0000 789C6362 		.ascii	"x\234cb`b\300\006\234\2404P\226W\214\221\201\211\357"
  21      6062C006 
  21      9CA03450 
  21      96578C91 
  21      8189EF
  22 0013 5E0003DB 		.ascii	"^\000\003\333\002y\260b&n\006\006\306\011~\214\\P5\214"
  22      0279B062 
  22      266E0606 
  22      C6097E8C 
  22      5C50358C 
  23 0027 40282203 		.ascii	"@(\"\003T$\363\340\026#\\\0253\017X7\003\000\352\216"
  23      5424F3E0 
  23      16235C15 
  23      330F5837 
  23      0300EA8E 
  24 003b 064D     		.ascii	"\006M"
  25              		.text
  26              		.section	.gnu.lto_.pureconst.45b8977494ea395d,"",%progbits
  27 0000 789C6362 		.ascii	"x\234cb`b`e\200\000&\006+F)\000\001f\000a"
  27      60626065 
  27      80002606 
  27      2B462900 
  27      01660061 
  28              		.text
  29              		.section	.gnu.lto_Vector80.45b8977494ea395d,"",%progbits
  30 0000 789C8D52 		.ascii	"x\234\215RMh\023A\024~ow\363\3274j\361\242 i\361\242"
  30      4D681341 
  30      147E6F77 
  30      F3D7346A 
  30      F1A22069 
ARM GAS  /tmp/ccNLiF6t.s 			page 2


  31 0016 20CDD216 		.ascii	" \315\322\026zV\352\245\320x0)\350)\304Ih\026\222n\311"
  31      7A56EAA5 
  31      D0783029 
  31      E829C449 
  31      6816926E 
  32 002b C6D2E2A1 		.ascii	"\306\322\342\241\023\223C\241\202EA\374\307RD\260\007"
  32      139343A1 
  32      824541FC 
  32      C75244B0 
  32      07
  33 003c 5114A45E 		.ascii	"Q\024\244^\212\247\212\264\245\027\021/\246\024\012"
  33      8AA78AB4 
  33      A517112F 
  33      A6140A
  34 004b 05158397 		.ascii	"\005\025\203\227\332\277\370f'\233\256U\301agf\337{"
  34      DABFF866 
  34      279BAE55 
  34      C1616766 
  34      DF7B
  35 005d DF7CEF7D 		.ascii	"\337|\357}oF\001\005\366\217N\232\347T\200\237\264\243"
  35      6F460105 
  35      F68F4E9A 
  35      E754809F 
  35      B4A3
  36 006f 0750995C 		.ascii	"\007P\231\\\004(\372\025E\235\015\003o\322>\350\300"
  36      0428FA15 
  36      459D0D03 
  36      6FD23EE8 
  36      C0
  37 0080 9B55D4A4 		.ascii	"\233U\324\244[C\024?\2000\246\250\032\216]D\301\201"
  37      5B43143F 
  37      8030A6A8 
  37      1A8E5D44 
  37      C181
  38 0092 C7618AF3 		.ascii	"\307a\212\363\033\225\307\233w\216\362GW'\371n\255\206"
  38      1B95C79B 
  38      778EF247 
  38      5727F96E 
  38      AD86
  39 00a4 0652B66E 		.ascii	"\006R\266n\004\206p\201\014l\2637E\373=\3753e\256R\253"
  39      04867081 
  39      0C6CB337 
  39      45FB3DFD 
  39      3365AE52 
  40 00b9 6D6F6DAC 		.ascii	"mom\254\324\360\360A\015\2228El\0360P\365\212\205 \036"
  40      D4F0F041 
  40      0D923845 
  40      6C1E3050 
  40      F58A8520 
  41 00ce 28733ED9 		.ascii	"(s>\331&# \370h\304i\025\225\364\243\"vu\011\312\225"
  41      262320F8 
  41      68C46915 
  41      95F4A322 
  41      767509CA 
  42 00e3 F581244E 		.ascii	"\365\201$N\223\206\001\324\256\300&\037\347\207\014"
  42      938601D4 
  42      AEC0261F 
ARM GAS  /tmp/ccNLiF6t.s 			page 3


  42      E7870C
  43 00f2 D418DA78 		.ascii	"\324\030\332x;\271\007\210\322\013\360\016\024\211\224"
  43      3BB90788 
  43      D20BF00E 
  43      148994
  44 0101 9C840758 		.ascii	"\234\204\007X\200\267\237>n\255(\016\205\347\024<\345"
  44      80B79F3E 
  44      6EAD280E 
  44      85E7143C 
  44      E5
  45 0112 653AE4BB 		.ascii	"e:\344\273\007wi\363\013\202\000\221r\315\346\012\330"
  45      077769F3 
  45      0B820091 
  45      72CDE60A 
  45      D8
  46 0123 AC97D011 		.ascii	"\254\227\320\021\262\000\2457\2455t\216{\211A\300T\321"
  46      B200A537 
  46      A535748E 
  46      7B8941C0 
  46      54D1
  47 0135 F179287F 		.ascii	"\361y(\177)\206\032!\333\357nB?\231\263a\225Jx\275\261"
  47      29861A21 
  47      DBEF6E42 
  47      3F99B361 
  47      954A78BD 
  48 014a 55AD9760 		.ascii	"U\255\227`\347/\362\330\177V <>\361\263\010\305\352"
  48      E72FF2D8 
  48      7F56203C 
  48      3EF1B308 
  48      C5EA
  49 015c F8EAEA91 		.ascii	"\370\352\352\221z\333\234\376\315\315\\\377\032<\351"
  49      7ADB9CFE 
  49      CDCD5CFF 
  49      1A3CE9
  50 016b 587CF5E5 		.ascii	"X|\365\345\261Fd\372\326|\250}\317\272?\321\362\334"
  50      B14664FA 
  50      D67CA87D 
  50      CFBA3FD1 
  50      F2DC
  51 017d D330DF6F 		.ascii	"\3230\337o\377 C\226\304\250\331\214je\3240f\333^\231"
  51      FF204396 
  51      C4A8D98C 
  51      6A65D430 
  51      66DB5E99 
  52 0191 1CA1426E 		.ascii	"\034\241Bn\373q\205a\035\037\360\333\247\015l\222\261"
  52      FB718561 
  52      1D1FF0DB 
  52      A70D6C92 
  52      B1
  53 01a2 25287D1F 		.ascii	"%(}\037\177\262v\255}\177A\023;%\337\036\263O\242\033"
  53      7FB276AD 
  53      7D7F4113 
  53      3B25DF1E 
  53      B34FA21B 
  54 01b6 171764E8 		.ascii	"\027\027d\350O\342\013qg\342\326\232\353\302J\237\361"
  54      4FE20B71 
  54      67E2D69A 
ARM GAS  /tmp/ccNLiF6t.s 			page 4


  54      EBC24A9F 
  54      F1
  55 01c7 4F61BBC1 		.ascii	"Oa\273\301\326\206\260\231Wa\227\260o!\335%\354a\313"
  55      D686B099 
  55      576197B0 
  55      6F21DD25 
  55      EC61CB
  56 01da B24BD8CE 		.ascii	"\262K\330\316MW\372\000\315&\232A\232\3154C\216\260"
  56      4D57FA00 
  56      CD269A41 
  56      9ACD3443 
  56      8EB0
  57 01ec EA3F85C9 		.ascii	"\352?\205\311\233\323\032\317o\267\376\374\\\"B\014"
  57      9BD31ACF 
  57      6FB7FEFC 
  57      5C22420C 
  58 01fc 0FD8387A 		.ascii	"\017\3308zb\206\370]\206b\245v\302\301\311\021\247\027"
  58      6286F85D 
  58      8662A576 
  58      C2C1C911 
  58      A717
  59 020e 4A1C2249 		.ascii	"J\034\"IW$\242\313\317\264\364L2\253\017\231\371\202"
  59      5724A2CB 
  59      CFB4F44C 
  59      32AB0F99 
  59      F982
  60 0220 A5C7E2D1 		.ascii	"\245\307\342\321\256N\275\257\357\254\036\357\215\016"
  60      AE4EBDAF 
  60      EFAC1EEF 
  60      8D0E
  61 022e 778848C2 		.ascii	"w\210H\302*$\262\331T\204A a%\207\323\251D6\337\341"
  61      2A24B2D9 
  61      54844120 
  61      612587D3 
  61      A94436DF 
  62 0243 3ECDCC5C 		.ascii	">\315\314\\\316\034\324\323#\005\275'\032\353\215\351"
  62      CE1CD4D3 
  62      2305BD27 
  62      1AEB8DE9 
  63 0253 C620CB5E 		.ascii	"\306 \313^N\245u\226\263\014+1\300X$\003\355\1779!S"
  63      4EA57596 
  63      B30C2B31 
  63      C0582403 
  63      ED7F3921 
  64 0268 9E391FED 		.ascii	"\2369\037\355\211\216\350,\303\314|:1\334\235#t\253"
  64      898EE82C 
  64      C3CC7C3A 
  64      31DC9D23 
  64      74AB
  65 027a 1B9D2FEC 		.ascii	"\033\235/\3541f\254Qk\177\\ToZ\264\020P\354\024\367"
  65      3166AC51 
  65      6B7F5C54 
  65      6F5AB410 
  65      50EC14F7 
  66 028e B321CB48 		.ascii	"\263!\313H\265\031\340\313\245sf~T:\322\344\370\005"
  66      B519E0CB 
  66      A573667E 
ARM GAS  /tmp/ccNLiF6t.s 			page 5


  66      543AD2E4 
  66      F805
  67 02a0 0EB82539 		.ascii	"\016\270%9"
  68              		.text
  69              		.section	.gnu.lto_st_lld_init.45b8977494ea395d,"",%progbits
  70 0000 789C95D3 		.ascii	"x\234\225\323\275O\302@\024\000\360\367\356(_:\340\250"
  70      BD4FC240 
  70      1400F0F7 
  70      EE285F3A 
  70      E0A8
  71 0012 93AB31D2 		.ascii	"\223\2531\322(qvq!\221ILd\"\210\011\222\220`\204\270"
  71      28717671 
  71      2191494C 
  71      64228809 
  71      92906084 
  72 0027 38704448 		.ascii	"8pDH\030\034\210\023Q\007]\301\200\223\251\233as\000"
  72      181C8813 
  72      51075DC1 
  72      8093A99B 
  72      617300
  73 003a E3669C18 		.ascii	"\343f\234\030\365\0370\304\005\357\365\213/C\354\245"
  73      F51F30C4 
  73      05EFF58B 
  73      2F43ECA5 
  74 004a 7DD7F6EE 		.ascii	"}\327\366\356\375\372\332^\0310\230l\213\264\273\000"
  74      FDFADA5E 
  74      1930986C 
  74      8BB4BB00 
  75 005a 36658F1C 		.ascii	"6e\217\034\220U\273\000E/C\244\003@(0,\304P\237\333"
  75      9055BB00 
  75      452F43A4 
  75      03402830 
  75      2CC4509F 
  76 006f 62CFBDC1 		.ascii	"b\317\275\301\240\371xys\201]\266\300 \215\300)(\024"
  76      A0F97879 
  76      73815DB6 
  76      C0208DC0 
  76      292814
  77 0082 DC146453 		.ascii	"\334\024dS\240$Du\031 \251\237Fe$j\017\031\365\274\003"
  77      A0244475 
  77      1920A99F 
  77      4665246A 
  77      0F19F5BC 
  78 0097 ED0FADBE 		.ascii	"\355\017\255\276\224\300;T \205l\025\352\242T\014\244"
  78      94C03B54 
  78      20856C15 
  78      EAA2540C 
  78      A4
  79 00a8 11AFE10A 		.ascii	"\021\257\341\012\323\310\366e\340\342\266\"\\\240\037"
  79      D3C8F665 
  79      E0E2B622 
  79      5CA01F
  80 00b7 EAB73E40 		.ascii	"\352\267>@\253\340\016\234?q+\233\247\214\371\372\203"
  80      ABE00E9C 
  80      3F712B9B 
  80      A78CF9FA 
  80      83
ARM GAS  /tmp/ccNLiF6t.s 			page 6


  81 00c8 49396C0C 		.ascii	"I9l\01483StNeU\032\314\202\225I\302Ey\212x(\233\204"
  81      38335374 
  81      4E65551A 
  81      CC829549 
  81      C245798A 
  82 00e0 6212F857 		.ascii	"b\022\370WYn\011\374\243\254\331\246d\364d\255\337h"
  82      596E09FC 
  82      A3ACD9A6 
  82      64F464AD 
  82      DF68
  83 00f2 F351406C 		.ascii	"\363Q@l\331\202\233\322<\242\"L\301c\012\306w\246+8"
  83      D9829BD2 
  83      3CA2224C 
  83      C1630AC6 
  83      77A62B38 
  84 0106 F8368BD0 		.ascii	"\3706\213\320jM\307\016\037q\006\334t4\347\216k\350"
  84      6A4DC70E 
  84      1F7106DC 
  84      7434E78E 
  84      6BE8
  85 0118 80A9BCDB 		.ascii	"\200\251\274\333\312\032\334\223\022\223\203C\320;\033"
  85      CA1ADC93 
  85      12938343 
  85      D03B1B
  86 0127 546CD067 		.ascii	"Tl\320g/\3451\276\357\274H\367\264Rk9V<\323\212\346"
  86      2FE531BE 
  86      EFBC48F7 
  86      B4526B39 
  86      563CD38A 
  87 013c 5CF1DA0A 		.ascii	"\\\361\332\012\240\365\302\234+\276q\345\025\312\275"
  87      A0F5C29C 
  87      2BBE71E5 
  87      15CABD
  88 014b 972FBF81 		.ascii	"\227/\277\201\000\234\301\217L\221\313\321\2374\227"
  88      009CC18F 
  88      4C91CBD1 
  88      9F3497
  89 015a 1CCD9C0B 		.ascii	"\034\315\234\013\030\035\375\335\363\000oP\354}\256"
  89      181DFDDD 
  89      F3006F50 
  89      EC7DAE
  90 0169 5829468B 		.ascii	"X)F\213\312\351\362W\246u\025\012\006Uc\313\346\324"
  90      CAE9F257 
  90      A675150A 
  90      065563CB 
  90      E6D4
  91 017b A344463D 		.ascii	"\243DF=\316\236\344s\352n4\022\332Pwv\266\325h8r\272"
  91      CE9EE473 
  91      EA6E3412 
  91      DA507776 
  91      B6D56838 
  92 0191 4E23F15C 		.ascii	"N#\361\\>\236\311\034\006\223\360\013\337\315\367/"
  92      3E9EC91C 
  92      0693F00B 
  92      DFCDF72F 
  93              		.text
  94              		.section	.gnu.lto_.symbol_nodes.45b8977494ea395d,"",%progbits
ARM GAS  /tmp/ccNLiF6t.s 			page 7


  95 0000 789C6362 		.ascii	"x\234cb`b(g\200\002\246\315\214\365\014\014\023\316"
  95      60622867 
  95      8002A6CD 
  95      8CF50C0C 
  95      13CE
  96 0012 3130D4D7 		.ascii	"10\324\327\317\353`d\332\302X\317\210\3402nc\254g\202"
  96      CFEB6064 
  96      DAC258CF 
  96      88E0326E 
  96      63AC6782 
  97 0026 701B1A18 		.ascii	"p\033\032\030\031\2673\3263#x[\031\353Y\020\274\035"
  97      19B733D6 
  97      3323785B 
  97      19EB5910 
  97      BC1D
  98 0038 8CF5AC70 		.ascii	"\214\365\254p\0363\003\013C\363\203\177@\232\231\341"
  98      1E33030B 
  98      43F3837F 
  98      409A99E1 
  99 0048 F1561366 		.ascii	"\361V\023f\240\215\213\333\336\31033\2622\034n\177#"
  99      A08D8BDB 
  99      DEC83333 
  99      B2321C6E 
  99      7F23
 100 005a CF00006B 		.ascii	"\317\000\000k\326#$"
 100      D62324
 101              		.text
 102              		.section	.gnu.lto_.refs.45b8977494ea395d,"",%progbits
 103 0000 789C6362 		.ascii	"x\234cb`b`d\200\002\000\000F\000\006"
 103      60626064 
 103      80020000 
 103      460006
 104              		.text
 105              		.section	.gnu.lto_.decls.45b8977494ea395d,"",%progbits
 106 0000 789CA558 		.ascii	"x\234\245X\177P\024\327\035\177o\3578  Qb\255m'#\376"
 106      7F5014D7 
 106      1D7F6FEF 
 106      38202051 
 106      62AD6D27 
 107 0016 914E9B4E 		.ascii	"\221N\233N<~t2\364\237T8@\350\210:w\330:v\246\333\315"
 107      3C7E7432 
 107      F49F5438 
 107      40E8883A 
 107      77D83A76 
 108 002d 71CA4D8F 		.ascii	"q\312M\217\303\336\035\006\377r)\324\030\261\015J\214"
 108      C3DE1D06 
 108      FF7229D4 
 108      18B10D4A 
 108      8C
 109 003e C4A0818C 		.ascii	"\304\240\201\214$\350\330\206R\253\224Z<\231A4$E\023"
 109      24E8D886 
 109      52AB945A 
 109      3C994134 
 109      244513
 110 0051 241AC64A 		.ascii	"$\032\306J4\223d\234NJ5\212ML\256\337\367v\357\356\275"
 110      3493649C 
 110      4E4A358A 
ARM GAS  /tmp/ccNLiF6t.s 			page 8


 110      4D4CAEDF 
 110      F776EFEE 
 111 0066 65F7DC4D 		.ascii	"e\367\334Mw\370~\367\355\333\367>\337\317\367\373\276"
 111      77F87EF7 
 111      EDDBF73E 
 111      DFCFF7FB 
 111      BE
 112 0077 FB78DF13 		.ascii	"\373x\337\023\220\200j1B1\270\312\276\203P\272\035!"
 112      90806A31 
 112      4231B8CA 
 112      BE8350BA 
 112      1D21
 113 0089 1B42E829 		.ascii	"\033B\350)\020\001$\015\244\007)\227\003\244\017\344"
 113      1001240D 
 113      A4072997 
 113      03A40FE4 
 114 0099 18C81B20 		.ascii	"\030\310\033 '@\006A\376\212\346_d\334\303 \003 9 \331"
 114      27400641 
 114      FE8AE65F 
 114      64DCC320 
 114      03203920 
 115 00ae 20E920C3 		.ascii	" \351 \303*\346i\2203 # w@\356\202|\001r\004\344>H?"
 115      2AE66990 
 115      33202320 
 115      7740EE82 
 115      7C017204 
 116 00c6 08D04213 		.ascii	"\010\320B\023*N\237j\353K\244\274\260\2018@2Ar\260\302"
 116      2A4E9F6A 
 116      EB4BA4BC 
 116      B0813840 
 116      324172B0 
 117 00db 6511DC17 		.ascii	"e\021\334\027\203|\023\344\333 \217b\205\247\366\"\374"
 117      837C13E4 
 117      DB208F62 
 117      85A7F622 
 117      FC
 118 00ec 17A87C08 		.ascii	"\027\250|\010\207\3450\256\004\244\024d\015Nr\272\016"
 118      87E530AE 
 118      04A41464 
 118      0D4E72BA 
 118      0E
 119 00fd 02E1406B 		.ascii	"\002\341@k\261\022\203!\220\207@~\010\317?\001\231\206"
 119      B1128321 
 119      9087407E 
 119      08CF3F01 
 119      9986
 120 010f F6559077 		.ascii	"\366U\220wA>\000y\033\344<\310E\22015~\307\014\342\223"
 120      413E0079 
 120      1BE43CC8 
 120      45903135 
 120      7EC70CE2 
 121 0124 8976CAF2 		.ascii	"\211v\312\362o\344\356\035r\3459\210\317\006,\341\234"
 121      6FE4EE1D 
 121      72E53988 
 121      CF062CE1 
 121      9C
 122 0135 4C94471B 		.ascii	"L\224G\033\331\231\324\354c\350\260,\267\317\214^\237"
ARM GAS  /tmp/ccNLiF6t.s 			page 9


 122      D999D4EC 
 122      63E8B02C 
 122      B7CF8C5E 
 122      9F
 123 0146 11643943 		.ascii	"\021d9C\302=8\023 \3630z\034\035\221\341\215,\277\272"
 123      C23D3813 
 123      20F3307A 
 123      1C1D91E1 
 123      8D2CBFBA 
 124 015a E4FF42BE 		.ascii	"\344\377B\276\330\273\373G\024\271\227\"\377\002#\011"
 124      D8BBFB47 
 124      14B99722 
 124      FF022309 
 125 016a 1FC68FAB 		.ascii	"\037\306\217\2538\022N\317dq\351s|\000\001\243\257\325"
 125      38124ECF 
 125      6471E973 
 125      7C0001A3 
 125      AFD5
 126 017c 06499F87 		.ascii	"\006I\237\207\221\325\341\313\320!\271{f\346\317c\377"
 126      91D5E1CB 
 126      D021B97B 
 126      66E6CF63 
 126      FF
 127 018d 7EE42539 		.ascii	"~\344%9\332*\307b\333\321\022\264\017\234#\364e\034"
 127      DA2AC762 
 127      DBD112B4 
 127      0F9C23F4 
 127      651C
 128 019f 91F053DF 		.ascii	"\221\360S\337\320\365\200\340\037\301K\324\326z\233"
 128      D0F580E0 
 128      1FC14BD4 
 128      D67A9B
 129 01ae 62534007 		.ascii	"bS@\0071\357\004B\337E\275\004O\356\223m\024\215\214"
 129      31EF0442 
 129      DF45BD04 
 129      4FEE936D 
 129      148D8C
 130 01c1 EFC3CB78 		.ascii	"\357\303\313x\252G\261\300v(\274\242'\367\216cy\257"
 130      AA47B1C0 
 130      7628BCA2 
 130      27F78E63 
 130      79AF
 131 01d3 7C3F16B3 		.ascii	"|?\026\263\251\346\004\364\232)\003\307\264\006\376"
 131      A9E604F4 
 131      9A2903C7 
 131      B406FE
 132 01e2 30DFC04C 		.ascii	"0\337\300L\373\314\245\266\271V\274\247\245\373\234"
 132      FBCCA5B6 
 132      B956BCA7 
 132      A5FB9C
 133 01f1 3C4BE261 		.ascii	"<K\342a\336\365~\325u\033\3151\224\205v%\227\334p\242"
 133      DEF57ED5 
 133      751BCD31 
 133      94857625 
 133      97DC70A2 
 134 0205 BAEA7B26 		.ascii	"\272\352{&>\372\017n\006\023\022\036\300Y\000\260K\320"
 134      3EFA0F6E 
ARM GAS  /tmp/ccNLiF6t.s 			page 10


 134      0613121E 
 134      C05900B0 
 134      4BD0
 135 0217 2EFC8FB3 		.ascii	".\374\217\263x\366\360\314\014H\306\233\206\274C\320"
 135      78F6F0CC 
 135      0C48C69B 
 135      86BC43D0 
 136 0227 464419F4 		.ascii	"FD\031\364\027]\227\017v\334e]\216\207\365\254\001\310"
 136      175D970F 
 136      76DC655D 
 136      8E87F5AC 
 136      01C8
 137 0239 491EE467 		.ascii	"I\036\344g\330\366;{\034\352\326\213\023\370%y\304j"
 137      D8F63B7B 
 137      1CEAD68B 
 137      13F82579 
 137      C46A
 138 024b DA0CF1B1 		.ascii	"\332\014\361\261S\276+\356a\276\217\277\265\351\323"
 138      53BE2BEE 
 138      61BE8FBF 
 138      B5E9D3
 139 025a FB3B4F8F 		.ascii	"\373;O\217[\007\015#\210\241\021\243\323ZFi\231<\001"
 139      5B070D23 
 139      88A111A3 
 139      D35A4669 
 139      993C01
 140 026d A389C338 		.ascii	"\243\211\3038\261P\364\253oI\371\325K\370U\374\230\251"
 140      B150F4AB 
 140      6F49F9D5 
 140      4BF855FC 
 140      98A9
 141 027f EF3217ED 		.ascii	"\3572\027\355!\324\363\030$\331\021\207\372%J\244\322"
 141      21D4F318 
 141      24D91187 
 141      FA254AA4 
 141      D2
 142 0290 D503734F 		.ascii	"\325\003sO\322\015d\004\347\002\367\363\232(=\020\206"
 142      D20D6404 
 142      E702F7F3 
 142      9A283D10 
 142      86
 143 02a1 701A85A9 		.ascii	"p\032\205\251\312$\012*G;\246\263e\273\322\217t\202"
 143      CA240A2A 
 143      473BA6B3 
 143      65BBD28F 
 143      7482
 144 02b3 AE5ECB51 		.ascii	"\256^\313Q\267\334\332\022\3357\335\365-\271{\004 \317"
 144      B7DCDA12 
 144      DD37DDF5 
 144      2DB97B04 
 144      20CF
 145 02c5 D03DEC12 		.ascii	"\320=\354\022\245@\346\352E@mrA\345\361^\234\316n\227"
 145      A540E6EA 
 145      45406D72 
 145      41E5F15E 
 145      9CCE6E97 
 146 02d9 E260572C 		.ascii	"\342`W,\203\345q`\235,\330U3`\031\306\314\016\260`\327"
ARM GAS  /tmp/ccNLiF6t.s 			page 11


 146      83E57160 
 146      9D2CD855 
 146      336019C6 
 146      CC0EB060 
 147 02ee 2D83F1CC 		.ascii	"-\203\361\314\272X\260\217\315\200-4fv\210\005\273i"
 147      BA58B08F 
 147      CD802D34 
 147      66768805 
 147      BB69
 148 0300 198C67D6 		.ascii	"\031\214g\326\317\202}j\006l\2511\263\001\026\3543\313"
 148      CF827D6A 
 148      066CA931 
 148      B30116EC 
 148      33CB
 149 0312 603CB3E3 		.ascii	"`<\263\343,\330\347f\300\362\214\231\235`\301b\226\301"
 149      2CD8E766 
 149      C0F28C99 
 149      9D60C162 
 149      96C1
 150 0324 7866832C 		.ascii	"xf\203,X\213\335\004\330\367\214\231\015\261`\317Z\006"
 150      588BDD04 
 150      D8F78C99 
 150      0DB160CF 
 150      5A06
 151 0336 E3999D62 		.ascii	"\343\231\235b\301\332\314\200\345\0331k\216\016\377"
 151      C1DACC80 
 151      E51B316B 
 151      8E0EFF
 152 0345 BC5D5A84 		.ascii	"\274]Z\204\332\325-EA\215o+\230O-vX\217\3610\011\337"
 152      DAD52D45 
 152      418D6F2B 
 152      984F2D76 
 152      588FF130 
 153 035b C08B688B 		.ascii	"\300\213h\213n\237r\342?hv\246.G2\343C\345\037D\362"
 153      6E9F72E2 
 153      3F6876A6 
 153      2E4732E3 
 153      43E51F44 
 154 0370 F3571BC9 		.ascii	"\363W\033\311\335\232\035\005n?\257u\233g\241\3477\037"
 154      DD9A1D05 
 154      6E3FAF75 
 154      9B67A1E7 
 154      371F
 155 0382 C40B6C10 		.ascii	"\304\013l\020;\314\004q\2451\330;,X\247\031\260J\343"
 155      3BCC0471 
 155      A531D83B 
 155      2C58A719 
 155      B04AE3
 156 0395 5C9964C1 		.ascii	"\\\231d\301\272,\203\361\314\246X\260\0363`\353\214"
 156      BA2C83F1 
 156      CCA658B0 
 156      1E3360EB 
 156      8C
 157 03a6 995D66C1 		.ascii	"\231]f\301\016[\006c\2315G\337O&^\367JM\346\255\344"
 157      0E5B0663 
 157      993547DF 
 157      4F265EF7 
ARM GAS  /tmp/ccNLiF6t.s 			page 12


 157      4A4DE6AD 
 158 03bb 775B6E58 		.ascii	"w[nX\217\3410\011\337\262\234x\267\015\022\017s\211"
 158      8FE13009 
 158      DFB29C78 
 158      B70D120F 
 158      7389
 159 03cd 773B9978 		.ascii	"w;\231xG\265ns$\324\346\006\235\030\352]\354?j\011\237"
 159      47B56E73 
 159      24D4E606 
 159      9D18EA5D 
 159      EC3F6A09 
 160 03e2 A5078931 		.ascii	"\245\007\2111\274\034\364y\252\307\251~\233\352\011"
 160      BC1CF479 
 160      AAC7A97E 
 160      9BEA09
 161 03f1 AA2F52FD 		.ascii	"\252/R\375.\325\227\250~\217\352+TOS}\225\352kT\177"
 161      2ED597A8 
 161      7E8FEA2B 
 161      544F537D 
 161      95EA6B54 
 162 0406 40F54754 		.ascii	"@\365GT\177B\365M\252\377E\365\247T\317\202N\\\232S"
 162      7F42F54D 
 162      AAFF45F5 
 162      A754CF82 
 162      4E5C9A53 
 163 041a EF88C1FA 		.ascii	"\357\210\301\372\022\356w\222\007\245\370\326\320\231"
 163      12EE7792 
 163      07A5F8D6 
 163      D099
 164 0428 A3164A33 		.ascii	"\243\026J3\275\362\322\245\211\020d\260aUN$0^\220\360"
 164      BDF2D2A5 
 164      891064B0 
 164      61554E24 
 164      305E90F0 
 165 043c 1C4DA537 		.ascii	"\034M\2457\354X\033\231x|\346\230\365Q\332\361V\014"
 165      EC581B99 
 165      787CE698 
 165      F551DAF1 
 165      560C
 166 044e 27E08BE3 		.ascii	"'\340\213\343\360\351\352\254\273\226\363\340s\203<"
 166      F0E9EAAC 
 166      BB96F3E0 
 166      73833C
 167 045d 70E88785 		.ascii	"p\350\207\205\234\257\215\240\276H\206E3\253?\305\254"
 167      9CAF8DA0 
 167      BE488645 
 167      33AB3FC5 
 167      AC
 168 046e FBC959E4 		.ascii	"\373\311Y\344$\036\235\235\271r\343\334N|\246w\207\334"
 168      241E9D9D 
 168      B972E3DC 
 168      4E7CA677 
 168      87DC
 169 0480 DE3C13DB 		.ascii	"\336<\023\333\376Jta\374X?i7S-}\251\255\226\276\232"
 169      FE4A7461 
 169      FC583F69 
 169      37532D7D 
ARM GAS  /tmp/ccNLiF6t.s 			page 13


 169      A9AD96BE 
 170 0495 5F3A8095 		.ascii	"_:\200\225\256\216k\216x\231\270<n\341cS\026dAc\241"
 170      AE8E6B8E 
 170      7899B83C 
 170      6EE16353 
 170      16644163 
 171 04aa 59D0B330 		.ascii	"Y\320\2630\33166\337\302=S\026Z\264\026Z\365,D\247\336"
 171      D93636DF 
 171      C23D5316 
 171      5AB4165A 
 171      F52C44A7 
 172 04bf CB26318A 		.ascii	"\313&1\21211jK3\203\277C\213\377\254\256\007\3237?Y"
 172      31316A4B 
 172      3383BF43 
 172      8BFFACAE 
 172      07D3373F 
 173 04d4 FADF0159 		.ascii	"\372\337\001Y~N\376*\266\275\2715\341\304\030g\204\026"
 173      7E4EFE2A 
 173      B6BDB935 
 173      E1C41867 
 173      8416
 174 04e6 1A70584E 		.ascii	"\032pXN\303\251L>\2475\271K\327\344\225\033\367:u\027"
 174      C3A94C3E 
 174      A735B94B 
 174      D7E4951B 
 174      F73A7517 
 175 04fa FF8629C7 		.ascii	"\377\206)\307~\257\265\362\274n\340\006\257\237Sk\361"
 175      7EAFB5F2 
 175      BC6EE006 
 175      AF9F536B 
 175      F1
 176 050b 969D42A2 		.ascii	"\226\235B\242l\2343eb\217\326\304^]G\272:\356\314_\375"
 176      6C9C3365 
 176      628FD6C4 
 176      5E5D47BA 
 176      3AEECC5F 
 177 0520 DD0E3316 		.ascii	"\335\0163\026^\320Z\330g\220_\223\363-\274b\312\302"
 177      5ED05AD8 
 177      67905F93 
 177      F32DBC62 
 177      CAC2
 178 0532 7EAD854E 		.ascii	"~\255\205N\3350\335\233\237_\307M\341\037\320\342\277"
 178      DD30DD9B 
 178      9F5FC74D 
 178      E11FD0E2 
 178      BF
 179 0543 6C905F17 		.ascii	"l\220_\027\366\343\375-\262R\276w\357\024\342V\242\216"
 179      F6E3FD2D 
 179      B252BE77 
 179      EF14E256 
 179      A28E
 180 0555 790926E1 		.ascii	"y\011&\341\335I\014=\233\007\2656\017\3616u\352\307"
 180      DD490C3D 
 180      9B07B536 
 180      0FF13675 
 180      EAC7
 181 0567 A82DBE1B 		.ascii	"\250-\276\033\025\243D\031\372\267\273\263\033[\350"
ARM GAS  /tmp/ccNLiF6t.s 			page 14


 181      15A34419 
 181      FAB7BBB3 
 181      1B5BE8
 182 0576 0F1A3D02 		.ascii	"\017\032=\002\251Cw\244?\260\016\345qh\235)h\352\320"
 182      A94377A4 
 182      3FB00EE5 
 182      71689D29 
 182      68EAD0
 183 0589 8353B40E 		.ascii	"\203S\264\016%\375\017\256C\3774\365\002W\207\356U("
 183      25FD0FAE 
 183      43FF34F5 
 183      025787EE 
 183      5528
 184 059b 085FB70E 		.ascii	"\010_\267\016\035\230b\316/\373,\203\345q`\307Y\260"
 184      1D9862CE 
 184      2FFB2C83 
 184      E57160C7 
 184      59B0
 185 05ad 0366C052 		.ascii	"\003f\300R\324\241'X\260C\226\301xf\203,\330\353f\300"
 185      D4A12758 
 185      B04396C1 
 185      7866832C 
 185      D8EB66C0 
 186 05c1 52D4A143 		.ascii	"R\324\241C,X\277e0\236\331)\026\354\244\031\260\024"
 186      2C58BF65 
 186      309ED929 
 186      16ECA419 
 186      B014
 187 05d3 75E8300B 		.ascii	"u\3500\013v\3322\030\317\354\002\0136f\006,\317\230"
 187      76DA3218 
 187      CFEC020B 
 187      3666062C 
 187      CF98
 188 05e5 D93B2CD8 		.ascii	"\331;,\330[\226\301xf\223,\330\0053`)\352\320)\026\354"
 188      5B96C178 
 188      66932CD8 
 188      05336029 
 188      EAD02916 
 189 05fa B265309E 		.ascii	"\262e0\236\331e\026\354\237f\300\014\353\320\226\350"
 189      D96516EC 
 189      9F66C00C 
 189      EBD096E8 
 190 060a FB493009 		.ascii	"\373I0\011\277\211\005\213`y\310\360bw!\011\367\012"
 190      BF89058B 
 190      6079C8F0 
 190      62772109 
 190      F70A
 191 061c E490FD9A 		.ascii	"\344\220\375\232@\016\276}T\037\245\372\030\325\177"
 191      400EBE7D 
 191      541FA5FA 
 191      18D57F
 192 062b A4BA9FEA 		.ascii	"\244\272\237\352\001\252\217S}\202\352A\252\207\250"
 192      01AA8F53 
 192      7D82EA41 
 192      AA87A8
 193 063a 3E45F530 		.ascii	">E\3650\325Q\301\370\000\335c\340\004\341uFH\234\371"
 193      D551C1F8 
ARM GAS  /tmp/ccNLiF6t.s 			page 15


 193      00DD63E0 
 193      04E17546 
 193      489CF9
 194 064d F47ED5E3 		.ascii	"\364~\325\343*ZeW\216\316\265\341<8\225\323\035\371"
 194      2A5A6557 
 194      8ECEB5E1 
 194      3C3895D3 
 194      1DF9
 195 065f C307EFC8 		.ascii	"\303\007\357\310\363k\363Q\355\216<=\256\3742hjG\276"
 195      F36BF351 
 195      ED8E3C3D 
 195      AEFC3268 
 195      6A47BE
 196 0672 36CEEFC8 		.ascii	"6\316\357\310\267)\205\321\257\275#\317\2163\253\376"
 196      B72985D1 
 196      AFBD23CF 
 196      8E33ABFE 
 197 0682 BA205804 		.ascii	"\272 X\004\343\363\361\3268\373[\222\031f)v\344\317"
 197      E3F3F1D6 
 197      38FB5B92 
 197      19662976 
 197      E4CF
 198 0694 58B0E60C 		.ascii	"X\260\346\014\253`)\363q\224\311\307\2634\037\307h\036"
 198      AB6029F3 
 198      7194C9C7 
 198      B3341FC7 
 198      681E
 199 06a6 9DA7FA4D 		.ascii	"\235\247\372M\252\337J\221S#)r\352\037\202Q\3651\224"
 199      AADF4A91 
 199      53232972 
 199      EA1F8251 
 199      F53194
 200 06b9 A2FA9848 		.ascii	"\242\372\230H\316B\217:\033\303!\247?\350\0154\326\372"
 200      CE428F3A 
 200      1BC321A7 
 200      3FE80D34 
 200      D6FA
 201 06cb 9C41DF33 		.ascii	"\234A\3373\001\377\323\316p\244\326\037\214\254\250"
 201      01FFD3CE 
 201      70A4D61F 
 201      8CACA8
 202 06da 43198D70 		.ascii	"C\031\215p/*\024#\216Uk\326\347\271\320\023z\243\353"
 202      2F2A1423 
 202      8E556BD6 
 202      E7B9D013 
 202      7AA3EB
 203 06ed 256F9D3F 		.ascii	"%o\235?\350s\212\265\276MRc \"F\266m\361\205a\366C\242"
 203      E8738AB5 
 203      BE4D5263 
 203      202246B6 
 203      6DF18561 
 204 0704 189F5FB4 		.ascii	"\030\237_\264b\205S\371k\010;\353\244\200sKC(\022vz"
 204      628553F9 
 204      6B083BEB 
 204      A480734B 
 204      43281276 
 205 0719 6AAA8B0A 		.ascii	"j\252\213\012\235\253W\2279k\252\252\267\026\2207b8"
ARM GAS  /tmp/ccNLiF6t.s 			page 16


 205      9DAB5797 
 205      396BAAAA 
 205      B7169037 
 205      6238
 206 072b 220602B5 		.ascii	"\"\006\002\265+\274(\343\247>o\244!T\234\237\245t\211"
 206      2BBC28E3 
 206      A73E6FA4 
 206      21549C9F 
 206      A57489
 207 073e FEA03FF2 		.ascii	"\376\240?\362\004\013\344m\250\257o\010\252X%\356jW"
 207      040BE46D 
 207      A8AF6F08 
 207      AA5825EE 
 207      6A57
 208 0750 7593D35B 		.ascii	"u\223\323[\347m\010\371\304\255O\326\003\203\357\233"
 208      E76D08F9 
 208      C4AD4FD6 
 208      0383EF9B 
 209 0760 1B4D3C0D 		.ascii	"\033M<\015\3716K\241z1\222+\222\001\242?\364k\321\267"
 209      F9364BA1 
 209      7A31922B 
 209      9201A23F 
 209      F46BD1B7 
 210 0774 C51F68D8 		.ascii	"\305\037h\330\334\350[\306\242\204\"\011\377\275u\341"
 210      DCE85BC6 
 210      A2842209 
 210      FFBD75E1 
 211 0784 6DC4CF5C 		.ascii	"m\304\317\\o\235g[\270\306_\357\013UJ\301\332\200/T"
 211      6F9D675B 
 211      B8C65FEF 
 211      0B554AC1 
 211      DA802F54 
 212 0798 F5037D7F 		.ascii	"\365\003}\177U\012\252\361\340V\277\027\246/$\367\362"
 212      550AAAF1 
 212      E056BF17 
 212      A62F24F7 
 212      F2
 213 07a9 A0F474C0 		.ascii	"\240\364t\300\247x\\h.X\341H=\011\255\2378\232\225x"
 213      A7785C68 
 213      2E58E148 
 213      3D09AD9F 
 213      389A9578 
 214 07bd 10233697 		.ascii	"\020#6\227\273\000\244\320\356\251v\271\355eU\345n\301"
 214      BB00A4D0 
 214      EEA976B9 
 214      ED6555E5 
 214      6EC1
 215 07cf E3       		.ascii	"\343"
 216 07d0 B695AF72 		.ascii	"\266\225\257r\247\271\\\325\356\002\252\013\355.W\271"
 216      A7B95CD5 
 216      EE02AA0B 
 216      ED2E57B9 
 217 07e0 DBE65A53 		.ascii	"\333\346ZSc[\347q\331J\334n\233\333\005\3170\241\264"
 217      635BE771 
 217      D94ADC6E 
 217      9BDB05CF 
 217      30A1B4
ARM GAS  /tmp/ccNLiF6t.s 			page 17


 218 07f3 ACC66D2B 		.ascii	"\254\306m+#3\253K\334\302ZeV\021\214\337\340\266{\353"
 218      2333AB4B 
 218      DCC25A65 
 218      56118CDF 
 218      E0B67BEB 
 219 0807 A4D0322D 		.ascii	"\244\3202-\273\2060(\010\013\271\223h\220;\304cu\203"
 219      BB863028 
 219      080BB993 
 219      68903BC4 
 219      637583
 220 081a F75715A1 		.ascii	"\367W\025\241\206\372*\217{!\015\020\323\221Kc\034\200"
 220      86FA2A8F 
 220      7B210D10 
 220      D3914B63 
 220      1C80
 221 082c 0E7113F4 		.ascii	"\016q\023\364\210\376p(3\321U\240\263h\276\246\210\323"
 221      88FE7028 
 221      33D155A0 
 221      B368BEA6 
 221      88D3
 222 083e 55EDA9F2 		.ascii	"U\355\251\362$\203_\037\366\207\305\315^\022\301\005"
 222      24835F1F 
 222      F687C5CD 
 222      5E12C105 
 223 084e A258EB0F 		.ascii	"\242X\353\017\223\000\222u[ \005\236\221\266\205!]\002"
 223      93009275 
 223      5B20059E 
 223      91B68521 
 223      5D02
 224 0860 90968F10 		.ascii	"\220\226\217\020:k\371\325Y\254R\\\037\0140\234(I\256"
 224      3A6BF9D5 
 224      59AC525C 
 224      1F0C309C 
 224      2849AE
 225 0873 6B31E5D4 		.ascii	"k1\345\324\030\344\210f1\235\331\242\350\013\306\355"
 225      18E48866 
 225      319DD9A2 
 225      E80BC6ED 
 226 0883 16A7E4ED 		.ascii	"\026\247\344\355\251Q\026\260\"\277\251IY\272M\371E"
 226      A95116B0 
 226      22BFA949 
 226      59BA4DF9 
 226      45
 227 0894 F94DC564 		.ascii	"\371M\305d\361\334.\227X\003\037M\231o\223\000\201w"
 227      F1DC2E97 
 227      58031F4D 
 227      996F9300 
 227      8177
 228 08a6 55AC82A5 		.ascii	"U\254\202\245\250rg\224\254+-t{jh\243\2004\034%\225"
 228      A8726794 
 228      AC2B2D74 
 228      7B6A68A3 
 228      80341C25 
 229 08bb A5E56BDC 		.ascii	"\245\345k\334\351\344\205z/\200;\254\031Y<\017tT\226"
 229      E9E4857A 
 229      2F803BAC 
 229      19593C0F 
ARM GAS  /tmp/ccNLiF6t.s 			page 18


 229      745496
 230 08ce 92716904 		.ascii	"\222qi\004\242\220\352\242\234\262\322U\325\256\365"
 230      A290EAA2 
 230      9CB2D255 
 230      D5AEF5
 231 08dd 71038EAA 		.ascii	"q\003\216\2522\327\332\262r\007\231Z\261\221\334\012"
 231      32D7DAB2 
 231      7207995A 
 231      B191DC0A 
 232 08ed 2B36FE0F 		.ascii	"+6\376\017\332\177S\276"
 232      DA7F53BE 
 233              		.text
 234              		.section	.gnu.lto_.symtab.45b8977494ea395d,"",%progbits
 235 0000 56656374 		.ascii	"Vector80\000\000\000\000\000\000\000\000\000\000\000"
 235      6F723830 
 235      00000000 
 235      00000000 
 235      000000
 236 0013 00A80000 		.ascii	"\000\250\000\000\000st_lld_init\000\000\000\000\000"
 236      0073745F 
 236      6C6C645F 
 236      696E6974 
 236      00000000 
 237 0028 00000000 		.ascii	"\000\000\000\000\000\000\000\254\000\000\000_port_i"
 237      000000AC 
 237      0000005F 
 237      706F7274 
 237      5F69
 238 003a 72715F65 		.ascii	"rq_epilogue\000\000\002\000\000\000\000\000\000\000"
 238      70696C6F 
 238      67756500 
 238      00020000 
 238      00000000 
 239 004f 0000AF00 		.ascii	"\000\000\257\000\000\000chSysTimerHandlerI\000\000\002"
 239      00006368 
 239      53797354 
 239      696D6572 
 239      48616E64 
 240 006a 00000000 		.ascii	"\000\000\000\000\000\000\000\000\000\266\000\000\000"
 240      00000000 
 240      00B60000 
 240      00
 241 0077 6E766963 		.ascii	"nvicEnableVector\000\000\002\000\000\000\000\000\000"
 241      456E6162 
 241      6C655665 
 241      63746F72 
 241      00000200 
 242 0090 000000B9 		.ascii	"\000\000\000\271\000\000\000"
 242      000000
 243              		.text
 244              		.section	.gnu.lto_.opts,"",%progbits
 245 0000 272D6D63 		.ascii	"'-mcpu=cortex-m0' '-mno-thumb-interwork' '-mthumb' "
 245      70753D63 
 245      6F727465 
 245      782D6D30 
 245      2720272D 
 246 0033 272D6767 		.ascii	"'-ggdb' '-O2' '-fomit-frame-pointer' '-falign-funct"
ARM GAS  /tmp/ccNLiF6t.s 			page 19


 246      64622720 
 246      272D4F32 
 246      2720272D 
 246      666F6D69 
 247 0066 696F6E73 		.ascii	"ions=16' '-ffunction-sections' '-fdata-sections' '-"
 247      3D313627 
 247      20272D66 
 247      66756E63 
 247      74696F6E 
 248 0099 666E6F2D 		.ascii	"fno-common' '-flto'\000"
 248      636F6D6D 
 248      6F6E2720 
 248      272D666C 
 248      746F2700 
 249              		.text
 250              		.cfi_sections	.debug_frame
 251              		.section	.text.Vector80,"ax",%progbits
 252              		.align	2
 253              		.p2align 4,,15
 254              		.global	Vector80
 255              		.code	16
 256              		.thumb_func
 257              		.type	Vector80, %function
 258              	Vector80:
 259              	.LFB179:
 260              		.file 1 "../../../os/hal/ports/STM32/LLD/TIMv1/hal_st_lld.c"
 261              		.loc 1 239 0
 262              		.cfi_startproc
 263              		.loc 1 246 0
 264 0000 074B     		ldr	r3, .L7
 265              		.loc 1 239 0
 266 0002 10B5     		push	{r4, lr}
 267              		.cfi_def_cfa_offset 8
 268              		.cfi_offset 4, -8
 269              		.cfi_offset 14, -4
 270              		.loc 1 246 0
 271 0004 1A69     		ldr	r2, [r3, #16]
 272              		.loc 1 241 0
 273 0006 7446     		mov	r4, lr
 274              	.LVL0:
 275              		.loc 1 246 0
 276 0008 9107     		lsl	r1, r2, #30
 277 000a 05D5     		bpl	.L2
 278              		.loc 1 247 0
 279 000c 0022     		mov	r2, #0
 280 000e 1A61     		str	r2, [r3, #16]
 281              	.LBB52:
 282              	.LBB53:
 283              	.LBB54:
 284              	.LBB55:
 285              	.LBB56:
 286              	.LBB57:
 287              		.file 2 "../../../os/common/ext/CMSIS/include/cmsis_gcc.h"
 288              		.loc 2 71 0
 289              	@ 71 "../../../os/common/ext/CMSIS/include/cmsis_gcc.h" 1
 290 0010 72B6     		cpsid i
 291              	@ 0 "" 2
ARM GAS  /tmp/ccNLiF6t.s 			page 20


 292              		.code	16
 293              	.LBE57:
 294              	.LBE56:
 295              	.LBE55:
 296              	.LBE54:
 297              	.LBE53:
 298              	.LBE52:
 299              	.LBB58:
 300              	.LBB59:
 301              		.file 3 "../../../os/hal/osal/rt/osal.h"
 302              		.loc 3 585 0
 303 0012 FFF7FEFF 		bl	chSysTimerHandlerI
 304              	.LVL1:
 305              	.LBE59:
 306              	.LBE58:
 307              	.LBB60:
 308              	.LBB61:
 309              	.LBB62:
 310              	.LBB63:
 311              	.LBB64:
 312              	.LBB65:
 313              		.loc 2 60 0
 314              	@ 60 "../../../os/common/ext/CMSIS/include/cmsis_gcc.h" 1
 315 0016 62B6     		cpsie i
 316              	@ 0 "" 2
 317              		.code	16
 318              	.L2:
 319              	.LBE65:
 320              	.LBE64:
 321              	.LBE63:
 322              	.LBE62:
 323              	.LBE61:
 324              	.LBE60:
 325              		.loc 1 254 0
 326 0018 201C     		mov	r0, r4
 327 001a FFF7FEFF 		bl	_port_irq_epilogue
 328              	.LVL2:
 329              		.loc 1 255 0
 330              		@ sp needed
 331              	.LVL3:
 332 001e 10BD     		pop	{r4, pc}
 333              	.L8:
 334              		.align	2
 335              	.L7:
 336 0020 00040040 		.word	1073742848
 337              		.cfi_endproc
 338              	.LFE179:
 339              		.size	Vector80, .-Vector80
 340 0024 C046C046 		.section	.text.st_lld_init,"ax",%progbits
 340      C046C046 
 340      C046C046 
 341              		.align	2
 342              		.p2align 4,,15
 343              		.global	st_lld_init
 344              		.code	16
 345              		.thumb_func
 346              		.type	st_lld_init, %function
ARM GAS  /tmp/ccNLiF6t.s 			page 21


 347              	st_lld_init:
 348              	.LFB180:
 349              		.loc 1 267 0
 350              		.cfi_startproc
 351 0000 08B5     		push	{r3, lr}
 352              		.cfi_def_cfa_offset 8
 353              		.cfi_offset 3, -8
 354              		.cfi_offset 14, -4
 355              		.loc 1 273 0
 356 0002 0D4B     		ldr	r3, .L10
 357 0004 0222     		mov	r2, #2
 358 0006 D969     		ldr	r1, [r3, #28]
 359              		.loc 1 289 0
 360 0008 1020     		mov	r0, #16
 361              		.loc 1 273 0
 362 000a 1143     		orr	r1, r2
 363 000c D961     		str	r1, [r3, #28]
 364              		.loc 1 276 0
 365 000e 0B4B     		ldr	r3, .L10+4
 366              		.loc 1 304 0
 367              		@ sp needed
 368              		.loc 1 276 0
 369 0010 9968     		ldr	r1, [r3, #8]
 370 0012 0A43     		orr	r2, r1
 371 0014 9A60     		str	r2, [r3, #8]
 372              		.loc 1 279 0
 373 0016 0A4B     		ldr	r3, .L10+8
 374 0018 0A4A     		ldr	r2, .L10+12
 375              		.loc 1 289 0
 376 001a 0221     		mov	r1, #2
 377              		.loc 1 279 0
 378 001c 9A62     		str	r2, [r3, #40]
 379              		.loc 1 280 0
 380 001e 0A4A     		ldr	r2, .L10+16
 381 0020 DA62     		str	r2, [r3, #44]
 382              		.loc 1 281 0
 383 0022 0022     		mov	r2, #0
 384 0024 9A61     		str	r2, [r3, #24]
 385              		.loc 1 282 0
 386 0026 5A63     		str	r2, [r3, #52]
 387              		.loc 1 283 0
 388 0028 DA60     		str	r2, [r3, #12]
 389              		.loc 1 284 0
 390 002a 5A60     		str	r2, [r3, #4]
 391              		.loc 1 285 0
 392 002c 0122     		mov	r2, #1
 393 002e 5A61     		str	r2, [r3, #20]
 394              		.loc 1 286 0
 395 0030 1A60     		str	r2, [r3]
 396              		.loc 1 289 0
 397 0032 FFF7FEFF 		bl	nvicEnableVector
 398              	.LVL4:
 399              		.loc 1 304 0
 400 0036 08BD     		pop	{r3, pc}
 401              	.L11:
 402              		.align	2
 403              	.L10:
ARM GAS  /tmp/ccNLiF6t.s 			page 22


 404 0038 00100240 		.word	1073876992
 405 003c 00580140 		.word	1073829888
 406 0040 00040040 		.word	1073742848
 407 0044 7FBB0000 		.word	47999
 408 0048 FFFF0000 		.word	65535
 409              		.cfi_endproc
 410              	.LFE180:
 411              		.size	st_lld_init, .-st_lld_init
 412 004c C046C046 		.text
 413              	.Letext0:
 414              		.file 4 "/usr/include/newlib/machine/_default_types.h"
 415              		.file 5 "/usr/include/newlib/stdint.h"
 416              		.file 6 "../../../os/common/ports/ARMCMx/compilers/GCC/chtypes.h"
 417              		.file 7 "../../../os/rt/include/chsystypes.h"
 418              		.file 8 "../../../os/rt/include/chschd.h"
 419              		.file 9 "../../../os/common/ext/CMSIS/ST/STM32F0xx/stm32f030x8.h"
 420              		.file 10 "../../../os/common/ports/ARMCMx/chcore.h"
 421              		.file 11 "../../../os/common/ports/ARMCMx/chcore_v6m.h"
 422              		.file 12 "../../../os/hal/ports/STM32/LLD/TIMv1/stm32_tim.h"
 423              		.file 13 "../../../os/rt/include/chsem.h"
 424              		.file 14 "../../../os/rt/include/chmtx.h"
 425              		.file 15 "../../../os/rt/include/chsys.h"
 426              		.file 16 "../../../os/hal/ports/common/ARMCMx/nvic.h"
 427              		.section	.debug_info,"",%progbits
 428              	.Ldebug_info0:
 429 0000 E6090000 		.4byte	0x9e6
 430 0004 0400     		.2byte	0x4
 431 0006 00000000 		.4byte	.Ldebug_abbrev0
 432 000a 04       		.byte	0x4
 433 000b 01       		.uleb128 0x1
 434 000c 55010000 		.4byte	.LASF127
 435 0010 01       		.byte	0x1
 436 0011 50050000 		.4byte	.LASF128
 437 0015 09060000 		.4byte	.LASF129
 438 0019 00000000 		.4byte	.Ldebug_ranges0+0
 439 001d 00000000 		.4byte	0
 440 0021 00000000 		.4byte	.Ldebug_line0
 441 0025 02       		.uleb128 0x2
 442 0026 04       		.byte	0x4
 443 0027 05       		.byte	0x5
 444 0028 696E7400 		.ascii	"int\000"
 445 002c 03       		.uleb128 0x3
 446 002d 04       		.byte	0x4
 447 002e 07       		.byte	0x7
 448 002f 7A000000 		.4byte	.LASF0
 449 0033 03       		.uleb128 0x3
 450 0034 01       		.byte	0x1
 451 0035 06       		.byte	0x6
 452 0036 B5050000 		.4byte	.LASF1
 453 003a 04       		.uleb128 0x4
 454 003b A9040000 		.4byte	.LASF4
 455 003f 04       		.byte	0x4
 456 0040 1D       		.byte	0x1d
 457 0041 45000000 		.4byte	0x45
 458 0045 03       		.uleb128 0x3
 459 0046 01       		.byte	0x1
 460 0047 08       		.byte	0x8
ARM GAS  /tmp/ccNLiF6t.s 			page 23


 461 0048 19050000 		.4byte	.LASF2
 462 004c 03       		.uleb128 0x3
 463 004d 02       		.byte	0x2
 464 004e 05       		.byte	0x5
 465 004f 35040000 		.4byte	.LASF3
 466 0053 04       		.uleb128 0x4
 467 0054 78020000 		.4byte	.LASF5
 468 0058 04       		.byte	0x4
 469 0059 2B       		.byte	0x2b
 470 005a 5E000000 		.4byte	0x5e
 471 005e 03       		.uleb128 0x3
 472 005f 02       		.byte	0x2
 473 0060 07       		.byte	0x7
 474 0061 C7050000 		.4byte	.LASF6
 475 0065 04       		.uleb128 0x4
 476 0066 A0000000 		.4byte	.LASF7
 477 006a 04       		.byte	0x4
 478 006b 3F       		.byte	0x3f
 479 006c 70000000 		.4byte	0x70
 480 0070 03       		.uleb128 0x3
 481 0071 04       		.byte	0x4
 482 0072 05       		.byte	0x5
 483 0073 3F040000 		.4byte	.LASF8
 484 0077 04       		.uleb128 0x4
 485 0078 27050000 		.4byte	.LASF9
 486 007c 04       		.byte	0x4
 487 007d 41       		.byte	0x41
 488 007e 82000000 		.4byte	0x82
 489 0082 03       		.uleb128 0x3
 490 0083 04       		.byte	0x4
 491 0084 07       		.byte	0x7
 492 0085 C9040000 		.4byte	.LASF10
 493 0089 03       		.uleb128 0x3
 494 008a 08       		.byte	0x8
 495 008b 05       		.byte	0x5
 496 008c A4030000 		.4byte	.LASF11
 497 0090 04       		.uleb128 0x4
 498 0091 23030000 		.4byte	.LASF12
 499 0095 04       		.byte	0x4
 500 0096 5B       		.byte	0x5b
 501 0097 9B000000 		.4byte	0x9b
 502 009b 03       		.uleb128 0x3
 503 009c 08       		.byte	0x8
 504 009d 07       		.byte	0x7
 505 009e 61020000 		.4byte	.LASF13
 506 00a2 04       		.uleb128 0x4
 507 00a3 75030000 		.4byte	.LASF14
 508 00a7 05       		.byte	0x5
 509 00a8 2A       		.byte	0x2a
 510 00a9 3A000000 		.4byte	0x3a
 511 00ad 04       		.uleb128 0x4
 512 00ae 16040000 		.4byte	.LASF15
 513 00b2 05       		.byte	0x5
 514 00b3 36       		.byte	0x36
 515 00b4 53000000 		.4byte	0x53
 516 00b8 04       		.uleb128 0x4
 517 00b9 EE040000 		.4byte	.LASF16
ARM GAS  /tmp/ccNLiF6t.s 			page 24


 518 00bd 05       		.byte	0x5
 519 00be 41       		.byte	0x41
 520 00bf 65000000 		.4byte	0x65
 521 00c3 04       		.uleb128 0x4
 522 00c4 F8010000 		.4byte	.LASF17
 523 00c8 05       		.byte	0x5
 524 00c9 42       		.byte	0x42
 525 00ca 77000000 		.4byte	0x77
 526 00ce 04       		.uleb128 0x4
 527 00cf 80040000 		.4byte	.LASF18
 528 00d3 05       		.byte	0x5
 529 00d4 4E       		.byte	0x4e
 530 00d5 90000000 		.4byte	0x90
 531 00d9 04       		.uleb128 0x4
 532 00da 03040000 		.4byte	.LASF19
 533 00de 06       		.byte	0x6
 534 00df 3C       		.byte	0x3c
 535 00e0 A2000000 		.4byte	0xa2
 536 00e4 04       		.uleb128 0x4
 537 00e5 65030000 		.4byte	.LASF20
 538 00e9 06       		.byte	0x6
 539 00ea 3D       		.byte	0x3d
 540 00eb A2000000 		.4byte	0xa2
 541 00ef 04       		.uleb128 0x4
 542 00f0 C1040000 		.4byte	.LASF21
 543 00f4 06       		.byte	0x6
 544 00f5 3E       		.byte	0x3e
 545 00f6 A2000000 		.4byte	0xa2
 546 00fa 04       		.uleb128 0x4
 547 00fb 36020000 		.4byte	.LASF22
 548 00ff 06       		.byte	0x6
 549 0100 40       		.byte	0x40
 550 0101 C3000000 		.4byte	0xc3
 551 0105 04       		.uleb128 0x4
 552 0106 C2030000 		.4byte	.LASF23
 553 010a 06       		.byte	0x6
 554 010b 41       		.byte	0x41
 555 010c B8000000 		.4byte	0xb8
 556 0110 04       		.uleb128 0x4
 557 0111 10020000 		.4byte	.LASF24
 558 0115 06       		.byte	0x6
 559 0116 43       		.byte	0x43
 560 0117 C3000000 		.4byte	0xc3
 561 011b 04       		.uleb128 0x4
 562 011c 83020000 		.4byte	.LASF25
 563 0120 06       		.byte	0x6
 564 0121 45       		.byte	0x45
 565 0122 B8000000 		.4byte	0xb8
 566 0126 04       		.uleb128 0x4
 567 0127 5E000000 		.4byte	.LASF26
 568 012b 07       		.byte	0x7
 569 012c 35       		.byte	0x35
 570 012d AD000000 		.4byte	0xad
 571 0131 04       		.uleb128 0x4
 572 0132 BE020000 		.4byte	.LASF27
 573 0136 07       		.byte	0x7
 574 0137 3F       		.byte	0x3f
ARM GAS  /tmp/ccNLiF6t.s 			page 25


 575 0138 3C010000 		.4byte	0x13c
 576 013c 05       		.uleb128 0x5
 577 013d 8B030000 		.4byte	.LASF45
 578 0141 44       		.byte	0x44
 579 0142 08       		.byte	0x8
 580 0143 9A       		.byte	0x9a
 581 0144 1A020000 		.4byte	0x21a
 582 0148 06       		.uleb128 0x6
 583 0149 E8040000 		.4byte	.LASF28
 584 014d 08       		.byte	0x8
 585 014e 9B       		.byte	0x9b
 586 014f 4F020000 		.4byte	0x24f
 587 0153 00       		.byte	0
 588 0154 06       		.uleb128 0x6
 589 0155 3C030000 		.4byte	.LASF29
 590 0159 08       		.byte	0x8
 591 015a 9C       		.byte	0x9c
 592 015b FA000000 		.4byte	0xfa
 593 015f 08       		.byte	0x8
 594 0160 07       		.uleb128 0x7
 595 0161 63747800 		.ascii	"ctx\000"
 596 0165 08       		.byte	0x8
 597 0166 9D       		.byte	0x9d
 598 0167 6E050000 		.4byte	0x56e
 599 016b 0C       		.byte	0xc
 600 016c 06       		.uleb128 0x6
 601 016d FE040000 		.4byte	.LASF30
 602 0171 08       		.byte	0x8
 603 0172 9F       		.byte	0x9f
 604 0173 25020000 		.4byte	0x225
 605 0177 10       		.byte	0x10
 606 0178 06       		.uleb128 0x6
 607 0179 03060000 		.4byte	.LASF31
 608 017d 08       		.byte	0x8
 609 017e A0       		.byte	0xa0
 610 017f 25020000 		.4byte	0x225
 611 0183 14       		.byte	0x14
 612 0184 06       		.uleb128 0x6
 613 0185 B3040000 		.4byte	.LASF32
 614 0189 08       		.byte	0x8
 615 018a A7       		.byte	0xa7
 616 018b EB070000 		.4byte	0x7eb
 617 018f 18       		.byte	0x18
 618 0190 06       		.uleb128 0x6
 619 0191 5E030000 		.4byte	.LASF33
 620 0195 08       		.byte	0x8
 621 0196 B0       		.byte	0xb0
 622 0197 FD070000 		.4byte	0x7fd
 623 019b 1C       		.byte	0x1c
 624 019c 06       		.uleb128 0x6
 625 019d 96050000 		.4byte	.LASF34
 626 01a1 08       		.byte	0x8
 627 01a2 B5       		.byte	0xb5
 628 01a3 E4000000 		.4byte	0xe4
 629 01a7 20       		.byte	0x20
 630 01a8 06       		.uleb128 0x6
 631 01a9 58000000 		.4byte	.LASF35
ARM GAS  /tmp/ccNLiF6t.s 			page 26


 632 01ad 08       		.byte	0x8
 633 01ae B9       		.byte	0xb9
 634 01af D9000000 		.4byte	0xd9
 635 01b3 21       		.byte	0x21
 636 01b4 06       		.uleb128 0x6
 637 01b5 AA000000 		.4byte	.LASF36
 638 01b9 08       		.byte	0x8
 639 01ba BE       		.byte	0xbe
 640 01bb EF000000 		.4byte	0xef
 641 01bf 22       		.byte	0x22
 642 01c0 08       		.uleb128 0x8
 643 01c1 7500     		.ascii	"u\000"
 644 01c3 08       		.byte	0x8
 645 01c4 0F01     		.2byte	0x10f
 646 01c6 20070000 		.4byte	0x720
 647 01ca 24       		.byte	0x24
 648 01cb 09       		.uleb128 0x9
 649 01cc 32050000 		.4byte	.LASF37
 650 01d0 08       		.byte	0x8
 651 01d1 1401     		.2byte	0x114
 652 01d3 2B020000 		.4byte	0x22b
 653 01d7 28       		.byte	0x28
 654 01d8 09       		.uleb128 0x9
 655 01d9 7D030000 		.4byte	.LASF38
 656 01dd 08       		.byte	0x8
 657 01de 1A01     		.2byte	0x11a
 658 01e0 4F020000 		.4byte	0x24f
 659 01e4 2C       		.byte	0x2c
 660 01e5 09       		.uleb128 0x9
 661 01e6 71000000 		.4byte	.LASF39
 662 01ea 08       		.byte	0x8
 663 01eb 2001     		.2byte	0x120
 664 01ed 10010000 		.4byte	0x110
 665 01f1 34       		.byte	0x34
 666 01f2 09       		.uleb128 0x9
 667 01f3 9F020000 		.4byte	.LASF40
 668 01f7 08       		.byte	0x8
 669 01f8 2701     		.2byte	0x127
 670 01fa E5070000 		.4byte	0x7e5
 671 01fe 38       		.byte	0x38
 672 01ff 09       		.uleb128 0x9
 673 0200 68000000 		.4byte	.LASF41
 674 0204 08       		.byte	0x8
 675 0205 2B01     		.2byte	0x12b
 676 0207 FA000000 		.4byte	0xfa
 677 020b 3C       		.byte	0x3c
 678 020c 09       		.uleb128 0x9
 679 020d 4E060000 		.4byte	.LASF42
 680 0211 08       		.byte	0x8
 681 0212 3201     		.2byte	0x132
 682 0214 02030000 		.4byte	0x302
 683 0218 40       		.byte	0x40
 684 0219 00       		.byte	0
 685 021a 04       		.uleb128 0x4
 686 021b 4B030000 		.4byte	.LASF43
 687 021f 07       		.byte	0x7
 688 0220 44       		.byte	0x44
ARM GAS  /tmp/ccNLiF6t.s 			page 27


 689 0221 25020000 		.4byte	0x225
 690 0225 0A       		.uleb128 0xa
 691 0226 04       		.byte	0x4
 692 0227 31010000 		.4byte	0x131
 693 022b 04       		.uleb128 0x4
 694 022c 8C000000 		.4byte	.LASF44
 695 0230 07       		.byte	0x7
 696 0231 49       		.byte	0x49
 697 0232 36020000 		.4byte	0x236
 698 0236 05       		.uleb128 0x5
 699 0237 00000000 		.4byte	.LASF46
 700 023b 04       		.byte	0x4
 701 023c 08       		.byte	0x8
 702 023d 88       		.byte	0x88
 703 023e 4F020000 		.4byte	0x24f
 704 0242 06       		.uleb128 0x6
 705 0243 87000000 		.4byte	.LASF47
 706 0247 08       		.byte	0x8
 707 0248 89       		.byte	0x89
 708 0249 25020000 		.4byte	0x225
 709 024d 00       		.byte	0
 710 024e 00       		.byte	0
 711 024f 04       		.uleb128 0x4
 712 0250 8F020000 		.4byte	.LASF48
 713 0254 07       		.byte	0x7
 714 0255 50       		.byte	0x50
 715 0256 5A020000 		.4byte	0x25a
 716 025a 05       		.uleb128 0x5
 717 025b 06010000 		.4byte	.LASF49
 718 025f 08       		.byte	0x8
 719 0260 08       		.byte	0x8
 720 0261 8F       		.byte	0x8f
 721 0262 7F020000 		.4byte	0x27f
 722 0266 06       		.uleb128 0x6
 723 0267 87000000 		.4byte	.LASF47
 724 026b 08       		.byte	0x8
 725 026c 90       		.byte	0x90
 726 026d 25020000 		.4byte	0x225
 727 0271 00       		.byte	0
 728 0272 06       		.uleb128 0x6
 729 0273 01010000 		.4byte	.LASF50
 730 0277 08       		.byte	0x8
 731 0278 91       		.byte	0x91
 732 0279 25020000 		.4byte	0x225
 733 027d 04       		.byte	0x4
 734 027e 00       		.byte	0
 735 027f 04       		.uleb128 0x4
 736 0280 DB040000 		.4byte	.LASF51
 737 0284 07       		.byte	0x7
 738 0285 57       		.byte	0x57
 739 0286 8A020000 		.4byte	0x28a
 740 028a 0B       		.uleb128 0xb
 741 028b E7000000 		.4byte	.LASF52
 742 028f 1C       		.byte	0x1c
 743 0290 08       		.byte	0x8
 744 0291 6A01     		.2byte	0x16a
 745 0293 E6020000 		.4byte	0x2e6
ARM GAS  /tmp/ccNLiF6t.s 			page 28


 746 0297 09       		.uleb128 0x9
 747 0298 E8040000 		.4byte	.LASF28
 748 029c 08       		.byte	0x8
 749 029d 6B01     		.2byte	0x16b
 750 029f 4F020000 		.4byte	0x24f
 751 02a3 00       		.byte	0
 752 02a4 09       		.uleb128 0x9
 753 02a5 3C030000 		.4byte	.LASF29
 754 02a9 08       		.byte	0x8
 755 02aa 6C01     		.2byte	0x16c
 756 02ac FA000000 		.4byte	0xfa
 757 02b0 08       		.byte	0x8
 758 02b1 08       		.uleb128 0x8
 759 02b2 63747800 		.ascii	"ctx\000"
 760 02b6 08       		.byte	0x8
 761 02b7 6E01     		.2byte	0x16e
 762 02b9 6E050000 		.4byte	0x56e
 763 02bd 0C       		.byte	0xc
 764 02be 09       		.uleb128 0x9
 765 02bf FE040000 		.4byte	.LASF30
 766 02c3 08       		.byte	0x8
 767 02c4 7101     		.2byte	0x171
 768 02c6 25020000 		.4byte	0x225
 769 02ca 10       		.byte	0x10
 770 02cb 09       		.uleb128 0x9
 771 02cc 03060000 		.4byte	.LASF31
 772 02d0 08       		.byte	0x8
 773 02d1 7201     		.2byte	0x172
 774 02d3 25020000 		.4byte	0x225
 775 02d7 14       		.byte	0x14
 776 02d8 09       		.uleb128 0x9
 777 02d9 E5050000 		.4byte	.LASF53
 778 02dd 08       		.byte	0x8
 779 02de 7501     		.2byte	0x175
 780 02e0 25020000 		.4byte	0x225
 781 02e4 18       		.byte	0x18
 782 02e5 00       		.byte	0
 783 02e6 04       		.uleb128 0x4
 784 02e7 3C010000 		.4byte	.LASF54
 785 02eb 07       		.byte	0x7
 786 02ec 5C       		.byte	0x5c
 787 02ed F1020000 		.4byte	0x2f1
 788 02f1 0A       		.uleb128 0xa
 789 02f2 04       		.byte	0x4
 790 02f3 F7020000 		.4byte	0x2f7
 791 02f7 0C       		.uleb128 0xc
 792 02f8 02030000 		.4byte	0x302
 793 02fc 0D       		.uleb128 0xd
 794 02fd 02030000 		.4byte	0x302
 795 0301 00       		.byte	0
 796 0302 0E       		.uleb128 0xe
 797 0303 04       		.byte	0x4
 798 0304 04       		.uleb128 0x4
 799 0305 C8030000 		.4byte	.LASF55
 800 0309 07       		.byte	0x7
 801 030a 61       		.byte	0x61
 802 030b 0F030000 		.4byte	0x30f
ARM GAS  /tmp/ccNLiF6t.s 			page 29


 803 030f 0B       		.uleb128 0xb
 804 0310 3E020000 		.4byte	.LASF56
 805 0314 14       		.byte	0x14
 806 0315 08       		.byte	0x8
 807 0316 4501     		.2byte	0x145
 808 0318 5E030000 		.4byte	0x35e
 809 031c 09       		.uleb128 0x9
 810 031d 87000000 		.4byte	.LASF47
 811 0321 08       		.byte	0x8
 812 0322 4601     		.2byte	0x146
 813 0324 03080000 		.4byte	0x803
 814 0328 00       		.byte	0
 815 0329 09       		.uleb128 0x9
 816 032a 01010000 		.4byte	.LASF50
 817 032e 08       		.byte	0x8
 818 032f 4701     		.2byte	0x147
 819 0331 03080000 		.4byte	0x803
 820 0335 04       		.byte	0x4
 821 0336 09       		.uleb128 0x9
 822 0337 C1050000 		.4byte	.LASF57
 823 033b 08       		.byte	0x8
 824 033c 4801     		.2byte	0x148
 825 033e 26010000 		.4byte	0x126
 826 0342 08       		.byte	0x8
 827 0343 09       		.uleb128 0x9
 828 0344 F5000000 		.4byte	.LASF58
 829 0348 08       		.byte	0x8
 830 0349 4901     		.2byte	0x149
 831 034b E6020000 		.4byte	0x2e6
 832 034f 0C       		.byte	0xc
 833 0350 08       		.uleb128 0x8
 834 0351 70617200 		.ascii	"par\000"
 835 0355 08       		.byte	0x8
 836 0356 4B01     		.2byte	0x14b
 837 0358 02030000 		.4byte	0x302
 838 035c 10       		.byte	0x10
 839 035d 00       		.byte	0
 840 035e 04       		.uleb128 0x4
 841 035f 3A050000 		.4byte	.LASF59
 842 0363 07       		.byte	0x7
 843 0364 66       		.byte	0x66
 844 0365 69030000 		.4byte	0x369
 845 0369 0B       		.uleb128 0xb
 846 036a A7020000 		.4byte	.LASF60
 847 036e 0C       		.byte	0xc
 848 036f 08       		.byte	0x8
 849 0370 5501     		.2byte	0x155
 850 0372 AB030000 		.4byte	0x3ab
 851 0376 09       		.uleb128 0x9
 852 0377 87000000 		.4byte	.LASF47
 853 037b 08       		.byte	0x8
 854 037c 5601     		.2byte	0x156
 855 037e 03080000 		.4byte	0x803
 856 0382 00       		.byte	0
 857 0383 09       		.uleb128 0x9
 858 0384 01010000 		.4byte	.LASF50
 859 0388 08       		.byte	0x8
ARM GAS  /tmp/ccNLiF6t.s 			page 30


 860 0389 5801     		.2byte	0x158
 861 038b 03080000 		.4byte	0x803
 862 038f 04       		.byte	0x4
 863 0390 09       		.uleb128 0x9
 864 0391 C1050000 		.4byte	.LASF57
 865 0395 08       		.byte	0x8
 866 0396 5A01     		.2byte	0x15a
 867 0398 26010000 		.4byte	0x126
 868 039c 08       		.byte	0x8
 869 039d 09       		.uleb128 0x9
 870 039e 77040000 		.4byte	.LASF61
 871 03a2 08       		.byte	0x8
 872 03a3 6201     		.2byte	0x162
 873 03a5 26010000 		.4byte	0x126
 874 03a9 0A       		.byte	0xa
 875 03aa 00       		.byte	0
 876 03ab 04       		.uleb128 0x4
 877 03ac 95030000 		.4byte	.LASF62
 878 03b0 07       		.byte	0x7
 879 03b1 6B       		.byte	0x6b
 880 03b2 B6030000 		.4byte	0x3b6
 881 03b6 0B       		.uleb128 0xb
 882 03b7 45010000 		.4byte	.LASF63
 883 03bb 04       		.byte	0x4
 884 03bc 08       		.byte	0x8
 885 03bd 7C01     		.2byte	0x17c
 886 03bf D1030000 		.4byte	0x3d1
 887 03c3 09       		.uleb128 0x9
 888 03c4 EC030000 		.4byte	.LASF64
 889 03c8 08       		.byte	0x8
 890 03c9 8401     		.2byte	0x184
 891 03cb 09080000 		.4byte	0x809
 892 03cf 00       		.byte	0
 893 03d0 00       		.byte	0
 894 03d1 04       		.uleb128 0x4
 895 03d2 9C050000 		.4byte	.LASF65
 896 03d6 07       		.byte	0x7
 897 03d7 70       		.byte	0x70
 898 03d8 DC030000 		.4byte	0x3dc
 899 03dc 0B       		.uleb128 0xb
 900 03dd 61040000 		.4byte	.LASF66
 901 03e1 70       		.byte	0x70
 902 03e2 08       		.byte	0x8
 903 03e3 9C01     		.2byte	0x19c
 904 03e5 1E040000 		.4byte	0x41e
 905 03e9 09       		.uleb128 0x9
 906 03ea 8E040000 		.4byte	.LASF67
 907 03ee 08       		.byte	0x8
 908 03ef A001     		.2byte	0x1a0
 909 03f1 7F020000 		.4byte	0x27f
 910 03f5 00       		.byte	0
 911 03f6 09       		.uleb128 0x9
 912 03f7 C0000000 		.4byte	.LASF68
 913 03fb 08       		.byte	0x8
 914 03fc A401     		.2byte	0x1a4
 915 03fe 5E030000 		.4byte	0x35e
 916 0402 1C       		.byte	0x1c
ARM GAS  /tmp/ccNLiF6t.s 			page 31


 917 0403 08       		.uleb128 0x8
 918 0404 64626700 		.ascii	"dbg\000"
 919 0408 08       		.byte	0x8
 920 0409 A801     		.2byte	0x1a8
 921 040b AB030000 		.4byte	0x3ab
 922 040f 28       		.byte	0x28
 923 0410 09       		.uleb128 0x9
 924 0411 0B040000 		.4byte	.LASF69
 925 0415 08       		.byte	0x8
 926 0416 AC01     		.2byte	0x1ac
 927 0418 31010000 		.4byte	0x131
 928 041c 2C       		.byte	0x2c
 929 041d 00       		.byte	0
 930 041e 03       		.uleb128 0x3
 931 041f 04       		.byte	0x4
 932 0420 07       		.byte	0x7
 933 0421 B8040000 		.4byte	.LASF70
 934 0425 0F       		.uleb128 0xf
 935 0426 C3000000 		.4byte	0xc3
 936 042a 10       		.uleb128 0x10
 937 042b C3000000 		.4byte	0xc3
 938 042f 3A040000 		.4byte	0x43a
 939 0433 11       		.uleb128 0x11
 940 0434 1E040000 		.4byte	0x41e
 941 0438 01       		.byte	0x1
 942 0439 00       		.byte	0
 943 043a 12       		.uleb128 0x12
 944 043b 10       		.byte	0x10
 945 043c 09       		.byte	0x9
 946 043d B5       		.byte	0xb5
 947 043e 72040000 		.4byte	0x472
 948 0442 06       		.uleb128 0x6
 949 0443 B2030000 		.4byte	.LASF71
 950 0447 09       		.byte	0x9
 951 0448 B7       		.byte	0xb7
 952 0449 25040000 		.4byte	0x425
 953 044d 00       		.byte	0
 954 044e 07       		.uleb128 0x7
 955 044f 435200   		.ascii	"CR\000"
 956 0452 09       		.byte	0x9
 957 0453 B8       		.byte	0xb8
 958 0454 25040000 		.4byte	0x425
 959 0458 04       		.byte	0x4
 960 0459 06       		.uleb128 0x6
 961 045a 09020000 		.4byte	.LASF72
 962 045e 09       		.byte	0x9
 963 045f B9       		.byte	0xb9
 964 0460 25040000 		.4byte	0x425
 965 0464 08       		.byte	0x8
 966 0465 06       		.uleb128 0x6
 967 0466 F6030000 		.4byte	.LASF73
 968 046a 09       		.byte	0x9
 969 046b BA       		.byte	0xba
 970 046c 25040000 		.4byte	0x425
 971 0470 0C       		.byte	0xc
 972 0471 00       		.byte	0
 973 0472 04       		.uleb128 0x4
ARM GAS  /tmp/ccNLiF6t.s 			page 32


 974 0473 2D010000 		.4byte	.LASF74
 975 0477 09       		.byte	0x9
 976 0478 BB       		.byte	0xbb
 977 0479 3A040000 		.4byte	0x43a
 978 047d 10       		.uleb128 0x10
 979 047e C3000000 		.4byte	0xc3
 980 0482 8D040000 		.4byte	0x48d
 981 0486 11       		.uleb128 0x11
 982 0487 1E040000 		.4byte	0x41e
 983 048b 03       		.byte	0x3
 984 048c 00       		.byte	0
 985 048d 13       		.uleb128 0x13
 986 048e 38       		.byte	0x38
 987 048f 09       		.byte	0x9
 988 0490 4601     		.2byte	0x146
 989 0492 4C050000 		.4byte	0x54c
 990 0496 08       		.uleb128 0x8
 991 0497 435200   		.ascii	"CR\000"
 992 049a 09       		.byte	0x9
 993 049b 4801     		.2byte	0x148
 994 049d 25040000 		.4byte	0x425
 995 04a1 00       		.byte	0
 996 04a2 09       		.uleb128 0x9
 997 04a3 89040000 		.4byte	.LASF75
 998 04a7 09       		.byte	0x9
 999 04a8 4901     		.2byte	0x149
 1000 04aa 25040000 		.4byte	0x425
 1001 04ae 04       		.byte	0x4
 1002 04af 08       		.uleb128 0x8
 1003 04b0 43495200 		.ascii	"CIR\000"
 1004 04b4 09       		.byte	0x9
 1005 04b5 4A01     		.2byte	0x14a
 1006 04b7 25040000 		.4byte	0x425
 1007 04bb 08       		.byte	0x8
 1008 04bc 09       		.uleb128 0x9
 1009 04bd 4F000000 		.4byte	.LASF76
 1010 04c1 09       		.byte	0x9
 1011 04c2 4B01     		.2byte	0x14b
 1012 04c4 25040000 		.4byte	0x425
 1013 04c8 0C       		.byte	0xc
 1014 04c9 09       		.uleb128 0x9
 1015 04ca 33030000 		.4byte	.LASF77
 1016 04ce 09       		.byte	0x9
 1017 04cf 4C01     		.2byte	0x14c
 1018 04d1 25040000 		.4byte	0x425
 1019 04d5 10       		.byte	0x10
 1020 04d6 09       		.uleb128 0x9
 1021 04d7 6E030000 		.4byte	.LASF78
 1022 04db 09       		.byte	0x9
 1023 04dc 4D01     		.2byte	0x14d
 1024 04de 25040000 		.4byte	0x425
 1025 04e2 14       		.byte	0x14
 1026 04e3 09       		.uleb128 0x9
 1027 04e4 E4030000 		.4byte	.LASF79
 1028 04e8 09       		.byte	0x9
 1029 04e9 4E01     		.2byte	0x14e
 1030 04eb 25040000 		.4byte	0x425
ARM GAS  /tmp/ccNLiF6t.s 			page 33


 1031 04ef 18       		.byte	0x18
 1032 04f0 09       		.uleb128 0x9
 1033 04f1 10000000 		.4byte	.LASF80
 1034 04f5 09       		.byte	0x9
 1035 04f6 4F01     		.2byte	0x14f
 1036 04f8 25040000 		.4byte	0x425
 1037 04fc 1C       		.byte	0x1c
 1038 04fd 09       		.uleb128 0x9
 1039 04fe 9B000000 		.4byte	.LASF81
 1040 0502 09       		.byte	0x9
 1041 0503 5001     		.2byte	0x150
 1042 0505 25040000 		.4byte	0x425
 1043 0509 20       		.byte	0x20
 1044 050a 08       		.uleb128 0x8
 1045 050b 43535200 		.ascii	"CSR\000"
 1046 050f 09       		.byte	0x9
 1047 0510 5101     		.2byte	0x151
 1048 0512 25040000 		.4byte	0x425
 1049 0516 24       		.byte	0x24
 1050 0517 09       		.uleb128 0x9
 1051 0518 1C020000 		.4byte	.LASF82
 1052 051c 09       		.byte	0x9
 1053 051d 5201     		.2byte	0x152
 1054 051f 25040000 		.4byte	0x425
 1055 0523 28       		.byte	0x28
 1056 0524 09       		.uleb128 0x9
 1057 0525 D8030000 		.4byte	.LASF83
 1058 0529 09       		.byte	0x9
 1059 052a 5301     		.2byte	0x153
 1060 052c 25040000 		.4byte	0x425
 1061 0530 2C       		.byte	0x2c
 1062 0531 09       		.uleb128 0x9
 1063 0532 DE030000 		.4byte	.LASF84
 1064 0536 09       		.byte	0x9
 1065 0537 5401     		.2byte	0x154
 1066 0539 25040000 		.4byte	0x425
 1067 053d 30       		.byte	0x30
 1068 053e 08       		.uleb128 0x8
 1069 053f 43523200 		.ascii	"CR2\000"
 1070 0543 09       		.byte	0x9
 1071 0544 5501     		.2byte	0x155
 1072 0546 25040000 		.4byte	0x425
 1073 054a 34       		.byte	0x34
 1074 054b 00       		.byte	0
 1075 054c 14       		.uleb128 0x14
 1076 054d 0E030000 		.4byte	.LASF85
 1077 0551 09       		.byte	0x9
 1078 0552 5601     		.2byte	0x156
 1079 0554 8D040000 		.4byte	0x48d
 1080 0558 04       		.uleb128 0x4
 1081 0559 46000000 		.4byte	.LASF86
 1082 055d 0A       		.byte	0xa
 1083 055e 65       		.byte	0x65
 1084 055f 02030000 		.4byte	0x302
 1085 0563 04       		.uleb128 0x4
 1086 0564 DA050000 		.4byte	.LASF87
 1087 0568 0A       		.byte	0xa
ARM GAS  /tmp/ccNLiF6t.s 			page 34


 1088 0569 6D       		.byte	0x6d
 1089 056a CE000000 		.4byte	0xce
 1090 056e 05       		.uleb128 0x5
 1091 056f C7000000 		.4byte	.LASF88
 1092 0573 04       		.byte	0x4
 1093 0574 0A       		.byte	0xa
 1094 0575 89       		.byte	0x89
 1095 0576 86050000 		.4byte	0x586
 1096 057a 07       		.uleb128 0x7
 1097 057b 737000   		.ascii	"sp\000"
 1098 057e 0A       		.byte	0xa
 1099 057f 8A       		.byte	0x8a
 1100 0580 F8050000 		.4byte	0x5f8
 1101 0584 00       		.byte	0
 1102 0585 00       		.byte	0
 1103 0586 05       		.uleb128 0x5
 1104 0587 48040000 		.4byte	.LASF89
 1105 058b 24       		.byte	0x24
 1106 058c 0B       		.byte	0xb
 1107 058d C3       		.byte	0xc3
 1108 058e F8050000 		.4byte	0x5f8
 1109 0592 07       		.uleb128 0x7
 1110 0593 723800   		.ascii	"r8\000"
 1111 0596 0B       		.byte	0xb
 1112 0597 C4       		.byte	0xc4
 1113 0598 58050000 		.4byte	0x558
 1114 059c 00       		.byte	0
 1115 059d 07       		.uleb128 0x7
 1116 059e 723900   		.ascii	"r9\000"
 1117 05a1 0B       		.byte	0xb
 1118 05a2 C5       		.byte	0xc5
 1119 05a3 58050000 		.4byte	0x558
 1120 05a7 04       		.byte	0x4
 1121 05a8 07       		.uleb128 0x7
 1122 05a9 72313000 		.ascii	"r10\000"
 1123 05ad 0B       		.byte	0xb
 1124 05ae C6       		.byte	0xc6
 1125 05af 58050000 		.4byte	0x558
 1126 05b3 08       		.byte	0x8
 1127 05b4 07       		.uleb128 0x7
 1128 05b5 72313100 		.ascii	"r11\000"
 1129 05b9 0B       		.byte	0xb
 1130 05ba C7       		.byte	0xc7
 1131 05bb 58050000 		.4byte	0x558
 1132 05bf 0C       		.byte	0xc
 1133 05c0 07       		.uleb128 0x7
 1134 05c1 723400   		.ascii	"r4\000"
 1135 05c4 0B       		.byte	0xb
 1136 05c5 C8       		.byte	0xc8
 1137 05c6 58050000 		.4byte	0x558
 1138 05ca 10       		.byte	0x10
 1139 05cb 07       		.uleb128 0x7
 1140 05cc 723500   		.ascii	"r5\000"
 1141 05cf 0B       		.byte	0xb
 1142 05d0 C9       		.byte	0xc9
 1143 05d1 58050000 		.4byte	0x558
 1144 05d5 14       		.byte	0x14
ARM GAS  /tmp/ccNLiF6t.s 			page 35


 1145 05d6 07       		.uleb128 0x7
 1146 05d7 723600   		.ascii	"r6\000"
 1147 05da 0B       		.byte	0xb
 1148 05db CA       		.byte	0xca
 1149 05dc 58050000 		.4byte	0x558
 1150 05e0 18       		.byte	0x18
 1151 05e1 07       		.uleb128 0x7
 1152 05e2 723700   		.ascii	"r7\000"
 1153 05e5 0B       		.byte	0xb
 1154 05e6 CB       		.byte	0xcb
 1155 05e7 58050000 		.4byte	0x558
 1156 05eb 1C       		.byte	0x1c
 1157 05ec 07       		.uleb128 0x7
 1158 05ed 6C7200   		.ascii	"lr\000"
 1159 05f0 0B       		.byte	0xb
 1160 05f1 CC       		.byte	0xcc
 1161 05f2 58050000 		.4byte	0x558
 1162 05f6 20       		.byte	0x20
 1163 05f7 00       		.byte	0
 1164 05f8 0A       		.uleb128 0xa
 1165 05f9 04       		.byte	0x4
 1166 05fa 86050000 		.4byte	0x586
 1167 05fe 13       		.uleb128 0x13
 1168 05ff 60       		.byte	0x60
 1169 0600 0C       		.byte	0xc
 1170 0601 A101     		.2byte	0x1a1
 1171 0603 0A070000 		.4byte	0x70a
 1172 0607 08       		.uleb128 0x8
 1173 0608 43523100 		.ascii	"CR1\000"
 1174 060c 0C       		.byte	0xc
 1175 060d A201     		.2byte	0x1a2
 1176 060f 25040000 		.4byte	0x425
 1177 0613 00       		.byte	0
 1178 0614 08       		.uleb128 0x8
 1179 0615 43523200 		.ascii	"CR2\000"
 1180 0619 0C       		.byte	0xc
 1181 061a A301     		.2byte	0x1a3
 1182 061c 25040000 		.4byte	0x425
 1183 0620 04       		.byte	0x4
 1184 0621 09       		.uleb128 0x9
 1185 0622 86030000 		.4byte	.LASF90
 1186 0626 0C       		.byte	0xc
 1187 0627 A401     		.2byte	0x1a4
 1188 0629 25040000 		.4byte	0x425
 1189 062d 08       		.byte	0x8
 1190 062e 09       		.uleb128 0x9
 1191 062f 2E030000 		.4byte	.LASF91
 1192 0633 0C       		.byte	0xc
 1193 0634 A501     		.2byte	0x1a5
 1194 0636 25040000 		.4byte	0x425
 1195 063a 0C       		.byte	0xc
 1196 063b 08       		.uleb128 0x8
 1197 063c 535200   		.ascii	"SR\000"
 1198 063f 0C       		.byte	0xc
 1199 0640 A601     		.2byte	0x1a6
 1200 0642 25040000 		.4byte	0x425
 1201 0646 10       		.byte	0x10
ARM GAS  /tmp/ccNLiF6t.s 			page 36


 1202 0647 08       		.uleb128 0x8
 1203 0648 45475200 		.ascii	"EGR\000"
 1204 064c 0C       		.byte	0xc
 1205 064d A701     		.2byte	0x1a7
 1206 064f 25040000 		.4byte	0x425
 1207 0653 14       		.byte	0x14
 1208 0654 09       		.uleb128 0x9
 1209 0655 4F020000 		.4byte	.LASF92
 1210 0659 0C       		.byte	0xc
 1211 065a A801     		.2byte	0x1a8
 1212 065c 25040000 		.4byte	0x425
 1213 0660 18       		.byte	0x18
 1214 0661 09       		.uleb128 0x9
 1215 0662 55020000 		.4byte	.LASF93
 1216 0666 0C       		.byte	0xc
 1217 0667 A901     		.2byte	0x1a9
 1218 0669 25040000 		.4byte	0x425
 1219 066d 1C       		.byte	0x1c
 1220 066e 09       		.uleb128 0x9
 1221 066f 41030000 		.4byte	.LASF94
 1222 0673 0C       		.byte	0xc
 1223 0674 AA01     		.2byte	0x1aa
 1224 0676 25040000 		.4byte	0x425
 1225 067a 20       		.byte	0x20
 1226 067b 08       		.uleb128 0x8
 1227 067c 434E5400 		.ascii	"CNT\000"
 1228 0680 0C       		.byte	0xc
 1229 0681 AB01     		.2byte	0x1ab
 1230 0683 25040000 		.4byte	0x425
 1231 0687 24       		.byte	0x24
 1232 0688 08       		.uleb128 0x8
 1233 0689 50534300 		.ascii	"PSC\000"
 1234 068d 0C       		.byte	0xc
 1235 068e AC01     		.2byte	0x1ac
 1236 0690 25040000 		.4byte	0x425
 1237 0694 28       		.byte	0x28
 1238 0695 08       		.uleb128 0x8
 1239 0696 41525200 		.ascii	"ARR\000"
 1240 069a 0C       		.byte	0xc
 1241 069b AD01     		.2byte	0x1ad
 1242 069d 25040000 		.4byte	0x425
 1243 06a1 2C       		.byte	0x2c
 1244 06a2 08       		.uleb128 0x8
 1245 06a3 52435200 		.ascii	"RCR\000"
 1246 06a7 0C       		.byte	0xc
 1247 06a8 AE01     		.2byte	0x1ae
 1248 06aa 25040000 		.4byte	0x425
 1249 06ae 30       		.byte	0x30
 1250 06af 08       		.uleb128 0x8
 1251 06b0 43435200 		.ascii	"CCR\000"
 1252 06b4 0C       		.byte	0xc
 1253 06b5 AF01     		.2byte	0x1af
 1254 06b7 0A070000 		.4byte	0x70a
 1255 06bb 34       		.byte	0x34
 1256 06bc 09       		.uleb128 0x9
 1257 06bd 24020000 		.4byte	.LASF95
 1258 06c1 0C       		.byte	0xc
ARM GAS  /tmp/ccNLiF6t.s 			page 37


 1259 06c2 B001     		.2byte	0x1b0
 1260 06c4 25040000 		.4byte	0x425
 1261 06c8 44       		.byte	0x44
 1262 06c9 08       		.uleb128 0x8
 1263 06ca 44435200 		.ascii	"DCR\000"
 1264 06ce 0C       		.byte	0xc
 1265 06cf B101     		.2byte	0x1b1
 1266 06d1 25040000 		.4byte	0x425
 1267 06d5 48       		.byte	0x48
 1268 06d6 09       		.uleb128 0x9
 1269 06d7 28010000 		.4byte	.LASF96
 1270 06db 0C       		.byte	0xc
 1271 06dc B201     		.2byte	0x1b2
 1272 06de 25040000 		.4byte	0x425
 1273 06e2 4C       		.byte	0x4c
 1274 06e3 08       		.uleb128 0x8
 1275 06e4 4F5200   		.ascii	"OR\000"
 1276 06e7 0C       		.byte	0xc
 1277 06e8 B301     		.2byte	0x1b3
 1278 06ea 25040000 		.4byte	0x425
 1279 06ee 50       		.byte	0x50
 1280 06ef 09       		.uleb128 0x9
 1281 06f0 5B020000 		.4byte	.LASF97
 1282 06f4 0C       		.byte	0xc
 1283 06f5 B401     		.2byte	0x1b4
 1284 06f7 25040000 		.4byte	0x425
 1285 06fb 54       		.byte	0x54
 1286 06fc 09       		.uleb128 0x9
 1287 06fd 30040000 		.4byte	.LASF98
 1288 0701 0C       		.byte	0xc
 1289 0702 B501     		.2byte	0x1b5
 1290 0704 0F070000 		.4byte	0x70f
 1291 0708 58       		.byte	0x58
 1292 0709 00       		.byte	0
 1293 070a 0F       		.uleb128 0xf
 1294 070b 7D040000 		.4byte	0x47d
 1295 070f 0F       		.uleb128 0xf
 1296 0710 2A040000 		.4byte	0x42a
 1297 0714 14       		.uleb128 0x14
 1298 0715 02030000 		.4byte	.LASF99
 1299 0719 0C       		.byte	0xc
 1300 071a B601     		.2byte	0x1b6
 1301 071c FE050000 		.4byte	0x5fe
 1302 0720 15       		.uleb128 0x15
 1303 0721 04       		.byte	0x4
 1304 0722 08       		.byte	0x8
 1305 0723 D2       		.byte	0xd2
 1306 0724 83070000 		.4byte	0x783
 1307 0728 16       		.uleb128 0x16
 1308 0729 DA020000 		.4byte	.LASF100
 1309 072d 08       		.byte	0x8
 1310 072e D9       		.byte	0xd9
 1311 072f 05010000 		.4byte	0x105
 1312 0733 16       		.uleb128 0x16
 1313 0734 45060000 		.4byte	.LASF101
 1314 0738 08       		.byte	0x8
 1315 0739 E0       		.byte	0xe0
ARM GAS  /tmp/ccNLiF6t.s 			page 38


 1316 073a 05010000 		.4byte	0x105
 1317 073e 16       		.uleb128 0x16
 1318 073f AF000000 		.4byte	.LASF102
 1319 0743 08       		.byte	0x8
 1320 0744 E7       		.byte	0xe7
 1321 0745 02030000 		.4byte	0x302
 1322 0749 16       		.uleb128 0x16
 1323 074a AF050000 		.4byte	.LASF103
 1324 074e 08       		.byte	0x8
 1325 074f EE       		.byte	0xee
 1326 0750 83070000 		.4byte	0x783
 1327 0754 16       		.uleb128 0x16
 1328 0755 01020000 		.4byte	.LASF104
 1329 0759 08       		.byte	0x8
 1330 075a F3       		.byte	0xf3
 1331 075b 05010000 		.4byte	0x105
 1332 075f 16       		.uleb128 0x16
 1333 0760 A8050000 		.4byte	.LASF105
 1334 0764 08       		.byte	0x8
 1335 0765 FC       		.byte	0xfc
 1336 0766 AE070000 		.4byte	0x7ae
 1337 076a 17       		.uleb128 0x17
 1338 076b 18000000 		.4byte	.LASF106
 1339 076f 08       		.byte	0x8
 1340 0770 0501     		.2byte	0x105
 1341 0772 E5070000 		.4byte	0x7e5
 1342 0776 17       		.uleb128 0x17
 1343 0777 FA000000 		.4byte	.LASF107
 1344 077b 08       		.byte	0x8
 1345 077c 0D01     		.2byte	0x10d
 1346 077e 10010000 		.4byte	0x110
 1347 0782 00       		.byte	0
 1348 0783 0A       		.uleb128 0xa
 1349 0784 04       		.byte	0x4
 1350 0785 1A020000 		.4byte	0x21a
 1351 0789 05       		.uleb128 0x5
 1352 078a 29020000 		.4byte	.LASF108
 1353 078e 0C       		.byte	0xc
 1354 078f 0D       		.byte	0xd
 1355 0790 34       		.byte	0x34
 1356 0791 AE070000 		.4byte	0x7ae
 1357 0795 06       		.uleb128 0x6
 1358 0796 E8040000 		.4byte	.LASF28
 1359 079a 0D       		.byte	0xd
 1360 079b 35       		.byte	0x35
 1361 079c 4F020000 		.4byte	0x24f
 1362 07a0 00       		.byte	0
 1363 07a1 07       		.uleb128 0x7
 1364 07a2 636E7400 		.ascii	"cnt\000"
 1365 07a6 0D       		.byte	0xd
 1366 07a7 37       		.byte	0x37
 1367 07a8 1B010000 		.4byte	0x11b
 1368 07ac 08       		.byte	0x8
 1369 07ad 00       		.byte	0
 1370 07ae 0A       		.uleb128 0xa
 1371 07af 04       		.byte	0x4
 1372 07b0 89070000 		.4byte	0x789
ARM GAS  /tmp/ccNLiF6t.s 			page 39


 1373 07b4 05       		.uleb128 0x5
 1374 07b5 1A030000 		.4byte	.LASF109
 1375 07b9 10       		.byte	0x10
 1376 07ba 0E       		.byte	0xe
 1377 07bb 39       		.byte	0x39
 1378 07bc E5070000 		.4byte	0x7e5
 1379 07c0 06       		.uleb128 0x6
 1380 07c1 E8040000 		.4byte	.LASF28
 1381 07c5 0E       		.byte	0xe
 1382 07c6 3A       		.byte	0x3a
 1383 07c7 4F020000 		.4byte	0x24f
 1384 07cb 00       		.byte	0
 1385 07cc 06       		.uleb128 0x6
 1386 07cd 89020000 		.4byte	.LASF110
 1387 07d1 0E       		.byte	0xe
 1388 07d2 3C       		.byte	0x3c
 1389 07d3 25020000 		.4byte	0x225
 1390 07d7 08       		.byte	0x8
 1391 07d8 06       		.uleb128 0x6
 1392 07d9 87000000 		.4byte	.LASF47
 1393 07dd 0E       		.byte	0xe
 1394 07de 3E       		.byte	0x3e
 1395 07df 19080000 		.4byte	0x819
 1396 07e3 0C       		.byte	0xc
 1397 07e4 00       		.byte	0
 1398 07e5 0A       		.uleb128 0xa
 1399 07e6 04       		.byte	0x4
 1400 07e7 B4070000 		.4byte	0x7b4
 1401 07eb 0A       		.uleb128 0xa
 1402 07ec 04       		.byte	0x4
 1403 07ed F1070000 		.4byte	0x7f1
 1404 07f1 18       		.uleb128 0x18
 1405 07f2 F6070000 		.4byte	0x7f6
 1406 07f6 03       		.uleb128 0x3
 1407 07f7 01       		.byte	0x1
 1408 07f8 08       		.byte	0x8
 1409 07f9 46030000 		.4byte	.LASF111
 1410 07fd 0A       		.uleb128 0xa
 1411 07fe 04       		.byte	0x4
 1412 07ff 63050000 		.4byte	0x563
 1413 0803 0A       		.uleb128 0xa
 1414 0804 04       		.byte	0x4
 1415 0805 04030000 		.4byte	0x304
 1416 0809 0F       		.uleb128 0xf
 1417 080a EB070000 		.4byte	0x7eb
 1418 080e 04       		.uleb128 0x4
 1419 080f F6040000 		.4byte	.LASF112
 1420 0813 0E       		.byte	0xe
 1421 0814 34       		.byte	0x34
 1422 0815 B4070000 		.4byte	0x7b4
 1423 0819 0A       		.uleb128 0xa
 1424 081a 04       		.byte	0x4
 1425 081b 0E080000 		.4byte	0x80e
 1426 081f 03       		.uleb128 0x3
 1427 0820 01       		.byte	0x1
 1428 0821 02       		.byte	0x2
 1429 0822 FD030000 		.4byte	.LASF113
ARM GAS  /tmp/ccNLiF6t.s 			page 40


 1430 0826 19       		.uleb128 0x19
 1431 0827 F4020000 		.4byte	.LASF114
 1432 082b 02       		.byte	0x2
 1433 082c 45       		.byte	0x45
 1434 082d 03       		.byte	0x3
 1435 082e 19       		.uleb128 0x19
 1436 082f 54040000 		.4byte	.LASF115
 1437 0833 02       		.byte	0x2
 1438 0834 3A       		.byte	0x3a
 1439 0835 03       		.byte	0x3
 1440 0836 1A       		.uleb128 0x1a
 1441 0837 B6000000 		.4byte	.LASF116
 1442 083b 0B       		.byte	0xb
 1443 083c 7301     		.2byte	0x173
 1444 083e 03       		.byte	0x3
 1445 083f 1A       		.uleb128 0x1a
 1446 0840 ED050000 		.4byte	.LASF117
 1447 0844 0B       		.byte	0xb
 1448 0845 7C01     		.2byte	0x17c
 1449 0847 03       		.byte	0x3
 1450 0848 1A       		.uleb128 0x1a
 1451 0849 D4000000 		.4byte	.LASF118
 1452 084d 0B       		.byte	0xb
 1453 084e 8601     		.2byte	0x186
 1454 0850 03       		.byte	0x3
 1455 0851 1A       		.uleb128 0x1a
 1456 0852 04050000 		.4byte	.LASF119
 1457 0856 0B       		.byte	0xb
 1458 0857 9001     		.2byte	0x190
 1459 0859 03       		.byte	0x3
 1460 085a 1A       		.uleb128 0x1a
 1461 085b 17010000 		.4byte	.LASF120
 1462 085f 0F       		.byte	0xf
 1463 0860 9E01     		.2byte	0x19e
 1464 0862 03       		.byte	0x3
 1465 0863 1A       		.uleb128 0x1a
 1466 0864 C7020000 		.4byte	.LASF121
 1467 0868 0F       		.byte	0xf
 1468 0869 B201     		.2byte	0x1b2
 1469 086b 03       		.byte	0x3
 1470 086c 1A       		.uleb128 0x1a
 1471 086d E1020000 		.4byte	.LASF122
 1472 0871 03       		.byte	0x3
 1473 0872 0102     		.2byte	0x201
 1474 0874 03       		.byte	0x3
 1475 0875 1A       		.uleb128 0x1a
 1476 0876 1F000000 		.4byte	.LASF123
 1477 087a 03       		.byte	0x3
 1478 087b 4702     		.2byte	0x247
 1479 087d 03       		.byte	0x3
 1480 087e 1A       		.uleb128 0x1a
 1481 087f 94040000 		.4byte	.LASF124
 1482 0883 03       		.byte	0x3
 1483 0884 0C02     		.2byte	0x20c
 1484 0886 03       		.byte	0x3
 1485 0887 1B       		.uleb128 0x1b
 1486 0888 B9030000 		.4byte	.LASF125
ARM GAS  /tmp/ccNLiF6t.s 			page 41


 1487 088c 01       		.byte	0x1
 1488 088d EF       		.byte	0xef
 1489 088e 00000000 		.4byte	.LFB179
 1490 0892 24000000 		.4byte	.LFE179-.LFB179
 1491 0896 01       		.uleb128 0x1
 1492 0897 9C       		.byte	0x9c
 1493 0898 87090000 		.4byte	0x987
 1494 089c 1C       		.uleb128 0x1c
 1495 089d F9050000 		.4byte	.LASF130
 1496 08a1 01       		.byte	0x1
 1497 08a2 F1       		.byte	0xf1
 1498 08a3 58050000 		.4byte	0x558
 1499 08a7 00000000 		.4byte	.LLST0
 1500 08ab 1D       		.uleb128 0x1d
 1501 08ac 6C080000 		.4byte	0x86c
 1502 08b0 10000000 		.4byte	.LBB52
 1503 08b4 02000000 		.4byte	.LBE52-.LBB52
 1504 08b8 01       		.byte	0x1
 1505 08b9 F9       		.byte	0xf9
 1506 08ba 02090000 		.4byte	0x902
 1507 08be 1E       		.uleb128 0x1e
 1508 08bf 5A080000 		.4byte	0x85a
 1509 08c3 10000000 		.4byte	.LBB53
 1510 08c7 02000000 		.4byte	.LBE53-.LBB53
 1511 08cb 03       		.byte	0x3
 1512 08cc 0302     		.2byte	0x203
 1513 08ce 1E       		.uleb128 0x1e
 1514 08cf 48080000 		.4byte	0x848
 1515 08d3 10000000 		.4byte	.LBB54
 1516 08d7 02000000 		.4byte	.LBE54-.LBB54
 1517 08db 0F       		.byte	0xf
 1518 08dc A001     		.2byte	0x1a0
 1519 08de 1E       		.uleb128 0x1e
 1520 08df 36080000 		.4byte	0x836
 1521 08e3 10000000 		.4byte	.LBB55
 1522 08e7 02000000 		.4byte	.LBE55-.LBB55
 1523 08eb 0B       		.byte	0xb
 1524 08ec 8801     		.2byte	0x188
 1525 08ee 1F       		.uleb128 0x1f
 1526 08ef 26080000 		.4byte	0x826
 1527 08f3 10000000 		.4byte	.LBB56
 1528 08f7 02000000 		.4byte	.LBE56-.LBB56
 1529 08fb 0B       		.byte	0xb
 1530 08fc 7501     		.2byte	0x175
 1531 08fe 00       		.byte	0
 1532 08ff 00       		.byte	0
 1533 0900 00       		.byte	0
 1534 0901 00       		.byte	0
 1535 0902 1D       		.uleb128 0x1d
 1536 0903 75080000 		.4byte	0x875
 1537 0907 12000000 		.4byte	.LBB58
 1538 090b 04000000 		.4byte	.LBE58-.LBB58
 1539 090f 01       		.byte	0x1
 1540 0910 FA       		.byte	0xfa
 1541 0911 1F090000 		.4byte	0x91f
 1542 0915 20       		.uleb128 0x20
 1543 0916 16000000 		.4byte	.LVL1
ARM GAS  /tmp/ccNLiF6t.s 			page 42


 1544 091a BD090000 		.4byte	0x9bd
 1545 091e 00       		.byte	0
 1546 091f 1D       		.uleb128 0x1d
 1547 0920 7E080000 		.4byte	0x87e
 1548 0924 16000000 		.4byte	.LBB60
 1549 0928 02000000 		.4byte	.LBE60-.LBB60
 1550 092c 01       		.byte	0x1
 1551 092d FB       		.byte	0xfb
 1552 092e 76090000 		.4byte	0x976
 1553 0932 1E       		.uleb128 0x1e
 1554 0933 63080000 		.4byte	0x863
 1555 0937 16000000 		.4byte	.LBB61
 1556 093b 02000000 		.4byte	.LBE61-.LBB61
 1557 093f 03       		.byte	0x3
 1558 0940 0E02     		.2byte	0x20e
 1559 0942 1E       		.uleb128 0x1e
 1560 0943 51080000 		.4byte	0x851
 1561 0947 16000000 		.4byte	.LBB62
 1562 094b 02000000 		.4byte	.LBE62-.LBB62
 1563 094f 0F       		.byte	0xf
 1564 0950 B601     		.2byte	0x1b6
 1565 0952 1E       		.uleb128 0x1e
 1566 0953 3F080000 		.4byte	0x83f
 1567 0957 16000000 		.4byte	.LBB63
 1568 095b 02000000 		.4byte	.LBE63-.LBB63
 1569 095f 0B       		.byte	0xb
 1570 0960 9201     		.2byte	0x192
 1571 0962 1F       		.uleb128 0x1f
 1572 0963 2E080000 		.4byte	0x82e
 1573 0967 16000000 		.4byte	.LBB64
 1574 096b 02000000 		.4byte	.LBE64-.LBB64
 1575 096f 0B       		.byte	0xb
 1576 0970 7E01     		.2byte	0x17e
 1577 0972 00       		.byte	0
 1578 0973 00       		.byte	0
 1579 0974 00       		.byte	0
 1580 0975 00       		.byte	0
 1581 0976 21       		.uleb128 0x21
 1582 0977 1E000000 		.4byte	.LVL2
 1583 097b C5090000 		.4byte	0x9c5
 1584 097f 22       		.uleb128 0x22
 1585 0980 01       		.uleb128 0x1
 1586 0981 50       		.byte	0x50
 1587 0982 02       		.uleb128 0x2
 1588 0983 74       		.byte	0x74
 1589 0984 00       		.sleb128 0
 1590 0985 00       		.byte	0
 1591 0986 00       		.byte	0
 1592 0987 23       		.uleb128 0x23
 1593 0988 6B040000 		.4byte	.LASF126
 1594 098c 01       		.byte	0x1
 1595 098d 0B01     		.2byte	0x10b
 1596 098f 00000000 		.4byte	.LFB180
 1597 0993 4C000000 		.4byte	.LFE180-.LFB180
 1598 0997 01       		.uleb128 0x1
 1599 0998 9C       		.byte	0x9c
 1600 0999 B2090000 		.4byte	0x9b2
ARM GAS  /tmp/ccNLiF6t.s 			page 43


 1601 099d 21       		.uleb128 0x21
 1602 099e 36000000 		.4byte	.LVL4
 1603 09a2 D7090000 		.4byte	0x9d7
 1604 09a6 22       		.uleb128 0x22
 1605 09a7 01       		.uleb128 0x1
 1606 09a8 51       		.byte	0x51
 1607 09a9 01       		.uleb128 0x1
 1608 09aa 32       		.byte	0x32
 1609 09ab 22       		.uleb128 0x22
 1610 09ac 01       		.uleb128 0x1
 1611 09ad 50       		.byte	0x50
 1612 09ae 01       		.uleb128 0x1
 1613 09af 40       		.byte	0x40
 1614 09b0 00       		.byte	0
 1615 09b1 00       		.byte	0
 1616 09b2 24       		.uleb128 0x24
 1617 09b3 636800   		.ascii	"ch\000"
 1618 09b6 08       		.byte	0x8
 1619 09b7 D201     		.2byte	0x1d2
 1620 09b9 D1030000 		.4byte	0x3d1
 1621 09bd 25       		.uleb128 0x25
 1622 09be 33000000 		.4byte	.LASF131
 1623 09c2 0F       		.byte	0xf
 1624 09c3 3401     		.2byte	0x134
 1625 09c5 26       		.uleb128 0x26
 1626 09c6 83050000 		.4byte	.LASF132
 1627 09ca 0B       		.byte	0xb
 1628 09cb 3601     		.2byte	0x136
 1629 09cd D7090000 		.4byte	0x9d7
 1630 09d1 0D       		.uleb128 0xd
 1631 09d2 58050000 		.4byte	0x558
 1632 09d6 00       		.byte	0
 1633 09d7 27       		.uleb128 0x27
 1634 09d8 1F040000 		.4byte	.LASF133
 1635 09dc 10       		.byte	0x10
 1636 09dd 4E       		.byte	0x4e
 1637 09de 0D       		.uleb128 0xd
 1638 09df C3000000 		.4byte	0xc3
 1639 09e3 0D       		.uleb128 0xd
 1640 09e4 C3000000 		.4byte	0xc3
 1641 09e8 00       		.byte	0
 1642 09e9 00       		.byte	0
 1643              		.section	.debug_abbrev,"",%progbits
 1644              	.Ldebug_abbrev0:
 1645 0000 01       		.uleb128 0x1
 1646 0001 11       		.uleb128 0x11
 1647 0002 01       		.byte	0x1
 1648 0003 25       		.uleb128 0x25
 1649 0004 0E       		.uleb128 0xe
 1650 0005 13       		.uleb128 0x13
 1651 0006 0B       		.uleb128 0xb
 1652 0007 03       		.uleb128 0x3
 1653 0008 0E       		.uleb128 0xe
 1654 0009 1B       		.uleb128 0x1b
 1655 000a 0E       		.uleb128 0xe
 1656 000b 55       		.uleb128 0x55
 1657 000c 17       		.uleb128 0x17
ARM GAS  /tmp/ccNLiF6t.s 			page 44


 1658 000d 11       		.uleb128 0x11
 1659 000e 01       		.uleb128 0x1
 1660 000f 10       		.uleb128 0x10
 1661 0010 17       		.uleb128 0x17
 1662 0011 00       		.byte	0
 1663 0012 00       		.byte	0
 1664 0013 02       		.uleb128 0x2
 1665 0014 24       		.uleb128 0x24
 1666 0015 00       		.byte	0
 1667 0016 0B       		.uleb128 0xb
 1668 0017 0B       		.uleb128 0xb
 1669 0018 3E       		.uleb128 0x3e
 1670 0019 0B       		.uleb128 0xb
 1671 001a 03       		.uleb128 0x3
 1672 001b 08       		.uleb128 0x8
 1673 001c 00       		.byte	0
 1674 001d 00       		.byte	0
 1675 001e 03       		.uleb128 0x3
 1676 001f 24       		.uleb128 0x24
 1677 0020 00       		.byte	0
 1678 0021 0B       		.uleb128 0xb
 1679 0022 0B       		.uleb128 0xb
 1680 0023 3E       		.uleb128 0x3e
 1681 0024 0B       		.uleb128 0xb
 1682 0025 03       		.uleb128 0x3
 1683 0026 0E       		.uleb128 0xe
 1684 0027 00       		.byte	0
 1685 0028 00       		.byte	0
 1686 0029 04       		.uleb128 0x4
 1687 002a 16       		.uleb128 0x16
 1688 002b 00       		.byte	0
 1689 002c 03       		.uleb128 0x3
 1690 002d 0E       		.uleb128 0xe
 1691 002e 3A       		.uleb128 0x3a
 1692 002f 0B       		.uleb128 0xb
 1693 0030 3B       		.uleb128 0x3b
 1694 0031 0B       		.uleb128 0xb
 1695 0032 49       		.uleb128 0x49
 1696 0033 13       		.uleb128 0x13
 1697 0034 00       		.byte	0
 1698 0035 00       		.byte	0
 1699 0036 05       		.uleb128 0x5
 1700 0037 13       		.uleb128 0x13
 1701 0038 01       		.byte	0x1
 1702 0039 03       		.uleb128 0x3
 1703 003a 0E       		.uleb128 0xe
 1704 003b 0B       		.uleb128 0xb
 1705 003c 0B       		.uleb128 0xb
 1706 003d 3A       		.uleb128 0x3a
 1707 003e 0B       		.uleb128 0xb
 1708 003f 3B       		.uleb128 0x3b
 1709 0040 0B       		.uleb128 0xb
 1710 0041 01       		.uleb128 0x1
 1711 0042 13       		.uleb128 0x13
 1712 0043 00       		.byte	0
 1713 0044 00       		.byte	0
 1714 0045 06       		.uleb128 0x6
ARM GAS  /tmp/ccNLiF6t.s 			page 45


 1715 0046 0D       		.uleb128 0xd
 1716 0047 00       		.byte	0
 1717 0048 03       		.uleb128 0x3
 1718 0049 0E       		.uleb128 0xe
 1719 004a 3A       		.uleb128 0x3a
 1720 004b 0B       		.uleb128 0xb
 1721 004c 3B       		.uleb128 0x3b
 1722 004d 0B       		.uleb128 0xb
 1723 004e 49       		.uleb128 0x49
 1724 004f 13       		.uleb128 0x13
 1725 0050 38       		.uleb128 0x38
 1726 0051 0B       		.uleb128 0xb
 1727 0052 00       		.byte	0
 1728 0053 00       		.byte	0
 1729 0054 07       		.uleb128 0x7
 1730 0055 0D       		.uleb128 0xd
 1731 0056 00       		.byte	0
 1732 0057 03       		.uleb128 0x3
 1733 0058 08       		.uleb128 0x8
 1734 0059 3A       		.uleb128 0x3a
 1735 005a 0B       		.uleb128 0xb
 1736 005b 3B       		.uleb128 0x3b
 1737 005c 0B       		.uleb128 0xb
 1738 005d 49       		.uleb128 0x49
 1739 005e 13       		.uleb128 0x13
 1740 005f 38       		.uleb128 0x38
 1741 0060 0B       		.uleb128 0xb
 1742 0061 00       		.byte	0
 1743 0062 00       		.byte	0
 1744 0063 08       		.uleb128 0x8
 1745 0064 0D       		.uleb128 0xd
 1746 0065 00       		.byte	0
 1747 0066 03       		.uleb128 0x3
 1748 0067 08       		.uleb128 0x8
 1749 0068 3A       		.uleb128 0x3a
 1750 0069 0B       		.uleb128 0xb
 1751 006a 3B       		.uleb128 0x3b
 1752 006b 05       		.uleb128 0x5
 1753 006c 49       		.uleb128 0x49
 1754 006d 13       		.uleb128 0x13
 1755 006e 38       		.uleb128 0x38
 1756 006f 0B       		.uleb128 0xb
 1757 0070 00       		.byte	0
 1758 0071 00       		.byte	0
 1759 0072 09       		.uleb128 0x9
 1760 0073 0D       		.uleb128 0xd
 1761 0074 00       		.byte	0
 1762 0075 03       		.uleb128 0x3
 1763 0076 0E       		.uleb128 0xe
 1764 0077 3A       		.uleb128 0x3a
 1765 0078 0B       		.uleb128 0xb
 1766 0079 3B       		.uleb128 0x3b
 1767 007a 05       		.uleb128 0x5
 1768 007b 49       		.uleb128 0x49
 1769 007c 13       		.uleb128 0x13
 1770 007d 38       		.uleb128 0x38
 1771 007e 0B       		.uleb128 0xb
ARM GAS  /tmp/ccNLiF6t.s 			page 46


 1772 007f 00       		.byte	0
 1773 0080 00       		.byte	0
 1774 0081 0A       		.uleb128 0xa
 1775 0082 0F       		.uleb128 0xf
 1776 0083 00       		.byte	0
 1777 0084 0B       		.uleb128 0xb
 1778 0085 0B       		.uleb128 0xb
 1779 0086 49       		.uleb128 0x49
 1780 0087 13       		.uleb128 0x13
 1781 0088 00       		.byte	0
 1782 0089 00       		.byte	0
 1783 008a 0B       		.uleb128 0xb
 1784 008b 13       		.uleb128 0x13
 1785 008c 01       		.byte	0x1
 1786 008d 03       		.uleb128 0x3
 1787 008e 0E       		.uleb128 0xe
 1788 008f 0B       		.uleb128 0xb
 1789 0090 0B       		.uleb128 0xb
 1790 0091 3A       		.uleb128 0x3a
 1791 0092 0B       		.uleb128 0xb
 1792 0093 3B       		.uleb128 0x3b
 1793 0094 05       		.uleb128 0x5
 1794 0095 01       		.uleb128 0x1
 1795 0096 13       		.uleb128 0x13
 1796 0097 00       		.byte	0
 1797 0098 00       		.byte	0
 1798 0099 0C       		.uleb128 0xc
 1799 009a 15       		.uleb128 0x15
 1800 009b 01       		.byte	0x1
 1801 009c 27       		.uleb128 0x27
 1802 009d 19       		.uleb128 0x19
 1803 009e 01       		.uleb128 0x1
 1804 009f 13       		.uleb128 0x13
 1805 00a0 00       		.byte	0
 1806 00a1 00       		.byte	0
 1807 00a2 0D       		.uleb128 0xd
 1808 00a3 05       		.uleb128 0x5
 1809 00a4 00       		.byte	0
 1810 00a5 49       		.uleb128 0x49
 1811 00a6 13       		.uleb128 0x13
 1812 00a7 00       		.byte	0
 1813 00a8 00       		.byte	0
 1814 00a9 0E       		.uleb128 0xe
 1815 00aa 0F       		.uleb128 0xf
 1816 00ab 00       		.byte	0
 1817 00ac 0B       		.uleb128 0xb
 1818 00ad 0B       		.uleb128 0xb
 1819 00ae 00       		.byte	0
 1820 00af 00       		.byte	0
 1821 00b0 0F       		.uleb128 0xf
 1822 00b1 35       		.uleb128 0x35
 1823 00b2 00       		.byte	0
 1824 00b3 49       		.uleb128 0x49
 1825 00b4 13       		.uleb128 0x13
 1826 00b5 00       		.byte	0
 1827 00b6 00       		.byte	0
 1828 00b7 10       		.uleb128 0x10
ARM GAS  /tmp/ccNLiF6t.s 			page 47


 1829 00b8 01       		.uleb128 0x1
 1830 00b9 01       		.byte	0x1
 1831 00ba 49       		.uleb128 0x49
 1832 00bb 13       		.uleb128 0x13
 1833 00bc 01       		.uleb128 0x1
 1834 00bd 13       		.uleb128 0x13
 1835 00be 00       		.byte	0
 1836 00bf 00       		.byte	0
 1837 00c0 11       		.uleb128 0x11
 1838 00c1 21       		.uleb128 0x21
 1839 00c2 00       		.byte	0
 1840 00c3 49       		.uleb128 0x49
 1841 00c4 13       		.uleb128 0x13
 1842 00c5 2F       		.uleb128 0x2f
 1843 00c6 0B       		.uleb128 0xb
 1844 00c7 00       		.byte	0
 1845 00c8 00       		.byte	0
 1846 00c9 12       		.uleb128 0x12
 1847 00ca 13       		.uleb128 0x13
 1848 00cb 01       		.byte	0x1
 1849 00cc 0B       		.uleb128 0xb
 1850 00cd 0B       		.uleb128 0xb
 1851 00ce 3A       		.uleb128 0x3a
 1852 00cf 0B       		.uleb128 0xb
 1853 00d0 3B       		.uleb128 0x3b
 1854 00d1 0B       		.uleb128 0xb
 1855 00d2 01       		.uleb128 0x1
 1856 00d3 13       		.uleb128 0x13
 1857 00d4 00       		.byte	0
 1858 00d5 00       		.byte	0
 1859 00d6 13       		.uleb128 0x13
 1860 00d7 13       		.uleb128 0x13
 1861 00d8 01       		.byte	0x1
 1862 00d9 0B       		.uleb128 0xb
 1863 00da 0B       		.uleb128 0xb
 1864 00db 3A       		.uleb128 0x3a
 1865 00dc 0B       		.uleb128 0xb
 1866 00dd 3B       		.uleb128 0x3b
 1867 00de 05       		.uleb128 0x5
 1868 00df 01       		.uleb128 0x1
 1869 00e0 13       		.uleb128 0x13
 1870 00e1 00       		.byte	0
 1871 00e2 00       		.byte	0
 1872 00e3 14       		.uleb128 0x14
 1873 00e4 16       		.uleb128 0x16
 1874 00e5 00       		.byte	0
 1875 00e6 03       		.uleb128 0x3
 1876 00e7 0E       		.uleb128 0xe
 1877 00e8 3A       		.uleb128 0x3a
 1878 00e9 0B       		.uleb128 0xb
 1879 00ea 3B       		.uleb128 0x3b
 1880 00eb 05       		.uleb128 0x5
 1881 00ec 49       		.uleb128 0x49
 1882 00ed 13       		.uleb128 0x13
 1883 00ee 00       		.byte	0
 1884 00ef 00       		.byte	0
 1885 00f0 15       		.uleb128 0x15
ARM GAS  /tmp/ccNLiF6t.s 			page 48


 1886 00f1 17       		.uleb128 0x17
 1887 00f2 01       		.byte	0x1
 1888 00f3 0B       		.uleb128 0xb
 1889 00f4 0B       		.uleb128 0xb
 1890 00f5 3A       		.uleb128 0x3a
 1891 00f6 0B       		.uleb128 0xb
 1892 00f7 3B       		.uleb128 0x3b
 1893 00f8 0B       		.uleb128 0xb
 1894 00f9 01       		.uleb128 0x1
 1895 00fa 13       		.uleb128 0x13
 1896 00fb 00       		.byte	0
 1897 00fc 00       		.byte	0
 1898 00fd 16       		.uleb128 0x16
 1899 00fe 0D       		.uleb128 0xd
 1900 00ff 00       		.byte	0
 1901 0100 03       		.uleb128 0x3
 1902 0101 0E       		.uleb128 0xe
 1903 0102 3A       		.uleb128 0x3a
 1904 0103 0B       		.uleb128 0xb
 1905 0104 3B       		.uleb128 0x3b
 1906 0105 0B       		.uleb128 0xb
 1907 0106 49       		.uleb128 0x49
 1908 0107 13       		.uleb128 0x13
 1909 0108 00       		.byte	0
 1910 0109 00       		.byte	0
 1911 010a 17       		.uleb128 0x17
 1912 010b 0D       		.uleb128 0xd
 1913 010c 00       		.byte	0
 1914 010d 03       		.uleb128 0x3
 1915 010e 0E       		.uleb128 0xe
 1916 010f 3A       		.uleb128 0x3a
 1917 0110 0B       		.uleb128 0xb
 1918 0111 3B       		.uleb128 0x3b
 1919 0112 05       		.uleb128 0x5
 1920 0113 49       		.uleb128 0x49
 1921 0114 13       		.uleb128 0x13
 1922 0115 00       		.byte	0
 1923 0116 00       		.byte	0
 1924 0117 18       		.uleb128 0x18
 1925 0118 26       		.uleb128 0x26
 1926 0119 00       		.byte	0
 1927 011a 49       		.uleb128 0x49
 1928 011b 13       		.uleb128 0x13
 1929 011c 00       		.byte	0
 1930 011d 00       		.byte	0
 1931 011e 19       		.uleb128 0x19
 1932 011f 2E       		.uleb128 0x2e
 1933 0120 00       		.byte	0
 1934 0121 03       		.uleb128 0x3
 1935 0122 0E       		.uleb128 0xe
 1936 0123 3A       		.uleb128 0x3a
 1937 0124 0B       		.uleb128 0xb
 1938 0125 3B       		.uleb128 0x3b
 1939 0126 0B       		.uleb128 0xb
 1940 0127 27       		.uleb128 0x27
 1941 0128 19       		.uleb128 0x19
 1942 0129 20       		.uleb128 0x20
ARM GAS  /tmp/ccNLiF6t.s 			page 49


 1943 012a 0B       		.uleb128 0xb
 1944 012b 00       		.byte	0
 1945 012c 00       		.byte	0
 1946 012d 1A       		.uleb128 0x1a
 1947 012e 2E       		.uleb128 0x2e
 1948 012f 00       		.byte	0
 1949 0130 03       		.uleb128 0x3
 1950 0131 0E       		.uleb128 0xe
 1951 0132 3A       		.uleb128 0x3a
 1952 0133 0B       		.uleb128 0xb
 1953 0134 3B       		.uleb128 0x3b
 1954 0135 05       		.uleb128 0x5
 1955 0136 27       		.uleb128 0x27
 1956 0137 19       		.uleb128 0x19
 1957 0138 20       		.uleb128 0x20
 1958 0139 0B       		.uleb128 0xb
 1959 013a 00       		.byte	0
 1960 013b 00       		.byte	0
 1961 013c 1B       		.uleb128 0x1b
 1962 013d 2E       		.uleb128 0x2e
 1963 013e 01       		.byte	0x1
 1964 013f 3F       		.uleb128 0x3f
 1965 0140 19       		.uleb128 0x19
 1966 0141 03       		.uleb128 0x3
 1967 0142 0E       		.uleb128 0xe
 1968 0143 3A       		.uleb128 0x3a
 1969 0144 0B       		.uleb128 0xb
 1970 0145 3B       		.uleb128 0x3b
 1971 0146 0B       		.uleb128 0xb
 1972 0147 27       		.uleb128 0x27
 1973 0148 19       		.uleb128 0x19
 1974 0149 11       		.uleb128 0x11
 1975 014a 01       		.uleb128 0x1
 1976 014b 12       		.uleb128 0x12
 1977 014c 06       		.uleb128 0x6
 1978 014d 40       		.uleb128 0x40
 1979 014e 18       		.uleb128 0x18
 1980 014f 9742     		.uleb128 0x2117
 1981 0151 19       		.uleb128 0x19
 1982 0152 01       		.uleb128 0x1
 1983 0153 13       		.uleb128 0x13
 1984 0154 00       		.byte	0
 1985 0155 00       		.byte	0
 1986 0156 1C       		.uleb128 0x1c
 1987 0157 34       		.uleb128 0x34
 1988 0158 00       		.byte	0
 1989 0159 03       		.uleb128 0x3
 1990 015a 0E       		.uleb128 0xe
 1991 015b 3A       		.uleb128 0x3a
 1992 015c 0B       		.uleb128 0xb
 1993 015d 3B       		.uleb128 0x3b
 1994 015e 0B       		.uleb128 0xb
 1995 015f 49       		.uleb128 0x49
 1996 0160 13       		.uleb128 0x13
 1997 0161 02       		.uleb128 0x2
 1998 0162 17       		.uleb128 0x17
 1999 0163 00       		.byte	0
ARM GAS  /tmp/ccNLiF6t.s 			page 50


 2000 0164 00       		.byte	0
 2001 0165 1D       		.uleb128 0x1d
 2002 0166 1D       		.uleb128 0x1d
 2003 0167 01       		.byte	0x1
 2004 0168 31       		.uleb128 0x31
 2005 0169 13       		.uleb128 0x13
 2006 016a 11       		.uleb128 0x11
 2007 016b 01       		.uleb128 0x1
 2008 016c 12       		.uleb128 0x12
 2009 016d 06       		.uleb128 0x6
 2010 016e 58       		.uleb128 0x58
 2011 016f 0B       		.uleb128 0xb
 2012 0170 59       		.uleb128 0x59
 2013 0171 0B       		.uleb128 0xb
 2014 0172 01       		.uleb128 0x1
 2015 0173 13       		.uleb128 0x13
 2016 0174 00       		.byte	0
 2017 0175 00       		.byte	0
 2018 0176 1E       		.uleb128 0x1e
 2019 0177 1D       		.uleb128 0x1d
 2020 0178 01       		.byte	0x1
 2021 0179 31       		.uleb128 0x31
 2022 017a 13       		.uleb128 0x13
 2023 017b 11       		.uleb128 0x11
 2024 017c 01       		.uleb128 0x1
 2025 017d 12       		.uleb128 0x12
 2026 017e 06       		.uleb128 0x6
 2027 017f 58       		.uleb128 0x58
 2028 0180 0B       		.uleb128 0xb
 2029 0181 59       		.uleb128 0x59
 2030 0182 05       		.uleb128 0x5
 2031 0183 00       		.byte	0
 2032 0184 00       		.byte	0
 2033 0185 1F       		.uleb128 0x1f
 2034 0186 1D       		.uleb128 0x1d
 2035 0187 00       		.byte	0
 2036 0188 31       		.uleb128 0x31
 2037 0189 13       		.uleb128 0x13
 2038 018a 11       		.uleb128 0x11
 2039 018b 01       		.uleb128 0x1
 2040 018c 12       		.uleb128 0x12
 2041 018d 06       		.uleb128 0x6
 2042 018e 58       		.uleb128 0x58
 2043 018f 0B       		.uleb128 0xb
 2044 0190 59       		.uleb128 0x59
 2045 0191 05       		.uleb128 0x5
 2046 0192 00       		.byte	0
 2047 0193 00       		.byte	0
 2048 0194 20       		.uleb128 0x20
 2049 0195 898201   		.uleb128 0x4109
 2050 0198 00       		.byte	0
 2051 0199 11       		.uleb128 0x11
 2052 019a 01       		.uleb128 0x1
 2053 019b 31       		.uleb128 0x31
 2054 019c 13       		.uleb128 0x13
 2055 019d 00       		.byte	0
 2056 019e 00       		.byte	0
ARM GAS  /tmp/ccNLiF6t.s 			page 51


 2057 019f 21       		.uleb128 0x21
 2058 01a0 898201   		.uleb128 0x4109
 2059 01a3 01       		.byte	0x1
 2060 01a4 11       		.uleb128 0x11
 2061 01a5 01       		.uleb128 0x1
 2062 01a6 31       		.uleb128 0x31
 2063 01a7 13       		.uleb128 0x13
 2064 01a8 00       		.byte	0
 2065 01a9 00       		.byte	0
 2066 01aa 22       		.uleb128 0x22
 2067 01ab 8A8201   		.uleb128 0x410a
 2068 01ae 00       		.byte	0
 2069 01af 02       		.uleb128 0x2
 2070 01b0 18       		.uleb128 0x18
 2071 01b1 9142     		.uleb128 0x2111
 2072 01b3 18       		.uleb128 0x18
 2073 01b4 00       		.byte	0
 2074 01b5 00       		.byte	0
 2075 01b6 23       		.uleb128 0x23
 2076 01b7 2E       		.uleb128 0x2e
 2077 01b8 01       		.byte	0x1
 2078 01b9 3F       		.uleb128 0x3f
 2079 01ba 19       		.uleb128 0x19
 2080 01bb 03       		.uleb128 0x3
 2081 01bc 0E       		.uleb128 0xe
 2082 01bd 3A       		.uleb128 0x3a
 2083 01be 0B       		.uleb128 0xb
 2084 01bf 3B       		.uleb128 0x3b
 2085 01c0 05       		.uleb128 0x5
 2086 01c1 27       		.uleb128 0x27
 2087 01c2 19       		.uleb128 0x19
 2088 01c3 11       		.uleb128 0x11
 2089 01c4 01       		.uleb128 0x1
 2090 01c5 12       		.uleb128 0x12
 2091 01c6 06       		.uleb128 0x6
 2092 01c7 40       		.uleb128 0x40
 2093 01c8 18       		.uleb128 0x18
 2094 01c9 9742     		.uleb128 0x2117
 2095 01cb 19       		.uleb128 0x19
 2096 01cc 01       		.uleb128 0x1
 2097 01cd 13       		.uleb128 0x13
 2098 01ce 00       		.byte	0
 2099 01cf 00       		.byte	0
 2100 01d0 24       		.uleb128 0x24
 2101 01d1 34       		.uleb128 0x34
 2102 01d2 00       		.byte	0
 2103 01d3 03       		.uleb128 0x3
 2104 01d4 08       		.uleb128 0x8
 2105 01d5 3A       		.uleb128 0x3a
 2106 01d6 0B       		.uleb128 0xb
 2107 01d7 3B       		.uleb128 0x3b
 2108 01d8 05       		.uleb128 0x5
 2109 01d9 49       		.uleb128 0x49
 2110 01da 13       		.uleb128 0x13
 2111 01db 3F       		.uleb128 0x3f
 2112 01dc 19       		.uleb128 0x19
 2113 01dd 3C       		.uleb128 0x3c
ARM GAS  /tmp/ccNLiF6t.s 			page 52


 2114 01de 19       		.uleb128 0x19
 2115 01df 00       		.byte	0
 2116 01e0 00       		.byte	0
 2117 01e1 25       		.uleb128 0x25
 2118 01e2 2E       		.uleb128 0x2e
 2119 01e3 00       		.byte	0
 2120 01e4 3F       		.uleb128 0x3f
 2121 01e5 19       		.uleb128 0x19
 2122 01e6 03       		.uleb128 0x3
 2123 01e7 0E       		.uleb128 0xe
 2124 01e8 3A       		.uleb128 0x3a
 2125 01e9 0B       		.uleb128 0xb
 2126 01ea 3B       		.uleb128 0x3b
 2127 01eb 05       		.uleb128 0x5
 2128 01ec 27       		.uleb128 0x27
 2129 01ed 19       		.uleb128 0x19
 2130 01ee 3C       		.uleb128 0x3c
 2131 01ef 19       		.uleb128 0x19
 2132 01f0 00       		.byte	0
 2133 01f1 00       		.byte	0
 2134 01f2 26       		.uleb128 0x26
 2135 01f3 2E       		.uleb128 0x2e
 2136 01f4 01       		.byte	0x1
 2137 01f5 3F       		.uleb128 0x3f
 2138 01f6 19       		.uleb128 0x19
 2139 01f7 03       		.uleb128 0x3
 2140 01f8 0E       		.uleb128 0xe
 2141 01f9 3A       		.uleb128 0x3a
 2142 01fa 0B       		.uleb128 0xb
 2143 01fb 3B       		.uleb128 0x3b
 2144 01fc 05       		.uleb128 0x5
 2145 01fd 27       		.uleb128 0x27
 2146 01fe 19       		.uleb128 0x19
 2147 01ff 3C       		.uleb128 0x3c
 2148 0200 19       		.uleb128 0x19
 2149 0201 01       		.uleb128 0x1
 2150 0202 13       		.uleb128 0x13
 2151 0203 00       		.byte	0
 2152 0204 00       		.byte	0
 2153 0205 27       		.uleb128 0x27
 2154 0206 2E       		.uleb128 0x2e
 2155 0207 01       		.byte	0x1
 2156 0208 3F       		.uleb128 0x3f
 2157 0209 19       		.uleb128 0x19
 2158 020a 03       		.uleb128 0x3
 2159 020b 0E       		.uleb128 0xe
 2160 020c 3A       		.uleb128 0x3a
 2161 020d 0B       		.uleb128 0xb
 2162 020e 3B       		.uleb128 0x3b
 2163 020f 0B       		.uleb128 0xb
 2164 0210 27       		.uleb128 0x27
 2165 0211 19       		.uleb128 0x19
 2166 0212 3C       		.uleb128 0x3c
 2167 0213 19       		.uleb128 0x19
 2168 0214 00       		.byte	0
 2169 0215 00       		.byte	0
 2170 0216 00       		.byte	0
ARM GAS  /tmp/ccNLiF6t.s 			page 53


 2171              		.section	.debug_loc,"",%progbits
 2172              	.Ldebug_loc0:
 2173              	.LLST0:
 2174 0000 08000000 		.4byte	.LVL0
 2175 0004 1E000000 		.4byte	.LVL3
 2176 0008 0100     		.2byte	0x1
 2177 000a 54       		.byte	0x54
 2178 000b 00000000 		.4byte	0
 2179 000f 00000000 		.4byte	0
 2180              		.section	.debug_aranges,"",%progbits
 2181 0000 24000000 		.4byte	0x24
 2182 0004 0200     		.2byte	0x2
 2183 0006 00000000 		.4byte	.Ldebug_info0
 2184 000a 04       		.byte	0x4
 2185 000b 00       		.byte	0
 2186 000c 0000     		.2byte	0
 2187 000e 0000     		.2byte	0
 2188 0010 00000000 		.4byte	.LFB179
 2189 0014 24000000 		.4byte	.LFE179-.LFB179
 2190 0018 00000000 		.4byte	.LFB180
 2191 001c 4C000000 		.4byte	.LFE180-.LFB180
 2192 0020 00000000 		.4byte	0
 2193 0024 00000000 		.4byte	0
 2194              		.section	.debug_ranges,"",%progbits
 2195              	.Ldebug_ranges0:
 2196 0000 00000000 		.4byte	.LFB179
 2197 0004 24000000 		.4byte	.LFE179
 2198 0008 00000000 		.4byte	.LFB180
 2199 000c 4C000000 		.4byte	.LFE180
 2200 0010 00000000 		.4byte	0
 2201 0014 00000000 		.4byte	0
 2202              		.section	.debug_line,"",%progbits
 2203              	.Ldebug_line0:
 2204 0000 99020000 		.section	.debug_str,"MS",%progbits,1
 2204      02003202 
 2204      00000201 
 2204      FB0E0D00 
 2204      01010101 
 2205              	.LASF46:
 2206 0000 63685F74 		.ascii	"ch_threads_list\000"
 2206      68726561 
 2206      64735F6C 
 2206      69737400 
 2207              	.LASF80:
 2208 0010 41504231 		.ascii	"APB1ENR\000"
 2208      454E5200 
 2209              	.LASF106:
 2210 0018 77746D74 		.ascii	"wtmtxp\000"
 2210      787000
 2211              	.LASF123:
 2212 001f 6F73616C 		.ascii	"osalOsTimerHandlerI\000"
 2212      4F735469 
 2212      6D657248 
 2212      616E646C 
 2212      65724900 
 2213              	.LASF131:
 2214 0033 63685379 		.ascii	"chSysTimerHandlerI\000"
ARM GAS  /tmp/ccNLiF6t.s 			page 54


 2214      7354696D 
 2214      65724861 
 2214      6E646C65 
 2214      724900
 2215              	.LASF86:
 2216 0046 72656761 		.ascii	"regarm_t\000"
 2216      726D5F74 
 2216      00
 2217              	.LASF76:
 2218 004f 41504232 		.ascii	"APB2RSTR\000"
 2218      52535452 
 2218      00
 2219              	.LASF35:
 2220 0058 666C6167 		.ascii	"flags\000"
 2220      7300
 2221              	.LASF26:
 2222 005e 73797374 		.ascii	"systime_t\000"
 2222      696D655F 
 2222      7400
 2223              	.LASF41:
 2224 0068 7265616C 		.ascii	"realprio\000"
 2224      7072696F 
 2224      00
 2225              	.LASF39:
 2226 0071 6570656E 		.ascii	"epending\000"
 2226      64696E67 
 2226      00
 2227              	.LASF0:
 2228 007a 756E7369 		.ascii	"unsigned int\000"
 2228      676E6564 
 2228      20696E74 
 2228      00
 2229              	.LASF47:
 2230 0087 6E657874 		.ascii	"next\000"
 2230      00
 2231              	.LASF44:
 2232 008c 74687265 		.ascii	"threads_list_t\000"
 2232      6164735F 
 2232      6C697374 
 2232      5F7400
 2233              	.LASF81:
 2234 009b 42444352 		.ascii	"BDCR\000"
 2234      00
 2235              	.LASF7:
 2236 00a0 5F5F696E 		.ascii	"__int32_t\000"
 2236      7433325F 
 2236      7400
 2237              	.LASF36:
 2238 00aa 72656673 		.ascii	"refs\000"
 2238      00
 2239              	.LASF102:
 2240 00af 77746F62 		.ascii	"wtobjp\000"
 2240      6A7000
 2241              	.LASF116:
 2242 00b6 706F7274 		.ascii	"port_lock\000"
 2242      5F6C6F63 
 2242      6B00
ARM GAS  /tmp/ccNLiF6t.s 			page 55


 2243              	.LASF68:
 2244 00c0 76746C69 		.ascii	"vtlist\000"
 2244      737400
 2245              	.LASF88:
 2246 00c7 706F7274 		.ascii	"port_context\000"
 2246      5F636F6E 
 2246      74657874 
 2246      00
 2247              	.LASF118:
 2248 00d4 706F7274 		.ascii	"port_lock_from_isr\000"
 2248      5F6C6F63 
 2248      6B5F6672 
 2248      6F6D5F69 
 2248      737200
 2249              	.LASF52:
 2250 00e7 63685F72 		.ascii	"ch_ready_list\000"
 2250      65616479 
 2250      5F6C6973 
 2250      7400
 2251              	.LASF58:
 2252 00f5 66756E63 		.ascii	"func\000"
 2252      00
 2253              	.LASF107:
 2254 00fa 65776D61 		.ascii	"ewmask\000"
 2254      736B00
 2255              	.LASF50:
 2256 0101 70726576 		.ascii	"prev\000"
 2256      00
 2257              	.LASF49:
 2258 0106 63685F74 		.ascii	"ch_threads_queue\000"
 2258      68726561 
 2258      64735F71 
 2258      75657565 
 2258      00
 2259              	.LASF120:
 2260 0117 63685379 		.ascii	"chSysLockFromISR\000"
 2260      734C6F63 
 2260      6B46726F 
 2260      6D495352 
 2260      00
 2261              	.LASF96:
 2262 0128 444D4152 		.ascii	"DMAR\000"
 2262      00
 2263              	.LASF74:
 2264 012d 4442474D 		.ascii	"DBGMCU_TypeDef\000"
 2264      43555F54 
 2264      79706544 
 2264      656600
 2265              	.LASF54:
 2266 013c 76746675 		.ascii	"vtfunc_t\000"
 2266      6E635F74 
 2266      00
 2267              	.LASF63:
 2268 0145 63685F73 		.ascii	"ch_system_debug\000"
 2268      79737465 
 2268      6D5F6465 
 2268      62756700 
ARM GAS  /tmp/ccNLiF6t.s 			page 56


 2269              	.LASF127:
 2270 0155 474E5520 		.ascii	"GNU C 4.8.3 -mcpu=cortex-m0 -mno-thumb-interwork -m"
 2270      4320342E 
 2270      382E3320 
 2270      2D6D6370 
 2270      753D636F 
 2271 0188 7468756D 		.ascii	"thumb -ggdb -O2 -fomit-frame-pointer -falign-functi"
 2271      62202D67 
 2271      67646220 
 2271      2D4F3220 
 2271      2D666F6D 
 2272 01bb 6F6E733D 		.ascii	"ons=16 -ffunction-sections -fdata-sections -fno-com"
 2272      3136202D 
 2272      6666756E 
 2272      6374696F 
 2272      6E2D7365 
 2273 01ee 6D6F6E20 		.ascii	"mon -flto\000"
 2273      2D666C74 
 2273      6F00
 2274              	.LASF17:
 2275 01f8 75696E74 		.ascii	"uint32_t\000"
 2275      33325F74 
 2275      00
 2276              	.LASF104:
 2277 0201 73656E74 		.ascii	"sentmsg\000"
 2277      6D736700 
 2278              	.LASF72:
 2279 0209 41504231 		.ascii	"APB1FZ\000"
 2279      465A00
 2280              	.LASF24:
 2281 0210 6576656E 		.ascii	"eventmask_t\000"
 2281      746D6173 
 2281      6B5F7400 
 2282              	.LASF82:
 2283 021c 41484252 		.ascii	"AHBRSTR\000"
 2283      53545200 
 2284              	.LASF95:
 2285 0224 42445452 		.ascii	"BDTR\000"
 2285      00
 2286              	.LASF108:
 2287 0229 63685F73 		.ascii	"ch_semaphore\000"
 2287      656D6170 
 2287      686F7265 
 2287      00
 2288              	.LASF22:
 2289 0236 74707269 		.ascii	"tprio_t\000"
 2289      6F5F7400 
 2290              	.LASF56:
 2291 023e 63685F76 		.ascii	"ch_virtual_timer\000"
 2291      69727475 
 2291      616C5F74 
 2291      696D6572 
 2291      00
 2292              	.LASF92:
 2293 024f 43434D52 		.ascii	"CCMR1\000"
 2293      3100
 2294              	.LASF93:
ARM GAS  /tmp/ccNLiF6t.s 			page 57


 2295 0255 43434D52 		.ascii	"CCMR2\000"
 2295      3200
 2296              	.LASF97:
 2297 025b 43434D52 		.ascii	"CCMR3\000"
 2297      3300
 2298              	.LASF13:
 2299 0261 6C6F6E67 		.ascii	"long long unsigned int\000"
 2299      206C6F6E 
 2299      6720756E 
 2299      7369676E 
 2299      65642069 
 2300              	.LASF5:
 2301 0278 5F5F7569 		.ascii	"__uint16_t\000"
 2301      6E743136 
 2301      5F7400
 2302              	.LASF25:
 2303 0283 636E745F 		.ascii	"cnt_t\000"
 2303      7400
 2304              	.LASF110:
 2305 0289 6F776E65 		.ascii	"owner\000"
 2305      7200
 2306              	.LASF48:
 2307 028f 74687265 		.ascii	"threads_queue_t\000"
 2307      6164735F 
 2307      71756575 
 2307      655F7400 
 2308              	.LASF40:
 2309 029f 6D74786C 		.ascii	"mtxlist\000"
 2309      69737400 
 2310              	.LASF60:
 2311 02a7 63685F76 		.ascii	"ch_virtual_timers_list\000"
 2311      69727475 
 2311      616C5F74 
 2311      696D6572 
 2311      735F6C69 
 2312              	.LASF27:
 2313 02be 74687265 		.ascii	"thread_t\000"
 2313      61645F74 
 2313      00
 2314              	.LASF121:
 2315 02c7 63685379 		.ascii	"chSysUnlockFromISR\000"
 2315      73556E6C 
 2315      6F636B46 
 2315      726F6D49 
 2315      535200
 2316              	.LASF100:
 2317 02da 7264796D 		.ascii	"rdymsg\000"
 2317      736700
 2318              	.LASF122:
 2319 02e1 6F73616C 		.ascii	"osalSysLockFromISR\000"
 2319      5379734C 
 2319      6F636B46 
 2319      726F6D49 
 2319      535200
 2320              	.LASF114:
 2321 02f4 5F5F6469 		.ascii	"__disable_irq\000"
 2321      7361626C 
ARM GAS  /tmp/ccNLiF6t.s 			page 58


 2321      655F6972 
 2321      7100
 2322              	.LASF99:
 2323 0302 73746D33 		.ascii	"stm32_tim_t\000"
 2323      325F7469 
 2323      6D5F7400 
 2324              	.LASF85:
 2325 030e 5243435F 		.ascii	"RCC_TypeDef\000"
 2325      54797065 
 2325      44656600 
 2326              	.LASF109:
 2327 031a 63685F6D 		.ascii	"ch_mutex\000"
 2327      75746578 
 2327      00
 2328              	.LASF12:
 2329 0323 5F5F7569 		.ascii	"__uint64_t\000"
 2329      6E743634 
 2329      5F7400
 2330              	.LASF91:
 2331 032e 44494552 		.ascii	"DIER\000"
 2331      00
 2332              	.LASF77:
 2333 0333 41504231 		.ascii	"APB1RSTR\000"
 2333      52535452 
 2333      00
 2334              	.LASF29:
 2335 033c 7072696F 		.ascii	"prio\000"
 2335      00
 2336              	.LASF94:
 2337 0341 43434552 		.ascii	"CCER\000"
 2337      00
 2338              	.LASF111:
 2339 0346 63686172 		.ascii	"char\000"
 2339      00
 2340              	.LASF43:
 2341 034b 74687265 		.ascii	"thread_reference_t\000"
 2341      61645F72 
 2341      65666572 
 2341      656E6365 
 2341      5F7400
 2342              	.LASF33:
 2343 035e 77616261 		.ascii	"wabase\000"
 2343      736500
 2344              	.LASF20:
 2345 0365 74737461 		.ascii	"tstate_t\000"
 2345      74655F74 
 2345      00
 2346              	.LASF78:
 2347 036e 41484245 		.ascii	"AHBENR\000"
 2347      4E5200
 2348              	.LASF14:
 2349 0375 75696E74 		.ascii	"uint8_t\000"
 2349      385F7400 
 2350              	.LASF38:
 2351 037d 6D736771 		.ascii	"msgqueue\000"
 2351      75657565 
 2351      00
ARM GAS  /tmp/ccNLiF6t.s 			page 59


 2352              	.LASF90:
 2353 0386 534D4352 		.ascii	"SMCR\000"
 2353      00
 2354              	.LASF45:
 2355 038b 63685F74 		.ascii	"ch_thread\000"
 2355      68726561 
 2355      6400
 2356              	.LASF62:
 2357 0395 73797374 		.ascii	"system_debug_t\000"
 2357      656D5F64 
 2357      65627567 
 2357      5F7400
 2358              	.LASF11:
 2359 03a4 6C6F6E67 		.ascii	"long long int\000"
 2359      206C6F6E 
 2359      6720696E 
 2359      7400
 2360              	.LASF71:
 2361 03b2 4944434F 		.ascii	"IDCODE\000"
 2361      444500
 2362              	.LASF125:
 2363 03b9 56656374 		.ascii	"Vector80\000"
 2363      6F723830 
 2363      00
 2364              	.LASF23:
 2365 03c2 6D73675F 		.ascii	"msg_t\000"
 2365      7400
 2366              	.LASF55:
 2367 03c8 76697274 		.ascii	"virtual_timer_t\000"
 2367      75616C5F 
 2367      74696D65 
 2367      725F7400 
 2368              	.LASF83:
 2369 03d8 43464752 		.ascii	"CFGR2\000"
 2369      3200
 2370              	.LASF84:
 2371 03de 43464752 		.ascii	"CFGR3\000"
 2371      3300
 2372              	.LASF79:
 2373 03e4 41504232 		.ascii	"APB2ENR\000"
 2373      454E5200 
 2374              	.LASF64:
 2375 03ec 70616E69 		.ascii	"panic_msg\000"
 2375      635F6D73 
 2375      6700
 2376              	.LASF73:
 2377 03f6 41504232 		.ascii	"APB2FZ\000"
 2377      465A00
 2378              	.LASF113:
 2379 03fd 5F426F6F 		.ascii	"_Bool\000"
 2379      6C00
 2380              	.LASF19:
 2381 0403 746D6F64 		.ascii	"tmode_t\000"
 2381      655F7400 
 2382              	.LASF69:
 2383 040b 6D61696E 		.ascii	"mainthread\000"
 2383      74687265 
ARM GAS  /tmp/ccNLiF6t.s 			page 60


 2383      616400
 2384              	.LASF15:
 2385 0416 75696E74 		.ascii	"uint16_t\000"
 2385      31365F74 
 2385      00
 2386              	.LASF133:
 2387 041f 6E766963 		.ascii	"nvicEnableVector\000"
 2387      456E6162 
 2387      6C655665 
 2387      63746F72 
 2387      00
 2388              	.LASF98:
 2389 0430 43435852 		.ascii	"CCXR\000"
 2389      00
 2390              	.LASF3:
 2391 0435 73686F72 		.ascii	"short int\000"
 2391      7420696E 
 2391      7400
 2392              	.LASF8:
 2393 043f 6C6F6E67 		.ascii	"long int\000"
 2393      20696E74 
 2393      00
 2394              	.LASF89:
 2395 0448 706F7274 		.ascii	"port_intctx\000"
 2395      5F696E74 
 2395      63747800 
 2396              	.LASF115:
 2397 0454 5F5F656E 		.ascii	"__enable_irq\000"
 2397      61626C65 
 2397      5F697271 
 2397      00
 2398              	.LASF66:
 2399 0461 63685F73 		.ascii	"ch_system\000"
 2399      79737465 
 2399      6D00
 2400              	.LASF126:
 2401 046b 73745F6C 		.ascii	"st_lld_init\000"
 2401      6C645F69 
 2401      6E697400 
 2402              	.LASF61:
 2403 0477 6C617374 		.ascii	"lasttime\000"
 2403      74696D65 
 2403      00
 2404              	.LASF18:
 2405 0480 75696E74 		.ascii	"uint64_t\000"
 2405      36345F74 
 2405      00
 2406              	.LASF75:
 2407 0489 43464752 		.ascii	"CFGR\000"
 2407      00
 2408              	.LASF67:
 2409 048e 726C6973 		.ascii	"rlist\000"
 2409      7400
 2410              	.LASF124:
 2411 0494 6F73616C 		.ascii	"osalSysUnlockFromISR\000"
 2411      53797355 
 2411      6E6C6F63 
ARM GAS  /tmp/ccNLiF6t.s 			page 61


 2411      6B46726F 
 2411      6D495352 
 2412              	.LASF4:
 2413 04a9 5F5F7569 		.ascii	"__uint8_t\000"
 2413      6E74385F 
 2413      7400
 2414              	.LASF32:
 2415 04b3 6E616D65 		.ascii	"name\000"
 2415      00
 2416              	.LASF70:
 2417 04b8 73697A65 		.ascii	"sizetype\000"
 2417      74797065 
 2417      00
 2418              	.LASF21:
 2419 04c1 74726566 		.ascii	"trefs_t\000"
 2419      735F7400 
 2420              	.LASF10:
 2421 04c9 6C6F6E67 		.ascii	"long unsigned int\000"
 2421      20756E73 
 2421      69676E65 
 2421      6420696E 
 2421      7400
 2422              	.LASF51:
 2423 04db 72656164 		.ascii	"ready_list_t\000"
 2423      795F6C69 
 2423      73745F74 
 2423      00
 2424              	.LASF28:
 2425 04e8 71756575 		.ascii	"queue\000"
 2425      6500
 2426              	.LASF16:
 2427 04ee 696E7433 		.ascii	"int32_t\000"
 2427      325F7400 
 2428              	.LASF112:
 2429 04f6 6D757465 		.ascii	"mutex_t\000"
 2429      785F7400 
 2430              	.LASF30:
 2431 04fe 6E657765 		.ascii	"newer\000"
 2431      7200
 2432              	.LASF119:
 2433 0504 706F7274 		.ascii	"port_unlock_from_isr\000"
 2433      5F756E6C 
 2433      6F636B5F 
 2433      66726F6D 
 2433      5F697372 
 2434              	.LASF2:
 2435 0519 756E7369 		.ascii	"unsigned char\000"
 2435      676E6564 
 2435      20636861 
 2435      7200
 2436              	.LASF9:
 2437 0527 5F5F7569 		.ascii	"__uint32_t\000"
 2437      6E743332 
 2437      5F7400
 2438              	.LASF37:
 2439 0532 77616974 		.ascii	"waiting\000"
 2439      696E6700 
ARM GAS  /tmp/ccNLiF6t.s 			page 62


 2440              	.LASF59:
 2441 053a 76697274 		.ascii	"virtual_timers_list_t\000"
 2441      75616C5F 
 2441      74696D65 
 2441      72735F6C 
 2441      6973745F 
 2442              	.LASF128:
 2443 0550 2E2E2F2E 		.ascii	"../../../os/hal/ports/STM32/LLD/TIMv1/hal_st_lld.c\000"
 2443      2E2F2E2E 
 2443      2F6F732F 
 2443      68616C2F 
 2443      706F7274 
 2444              	.LASF132:
 2445 0583 5F706F72 		.ascii	"_port_irq_epilogue\000"
 2445      745F6972 
 2445      715F6570 
 2445      696C6F67 
 2445      756500
 2446              	.LASF34:
 2447 0596 73746174 		.ascii	"state\000"
 2447      6500
 2448              	.LASF65:
 2449 059c 63685F73 		.ascii	"ch_system_t\000"
 2449      79737465 
 2449      6D5F7400 
 2450              	.LASF105:
 2451 05a8 77747365 		.ascii	"wtsemp\000"
 2451      6D7000
 2452              	.LASF103:
 2453 05af 77747472 		.ascii	"wttrp\000"
 2453      7000
 2454              	.LASF1:
 2455 05b5 7369676E 		.ascii	"signed char\000"
 2455      65642063 
 2455      68617200 
 2456              	.LASF57:
 2457 05c1 64656C74 		.ascii	"delta\000"
 2457      6100
 2458              	.LASF6:
 2459 05c7 73686F72 		.ascii	"short unsigned int\000"
 2459      7420756E 
 2459      7369676E 
 2459      65642069 
 2459      6E7400
 2460              	.LASF87:
 2461 05da 73746B61 		.ascii	"stkalign_t\000"
 2461      6C69676E 
 2461      5F7400
 2462              	.LASF53:
 2463 05e5 63757272 		.ascii	"current\000"
 2463      656E7400 
 2464              	.LASF117:
 2465 05ed 706F7274 		.ascii	"port_unlock\000"
 2465      5F756E6C 
 2465      6F636B00 
 2466              	.LASF130:
 2467 05f9 5F736176 		.ascii	"_saved_lr\000"
ARM GAS  /tmp/ccNLiF6t.s 			page 63


 2467      65645F6C 
 2467      7200
 2468              	.LASF31:
 2469 0603 6F6C6465 		.ascii	"older\000"
 2469      7200
 2470              	.LASF129:
 2471 0609 2F686F6D 		.ascii	"/home/awygle/ChibiOS-RT/demos/STM32/RT-STM32F030R8-"
 2471      652F6177 
 2471      79676C65 
 2471      2F436869 
 2471      62694F53 
 2472 063c 4E55434C 		.ascii	"NUCLEO64\000"
 2472      454F3634 
 2472      00
 2473              	.LASF101:
 2474 0645 65786974 		.ascii	"exitcode\000"
 2474      636F6465 
 2474      00
 2475              	.LASF42:
 2476 064e 6D706F6F 		.ascii	"mpool\000"
 2476      6C00
 2477              		.comm	__gnu_lto_v1,1,1
 2478              		.ident	"GCC: (4.8.3-18ubuntu2+12) 4.8.3"
ARM GAS  /tmp/ccNLiF6t.s 			page 64


DEFINED SYMBOLS
                            *ABS*:0000000000000000 hal_st_lld.c
     /tmp/ccNLiF6t.s:252    .text.Vector80:0000000000000000 $t
     /tmp/ccNLiF6t.s:258    .text.Vector80:0000000000000000 Vector80
     /tmp/ccNLiF6t.s:336    .text.Vector80:0000000000000020 $d
     /tmp/ccNLiF6t.s:341    .text.st_lld_init:0000000000000000 $t
     /tmp/ccNLiF6t.s:347    .text.st_lld_init:0000000000000000 st_lld_init
     /tmp/ccNLiF6t.s:404    .text.st_lld_init:0000000000000038 $d
                            *COM*:0000000000000001 __gnu_lto_v1
                     .debug_frame:0000000000000010 $d
     /tmp/ccNLiF6t.s:340    .text.Vector80:0000000000000024 $t
     /tmp/ccNLiF6t.s:412    .text.st_lld_init:000000000000004c $t

UNDEFINED SYMBOLS
chSysTimerHandlerI
_port_irq_epilogue
nvicEnableVector
