ARM GAS  /tmp/cc9IMWxg.s 			page 1


   1              		.cpu cortex-m0
   2              		.fpu softvfp
   3              		.eabi_attribute 20, 1
   4              		.eabi_attribute 21, 1
   5              		.eabi_attribute 23, 3
   6              		.eabi_attribute 24, 1
   7              		.eabi_attribute 25, 1
   8              		.eabi_attribute 26, 1
   9              		.eabi_attribute 30, 2
  10              		.eabi_attribute 34, 0
  11              		.eabi_attribute 18, 4
  12              		.code	16
  13              		.file	"hal_pal.c"
  14              		.text
  15              	.Ltext0:
  16              		.section	.gnu.lto_.jmpfuncs.a3ce3040a37c529a,"",%progbits
  17 0000 789C6362 		.ascii	"x\234cb`b\300\006D\24043\003##3\02333\204\315\300X\006"
  17      6062C006 
  17      44A03433 
  17      03232333 
  17      13333384 
  18 0018 A4010623 		.ascii	"\244\001\006#\000\243"
  18      00A3
  19              		.text
  20              		.section	.gnu.lto_.inline.a3ce3040a37c529a,"",%progbits
  21 0000 789C6362 		.ascii	"x\234cb`b\300\006\276Cif\006\006N\016Ff\006F0\023D:"
  21      6062C006 
  21      BE436966 
  21      06064E0E 
  21      46660646 
  22 0018 8049050E 		.ascii	"\200I\005\016\266\017z\014l\013\344\231\030\030_\260"
  22      B60F7A0C 
  22      6C0BE499 
  22      18185FB0 
  23 0028 B3404810 		.ascii	"\263@H\020\301\001fr\200\010\0010S\000d\014#\003\037"
  23      C1016672 
  23      80080130 
  23      5300640C 
  23      23031F
  24 003b 2F230BC4 		.ascii	"/#\013\304\024FF\210\010\320\020\210\201\334L\027\370"
  24      14464688 
  24      08D01088 
  24      81DC4C17 
  24      F8
  25 004c 318C028A 		.ascii	"1\214\002\212\241\030\302\262@^\002\304R`b`\336!\256"
  25      A118C2B2 
  25      405E02C4 
  25      52606260 
  25      DE21AE
  26 005f C000B4DE 		.ascii	"\300\000\264\336\002d\016\023\003\2670\212\373\240\206"
  26      02640E13 
  26      03B7308A 
  26      FBA086
  27 006e 7202E588 		.ascii	"r\002\345\210s\036\320&\011\220I,\274@}\023\374@\220"
  27      731ED026 
  27      0990492C 
  27      BC407D13 
ARM GAS  /tmp/cc9IMWxg.s 			page 2


  27      FC4090
  28 0081 01003C62 		.ascii	"\001\000<b\037\210"
  28      1F88
  29              		.text
  30              		.section	.gnu.lto_.pureconst.a3ce3040a37c529a,"",%progbits
  31 0000 789C6362 		.ascii	"x\234cb`b`g\200\000f\006)F)&I\000\001\312\000_"
  31      60626067 
  31      80006606 
  31      29462926 
  31      490001CA 
  32              		.text
  33              		.section	.gnu.lto_palReadBus.a3ce3040a37c529a,"",%progbits
  34 0000 789C6D90 		.ascii	"x\234m\220\275N\303@\020\204g\366|\261\235\202\236\006"
  34      BD4EC340 
  34      108467F6 
  34      7CB19D82 
  34      9E06
  35 0012 A52692FD 		.ascii	"\245&\222\3752A\002\032d\\\004K\211@\344\001b\342TT"
  35      3241021A 
  35      645C044B 
  35      8940E401 
  35      62E25454 
  36 0026 1115828A 		.ascii	"\021\025\202\212\206\202\"\264H4\210\202.\010Z*$Z\304"
  36      868222B4 
  36      48348882 
  36      2E085A2A 
  36      245AC4
  37 0039 2B843D1B 		.ascii	"+\204=\033\033\201r\272\233\275\237\375fW'\020\374\037"
  37      1B8172BA 
  37      9BBD9FFD 
  37      66572710 
  37      FC1F
  38 004b EBBA4E09 		.ascii	"\353\272N\011t4\322\2002{\006N\002!\335\006\304X8\336"
  38      7434D280 
  38      327B064E 
  38      0221DD06 
  38      C45838DE 
  39 005f 61997B2B 		.ascii	"a\231{+\017\357\313\345\374\354\351\372\223\347\322"
  39      0FEFCBE5 
  39      FCECE9FA 
  39      93E7D2
  40 006e 160E0983 		.ascii	"\026\016\011\203\214\360ThU\244\245b|w\014\234\204*"
  40      8CF05468 
  40      55A4A562 
  40      7C770C9C 
  40      842A
  41 0080 9E9216D3 		.ascii	"\236\222\026\323<\237u\206T\243\2644\353\251\272\012"
  41      3C9F7586 
  41      54A3B434 
  41      EBA9BA0A 
  42 0090 5B1417CD 		.ascii	"[\024\027\315\002\223\267\273\217\027&\274R\247>M\027"
  42      0293B7BB 
  42      8F1726BC 
  42      52A73E4D 
  42      17
  43 00a1 9B19ED25 		.ascii	"\233\031\355%.\230\261\325\247lk\364\3136\366Y7\277"
  43      2E98B1D5 
ARM GAS  /tmp/cc9IMWxg.s 			page 3


  43      A76C6BF4 
  43      CB36F659 
  43      37BF
  44 00b3 C0E36E0D 		.ascii	"\300\343n\015x]\334\344SM\012*&T\017\307\330\037\206"
  44      785DDCE4 
  44      534D0A2A 
  44      26540FC7 
  44      D81F86
  45 00c6 0D336918 		.ascii	"\0153i\030[\026i\257.\"\277\300\227\251\011M\262\356"
  45      5B1669AF 
  45      2E22BFC0 
  45      97A9094D 
  45      B2EE
  46 00d8 AA983757 		.ascii	"\252\2307W\276\326\326\207\277\316A\351\354\255v6\215"
  46      BED6D687 
  46      BFCE41E9 
  46      ECAD7636 
  46      8D
  47 00e9 73715FAC 		.ascii	"sq_\254\325HXZ\005\300+\232_\010\253\304\236v\257\237"
  47      D548585A 
  47      05C02B9A 
  47      5F08ABC4 
  47      9E76AF9F 
  48 00fd E43ADA88 		.ascii	"\344:\332\210\242\270\232\207\243\370 \031\304\243\343"
  48      A2B89A87 
  48      A3F82019 
  48      C4A3E3
  49 010c D4C5BDA3 		.ascii	"\324\305\275\243d\020\245\370\006}\023S\301"
  49      6410A5F8 
  49      067D1353 
  49      C1
  50              		.text
  51              		.section	.gnu.lto_palWriteBus.a3ce3040a37c529a,"",%progbits
  52 0000 789C6D51 		.ascii	"x\234mQ\261N\002A\020\235\331=\216\343\340\016\355\264"
  52      B14E0241 
  52      109DD93D 
  52      8EE3E00E 
  52      EDB4
  53 0012 31247692 		.ascii	"1$v\222\300\007\370\005\366\230\250\2159)\360\022\210"
  53      C007F805 
  53      F698A88D 
  53      3929F012 
  53      88
  54 0023 463E0050 		.ascii	"F>\000P\012Kj\251lM\324\306\206h\242\261\260\323\304"
  54      0A4B6AA9 
  54      6C4DD4C6 
  54      8668A2B1 
  54      B0D3C4
  55 0036 CE58F105 		.ascii	"\316X\361\005\332X\232\340\233=\366\210\204\315\335"
  55      DA589AE0 
  55      9B3DF688 
  55      84CDDD
  56 0045 9BD9B733 		.ascii	"\233\331\2673o\337\334)R4\277V\361n\202.!\262&V\203"
  56      6FDFDC29 
  56      5234BF56 
  56      F16E822E 
  56      21B22656 
ARM GAS  /tmp/cc9IMWxg.s 			page 4


  57 005a 37A29EA7 		.ascii	"7\242\236\247\230%!\246\216\342\316.\233\332[\3654\236"
  57      982521A6 
  57      8EE2CE2E 
  57      9BDA5BF5 
  57      349E
  58 006c 4C6E7E5E 		.ascii	"Ln~^\356~y\250\226\025\267\2304\305L\0162\316 cW +\340"
  58      EE7E79A8 
  58      9615B798 
  58      34C54C0E 
  58      32CE2063 
  59 0084 01544EC0 		.ascii	"\001TN\300\007\350\274p\005\201@\266\241dE\001\350f"
  59      07E8BC70 
  59      058140B6 
  59      A1644501 
  59      E866
  60 0096 A8DFED0E 		.ascii	"\250\337\355\016J-\206\217\272\271\252\006\224\373\267"
  60      4A2D868F 
  60      BAB9AA06 
  60      94FBB7
  61 00a5 4121EA57 		.ascii	"A!\352W:\375\374\370^\211\370\022\3274X\227i#fgH\027"
  61      3AFDFCF8 
  61      5E89F812 
  61      D7345897 
  61      69236667 
  62 00bb 1C73A6C1 		.ascii	"\034s\246\301j\007\3215\036\017\330N\206\236\007m;P"
  62      6A07D135 
  62      1E0FD84E 
  62      869E076D 
  62      3B50
  63 00cd E4186ACF 		.ascii	"\344\030j\3172\256\321\310.\326\340T\343\354>\325\310"
  63      32AED1C8 
  63      2ED6E054 
  63      E3EC3ED5 
  63      C8
  64 00de 1A19F7BF 		.ascii	"\032\031\367\277\214gd\274\3052j&s\236\312\344\320$"
  64      8C6764BC 
  64      C5326A26 
  64      739ECAE4 
  64      D024
  65 00f0 456A2931 		.ascii	"Ej)1\371\225\236\37084\305\327)\2257\327\372sN\012\230"
  65      F9959EF8 
  65      3834C5D7 
  65      299537D7 
  65      FA734E0A 
  66 0105 C63A99B5 		.ascii	"\306:\231\265\007\020\236k\017Mm`\330Q\312\026\215n"
  66      07109E6B 
  66      0F4D6D60 
  66      D851CA16 
  66      8D6E
  67 0117 28ECF356 		.ascii	"(\354\363VB\226\351\252\333\207\251\234M\374d\"\324"
  67      4296E9AA 
  67      DB87A99C 
  67      4DFC6422 
  67      D4
  68 0128 6931EB4C 		.ascii	"i1\353L'\322\323\230\354!E\364N\275\361\343z\"cW\015"
  68      27D2D398 
  68      EC2145F4 
ARM GAS  /tmp/cc9IMWxg.s 			page 5


  68      4EBDF1E3 
  68      7A226357 
  69 013d 5F10FF4D 		.ascii	"_\020\377M\346_\253T\252\311s\324\256\036F\315j\373"
  69      E65FAB54 
  69      AAC973D4 
  69      AE1E46CD 
  69      6AFB
  70 014f A42E71FF 		.ascii	"\244.q\3778jV\352\364\0076Ft8"
  70      386A56EA 
  70      F4073646 
  70      7438
  71              		.text
  72              		.section	.gnu.lto_palSetBusMode.a3ce3040a37c529a,"",%progbits
  73 0000 789C6D90 		.ascii	"x\234m\220\277J\003A\020\306\277o\366\376\231\312R\033"
  73      BF4A0341 
  73      10C6BF6F 
  73      F6FE99CA 
  73      521B
  74 0012 09A453B8 		.ascii	"\011\244S\270{\231\010j#\347\201\347A\202bJ\213\\\324"
  74      7B99086A 
  74      23E781E7 
  74      4182624A 
  74      8B5CD4
  75 0025 C232B582 		.ascii	"\3022\265\202\340\003hZK;+\025-S\345\001$\017\240E2"
  75      E003685A 
  75      4B3B2B15 
  75      2D53E501 
  75      240FA045 
  76 003a BBE729C8 		.ascii	"\273\347)\310-\2733\273\337\316ofv\005\202\377c]\327"
  76      2DBB33BB 
  76      DFCE6F66 
  76      760582FF 
  76      635DD7
  77 004d 2181B67A 		.ascii	"!\201\266z\032P\306\257\300(\022\322n@\014\205\303]"
  77      1A50C6AF 
  77      C02812D2 
  77      6E400C85 
  77      C35D
  78 005f BAD8893C 		.ascii	"\272\330\211<\315\026\213\207\217\347\311'o\245%\354"
  78      CD168B87 
  78      8FE7C927 
  78      6FA525EC 
  79 006f 130605E1 		.ascii	"\023\006\005\341\251\241\257F\0025&\264\307Ho-\346\343"
  79      A9A1AF46 
  79      023526B4 
  79      C7486F2D 
  79      E6E3
  80 0081 B22CC7ED 		.ascii	"\262,\307\355>\265v\346\362t\325\332\344\333*\2517/"
  80      3EB576E6 
  80      F274D5DA 
  80      E4DB2AA9 
  80      372F
  81 0093 389F3E7E 		.ascii	"8\237>~\257\245\274\323\0349\315\0266\013z7\270fA?\247"
  81      AFA5BCD3 
  81      1C39CD16 
  81      360B7A37 
  81      B866413F 
ARM GAS  /tmp/cc9IMWxg.s 			page 6


  82 00a8 ECA80F5C 		.ascii	"\354\250\017\\\003\007\254\333Vf\257\006<\007\204\315"
  82      0307ACDB 
  82      5666AF06 
  82      3C0784CD 
  83 00b8 001B00DF 		.ascii	"\000\033\000\337\001Q3 \177\300\334\324D\240\220\225"
  83      01513320 
  83      7FC0DCD4 
  83      44A09095 
  84 00c8 2EEE7FA5 		.ascii	".\356\177\245P\013\347\226zCPi\300\031\276\312\253r"
  84      500BE796 
  84      7A435069 
  84      C019BECA 
  84      AB72
  85 00da B5E04AF6 		.ascii	"\265\340J\366SX\237\343B\243\202-\340\035\243\331\274"
  85      53589FE3 
  85      42A3822D 
  85      E01DA3D9 
  85      BC
  86 00eb 534757A3 		.ascii	"SGW\243\253\221\372\013\266\354F\034'\325<\036$Gi/\031"
  86      AB91FA0B 
  86      B6EC461C 
  86      27D53C1E 
  86      2447692F 
  87 0100 9C66D6EF 		.ascii	"\234f\326\357\237\244\2758\303\022\012MNp"
  87      9FA4BD38 
  87      C3120A4D 
  87      4E70
  88              		.text
  89              		.section	.gnu.lto_.symbol_nodes.a3ce3040a37c529a,"",%progbits
  90 0000 789C6362 		.ascii	"x\234cb`bpe\200\002\246\315\214\365\014\014\023\316"
  90      60627065 
  90      8002A6CD 
  90      8CF50C0C 
  90      13CE
  91 0012 3130D4D7 		.ascii	"10\324\327\317\353`d\332\302X\317\210\304\335\312X\317"
  91      CFEB6064 
  91      DAC258CF 
  91      88C4DDCA 
  91      58CF
  92 0024 84E032EE 		.ascii	"\204\3402\356`\254g\206p\033\032\030\231\231\230\031"
  92      60AC6786 
  92      701B1A18 
  92      99999819 
  93 0034 163FFCC7 		.ascii	"\026?\374\307\310\000\000\3461\025\035"
  93      C80000E6 
  93      31151D
  94              		.text
  95              		.section	.gnu.lto_.refs.a3ce3040a37c529a,"",%progbits
  96 0000 789C6362 		.ascii	"x\234cb`b`d\200\002\000\000F\000\006"
  96      60626064 
  96      80020000 
  96      460006
  97              		.text
  98              		.section	.gnu.lto_.decls.a3ce3040a37c529a,"",%progbits
  99 0000 789CB558 		.ascii	"x\234\265X{l\024E\030\237\331\273\203^{\224\002BJ\242"
  99      7B6C1445 
  99      189FD9BB 
ARM GAS  /tmp/cc9IMWxg.s 			page 7


  99      835E7B94 
  99      02424AA2 
 100 0014 B4103184 		.ascii	"\264\0201\204`\017\212%\372\017Qh\245\304b\233+\004"
 100      600F8A25 
 100      FA0F5168 
 100      A5C4629B 
 100      2B04
 101 0026 FC6B5DDA 		.ascii	"\374k]\332+\275x}\244\267\2471\2328myI\"\266\005j\015"
 101      2BBD787D 
 101      A4B7A731 
 101      9A386D79 
 101      4922B605 
 102 003c 15AE94A7 		.ascii	"\025\256\224\247Q\220B\251 \222\203\224R\013\351\021"
 102      519042A9 
 102      20928394 
 102      520BE911 
 103 004c 4CD5F83C 		.ascii	"L\325\370<\021B\032\210)\012\021\321r~3\273{\267\273"
 103      11421A88 
 103      290A11D1 
 103      727E33BB 
 103      7BB7BB
 104 005f BDBD4713 		.ascii	"\275\275G\0237\367\315\315\356\316\367\373~\337cfv\227"
 104      37F7CDCD 
 104      EECEF7FB 
 104      7EDF6366 
 104      7697
 105 0071 431C7A1B 		.ascii	"C\034z\033#\024\202\343\255\307\020\232\312!dF\010-"
 105      231482E3 
 105      ADC7109A 
 105      CA216446 
 105      082D
 106 0083 4591839E 		.ascii	"E\221\203\236w\200\334\003\031\005\261b4\346\240\367"
 106      7780DC03 
 106      1905B162 
 106      34E6A0F7 
 107 0093 D3406E81 		.ascii	"\323@n\201L\004\261\310z\235 \335 \307@\216\202\234"
 107      4C04B1C8 
 107      7A9D20DD 
 107      20C7408E 
 107      829C
 108 00a5 05390572 		.ascii	"\0059\005rG\276\177\022\244\027\3446\3100\010\226\261"
 108      47BE7F12 
 108      A417E436 
 108      C8300896 
 108      B1
 109 00b6 8006BA0B 		.ascii	"\200\006\272\0132Yg\213r\260E\261\243\266\321)\343S"
 109      3259678B 
 109      72B045B1 
 109      A3B6D129 
 109      E353
 110 00c8 5B5FC9F6 		.ascii	"[_\311\366,\262\255a\331V?\310\025\331\036\3054\201"
 110      2CB2AD61 
 110      D9563FC8 
 110      15D91EC5 
 110      3481
 111 00da FC0DF210 		.ascii	"\374\015\362\020d\246\316\346\250\201o\321l\316\002"
 111      64A6CEE6 
ARM GAS  /tmp/cc9IMWxg.s 			page 8


 111      A8816FD1 
 111      6CCE02
 112 00e9 DD542CE1 		.ascii	"\335T,\341\251\355q\252\330\321{\026\370\237\000\222"
 112      A9ED71AA 
 112      D8D17B16 
 112      F89F0092 
 113 00f9 A5B39585 		.ascii	"\245\263\225\205\366\020_0x\340\372\010\376\220\370"
 113      F6105F30 
 113      78E0FA08 
 113      FE90F8
 114 0108 379250E8 		.ascii	"7\222P\350\0354\003\355\"p\3706\023\202E+\332JH\003"
 114      1D3403ED 
 114      2270F836 
 114      1382452B 
 114      DA4A4803 
 115 011c 3D29EC4F 		.ascii	"=)\354OGh\035\026p\272\025e\263\216\315\312x\315E\373"
 115      47681D16 
 115      70BA1565 
 115      B38ECDCA 
 115      78CD45FB 
 116 0130 09690AEE 		.ascii	"\011i\012\356\030=4\237\220\024\001wb+\330_\213\321"
 116      183D349F 
 116      90140177 
 116      622BD85F 
 116      8BD1
 117 0142 7C740470 		.ascii	"|t\004p\232@\177q\224\024\242\304\241{\266\\<\217\033"
 117      9A407F71 
 117      9414A2C4 
 117      A17BB65C 
 117      3C8F1B
 118 0155 808E800F 		.ascii	"\200\216\200\0171\360w1F\002>\210\347'\01554\320\333"
 118      31F07731 
 118      46023E88 
 118      E7270D35 
 118      34D0DB
 119 0168 8C1B19D4 		.ascii	"\214\033\031\324\307\014\312\257\203\022\360D\253\232"
 119      C70CCAAF 
 119      8312F044 
 119      AB9A
 120 0176 253B5706 		.ascii	"%;W\006P<v[\356\3202\236\214\376\347\341\321\274\241"
 120      503C765B 
 120      EED0329E 
 120      8CFEE7E1 
 120      D1BCA1
 121 0189 9AFBF00C 		.ascii	"\232\373\360\014\3263\261lC\311l\213\304`*j\2469\314"
 121      D633B16C 
 121      43C96C8B 
 121      C4602A6A 
 121      A639CC
 122 019c 5645E355 		.ascii	"VE\343UE\337\246\012\354\340\267\271,g\307\360T@\371"
 122      45DFA60A 
 122      ECE0B7B9 
 122      2C67C7F0 
 122      5440F9
 123 01af 5D178B78 		.ascii	"]\027\213x(\224E\027hJ:\014\223\370\217\017\330\210"
 123      28944517 
 123      684A3A0C 
ARM GAS  /tmp/cc9IMWxg.s 			page 9


 123      93F88F0F 
 123      D888
 124 01c1 59BA8E34 		.ascii	"Y\272\2164h\232c6\362\001[\377\351\201\366\231\304w"
 124      689A6336 
 124      F2015BFF 
 124      E981F699 
 124      C477
 125 01d3 01C7231F 		.ascii	"\001\307#\037\344\024\273\013T\025\327\261\327\304\330"
 125      E414BB0B 
 125      5415D7B1 
 125      D7C4D8
 126 01e2 9F62ECEF 		.ascii	"\237b\354\357\305g\257\205\241\364N\353\351\3773\310"
 126      C567AF85 
 126      A1F44EEB 
 126      E9FF33C8 
 127 01f2 E89F8E4F 		.ascii	"\350\237\216O\177c\243?4(\321g\365\327\030\263\376\004"
 127      7F63A33F 
 127      3428D167 
 127      F5D718B3 
 127      FE04
 128 0204 7C18CF4D 		.ascii	"|\030\317M(\337\034\252\347\260L-\032\222\334\225\016"
 128      28DF1CAA 
 128      E7B04C2D 
 128      1A92DC95 
 128      0E
 129 0215 79809656 		.ascii	"y\200\226VS\300\326$\010\370,+\360-I\203ek\300Z\324"
 129      53C0D624 
 129      08F82C2B 
 129      F02D4983 
 129      656BC05A 
 130 022a 60DB1301 		.ascii	"`\333\023\001K1f\266S\015\326\2324\230\226Y\253\032"
 130      4B3166B6 
 130      530DD69A 
 130      34989659 
 130      AB1A
 131 023c AC3D11B0 		.ascii	"\254=\021\260\014cfmj0_\322`jf\365\376\236\300\000&"
 131      0C63666D 
 131      6A305FD2 
 131      606A66F5 
 131      FE9EC000 
 132 0251 2DB669A8 		.ascii	"-\266i\250\205\220z\342\233`T\024\010\261!$\346\020"
 132      85907AE2 
 132      9B605414 
 132      08B12124 
 132      E610
 133 0263 010FE069 		.ascii	"\001\017\340i\332\"\335\375~:-Rz=\376\034\373( \025"
 133      DA22DDFD 
 133      7E3A2D52 
 133      7A3DFE1C 
 133      FB282015 
 134 0277 A9B278EE 		.ascii	"\251\262x\356g\316Q\335qT\027\030\357\016\244\221m6"
 134      67CE51DD 
 134      71541718 
 134      EF0EA491 
 134      6D36
 135 0289 7976F99E 		.ascii	"yv\371\236?\034\203x@?\273\366\006\270l\351r|\336\307"
 135      3F1C8378 
ARM GAS  /tmp/cc9IMWxg.s 			page 10


 135      403FBBF6 
 135      06B86CE9 
 135      727CDEC7 
 136 029d 03ED99C4 		.ascii	"\003\355\231\304w\036\313\213;\331L\346\251le(\266\350"
 136      771ECB8B 
 136      3BD94CE6 
 136      A96C6528 
 136      B6E8
 137 02af E217DE27 		.ascii	"\342\027\336'z\026\260\005\341\032s\364 \027u\227H\000"
 137      7A16B005 
 137      E11A73F4 
 137      20177597 
 137      4800
 138 02c1 6868E0D3 		.ascii	"hh\340\323\347\030\320\020\003:\306\351\367\010\223"
 138      E718D010 
 138      033AC6E9 
 138      F70893
 139 02d0 6E8F3069 		.ascii	"n\2170ig\265\311\032\351\204B&\224\334`\016\235a\006"
 139      67B5C91A 
 139      E9844226 
 139      94DC600E 
 139      9D6106
 140 02e3 0391FAD3 		.ascii	"\003\221\372\323\220\214\227\242\206`\313\315=,tJ$\316"
 140      908C97A2 
 140      8660CBCD 
 140      3D2C744A 
 140      24CE
 141 02f5 258D97A1 		.ascii	"%\215\227\241\313\011\207z\307[6*\317%\247\005|\005"
 141      CB09877A 
 141      C75B362A 
 141      CF25A705 
 141      7C05
 142 0307 CF867610 		.ascii	"\317\206v\020Z\225\201\276D&]\246\201\3230\203?W\317"
 142      5A9581BE 
 142      44265DA6 
 142      81D33083 
 142      3F57CF
 143 031a E0CB4983 		.ascii	"\340\313I\203ek\300\316\250\301\256&\002\226m\314\354"
 143      656BC0CE 
 143      A8C1AE26 
 143      02966DCC 
 143      EC
 144 032b AC1A6C28 		.ascii	"\254\032l(i0-\263sj\260\357\023\001\233\027+)\232\374"
 144      69302DB3 
 144      736AB0EF 
 144      13019B17 
 144      2B299AFC 
 145 033f 44764301 		.ascii	"DvC\001\237a\333\325\027,S\347X\353g\355\005\326\366"
 145      9F61DBD5 
 145      172C53E7 
 145      58EB67ED 
 145      05D6F6
 146 0352 B2B68FB5 		.ascii	"\262\266\217\265\375\254\375\211\265\277\260\366W\326"
 146      FDACFD89 
 146      B5BFB0F6 
 146      57D6
 147 0360 FEA6CEAF 		.ascii	"\376\246\316\257\3613\231\377\353\326\307\351j\326\015"
ARM GAS  /tmp/cc9IMWxg.s 			page 11


 147      F13399FF 
 147      EBD6C7E9 
 147      6AD60D
 148 036f 4F011CFA 		.ascii	"O\001\034\372Y7\3274O\006\322Vo\264\332\334\002\200"
 148      5937D734 
 148      4F06D256 
 148      6FB4DADC 
 148      0280
 149 0381 E88BCA98 		.ascii	"\350\213\312\230{\034\032fv\272\306\267\307\302\024"
 149      7B1C1A66 
 149      76BAC6B7 
 149      C7C214
 150 0390 EBD93ED4 		.ascii	"\353\331>\324\202w4\222\376\205\312\023\357H\322\210"
 150      82773492 
 150      FE85CA13 
 150      EF48D288 
 151 03a0 D96A44FF 		.ascii	"\331jD\377\217\003\220\330d\036\212o\334\225\237d\357"
 151      8F0390D8 
 151      641E8A6F 
 151      DC959F64 
 151      EF
 152 03b1 30FBF7C7 		.ascii	"0\373\367\307\254R\026\335*e\321.<\026k\244\023~\366"
 152      AC5216DD 
 152      2A65D12E 
 152      3C166BA4 
 152      137EF6
 153 03c4 683025E0 		.ascii	"h0%\340E\264\035>zEu\251*\352\004\253\250\223\2546\206"
 153      45B41D3E 
 153      7A4575A9 
 153      2AEA04AB 
 153      A893AC36 
 154 03d9 597B3B5E 		.ascii	"Y{;^\205P\210\2438-\202\267&\262\230\302k\200I\353\361"
 154      855088A3 
 154      382D82B7 
 154      26B298C2 
 154      6B8049EB 
 155 03ee 93A89390 		.ascii	"\223\250\223\220\026x\233\361\233\341m\306,\251rh'\033"
 155      16789BF1 
 155      9BE16DC6 
 155      2CA97268 
 155      271B
 156 0400 D681B30C 		.ascii	"\326\201\263\014\036\314d\003O\241\0034\364_\336()\224"
 156      1ECC6403 
 156      4FA10334 
 156      F45FDE28 
 156      2994
 157 0412 528A6268 		.ascii	"R\212bh\311tF0\247\366Wz\235\362\337\337|\031\266\177"
 157      C9744630 
 157      A7F6577A 
 157      9DF2DFDF 
 157      7C19B67F 
 158 0426 F22F5DCD 		.ascii	"\362/]\3155oS\002^:\335\320\317\373\332\347y\211W\370"
 158      356F5302 
 158      5E3ADDD0 
 158      CFFBDAE7 
 158      798957F8 
 159 043a 4422A48F 		.ascii	"D\"\244\217@[\324\010\220?\313\013%u\001\377\001\014"
ARM GAS  /tmp/cc9IMWxg.s 			page 12


 159      405BD408 
 159      903FCB0B 
 159      257501FF 
 159      010C
 160 044c 057C2FB6 		.ascii	"\005|/\266\363\262Z\217\263P)\346\375\014\330XM\246"
 160      F3B25A8F 
 160      B35029E6 
 160      FD0CD858 
 160      4DA6
 161 045e C36246C8 		.ascii	"\303bF\310{dS\006f\316!YKS\004\017\242F\351\332%[S}"
 161      7B645306 
 161      66CE2159 
 161      4B53040F 
 161      A246E9DA 
 162 0476 3014CA4A 		.ascii	"0\024\312J<D\217b\204(\2117\325\343\237Ho\252\365\034"
 162      3C448F62 
 162      84288937 
 162      D5E39F48 
 162      6FAAF51C 
 163 048a 75F58849 		.ascii	"u\365\210I?o\016\341\361\274\002\352R\323eP\234\017"
 163      3F6F0EE1 
 163      F1BC02EA 
 163      52D36550 
 163      9C0F
 164 049c BF33458A 		.ascii	"\2773E\212S\311\317hB\3719A\363#\221\3663tc5:\312(?"
 164      53C9CF68 
 164      42F93941 
 164      F32391F6 
 164      33746335 
 165 04b4 A3FAFC6C 		.ascii	"\243\372\374l\344\306\344'H\303\324W\217\233\033}\375"
 165      E4C6E427 
 165      48C3D457 
 165      8F9B1B7D 
 165      FD
 166 04c5 6484BA98 		.ascii	"d\204\272\230x\226\266q\272,uG)\344\360\271\314T\027"
 166      7896B671 
 166      BA2C7547 
 166      29E4F0B9 
 166      CC5417
 167 04d8 BD8BBAE8 		.ascii	"\275\213\272\350)T\267k\251\316A\035\344\352\325\340"
 167      2954B76B 
 167      A9CE411D 
 167      E4EAD5E0 
 168 04e8 CDEB6D78 		.ascii	"\315\353mxk\2204\221G\241\020\236\202\232\330{_[\272"
 168      6B903491 
 168      47A1109E 
 168      829AD87B 
 168      5F5BBA
 169 04fb 5C12C103 		.ascii	"\\\022\301\003\376\314\266HI\244(|\261R\022\364\033"
 169      FECCB648 
 169      49A4287C 
 169      B15212F4 
 169      1B
 170 050c 05171E4C 		.ascii	"\005\027\036L23\243\217\025p\013GW\260\035\022cvK\352"
 170      3233A38F 
 170      15700B47 
 170      57B01D12 
ARM GAS  /tmp/cc9IMWxg.s 			page 13


 170      63764BEA 
 171 0520 2BBD10A6 		.ascii	"+\275\020\246\334\1770E\373\334\301\000b\253\312F\327"
 171      DC7F3045 
 171      FBDCC100 
 171      62ABCA46 
 171      D7
 172 0531 2946A575 		.ascii	")F\245u/\342\21742\372(\001\357\342\246\260\036s\204"
 172      2FE28F34 
 172      32FA2801 
 172      EFE2A6B0 
 172      1E7384
 173 0544 84774C9B 		.ascii	"\204wL\233\3250Q\255*66k\244\223\252\341\254\214\002"
 173      D53051AD 
 173      2A36366B 
 173      A493AAE1 
 173      AC8C02
 174 0557 CF82FA95 		.ascii	"\317\202\372\225TG\002\266U\331w\001\323\317RRz\374"
 174      544702B6 
 174      55D97701 
 174      D3CF5252 
 174      7AFC
 175 0569 0FFA48CA 		.ascii	"\017\372H\312gd+\375\272\244v\2469\342\214\356\263\202"
 175      67642BFD 
 175      BAA476A6 
 175      39E28CEE 
 175      B382
 176 057b 81CB633E 		.ascii	"\201\313c>>\354N\332\345v\003\227\303[\214f\024t?\340"
 176      3EEC4EDA 
 176      E5760397 
 176      C35B8C66 
 176      14743FE0 
 177 058f 74EBA78E 		.ascii	"t\353\247\216\004\207\376\322\270\254{^\241s\301\210"
 177      0487FED2 
 177      B8AC7B5E 
 177      A173C188 
 178 059f CB1E2E6C 		.ascii	"\313\036.lU\016\3247\227\342\005\252V\001I\217\025("
 178      550ED437 
 178      97E205AA 
 178      5601498F 
 178      1528
 179 05b1 DD284859 		.ascii	"\335(HY\322\201\332g\020\250I\232@\355\323\007J\265"
 179      D281DA67 
 179      10A8499A 
 179      40EDD307 
 179      4AB5
 180 05c3 22E94870 		.ascii	"\"\351Hph\223Y\035(4+'\307.\375j<\366J\301m\367\324"
 180      6893591D 
 180      28342B27 
 180      C72EFD6A 
 180      3CF64AC1 
 181 05da 95D17FBE 		.ascii	"\225\321\177\276Vp\347\224\241<\375\355\332\232:\321"
 181      5670E794 
 181      A13CFDED 
 181      DA9A3AD1 
 182 05ea 632F5DBD 		.ascii	"c/]\275jq\256\275\250(\337\276\242de\361\353\271\212"
 182      6A71AEBD 
 182      A828DFBE 
ARM GAS  /tmp/cc9IMWxg.s 			page 14


 182      A26465F1 
 182      EBB98A
 183 05fd 06EF7697 		.ascii	"\006\357v\227\347T\"\233\253\206\216\253\022<\257\361"
 183      E754229B 
 183      AB868EAB 
 183      123CAFF1 
 184 060d E284152F 		.ascii	"\342\204\025/\257\311^\216\236\260{=uvWu\231\333[\356"
 184      AFC95E8E 
 184      9EB07B3D 
 184      75765775 
 184      99DB5BEE 
 185 0621 B4573BDF 		.ascii	"\264W;\337p\273\326\333=b\271\253Z\004\215\024/\374"
 185      70BBD6DB 
 185      3D62B9AB 
 185      5A048D14 
 185      2FFC
 186 0633 2FCEE5C5 		.ascii	"/\316\345\305\247\243\015\253\022\312*]\325N;_\356\254"
 186      A7A30DAB 
 186      12CA2A5D 
 186      D54E3B5F 
 186      EEAC
 187 0645 10BC6E91 		.ascii	"\020\274n\221\027\337\254uz@-\225\347\025\3059z\246"
 187      17DFAC75 
 187      7A402D95 
 187      E715C539 
 187      7AA6
 188 0657 0A86E24C 		.ascii	"\012\206\342L%\262\254,^\346\365\330<b\025(l\250u\325"
 188      25B2AC2C 
 188      5EE6F5D8 
 188      3C621528 
 188      6CA875D5 
 189 066b F0A26555 		.ascii	"\360\242eUq~\201cB\361\352WJ\012\034\023\213KK\012\012"
 189      717E8163 
 189      42F1EA57 
 189      4A0A1C13 
 189      8B4B4B0A 
 190 0680 F21D9692 		.ascii	"\362\035\226\2225%\371\016\323J\220\342|\007^\313\310"
 190      3525F90E 
 190      D34A90E2 
 190      7C075ECB 
 190      C8
 191 0691 2D5AC28B 		.ascii	"-Z\302\213\2629\3325y\234\242\245\314\355\024\352p\241"
 191      B239DA35 
 191      799CA2A5 
 191      CCED14EA 
 191      70A1
 192 06a3 7959A9C3 		.ascii	"yY\251\303a.Z\376\222\303\374\302\213\216\"\332\024"
 192      612E5AFE 
 192      92C3FCC2 
 192      8B8E22DA 
 192      14
 193 06b4 9A96391C 		.ascii	"\232\2269\034\251R\030\\\345\020\004\251c\246!\261Q"
 193      A952185C 
 193      E51004A9 
 193      63A621B1 
 193      51
 194 06c5 0CBE42F0 		.ascii	"\014\276B\360\210\317\302\215\232\212\012\200J\005\206"
ARM GAS  /tmp/cc9IMWxg.s 			page 15


 194      88CFC28D 
 194      9A8A0A80 
 194      4A0586
 195 06d4 0EA7500E 		.ascii	"\016\247P\016\374L\353\275\23648][\347\022\235pn^\357"
 195      FC4CEBBD 
 195      9E34385D 
 195      5BE7129D 
 195      706E5EEF 
 196 06e8 123D29AE 		.ascii	"\022=)\256\232\252\232r'/N\202;\245N\021\256\257\202"
 196      9AAA9A72 
 196      272F4E82 
 196      3BA54E11 
 196      AEAF82
 197 06fb 7333BD38 		.ascii	"s3\2758]\211<\017@\033\352j\274\265\364\252\271\254"
 197      5D893C0F 
 197      401BEA6A 
 197      BCB5F4AA 
 197      B9AC
 198 070d 52A84BE1 		.ascii	"R\250K\341\371\012ou\031\317OR:9K\026=\223\247>\313"
 198      F90A6F75 
 198      19CF4F52 
 198      3A394B16 
 198      3D93A73E 
 199 0722 5BA839CB 		.ascii	"[\2509\313\373\017\225Tq\365"
 199      FB0F9554 
 199      71F5
 200              		.text
 201              		.section	.gnu.lto_.symtab.a3ce3040a37c529a,"",%progbits
 202 0000 70616C52 		.ascii	"palReadBus\000\000\000\000\000\000\000\000\000\000\000"
 202      65616442 
 202      75730000 
 202      00000000 
 202      00000000 
 203 0015 00A10000 		.ascii	"\000\241\000\000\000palWriteBus\000\000\000\000\000"
 203      0070616C 
 203      57726974 
 203      65427573 
 203      00000000 
 204 002a 00000000 		.ascii	"\000\000\000\000\000\000\000\364\000\000\000palSetB"
 204      000000F4 
 204      00000070 
 204      616C5365 
 204      7442
 205 003c 75734D6F 		.ascii	"usMode\000\000\000\000\000\000\000\000\000\000\000\000"
 205      64650000 
 205      00000000 
 205      00000000 
 205      0000
 206 004e FD000000 		.ascii	"\375\000\000\000_pal_lld_setgroupmode\000\000\002\000"
 206      5F70616C 
 206      5F6C6C64 
 206      5F736574 
 206      67726F75 
 207 006b 00000000 		.ascii	"\000\000\000\000\000\000\000\000\011\001\000\000"
 207      00000000 
 207      09010000 
 208              		.text
ARM GAS  /tmp/cc9IMWxg.s 			page 16


 209              		.section	.gnu.lto_.opts,"",%progbits
 210 0000 272D6D63 		.ascii	"'-mcpu=cortex-m0' '-mno-thumb-interwork' '-mthumb' "
 210      70753D63 
 210      6F727465 
 210      782D6D30 
 210      2720272D 
 211 0033 272D6767 		.ascii	"'-ggdb' '-O2' '-fomit-frame-pointer' '-falign-funct"
 211      64622720 
 211      272D4F32 
 211      2720272D 
 211      666F6D69 
 212 0066 696F6E73 		.ascii	"ions=16' '-ffunction-sections' '-fdata-sections' '-"
 212      3D313627 
 212      20272D66 
 212      66756E63 
 212      74696F6E 
 213 0099 666E6F2D 		.ascii	"fno-common' '-flto'\000"
 213      636F6D6D 
 213      6F6E2720 
 213      272D666C 
 213      746F2700 
 214              		.text
 215              		.cfi_sections	.debug_frame
 216              		.section	.text.palReadBus,"ax",%progbits
 217              		.align	2
 218              		.p2align 4,,15
 219              		.global	palReadBus
 220              		.code	16
 221              		.thumb_func
 222              		.type	palReadBus, %function
 223              	palReadBus:
 224              	.LFB179:
 225              		.file 1 "../../../os/hal/src/hal_pal.c"
 226              		.loc 1 65 0
 227              		.cfi_startproc
 228              	.LVL0:
 229              		.loc 1 69 0
 230 0000 0368     		ldr	r3, [r0]
 231 0002 8268     		ldr	r2, [r0, #8]
 232 0004 1B69     		ldr	r3, [r3, #16]
 233 0006 4068     		ldr	r0, [r0, #4]
 234              	.LVL1:
 235 0008 D340     		lsr	r3, r3, r2
 236 000a 1840     		and	r0, r3
 237              		.loc 1 70 0
 238              		@ sp needed
 239 000c 7047     		bx	lr
 240              		.cfi_endproc
 241              	.LFE179:
 242              		.size	palReadBus, .-palReadBus
 243 000e C046     		.section	.text.palWriteBus,"ax",%progbits
 244              		.align	2
 245              		.p2align 4,,15
 246              		.global	palWriteBus
 247              		.code	16
 248              		.thumb_func
 249              		.type	palWriteBus, %function
ARM GAS  /tmp/cc9IMWxg.s 			page 17


 250              	palWriteBus:
 251              	.LFB180:
 252              		.loc 1 90 0
 253              		.cfi_startproc
 254              	.LVL2:
 255              		.loc 1 94 0
 256 0000 4268     		ldr	r2, [r0, #4]
 257 0002 8368     		ldr	r3, [r0, #8]
 258              		.loc 1 90 0
 259 0004 30B5     		push	{r4, r5, lr}
 260              		.cfi_def_cfa_offset 12
 261              		.cfi_offset 4, -12
 262              		.cfi_offset 5, -8
 263              		.cfi_offset 14, -4
 264              		.loc 1 94 0
 265 0006 151C     		mov	r5, r2
 266 0008 0468     		ldr	r4, [r0]
 267 000a 8D43     		bic	r5, r1
 268 000c 181C     		mov	r0, r3
 269              	.LVL3:
 270 000e 1140     		and	r1, r2
 271              	.LVL4:
 272 0010 1030     		add	r0, r0, #16
 273 0012 9940     		lsl	r1, r1, r3
 274 0014 8540     		lsl	r5, r5, r0
 275 0016 0B1C     		mov	r3, r1
 276 0018 2B43     		orr	r3, r5
 277 001a A361     		str	r3, [r4, #24]
 278              		.loc 1 95 0
 279              		@ sp needed
 280 001c 30BD     		pop	{r4, r5, pc}
 281              		.cfi_endproc
 282              	.LFE180:
 283              		.size	palWriteBus, .-palWriteBus
 284 001e C046     		.section	.text.palSetBusMode,"ax",%progbits
 285              		.align	2
 286              		.p2align 4,,15
 287              		.global	palSetBusMode
 288              		.code	16
 289              		.thumb_func
 290              		.type	palSetBusMode, %function
 291              	palSetBusMode:
 292              	.LFB181:
 293              		.loc 1 113 0
 294              		.cfi_startproc
 295              	.LVL5:
 296 0000 08B5     		push	{r3, lr}
 297              		.cfi_def_cfa_offset 8
 298              		.cfi_offset 3, -8
 299              		.cfi_offset 14, -4
 300              		.loc 1 113 0
 301 0002 031C     		mov	r3, r0
 302 0004 0A1C     		mov	r2, r1
 303              		.loc 1 117 0
 304 0006 5968     		ldr	r1, [r3, #4]
 305              	.LVL6:
 306 0008 9B68     		ldr	r3, [r3, #8]
ARM GAS  /tmp/cc9IMWxg.s 			page 18


 307 000a 0068     		ldr	r0, [r0]
 308              	.LVL7:
 309 000c 9940     		lsl	r1, r1, r3
 310 000e FFF7FEFF 		bl	_pal_lld_setgroupmode
 311              	.LVL8:
 312              		.loc 1 118 0
 313              		@ sp needed
 314 0012 08BD     		pop	{r3, pc}
 315              		.cfi_endproc
 316              	.LFE181:
 317              		.size	palSetBusMode, .-palSetBusMode
 318 0014 C046C046 		.text
 318      C046C046 
 318      C046C046 
 319              	.Letext0:
 320              		.file 2 "/usr/include/newlib/machine/_default_types.h"
 321              		.file 3 "/usr/include/newlib/stdint.h"
 322              		.file 4 "../../../os/common/ports/ARMCMx/compilers/GCC/chtypes.h"
 323              		.file 5 "../../../os/rt/include/chsystypes.h"
 324              		.file 6 "../../../os/rt/include/chschd.h"
 325              		.file 7 "../../../os/common/ports/ARMCMx/chcore.h"
 326              		.file 8 "../../../os/common/ports/ARMCMx/chcore_v6m.h"
 327              		.file 9 "../../../os/rt/include/chsem.h"
 328              		.file 10 "../../../os/rt/include/chmtx.h"
 329              		.file 11 "../../../os/hal/ports/STM32/LLD/GPIOv2/hal_pal_lld.h"
 330              		.file 12 "../../../os/hal/include/hal_pal.h"
 331              		.section	.debug_info,"",%progbits
 332              	.Ldebug_info0:
 333 0000 3E080000 		.4byte	0x83e
 334 0004 0400     		.2byte	0x4
 335 0006 00000000 		.4byte	.Ldebug_abbrev0
 336 000a 04       		.byte	0x4
 337 000b 01       		.uleb128 0x1
 338 000c E6000000 		.4byte	.LASF114
 339 0010 01       		.byte	0x1
 340 0011 5C030000 		.4byte	.LASF115
 341 0015 25050000 		.4byte	.LASF116
 342 0019 00000000 		.4byte	.Ldebug_ranges0+0
 343 001d 00000000 		.4byte	0
 344 0021 00000000 		.4byte	.Ldebug_line0
 345 0025 02       		.uleb128 0x2
 346 0026 04       		.byte	0x4
 347 0027 05       		.byte	0x5
 348 0028 696E7400 		.ascii	"int\000"
 349 002c 03       		.uleb128 0x3
 350 002d 04       		.byte	0x4
 351 002e 07       		.byte	0x7
 352 002f 4D000000 		.4byte	.LASF0
 353 0033 03       		.uleb128 0x3
 354 0034 01       		.byte	0x1
 355 0035 06       		.byte	0x6
 356 0036 DB040000 		.4byte	.LASF1
 357 003a 04       		.uleb128 0x4
 358 003b E6030000 		.4byte	.LASF4
 359 003f 02       		.byte	0x2
 360 0040 1D       		.byte	0x1d
 361 0041 45000000 		.4byte	0x45
ARM GAS  /tmp/cc9IMWxg.s 			page 19


 362 0045 03       		.uleb128 0x3
 363 0046 01       		.byte	0x1
 364 0047 08       		.byte	0x8
 365 0048 56040000 		.4byte	.LASF2
 366 004c 03       		.uleb128 0x3
 367 004d 02       		.byte	0x2
 368 004e 05       		.byte	0x5
 369 004f 9E030000 		.4byte	.LASF3
 370 0053 04       		.uleb128 0x4
 371 0054 E3010000 		.4byte	.LASF5
 372 0058 02       		.byte	0x2
 373 0059 2B       		.byte	0x2b
 374 005a 5E000000 		.4byte	0x5e
 375 005e 03       		.uleb128 0x3
 376 005f 02       		.byte	0x2
 377 0060 07       		.byte	0x7
 378 0061 ED040000 		.4byte	.LASF6
 379 0065 04       		.uleb128 0x4
 380 0066 6E000000 		.4byte	.LASF7
 381 006a 02       		.byte	0x2
 382 006b 3F       		.byte	0x3f
 383 006c 70000000 		.4byte	0x70
 384 0070 03       		.uleb128 0x3
 385 0071 04       		.byte	0x4
 386 0072 05       		.byte	0x5
 387 0073 A8030000 		.4byte	.LASF8
 388 0077 04       		.uleb128 0x4
 389 0078 69040000 		.4byte	.LASF9
 390 007c 02       		.byte	0x2
 391 007d 41       		.byte	0x41
 392 007e 82000000 		.4byte	0x82
 393 0082 03       		.uleb128 0x3
 394 0083 04       		.byte	0x4
 395 0084 07       		.byte	0x7
 396 0085 06040000 		.4byte	.LASF10
 397 0089 03       		.uleb128 0x3
 398 008a 08       		.byte	0x8
 399 008b 05       		.byte	0x5
 400 008c 08030000 		.4byte	.LASF11
 401 0090 04       		.uleb128 0x4
 402 0091 6D020000 		.4byte	.LASF12
 403 0095 02       		.byte	0x2
 404 0096 5B       		.byte	0x5b
 405 0097 9B000000 		.4byte	0x9b
 406 009b 03       		.uleb128 0x3
 407 009c 08       		.byte	0x8
 408 009d 07       		.byte	0x7
 409 009e CC010000 		.4byte	.LASF13
 410 00a2 04       		.uleb128 0x4
 411 00a3 CB020000 		.4byte	.LASF14
 412 00a7 03       		.byte	0x3
 413 00a8 2A       		.byte	0x2a
 414 00a9 3A000000 		.4byte	0x3a
 415 00ad 04       		.uleb128 0x4
 416 00ae 95030000 		.4byte	.LASF15
 417 00b2 03       		.byte	0x3
 418 00b3 36       		.byte	0x36
ARM GAS  /tmp/cc9IMWxg.s 			page 20


 419 00b4 53000000 		.4byte	0x53
 420 00b8 04       		.uleb128 0x4
 421 00b9 2B040000 		.4byte	.LASF16
 422 00bd 03       		.byte	0x3
 423 00be 41       		.byte	0x41
 424 00bf 65000000 		.4byte	0x65
 425 00c3 04       		.uleb128 0x4
 426 00c4 89010000 		.4byte	.LASF17
 427 00c8 03       		.byte	0x3
 428 00c9 42       		.byte	0x42
 429 00ca 77000000 		.4byte	0x77
 430 00ce 04       		.uleb128 0x4
 431 00cf D7030000 		.4byte	.LASF18
 432 00d3 03       		.byte	0x3
 433 00d4 4E       		.byte	0x4e
 434 00d5 90000000 		.4byte	0x90
 435 00d9 04       		.uleb128 0x4
 436 00da 92040000 		.4byte	.LASF19
 437 00de 03       		.byte	0x3
 438 00df 60       		.byte	0x60
 439 00e0 2C000000 		.4byte	0x2c
 440 00e4 04       		.uleb128 0x4
 441 00e5 7A030000 		.4byte	.LASF20
 442 00e9 04       		.byte	0x4
 443 00ea 3C       		.byte	0x3c
 444 00eb A2000000 		.4byte	0xa2
 445 00ef 04       		.uleb128 0x4
 446 00f0 C2020000 		.4byte	.LASF21
 447 00f4 04       		.byte	0x4
 448 00f5 3D       		.byte	0x3d
 449 00f6 A2000000 		.4byte	0xa2
 450 00fa 04       		.uleb128 0x4
 451 00fb FE030000 		.4byte	.LASF22
 452 00ff 04       		.byte	0x4
 453 0100 3E       		.byte	0x3e
 454 0101 A2000000 		.4byte	0xa2
 455 0105 04       		.uleb128 0x4
 456 0106 B3010000 		.4byte	.LASF23
 457 010a 04       		.byte	0x4
 458 010b 40       		.byte	0x40
 459 010c C3000000 		.4byte	0xc3
 460 0110 04       		.uleb128 0x4
 461 0111 16030000 		.4byte	.LASF24
 462 0115 04       		.byte	0x4
 463 0116 41       		.byte	0x41
 464 0117 B8000000 		.4byte	0xb8
 465 011b 04       		.uleb128 0x4
 466 011c 9A010000 		.4byte	.LASF25
 467 0120 04       		.byte	0x4
 468 0121 43       		.byte	0x43
 469 0122 C3000000 		.4byte	0xc3
 470 0126 04       		.uleb128 0x4
 471 0127 EE010000 		.4byte	.LASF26
 472 012b 04       		.byte	0x4
 473 012c 45       		.byte	0x45
 474 012d B8000000 		.4byte	0xb8
 475 0131 04       		.uleb128 0x4
ARM GAS  /tmp/cc9IMWxg.s 			page 21


 476 0132 2B000000 		.4byte	.LASF27
 477 0136 05       		.byte	0x5
 478 0137 35       		.byte	0x35
 479 0138 AD000000 		.4byte	0xad
 480 013c 04       		.uleb128 0x4
 481 013d 47020000 		.4byte	.LASF28
 482 0141 05       		.byte	0x5
 483 0142 3F       		.byte	0x3f
 484 0143 47010000 		.4byte	0x147
 485 0147 05       		.uleb128 0x5
 486 0148 DC020000 		.4byte	.LASF46
 487 014c 44       		.byte	0x44
 488 014d 06       		.byte	0x6
 489 014e 9A       		.byte	0x9a
 490 014f 25020000 		.4byte	0x225
 491 0153 06       		.uleb128 0x6
 492 0154 25040000 		.4byte	.LASF29
 493 0158 06       		.byte	0x6
 494 0159 9B       		.byte	0x9b
 495 015a 5A020000 		.4byte	0x25a
 496 015e 00       		.byte	0
 497 015f 06       		.uleb128 0x6
 498 0160 90020000 		.4byte	.LASF30
 499 0164 06       		.byte	0x6
 500 0165 9C       		.byte	0x9c
 501 0166 05010000 		.4byte	0x105
 502 016a 08       		.byte	0x8
 503 016b 07       		.uleb128 0x7
 504 016c 63747800 		.ascii	"ctx\000"
 505 0170 06       		.byte	0x6
 506 0171 9D       		.byte	0x9d
 507 0172 4B040000 		.4byte	0x44b
 508 0176 0C       		.byte	0xc
 509 0177 06       		.uleb128 0x6
 510 0178 50040000 		.4byte	.LASF31
 511 017c 06       		.byte	0x6
 512 017d 9F       		.byte	0x9f
 513 017e 30020000 		.4byte	0x230
 514 0182 10       		.byte	0x10
 515 0183 06       		.uleb128 0x6
 516 0184 1F050000 		.4byte	.LASF32
 517 0188 06       		.byte	0x6
 518 0189 A0       		.byte	0xa0
 519 018a 30020000 		.4byte	0x230
 520 018e 14       		.byte	0x14
 521 018f 06       		.uleb128 0x6
 522 0190 F0030000 		.4byte	.LASF33
 523 0194 06       		.byte	0x6
 524 0195 A7       		.byte	0xa7
 525 0196 A6050000 		.4byte	0x5a6
 526 019a 18       		.byte	0x18
 527 019b 06       		.uleb128 0x6
 528 019c AD020000 		.4byte	.LASF34
 529 01a0 06       		.byte	0x6
 530 01a1 B0       		.byte	0xb0
 531 01a2 B8050000 		.4byte	0x5b8
 532 01a6 1C       		.byte	0x1c
ARM GAS  /tmp/cc9IMWxg.s 			page 22


 533 01a7 06       		.uleb128 0x6
 534 01a8 AD040000 		.4byte	.LASF35
 535 01ac 06       		.byte	0x6
 536 01ad B5       		.byte	0xb5
 537 01ae EF000000 		.4byte	0xef
 538 01b2 20       		.byte	0x20
 539 01b3 06       		.uleb128 0x6
 540 01b4 25000000 		.4byte	.LASF36
 541 01b8 06       		.byte	0x6
 542 01b9 B9       		.byte	0xb9
 543 01ba E4000000 		.4byte	0xe4
 544 01be 21       		.byte	0x21
 545 01bf 06       		.uleb128 0x6
 546 01c0 78000000 		.4byte	.LASF37
 547 01c4 06       		.byte	0x6
 548 01c5 BE       		.byte	0xbe
 549 01c6 FA000000 		.4byte	0xfa
 550 01ca 22       		.byte	0x22
 551 01cb 08       		.uleb128 0x8
 552 01cc 7500     		.ascii	"u\000"
 553 01ce 06       		.byte	0x6
 554 01cf 0F01     		.2byte	0x10f
 555 01d1 DB040000 		.4byte	0x4db
 556 01d5 24       		.byte	0x24
 557 01d6 09       		.uleb128 0x9
 558 01d7 74040000 		.4byte	.LASF38
 559 01db 06       		.byte	0x6
 560 01dc 1401     		.2byte	0x114
 561 01de 36020000 		.4byte	0x236
 562 01e2 28       		.byte	0x28
 563 01e3 09       		.uleb128 0x9
 564 01e4 D3020000 		.4byte	.LASF39
 565 01e8 06       		.byte	0x6
 566 01e9 1A01     		.2byte	0x11a
 567 01eb 5A020000 		.4byte	0x25a
 568 01ef 2C       		.byte	0x2c
 569 01f0 09       		.uleb128 0x9
 570 01f1 44000000 		.4byte	.LASF40
 571 01f5 06       		.byte	0x6
 572 01f6 2001     		.2byte	0x120
 573 01f8 1B010000 		.4byte	0x11b
 574 01fc 34       		.byte	0x34
 575 01fd 09       		.uleb128 0x9
 576 01fe 28020000 		.4byte	.LASF41
 577 0202 06       		.byte	0x6
 578 0203 2701     		.2byte	0x127
 579 0205 A0050000 		.4byte	0x5a0
 580 0209 38       		.byte	0x38
 581 020a 09       		.uleb128 0x9
 582 020b 35000000 		.4byte	.LASF42
 583 020f 06       		.byte	0x6
 584 0210 2B01     		.2byte	0x12b
 585 0212 05010000 		.4byte	0x105
 586 0216 3C       		.byte	0x3c
 587 0217 09       		.uleb128 0x9
 588 0218 6F050000 		.4byte	.LASF43
 589 021c 06       		.byte	0x6
ARM GAS  /tmp/cc9IMWxg.s 			page 23


 590 021d 3201     		.2byte	0x132
 591 021f 0D030000 		.4byte	0x30d
 592 0223 40       		.byte	0x40
 593 0224 00       		.byte	0
 594 0225 04       		.uleb128 0x4
 595 0226 9A020000 		.4byte	.LASF44
 596 022a 05       		.byte	0x5
 597 022b 44       		.byte	0x44
 598 022c 30020000 		.4byte	0x230
 599 0230 0A       		.uleb128 0xa
 600 0231 04       		.byte	0x4
 601 0232 3C010000 		.4byte	0x13c
 602 0236 04       		.uleb128 0x4
 603 0237 5F000000 		.4byte	.LASF45
 604 023b 05       		.byte	0x5
 605 023c 49       		.byte	0x49
 606 023d 41020000 		.4byte	0x241
 607 0241 05       		.uleb128 0x5
 608 0242 00000000 		.4byte	.LASF47
 609 0246 04       		.byte	0x4
 610 0247 06       		.byte	0x6
 611 0248 88       		.byte	0x88
 612 0249 5A020000 		.4byte	0x25a
 613 024d 06       		.uleb128 0x6
 614 024e 5A000000 		.4byte	.LASF48
 615 0252 06       		.byte	0x6
 616 0253 89       		.byte	0x89
 617 0254 30020000 		.4byte	0x230
 618 0258 00       		.byte	0
 619 0259 00       		.byte	0
 620 025a 04       		.uleb128 0x4
 621 025b 12020000 		.4byte	.LASF49
 622 025f 05       		.byte	0x5
 623 0260 50       		.byte	0x50
 624 0261 65020000 		.4byte	0x265
 625 0265 05       		.uleb128 0x5
 626 0266 BC000000 		.4byte	.LASF50
 627 026a 08       		.byte	0x8
 628 026b 06       		.byte	0x6
 629 026c 8F       		.byte	0x8f
 630 026d 8A020000 		.4byte	0x28a
 631 0271 06       		.uleb128 0x6
 632 0272 5A000000 		.4byte	.LASF48
 633 0276 06       		.byte	0x6
 634 0277 90       		.byte	0x90
 635 0278 30020000 		.4byte	0x230
 636 027c 00       		.byte	0
 637 027d 06       		.uleb128 0x6
 638 027e B7000000 		.4byte	.LASF51
 639 0282 06       		.byte	0x6
 640 0283 91       		.byte	0x91
 641 0284 30020000 		.4byte	0x230
 642 0288 04       		.byte	0x4
 643 0289 00       		.byte	0
 644 028a 04       		.uleb128 0x4
 645 028b 18040000 		.4byte	.LASF52
 646 028f 05       		.byte	0x5
ARM GAS  /tmp/cc9IMWxg.s 			page 24


 647 0290 57       		.byte	0x57
 648 0291 95020000 		.4byte	0x295
 649 0295 0B       		.uleb128 0xb
 650 0296 98000000 		.4byte	.LASF53
 651 029a 1C       		.byte	0x1c
 652 029b 06       		.byte	0x6
 653 029c 6A01     		.2byte	0x16a
 654 029e F1020000 		.4byte	0x2f1
 655 02a2 09       		.uleb128 0x9
 656 02a3 25040000 		.4byte	.LASF29
 657 02a7 06       		.byte	0x6
 658 02a8 6B01     		.2byte	0x16b
 659 02aa 5A020000 		.4byte	0x25a
 660 02ae 00       		.byte	0
 661 02af 09       		.uleb128 0x9
 662 02b0 90020000 		.4byte	.LASF30
 663 02b4 06       		.byte	0x6
 664 02b5 6C01     		.2byte	0x16c
 665 02b7 05010000 		.4byte	0x105
 666 02bb 08       		.byte	0x8
 667 02bc 08       		.uleb128 0x8
 668 02bd 63747800 		.ascii	"ctx\000"
 669 02c1 06       		.byte	0x6
 670 02c2 6E01     		.2byte	0x16e
 671 02c4 4B040000 		.4byte	0x44b
 672 02c8 0C       		.byte	0xc
 673 02c9 09       		.uleb128 0x9
 674 02ca 50040000 		.4byte	.LASF31
 675 02ce 06       		.byte	0x6
 676 02cf 7101     		.2byte	0x171
 677 02d1 30020000 		.4byte	0x230
 678 02d5 10       		.byte	0x10
 679 02d6 09       		.uleb128 0x9
 680 02d7 1F050000 		.4byte	.LASF32
 681 02db 06       		.byte	0x6
 682 02dc 7201     		.2byte	0x172
 683 02de 30020000 		.4byte	0x230
 684 02e2 14       		.byte	0x14
 685 02e3 09       		.uleb128 0x9
 686 02e4 0B050000 		.4byte	.LASF54
 687 02e8 06       		.byte	0x6
 688 02e9 7501     		.2byte	0x175
 689 02eb 30020000 		.4byte	0x230
 690 02ef 18       		.byte	0x18
 691 02f0 00       		.byte	0
 692 02f1 04       		.uleb128 0x4
 693 02f2 CD000000 		.4byte	.LASF55
 694 02f6 05       		.byte	0x5
 695 02f7 5C       		.byte	0x5c
 696 02f8 FC020000 		.4byte	0x2fc
 697 02fc 0A       		.uleb128 0xa
 698 02fd 04       		.byte	0x4
 699 02fe 02030000 		.4byte	0x302
 700 0302 0C       		.uleb128 0xc
 701 0303 0D030000 		.4byte	0x30d
 702 0307 0D       		.uleb128 0xd
 703 0308 0D030000 		.4byte	0x30d
ARM GAS  /tmp/cc9IMWxg.s 			page 25


 704 030c 00       		.byte	0
 705 030d 0E       		.uleb128 0xe
 706 030e 04       		.byte	0x4
 707 030f 04       		.uleb128 0x4
 708 0310 1C030000 		.4byte	.LASF56
 709 0314 05       		.byte	0x5
 710 0315 61       		.byte	0x61
 711 0316 1A030000 		.4byte	0x31a
 712 031a 0B       		.uleb128 0xb
 713 031b BB010000 		.4byte	.LASF57
 714 031f 14       		.byte	0x14
 715 0320 06       		.byte	0x6
 716 0321 4501     		.2byte	0x145
 717 0323 69030000 		.4byte	0x369
 718 0327 09       		.uleb128 0x9
 719 0328 5A000000 		.4byte	.LASF48
 720 032c 06       		.byte	0x6
 721 032d 4601     		.2byte	0x146
 722 032f BE050000 		.4byte	0x5be
 723 0333 00       		.byte	0
 724 0334 09       		.uleb128 0x9
 725 0335 B7000000 		.4byte	.LASF51
 726 0339 06       		.byte	0x6
 727 033a 4701     		.2byte	0x147
 728 033c BE050000 		.4byte	0x5be
 729 0340 04       		.byte	0x4
 730 0341 09       		.uleb128 0x9
 731 0342 E7040000 		.4byte	.LASF58
 732 0346 06       		.byte	0x6
 733 0347 4801     		.2byte	0x148
 734 0349 31010000 		.4byte	0x131
 735 034d 08       		.byte	0x8
 736 034e 09       		.uleb128 0x9
 737 034f A6000000 		.4byte	.LASF59
 738 0353 06       		.byte	0x6
 739 0354 4901     		.2byte	0x149
 740 0356 F1020000 		.4byte	0x2f1
 741 035a 0C       		.byte	0xc
 742 035b 08       		.uleb128 0x8
 743 035c 70617200 		.ascii	"par\000"
 744 0360 06       		.byte	0x6
 745 0361 4B01     		.2byte	0x14b
 746 0363 0D030000 		.4byte	0x30d
 747 0367 10       		.byte	0x10
 748 0368 00       		.byte	0
 749 0369 04       		.uleb128 0x4
 750 036a 7C040000 		.4byte	.LASF60
 751 036e 05       		.byte	0x5
 752 036f 66       		.byte	0x66
 753 0370 74030000 		.4byte	0x374
 754 0374 0B       		.uleb128 0xb
 755 0375 30020000 		.4byte	.LASF61
 756 0379 0C       		.byte	0xc
 757 037a 06       		.byte	0x6
 758 037b 5501     		.2byte	0x155
 759 037d B6030000 		.4byte	0x3b6
 760 0381 09       		.uleb128 0x9
ARM GAS  /tmp/cc9IMWxg.s 			page 26


 761 0382 5A000000 		.4byte	.LASF48
 762 0386 06       		.byte	0x6
 763 0387 5601     		.2byte	0x156
 764 0389 BE050000 		.4byte	0x5be
 765 038d 00       		.byte	0
 766 038e 09       		.uleb128 0x9
 767 038f B7000000 		.4byte	.LASF51
 768 0393 06       		.byte	0x6
 769 0394 5801     		.2byte	0x158
 770 0396 BE050000 		.4byte	0x5be
 771 039a 04       		.byte	0x4
 772 039b 09       		.uleb128 0x9
 773 039c E7040000 		.4byte	.LASF58
 774 03a0 06       		.byte	0x6
 775 03a1 5A01     		.2byte	0x15a
 776 03a3 31010000 		.4byte	0x131
 777 03a7 08       		.byte	0x8
 778 03a8 09       		.uleb128 0x9
 779 03a9 CE030000 		.4byte	.LASF62
 780 03ad 06       		.byte	0x6
 781 03ae 6201     		.2byte	0x162
 782 03b0 31010000 		.4byte	0x131
 783 03b4 0A       		.byte	0xa
 784 03b5 00       		.byte	0
 785 03b6 04       		.uleb128 0x4
 786 03b7 F9020000 		.4byte	.LASF63
 787 03bb 05       		.byte	0x5
 788 03bc 6B       		.byte	0x6b
 789 03bd C1030000 		.4byte	0x3c1
 790 03c1 0B       		.uleb128 0xb
 791 03c2 D6000000 		.4byte	.LASF64
 792 03c6 04       		.byte	0x4
 793 03c7 06       		.byte	0x6
 794 03c8 7C01     		.2byte	0x17c
 795 03ca DC030000 		.4byte	0x3dc
 796 03ce 09       		.uleb128 0x9
 797 03cf 52030000 		.4byte	.LASF65
 798 03d3 06       		.byte	0x6
 799 03d4 8401     		.2byte	0x184
 800 03d6 C4050000 		.4byte	0x5c4
 801 03da 00       		.byte	0
 802 03db 00       		.byte	0
 803 03dc 04       		.uleb128 0x4
 804 03dd C9040000 		.4byte	.LASF66
 805 03e1 05       		.byte	0x5
 806 03e2 70       		.byte	0x70
 807 03e3 E7030000 		.4byte	0x3e7
 808 03e7 0B       		.uleb128 0xb
 809 03e8 BD030000 		.4byte	.LASF67
 810 03ec 70       		.byte	0x70
 811 03ed 06       		.byte	0x6
 812 03ee 9C01     		.2byte	0x19c
 813 03f0 29040000 		.4byte	0x429
 814 03f4 09       		.uleb128 0x9
 815 03f5 E0030000 		.4byte	.LASF68
 816 03f9 06       		.byte	0x6
 817 03fa A001     		.2byte	0x1a0
ARM GAS  /tmp/cc9IMWxg.s 			page 27


 818 03fc 8A020000 		.4byte	0x28a
 819 0400 00       		.byte	0
 820 0401 09       		.uleb128 0x9
 821 0402 84000000 		.4byte	.LASF69
 822 0406 06       		.byte	0x6
 823 0407 A401     		.2byte	0x1a4
 824 0409 69030000 		.4byte	0x369
 825 040d 1C       		.byte	0x1c
 826 040e 08       		.uleb128 0x8
 827 040f 64626700 		.ascii	"dbg\000"
 828 0413 06       		.byte	0x6
 829 0414 A801     		.2byte	0x1a8
 830 0416 B6030000 		.4byte	0x3b6
 831 041a 28       		.byte	0x28
 832 041b 09       		.uleb128 0x9
 833 041c 82030000 		.4byte	.LASF70
 834 0420 06       		.byte	0x6
 835 0421 AC01     		.2byte	0x1ac
 836 0423 3C010000 		.4byte	0x13c
 837 0427 2C       		.byte	0x2c
 838 0428 00       		.byte	0
 839 0429 03       		.uleb128 0x3
 840 042a 04       		.byte	0x4
 841 042b 07       		.byte	0x7
 842 042c F5030000 		.4byte	.LASF71
 843 0430 0F       		.uleb128 0xf
 844 0431 C3000000 		.4byte	0xc3
 845 0435 04       		.uleb128 0x4
 846 0436 1C000000 		.4byte	.LASF72
 847 043a 07       		.byte	0x7
 848 043b 65       		.byte	0x65
 849 043c 0D030000 		.4byte	0x30d
 850 0440 04       		.uleb128 0x4
 851 0441 00050000 		.4byte	.LASF73
 852 0445 07       		.byte	0x7
 853 0446 6D       		.byte	0x6d
 854 0447 CE000000 		.4byte	0xce
 855 044b 05       		.uleb128 0x5
 856 044c 8B000000 		.4byte	.LASF74
 857 0450 04       		.byte	0x4
 858 0451 07       		.byte	0x7
 859 0452 89       		.byte	0x89
 860 0453 63040000 		.4byte	0x463
 861 0457 07       		.uleb128 0x7
 862 0458 737000   		.ascii	"sp\000"
 863 045b 07       		.byte	0x7
 864 045c 8A       		.byte	0x8a
 865 045d D5040000 		.4byte	0x4d5
 866 0461 00       		.byte	0
 867 0462 00       		.byte	0
 868 0463 05       		.uleb128 0x5
 869 0464 B1030000 		.4byte	.LASF75
 870 0468 24       		.byte	0x24
 871 0469 08       		.byte	0x8
 872 046a C3       		.byte	0xc3
 873 046b D5040000 		.4byte	0x4d5
 874 046f 07       		.uleb128 0x7
ARM GAS  /tmp/cc9IMWxg.s 			page 28


 875 0470 723800   		.ascii	"r8\000"
 876 0473 08       		.byte	0x8
 877 0474 C4       		.byte	0xc4
 878 0475 35040000 		.4byte	0x435
 879 0479 00       		.byte	0
 880 047a 07       		.uleb128 0x7
 881 047b 723900   		.ascii	"r9\000"
 882 047e 08       		.byte	0x8
 883 047f C5       		.byte	0xc5
 884 0480 35040000 		.4byte	0x435
 885 0484 04       		.byte	0x4
 886 0485 07       		.uleb128 0x7
 887 0486 72313000 		.ascii	"r10\000"
 888 048a 08       		.byte	0x8
 889 048b C6       		.byte	0xc6
 890 048c 35040000 		.4byte	0x435
 891 0490 08       		.byte	0x8
 892 0491 07       		.uleb128 0x7
 893 0492 72313100 		.ascii	"r11\000"
 894 0496 08       		.byte	0x8
 895 0497 C7       		.byte	0xc7
 896 0498 35040000 		.4byte	0x435
 897 049c 0C       		.byte	0xc
 898 049d 07       		.uleb128 0x7
 899 049e 723400   		.ascii	"r4\000"
 900 04a1 08       		.byte	0x8
 901 04a2 C8       		.byte	0xc8
 902 04a3 35040000 		.4byte	0x435
 903 04a7 10       		.byte	0x10
 904 04a8 07       		.uleb128 0x7
 905 04a9 723500   		.ascii	"r5\000"
 906 04ac 08       		.byte	0x8
 907 04ad C9       		.byte	0xc9
 908 04ae 35040000 		.4byte	0x435
 909 04b2 14       		.byte	0x14
 910 04b3 07       		.uleb128 0x7
 911 04b4 723600   		.ascii	"r6\000"
 912 04b7 08       		.byte	0x8
 913 04b8 CA       		.byte	0xca
 914 04b9 35040000 		.4byte	0x435
 915 04bd 18       		.byte	0x18
 916 04be 07       		.uleb128 0x7
 917 04bf 723700   		.ascii	"r7\000"
 918 04c2 08       		.byte	0x8
 919 04c3 CB       		.byte	0xcb
 920 04c4 35040000 		.4byte	0x435
 921 04c8 1C       		.byte	0x1c
 922 04c9 07       		.uleb128 0x7
 923 04ca 6C7200   		.ascii	"lr\000"
 924 04cd 08       		.byte	0x8
 925 04ce CC       		.byte	0xcc
 926 04cf 35040000 		.4byte	0x435
 927 04d3 20       		.byte	0x20
 928 04d4 00       		.byte	0
 929 04d5 0A       		.uleb128 0xa
 930 04d6 04       		.byte	0x4
 931 04d7 63040000 		.4byte	0x463
ARM GAS  /tmp/cc9IMWxg.s 			page 29


 932 04db 10       		.uleb128 0x10
 933 04dc 04       		.byte	0x4
 934 04dd 06       		.byte	0x6
 935 04de D2       		.byte	0xd2
 936 04df 3E050000 		.4byte	0x53e
 937 04e3 11       		.uleb128 0x11
 938 04e4 50020000 		.4byte	.LASF76
 939 04e8 06       		.byte	0x6
 940 04e9 D9       		.byte	0xd9
 941 04ea 10010000 		.4byte	0x110
 942 04ee 11       		.uleb128 0x11
 943 04ef 61050000 		.4byte	.LASF77
 944 04f3 06       		.byte	0x6
 945 04f4 E0       		.byte	0xe0
 946 04f5 10010000 		.4byte	0x110
 947 04f9 11       		.uleb128 0x11
 948 04fa 7D000000 		.4byte	.LASF78
 949 04fe 06       		.byte	0x6
 950 04ff E7       		.byte	0xe7
 951 0500 0D030000 		.4byte	0x30d
 952 0504 11       		.uleb128 0x11
 953 0505 D5040000 		.4byte	.LASF79
 954 0509 06       		.byte	0x6
 955 050a EE       		.byte	0xee
 956 050b 3E050000 		.4byte	0x53e
 957 050f 11       		.uleb128 0x11
 958 0510 92010000 		.4byte	.LASF80
 959 0514 06       		.byte	0x6
 960 0515 F3       		.byte	0xf3
 961 0516 10010000 		.4byte	0x110
 962 051a 11       		.uleb128 0x11
 963 051b 41040000 		.4byte	.LASF81
 964 051f 06       		.byte	0x6
 965 0520 FC       		.byte	0xfc
 966 0521 69050000 		.4byte	0x569
 967 0525 12       		.uleb128 0x12
 968 0526 10000000 		.4byte	.LASF82
 969 052a 06       		.byte	0x6
 970 052b 0501     		.2byte	0x105
 971 052d A0050000 		.4byte	0x5a0
 972 0531 12       		.uleb128 0x12
 973 0532 AB000000 		.4byte	.LASF83
 974 0536 06       		.byte	0x6
 975 0537 0D01     		.2byte	0x10d
 976 0539 1B010000 		.4byte	0x11b
 977 053d 00       		.byte	0
 978 053e 0A       		.uleb128 0xa
 979 053f 04       		.byte	0x4
 980 0540 25020000 		.4byte	0x225
 981 0544 05       		.uleb128 0x5
 982 0545 A6010000 		.4byte	.LASF84
 983 0549 0C       		.byte	0xc
 984 054a 09       		.byte	0x9
 985 054b 34       		.byte	0x34
 986 054c 69050000 		.4byte	0x569
 987 0550 06       		.uleb128 0x6
 988 0551 25040000 		.4byte	.LASF29
ARM GAS  /tmp/cc9IMWxg.s 			page 30


 989 0555 09       		.byte	0x9
 990 0556 35       		.byte	0x35
 991 0557 5A020000 		.4byte	0x25a
 992 055b 00       		.byte	0
 993 055c 07       		.uleb128 0x7
 994 055d 636E7400 		.ascii	"cnt\000"
 995 0561 09       		.byte	0x9
 996 0562 37       		.byte	0x37
 997 0563 26010000 		.4byte	0x126
 998 0567 08       		.byte	0x8
 999 0568 00       		.byte	0
 1000 0569 0A       		.uleb128 0xa
 1001 056a 04       		.byte	0x4
 1002 056b 44050000 		.4byte	0x544
 1003 056f 05       		.uleb128 0x5
 1004 0570 64020000 		.4byte	.LASF85
 1005 0574 10       		.byte	0x10
 1006 0575 0A       		.byte	0xa
 1007 0576 39       		.byte	0x39
 1008 0577 A0050000 		.4byte	0x5a0
 1009 057b 06       		.uleb128 0x6
 1010 057c 25040000 		.4byte	.LASF29
 1011 0580 0A       		.byte	0xa
 1012 0581 3A       		.byte	0x3a
 1013 0582 5A020000 		.4byte	0x25a
 1014 0586 00       		.byte	0
 1015 0587 06       		.uleb128 0x6
 1016 0588 0C020000 		.4byte	.LASF86
 1017 058c 0A       		.byte	0xa
 1018 058d 3C       		.byte	0x3c
 1019 058e 30020000 		.4byte	0x230
 1020 0592 08       		.byte	0x8
 1021 0593 06       		.uleb128 0x6
 1022 0594 5A000000 		.4byte	.LASF48
 1023 0598 0A       		.byte	0xa
 1024 0599 3E       		.byte	0x3e
 1025 059a D4050000 		.4byte	0x5d4
 1026 059e 0C       		.byte	0xc
 1027 059f 00       		.byte	0
 1028 05a0 0A       		.uleb128 0xa
 1029 05a1 04       		.byte	0x4
 1030 05a2 6F050000 		.4byte	0x56f
 1031 05a6 0A       		.uleb128 0xa
 1032 05a7 04       		.byte	0x4
 1033 05a8 AC050000 		.4byte	0x5ac
 1034 05ac 13       		.uleb128 0x13
 1035 05ad B1050000 		.4byte	0x5b1
 1036 05b1 03       		.uleb128 0x3
 1037 05b2 01       		.byte	0x1
 1038 05b3 08       		.byte	0x8
 1039 05b4 95020000 		.4byte	.LASF87
 1040 05b8 0A       		.uleb128 0xa
 1041 05b9 04       		.byte	0x4
 1042 05ba 40040000 		.4byte	0x440
 1043 05be 0A       		.uleb128 0xa
 1044 05bf 04       		.byte	0x4
 1045 05c0 0F030000 		.4byte	0x30f
ARM GAS  /tmp/cc9IMWxg.s 			page 31


 1046 05c4 0F       		.uleb128 0xf
 1047 05c5 A6050000 		.4byte	0x5a6
 1048 05c9 04       		.uleb128 0x4
 1049 05ca 48040000 		.4byte	.LASF88
 1050 05ce 0A       		.byte	0xa
 1051 05cf 34       		.byte	0x34
 1052 05d0 6F050000 		.4byte	0x56f
 1053 05d4 0A       		.uleb128 0xa
 1054 05d5 04       		.byte	0x4
 1055 05d6 C9050000 		.4byte	0x5c9
 1056 05da 03       		.uleb128 0x3
 1057 05db 01       		.byte	0x1
 1058 05dc 02       		.byte	0x2
 1059 05dd 5E020000 		.4byte	.LASF89
 1060 05e1 14       		.uleb128 0x14
 1061 05e2 04       		.byte	0x4
 1062 05e3 0B       		.byte	0xb
 1063 05e4 E7       		.byte	0xe7
 1064 05e5 02060000 		.4byte	0x602
 1065 05e9 07       		.uleb128 0x7
 1066 05ea 73657400 		.ascii	"set\000"
 1067 05ee 0B       		.byte	0xb
 1068 05ef E8       		.byte	0xe8
 1069 05f0 AD000000 		.4byte	0xad
 1070 05f4 00       		.byte	0
 1071 05f5 06       		.uleb128 0x6
 1072 05f6 22020000 		.4byte	.LASF90
 1073 05fa 0B       		.byte	0xb
 1074 05fb E9       		.byte	0xe9
 1075 05fc AD000000 		.4byte	0xad
 1076 0600 02       		.byte	0x2
 1077 0601 00       		.byte	0
 1078 0602 10       		.uleb128 0x10
 1079 0603 04       		.byte	0x4
 1080 0604 0B       		.byte	0xb
 1081 0605 E5       		.byte	0xe5
 1082 0606 1D060000 		.4byte	0x61d
 1083 060a 15       		.uleb128 0x15
 1084 060b 5700     		.ascii	"W\000"
 1085 060d 0B       		.byte	0xb
 1086 060e E6       		.byte	0xe6
 1087 060f C3000000 		.4byte	0xc3
 1088 0613 15       		.uleb128 0x15
 1089 0614 4800     		.ascii	"H\000"
 1090 0616 0B       		.byte	0xb
 1091 0617 EA       		.byte	0xea
 1092 0618 E1050000 		.4byte	0x5e1
 1093 061c 00       		.byte	0
 1094 061d 14       		.uleb128 0x14
 1095 061e 2C       		.byte	0x2c
 1096 061f 0B       		.byte	0xb
 1097 0620 DD       		.byte	0xdd
 1098 0621 AA060000 		.4byte	0x6aa
 1099 0625 06       		.uleb128 0x6
 1100 0626 F4010000 		.4byte	.LASF91
 1101 062a 0B       		.byte	0xb
 1102 062b DF       		.byte	0xdf
ARM GAS  /tmp/cc9IMWxg.s 			page 32


 1103 062c 30040000 		.4byte	0x430
 1104 0630 00       		.byte	0
 1105 0631 06       		.uleb128 0x6
 1106 0632 C7030000 		.4byte	.LASF92
 1107 0636 0B       		.byte	0xb
 1108 0637 E0       		.byte	0xe0
 1109 0638 30040000 		.4byte	0x430
 1110 063c 04       		.byte	0x4
 1111 063d 06       		.uleb128 0x6
 1112 063e 8D030000 		.4byte	.LASF93
 1113 0642 0B       		.byte	0xb
 1114 0643 E1       		.byte	0xe1
 1115 0644 30040000 		.4byte	0x430
 1116 0648 08       		.byte	0x8
 1117 0649 06       		.uleb128 0x6
 1118 064a 83020000 		.4byte	.LASF94
 1119 064e 0B       		.byte	0xb
 1120 064f E2       		.byte	0xe2
 1121 0650 30040000 		.4byte	0x430
 1122 0654 0C       		.byte	0xc
 1123 0655 07       		.uleb128 0x7
 1124 0656 49445200 		.ascii	"IDR\000"
 1125 065a 0B       		.byte	0xb
 1126 065b E3       		.byte	0xe3
 1127 065c 30040000 		.4byte	0x430
 1128 0660 10       		.byte	0x10
 1129 0661 07       		.uleb128 0x7
 1130 0662 4F445200 		.ascii	"ODR\000"
 1131 0666 0B       		.byte	0xb
 1132 0667 E4       		.byte	0xe4
 1133 0668 30040000 		.4byte	0x430
 1134 066c 14       		.byte	0x14
 1135 066d 06       		.uleb128 0x6
 1136 066e 17000000 		.4byte	.LASF95
 1137 0672 0B       		.byte	0xb
 1138 0673 EB       		.byte	0xeb
 1139 0674 AA060000 		.4byte	0x6aa
 1140 0678 18       		.byte	0x18
 1141 0679 06       		.uleb128 0x6
 1142 067a 6A050000 		.4byte	.LASF96
 1143 067e 0B       		.byte	0xb
 1144 067f EC       		.byte	0xec
 1145 0680 30040000 		.4byte	0x430
 1146 0684 1C       		.byte	0x1c
 1147 0685 06       		.uleb128 0x6
 1148 0686 64040000 		.4byte	.LASF97
 1149 068a 0B       		.byte	0xb
 1150 068b ED       		.byte	0xed
 1151 068c 30040000 		.4byte	0x430
 1152 0690 20       		.byte	0x20
 1153 0691 06       		.uleb128 0x6
 1154 0692 FA010000 		.4byte	.LASF98
 1155 0696 0B       		.byte	0xb
 1156 0697 EE       		.byte	0xee
 1157 0698 30040000 		.4byte	0x430
 1158 069c 24       		.byte	0x24
 1159 069d 07       		.uleb128 0x7
ARM GAS  /tmp/cc9IMWxg.s 			page 33


 1160 069e 42525200 		.ascii	"BRR\000"
 1161 06a2 0B       		.byte	0xb
 1162 06a3 EF       		.byte	0xef
 1163 06a4 30040000 		.4byte	0x430
 1164 06a8 28       		.byte	0x28
 1165 06a9 00       		.byte	0
 1166 06aa 0F       		.uleb128 0xf
 1167 06ab 02060000 		.4byte	0x602
 1168 06af 04       		.uleb128 0x4
 1169 06b0 FF010000 		.4byte	.LASF99
 1170 06b4 0B       		.byte	0xb
 1171 06b5 F0       		.byte	0xf0
 1172 06b6 1D060000 		.4byte	0x61d
 1173 06ba 16       		.uleb128 0x16
 1174 06bb 2C030000 		.4byte	.LASF100
 1175 06bf 0B       		.byte	0xb
 1176 06c0 3F01     		.2byte	0x13f
 1177 06c2 C3000000 		.4byte	0xc3
 1178 06c6 16       		.uleb128 0x16
 1179 06c7 39030000 		.4byte	.LASF101
 1180 06cb 0B       		.byte	0xb
 1181 06cc 4401     		.2byte	0x144
 1182 06ce C3000000 		.4byte	0xc3
 1183 06d2 16       		.uleb128 0x16
 1184 06d3 78020000 		.4byte	.LASF102
 1185 06d7 0B       		.byte	0xb
 1186 06d8 5101     		.2byte	0x151
 1187 06da DE060000 		.4byte	0x6de
 1188 06de 0A       		.uleb128 0xa
 1189 06df 04       		.byte	0x4
 1190 06e0 AF060000 		.4byte	0x6af
 1191 06e4 14       		.uleb128 0x14
 1192 06e5 0C       		.byte	0xc
 1193 06e6 0C       		.byte	0xc
 1194 06e7 88       		.byte	0x88
 1195 06e8 11070000 		.4byte	0x711
 1196 06ec 06       		.uleb128 0x6
 1197 06ed 89020000 		.4byte	.LASF103
 1198 06f1 0C       		.byte	0xc
 1199 06f2 8C       		.byte	0x8c
 1200 06f3 D2060000 		.4byte	0x6d2
 1201 06f7 00       		.byte	0
 1202 06f8 06       		.uleb128 0x6
 1203 06f9 42030000 		.4byte	.LASF104
 1204 06fd 0C       		.byte	0xc
 1205 06fe 92       		.byte	0x92
 1206 06ff BA060000 		.4byte	0x6ba
 1207 0703 04       		.byte	0x4
 1208 0704 06       		.uleb128 0x6
 1209 0705 57020000 		.4byte	.LASF105
 1210 0709 0C       		.byte	0xc
 1211 070a 96       		.byte	0x96
 1212 070b D9000000 		.4byte	0xd9
 1213 070f 08       		.byte	0x8
 1214 0710 00       		.byte	0
 1215 0711 04       		.uleb128 0x4
 1216 0712 3E000000 		.4byte	.LASF106
ARM GAS  /tmp/cc9IMWxg.s 			page 34


 1217 0716 0C       		.byte	0xc
 1218 0717 97       		.byte	0x97
 1219 0718 E4060000 		.4byte	0x6e4
 1220 071c 17       		.uleb128 0x17
 1221 071d 47030000 		.4byte	.LASF117
 1222 0721 01       		.byte	0x1
 1223 0722 41       		.byte	0x41
 1224 0723 BA060000 		.4byte	0x6ba
 1225 0727 00000000 		.4byte	.LFB179
 1226 072b 0E000000 		.4byte	.LFE179-.LFB179
 1227 072f 01       		.uleb128 0x1
 1228 0730 9C       		.byte	0x9c
 1229 0731 4E070000 		.4byte	0x74e
 1230 0735 18       		.uleb128 0x18
 1231 0736 62757300 		.ascii	"bus\000"
 1232 073a 01       		.byte	0x1
 1233 073b 41       		.byte	0x41
 1234 073c 4E070000 		.4byte	0x74e
 1235 0740 00000000 		.4byte	.LLST0
 1236 0744 19       		.uleb128 0x19
 1237 0745 33040000 		.4byte	.LASF108
 1238 0749 64070000 		.4byte	0x764
 1239 074d 00       		.byte	0
 1240 074e 0A       		.uleb128 0xa
 1241 074f 04       		.byte	0x4
 1242 0750 11070000 		.4byte	0x711
 1243 0754 1A       		.uleb128 0x1a
 1244 0755 B1050000 		.4byte	0x5b1
 1245 0759 64070000 		.4byte	0x764
 1246 075d 1B       		.uleb128 0x1b
 1247 075e 29040000 		.4byte	0x429
 1248 0762 0A       		.byte	0xa
 1249 0763 00       		.byte	0
 1250 0764 13       		.uleb128 0x13
 1251 0765 54070000 		.4byte	0x754
 1252 0769 1C       		.uleb128 0x1c
 1253 076a 13050000 		.4byte	.LASF110
 1254 076e 01       		.byte	0x1
 1255 076f 5A       		.byte	0x5a
 1256 0770 00000000 		.4byte	.LFB180
 1257 0774 1E000000 		.4byte	.LFE180-.LFB180
 1258 0778 01       		.uleb128 0x1
 1259 0779 9C       		.byte	0x9c
 1260 077a A6070000 		.4byte	0x7a6
 1261 077e 18       		.uleb128 0x18
 1262 077f 62757300 		.ascii	"bus\000"
 1263 0783 01       		.byte	0x1
 1264 0784 5A       		.byte	0x5a
 1265 0785 4E070000 		.4byte	0x74e
 1266 0789 21000000 		.4byte	.LLST1
 1267 078d 1D       		.uleb128 0x1d
 1268 078e E6020000 		.4byte	.LASF107
 1269 0792 01       		.byte	0x1
 1270 0793 5A       		.byte	0x5a
 1271 0794 BA060000 		.4byte	0x6ba
 1272 0798 42000000 		.4byte	.LLST2
 1273 079c 19       		.uleb128 0x19
ARM GAS  /tmp/cc9IMWxg.s 			page 35


 1274 079d 9F040000 		.4byte	.LASF109
 1275 07a1 B6070000 		.4byte	0x7b6
 1276 07a5 00       		.byte	0
 1277 07a6 1A       		.uleb128 0x1a
 1278 07a7 B1050000 		.4byte	0x5b1
 1279 07ab B6070000 		.4byte	0x7b6
 1280 07af 1B       		.uleb128 0x1b
 1281 07b0 29040000 		.4byte	0x429
 1282 07b4 0B       		.byte	0xb
 1283 07b5 00       		.byte	0
 1284 07b6 13       		.uleb128 0x13
 1285 07b7 A6070000 		.4byte	0x7a6
 1286 07bb 1C       		.uleb128 0x1c
 1287 07bc EB020000 		.4byte	.LASF111
 1288 07c0 01       		.byte	0x1
 1289 07c1 71       		.byte	0x71
 1290 07c2 00000000 		.4byte	.LFB181
 1291 07c6 14000000 		.4byte	.LFE181-.LFB181
 1292 07ca 01       		.uleb128 0x1
 1293 07cb 9C       		.byte	0x9c
 1294 07cc 09080000 		.4byte	0x809
 1295 07d0 18       		.uleb128 0x18
 1296 07d1 62757300 		.ascii	"bus\000"
 1297 07d5 01       		.byte	0x1
 1298 07d6 71       		.byte	0x71
 1299 07d7 4E070000 		.4byte	0x74e
 1300 07db 63000000 		.4byte	.LLST3
 1301 07df 1D       		.uleb128 0x1d
 1302 07e0 B2000000 		.4byte	.LASF112
 1303 07e4 01       		.byte	0x1
 1304 07e5 71       		.byte	0x71
 1305 07e6 C6060000 		.4byte	0x6c6
 1306 07ea 84000000 		.4byte	.LLST4
 1307 07ee 19       		.uleb128 0x19
 1308 07ef B4020000 		.4byte	.LASF113
 1309 07f3 19080000 		.4byte	0x819
 1310 07f7 1E       		.uleb128 0x1e
 1311 07f8 12000000 		.4byte	.LVL8
 1312 07fc 29080000 		.4byte	0x829
 1313 0800 1F       		.uleb128 0x1f
 1314 0801 01       		.uleb128 0x1
 1315 0802 52       		.byte	0x52
 1316 0803 03       		.uleb128 0x3
 1317 0804 F3       		.byte	0xf3
 1318 0805 01       		.uleb128 0x1
 1319 0806 51       		.byte	0x51
 1320 0807 00       		.byte	0
 1321 0808 00       		.byte	0
 1322 0809 1A       		.uleb128 0x1a
 1323 080a B1050000 		.4byte	0x5b1
 1324 080e 19080000 		.4byte	0x819
 1325 0812 1B       		.uleb128 0x1b
 1326 0813 29040000 		.4byte	0x429
 1327 0817 0D       		.byte	0xd
 1328 0818 00       		.byte	0
 1329 0819 13       		.uleb128 0x13
 1330 081a 09080000 		.4byte	0x809
ARM GAS  /tmp/cc9IMWxg.s 			page 36


 1331 081e 20       		.uleb128 0x20
 1332 081f 636800   		.ascii	"ch\000"
 1333 0822 06       		.byte	0x6
 1334 0823 D201     		.2byte	0x1d2
 1335 0825 DC030000 		.4byte	0x3dc
 1336 0829 21       		.uleb128 0x21
 1337 082a B3040000 		.4byte	.LASF118
 1338 082e 0B       		.byte	0xb
 1339 082f 2402     		.2byte	0x224
 1340 0831 0D       		.uleb128 0xd
 1341 0832 D2060000 		.4byte	0x6d2
 1342 0836 0D       		.uleb128 0xd
 1343 0837 BA060000 		.4byte	0x6ba
 1344 083b 0D       		.uleb128 0xd
 1345 083c C6060000 		.4byte	0x6c6
 1346 0840 00       		.byte	0
 1347 0841 00       		.byte	0
 1348              		.section	.debug_abbrev,"",%progbits
 1349              	.Ldebug_abbrev0:
 1350 0000 01       		.uleb128 0x1
 1351 0001 11       		.uleb128 0x11
 1352 0002 01       		.byte	0x1
 1353 0003 25       		.uleb128 0x25
 1354 0004 0E       		.uleb128 0xe
 1355 0005 13       		.uleb128 0x13
 1356 0006 0B       		.uleb128 0xb
 1357 0007 03       		.uleb128 0x3
 1358 0008 0E       		.uleb128 0xe
 1359 0009 1B       		.uleb128 0x1b
 1360 000a 0E       		.uleb128 0xe
 1361 000b 55       		.uleb128 0x55
 1362 000c 17       		.uleb128 0x17
 1363 000d 11       		.uleb128 0x11
 1364 000e 01       		.uleb128 0x1
 1365 000f 10       		.uleb128 0x10
 1366 0010 17       		.uleb128 0x17
 1367 0011 00       		.byte	0
 1368 0012 00       		.byte	0
 1369 0013 02       		.uleb128 0x2
 1370 0014 24       		.uleb128 0x24
 1371 0015 00       		.byte	0
 1372 0016 0B       		.uleb128 0xb
 1373 0017 0B       		.uleb128 0xb
 1374 0018 3E       		.uleb128 0x3e
 1375 0019 0B       		.uleb128 0xb
 1376 001a 03       		.uleb128 0x3
 1377 001b 08       		.uleb128 0x8
 1378 001c 00       		.byte	0
 1379 001d 00       		.byte	0
 1380 001e 03       		.uleb128 0x3
 1381 001f 24       		.uleb128 0x24
 1382 0020 00       		.byte	0
 1383 0021 0B       		.uleb128 0xb
 1384 0022 0B       		.uleb128 0xb
 1385 0023 3E       		.uleb128 0x3e
 1386 0024 0B       		.uleb128 0xb
 1387 0025 03       		.uleb128 0x3
ARM GAS  /tmp/cc9IMWxg.s 			page 37


 1388 0026 0E       		.uleb128 0xe
 1389 0027 00       		.byte	0
 1390 0028 00       		.byte	0
 1391 0029 04       		.uleb128 0x4
 1392 002a 16       		.uleb128 0x16
 1393 002b 00       		.byte	0
 1394 002c 03       		.uleb128 0x3
 1395 002d 0E       		.uleb128 0xe
 1396 002e 3A       		.uleb128 0x3a
 1397 002f 0B       		.uleb128 0xb
 1398 0030 3B       		.uleb128 0x3b
 1399 0031 0B       		.uleb128 0xb
 1400 0032 49       		.uleb128 0x49
 1401 0033 13       		.uleb128 0x13
 1402 0034 00       		.byte	0
 1403 0035 00       		.byte	0
 1404 0036 05       		.uleb128 0x5
 1405 0037 13       		.uleb128 0x13
 1406 0038 01       		.byte	0x1
 1407 0039 03       		.uleb128 0x3
 1408 003a 0E       		.uleb128 0xe
 1409 003b 0B       		.uleb128 0xb
 1410 003c 0B       		.uleb128 0xb
 1411 003d 3A       		.uleb128 0x3a
 1412 003e 0B       		.uleb128 0xb
 1413 003f 3B       		.uleb128 0x3b
 1414 0040 0B       		.uleb128 0xb
 1415 0041 01       		.uleb128 0x1
 1416 0042 13       		.uleb128 0x13
 1417 0043 00       		.byte	0
 1418 0044 00       		.byte	0
 1419 0045 06       		.uleb128 0x6
 1420 0046 0D       		.uleb128 0xd
 1421 0047 00       		.byte	0
 1422 0048 03       		.uleb128 0x3
 1423 0049 0E       		.uleb128 0xe
 1424 004a 3A       		.uleb128 0x3a
 1425 004b 0B       		.uleb128 0xb
 1426 004c 3B       		.uleb128 0x3b
 1427 004d 0B       		.uleb128 0xb
 1428 004e 49       		.uleb128 0x49
 1429 004f 13       		.uleb128 0x13
 1430 0050 38       		.uleb128 0x38
 1431 0051 0B       		.uleb128 0xb
 1432 0052 00       		.byte	0
 1433 0053 00       		.byte	0
 1434 0054 07       		.uleb128 0x7
 1435 0055 0D       		.uleb128 0xd
 1436 0056 00       		.byte	0
 1437 0057 03       		.uleb128 0x3
 1438 0058 08       		.uleb128 0x8
 1439 0059 3A       		.uleb128 0x3a
 1440 005a 0B       		.uleb128 0xb
 1441 005b 3B       		.uleb128 0x3b
 1442 005c 0B       		.uleb128 0xb
 1443 005d 49       		.uleb128 0x49
 1444 005e 13       		.uleb128 0x13
ARM GAS  /tmp/cc9IMWxg.s 			page 38


 1445 005f 38       		.uleb128 0x38
 1446 0060 0B       		.uleb128 0xb
 1447 0061 00       		.byte	0
 1448 0062 00       		.byte	0
 1449 0063 08       		.uleb128 0x8
 1450 0064 0D       		.uleb128 0xd
 1451 0065 00       		.byte	0
 1452 0066 03       		.uleb128 0x3
 1453 0067 08       		.uleb128 0x8
 1454 0068 3A       		.uleb128 0x3a
 1455 0069 0B       		.uleb128 0xb
 1456 006a 3B       		.uleb128 0x3b
 1457 006b 05       		.uleb128 0x5
 1458 006c 49       		.uleb128 0x49
 1459 006d 13       		.uleb128 0x13
 1460 006e 38       		.uleb128 0x38
 1461 006f 0B       		.uleb128 0xb
 1462 0070 00       		.byte	0
 1463 0071 00       		.byte	0
 1464 0072 09       		.uleb128 0x9
 1465 0073 0D       		.uleb128 0xd
 1466 0074 00       		.byte	0
 1467 0075 03       		.uleb128 0x3
 1468 0076 0E       		.uleb128 0xe
 1469 0077 3A       		.uleb128 0x3a
 1470 0078 0B       		.uleb128 0xb
 1471 0079 3B       		.uleb128 0x3b
 1472 007a 05       		.uleb128 0x5
 1473 007b 49       		.uleb128 0x49
 1474 007c 13       		.uleb128 0x13
 1475 007d 38       		.uleb128 0x38
 1476 007e 0B       		.uleb128 0xb
 1477 007f 00       		.byte	0
 1478 0080 00       		.byte	0
 1479 0081 0A       		.uleb128 0xa
 1480 0082 0F       		.uleb128 0xf
 1481 0083 00       		.byte	0
 1482 0084 0B       		.uleb128 0xb
 1483 0085 0B       		.uleb128 0xb
 1484 0086 49       		.uleb128 0x49
 1485 0087 13       		.uleb128 0x13
 1486 0088 00       		.byte	0
 1487 0089 00       		.byte	0
 1488 008a 0B       		.uleb128 0xb
 1489 008b 13       		.uleb128 0x13
 1490 008c 01       		.byte	0x1
 1491 008d 03       		.uleb128 0x3
 1492 008e 0E       		.uleb128 0xe
 1493 008f 0B       		.uleb128 0xb
 1494 0090 0B       		.uleb128 0xb
 1495 0091 3A       		.uleb128 0x3a
 1496 0092 0B       		.uleb128 0xb
 1497 0093 3B       		.uleb128 0x3b
 1498 0094 05       		.uleb128 0x5
 1499 0095 01       		.uleb128 0x1
 1500 0096 13       		.uleb128 0x13
 1501 0097 00       		.byte	0
ARM GAS  /tmp/cc9IMWxg.s 			page 39


 1502 0098 00       		.byte	0
 1503 0099 0C       		.uleb128 0xc
 1504 009a 15       		.uleb128 0x15
 1505 009b 01       		.byte	0x1
 1506 009c 27       		.uleb128 0x27
 1507 009d 19       		.uleb128 0x19
 1508 009e 01       		.uleb128 0x1
 1509 009f 13       		.uleb128 0x13
 1510 00a0 00       		.byte	0
 1511 00a1 00       		.byte	0
 1512 00a2 0D       		.uleb128 0xd
 1513 00a3 05       		.uleb128 0x5
 1514 00a4 00       		.byte	0
 1515 00a5 49       		.uleb128 0x49
 1516 00a6 13       		.uleb128 0x13
 1517 00a7 00       		.byte	0
 1518 00a8 00       		.byte	0
 1519 00a9 0E       		.uleb128 0xe
 1520 00aa 0F       		.uleb128 0xf
 1521 00ab 00       		.byte	0
 1522 00ac 0B       		.uleb128 0xb
 1523 00ad 0B       		.uleb128 0xb
 1524 00ae 00       		.byte	0
 1525 00af 00       		.byte	0
 1526 00b0 0F       		.uleb128 0xf
 1527 00b1 35       		.uleb128 0x35
 1528 00b2 00       		.byte	0
 1529 00b3 49       		.uleb128 0x49
 1530 00b4 13       		.uleb128 0x13
 1531 00b5 00       		.byte	0
 1532 00b6 00       		.byte	0
 1533 00b7 10       		.uleb128 0x10
 1534 00b8 17       		.uleb128 0x17
 1535 00b9 01       		.byte	0x1
 1536 00ba 0B       		.uleb128 0xb
 1537 00bb 0B       		.uleb128 0xb
 1538 00bc 3A       		.uleb128 0x3a
 1539 00bd 0B       		.uleb128 0xb
 1540 00be 3B       		.uleb128 0x3b
 1541 00bf 0B       		.uleb128 0xb
 1542 00c0 01       		.uleb128 0x1
 1543 00c1 13       		.uleb128 0x13
 1544 00c2 00       		.byte	0
 1545 00c3 00       		.byte	0
 1546 00c4 11       		.uleb128 0x11
 1547 00c5 0D       		.uleb128 0xd
 1548 00c6 00       		.byte	0
 1549 00c7 03       		.uleb128 0x3
 1550 00c8 0E       		.uleb128 0xe
 1551 00c9 3A       		.uleb128 0x3a
 1552 00ca 0B       		.uleb128 0xb
 1553 00cb 3B       		.uleb128 0x3b
 1554 00cc 0B       		.uleb128 0xb
 1555 00cd 49       		.uleb128 0x49
 1556 00ce 13       		.uleb128 0x13
 1557 00cf 00       		.byte	0
 1558 00d0 00       		.byte	0
ARM GAS  /tmp/cc9IMWxg.s 			page 40


 1559 00d1 12       		.uleb128 0x12
 1560 00d2 0D       		.uleb128 0xd
 1561 00d3 00       		.byte	0
 1562 00d4 03       		.uleb128 0x3
 1563 00d5 0E       		.uleb128 0xe
 1564 00d6 3A       		.uleb128 0x3a
 1565 00d7 0B       		.uleb128 0xb
 1566 00d8 3B       		.uleb128 0x3b
 1567 00d9 05       		.uleb128 0x5
 1568 00da 49       		.uleb128 0x49
 1569 00db 13       		.uleb128 0x13
 1570 00dc 00       		.byte	0
 1571 00dd 00       		.byte	0
 1572 00de 13       		.uleb128 0x13
 1573 00df 26       		.uleb128 0x26
 1574 00e0 00       		.byte	0
 1575 00e1 49       		.uleb128 0x49
 1576 00e2 13       		.uleb128 0x13
 1577 00e3 00       		.byte	0
 1578 00e4 00       		.byte	0
 1579 00e5 14       		.uleb128 0x14
 1580 00e6 13       		.uleb128 0x13
 1581 00e7 01       		.byte	0x1
 1582 00e8 0B       		.uleb128 0xb
 1583 00e9 0B       		.uleb128 0xb
 1584 00ea 3A       		.uleb128 0x3a
 1585 00eb 0B       		.uleb128 0xb
 1586 00ec 3B       		.uleb128 0x3b
 1587 00ed 0B       		.uleb128 0xb
 1588 00ee 01       		.uleb128 0x1
 1589 00ef 13       		.uleb128 0x13
 1590 00f0 00       		.byte	0
 1591 00f1 00       		.byte	0
 1592 00f2 15       		.uleb128 0x15
 1593 00f3 0D       		.uleb128 0xd
 1594 00f4 00       		.byte	0
 1595 00f5 03       		.uleb128 0x3
 1596 00f6 08       		.uleb128 0x8
 1597 00f7 3A       		.uleb128 0x3a
 1598 00f8 0B       		.uleb128 0xb
 1599 00f9 3B       		.uleb128 0x3b
 1600 00fa 0B       		.uleb128 0xb
 1601 00fb 49       		.uleb128 0x49
 1602 00fc 13       		.uleb128 0x13
 1603 00fd 00       		.byte	0
 1604 00fe 00       		.byte	0
 1605 00ff 16       		.uleb128 0x16
 1606 0100 16       		.uleb128 0x16
 1607 0101 00       		.byte	0
 1608 0102 03       		.uleb128 0x3
 1609 0103 0E       		.uleb128 0xe
 1610 0104 3A       		.uleb128 0x3a
 1611 0105 0B       		.uleb128 0xb
 1612 0106 3B       		.uleb128 0x3b
 1613 0107 05       		.uleb128 0x5
 1614 0108 49       		.uleb128 0x49
 1615 0109 13       		.uleb128 0x13
ARM GAS  /tmp/cc9IMWxg.s 			page 41


 1616 010a 00       		.byte	0
 1617 010b 00       		.byte	0
 1618 010c 17       		.uleb128 0x17
 1619 010d 2E       		.uleb128 0x2e
 1620 010e 01       		.byte	0x1
 1621 010f 3F       		.uleb128 0x3f
 1622 0110 19       		.uleb128 0x19
 1623 0111 03       		.uleb128 0x3
 1624 0112 0E       		.uleb128 0xe
 1625 0113 3A       		.uleb128 0x3a
 1626 0114 0B       		.uleb128 0xb
 1627 0115 3B       		.uleb128 0x3b
 1628 0116 0B       		.uleb128 0xb
 1629 0117 27       		.uleb128 0x27
 1630 0118 19       		.uleb128 0x19
 1631 0119 49       		.uleb128 0x49
 1632 011a 13       		.uleb128 0x13
 1633 011b 11       		.uleb128 0x11
 1634 011c 01       		.uleb128 0x1
 1635 011d 12       		.uleb128 0x12
 1636 011e 06       		.uleb128 0x6
 1637 011f 40       		.uleb128 0x40
 1638 0120 18       		.uleb128 0x18
 1639 0121 9742     		.uleb128 0x2117
 1640 0123 19       		.uleb128 0x19
 1641 0124 01       		.uleb128 0x1
 1642 0125 13       		.uleb128 0x13
 1643 0126 00       		.byte	0
 1644 0127 00       		.byte	0
 1645 0128 18       		.uleb128 0x18
 1646 0129 05       		.uleb128 0x5
 1647 012a 00       		.byte	0
 1648 012b 03       		.uleb128 0x3
 1649 012c 08       		.uleb128 0x8
 1650 012d 3A       		.uleb128 0x3a
 1651 012e 0B       		.uleb128 0xb
 1652 012f 3B       		.uleb128 0x3b
 1653 0130 0B       		.uleb128 0xb
 1654 0131 49       		.uleb128 0x49
 1655 0132 13       		.uleb128 0x13
 1656 0133 02       		.uleb128 0x2
 1657 0134 17       		.uleb128 0x17
 1658 0135 00       		.byte	0
 1659 0136 00       		.byte	0
 1660 0137 19       		.uleb128 0x19
 1661 0138 34       		.uleb128 0x34
 1662 0139 00       		.byte	0
 1663 013a 03       		.uleb128 0x3
 1664 013b 0E       		.uleb128 0xe
 1665 013c 49       		.uleb128 0x49
 1666 013d 13       		.uleb128 0x13
 1667 013e 34       		.uleb128 0x34
 1668 013f 19       		.uleb128 0x19
 1669 0140 00       		.byte	0
 1670 0141 00       		.byte	0
 1671 0142 1A       		.uleb128 0x1a
 1672 0143 01       		.uleb128 0x1
ARM GAS  /tmp/cc9IMWxg.s 			page 42


 1673 0144 01       		.byte	0x1
 1674 0145 49       		.uleb128 0x49
 1675 0146 13       		.uleb128 0x13
 1676 0147 01       		.uleb128 0x1
 1677 0148 13       		.uleb128 0x13
 1678 0149 00       		.byte	0
 1679 014a 00       		.byte	0
 1680 014b 1B       		.uleb128 0x1b
 1681 014c 21       		.uleb128 0x21
 1682 014d 00       		.byte	0
 1683 014e 49       		.uleb128 0x49
 1684 014f 13       		.uleb128 0x13
 1685 0150 2F       		.uleb128 0x2f
 1686 0151 0B       		.uleb128 0xb
 1687 0152 00       		.byte	0
 1688 0153 00       		.byte	0
 1689 0154 1C       		.uleb128 0x1c
 1690 0155 2E       		.uleb128 0x2e
 1691 0156 01       		.byte	0x1
 1692 0157 3F       		.uleb128 0x3f
 1693 0158 19       		.uleb128 0x19
 1694 0159 03       		.uleb128 0x3
 1695 015a 0E       		.uleb128 0xe
 1696 015b 3A       		.uleb128 0x3a
 1697 015c 0B       		.uleb128 0xb
 1698 015d 3B       		.uleb128 0x3b
 1699 015e 0B       		.uleb128 0xb
 1700 015f 27       		.uleb128 0x27
 1701 0160 19       		.uleb128 0x19
 1702 0161 11       		.uleb128 0x11
 1703 0162 01       		.uleb128 0x1
 1704 0163 12       		.uleb128 0x12
 1705 0164 06       		.uleb128 0x6
 1706 0165 40       		.uleb128 0x40
 1707 0166 18       		.uleb128 0x18
 1708 0167 9742     		.uleb128 0x2117
 1709 0169 19       		.uleb128 0x19
 1710 016a 01       		.uleb128 0x1
 1711 016b 13       		.uleb128 0x13
 1712 016c 00       		.byte	0
 1713 016d 00       		.byte	0
 1714 016e 1D       		.uleb128 0x1d
 1715 016f 05       		.uleb128 0x5
 1716 0170 00       		.byte	0
 1717 0171 03       		.uleb128 0x3
 1718 0172 0E       		.uleb128 0xe
 1719 0173 3A       		.uleb128 0x3a
 1720 0174 0B       		.uleb128 0xb
 1721 0175 3B       		.uleb128 0x3b
 1722 0176 0B       		.uleb128 0xb
 1723 0177 49       		.uleb128 0x49
 1724 0178 13       		.uleb128 0x13
 1725 0179 02       		.uleb128 0x2
 1726 017a 17       		.uleb128 0x17
 1727 017b 00       		.byte	0
 1728 017c 00       		.byte	0
 1729 017d 1E       		.uleb128 0x1e
ARM GAS  /tmp/cc9IMWxg.s 			page 43


 1730 017e 898201   		.uleb128 0x4109
 1731 0181 01       		.byte	0x1
 1732 0182 11       		.uleb128 0x11
 1733 0183 01       		.uleb128 0x1
 1734 0184 31       		.uleb128 0x31
 1735 0185 13       		.uleb128 0x13
 1736 0186 00       		.byte	0
 1737 0187 00       		.byte	0
 1738 0188 1F       		.uleb128 0x1f
 1739 0189 8A8201   		.uleb128 0x410a
 1740 018c 00       		.byte	0
 1741 018d 02       		.uleb128 0x2
 1742 018e 18       		.uleb128 0x18
 1743 018f 9142     		.uleb128 0x2111
 1744 0191 18       		.uleb128 0x18
 1745 0192 00       		.byte	0
 1746 0193 00       		.byte	0
 1747 0194 20       		.uleb128 0x20
 1748 0195 34       		.uleb128 0x34
 1749 0196 00       		.byte	0
 1750 0197 03       		.uleb128 0x3
 1751 0198 08       		.uleb128 0x8
 1752 0199 3A       		.uleb128 0x3a
 1753 019a 0B       		.uleb128 0xb
 1754 019b 3B       		.uleb128 0x3b
 1755 019c 05       		.uleb128 0x5
 1756 019d 49       		.uleb128 0x49
 1757 019e 13       		.uleb128 0x13
 1758 019f 3F       		.uleb128 0x3f
 1759 01a0 19       		.uleb128 0x19
 1760 01a1 3C       		.uleb128 0x3c
 1761 01a2 19       		.uleb128 0x19
 1762 01a3 00       		.byte	0
 1763 01a4 00       		.byte	0
 1764 01a5 21       		.uleb128 0x21
 1765 01a6 2E       		.uleb128 0x2e
 1766 01a7 01       		.byte	0x1
 1767 01a8 3F       		.uleb128 0x3f
 1768 01a9 19       		.uleb128 0x19
 1769 01aa 03       		.uleb128 0x3
 1770 01ab 0E       		.uleb128 0xe
 1771 01ac 3A       		.uleb128 0x3a
 1772 01ad 0B       		.uleb128 0xb
 1773 01ae 3B       		.uleb128 0x3b
 1774 01af 05       		.uleb128 0x5
 1775 01b0 27       		.uleb128 0x27
 1776 01b1 19       		.uleb128 0x19
 1777 01b2 3C       		.uleb128 0x3c
 1778 01b3 19       		.uleb128 0x19
 1779 01b4 00       		.byte	0
 1780 01b5 00       		.byte	0
 1781 01b6 00       		.byte	0
 1782              		.section	.debug_loc,"",%progbits
 1783              	.Ldebug_loc0:
 1784              	.LLST0:
 1785 0000 00000000 		.4byte	.LVL0
 1786 0004 08000000 		.4byte	.LVL1
ARM GAS  /tmp/cc9IMWxg.s 			page 44


 1787 0008 0100     		.2byte	0x1
 1788 000a 50       		.byte	0x50
 1789 000b 08000000 		.4byte	.LVL1
 1790 000f 0E000000 		.4byte	.LFE179
 1791 0013 0400     		.2byte	0x4
 1792 0015 F3       		.byte	0xf3
 1793 0016 01       		.uleb128 0x1
 1794 0017 50       		.byte	0x50
 1795 0018 9F       		.byte	0x9f
 1796 0019 00000000 		.4byte	0
 1797 001d 00000000 		.4byte	0
 1798              	.LLST1:
 1799 0021 00000000 		.4byte	.LVL2
 1800 0025 0E000000 		.4byte	.LVL3
 1801 0029 0100     		.2byte	0x1
 1802 002b 50       		.byte	0x50
 1803 002c 0E000000 		.4byte	.LVL3
 1804 0030 1E000000 		.4byte	.LFE180
 1805 0034 0400     		.2byte	0x4
 1806 0036 F3       		.byte	0xf3
 1807 0037 01       		.uleb128 0x1
 1808 0038 50       		.byte	0x50
 1809 0039 9F       		.byte	0x9f
 1810 003a 00000000 		.4byte	0
 1811 003e 00000000 		.4byte	0
 1812              	.LLST2:
 1813 0042 00000000 		.4byte	.LVL2
 1814 0046 10000000 		.4byte	.LVL4
 1815 004a 0100     		.2byte	0x1
 1816 004c 51       		.byte	0x51
 1817 004d 10000000 		.4byte	.LVL4
 1818 0051 1E000000 		.4byte	.LFE180
 1819 0055 0400     		.2byte	0x4
 1820 0057 F3       		.byte	0xf3
 1821 0058 01       		.uleb128 0x1
 1822 0059 51       		.byte	0x51
 1823 005a 9F       		.byte	0x9f
 1824 005b 00000000 		.4byte	0
 1825 005f 00000000 		.4byte	0
 1826              	.LLST3:
 1827 0063 00000000 		.4byte	.LVL5
 1828 0067 0C000000 		.4byte	.LVL7
 1829 006b 0100     		.2byte	0x1
 1830 006d 50       		.byte	0x50
 1831 006e 0C000000 		.4byte	.LVL7
 1832 0072 14000000 		.4byte	.LFE181
 1833 0076 0400     		.2byte	0x4
 1834 0078 F3       		.byte	0xf3
 1835 0079 01       		.uleb128 0x1
 1836 007a 50       		.byte	0x50
 1837 007b 9F       		.byte	0x9f
 1838 007c 00000000 		.4byte	0
 1839 0080 00000000 		.4byte	0
 1840              	.LLST4:
 1841 0084 00000000 		.4byte	.LVL5
 1842 0088 08000000 		.4byte	.LVL6
 1843 008c 0100     		.2byte	0x1
ARM GAS  /tmp/cc9IMWxg.s 			page 45


 1844 008e 51       		.byte	0x51
 1845 008f 08000000 		.4byte	.LVL6
 1846 0093 11000000 		.4byte	.LVL8-1
 1847 0097 0100     		.2byte	0x1
 1848 0099 52       		.byte	0x52
 1849 009a 11000000 		.4byte	.LVL8-1
 1850 009e 14000000 		.4byte	.LFE181
 1851 00a2 0400     		.2byte	0x4
 1852 00a4 F3       		.byte	0xf3
 1853 00a5 01       		.uleb128 0x1
 1854 00a6 51       		.byte	0x51
 1855 00a7 9F       		.byte	0x9f
 1856 00a8 00000000 		.4byte	0
 1857 00ac 00000000 		.4byte	0
 1858              		.section	.debug_aranges,"",%progbits
 1859 0000 2C000000 		.4byte	0x2c
 1860 0004 0200     		.2byte	0x2
 1861 0006 00000000 		.4byte	.Ldebug_info0
 1862 000a 04       		.byte	0x4
 1863 000b 00       		.byte	0
 1864 000c 0000     		.2byte	0
 1865 000e 0000     		.2byte	0
 1866 0010 00000000 		.4byte	.LFB179
 1867 0014 0E000000 		.4byte	.LFE179-.LFB179
 1868 0018 00000000 		.4byte	.LFB180
 1869 001c 1E000000 		.4byte	.LFE180-.LFB180
 1870 0020 00000000 		.4byte	.LFB181
 1871 0024 14000000 		.4byte	.LFE181-.LFB181
 1872 0028 00000000 		.4byte	0
 1873 002c 00000000 		.4byte	0
 1874              		.section	.debug_ranges,"",%progbits
 1875              	.Ldebug_ranges0:
 1876 0000 00000000 		.4byte	.LFB179
 1877 0004 0E000000 		.4byte	.LFE179
 1878 0008 00000000 		.4byte	.LFB180
 1879 000c 1E000000 		.4byte	.LFE180
 1880 0010 00000000 		.4byte	.LFB181
 1881 0014 14000000 		.4byte	.LFE181
 1882 0018 00000000 		.4byte	0
 1883 001c 00000000 		.4byte	0
 1884              		.section	.debug_line,"",%progbits
 1885              	.Ldebug_line0:
 1886 0000 E0010000 		.section	.debug_str,"MS",%progbits,1
 1886      0200A101 
 1886      00000201 
 1886      FB0E0D00 
 1886      01010101 
 1887              	.LASF47:
 1888 0000 63685F74 		.ascii	"ch_threads_list\000"
 1888      68726561 
 1888      64735F6C 
 1888      69737400 
 1889              	.LASF82:
 1890 0010 77746D74 		.ascii	"wtmtxp\000"
 1890      787000
 1891              	.LASF95:
 1892 0017 42535252 		.ascii	"BSRR\000"
ARM GAS  /tmp/cc9IMWxg.s 			page 46


 1892      00
 1893              	.LASF72:
 1894 001c 72656761 		.ascii	"regarm_t\000"
 1894      726D5F74 
 1894      00
 1895              	.LASF36:
 1896 0025 666C6167 		.ascii	"flags\000"
 1896      7300
 1897              	.LASF27:
 1898 002b 73797374 		.ascii	"systime_t\000"
 1898      696D655F 
 1898      7400
 1899              	.LASF42:
 1900 0035 7265616C 		.ascii	"realprio\000"
 1900      7072696F 
 1900      00
 1901              	.LASF106:
 1902 003e 494F4275 		.ascii	"IOBus\000"
 1902      7300
 1903              	.LASF40:
 1904 0044 6570656E 		.ascii	"epending\000"
 1904      64696E67 
 1904      00
 1905              	.LASF0:
 1906 004d 756E7369 		.ascii	"unsigned int\000"
 1906      676E6564 
 1906      20696E74 
 1906      00
 1907              	.LASF48:
 1908 005a 6E657874 		.ascii	"next\000"
 1908      00
 1909              	.LASF45:
 1910 005f 74687265 		.ascii	"threads_list_t\000"
 1910      6164735F 
 1910      6C697374 
 1910      5F7400
 1911              	.LASF7:
 1912 006e 5F5F696E 		.ascii	"__int32_t\000"
 1912      7433325F 
 1912      7400
 1913              	.LASF37:
 1914 0078 72656673 		.ascii	"refs\000"
 1914      00
 1915              	.LASF78:
 1916 007d 77746F62 		.ascii	"wtobjp\000"
 1916      6A7000
 1917              	.LASF69:
 1918 0084 76746C69 		.ascii	"vtlist\000"
 1918      737400
 1919              	.LASF74:
 1920 008b 706F7274 		.ascii	"port_context\000"
 1920      5F636F6E 
 1920      74657874 
 1920      00
 1921              	.LASF53:
 1922 0098 63685F72 		.ascii	"ch_ready_list\000"
 1922      65616479 
ARM GAS  /tmp/cc9IMWxg.s 			page 47


 1922      5F6C6973 
 1922      7400
 1923              	.LASF59:
 1924 00a6 66756E63 		.ascii	"func\000"
 1924      00
 1925              	.LASF83:
 1926 00ab 65776D61 		.ascii	"ewmask\000"
 1926      736B00
 1927              	.LASF112:
 1928 00b2 6D6F6465 		.ascii	"mode\000"
 1928      00
 1929              	.LASF51:
 1930 00b7 70726576 		.ascii	"prev\000"
 1930      00
 1931              	.LASF50:
 1932 00bc 63685F74 		.ascii	"ch_threads_queue\000"
 1932      68726561 
 1932      64735F71 
 1932      75657565 
 1932      00
 1933              	.LASF55:
 1934 00cd 76746675 		.ascii	"vtfunc_t\000"
 1934      6E635F74 
 1934      00
 1935              	.LASF64:
 1936 00d6 63685F73 		.ascii	"ch_system_debug\000"
 1936      79737465 
 1936      6D5F6465 
 1936      62756700 
 1937              	.LASF114:
 1938 00e6 474E5520 		.ascii	"GNU C 4.8.3 -mcpu=cortex-m0 -mno-thumb-interwork -m"
 1938      4320342E 
 1938      382E3320 
 1938      2D6D6370 
 1938      753D636F 
 1939 0119 7468756D 		.ascii	"thumb -ggdb -O2 -fomit-frame-pointer -falign-functi"
 1939      62202D67 
 1939      67646220 
 1939      2D4F3220 
 1939      2D666F6D 
 1940 014c 6F6E733D 		.ascii	"ons=16 -ffunction-sections -fdata-sections -fno-com"
 1940      3136202D 
 1940      6666756E 
 1940      6374696F 
 1940      6E2D7365 
 1941 017f 6D6F6E20 		.ascii	"mon -flto\000"
 1941      2D666C74 
 1941      6F00
 1942              	.LASF17:
 1943 0189 75696E74 		.ascii	"uint32_t\000"
 1943      33325F74 
 1943      00
 1944              	.LASF80:
 1945 0192 73656E74 		.ascii	"sentmsg\000"
 1945      6D736700 
 1946              	.LASF25:
 1947 019a 6576656E 		.ascii	"eventmask_t\000"
ARM GAS  /tmp/cc9IMWxg.s 			page 48


 1947      746D6173 
 1947      6B5F7400 
 1948              	.LASF84:
 1949 01a6 63685F73 		.ascii	"ch_semaphore\000"
 1949      656D6170 
 1949      686F7265 
 1949      00
 1950              	.LASF23:
 1951 01b3 74707269 		.ascii	"tprio_t\000"
 1951      6F5F7400 
 1952              	.LASF57:
 1953 01bb 63685F76 		.ascii	"ch_virtual_timer\000"
 1953      69727475 
 1953      616C5F74 
 1953      696D6572 
 1953      00
 1954              	.LASF13:
 1955 01cc 6C6F6E67 		.ascii	"long long unsigned int\000"
 1955      206C6F6E 
 1955      6720756E 
 1955      7369676E 
 1955      65642069 
 1956              	.LASF5:
 1957 01e3 5F5F7569 		.ascii	"__uint16_t\000"
 1957      6E743136 
 1957      5F7400
 1958              	.LASF26:
 1959 01ee 636E745F 		.ascii	"cnt_t\000"
 1959      7400
 1960              	.LASF91:
 1961 01f4 4D4F4445 		.ascii	"MODER\000"
 1961      5200
 1962              	.LASF98:
 1963 01fa 41465248 		.ascii	"AFRH\000"
 1963      00
 1964              	.LASF99:
 1965 01ff 73746D33 		.ascii	"stm32_gpio_t\000"
 1965      325F6770 
 1965      696F5F74 
 1965      00
 1966              	.LASF86:
 1967 020c 6F776E65 		.ascii	"owner\000"
 1967      7200
 1968              	.LASF49:
 1969 0212 74687265 		.ascii	"threads_queue_t\000"
 1969      6164735F 
 1969      71756575 
 1969      655F7400 
 1970              	.LASF90:
 1971 0222 636C6561 		.ascii	"clear\000"
 1971      7200
 1972              	.LASF41:
 1973 0228 6D74786C 		.ascii	"mtxlist\000"
 1973      69737400 
 1974              	.LASF61:
 1975 0230 63685F76 		.ascii	"ch_virtual_timers_list\000"
 1975      69727475 
ARM GAS  /tmp/cc9IMWxg.s 			page 49


 1975      616C5F74 
 1975      696D6572 
 1975      735F6C69 
 1976              	.LASF28:
 1977 0247 74687265 		.ascii	"thread_t\000"
 1977      61645F74 
 1977      00
 1978              	.LASF76:
 1979 0250 7264796D 		.ascii	"rdymsg\000"
 1979      736700
 1980              	.LASF105:
 1981 0257 6F666673 		.ascii	"offset\000"
 1981      657400
 1982              	.LASF89:
 1983 025e 5F426F6F 		.ascii	"_Bool\000"
 1983      6C00
 1984              	.LASF85:
 1985 0264 63685F6D 		.ascii	"ch_mutex\000"
 1985      75746578 
 1985      00
 1986              	.LASF12:
 1987 026d 5F5F7569 		.ascii	"__uint64_t\000"
 1987      6E743634 
 1987      5F7400
 1988              	.LASF102:
 1989 0278 696F706F 		.ascii	"ioportid_t\000"
 1989      72746964 
 1989      5F7400
 1990              	.LASF94:
 1991 0283 50555044 		.ascii	"PUPDR\000"
 1991      5200
 1992              	.LASF103:
 1993 0289 706F7274 		.ascii	"portid\000"
 1993      696400
 1994              	.LASF30:
 1995 0290 7072696F 		.ascii	"prio\000"
 1995      00
 1996              	.LASF87:
 1997 0295 63686172 		.ascii	"char\000"
 1997      00
 1998              	.LASF44:
 1999 029a 74687265 		.ascii	"thread_reference_t\000"
 1999      61645F72 
 1999      65666572 
 1999      656E6365 
 1999      5F7400
 2000              	.LASF34:
 2001 02ad 77616261 		.ascii	"wabase\000"
 2001      736500
 2002              	.LASF113:
 2003 02b4 5F5F6675 		.ascii	"__func__.6155\000"
 2003      6E635F5F 
 2003      2E363135 
 2003      3500
 2004              	.LASF21:
 2005 02c2 74737461 		.ascii	"tstate_t\000"
 2005      74655F74 
ARM GAS  /tmp/cc9IMWxg.s 			page 50


 2005      00
 2006              	.LASF14:
 2007 02cb 75696E74 		.ascii	"uint8_t\000"
 2007      385F7400 
 2008              	.LASF39:
 2009 02d3 6D736771 		.ascii	"msgqueue\000"
 2009      75657565 
 2009      00
 2010              	.LASF46:
 2011 02dc 63685F74 		.ascii	"ch_thread\000"
 2011      68726561 
 2011      6400
 2012              	.LASF107:
 2013 02e6 62697473 		.ascii	"bits\000"
 2013      00
 2014              	.LASF111:
 2015 02eb 70616C53 		.ascii	"palSetBusMode\000"
 2015      65744275 
 2015      734D6F64 
 2015      6500
 2016              	.LASF63:
 2017 02f9 73797374 		.ascii	"system_debug_t\000"
 2017      656D5F64 
 2017      65627567 
 2017      5F7400
 2018              	.LASF11:
 2019 0308 6C6F6E67 		.ascii	"long long int\000"
 2019      206C6F6E 
 2019      6720696E 
 2019      7400
 2020              	.LASF24:
 2021 0316 6D73675F 		.ascii	"msg_t\000"
 2021      7400
 2022              	.LASF56:
 2023 031c 76697274 		.ascii	"virtual_timer_t\000"
 2023      75616C5F 
 2023      74696D65 
 2023      725F7400 
 2024              	.LASF100:
 2025 032c 696F706F 		.ascii	"ioportmask_t\000"
 2025      72746D61 
 2025      736B5F74 
 2025      00
 2026              	.LASF101:
 2027 0339 696F6D6F 		.ascii	"iomode_t\000"
 2027      64655F74 
 2027      00
 2028              	.LASF104:
 2029 0342 6D61736B 		.ascii	"mask\000"
 2029      00
 2030              	.LASF117:
 2031 0347 70616C52 		.ascii	"palReadBus\000"
 2031      65616442 
 2031      757300
 2032              	.LASF65:
 2033 0352 70616E69 		.ascii	"panic_msg\000"
 2033      635F6D73 
ARM GAS  /tmp/cc9IMWxg.s 			page 51


 2033      6700
 2034              	.LASF115:
 2035 035c 2E2E2F2E 		.ascii	"../../../os/hal/src/hal_pal.c\000"
 2035      2E2F2E2E 
 2035      2F6F732F 
 2035      68616C2F 
 2035      7372632F 
 2036              	.LASF20:
 2037 037a 746D6F64 		.ascii	"tmode_t\000"
 2037      655F7400 
 2038              	.LASF70:
 2039 0382 6D61696E 		.ascii	"mainthread\000"
 2039      74687265 
 2039      616400
 2040              	.LASF93:
 2041 038d 4F535045 		.ascii	"OSPEEDR\000"
 2041      45445200 
 2042              	.LASF15:
 2043 0395 75696E74 		.ascii	"uint16_t\000"
 2043      31365F74 
 2043      00
 2044              	.LASF3:
 2045 039e 73686F72 		.ascii	"short int\000"
 2045      7420696E 
 2045      7400
 2046              	.LASF8:
 2047 03a8 6C6F6E67 		.ascii	"long int\000"
 2047      20696E74 
 2047      00
 2048              	.LASF75:
 2049 03b1 706F7274 		.ascii	"port_intctx\000"
 2049      5F696E74 
 2049      63747800 
 2050              	.LASF67:
 2051 03bd 63685F73 		.ascii	"ch_system\000"
 2051      79737465 
 2051      6D00
 2052              	.LASF92:
 2053 03c7 4F545950 		.ascii	"OTYPER\000"
 2053      455200
 2054              	.LASF62:
 2055 03ce 6C617374 		.ascii	"lasttime\000"
 2055      74696D65 
 2055      00
 2056              	.LASF18:
 2057 03d7 75696E74 		.ascii	"uint64_t\000"
 2057      36345F74 
 2057      00
 2058              	.LASF68:
 2059 03e0 726C6973 		.ascii	"rlist\000"
 2059      7400
 2060              	.LASF4:
 2061 03e6 5F5F7569 		.ascii	"__uint8_t\000"
 2061      6E74385F 
 2061      7400
 2062              	.LASF33:
 2063 03f0 6E616D65 		.ascii	"name\000"
ARM GAS  /tmp/cc9IMWxg.s 			page 52


 2063      00
 2064              	.LASF71:
 2065 03f5 73697A65 		.ascii	"sizetype\000"
 2065      74797065 
 2065      00
 2066              	.LASF22:
 2067 03fe 74726566 		.ascii	"trefs_t\000"
 2067      735F7400 
 2068              	.LASF10:
 2069 0406 6C6F6E67 		.ascii	"long unsigned int\000"
 2069      20756E73 
 2069      69676E65 
 2069      6420696E 
 2069      7400
 2070              	.LASF52:
 2071 0418 72656164 		.ascii	"ready_list_t\000"
 2071      795F6C69 
 2071      73745F74 
 2071      00
 2072              	.LASF29:
 2073 0425 71756575 		.ascii	"queue\000"
 2073      6500
 2074              	.LASF16:
 2075 042b 696E7433 		.ascii	"int32_t\000"
 2075      325F7400 
 2076              	.LASF108:
 2077 0433 5F5F6675 		.ascii	"__func__.6145\000"
 2077      6E635F5F 
 2077      2E363134 
 2077      3500
 2078              	.LASF81:
 2079 0441 77747365 		.ascii	"wtsemp\000"
 2079      6D7000
 2080              	.LASF88:
 2081 0448 6D757465 		.ascii	"mutex_t\000"
 2081      785F7400 
 2082              	.LASF31:
 2083 0450 6E657765 		.ascii	"newer\000"
 2083      7200
 2084              	.LASF2:
 2085 0456 756E7369 		.ascii	"unsigned char\000"
 2085      676E6564 
 2085      20636861 
 2085      7200
 2086              	.LASF97:
 2087 0464 4146524C 		.ascii	"AFRL\000"
 2087      00
 2088              	.LASF9:
 2089 0469 5F5F7569 		.ascii	"__uint32_t\000"
 2089      6E743332 
 2089      5F7400
 2090              	.LASF38:
 2091 0474 77616974 		.ascii	"waiting\000"
 2091      696E6700 
 2092              	.LASF60:
 2093 047c 76697274 		.ascii	"virtual_timers_list_t\000"
 2093      75616C5F 
ARM GAS  /tmp/cc9IMWxg.s 			page 53


 2093      74696D65 
 2093      72735F6C 
 2093      6973745F 
 2094              	.LASF19:
 2095 0492 75696E74 		.ascii	"uint_fast8_t\000"
 2095      5F666173 
 2095      74385F74 
 2095      00
 2096              	.LASF109:
 2097 049f 5F5F6675 		.ascii	"__func__.6150\000"
 2097      6E635F5F 
 2097      2E363135 
 2097      3000
 2098              	.LASF35:
 2099 04ad 73746174 		.ascii	"state\000"
 2099      6500
 2100              	.LASF118:
 2101 04b3 5F70616C 		.ascii	"_pal_lld_setgroupmode\000"
 2101      5F6C6C64 
 2101      5F736574 
 2101      67726F75 
 2101      706D6F64 
 2102              	.LASF66:
 2103 04c9 63685F73 		.ascii	"ch_system_t\000"
 2103      79737465 
 2103      6D5F7400 
 2104              	.LASF79:
 2105 04d5 77747472 		.ascii	"wttrp\000"
 2105      7000
 2106              	.LASF1:
 2107 04db 7369676E 		.ascii	"signed char\000"
 2107      65642063 
 2107      68617200 
 2108              	.LASF58:
 2109 04e7 64656C74 		.ascii	"delta\000"
 2109      6100
 2110              	.LASF6:
 2111 04ed 73686F72 		.ascii	"short unsigned int\000"
 2111      7420756E 
 2111      7369676E 
 2111      65642069 
 2111      6E7400
 2112              	.LASF73:
 2113 0500 73746B61 		.ascii	"stkalign_t\000"
 2113      6C69676E 
 2113      5F7400
 2114              	.LASF54:
 2115 050b 63757272 		.ascii	"current\000"
 2115      656E7400 
 2116              	.LASF110:
 2117 0513 70616C57 		.ascii	"palWriteBus\000"
 2117      72697465 
 2117      42757300 
 2118              	.LASF32:
 2119 051f 6F6C6465 		.ascii	"older\000"
 2119      7200
 2120              	.LASF116:
ARM GAS  /tmp/cc9IMWxg.s 			page 54


 2121 0525 2F686F6D 		.ascii	"/home/awygle/ChibiOS-RT/demos/STM32/RT-STM32F030R8-"
 2121      652F6177 
 2121      79676C65 
 2121      2F436869 
 2121      62694F53 
 2122 0558 4E55434C 		.ascii	"NUCLEO64\000"
 2122      454F3634 
 2122      00
 2123              	.LASF77:
 2124 0561 65786974 		.ascii	"exitcode\000"
 2124      636F6465 
 2124      00
 2125              	.LASF96:
 2126 056a 4C434B52 		.ascii	"LCKR\000"
 2126      00
 2127              	.LASF43:
 2128 056f 6D706F6F 		.ascii	"mpool\000"
 2128      6C00
 2129              		.comm	__gnu_lto_v1,1,1
 2130              		.ident	"GCC: (4.8.3-18ubuntu2+12) 4.8.3"
ARM GAS  /tmp/cc9IMWxg.s 			page 55


DEFINED SYMBOLS
                            *ABS*:0000000000000000 hal_pal.c
     /tmp/cc9IMWxg.s:217    .text.palReadBus:0000000000000000 $t
     /tmp/cc9IMWxg.s:223    .text.palReadBus:0000000000000000 palReadBus
     /tmp/cc9IMWxg.s:244    .text.palWriteBus:0000000000000000 $t
     /tmp/cc9IMWxg.s:250    .text.palWriteBus:0000000000000000 palWriteBus
     /tmp/cc9IMWxg.s:285    .text.palSetBusMode:0000000000000000 $t
     /tmp/cc9IMWxg.s:291    .text.palSetBusMode:0000000000000000 palSetBusMode
                            *COM*:0000000000000001 __gnu_lto_v1
                     .debug_frame:0000000000000010 $d

UNDEFINED SYMBOLS
_pal_lld_setgroupmode
