ARM GAS  /tmp/ccpjYCoh.s 			page 1


   1              		.cpu cortex-m0
   2              		.fpu softvfp
   3              		.eabi_attribute 20, 1
   4              		.eabi_attribute 21, 1
   5              		.eabi_attribute 23, 3
   6              		.eabi_attribute 24, 1
   7              		.eabi_attribute 25, 1
   8              		.eabi_attribute 26, 1
   9              		.eabi_attribute 30, 2
  10              		.eabi_attribute 34, 0
  11              		.eabi_attribute 18, 4
  12              		.code	16
  13              		.file	"nvic.c"
  14              		.text
  15              	.Ltext0:
  16              		.section	.gnu.lto_.jmpfuncs.fa122b7335f5f524,"",%progbits
  17 0000 789C6362 		.ascii	"x\234cb`b\300\006\270\2404\013\0033##\02333#\003\000"
  17      6062C006 
  17      B8A0340B 
  17      03332323 
  17      13333323 
  18 0016 01F00021 		.ascii	"\001\360\000!"
  19              		.text
  20              		.section	.gnu.lto_.inline.fa122b7335f5f524,"",%progbits
  21 0000 789C6362 		.ascii	"x\234cb`b\300\006f@i\026\006\006a!F&\006F \233\021D"
  21      6062C006 
  21      66406916 
  21      06066121 
  21      46260646 
  22 0018 B0F23C88 		.ascii	"\260\362<\210e`[ \317\304 \320P\313\302\300t\201\237"
  22      65605B20 
  22      CFC420D0 
  22      50CBC2C0 
  22      74819F
  23 002b 0344F080 		.ascii	"\003D\360\200\32522\360\363\001U\201\3241s\034\260C"
  23      D53232F0 
  23      F3015581 
  23      D431731C 
  23      B043
  24 003d 52079205 		.ascii	"R\007\222\0052\371Q\214\202+\341\333\220\213n\0243\003"
  24      32F9518C 
  24      822BE1DB 
  24      908B6E14 
  24      3303
  25 004f 3B1BCC28 		.ascii	";\033\314(\240 D\035\333\007=\210Q\014\000\025\315\020"
  25      A020441D 
  25      DB073D88 
  25      510C0015 
  25      CD10
  26 0061 BE       		.ascii	"\276"
  27              		.text
  28              		.section	.gnu.lto_.pureconst.fa122b7335f5f524,"",%progbits
  29 0000 789C6362 		.ascii	"x\234cb`b\340d\200\000\026\006)F)&)f)\000\002\326\000"
  29      6062E064 
  29      80001606 
  29      29462926 
  29      29662900 
ARM GAS  /tmp/ccpjYCoh.s 			page 2


  30 0017 80       		.ascii	"\200"
  31              		.text
  32              		.section	.gnu.lto_nvicEnableVector.fa122b7335f5f524,"",%progbits
  33 0000 789C9D53 		.ascii	"x\234\235S=hSQ\024>\347\276\367\222\227\246\211i\002"
  33      3D685351 
  33      143EE7BE 
  33      F79297A6 
  33      896902
  34 0013 62278B2E 		.ascii	"b'\213.B\361=\235\034\234\244s\027i\241\216i\206\030"
  34      42F13D9D 
  34      1C9CA473 
  34      1769A18E 
  34      698618
  35 0026 3089D822 		.ascii	"0\211\330\"n\271\361f\262\0352\270X\035\372C\021\212"
  35      6EB9F166 
  35      B21D32B8 
  35      581DFA43 
  35      118A
  36 0038 B6E0562A 		.ascii	"\266\340V*R\272u\250\342&(\022tS\220bA\035\204\3479"
  36      52BA75A8 
  36      E2262812 
  36      74539062 
  36      411D84E7 
  37 004d F7E65E89 		.ascii	"\367\346^\211\024A/\311wo\316w\356w\276s\336\213\000"
  37      14412FC9 
  37      776FCE77 
  37      EE77BE73 
  37      DE8B00
  38 0060 017FAE51 		.ascii	"\001\177\256Q\372\256z\000\027iG\017Pt_\002\264C\201"
  38      FAAE7A00 
  38      1769470F 
  38      50745F02 
  38      B44381
  39 0073 C8074068 		.ascii	"\310\007@h\011l]CN\3053\260\"e\267\267\376\341\207x"
  39      096C5D43 
  39      4EC533B0 
  39      2265B7B7 
  39      FEE18778 
  40 0087 707FB7B3 		.ascii	"p\177\267\263,\177&\011b\015I6B\250 \314\320\017\034"
  40      2C7F2609 
  40      620D4936 
  40      42A820CC 
  40      D00F1C
  41 009a D39BF007 		.ascii	"\323\233\360\007\353l\211\335^\222<z\265\364\376\024"
  41      EB6C89DD 
  41      5E923C7A 
  41      B5F4FE14 
  42 00aa 9E44ACF3 		.ascii	"\236D\254\363\245\032z>C\300\220bH\023@H\340g\030\206"
  42      A51A7A3E 
  42      43C09062 
  42      48134048 
  42      E0671886 
  43 00be 3896A564 		.ascii	"8\226\245d\034\346S\216!\317P`\030\2012\256\220\251"
  43      1CE6538E 
  43      21CF5060 
  43      188132AE 
  43      90A9
ARM GAS  /tmp/ccpjYCoh.s 			page 3


  44 00d0 225F2A71 		.ascii	"\"_*q>\325\011\240C\036\307\200\355\320\232\"\344F\246"
  44      3ED509A0 
  44      431EC780 
  44      EDD09A22 
  44      E446A6
  45 00e3 51F0EE1D 		.ascii	"Q\360\356\035\200\332TG\037\3752\256a\000U\024U\304"
  45      80DA5447 
  45      1FFD32AE 
  45      61005514 
  45      55C4
  46 00f5 19D302C0 		.ascii	"\031\323\002\300\001\354\275;,Z\312?\017Od\207\270`"
  46      01ECBD3B 
  46      2C5ACA3F 
  46      0F4F6487 
  46      B860
  47 0107 1C3664A7 		.ascii	"\0346d\247-[5L=\204%\212\244\371J(\367\224\314\353f"
  47      2D5B354C 
  47      3D84258A 
  47      A4F94A28 
  47      F794CCEB 
  48 011c 43DDE22C 		.ascii	"C\335\342,\232VI\325\265M\365v\3247\317j\006\375r\236"
  48      9A5649D5 
  48      B54DF576 
  48      D437CF6A 
  48      06FD729E 
  49 0130 67B87B8E 		.ascii	"g\270{\216I\021\251\231P3w\277\250O\216K\023\255\323"
  49      4911A999 
  49      503377BF 
  49      A84F8E4B 
  49      13ADD3
  50 0143 9FBA50C8 		.ascii	"\237\272P\310\271~\202\314\352\374\347j\303\221\231"
  50      B97E82CC 
  50      EAFCE76A 
  50      C39199
  51 0152 2A3BD2A5 		.ascii	"*;\322\245W]p\210:\"\312\350\250\357o\0351\\\305\254"
  51      575D7088 
  51      3A22CAE8 
  51      A8EF6F1D 
  51      315CC5AC 
  52 0166 1E410AFA 		.ascii	"\036A\012\372\3443\307\3454\255+\250mu\364y\324\022"
  52      E433C7E5 
  52      34AD2BA8 
  52      6D75F479 
  52      D412
  53 0178 792D98D3 		.ascii	"y-\230\3233\333\357\346MX\017\254-/\375\036\331\211"
  53      33DBEFE6 
  53      4D580FAC 
  53      2D2FFD1E 
  53      D989
  54 018a 7F1E1949 		.ascii	"\177\036\031I\353j\233\352\361\3429[\255`\237R`\207"
  54      EB6A9BEA 
  54      F1E2395B 
  54      AD609F52 
  54      6087
  55 019c F3022D37 		.ascii	"\363\002-7B\234i\326\271.RT\247\237\266\035}u\351%="
  55      429C69D6 
  55      B92E5254 
ARM GAS  /tmp/ccpjYCoh.s 			page 4


  55      A79FB61D 
  55      7D75E925 
  56 01b1 389E5BD1 		.ascii	"8\236[\321\230?\314\016\230\277<`>\363w\363\330\267"
  56      983FCC0E 
  56      98BF3C60 
  56      3EF377F3 
  56      D8B7
  57 01c3 5C70E64B 		.ascii	"\\p\346KF\364\015\375E\376_V\034'\373\032\332\275\205"
  57      46F40DFD 
  57      45FE5F56 
  57      1C27FB1A 
  57      DABD85
  58 01d6 B346D4AE 		.ascii	"\263F\324\256)r@o5\347\217GQl>\315\271\370z\371F|\263"
  58      2972406F 
  58      35E78F47 
  58      516C3ECD 
  58      B9F87AF9 
  59 01ed 796B7E2E 		.ascii	"yk~.\2564\353\365f#\276rurb\362N\334\270]\253D\025\360"
  59      AE34EBF5 
  59      6623BE72 
  59      757262F2 
  59      4EDCB85D 
  60 0205 1AD1855F 		.ascii	"\032\321\205_&\237\332J"
  60      269FDA4A 
  61              		.text
  62              		.section	.gnu.lto_nvicDisableVector.fa122b7335f5f524,"",%progbits
  63 0000 789C9552 		.ascii	"x\234\225R1h\024A\024\375of7\356\345.w\304\316\312\240"
  63      31681441 
  63      14FD6F66 
  63      37EEE52E 
  63      77C4CECA 
  64 0015 4D20B84B 		.ascii	"M \270K\252\024\251\304R\322H\004-\317+\342\202w\027"
  64      AA14A9C4 
  64      52D24804 
  64      2DCF2BE2 
  64      827717
  65 0028 8C888D64 		.ascii	"\214\210\215d/si\344\212+lL\032\203`q\304(X*\022\256"
  65      2F7369E4 
  65      8A2B6C4C 
  65      1A836071 
  65      C428582A 
  66 003e B388686F 		.ascii	"\263\210hoqX\030H\021$6\001\305\365\377\331\233\015"
  66      71581848 
  66      11243601 
  66      C5F5FFD9 
  66      9B0D
  67 0050 97229061 		.ascii	"\227\"\220a\367\317\314{\177\376\373\363v\025):=.\361"
  67      F7CFCC7B 
  67      7FFEFBF3 
  67      7615293A 
  67      3D2EF1
  68 0063 7BC0F02C 		.ascii	"{\300\360,\317\320\004\325\375B\324\012\024 \013\002"
  68      CFD004D5 
  68      FD42D40A 
  68      14200B02 
  69 0073 AD2AACDE 		.ascii	"\255*\254\336\205\244\342\012m%Iw\260\276\177\254^<"
  69      85A4E20A 
ARM GAS  /tmp/ccpjYCoh.s 			page 5


  69      6D254977 
  69      B0BE7FAC 
  69      5E3C
  70 0085 DF6DBF4C 		.ascii	"\337m\277L\376\246)\020\203\313\206\240\032\350\016"
  70      FEA62910 
  70      83CB86A0 
  70      1AE80E
  71 0094 6F306527 		.ascii	"o0e'\345\215\352\274U\273\2034\335~\377\356G\017\223"
  71      E58DEABC 
  71      55BB8334 
  71      DD7EFFEE 
  71      470F93
  72 00a7 93405D4E 		.ascii	"\223@]N\305\320\232\252\330\342\312\036o\310\347\340"
  72      C5D09AAA 
  72      D8E2CA1E 
  72      6FC8E7E0 
  73 00b7 05021724 		.ascii	"\005\002\027$\214K(J(\011;!lYBE0.\352S\233\033\232\""
  73      8C4B284A 
  73      28093B21 
  73      6C594245 
  73      302EEA53 
  74 00cf D1E6B1C8 		.ascii	"\321\346\261\310Q\272\276\015%\263\336#\263c~w\246\253"
  74      51BABE0D 
  74      25B3DE23 
  74      B3637E77 
  74      A6AB
  75 00e1 78059F96 		.ascii	"x\005\237\226\240\226\000\351\215\317\021\355\321\332"
  75      A09600E9 
  75      8DCF11ED 
  75      D1DA
  76 00ef A1F904C7 		.ascii	"\241\371\004\307i\346\0044\037\264\203<Fm\372e\233n"
  76      69E60434 
  76      1FB4833C 
  76      466DFA65 
  76      9B6E
  77 0101 DE98A33C 		.ascii	"\336\230\243<\335\027\302\203d\011\327\377\374\253\230"
  77      DD17C283 
  77      6409D7FF 
  77      FCAB98
  78 0110 51D7683B 		.ascii	"Q\327h;i\267\222\371\030\376\014\365dY\2111\266I\033"
  78      69B792F9 
  78      18FE0CF5 
  78      64598931 
  78      B6491B
  79 0123 9C7F410E 		.ascii	"\234\177A\016\005I\337$e\353Q`\235\271\207\314!\356"
  79      0549DF24 
  79      65EB5160 
  79      9DB987CC 
  79      21EE
  80 0135 8FDCCAB7 		.ascii	"\217\334\312\267\202;\346O\347\246S\014\\\363\312v\323"
  80      823BE64F 
  80      E7A6530C 
  80      5CF3CA76 
  80      D3
  81 0146 FFFEF5A2 		.ascii	"\377\376\365\242\243\012V\024'\222Oc\024\316\226\304"
  81      A30A5614 
  81      27924F63 
ARM GAS  /tmp/ccpjYCoh.s 			page 6


  81      14CE96C4 
  82 0156 5028C83F 		.ascii	"P(\310?\220\\\335\034\345\227\037\037\312i\235q\317"
  82      905CDD1C 
  82      E5971F1F 
  82      CA699D71 
  82      CF
  83 0167 72A6C8A4 		.ascii	"r\246\310\244e\002\347\342\317\234+1\235y\225C\023\326"
  83      6502E7E2 
  83      CF9C2B31 
  83      9D799543 
  83      13D6
  84 0179 A954AC2A 		.ascii	"\251T\254*\331\374\217\346uN\226\231\037J\377S\016\254"
  84      D9FC8FE6 
  84      754E9699 
  84      1F4AFF53 
  84      0EAC
  85 018b F08D98CA 		.ascii	"\360\215\230\312|\355\226G|\235\033\361\365\234\227"
  85      7CED9647 
  85      7C9D1BF1 
  85      F59C97
  86 019a E4D244DF 		.ascii	"\344\322D\337\2505\350]\315\212\272\261\310\251\374"
  86      A835E85D 
  86      CD8ABAB1 
  86      C8A9FC
  87 01a9 C388B333 		.ascii	"\303\210\2633a\030eOs%\272_}\020-7\037>Z\211j\315z\275"
  87      6118654F 
  87      7325BA5F 
  87      7D102D37 
  87      1F3E5A89 
  88 01c1 D988AEDF 		.ascii	"\331\210\256\337Z\270\261\360$j<\216ka\215t#\234\375"
  88      5AB8B1F0 
  88      246A3C8E 
  88      6B618D74 
  88      239CFD
  89 01d4 0F6CF6B2 		.ascii	"\017l\366\262-"
  89      2D
  90              		.text
  91              		.section	.gnu.lto_nvicSetSystemHandlerPriority.fa122b7335f5f524,"",%progbits
  92 0000 789C9591 		.ascii	"x\234\225\221=K\003A\020\206g\366\362\375\215\205`'"
  92      3D4B0341 
  92      108667F6 
  92      F2FD8D85 
  92      6027
  93 0012 A40CC995 		.ascii	"\244\014\311\225\326b'\244\221\010\212UL\021\003&\021"
  93      D66227A4 
  93      91088A55 
  93      4C110326 
  93      11
  94 0023 2362978B 		.ascii	"#b\227\213\027D\004%\265\251\324N4\326\242\205Z\010"
  94      17440425 
  94      B5A9D44E 
  94      34D6A285 
  94      5A08
  95 0035 290CDA8A 		.ascii	")\014\332\212E\360\007\004\013\013\2619g\346r+\330\271"
  95      45F00704 
  95      0B0BB139 
  95      67E6722B 
ARM GAS  /tmp/ccpjYCoh.s 			page 7


  95      D8B9
  96 0047 DCBDBBCC 		.ascii	"\334\275\273\31433;\367\236\002\005\177\327\024\275"
  96      33333BF7 
  96      9E02057F 
  96      D714BD
  97 0056 6D0A6769 		.ascii	"m\012giG\003Pu\006\000\255\220B\344\003 4\0256\227Q"
  97      47035075 
  97      0600AD90 
  97      42E40320 
  97      34153697 
  98 006b 72AFD4DD 		.ascii	"r\257\324\335\320qz\237{\217\3678HO V\221:V\020\014"
  98      D0717A9F 
  98      7B8FF738 
  98      484F2056 
  98      913A5610 
  99 0080 161F4B80 		.ascii	"\026\037K\200%\310\022b\011\223`\204DEYb\034\213S\031"
  99      25C81262 
  99      09936084 
  99      44455962 
  99      1C8B5319 
 100 0094 26F89464 		.ascii	"&\370\224dI\261\320\362C\333\262:\323U\244aJ\022)\220"
 100      49B1D0F2 
 100      43DBB23A 
 100      D355A461 
 100      4A122990 
 101 00a8 F2108B14 		.ascii	"\362\020\213\024\242\335x\002\373\306v\016W\212x\202"
 101      A2DD7802 
 101      FBC6760E 
 101      578A7882 
 102 00b8 7E28A32A 		.ascii	"~(\243*#.\241\364\001 \270ox\304 (\344\313q\2341\355"
 102      232EA1F4 
 102      0120B86F 
 102      78C42028 
 102      E4CB719C 
 103 00ce 69EAA304 		.ascii	"i\352\243\004\246|\023\221\207\267\347I\017\005\262"
 103      A67C1391 
 103      87B7E749 
 103      0F05B2
 104 00dd 7061B589 		.ascii	"pa\265\211\031\0318\267\332-\253Kg_\027\216i\363sM\300"
 104      191938B7 
 104      DA2DAB4B 
 104      675F178E 
 104      69F3734D 
 105 00f2 7AB5AD04 		.ascii	"z\265\255\004\310Q<Yu\255\341\266\332S\031t\024\363"
 105      C8513C59 
 105      75ADE1B6 
 105      DA531974 
 105      14F3
 106 0104 9A06BD39 		.ascii	"\232\006\2759\015\227\035\350IB\004\205\204\204\354"
 106      0D971DE8 
 106      49420485 
 106      8484EC
 107 0113 8EEC775D 		.ascii	"\216\354w]\025&,\351\227:=\302\271\312A\246\222\177"
 107      15262CE9 
 107      973A3DC2 
 107      B9CA41A6 
 107      927F
ARM GAS  /tmp/ccpjYCoh.s 			page 8


 108 0125 6B9FEAFC 		.ascii	"k\237\352\374(\361\361\325\337\272\"F\237D\310\355c"
 108      28F1F1D5 
 108      DFBA2246 
 108      9F44C8ED 
 108      63
 109 0136 9F1DCD7B 		.ascii	"\237\035\315{ Q\306\270x\020\2001\034\351\242\244`\271"
 109      2051C6B8 
 109      78108031 
 109      1CE9A2A4 
 109      60B9
 110 0148 C1BE26C3 		.ascii	"\301\276&\303\373\232\244\244cR\\\353\177$\335\260X"
 110      FB9AA4A4 
 110      63525CEB 
 110      7F24DDB0 
 110      58
 111 0159 D6B2667E 		.ascii	"\326\262f~M\213\377\3333j\015\360\002\255\341 \3556"
 111      4D8BFFDB 
 111      336A0DF0 
 111      02ADE120 
 111      ED36
 112 016b F5560191 		.ascii	"\365V\001\221\377=\377\251L.g\272O\275a\256\025\327"
 112      FF3DFFA9 
 112      4C2E67BA 
 112      4FBD61AE 
 112      15D7
 113 017d CD8DFAE6 		.ascii	"\315\215\372\346V\303,\325\253\325z\315\234]\310\317"
 113      56C32CD5 
 113      ABD57ACD 
 113      9C5DC8CF 
 114 018d E577CCDA 		.ascii	"\345w\314\332v\245\224+\301\017\302!\234)"
 114      76A5942B 
 114      C10FC221 
 114      9C29
 115              		.text
 116              		.section	.gnu.lto_nvicClearPending.fa122b7335f5f524,"",%progbits
 117 0000 789C5D50 		.ascii	"x\234]P1H\303P\020\275\367\177\322\352\2428:Yt\021\212"
 117      3148C350 
 117      10BDF77F 
 117      D2EAA238 
 117      3A597411 
 118 0015 09BA3A89 		.ascii	"\011\272:\211\223C\027\251\240c\315P\003\266\021+\342"
 118      934317A9 
 118      A063CD50 
 118      03B6112B 
 118      E2
 119 0026 D65FD359 		.ascii	"\326_\323Y:\270\250\213\305M\252\356v)\335+\272;\024"
 119      3AB8A88B 
 119      C54DAAEE 
 119      7629DD2B 
 119      BA3B14
 120 0039 41280EAE 		.ascii	"A(\016\256.B\274KLA\217\237\177\367\337\275{w9E\212"
 120      2E42BC4B 
 120      4C418F9F 
 120      7FF7DFBD 
 120      7B773945 
 121 004e FEDB2C7F 		.ascii	"\376\333,\177\006D\313\354\241\011\252\365D\324\230"
 121      0644CBEC 
ARM GAS  /tmp/ccpjYCoh.s 			page 9


 121      A109AAF5 
 121      44D498
 122 005d 50800404 		.ascii	"P\200\004\004\252+\324w T\314S\333\230\326\360\375\353"
 122      AA2BD477 
 122      2054CC53 
 122      DB98D6F0 
 122      FDEB
 123 006f 595F9CF7 		.ascii	"Y_\234\367\232\327\346;\212\000\037,\353\200<\3206?"
 123      9AD7E63B 
 123      8A001F2C 
 123      EB803CD0 
 123      363F
 124 0081 908B9DB2 		.ascii	"\220\213\235\262\376\366yP\275a\024\275v;o#\314L\002"
 124      FEF67950 
 124      BD6114BD 
 124      763B6F23 
 124      CC4C02
 125 0094 15A9F2A1 		.ascii	"\025\251\362\2415\225\320fe\213\037d\313\225\021\230"
 125      3595D066 
 125      658B1F64 
 125      CB951198 
 126 00a4 2B6C6A72 		.ascii	"+ljr\267\034\2110[\221o\031i\013J\274\036Px\037Fg\213"
 126      B71C8930 
 126      5B916F19 
 126      690B4ABC 
 126      1E50781F 
 127 00bb 25DCC0A6 		.ascii	"%\334\300\2462T\031\220\306\\G4\240\323\317\360\003"
 127      32541990 
 127      C65C4734 
 127      A0D3CFF0 
 127      03
 128 00cc 694E734E 		.ascii	"iNsN\300\260\253S\310b4\246\317\305\364\360n\234\261"
 128      C0B0AB53 
 128      C86234A6 
 128      CFC5F4F0 
 128      6E9CB1
 129 00df 6318C2F9 		.ascii	"c\030\302\371\025z\034\013e8-`\177#A\226\250c\232\015"
 129      157A1C0B 
 129      65382D60 
 129      7F234196 
 129      A8639A0D 
 130 00f3 B3EAC3CA 		.ascii	"\263\352\303\312\323\255\204\323>\354+\272d\211\214"
 130      D3AD84D3 
 130      3EEC2BBA 
 130      64898C
 131 0102 E8644D3F 		.ascii	"\350dM?4S\361F\262\361\036v\221\354\203\007\2464\312"
 131      3453F146 
 131      B2F11E76 
 131      91EC8307 
 131      A634CA
 132 0115 10BD5063 		.ascii	"\020\275Pc8ZHDS+\362\320\374\247\302\313;\216\233\234"
 132      385A4844 
 132      532BF2D0 
 132      FCA7C2CB 
 132      3B8E9B9C 
 133 0129 A0E6EE95 		.ascii	"\240\346\356\225\366\335\203\340\360\250\346zA\245\022"
 133      F6DD83E0 
ARM GAS  /tmp/ccpjYCoh.s 			page 10


 133      F0A8E67A 
 133      41A512
 134 0138 54DDB5CD 		.ascii	"T\335\265\315\302z\341\304\255\036\373\236\343\221\256"
 134      C27AE1C4 
 134      AD1EFB9E 
 134      E391AE
 135 0147 3A2B3F72 		.ascii	":+?r\207f\302"
 135      8766C2
 136              		.text
 137              		.section	.gnu.lto_.symbol_nodes.fa122b7335f5f524,"",%progbits
 138 0000 789C6362 		.ascii	"x\234cb`b\260c\200\002\246\315\214\365\014\014\023\316"
 138      6062B063 
 138      8002A6CD 
 138      8CF50C0C 
 138      13CE
 139 0012 3130D4D7 		.ascii	"10\324\327\317\353`d\332\302X\317\210\304\335\312X\317"
 139      CFEB6064 
 139      DAC258CF 
 139      88C4DDCA 
 139      58CF
 140 0024 84C4DDC6 		.ascii	"\204\304\335\306X\317\214\3402\000\000ZV\023/"
 140      58CF8CE0 
 140      3200005A 
 140      56132F
 141              		.text
 142              		.section	.gnu.lto_.refs.fa122b7335f5f524,"",%progbits
 143 0000 789C6362 		.ascii	"x\234cb`b`d\200\002\000\000F\000\006"
 143      60626064 
 143      80020000 
 143      460006
 144              		.text
 145              		.section	.gnu.lto_.decls.fa122b7335f5f524,"",%progbits
 146 0000 789CAD58 		.ascii	"x\234\255X}lSU\024\277\347\265\333Z\230s#\221\314\004"
 146      7D6C5355 
 146      14BFE7B5 
 146      DB5A9873 
 146      2391CC04 
 147 0014 A4183106 		.ascii	"\244\0301\006t\345C\375\023\301\262\270&B\226V\300\370"
 147      74E543FD 
 147      13C1B2B8 
 147      26429656 
 147      C0F8
 148 0026 4F73E91E 		.ascii	"Os\351\036\256I\327\222\266SH\374\343\216\001N\202q"
 148      AE49D792 
 148      B65348FC 
 148      E38E014E 
 148      8271
 149 0038 A028C104 		.ascii	"\240(\301\004\007v\010\211 \031\037\031\013\216f\340"
 149      07760889 
 149      20191F19 
 149      0B8E66E0 
 150 0048 04013390 		.ascii	"\004\0013\220\000\231\213)\206\000b\220\304@\220(\326"
 150      00998B29 
 150      86006290 
 150      C4409028 
 150      D6
 151 0059 F3EE7BAF 		.ascii	"\363\356{\257\357c\357m\257\304\227\235\323\333\367"
ARM GAS  /tmp/ccpjYCoh.s 			page 11


 151      EF63EF6D 
 151      AFC4979D 
 151      D3DBF7
 152 0068 CEF9DDDF 		.ascii	"\316\371\335\337\357\274\373\316}\235@\004\322\001\204"
 152      EFBCFBCE 
 152      7D9D4004 
 152      D20184
 153 0077 14F0C8D7 		.ascii	"\024\360\310\327\020r\032\307e\204\220\371D;\334h;\321"
 153      10721AC7 
 153      658490F9 
 153      443BDC68 
 153      3BD1
 154 0089 7AD07AD1 		.ascii	"z\320z\321\372\311\350C\272>A\211\255B\253D\253 2\326"
 154      FAC9E843 
 154      BA3E4189 
 154      AD42AB44 
 154      AB2032D6 
 155 009d 00DA09B4 		.ascii	"\000\332\011\264A\264\353hg\321\\h\327\320F\320\316"
 155      41B4EB68 
 155      67D15C68 
 155      D7D046D0 
 155      CE
 156 00ae A0818221 		.ascii	"\240\201\202!\240\355C\373\306\204\3373\016\376Y\035"
 156      A0ED43FB 
 156      C684DF33 
 156      0EFE591D 
 157 00be FE0905E7 		.ascii	"\376\011\005\347\2422\007(\371\322\347\021\023n\257"
 157      A2320728 
 157      F9D2E711 
 157      136EAF
 158 00cd 8253A160 		.ascii	"\202S\241`\253x7\320nI9 \347=T\362{\025\356}h\307\244"
 158      AB7837D0 
 158      6E493920 
 158      E73D54F2 
 158      7B15EE7D 
 159 00e4 79C08827 		.ascii	"y\300\210'\325\306c\301\323\314\021\024\355\240\344"
 159      D5C663C1 
 159      D3CC1114 
 159      EDA0E4
 160 00f3 489F3913 		.ascii	"H\2379\023\267id\007\353\312\347\273w\234\001\266\205"
 160      B7696407 
 160      EBCAE7BB 
 160      779C01B6 
 160      85
 161 0104 FD5328B8 		.ascii	"\375S(\270\310d\262\225\341\321\265\2011\310P\230\377"
 161      C864B295 
 161      E1D1B581 
 161      31C85098 
 161      FF
 162 0115 04791328 		.ascii	"\004y\023(Ty\211\217\017*\275|bB(\354\202\311|\344\342"
 162      5479898F 
 162      0F2ABD7C 
 162      624228EC 
 162      82C97CE4 
 163 012a A5205ED2 		.ascii	"\245 ^\322\301\330Z)\261\341\024\362\262\312\232A\262"
 163      C1D85A29 
 163      B1E114F2 
ARM GAS  /tmp/ccpjYCoh.s 			page 12


 163      B2CA9A41 
 163      B2
 164 013b 8C75E6BF 		.ascii	"\214u\346\277\335\273\351y\306<\024\262\340\305\334"
 164      DDBBE979 
 164      C63C14B2 
 164      E0C5DC
 165 014a D781CC24 		.ascii	"\327\201\314${q\316N\306v\3152\251%\245A?\030<\271\031"
 165      7B71CE4E 
 165      C676CD32 
 165      A925A541 
 165      3F183CB9 
 166 015f DA913A85 		.ascii	"\332\221:\205=\034|#\226\227\302W0S\201\242P\341\325"
 166      3D1C7C23 
 166      9697C257 
 166      305381A2 
 166      50E1D5
 167 0172 43F3EF6A 		.ascii	"C\363\357j\200\204\307/+\003i\311>NJ\015W\352!\313\343"
 167      8084C72F 
 167      2B0369C9 
 167      3E4E4A0D 
 167      57EA21CB 
 168 0187 83A5AE22 		.ascii	"\203\245\256\"\200@\266\232\030=C\276dl\013\336\203"
 168      8040B69A 
 168      183D43BE 
 168      646C0BDE 
 168      83
 169 0198 EC93AC4B 		.ascii	"\354\223\254KP\213\262\233G\355\204i\226j\025l9\225"
 169      508BB29B 
 169      47ED8469 
 169      966A156C 
 169      3995
 170 01aa 1D151BD4 		.ascii	"\035\025\033\324\264=N\322\010y\226tK7\371C\266\276"
 170      B43D4ED2 
 170      08799674 
 170      4B37F943 
 170      B6BE
 171 01bc 1AF83D26 		.ascii	"\032\370=&J\226A\352\327 \214^,\271C\203\225\235m\371"
 171      4A9641EA 
 171      D7208C5E 
 171      2CB94383 
 171      959D6DF9 
 172 01d0 42619AF3 		.ascii	"Ba\232\363\225r\320\270Rd\032\246\262\354\263,\013\373"
 172      9572D0B8 
 172      52641AA6 
 172      B2ECB32C 
 172      0BFB
 173 01e2 58D54661 		.ascii	"X\325Fa?\322\241\320\363H\332z\314\332\016[j\273\253"
 173      3FD2A1D0 
 173      F348DA7A 
 173      CCDA0E5B 
 173      6ABBAB
 174 01f5 6A9357B7 		.ascii	"j\223W\267@\216[\263\322U|\204G\364:\272Q\01751\007"
 174      408E5BB3 
 174      D2557C84 
 174      47F43ABA 
 174      510F3531 
 175 020a B89871D2 		.ascii	"\270\230q\322l\304\364\232\305\034\265\024\323\367}"
ARM GAS  /tmp/ccpjYCoh.s 			page 13


 175      6CC4F49A 
 175      C51CB514 
 175      D3F77D
 176 0219 51CC412E 		.ascii	"Q\314A.\346\232\265\230\315\346\022\367?\022\253~3\253"
 176      E69AB598 
 176      CDE612F7 
 176      3F12AB7E 
 176      33AB
 177 022b E34656FC 		.ascii	"\343FV\374!n\037\363!\246\320\0153\034=c5\244Sb\340"
 177      216E1FF3 
 177      21A6D00D 
 177      331C3D63 
 177      35A45362 
 178 0240 3B554561 		.ascii	";UEa\000I)hLP\341||N}X\326>\214\302I\250\321H2\205$"
 178      00492968 
 178      4C50E17C 
 178      7C4E7D58 
 178      D63E8CC2 
 179 025b 8FB05BD3 		.ascii	"\217\260[\323\337\311\245PO\027\007\025\206\032\250"
 179      DFC9A550 
 179      4F170715 
 179      861AA8
 180 026a 516412D9 		.ascii	"Qd\022\331\2540)Jgs\325\234\256rR\354`?\177t\277\236"
 180      AC30294A 
 180      6773D59C 
 180      AE7252EC 
 180      603F7F74 
 181 0280 37C74198 		.ascii	"7\307A\230$\365\001\301x\317\306\307\221\246=\215\271"
 181      24F501C1 
 181      78CFC6C7 
 181      91A63D8D 
 181      B9
 182 0291 72164765 		.ascii	"r\026Ge\271\303\227+\231[>O\014x\206c:\351b\353\332"
 182      B9C3972B 
 182      995B3E4F 
 182      0C788663 
 182      3AE962EB 
 183 02a6 72473FDB 		.ascii	"rG?\333\212\255h\000\224\352u\225\233\252l\252\205!"
 183      8AAD6800 
 183      94EA7595 
 183      9BAA6CAA 
 183      8521
 184 02b8 2C6B1B46 		.ascii	",k\033F\341\\\311E\376\321\246\310\306\205\246Fa\271"
 184      E15CC945 
 184      FED1A6C8 
 184      C685A646 
 184      61B9
 185 02ca 0EF07249 		.ascii	"\016\360rI2\255 \015\331J\200N:\326\251oy'\265Y4\371"
 185      32AD200D 
 185      D94A804E 
 185      3AD6A96F 
 185      7927B559 
 186 02e0 0A35FF3D 		.ascii	"\0125\377=e\336\363%\353\271`\243\347)\242\0128l\026"
 186      65DEF325 
 186      EBB960A3 
 186      E729A20A 
 186      386C16
ARM GAS  /tmp/ccpjYCoh.s 			page 14


 187 02f3 609CD64A 		.ascii	"`\234\326J\201\317p\363\216]\256\354\244\024\316\"7"
 187      81CF70F3 
 187      8E5DAEEC 
 187      A414CE22 
 187      37
 188 0304 6C5F4ECA 		.ascii	"l_N\312\301\300\276\036\375\313%\260\363\034\354\244"
 188      C1C0BE1E 
 188      FDCB25B0 
 188      F31CECA4 
 189 0314 236A4634 		.ascii	"#jF4#\267!=\267s\216\270\011\366\334.\350\270]p\306"
 189      23B7213D 
 189      B7738EB8 
 189      09F6DC2E 
 189      E8B85D70 
 190 0329 4DB0E776 		.ascii	"M\260\347vQ\317m\304\0217\227=\267K:nW\235qs\331pC\264"
 190      51CF6DC4 
 190      1137973D 
 190      B74B3A6E 
 190      579D7173 
 191 0341 2BF6AB92 		.ascii	"+\366\253\222U\233\304Q\270Z\362\262\374\325fY\276R"
 191      559BC451 
 191      B85AF2B2 
 191      FCD56659 
 191      BE52
 192 0353 5C96BF9B 		.ascii	"\\\226\277\2335\230\346U\307n\233\222`\201\207yIN\360"
 192      3598E655 
 192      C76E9B92 
 192      60818779 
 192      494EF0
 193 0366 92DC1B05 		.ascii	"\222\334\033\005g\350\310*Z\271\005\232\325\241ox\024"
 193      67E8C82A 
 193      5AB9059A 
 193      D5A16F78 
 193      14
 194 0377 7EE07BC8 		.ascii	"~\340{\310\031\230\216~\210\373\213\334_\342\376\012"
 194      19988E7E 
 194      88FB8BDC 
 194      5FE2FE0A 
 195 0387 F7C3DC8F 		.ascii	"\367\303\334\217p\377\013\367y\356\257\241/\036\023"
 195      70FF0BF7 
 195      79EEAFA1 
 195      2F1E13
 196 0396 C946EDB5 		.ascii	"\311F\355\265Sn\310v\025\274\016\023\325,\265\035.0"
 196      536EC876 
 196      15BC0E13 
 196      D52CB51D 
 196      2E30
 197 03a8 75CD056A 		.ascii	"u\315\005j\216gtX\3266\214\302\315\222o\347o6\267S\377"
 197      8E677458 
 197      D6368CC2 
 197      CD926FE7 
 197      6F36B753 
 198 03bd 6AAD4559 		.ascii	"j\255EYm)\271\342\355x\216\250;S\356\3740\370(\334\342"
 198      6D29B9E2 
 198      ED788EA8 
 198      3B53EEFC 
 198      30F828DC 
ARM GAS  /tmp/ccpjYCoh.s 			page 15


 199 03d2 DBD25FE3 		.ascii	"\333\322_\343oKF\014i\306\333\346]\351\363a\276+\335"
 199      6F4B460C 
 199      69C6DBE6 
 199      5DE9F361 
 199      BE2BDD
 200 03e5 1E7F57FA 		.ascii	"\036\177W\372\244=\367\305vyW*\276G\344\376\207\367"
 200      A43DF7C5 
 200      7679572A 
 200      BE47E4FE 
 200      87F7
 201 03f7 0881B4B9 		.ascii	"\010\201\264\271@\241\366\010;\306\272\366\334\201a"
 201      40A1F608 
 201      3BC6BAF6 
 201      DC8161
 202 0406 DE3706F8 		.ascii	"\3367\006\370\313\340\373%\203\37140\2666\327#\203\311"
 202      CBE0FB25 
 202      83F93430 
 202      B636D723 
 202      83C9
 203 0418 2F633FF1 		.ascii	"/c?\361\227\261q\300<\366\314\016\351\231mr\302\314"
 203      97B171C0 
 203      3CF6CC0E 
 203      E9996D72 
 203      C2CC
 204 042a 63C30CC1 		.ascii	"c\303\014\301\216\350\301\2668\001\253\266g\326\253"
 204      8EE8C1B6 
 204      3801ABB6 
 204      67D6AB
 205 0439 07FBB464 		.ascii	"\007\373\264d0c\315\372\264\232\011d\273\023\260Z;f"
 205      3063CDFA 
 205      B49A0964 
 205      BB13B05A 
 205      3B66
 206 044b B87BBE25 		.ascii	"\270{\276%a\335\340M*k\3062<\232VX\306\222\365\353U"
 206      61DDE04D 
 206      2A6BC632 
 206      3C9A5658 
 206      C692F5EB 
 207 0460 EE7142CC 		.ascii	"\356qB\314g\001fu\350\037%\012\177\360\265~\207\367"
 207      67016675 
 207      E81F250A 
 207      7FF0B57E 
 207      87F7
 208 0472 AF3FB9BF 		.ascii	"\257?\271\277\313\375=\356\357s\377\200\373\277\271"
 208      CBFD3DEE 
 208      EF73FF80 
 208      FBBFB9
 209 0481 7FC87D61 		.ascii	"\177\310}a\214Nwk\214N\327&\024;\335\323d'\033\032\312"
 209      8C4E776B 
 209      8C4ED726 
 209      143BDDD3 
 209      64271B1A 
 210 0496 AFBFB30D 		.ascii	"\257\277\263\015:\362\370\353\375\337BA}g\364m\253R"
 210      3AF2F8EB 
 210      FDDF4241 
 210      7D67F46D 
 210      AB52
ARM GAS  /tmp/ccpjYCoh.s 			page 16


 211 04a8 7EB4E7BB 		.ascii	"~\264\347\273s\265\333\264\347\324\243oFr\033\300\004"
 211      73B5DBB4 
 211      E7D4A36F 
 211      46721BC0 
 211      04
 212 04b9 A118CC6A 		.ascii	"\241\030\314jk\255c)\254\027$\235\033\004\255\271\311"
 212      6BAD6329 
 212      AC17249D 
 212      1B04ADB9 
 212      C9
 213 04ca 63755400 		.ascii	"cuT\000\351y\336\357\262\372\017\002\007\030;U\231\364"
 213      E979DEEF 
 213      B2FA0F02 
 213      07183B55 
 213      99F4
 214 04dc 26A8B34E 		.ascii	"&\250\263N\345\301\232 9\324&\214B\207Pj\237\376@\260"
 214      E5C19A20 
 214      39D4268C 
 214      4287506A 
 214      9FFE40B0 
 215 04f0 EED3530C 		.ascii	"\356\323S\014\254\325(\324v\320e\372\255if!\220c\212"
 215      ACD528D4 
 215      76D065FA 
 215      AD696621 
 215      90638A
 216 0503 7C0A13A4 		.ascii	"|\012\023\244\301\254\272:\277\374\227L\373\233i\334"
 216      C1ACBA3A 
 216      BFFC974C 
 216      FB9B69DC 
 217 0513 BF2A99CA 		.ascii	"\277*\231\312\244\375\321dKK2\341_\030Z\034X\274\332"
 217      A4FDD164 
 217      4B4B32E1 
 217      5F185A1C 
 217      58BCDA
 218 0526 9F782716 		.ascii	"\237x'\026\255\213\222\251\376\326t\312\037KD\343\255"
 218      AD8B92A9 
 218      FED674CA 
 218      1F4B44E3 
 218      AD
 219 0537 4DA23F21 		.ascii	"M\242?!\276\033\217\255\360\2473M\261D\246\256\231x"
 219      BE1B8FAD 
 219      F0A7334D 
 219      B144A6AE 
 219      9978
 220 0549 5AF173DE 		.ascii	"Z\361s\336\334H\246\374\265%K}\001\362\202Ut\013\215"
 220      DC48A6FC 
 220      B5254B7D 
 220      01F28255 
 220      740B8D
 221 055c 36C712A2 		.ascii	"6\307\022\242?\322$\256\244\255\361L$\263f\225\230\306"
 221      3FD224AE 
 221      A4ADF14C 
 221      24B36695 
 221      98C6
 222 056e EC099188 		.ascii	"\354\011\221\210\232_-MW\237\240+\342\34221\232I\246"
 222      9A5F2D4D 
 222      579FA02B 
ARM GAS  /tmp/ccpjYCoh.s 			page 17


 222      E2E23231 
 222      9A49A6
 223 0581 20E15E95 		.ascii	" \341^\225\212%k\244\363\213bi\355\302\024\351LX\314"
 223      8A256BA4 
 223      F38B6269 
 223      EDC214E9 
 223      4C58CC
 224 0594 84D7A433 		.ascii	"\204\327\2443bK\003M4\305\305T#\206\246b\2315\025\315"
 224      624B034D 
 224      34C5C554 
 224      2386A662 
 224      993515CD 
 225 05a8 F2770E17 		.ascii	"\362w\016\027\210\2134\325(&\220\353\333\263\365\222"
 225      888B34D5 
 225      282690EB 
 225      DBB3F592 
 226 05b8 15A1E2EA 		.ascii	"\025\241\342\352\214?\2608\034\014\027\011G\223)1\022"
 226      8C3FB038 
 226      1C0C1709 
 226      47932931 
 226      12
 227 05c9 6D998DDC 		.ascii	"m\231\215\334\274K\226\005\003\2217\220\251;\030\256"
 227      BC4B9605 
 227      03913790 
 227      A93B18AE 
 228 05d9 0F7943F5 		.ascii	"\017yC\365\350\227\325/\232\355\016\006\352C\236\220"
 228      E897D52F 
 228      9AED0E06 
 228      EA439E90 
 229 05e9 FC6D0E5E 		.ascii	"\374m\016^l\324.\316\305\213\272\257\363\212\243\027"
 229      6CD42ECE 
 229      C58BBAAF 
 229      F38AA317 
 230 05f9 8560A327 		.ascii	"\205`\243'\034x\225\003\226\005\032\227\006\027ah8T"
 230      1C789503 
 230      96051A97 
 230      06176168 
 230      3854
 231 060b B630180A 		.ascii	"\2660\030\012\204\\a\264@@K\234\343\01274\226\205\033"
 231      845C61B4 
 231      40404B9C 
 231      E30A3734 
 231      96851B
 232 061e 30C21D6D 		.ascii	"0\302\035m\246)O$\262\2625\021\215D\036S\007u/\317y"
 232      A6294F24 
 232      B2B23511 
 232      8D441E53 
 232      07752FCF 
 233 0633 69DE7F0B 		.ascii	"i\336\177\013\\\325\301"
 233      5CD5C1
 234              		.text
 235              		.section	.gnu.lto_.symtab.fa122b7335f5f524,"",%progbits
 236 0000 6E766963 		.ascii	"nvicEnableVector\000\000\000\000\000\000\000\000\000"
 236      456E6162 
 236      6C655665 
 236      63746F72 
 236      00000000 
ARM GAS  /tmp/ccpjYCoh.s 			page 18


 237 0019 000000A1 		.ascii	"\000\000\000\241\000\000\000nvicDisableVector\000\000"
 237      0000006E 
 237      76696344 
 237      69736162 
 237      6C655665 
 238 0033 00000000 		.ascii	"\000\000\000\000\000\000\000\000\000\000\262\000\000"
 238      00000000 
 238      0000B200 
 238      00
 239 0040 006E7669 		.ascii	"\000nvicSetSystemHandlerPriority\000\000\000\000\000"
 239      63536574 
 239      53797374 
 239      656D4861 
 239      6E646C65 
 240 0062 00000000 		.ascii	"\000\000\000\000\000\000\000\270\000\000\000nvicCle"
 240      000000B8 
 240      0000006E 
 240      76696343 
 240      6C65
 241 0074 61725065 		.ascii	"arPending\000\000\000\000\000\000\000\000\000\000\000"
 241      6E64696E 
 241      67000000 
 241      00000000 
 241      00000000 
 242 0088 00BE0000 		.ascii	"\000\276\000\000\000"
 242      00
 243              		.text
 244              		.section	.gnu.lto_.opts,"",%progbits
 245 0000 272D6D63 		.ascii	"'-mcpu=cortex-m0' '-mno-thumb-interwork' '-mthumb' "
 245      70753D63 
 245      6F727465 
 245      782D6D30 
 245      2720272D 
 246 0033 272D6767 		.ascii	"'-ggdb' '-O2' '-fomit-frame-pointer' '-falign-funct"
 246      64622720 
 246      272D4F32 
 246      2720272D 
 246      666F6D69 
 247 0066 696F6E73 		.ascii	"ions=16' '-ffunction-sections' '-fdata-sections' '-"
 247      3D313627 
 247      20272D66 
 247      66756E63 
 247      74696F6E 
 248 0099 666E6F2D 		.ascii	"fno-common' '-flto'\000"
 248      636F6D6D 
 248      6F6E2720 
 248      272D666C 
 248      746F2700 
 249              		.text
 250              		.cfi_sections	.debug_frame
 251              		.section	.text.nvicEnableVector,"ax",%progbits
 252              		.align	2
 253              		.p2align 4,,15
 254              		.global	nvicEnableVector
 255              		.code	16
 256              		.thumb_func
 257              		.type	nvicEnableVector, %function
ARM GAS  /tmp/ccpjYCoh.s 			page 19


 258              	nvicEnableVector:
 259              	.LFB179:
 260              		.file 1 "../../../os/hal/ports/common/ARMCMx/nvic.c"
 261              		.loc 1 57 0
 262              		.cfi_startproc
 263              	.LVL0:
 264              		.loc 1 60 0
 265 0000 8208     		lsr	r2, r0, #2
 266 0002 104B     		ldr	r3, .L2
 267 0004 9200     		lsl	r2, r2, #2
 268              		.loc 1 57 0
 269 0006 70B5     		push	{r4, r5, r6, lr}
 270              		.cfi_def_cfa_offset 16
 271              		.cfi_offset 4, -16
 272              		.cfi_offset 5, -12
 273              		.cfi_offset 6, -8
 274              		.cfi_offset 14, -4
 275 0008 D218     		add	r2, r2, r3
 276              		.loc 1 60 0
 277 000a 0324     		mov	r4, #3
 278 000c C023     		mov	r3, #192
 279 000e 9B00     		lsl	r3, r3, #2
 280 0010 0440     		and	r4, r0
 281 0012 D558     		ldr	r5, [r2, r3]
 282 0014 E400     		lsl	r4, r4, #3
 283 0016 FF26     		mov	r6, #255
 284              		.loc 1 61 0
 285 0018 8901     		lsl	r1, r1, #6
 286              	.LVL1:
 287              		.loc 1 60 0
 288 001a A640     		lsl	r6, r6, r4
 289              		.loc 1 61 0
 290 001c A140     		lsl	r1, r1, r4
 291              		.loc 1 60 0
 292 001e B543     		bic	r5, r6
 293              		.loc 1 61 0
 294 0020 0C1C     		mov	r4, r1
 295              		.loc 1 60 0
 296 0022 2C43     		orr	r4, r5
 297 0024 D450     		str	r4, [r2, r3]
 298              		.loc 1 65 0
 299 0026 1F23     		mov	r3, #31
 300 0028 0340     		and	r3, r0
 301 002a 0122     		mov	r2, #1
 302 002c 9A40     		lsl	r2, r2, r3
 303 002e 131C     		mov	r3, r2
 304 0030 4009     		lsr	r0, r0, #5
 305              	.LVL2:
 306 0032 044A     		ldr	r2, .L2
 307 0034 8000     		lsl	r0, r0, #2
 308 0036 8018     		add	r0, r0, r2
 309 0038 C022     		mov	r2, #192
 310 003a 5200     		lsl	r2, r2, #1
 311 003c 8350     		str	r3, [r0, r2]
 312              		.loc 1 67 0
 313              		@ sp needed
 314              		.loc 1 66 0
ARM GAS  /tmp/ccpjYCoh.s 			page 20


 315 003e 0360     		str	r3, [r0]
 316              		.loc 1 67 0
 317 0040 70BD     		pop	{r4, r5, r6, pc}
 318              	.L3:
 319 0042 C046     		.align	2
 320              	.L2:
 321 0044 00E100E0 		.word	-536813312
 322              		.cfi_endproc
 323              	.LFE179:
 324              		.size	nvicEnableVector, .-nvicEnableVector
 325 0048 C046C046 		.section	.text.nvicDisableVector,"ax",%progbits
 325      C046C046 
 326              		.align	2
 327              		.p2align 4,,15
 328              		.global	nvicDisableVector
 329              		.code	16
 330              		.thumb_func
 331              		.type	nvicDisableVector, %function
 332              	nvicDisableVector:
 333              	.LFB180:
 334              		.loc 1 74 0
 335              		.cfi_startproc
 336              	.LVL3:
 337              		.loc 1 76 0
 338 0000 1F21     		mov	r1, #31
 339 0002 0140     		and	r1, r0
 340 0004 0123     		mov	r3, #1
 341 0006 4209     		lsr	r2, r0, #5
 342 0008 8B40     		lsl	r3, r3, r1
 343 000a 191C     		mov	r1, r3
 344 000c 2032     		add	r2, r2, #32
 345 000e 094B     		ldr	r3, .L5
 346 0010 9200     		lsl	r2, r2, #2
 347              		.loc 1 74 0
 348 0012 10B5     		push	{r4, lr}
 349              		.cfi_def_cfa_offset 8
 350              		.cfi_offset 4, -8
 351              		.cfi_offset 14, -4
 352              		.loc 1 76 0
 353 0014 D150     		str	r1, [r2, r3]
 354              		.loc 1 78 0
 355 0016 8208     		lsr	r2, r0, #2
 356 0018 9200     		lsl	r2, r2, #2
 357 001a D218     		add	r2, r2, r3
 358 001c 0324     		mov	r4, #3
 359 001e C023     		mov	r3, #192
 360 0020 9B00     		lsl	r3, r3, #2
 361 0022 2040     		and	r0, r4
 362              	.LVL4:
 363 0024 D158     		ldr	r1, [r2, r3]
 364 0026 C000     		lsl	r0, r0, #3
 365 0028 FF24     		mov	r4, #255
 366 002a 8440     		lsl	r4, r4, r0
 367 002c A143     		bic	r1, r4
 368 002e D150     		str	r1, [r2, r3]
 369              		.loc 1 82 0
 370              		@ sp needed
ARM GAS  /tmp/ccpjYCoh.s 			page 21


 371 0030 10BD     		pop	{r4, pc}
 372              	.L6:
 373 0032 C046     		.align	2
 374              	.L5:
 375 0034 00E100E0 		.word	-536813312
 376              		.cfi_endproc
 377              	.LFE180:
 378              		.size	nvicDisableVector, .-nvicDisableVector
 379 0038 C046C046 		.section	.text.nvicSetSystemHandlerPriority,"ax",%progbits
 379      C046C046 
 380              		.align	2
 381              		.p2align 4,,15
 382              		.global	nvicSetSystemHandlerPriority
 383              		.code	16
 384              		.thumb_func
 385              		.type	nvicSetSystemHandlerPriority, %function
 386              	nvicSetSystemHandlerPriority:
 387              	.LFB181:
 388              		.loc 1 90 0
 389              		.cfi_startproc
 390              	.LVL5:
 391              		.loc 1 95 0
 392 0000 0F23     		mov	r3, #15
 393 0002 0340     		and	r3, r0
 394 0004 083B     		sub	r3, r3, #8
 395 0006 094A     		ldr	r2, .L8
 396 0008 9B08     		lsr	r3, r3, #2
 397              		.loc 1 90 0
 398 000a 10B5     		push	{r4, lr}
 399              		.cfi_def_cfa_offset 8
 400              		.cfi_offset 4, -8
 401              		.cfi_offset 14, -4
 402 000c 9B00     		lsl	r3, r3, #2
 403              		.loc 1 95 0
 404 000e 0324     		mov	r4, #3
 405 0010 9B18     		add	r3, r3, r2
 406 0012 2040     		and	r0, r4
 407              	.LVL6:
 408 0014 DA69     		ldr	r2, [r3, #28]
 409 0016 C000     		lsl	r0, r0, #3
 410 0018 FF24     		mov	r4, #255
 411              		.loc 1 96 0
 412 001a 8901     		lsl	r1, r1, #6
 413              	.LVL7:
 414              		.loc 1 95 0
 415 001c 8440     		lsl	r4, r4, r0
 416              		.loc 1 96 0
 417 001e 8140     		lsl	r1, r1, r0
 418              		.loc 1 95 0
 419 0020 A243     		bic	r2, r4
 420              		.loc 1 96 0
 421 0022 081C     		mov	r0, r1
 422              		.loc 1 95 0
 423 0024 1043     		orr	r0, r2
 424 0026 D861     		str	r0, [r3, #28]
 425              		.loc 1 102 0
 426              		@ sp needed
ARM GAS  /tmp/ccpjYCoh.s 			page 22


 427 0028 10BD     		pop	{r4, pc}
 428              	.L9:
 429 002a C046     		.align	2
 430              	.L8:
 431 002c 00ED00E0 		.word	-536810240
 432              		.cfi_endproc
 433              	.LFE181:
 434              		.size	nvicSetSystemHandlerPriority, .-nvicSetSystemHandlerPriority
 435              		.section	.text.nvicClearPending,"ax",%progbits
 436              		.align	2
 437              		.p2align 4,,15
 438              		.global	nvicClearPending
 439              		.code	16
 440              		.thumb_func
 441              		.type	nvicClearPending, %function
 442              	nvicClearPending:
 443              	.LFB182:
 444              		.loc 1 109 0
 445              		.cfi_startproc
 446              	.LVL8:
 447              		.loc 1 111 0
 448 0000 1F23     		mov	r3, #31
 449 0002 4209     		lsr	r2, r0, #5
 450 0004 1840     		and	r0, r3
 451              	.LVL9:
 452 0006 0123     		mov	r3, #1
 453 0008 8340     		lsl	r3, r3, r0
 454 000a 181C     		mov	r0, r3
 455 000c 6032     		add	r2, r2, #96
 456 000e 024B     		ldr	r3, .L11
 457 0010 9200     		lsl	r2, r2, #2
 458 0012 D050     		str	r0, [r2, r3]
 459              		.loc 1 112 0
 460              		@ sp needed
 461 0014 7047     		bx	lr
 462              	.L12:
 463 0016 C046     		.align	2
 464              	.L11:
 465 0018 00E100E0 		.word	-536813312
 466              		.cfi_endproc
 467              	.LFE182:
 468              		.size	nvicClearPending, .-nvicClearPending
 469 001c C046C046 		.text
 470              	.Letext0:
 471              		.file 2 "/usr/include/newlib/machine/_default_types.h"
 472              		.file 3 "/usr/include/newlib/stdint.h"
 473              		.file 4 "../../../os/common/ports/ARMCMx/compilers/GCC/chtypes.h"
 474              		.file 5 "../../../os/rt/include/chsystypes.h"
 475              		.file 6 "../../../os/rt/include/chschd.h"
 476              		.file 7 "../../../os/common/ext/CMSIS/include/core_cm0.h"
 477              		.file 8 "../../../os/common/ports/ARMCMx/chcore.h"
 478              		.file 9 "../../../os/common/ports/ARMCMx/chcore_v6m.h"
 479              		.file 10 "../../../os/rt/include/chsem.h"
 480              		.file 11 "../../../os/rt/include/chmtx.h"