ARM GAS  /tmp/ccpjYCoh.s 			page 1


   1              		.cpu cortex-m0
   2              		.fpu softvfp
   3              		.eabi_attribute 20, 1
   4              		.eabi_attribute 21, 1
   5              		.eabi_attribute 23, 3
   6              		.eabi_attribute 24, 1
   7              		.eabi_attribute 25, 1
   8              		.eabi_attribute 26, 1
   9              		.eabi_attribute 30, 2
  10              		.eabi_attribute 34, 0
  11              		.eabi_attribute 18, 4
  12              		.code	16
  13              		.file	"nvic.c"
  14              		.text
  15              	.Ltext0:
  16              		.section	.gnu.lto_.jmpfuncs.fa122b7335f5f524,"",%progbits
  17 0000 789C6362 		.ascii	"x\234cb`b\300\006\270\2404\013\0033##\02333#\003\000"
  17      6062C006 
  17      B8A0340B 
  17      03332323 
  17      13333323 
  18 0016 01F00021 		.ascii	"\001\360\000!"
  19              		.text
  20              		.section	.gnu.lto_.inline.fa122b7335f5f524,"",%progbits
  21 0000 789C6362 		.ascii	"x\234cb`b\300\006f@i\026\006\006a!F&\006F \233\021D"
  21      6062C006 
  21      66406916 
  21      06066121 
  21      46260646 
  22 0018 B0F23C88 		.ascii	"\260\362<\210e`[ \317\304 \320P\313\302\300t\201\237"
  22      65605B20 
  22      CFC420D0 
  22      50CBC2C0 
  22      74819F
  23 002b 0344F080 		.ascii	"\003D\360\200\32522\360\363\001U\201\3241s\034\260C"
  23      D53232F0 
  23      F3015581 
  23      D431731C 
  23      B043
  24 003d 52079205 		.ascii	"R\007\222\0052\371Q\214\202+\341\333\220\213n\0243\003"
  24      32F9518C 
  24      822BE1DB 
  24      908B6E14 
  24      3303
  25 004f 3B1BCC28 		.ascii	";\033\314(\240 D\035\333\007=\210Q\014\000\025\315\020"
  25      A020441D 
  25      DB073D88 
  25      510C0015 
  25      CD10
  26 0061 BE       		.ascii	"\276"
  27              		.text
  28              		.section	.gnu.lto_.pureconst.fa122b7335f5f524,"",%progbits
  29 0000 789C6362 		.ascii	"x\234cb`b\340d\200\000\026\006)F)&)f)\000\002\326\000"
  29      6062E064 
  29      80001606 
  29      29462926 
  29      29662900 
ARM GAS  /tmp/ccpjYCoh.s 			page 2


  30 0017 80       		.ascii	"\200"
  31              		.text
  32              		.section	.gnu.lto_nvicEnableVector.fa122b7335f5f524,"",%progbits
  33 0000 789C9D53 		.ascii	"x\234\235S=hSQ\024>\347\276\367\222\227\246\211i\002"
  33      3D685351 
  33      143EE7BE 
  33      F79297A6 
  33      896902
  34 0013 62278B2E 		.ascii	"b'\213.B\361=\235\034\234\244s\027i\241\216i\206\030"
  34      42F13D9D 
  34      1C9CA473 
  34      1769A18E 
  34      698618
  35 0026 3089D822 		.ascii	"0\211\330\"n\271\361f\262\0352\270X\035\372C\021\212"
  35      6EB9F166 
  35      B21D32B8 
  35      581DFA43 
  35      118A
  36 0038 B6E0562A 		.ascii	"\266\340V*R\272u\250\342&(\022tS\220bA\035\204\3479"
  36      52BA75A8 
  36      E2262812 
  36      74539062 
  36      411D84E7 
  37 004d F7E65E89 		.ascii	"\367\346^\211\024A/\311wo\316w\356w\276s\336\213\000"
  37      14412FC9 
  37      776FCE77 
  37      EE77BE73 
  37      DE8B00
  38 0060 017FAE51 		.ascii	"\001\177\256Q\372\256z\000\027iG\017Pt_\002\264C\201"
  38      FAAE7A00 
  38      1769470F 
  38      50745F02 
  38      B44381
  39 0073 C8074068 		.ascii	"\310\007@h\011l]CN\3053\260\"e\267\267\376\341\207x"
  39      096C5D43 
  39      4EC533B0 
  39      2265B7B7 
  39      FEE18778 
  40 0087 707FB7B3 		.ascii	"p\177\267\263,\177&\011b\015I6B\250 \314\320\017\034"
  40      2C7F2609 
  40      620D4936 
  40      42A820CC 
  40      D00F1C
  41 009a D39BF007 		.ascii	"\323\233\360\007\353l\211\335^\222<z\265\364\376\024"
  41      EB6C89DD 
  41      5E923C7A 
  41      B5F4FE14 
  42 00aa 9E44ACF3 		.ascii	"\236D\254\363\245\032z>C\300\220bH\023@H\340g\030\206"
  42      A51A7A3E 
  42      43C09062 
  42      48134048 
  42      E0671886 
  43 00be 3896A564 		.ascii	"8\226\245d\034\346S\216!\317P`\030\2012\256\220\251"
  43      1CE6538E 
  43      21CF5060 
  43      188132AE 
  43      90A9
ARM GAS  /tmp/ccpjYCoh.s 			page 3


  44 00d0 225F2A71 		.ascii	"\"_*q>\325\011\240C\036\307\200\355\320\232\"\344F\246"
  44      3ED509A0 
  44      431EC780 
  44      EDD09A22 
  44      E446A6
  45 00e3 51F0EE1D 		.ascii	"Q\360\356\035\200\332TG\037\3752\256a\000U\024U\304"
  45      80DA5447 
  45      1FFD32AE 
  45      61005514 
  45      55C4
  46 00f5 19D302C0 		.ascii	"\031\323\002\300\001\354\275;,Z\312?\017Od\207\270`"
  46      01ECBD3B 
  46      2C5ACA3F 
  46      0F4F6487 
  46      B860
  47 0107 1C3664A7 		.ascii	"\0346d\247-[5L=\204%\212\244\371J(\367\224\314\353f"
  47      2D5B354C 
  47      3D84258A 
  47      A4F94A28 
  47      F794CCEB 
  48 011c 43DDE22C 		.ascii	"C\335\342,\232VI\325\265M\365v\3247\317j\006\375r\236"
  48      9A5649D5 
  48      B54DF576 
  48      D437CF6A 
  48      06FD729E 
  49 0130 67B87B8E 		.ascii	"g\270{\216I\021\251\231P3w\277\250O\216K\023\255\323"
  49      4911A999 
  49      503377BF 
  49      A84F8E4B 
  49      13ADD3
  50 0143 9FBA50C8 		.ascii	"\237\272P\310\271~\202\314\352\374\347j\303\221\231"
  50      B97E82CC 
  50      EAFCE76A 
  50      C39199
  51 0152 2A3BD2A5 		.ascii	"*;\322\245W]p\210:\"\312\350\250\357o\0351\\\305\254"
  51      575D7088 
  51      3A22CAE8 
  51      A8EF6F1D 
  51      315CC5AC 
  52 0166 1E410AFA 		.ascii	"\036A\012\372\3443\307\3454\255+\250mu\364y\324\022"
  52      E433C7E5 
  52      34AD2BA8 
  52      6D75F479 
  52      D412
  53 0178 792D98D3 		.ascii	"y-\230\3233\333\357\346MX\017\254-/\375\036\331\211"
  53      33DBEFE6 
  53      4D580FAC 
  53      2D2FFD1E 
  53      D989
  54 018a 7F1E1949 		.ascii	"\177\036\031I\353j\233\352\361\3429[\255`\237R`\207"
  54      EB6A9BEA 
  54      F1E2395B 
  54      AD609F52 
  54      6087
  55 019c F3022D37 		.ascii	"\363\002-7B\234i\326\271.RT\247\237\266\035}u\351%="
  55      429C69D6 
  55      B92E5254 
ARM GAS  /tmp/ccpjYCoh.s 			page 4


  55      A79FB61D 
  55      7D75E925 
  56 01b1 389E5BD1 		.ascii	"8\236[\321\230?\314\016\230\277<`>\363w\363\330\267"
  56      983FCC0E 
  56      98BF3C60 
  56      3EF377F3 
  56      D8B7
  57 01c3 5C70E64B 		.ascii	"\\p\346KF\364\015\375E\376_V\034'\373\032\332\275\205"
  57      46F40DFD 
  57      45FE5F56 
  57      1C27FB1A 
  57      DABD85
  58 01d6 B346D4AE 		.ascii	"\263F\324\256)r@o5\347\217GQl>\315\271\370z\371F|\263"
  58      2972406F 
  58      35E78F47 
  58      516C3ECD 
  58      B9F87AF9 
  59 01ed 796B7E2E 		.ascii	"yk~.\2564\353\365f#\276rurb\362N\334\270]\253D\025\360"
  59      AE34EBF5 
  59      6623BE72 
  59      757262F2 
  59      4EDCB85D 
  60 0205 1AD1855F 		.ascii	"\032\321\205_&\237\332J"
  60      269FDA4A 
  61              		.text
  62              		.section	.gnu.lto_nvicDisableVector.fa122b7335f5f524,"",%progbits
  63 0000 789C9552 		.ascii	"x\234\225R1h\024A\024\375of7\356\345.w\304\316\312\240"
  63      31681441 
  63      14FD6F66 
  63      37EEE52E 
  63      77C4CECA 
  64 0015 4D20B84B 		.ascii	"M \270K\252\024\251\304R\322H\004-\317+\342\202w\027"
  64      AA14A9C4 
  64      52D24804 
  64      2DCF2BE2 
  64      827717
  65 0028 8C888D64 		.ascii	"\214\210\215d/si\344\212+lL\032\203`q\304(X*\022\256"
  65      2F7369E4 
  65      8A2B6C4C 
  65      1A836071 
  65      C428582A 
  66 003e B388686F 		.ascii	"\263\210hoqX\030H\021$6\001\305\365\377\331\233\015"
  66      71581848 
  66      11243601 
  66      C5F5FFD9 
  66      9B0D
  67 0050 97229061 		.ascii	"\227\"\220a\367\317\314{\177\376\373\363v\025):=.\361"
  67      F7CFCC7B 
  67      7FFEFBF3 
  67      7615293A 
  67      3D2EF1
  68 0063 7BC0F02C 		.ascii	"{\300\360,\317\320\004\325\375B\324\012\024 \013\002"
  68      CFD004D5 
  68      FD42D40A 
  68      14200B02 
  69 0073 AD2AACDE 		.ascii	"\255*\254\336\205\244\342\012m%Iw\260\276\177\254^<"
  69      85A4E20A 
ARM GAS  /tmp/ccpjYCoh.s 			page 5


  69      6D254977 
  69      B0BE7FAC 
  69      5E3C
  70 0085 DF6DBF4C 		.ascii	"\337m\277L\376\246)\020\203\313\206\240\032\350\016"
  70      FEA62910 
  70      83CB86A0 
  70      1AE80E
  71 0094 6F306527 		.ascii	"o0e'\345\215\352\274U\273\2034\335~\377\356G\017\223"
  71      E58DEABC 
  71      55BB8334 
  71      DD7EFFEE 
  71      470F93
  72 00a7 93405D4E 		.ascii	"\223@]N\305\320\232\252\330\342\312\036o\310\347\340"
  72      C5D09AAA 
  72      D8E2CA1E 
  72      6FC8E7E0 
  73 00b7 05021724 		.ascii	"\005\002\027$\214K(J(\011;!lYBE0.\352S\233\033\232\""
  73      8C4B284A 
  73      28093B21 
  73      6C594245 
  73      302EEA53 
  74 00cf D1E6B1C8 		.ascii	"\321\346\261\310Q\272\276\015%\263\336#\263c~w\246\253"
  74      51BABE0D 
  74      25B3DE23 
  74      B3637E77 
  74      A6AB
  75 00e1 78059F96 		.ascii	"x\005\237\226\240\226\000\351\215\317\021\355\321\332"
  75      A09600E9 
  75      8DCF11ED 
  75      D1DA
  76 00ef A1F904C7 		.ascii	"\241\371\004\307i\346\0044\037\264\203<Fm\372e\233n"
  76      69E60434 
  76      1FB4833C 
  76      466DFA65 
  76      9B6E
  77 0101 DE98A33C 		.ascii	"\336\230\243<\335\027\302\203d\011\327\377\374\253\230"
  77      DD17C283 
  77      6409D7FF 
  77      FCAB98
  78 0110 51D7683B 		.ascii	"Q\327h;i\267\222\371\030\376\014\365dY\2111\266I\033"
  78      69B792F9 
  78      18FE0CF5 
  78      64598931 
  78      B6491B
  79 0123 9C7F410E 		.ascii	"\234\177A\016\005I\337$e\353Q`\235\271\207\314!\356"
  79      0549DF24 
  79      65EB5160 
  79      9DB987CC 
  79      21EE
  80 0135 8FDCCAB7 		.ascii	"\217\334\312\267\202;\346O\347\246S\014\\\363\312v\323"
  80      823BE64F 
  80      E7A6530C 
  80      5CF3CA76 
  80      D3
  81 0146 FFFEF5A2 		.ascii	"\377\376\365\242\243\012V\024'\222Oc\024\316\226\304"
  81      A30A5614 
  81      27924F63 
ARM GAS  /tmp/ccpjYCoh.s 			page 6


  81      14CE96C4 
  82 0156 5028C83F 		.ascii	"P(\310?\220\\\335\034\345\227\037\037\312i\235q\317"
  82      905CDD1C 
  82      E5971F1F 
  82      CA699D71 
  82      CF
  83 0167 72A6C8A4 		.ascii	"r\246\310\244e\002\347\342\317\234+1\235y\225C\023\326"
  83      6502E7E2 
  83      CF9C2B31 
  83      9D799543 
  83      13D6
  84 0179 A954AC2A 		.ascii	"\251T\254*\331\374\217\346uN\226\231\037J\377S\016\254"
  84      D9FC8FE6 
  84      754E9699 
  84      1F4AFF53 
  84      0EAC
  85 018b F08D98CA 		.ascii	"\360\215\230\312|\355\226G|\235\033\361\365\234\227"
  85      7CED9647 
  85      7C9D1BF1 
  85      F59C97
  86 019a E4D244DF 		.ascii	"\344\322D\337\2505\350]\315\212\272\261\310\251\374"
  86      A835E85D 
  86      CD8ABAB1 
  86      C8A9FC
  87 01a9 C388B333 		.ascii	"\303\210\2633a\030eOs%\272_}\020-7\037>Z\211j\315z\275"
  87      6118654F 
  87      7325BA5F 
  87      7D102D37 
  87      1F3E5A89 
  88 01c1 D988AEDF 		.ascii	"\331\210\256\337Z\270\261\360$j<\216ka\215t#\234\375"
  88      5AB8B1F0 
  88      246A3C8E 
  88      6B618D74 
  88      239CFD
  89 01d4 0F6CF6B2 		.ascii	"\017l\366\262-"
  89      2D
  90              		.text
  91              		.section	.gnu.lto_nvicSetSystemHandlerPriority.fa122b7335f5f524,"",%progbits
  92 0000 789C9591 		.ascii	"x\234\225\221=K\003A\020\206g\366\362\375\215\205`'"
  92      3D4B0341 
  92      108667F6 
  92      F2FD8D85 
  92      6027
  93 0012 A40CC995 		.ascii	"\244\014\311\225\326b'\244\221\010\212UL\021\003&\021"
  93      D66227A4 
  93      91088A55 
  93      4C110326 
  93      11
  94 0023 2362978B 		.ascii	"#b\227\213\027D\004%\265\251\324N4\326\242\205Z\010"
  94      17440425 
  94      B5A9D44E 
  94      34D6A285 
  94      5A08
  95 0035 290CDA8A 		.ascii	")\014\332\212E\360\007\004\013\013\2619g\346r+\330\271"
  95      45F00704 
  95      0B0BB139 
  95      67E6722B 
ARM GAS  /tmp/ccpjYCoh.s 			page 7


  95      D8B9
  96 0047 DCBDBBCC 		.ascii	"\334\275\273\31433;\367\236\002\005\177\327\024\275"
  96      33333BF7 
  96      9E02057F 
  96      D714BD
  97 0056 6D0A6769 		.ascii	"m\012giG\003Pu\006\000\255\220B\344\003 4\0256\227Q"
  97      47035075 
  97      0600AD90 
  97      42E40320 
  97      34153697 
  98 006b 72AFD4DD 		.ascii	"r\257\324\335\320qz\237{\217\3678HO V\221:V\020\014"
  98      D0717A9F 
  98      7B8FF738 
  98      484F2056 
  98      913A5610 
  99 0080 161F4B80 		.ascii	"\026\037K\200%\310\022b\011\223`\204DEYb\034\213S\031"
  99      25C81262 
  99      09936084 
  99      44455962 
  99      1C8B5319 
 100 0094 26F89464 		.ascii	"&\370\224dI\261\320\362C\333\262:\323U\244aJ\022)\220"
 100      49B1D0F2 
 100      43DBB23A 
 100      D355A461 
 100      4A122990 
 101 00a8 F2108B14 		.ascii	"\362\020\213\024\242\335x\002\373\306v\016W\212x\202"
 101      A2DD7802 
 101      FBC6760E 
 101      578A7882 
 102 00b8 7E28A32A 		.ascii	"~(\243*#.\241\364\001 \270ox\304 (\344\313q\2341\355"
 102      232EA1F4 
 102      0120B86F 
 102      78C42028 
 102      E4CB719C 
 103 00ce 69EAA304 		.ascii	"i\352\243\004\246|\023\221\207\267\347I\017\005\262"
 103      A67C1391 
 103      87B7E749 
 103      0F05B2
 104 00dd 7061B589 		.ascii	"pa\265\211\031\0318\267\332-\253Kg_\027\216i\363sM\300"
 104      191938B7 
 104      DA2DAB4B 
 104      675F178E 
 104      69F3734D 
 105 00f2 7AB5AD04 		.ascii	"z\265\255\004\310Q<Yu\255\341\266\332S\031t\024\363"
 105      C8513C59 
 105      75ADE1B6 
 105      DA531974 
 105      14F3
 106 0104 9A06BD39 		.ascii	"\232\006\2759\015\227\035\350IB\004\205\204\204\354"
 106      0D971DE8 
 106      49420485 
 106      8484EC
 107 0113 8EEC775D 		.ascii	"\216\354w]\025&,\351\227:=\302\271\312A\246\222\177"
 107      15262CE9 
 107      973A3DC2 
 107      B9CA41A6 
 107      927F
ARM GAS  /tmp/ccpjYCoh.s 			page 8


 108 0125 6B9FEAFC 		.ascii	"k\237\352\374(\361\361\325\337\272\"F\237D\310\355c"
 108      28F1F1D5 
 108      DFBA2246 
 108      9F44C8ED 
 108      63
 109 0136 9F1DCD7B 		.ascii	"\237\035\315{ Q\306\270x\020\2001\034\351\242\244`\271"
 109      2051C6B8 
 109      78108031 
 109      1CE9A2A4 
 109      60B9
 110 0148 C1BE26C3 		.ascii	"\301\276&\303\373\232\244\244cR\\\353\177$\335\260X"
 110      FB9AA4A4 
 110      63525CEB 
 110      7F24DDB0 
 110      58
 111 0159 D6B2667E 		.ascii	"\326\262f~M\213\377\3333j\015\360\002\255\341 \3556"
 111      4D8BFFDB 
 111      336A0DF0 
 111      02ADE120 
 111      ED36
 112 016b F5560191 		.ascii	"\365V\001\221\377=\377\251L.g\272O\275a\256\025\327"
 112      FF3DFFA9 
 112      4C2E67BA 
 112      4FBD61AE 
 112      15D7
 113 017d CD8DFAE6 		.ascii	"\315\215\372\346V\303,\325\253\325z\315\234]\310\317"
 113      56C32CD5 
 113      ABD57ACD 
 113      9C5DC8CF 
 114 018d E577CCDA 		.ascii	"\345w\314\332v\245\224+\301\017\302!\234)"
 114      76A5942B 
 114      C10FC221 
 114      9C29
 115              		.text
 116              		.section	.gnu.lto_nvicClearPending.fa122b7335f5f524,"",%progbits
 117 0000 789C5D50 		.ascii	"x\234]P1H\303P\020\275\367\177\322\352\2428:Yt\021\212"
 117      3148C350 
 117      10BDF77F 
 117      D2EAA238 
 117      3A597411 
 118 0015 09BA3A89 		.ascii	"\011\272:\211\223C\027\251\240c\315P\003\266\021+\342"
 118      934317A9 
 118      A063CD50 
 118      03B6112B 
 118      E2
 119 0026 D65FD359 		.ascii	"\326_\323Y:\270\250\213\305M\252\356v)\335+\272;\024"
 119      3AB8A88B 
 119      C54DAAEE 
 119      7629DD2B 
 119      BA3B14
 120 0039 41280EAE 		.ascii	"A(\016\256.B\274KLA\217\237\177\367\337\275{w9E\212"
 120      2E42BC4B 
 120      4C418F9F 
 120      7FF7DFBD 
 120      7B773945 
 121 004e FEDB2C7F 		.ascii	"\376\333,\177\006D\313\354\241\011\252\365D\324\230"
 121      0644CBEC 
ARM GAS  /tmp/ccpjYCoh.s 			page 9


 121      A109AAF5 
 121      44D498
 122 005d 50800404 		.ascii	"P\200\004\004\252+\324w T\314S\333\230\326\360\375\353"
 122      AA2BD477 
 122      2054CC53 
 122      DB98D6F0 
 122      FDEB
 123 006f 595F9CF7 		.ascii	"Y_\234\367\232\327\346;\212\000\037,\353\200<\3206?"
 123      9AD7E63B 
 123      8A001F2C 
 123      EB803CD0 
 123      363F
 124 0081 908B9DB2 		.ascii	"\220\213\235\262\376\366yP\275a\024\275v;o#\314L\002"
 124      FEF67950 
 124      BD6114BD 
 124      763B6F23 
 124      CC4C02
 125 0094 15A9F2A1 		.ascii	"\025\251\362\2415\225\320fe\213\037d\313\225\021\230"
 125      3595D066 
 125      658B1F64 
 125      CB951198 
 126 00a4 2B6C6A72 		.ascii	"+ljr\267\034\2110[\221o\031i\013J\274\036Px\037Fg\213"
 126      B71C8930 
 126      5B916F19 
 126      690B4ABC 
 126      1E50781F 
 127 00bb 25DCC0A6 		.ascii	"%\334\300\2462T\031\220\306\\G4\240\323\317\360\003"
 127      32541990 
 127      C65C4734 
 127      A0D3CFF0 
 127      03
 128 00cc 694E734E 		.ascii	"iNsN\300\260\253S\310b4\246\317\305\364\360n\234\261"
 128      C0B0AB53 
 128      C86234A6 
 128      CFC5F4F0 
 128      6E9CB1
 129 00df 6318C2F9 		.ascii	"c\030\302\371\025z\034\013e8-`\177#A\226\250c\232\015"
 129      157A1C0B 
 129      65382D60 
 129      7F234196 
 129      A8639A0D 
 130 00f3 B3EAC3CA 		.ascii	"\263\352\303\312\323\255\204\323>\354+\272d\211\214"
 130      D3AD84D3 
 130      3EEC2BBA 
 130      64898C
 131 0102 E8644D3F 		.ascii	"\350dM?4S\361F\262\361\036v\221\354\203\007\2464\312"
 131      3453F146 
 131      B2F11E76 
 131      91EC8307 
 131      A634CA
 132 0115 10BD5063 		.ascii	"\020\275Pc8ZHDS+\362\320\374\247\302\313;\216\233\234"
 132      385A4844 
 132      532BF2D0 
 132      FCA7C2CB 
 132      3B8E9B9C 
 133 0129 A0E6EE95 		.ascii	"\240\346\356\225\366\335\203\340\360\250\346zA\245\022"
 133      F6DD83E0 
ARM GAS  /tmp/ccpjYCoh.s 			page 10


 133      F0A8E67A 
 133      41A512
 134 0138 54DDB5CD 		.ascii	"T\335\265\315\302z\341\304\255\036\373\236\343\221\256"
 134      C27AE1C4 
 134      AD1EFB9E 
 134      E391AE
 135 0147 3A2B3F72 		.ascii	":+?r\207f\302"
 135      8766C2
 136              		.text
 137              		.section	.gnu.lto_.symbol_nodes.fa122b7335f5f524,"",%progbits
 138 0000 789C6362 		.ascii	"x\234cb`b\260c\200\002\246\315\214\365\014\014\023\316"
 138      6062B063 
 138      8002A6CD 
 138      8CF50C0C 
 138      13CE
 139 0012 3130D4D7 		.ascii	"10\324\327\317\353`d\332\302X\317\210\304\335\312X\317"
 139      CFEB6064 
 139      DAC258CF 
 139      88C4DDCA 
 139      58CF
 140 0024 84C4DDC6 		.ascii	"\204\304\335\306X\317\214\3402\000\000ZV\023/"
 140      58CF8CE0 
 140      3200005A 
 140      56132F
 141              		.text
 142              		.section	.gnu.lto_.refs.fa122b7335f5f524,"",%progbits
 143 0000 789C6362 		.ascii	"x\234cb`b`d\200\002\000\000F\000\006"
 143      60626064 
 143      80020000 
 143      460006
 144              		.text
 145              		.section	.gnu.lto_.decls.fa122b7335f5f524,"",%progbits
 146 0000 789CAD58 		.ascii	"x\234\255X}lSU\024\277\347\265\333Z\230s#\221\314\004"
 146      7D6C5355 
 146      14BFE7B5 
 146      DB5A9873 
 146      2391CC04 
 147 0014 A4183106 		.ascii	"\244\0301\006t\345C\375\023\301\262\270&B\226V\300\370"
 147      74E543FD 
 147      13C1B2B8 
 147      26429656 
 147      C0F8
 148 0026 4F73E91E 		.ascii	"Os\351\036\256I\327\222\266SH\374\343\216\001N\202q"
 148      AE49D792 
 148      B65348FC 
 148      E38E014E 
 148      8271
 149 0038 A028C104 		.ascii	"\240(\301\004\007v\010\211 \031\037\031\013\216f\340"
 149      07760889 
 149      20191F19 
 149      0B8E66E0 
 150 0048 04013390 		.ascii	"\004\0013\220\000\231\213)\206\000b\220\304@\220(\326"
 150      00998B29 
 150      86006290 
 150      C4409028 
 150      D6
 151 0059 F3EE7BAF 		.ascii	"\363\356{\257\357c\357m\257\304\227\235\323\333\367"
ARM GAS  /tmp/ccpjYCoh.s 			page 11


 151      EF63EF6D 
 151      AFC4979D 
 151      D3DBF7
 152 0068 CEF9DDDF 		.ascii	"\316\371\335\337\357\274\373\316}\235@\004\322\001\204"
 152      EFBCFBCE 
 152      7D9D4004 
 152      D20184
 153 0077 14F0C8D7 		.ascii	"\024\360\310\327\020r\032\307e\204\220\371D;\334h;\321"
 153      10721AC7 
 153      658490F9 
 153      443BDC68 
 153      3BD1
 154 0089 7AD07AD1 		.ascii	"z\320z\321\372\311\350C\272>A\211\255B\253D\253 2\326"
 154      FAC9E843 
 154      BA3E4189 
 154      AD42AB44 
 154      AB2032D6 
 155 009d 00DA09B4 		.ascii	"\000\332\011\264A\264\353hg\321\\h\327\320F\320\316"
 155      41B4EB68 
 155      67D15C68 
 155      D7D046D0 
 155      CE
 156 00ae A0818221 		.ascii	"\240\201\202!\240\355C\373\306\204\3373\016\376Y\035"
 156      A0ED43FB 
 156      C684DF33 
 156      0EFE591D 
 157 00be FE0905E7 		.ascii	"\376\011\005\347\2422\007(\371\322\347\021\023n\257"
 157      A2320728 
 157      F9D2E711 
 157      136EAF
 158 00cd 8253A160 		.ascii	"\202S\241`\253x7\320nI9 \347=T\362{\025\356}h\307\244"
 158      AB7837D0 
 158      6E493920 
 158      E73D54F2 
 158      7B15EE7D 
 159 00e4 79C08827 		.ascii	"y\300\210'\325\306c\301\323\314\021\024\355\240\344"
 159      D5C663C1 
 159      D3CC1114 
 159      EDA0E4
 160 00f3 489F3913 		.ascii	"H\2379\023\267id\007\353\312\347\273w\234\001\266\205"
 160      B7696407 
 160      EBCAE7BB 
 160      779C01B6 
 160      85
 161 0104 FD5328B8 		.ascii	"\375S(\270\310d\262\225\341\321\265\2011\310P\230\377"
 161      C864B295 
 161      E1D1B581 
 161      31C85098 
 161      FF
 162 0115 04791328 		.ascii	"\004y\023(Ty\211\217\017*\275|bB(\354\202\311|\344\342"
 162      5479898F 
 162      0F2ABD7C 
 162      624228EC 
 162      82C97CE4 
 163 012a A5205ED2 		.ascii	"\245 ^\322\301\330Z)\261\341\024\362\262\312\232A\262"
 163      C1D85A29 
 163      B1E114F2 
ARM GAS  /tmp/ccpjYCoh.s 			page 12


 163      B2CA9A41 
 163      B2
 164 013b 8C75E6BF 		.ascii	"\214u\346\277\335\273\351y\306<\024\262\340\305\334"
 164      DDBBE979 
 164      C63C14B2 
 164      E0C5DC
 165 014a D781CC24 		.ascii	"\327\201\314${q\316N\306v\3152\251%\245A?\030<\271\031"
 165      7B71CE4E 
 165      C676CD32 
 165      A925A541 
 165      3F183CB9 
 166 015f DA913A85 		.ascii	"\332\221:\205=\034|#\226\227\302W0S\201\242P\341\325"
 166      3D1C7C23 
 166      9697C257 
 166      305381A2 
 166      50E1D5
 167 0172 43F3EF6A 		.ascii	"C\363\357j\200\204\307/+\003i\311>NJ\015W\352!\313\343"
 167      8084C72F 
 167      2B0369C9 
 167      3E4E4A0D 
 167      57EA21CB 
 168 0187 83A5AE22 		.ascii	"\203\245\256\"\200@\266\232\030=C\276dl\013\336\203"
 168      8040B69A 
 168      183D43BE 
 168      646C0BDE 
 168      83
 169 0198 EC93AC4B 		.ascii	"\354\223\254KP\213\262\233G\355\204i\226j\025l9\225"
 169      508BB29B 
 169      47ED8469 
 169      966A156C 
 169      3995
 170 01aa 1D151BD4 		.ascii	"\035\025\033\324\264=N\322\010y\226tK7\371C\266\276"
 170      B43D4ED2 
 170      08799674 
 170      4B37F943 
 170      B6BE
 171 01bc 1AF83D26 		.ascii	"\032\370=&J\226A\352\327 \214^,\271C\203\225\235m\371"
 171      4A9641EA 
 171      D7208C5E 
 171      2CB94383 
 171      959D6DF9 
 172 01d0 42619AF3 		.ascii	"Ba\232\363\225r\320\270Rd\032\246\262\354\263,\013\373"
 172      9572D0B8 
 172      52641AA6 
 172      B2ECB32C 
 172      0BFB
 173 01e2 58D54661 		.ascii	"X\325Fa?\322\241\320\363H\332z\314\332\016[j\273\253"
 173      3FD2A1D0 
 173      F348DA7A 
 173      CCDA0E5B 
 173      6ABBAB
 174 01f5 6A9357B7 		.ascii	"j\223W\267@\216[\263\322U|\204G\364:\272Q\01751\007"
 174      408E5BB3 
 174      D2557C84 
 174      47F43ABA 
 174      510F3531 
 175 020a B89871D2 		.ascii	"\270\230q\322l\304\364\232\305\034\265\024\323\367}"
ARM GAS  /tmp/ccpjYCoh.s 			page 13


 175      6CC4F49A 
 175      C51CB514 
 175      D3F77D
 176 0219 51CC412E 		.ascii	"Q\314A.\346\232\265\230\315\346\022\367?\022\253~3\253"
 176      E69AB598 
 176      CDE612F7 
 176      3F12AB7E 
 176      33AB
 177 022b E34656FC 		.ascii	"\343FV\374!n\037\363!\246\320\0153\034=c5\244Sb\340"
 177      216E1FF3 
 177      21A6D00D 
 177      331C3D63 
 177      35A45362 
 178 0240 3B554561 		.ascii	";UEa\000I)hLP\341||N}X\326>\214\302I\250\321H2\205$"
 178      00492968 
 178      4C50E17C 
 178      7C4E7D58 
 178      D63E8CC2 
 179 025b 8FB05BD3 		.ascii	"\217\260[\323\337\311\245PO\027\007\025\206\032\250"
 179      DFC9A550 
 179      4F170715 
 179      861AA8
 180 026a 516412D9 		.ascii	"Qd\022\331\2540)Jgs\325\234\256rR\354`?\177t\277\236"
 180      AC30294A 
 180      6773D59C 
 180      AE7252EC 
 180      603F7F74 
 181 0280 37C74198 		.ascii	"7\307A\230$\365\001\301x\317\306\307\221\246=\215\271"
 181      24F501C1 
 181      78CFC6C7 
 181      91A63D8D 
 181      B9
 182 0291 72164765 		.ascii	"r\026Ge\271\303\227+\231[>O\014x\206c:\351b\353\332"
 182      B9C3972B 
 182      995B3E4F 
 182      0C788663 
 182      3AE962EB 
 183 02a6 72473FDB 		.ascii	"rG?\333\212\255h\000\224\352u\225\233\252l\252\205!"
 183      8AAD6800 
 183      94EA7595 
 183      9BAA6CAA 
 183      8521
 184 02b8 2C6B1B46 		.ascii	",k\033F\341\\\311E\376\321\246\310\306\205\246Fa\271"
 184      E15CC945 
 184      FED1A6C8 
 184      C685A646 
 184      61B9
 185 02ca 0EF07249 		.ascii	"\016\360rI2\255 \015\331J\200N:\326\251oy'\265Y4\371"
 185      32AD200D 
 185      D94A804E 
 185      3AD6A96F 
 185      7927B559 
 186 02e0 0A35FF3D 		.ascii	"\0125\377=e\336\363%\353\271`\243\347)\242\0128l\026"
 186      65DEF325 
 186      EBB960A3 
 186      E729A20A 
 186      386C16
ARM GAS  /tmp/ccpjYCoh.s 			page 14


 187 02f3 609CD64A 		.ascii	"`\234\326J\201\317p\363\216]\256\354\244\024\316\"7"
 187      81CF70F3 
 187      8E5DAEEC 
 187      A414CE22 
 187      37
 188 0304 6C5F4ECA 		.ascii	"l_N\312\301\300\276\036\375\313%\260\363\034\354\244"
 188      C1C0BE1E 
 188      FDCB25B0 
 188      F31CECA4 
 189 0314 236A4634 		.ascii	"#jF4#\267!=\267s\216\270\011\366\334.\350\270]p\306"
 189      23B7213D 
 189      B7738EB8 
 189      09F6DC2E 
 189      E8B85D70 
 190 0329 4DB0E776 		.ascii	"M\260\347vQ\317m\304\0217\227=\267K:nW\235qs\331pC\264"
 190      51CF6DC4 
 190      1137973D 
 190      B74B3A6E 
 190      579D7173 
 191 0341 2BF6AB92 		.ascii	"+\366\253\222U\233\304Q\270Z\362\262\374\325fY\276R"
 191      559BC451 
 191      B85AF2B2 
 191      FCD56659 
 191      BE52
 192 0353 5C96BF9B 		.ascii	"\\\226\277\2335\230\346U\307n\233\222`\201\207yIN\360"
 192      3598E655 
 192      C76E9B92 
 192      60818779 
 192      494EF0
 193 0366 92DC1B05 		.ascii	"\222\334\033\005g\350\310*Z\271\005\232\325\241ox\024"
 193      67E8C82A 
 193      5AB9059A 
 193      D5A16F78 
 193      14
 194 0377 7EE07BC8 		.ascii	"~\340{\310\031\230\216~\210\373\213\334_\342\376\012"
 194      19988E7E 
 194      88FB8BDC 
 194      5FE2FE0A 
 195 0387 F7C3DC8F 		.ascii	"\367\303\334\217p\377\013\367y\356\257\241/\036\023"
 195      70FF0BF7 
 195      79EEAFA1 
 195      2F1E13
 196 0396 C946EDB5 		.ascii	"\311F\355\265Sn\310v\025\274\016\023\325,\265\035.0"
 196      536EC876 
 196      15BC0E13 
 196      D52CB51D 
 196      2E30
 197 03a8 75CD056A 		.ascii	"u\315\005j\216gtX\3266\214\302\315\222o\347o6\267S\377"
 197      8E677458 
 197      D6368CC2 
 197      CD926FE7 
 197      6F36B753 
 198 03bd 6AAD4559 		.ascii	"j\255EYm)\271\342\355x\216\250;S\356\3740\370(\334\342"
 198      6D29B9E2 
 198      ED788EA8 
 198      3B53EEFC 
 198      30F828DC 
ARM GAS  /tmp/ccpjYCoh.s 			page 15


 199 03d2 DBD25FE3 		.ascii	"\333\322_\343oKF\014i\306\333\346]\351\363a\276+\335"
 199      6F4B460C 
 199      69C6DBE6 
 199      5DE9F361 
 199      BE2BDD
 200 03e5 1E7F57FA 		.ascii	"\036\177W\372\244=\367\305vyW*\276G\344\376\207\367"
 200      A43DF7C5 
 200      7679572A 
 200      BE47E4FE 
 200      87F7
 201 03f7 0881B4B9 		.ascii	"\010\201\264\271@\241\366\010;\306\272\366\334\201a"
 201      40A1F608 
 201      3BC6BAF6 
 201      DC8161
 202 0406 DE3706F8 		.ascii	"\3367\006\370\313\340\373%\203\37140\2666\327#\203\311"
 202      CBE0FB25 
 202      83F93430 
 202      B636D723 
 202      83C9
 203 0418 2F633FF1 		.ascii	"/c?\361\227\261q\300<\366\314\016\351\231mr\302\314"
 203      97B171C0 
 203      3CF6CC0E 
 203      E9996D72 
 203      C2CC
 204 042a 63C30CC1 		.ascii	"c\303\014\301\216\350\301\2668\001\253\266g\326\253"
 204      8EE8C1B6 
 204      3801ABB6 
 204      67D6AB
 205 0439 07FBB464 		.ascii	"\007\373\264d0c\315\372\264\232\011d\273\023\260Z;f"
 205      3063CDFA 
 205      B49A0964 
 205      BB13B05A 
 205      3B66
 206 044b B87BBE25 		.ascii	"\270{\276%a\335\340M*k\3062<\232VX\306\222\365\353U"
 206      61DDE04D 
 206      2A6BC632 
 206      3C9A5658 
 206      C692F5EB 
 207 0460 EE7142CC 		.ascii	"\356qB\314g\001fu\350\037%\012\177\360\265~\207\367"
 207      67016675 
 207      E81F250A 
 207      7FF0B57E 
 207      87F7
 208 0472 AF3FB9BF 		.ascii	"\257?\271\277\313\375=\356\357s\377\200\373\277\271"
 208      CBFD3DEE 
 208      EF73FF80 
 208      FBBFB9
 209 0481 7FC87D61 		.ascii	"\177\310}a\214Nwk\214N\327&\024;\335\323d'\033\032\312"
 209      8C4E776B 
 209      8C4ED726 
 209      143BDDD3 
 209      64271B1A 
 210 0496 AFBFB30D 		.ascii	"\257\277\263\015:\362\370\353\375\337BA}g\364m\253R"
 210      3AF2F8EB 
 210      FDDF4241 
 210      7D67F46D 
 210      AB52
ARM GAS  /tmp/ccpjYCoh.s 			page 16


 211 04a8 7EB4E7BB 		.ascii	"~\264\347\273s\265\333\264\347\324\243oFr\033\300\004"
 211      73B5DBB4 
 211      E7D4A36F 
 211      46721BC0 
 211      04
 212 04b9 A118CC6A 		.ascii	"\241\030\314jk\255c)\254\027$\235\033\004\255\271\311"
 212      6BAD6329 
 212      AC17249D 
 212      1B04ADB9 
 212      C9
 213 04ca 63755400 		.ascii	"cuT\000\351y\336\357\262\372\017\002\007\030;U\231\364"
 213      E979DEEF 
 213      B2FA0F02 
 213      07183B55 
 213      99F4
 214 04dc 26A8B34E 		.ascii	"&\250\263N\345\301\232 9\324&\214B\207Pj\237\376@\260"
 214      E5C19A20 
 214      39D4268C 
 214      4287506A 
 214      9FFE40B0 
 215 04f0 EED3530C 		.ascii	"\356\323S\014\254\325(\324v\320e\372\255if!\220c\212"
 215      ACD528D4 
 215      76D065FA 
 215      AD696621 
 215      90638A
 216 0503 7C0A13A4 		.ascii	"|\012\023\244\301\254\272:\277\374\227L\373\233i\334"
 216      C1ACBA3A 
 216      BFFC974C 
 216      FB9B69DC 
 217 0513 BF2A99CA 		.ascii	"\277*\231\312\244\375\321dKK2\341_\030Z\034X\274\332"
 217      A4FDD164 
 217      4B4B32E1 
 217      5F185A1C 
 217      58BCDA
 218 0526 9F782716 		.ascii	"\237x'\026\255\213\222\251\376\326t\312\037KD\343\255"
 218      AD8B92A9 
 218      FED674CA 
 218      1F4B44E3 
 218      AD
 219 0537 4DA23F21 		.ascii	"M\242?!\276\033\217\255\360\2473M\261D\246\256\231x"
 219      BE1B8FAD 
 219      F0A7334D 
 219      B144A6AE 
 219      9978
 220 0549 5AF173DE 		.ascii	"Z\361s\336\334H\246\374\265%K}\001\362\202Ut\013\215"
 220      DC48A6FC 
 220      B5254B7D 
 220      01F28255 
 220      740B8D
 221 055c 36C712A2 		.ascii	"6\307\022\242?\322$\256\244\255\361L$\263f\225\230\306"
 221      3FD224AE 
 221      A4ADF14C 
 221      24B36695 
 221      98C6
 222 056e EC099188 		.ascii	"\354\011\221\210\232_-MW\237\240+\342\34221\232I\246"
 222      9A5F2D4D 
 222      579FA02B 
ARM GAS  /tmp/ccpjYCoh.s 			page 17


 222      E2E23231 
 222      9A49A6
 223 0581 20E15E95 		.ascii	" \341^\225\212%k\244\363\213bi\355\302\024\351LX\314"
 223      8A256BA4 
 223      F38B6269 
 223      EDC214E9 
 223      4C58CC
 224 0594 84D7A433 		.ascii	"\204\327\2443bK\003M4\305\305T#\206\246b\2315\025\315"
 224      624B034D 
 224      34C5C554 
 224      2386A662 
 224      993515CD 
 225 05a8 F2770E17 		.ascii	"\362w\016\027\210\2134\325(&\220\353\333\263\365\222"
 225      888B34D5 
 225      282690EB 
 225      DBB3F592 
 226 05b8 15A1E2EA 		.ascii	"\025\241\342\352\214?\2608\034\014\027\011G\223)1\022"
 226      8C3FB038 
 226      1C0C1709 
 226      47932931 
 226      12
 227 05c9 6D998DDC 		.ascii	"m\231\215\334\274K\226\005\003\2217\220\251;\030\256"
 227      BC4B9605 
 227      03913790 
 227      A93B18AE 
 228 05d9 0F7943F5 		.ascii	"\017yC\365\350\227\325/\232\355\016\006\352C\236\220"
 228      E897D52F 
 228      9AED0E06 
 228      EA439E90 
 229 05e9 FC6D0E5E 		.ascii	"\374m\016^l\324.\316\305\213\272\257\363\212\243\027"
 229      6CD42ECE 
 229      C58BBAAF 
 229      F38AA317 
 230 05f9 8560A327 		.ascii	"\205`\243'\034x\225\003\226\005\032\227\006\027ah8T"
 230      1C789503 
 230      96051A97 
 230      06176168 
 230      3854
 231 060b B630180A 		.ascii	"\2660\030\012\204\\a\264@@K\234\343\01274\226\205\033"
 231      845C61B4 
 231      40404B9C 
 231      E30A3734 
 231      96851B
 232 061e 30C21D6D 		.ascii	"0\302\035m\246)O$\262\2625\021\215D\036S\007u/\317y"
 232      A6294F24 
 232      B2B23511 
 232      8D441E53 
 232      07752FCF 
 233 0633 69DE7F0B 		.ascii	"i\336\177\013\\\325\301"
 233      5CD5C1
 234              		.text
 235              		.section	.gnu.lto_.symtab.fa122b7335f5f524,"",%progbits
 236 0000 6E766963 		.ascii	"nvicEnableVector\000\000\000\000\000\000\000\000\000"
 236      456E6162 
 236      6C655665 
 236      63746F72 
 236      00000000 
ARM GAS  /tmp/ccpjYCoh.s 			page 18


 237 0019 000000A1 		.ascii	"\000\000\000\241\000\000\000nvicDisableVector\000\000"
 237      0000006E 
 237      76696344 
 237      69736162 
 237      6C655665 
 238 0033 00000000 		.ascii	"\000\000\000\000\000\000\000\000\000\000\262\000\000"
 238      00000000 
 238      0000B200 
 238      00
 239 0040 006E7669 		.ascii	"\000nvicSetSystemHandlerPriority\000\000\000\000\000"
 239      63536574 
 239      53797374 
 239      656D4861 
 239      6E646C65 
 240 0062 00000000 		.ascii	"\000\000\000\000\000\000\000\270\000\000\000nvicCle"
 240      000000B8 
 240      0000006E 
 240      76696343 
 240      6C65
 241 0074 61725065 		.ascii	"arPending\000\000\000\000\000\000\000\000\000\000\000"
 241      6E64696E 
 241      67000000 
 241      00000000 
 241      00000000 
 242 0088 00BE0000 		.ascii	"\000\276\000\000\000"
 242      00
 243              		.text
 244              		.section	.gnu.lto_.opts,"",%progbits
 245 0000 272D6D63 		.ascii	"'-mcpu=cortex-m0' '-mno-thumb-interwork' '-mthumb' "
 245      70753D63 
 245      6F727465 
 245      782D6D30 
 245      2720272D 
 246 0033 272D6767 		.ascii	"'-ggdb' '-O2' '-fomit-frame-pointer' '-falign-funct"
 246      64622720 
 246      272D4F32 
 246      2720272D 
 246      666F6D69 
 247 0066 696F6E73 		.ascii	"ions=16' '-ffunction-sections' '-fdata-sections' '-"
 247      3D313627 
 247      20272D66 
 247      66756E63 
 247      74696F6E 
 248 0099 666E6F2D 		.ascii	"fno-common' '-flto'\000"
 248      636F6D6D 
 248      6F6E2720 
 248      272D666C 
 248      746F2700 
 249              		.text
 250              		.cfi_sections	.debug_frame
 251              		.section	.text.nvicEnableVector,"ax",%progbits
 252              		.align	2
 253              		.p2align 4,,15
 254              		.global	nvicEnableVector
 255              		.code	16
 256              		.thumb_func
 257              		.type	nvicEnableVector, %function
ARM GAS  /tmp/ccpjYCoh.s 			page 19


 258              	nvicEnableVector:
 259              	.LFB179:
 260              		.file 1 "../../../os/hal/ports/common/ARMCMx/nvic.c"
 261              		.loc 1 57 0
 262              		.cfi_startproc
 263              	.LVL0:
 264              		.loc 1 60 0
 265 0000 8208     		lsr	r2, r0, #2
 266 0002 104B     		ldr	r3, .L2
 267 0004 9200     		lsl	r2, r2, #2
 268              		.loc 1 57 0
 269 0006 70B5     		push	{r4, r5, r6, lr}
 270              		.cfi_def_cfa_offset 16
 271              		.cfi_offset 4, -16
 272              		.cfi_offset 5, -12
 273              		.cfi_offset 6, -8
 274              		.cfi_offset 14, -4
 275 0008 D218     		add	r2, r2, r3
 276              		.loc 1 60 0
 277 000a 0324     		mov	r4, #3
 278 000c C023     		mov	r3, #192
 279 000e 9B00     		lsl	r3, r3, #2
 280 0010 0440     		and	r4, r0
 281 0012 D558     		ldr	r5, [r2, r3]
 282 0014 E400     		lsl	r4, r4, #3
 283 0016 FF26     		mov	r6, #255
 284              		.loc 1 61 0
 285 0018 8901     		lsl	r1, r1, #6
 286              	.LVL1:
 287              		.loc 1 60 0
 288 001a A640     		lsl	r6, r6, r4
 289              		.loc 1 61 0
 290 001c A140     		lsl	r1, r1, r4
 291              		.loc 1 60 0
 292 001e B543     		bic	r5, r6
 293              		.loc 1 61 0
 294 0020 0C1C     		mov	r4, r1
 295              		.loc 1 60 0
 296 0022 2C43     		orr	r4, r5
 297 0024 D450     		str	r4, [r2, r3]
 298              		.loc 1 65 0
 299 0026 1F23     		mov	r3, #31
 300 0028 0340     		and	r3, r0
 301 002a 0122     		mov	r2, #1
 302 002c 9A40     		lsl	r2, r2, r3
 303 002e 131C     		mov	r3, r2
 304 0030 4009     		lsr	r0, r0, #5
 305              	.LVL2:
 306 0032 044A     		ldr	r2, .L2
 307 0034 8000     		lsl	r0, r0, #2
 308 0036 8018     		add	r0, r0, r2
 309 0038 C022     		mov	r2, #192
 310 003a 5200     		lsl	r2, r2, #1
 311 003c 8350     		str	r3, [r0, r2]
 312              		.loc 1 67 0
 313              		@ sp needed
 314              		.loc 1 66 0
ARM GAS  /tmp/ccpjYCoh.s 			page 20


 315 003e 0360     		str	r3, [r0]
 316              		.loc 1 67 0
 317 0040 70BD     		pop	{r4, r5, r6, pc}
 318              	.L3:
 319 0042 C046     		.align	2
 320              	.L2:
 321 0044 00E100E0 		.word	-536813312
 322              		.cfi_endproc
 323              	.LFE179:
 324              		.size	nvicEnableVector, .-nvicEnableVector
 325 0048 C046C046 		.section	.text.nvicDisableVector,"ax",%progbits
 325      C046C046 
 326              		.align	2
 327              		.p2align 4,,15
 328              		.global	nvicDisableVector
 329              		.code	16
 330              		.thumb_func
 331              		.type	nvicDisableVector, %function
 332              	nvicDisableVector:
 333              	.LFB180:
 334              		.loc 1 74 0
 335              		.cfi_startproc
 336              	.LVL3:
 337              		.loc 1 76 0
 338 0000 1F21     		mov	r1, #31
 339 0002 0140     		and	r1, r0
 340 0004 0123     		mov	r3, #1
 341 0006 4209     		lsr	r2, r0, #5
 342 0008 8B40     		lsl	r3, r3, r1
 343 000a 191C     		mov	r1, r3
 344 000c 2032     		add	r2, r2, #32
 345 000e 094B     		ldr	r3, .L5
 346 0010 9200     		lsl	r2, r2, #2
 347              		.loc 1 74 0
 348 0012 10B5     		push	{r4, lr}
 349              		.cfi_def_cfa_offset 8
 350              		.cfi_offset 4, -8
 351              		.cfi_offset 14, -4
 352              		.loc 1 76 0
 353 0014 D150     		str	r1, [r2, r3]
 354              		.loc 1 78 0
 355 0016 8208     		lsr	r2, r0, #2
 356 0018 9200     		lsl	r2, r2, #2
 357 001a D218     		add	r2, r2, r3
 358 001c 0324     		mov	r4, #3
 359 001e C023     		mov	r3, #192
 360 0020 9B00     		lsl	r3, r3, #2
 361 0022 2040     		and	r0, r4
 362              	.LVL4:
 363 0024 D158     		ldr	r1, [r2, r3]
 364 0026 C000     		lsl	r0, r0, #3
 365 0028 FF24     		mov	r4, #255
 366 002a 8440     		lsl	r4, r4, r0
 367 002c A143     		bic	r1, r4
 368 002e D150     		str	r1, [r2, r3]
 369              		.loc 1 82 0
 370              		@ sp needed
ARM GAS  /tmp/ccpjYCoh.s 			page 21


 371 0030 10BD     		pop	{r4, pc}
 372              	.L6:
 373 0032 C046     		.align	2
 374              	.L5:
 375 0034 00E100E0 		.word	-536813312
 376              		.cfi_endproc
 377              	.LFE180:
 378              		.size	nvicDisableVector, .-nvicDisableVector
 379 0038 C046C046 		.section	.text.nvicSetSystemHandlerPriority,"ax",%progbits
 379      C046C046 
 380              		.align	2
 381              		.p2align 4,,15
 382              		.global	nvicSetSystemHandlerPriority
 383              		.code	16
 384              		.thumb_func
 385              		.type	nvicSetSystemHandlerPriority, %function
 386              	nvicSetSystemHandlerPriority:
 387              	.LFB181:
 388              		.loc 1 90 0
 389              		.cfi_startproc
 390              	.LVL5:
 391              		.loc 1 95 0
 392 0000 0F23     		mov	r3, #15
 393 0002 0340     		and	r3, r0
 394 0004 083B     		sub	r3, r3, #8
 395 0006 094A     		ldr	r2, .L8
 396 0008 9B08     		lsr	r3, r3, #2
 397              		.loc 1 90 0
 398 000a 10B5     		push	{r4, lr}
 399              		.cfi_def_cfa_offset 8
 400              		.cfi_offset 4, -8
 401              		.cfi_offset 14, -4
 402 000c 9B00     		lsl	r3, r3, #2
 403              		.loc 1 95 0
 404 000e 0324     		mov	r4, #3
 405 0010 9B18     		add	r3, r3, r2
 406 0012 2040     		and	r0, r4
 407              	.LVL6:
 408 0014 DA69     		ldr	r2, [r3, #28]
 409 0016 C000     		lsl	r0, r0, #3
 410 0018 FF24     		mov	r4, #255
 411              		.loc 1 96 0
 412 001a 8901     		lsl	r1, r1, #6
 413              	.LVL7:
 414              		.loc 1 95 0
 415 001c 8440     		lsl	r4, r4, r0
 416              		.loc 1 96 0
 417 001e 8140     		lsl	r1, r1, r0
 418              		.loc 1 95 0
 419 0020 A243     		bic	r2, r4
 420              		.loc 1 96 0
 421 0022 081C     		mov	r0, r1
 422              		.loc 1 95 0
 423 0024 1043     		orr	r0, r2
 424 0026 D861     		str	r0, [r3, #28]
 425              		.loc 1 102 0
 426              		@ sp needed
ARM GAS  /tmp/ccpjYCoh.s 			page 22


 427 0028 10BD     		pop	{r4, pc}
 428              	.L9:
 429 002a C046     		.align	2
 430              	.L8:
 431 002c 00ED00E0 		.word	-536810240
 432              		.cfi_endproc
 433              	.LFE181:
 434              		.size	nvicSetSystemHandlerPriority, .-nvicSetSystemHandlerPriority
 435              		.section	.text.nvicClearPending,"ax",%progbits
 436              		.align	2
 437              		.p2align 4,,15
 438              		.global	nvicClearPending
 439              		.code	16
 440              		.thumb_func
 441              		.type	nvicClearPending, %function
 442              	nvicClearPending:
 443              	.LFB182:
 444              		.loc 1 109 0
 445              		.cfi_startproc
 446              	.LVL8:
 447              		.loc 1 111 0
 448 0000 1F23     		mov	r3, #31
 449 0002 4209     		lsr	r2, r0, #5
 450 0004 1840     		and	r0, r3
 451              	.LVL9:
 452 0006 0123     		mov	r3, #1
 453 0008 8340     		lsl	r3, r3, r0
 454 000a 181C     		mov	r0, r3
 455 000c 6032     		add	r2, r2, #96
 456 000e 024B     		ldr	r3, .L11
 457 0010 9200     		lsl	r2, r2, #2
 458 0012 D050     		str	r0, [r2, r3]
 459              		.loc 1 112 0
 460              		@ sp needed
 461 0014 7047     		bx	lr
 462              	.L12:
 463 0016 C046     		.align	2
 464              	.L11:
 465 0018 00E100E0 		.word	-536813312
 466              		.cfi_endproc
 467              	.LFE182:
 468              		.size	nvicClearPending, .-nvicClearPending
 469 001c C046C046 		.text
 470              	.Letext0:
 471              		.file 2 "/usr/include/newlib/machine/_default_types.h"
 472              		.file 3 "/usr/include/newlib/stdint.h"
 473              		.file 4 "../../../os/common/ports/ARMCMx/compilers/GCC/chtypes.h"
 474              		.file 5 "../../../os/rt/include/chsystypes.h"
 475              		.file 6 "../../../os/rt/include/chschd.h"
 476              		.file 7 "../../../os/common/ext/CMSIS/include/core_cm0.h"
 477              		.file 8 "../../../os/common/ports/ARMCMx/chcore.h"
 478              		.file 9 "../../../os/common/ports/ARMCMx/chcore_v6m.h"
 479              		.file 10 "../../../os/rt/include/chsem.h"
 480              		.file 11 "../../../os/rt/include/chmtx.h"
 481              		.section	.debug_info,"",%progbits
 482              	.Ldebug_info0:
 483 0000 44080000 		.4byte	0x844
ARM GAS  /tmp/ccpjYCoh.s 			page 23


 484 0004 0400     		.2byte	0x4
 485 0006 00000000 		.4byte	.Ldebug_abbrev0
 486 000a 04       		.byte	0x4
 487 000b 01       		.uleb128 0x1
 488 000c 1B010000 		.4byte	.LASF110
 489 0010 01       		.byte	0x1
 490 0011 20000000 		.4byte	.LASF111
 491 0015 02050000 		.4byte	.LASF112
 492 0019 00000000 		.4byte	.Ldebug_ranges0+0
 493 001d 00000000 		.4byte	0
 494 0021 00000000 		.4byte	.Ldebug_line0
 495 0025 02       		.uleb128 0x2
 496 0026 04       		.byte	0x4
 497 0027 05       		.byte	0x5
 498 0028 696E7400 		.ascii	"int\000"
 499 002c 03       		.uleb128 0x3
 500 002d 04       		.byte	0x4
 501 002e 07       		.byte	0x7
 502 002f 6D000000 		.4byte	.LASF0
 503 0033 03       		.uleb128 0x3
 504 0034 01       		.byte	0x1
 505 0035 06       		.byte	0x6
 506 0036 BF040000 		.4byte	.LASF1
 507 003a 04       		.uleb128 0x4
 508 003b E8030000 		.4byte	.LASF4
 509 003f 02       		.byte	0x2
 510 0040 1D       		.byte	0x1d
 511 0041 45000000 		.4byte	0x45
 512 0045 03       		.uleb128 0x3
 513 0046 01       		.byte	0x1
 514 0047 08       		.byte	0x8
 515 0048 56040000 		.4byte	.LASF2
 516 004c 03       		.uleb128 0x3
 517 004d 02       		.byte	0x2
 518 004e 05       		.byte	0x5
 519 004f A7030000 		.4byte	.LASF3
 520 0053 04       		.uleb128 0x4
 521 0054 26020000 		.4byte	.LASF5
 522 0058 02       		.byte	0x2
 523 0059 2B       		.byte	0x2b
 524 005a 5E000000 		.4byte	0x5e
 525 005e 03       		.uleb128 0x3
 526 005f 02       		.byte	0x2
 527 0060 07       		.byte	0x7
 528 0061 D1040000 		.4byte	.LASF6
 529 0065 04       		.uleb128 0x4
 530 0066 8E000000 		.4byte	.LASF7
 531 006a 02       		.byte	0x2
 532 006b 3F       		.byte	0x3f
 533 006c 70000000 		.4byte	0x70
 534 0070 03       		.uleb128 0x3
 535 0071 04       		.byte	0x4
 536 0072 05       		.byte	0x5
 537 0073 B1030000 		.4byte	.LASF8
 538 0077 04       		.uleb128 0x4
 539 0078 64040000 		.4byte	.LASF9
 540 007c 02       		.byte	0x2
ARM GAS  /tmp/ccpjYCoh.s 			page 24


 541 007d 41       		.byte	0x41
 542 007e 82000000 		.4byte	0x82
 543 0082 03       		.uleb128 0x3
 544 0083 04       		.byte	0x4
 545 0084 07       		.byte	0x7
 546 0085 1B040000 		.4byte	.LASF10
 547 0089 03       		.uleb128 0x3
 548 008a 08       		.byte	0x8
 549 008b 05       		.byte	0x5
 550 008c 0F030000 		.4byte	.LASF11
 551 0090 04       		.uleb128 0x4
 552 0091 91020000 		.4byte	.LASF12
 553 0095 02       		.byte	0x2
 554 0096 5B       		.byte	0x5b
 555 0097 9B000000 		.4byte	0x9b
 556 009b 03       		.uleb128 0x3
 557 009c 08       		.byte	0x8
 558 009d 07       		.byte	0x7
 559 009e 0F020000 		.4byte	.LASF13
 560 00a2 04       		.uleb128 0x4
 561 00a3 E5020000 		.4byte	.LASF14
 562 00a7 03       		.byte	0x3
 563 00a8 2A       		.byte	0x2a
 564 00a9 3A000000 		.4byte	0x3a
 565 00ad 04       		.uleb128 0x4
 566 00ae 5B030000 		.4byte	.LASF15
 567 00b2 03       		.byte	0x3
 568 00b3 36       		.byte	0x36
 569 00b4 53000000 		.4byte	0x53
 570 00b8 04       		.uleb128 0x4
 571 00b9 40040000 		.4byte	.LASF16
 572 00bd 03       		.byte	0x3
 573 00be 41       		.byte	0x41
 574 00bf 65000000 		.4byte	0x65
 575 00c3 04       		.uleb128 0x4
 576 00c4 BE010000 		.4byte	.LASF17
 577 00c8 03       		.byte	0x3
 578 00c9 42       		.byte	0x42
 579 00ca 77000000 		.4byte	0x77
 580 00ce 04       		.uleb128 0x4
 581 00cf D9030000 		.4byte	.LASF18
 582 00d3 03       		.byte	0x3
 583 00d4 4E       		.byte	0x4e
 584 00d5 90000000 		.4byte	0x90
 585 00d9 04       		.uleb128 0x4
 586 00da 48030000 		.4byte	.LASF19
 587 00de 04       		.byte	0x4
 588 00df 3C       		.byte	0x3c
 589 00e0 A2000000 		.4byte	0xa2
 590 00e4 04       		.uleb128 0x4
 591 00e5 D6020000 		.4byte	.LASF20
 592 00e9 04       		.byte	0x4
 593 00ea 3D       		.byte	0x3d
 594 00eb A2000000 		.4byte	0xa2
 595 00ef 04       		.uleb128 0x4
 596 00f0 13040000 		.4byte	.LASF21
 597 00f4 04       		.byte	0x4
ARM GAS  /tmp/ccpjYCoh.s 			page 25


 598 00f5 3E       		.byte	0x3e
 599 00f6 A2000000 		.4byte	0xa2
 600 00fa 04       		.uleb128 0x4
 601 00fb ED010000 		.4byte	.LASF22
 602 00ff 04       		.byte	0x4
 603 0100 40       		.byte	0x40
 604 0101 C3000000 		.4byte	0xc3
 605 0105 04       		.uleb128 0x4
 606 0106 23030000 		.4byte	.LASF23
 607 010a 04       		.byte	0x4
 608 010b 41       		.byte	0x41
 609 010c B8000000 		.4byte	0xb8
 610 0110 04       		.uleb128 0x4
 611 0111 CF010000 		.4byte	.LASF24
 612 0115 04       		.byte	0x4
 613 0116 43       		.byte	0x43
 614 0117 C3000000 		.4byte	0xc3
 615 011b 04       		.uleb128 0x4
 616 011c 31020000 		.4byte	.LASF25
 617 0120 04       		.byte	0x4
 618 0121 45       		.byte	0x45
 619 0122 B8000000 		.4byte	0xb8
 620 0126 04       		.uleb128 0x4
 621 0127 51000000 		.4byte	.LASF26
 622 012b 05       		.byte	0x5
 623 012c 35       		.byte	0x35
 624 012d AD000000 		.4byte	0xad
 625 0131 04       		.uleb128 0x4
 626 0132 6C020000 		.4byte	.LASF27
 627 0136 05       		.byte	0x5
 628 0137 3F       		.byte	0x3f
 629 0138 3C010000 		.4byte	0x13c
 630 013c 05       		.uleb128 0x5
 631 013d F6020000 		.4byte	.LASF45
 632 0141 44       		.byte	0x44
 633 0142 06       		.byte	0x6
 634 0143 9A       		.byte	0x9a
 635 0144 1A020000 		.4byte	0x21a
 636 0148 06       		.uleb128 0x6
 637 0149 3A040000 		.4byte	.LASF28
 638 014d 06       		.byte	0x6
 639 014e 9B       		.byte	0x9b
 640 014f 4F020000 		.4byte	0x24f
 641 0153 00       		.byte	0
 642 0154 06       		.uleb128 0x6
 643 0155 AD020000 		.4byte	.LASF29
 644 0159 06       		.byte	0x6
 645 015a 9C       		.byte	0x9c
 646 015b FA000000 		.4byte	0xfa
 647 015f 08       		.byte	0x8
 648 0160 07       		.uleb128 0x7
 649 0161 63747800 		.ascii	"ctx\000"
 650 0165 06       		.byte	0x6
 651 0166 9D       		.byte	0x9d
 652 0167 DC050000 		.4byte	0x5dc
 653 016b 0C       		.byte	0xc
 654 016c 06       		.uleb128 0x6
ARM GAS  /tmp/ccpjYCoh.s 			page 26


 655 016d 50040000 		.4byte	.LASF30
 656 0171 06       		.byte	0x6
 657 0172 9F       		.byte	0x9f
 658 0173 25020000 		.4byte	0x225
 659 0177 10       		.byte	0x10
 660 0178 06       		.uleb128 0x6
 661 0179 FC040000 		.4byte	.LASF31
 662 017d 06       		.byte	0x6
 663 017e A0       		.byte	0xa0
 664 017f 25020000 		.4byte	0x225
 665 0183 14       		.byte	0x14
 666 0184 06       		.uleb128 0x6
 667 0185 05040000 		.4byte	.LASF32
 668 0189 06       		.byte	0x6
 669 018a A7       		.byte	0xa7
 670 018b 37070000 		.4byte	0x737
 671 018f 18       		.byte	0x18
 672 0190 06       		.uleb128 0x6
 673 0191 CA020000 		.4byte	.LASF33
 674 0195 06       		.byte	0x6
 675 0196 B0       		.byte	0xb0
 676 0197 49070000 		.4byte	0x749
 677 019b 1C       		.byte	0x1c
 678 019c 06       		.uleb128 0x6
 679 019d A0040000 		.4byte	.LASF34
 680 01a1 06       		.byte	0x6
 681 01a2 B5       		.byte	0xb5
 682 01a3 E4000000 		.4byte	0xe4
 683 01a7 20       		.byte	0x20
 684 01a8 06       		.uleb128 0x6
 685 01a9 4B000000 		.4byte	.LASF35
 686 01ad 06       		.byte	0x6
 687 01ae B9       		.byte	0xb9
 688 01af D9000000 		.4byte	0xd9
 689 01b3 21       		.byte	0x21
 690 01b4 06       		.uleb128 0x6
 691 01b5 98000000 		.4byte	.LASF36
 692 01b9 06       		.byte	0x6
 693 01ba BE       		.byte	0xbe
 694 01bb EF000000 		.4byte	0xef
 695 01bf 22       		.byte	0x22
 696 01c0 08       		.uleb128 0x8
 697 01c1 7500     		.ascii	"u\000"
 698 01c3 06       		.byte	0x6
 699 01c4 0F01     		.2byte	0x10f
 700 01c6 6C060000 		.4byte	0x66c
 701 01ca 24       		.byte	0x24
 702 01cb 09       		.uleb128 0x9
 703 01cc 6F040000 		.4byte	.LASF37
 704 01d0 06       		.byte	0x6
 705 01d1 1401     		.2byte	0x114
 706 01d3 2B020000 		.4byte	0x22b
 707 01d7 28       		.byte	0x28
 708 01d8 09       		.uleb128 0x9
 709 01d9 ED020000 		.4byte	.LASF38
 710 01dd 06       		.byte	0x6
 711 01de 1A01     		.2byte	0x11a
ARM GAS  /tmp/ccpjYCoh.s 			page 27


 712 01e0 4F020000 		.4byte	0x24f
 713 01e4 2C       		.byte	0x2c
 714 01e5 09       		.uleb128 0x9
 715 01e6 64000000 		.4byte	.LASF39
 716 01ea 06       		.byte	0x6
 717 01eb 2001     		.2byte	0x120
 718 01ed 10010000 		.4byte	0x110
 719 01f1 34       		.byte	0x34
 720 01f2 09       		.uleb128 0x9
 721 01f3 4D020000 		.4byte	.LASF40
 722 01f7 06       		.byte	0x6
 723 01f8 2701     		.2byte	0x127
 724 01fa 31070000 		.4byte	0x731
 725 01fe 38       		.byte	0x38
 726 01ff 09       		.uleb128 0x9
 727 0200 5B000000 		.4byte	.LASF41
 728 0204 06       		.byte	0x6
 729 0205 2B01     		.2byte	0x12b
 730 0207 FA000000 		.4byte	0xfa
 731 020b 3C       		.byte	0x3c
 732 020c 09       		.uleb128 0x9
 733 020d 47050000 		.4byte	.LASF42
 734 0211 06       		.byte	0x6
 735 0212 3201     		.2byte	0x132
 736 0214 02030000 		.4byte	0x302
 737 0218 40       		.byte	0x40
 738 0219 00       		.byte	0
 739 021a 04       		.uleb128 0x4
 740 021b B7020000 		.4byte	.LASF43
 741 021f 05       		.byte	0x5
 742 0220 44       		.byte	0x44
 743 0221 25020000 		.4byte	0x225
 744 0225 0A       		.uleb128 0xa
 745 0226 04       		.byte	0x4
 746 0227 31010000 		.4byte	0x131
 747 022b 04       		.uleb128 0x4
 748 022c 7F000000 		.4byte	.LASF44
 749 0230 05       		.byte	0x5
 750 0231 49       		.byte	0x49
 751 0232 36020000 		.4byte	0x236
 752 0236 05       		.uleb128 0x5
 753 0237 00000000 		.4byte	.LASF46
 754 023b 04       		.byte	0x4
 755 023c 06       		.byte	0x6
 756 023d 88       		.byte	0x88
 757 023e 4F020000 		.4byte	0x24f
 758 0242 06       		.uleb128 0x6
 759 0243 7A000000 		.4byte	.LASF47
 760 0247 06       		.byte	0x6
 761 0248 89       		.byte	0x89
 762 0249 25020000 		.4byte	0x225
 763 024d 00       		.byte	0
 764 024e 00       		.byte	0
 765 024f 04       		.uleb128 0x4
 766 0250 3D020000 		.4byte	.LASF48
 767 0254 05       		.byte	0x5
 768 0255 50       		.byte	0x50
ARM GAS  /tmp/ccpjYCoh.s 			page 28


 769 0256 5A020000 		.4byte	0x25a
 770 025a 05       		.uleb128 0x5
 771 025b F1000000 		.4byte	.LASF49
 772 025f 08       		.byte	0x8
 773 0260 06       		.byte	0x6
 774 0261 8F       		.byte	0x8f
 775 0262 7F020000 		.4byte	0x27f
 776 0266 06       		.uleb128 0x6
 777 0267 7A000000 		.4byte	.LASF47
 778 026b 06       		.byte	0x6
 779 026c 90       		.byte	0x90
 780 026d 25020000 		.4byte	0x225
 781 0271 00       		.byte	0
 782 0272 06       		.uleb128 0x6
 783 0273 EC000000 		.4byte	.LASF50
 784 0277 06       		.byte	0x6
 785 0278 91       		.byte	0x91
 786 0279 25020000 		.4byte	0x225
 787 027d 04       		.byte	0x4
 788 027e 00       		.byte	0
 789 027f 04       		.uleb128 0x4
 790 0280 2D040000 		.4byte	.LASF51
 791 0284 05       		.byte	0x5
 792 0285 57       		.byte	0x57
 793 0286 8A020000 		.4byte	0x28a
 794 028a 0B       		.uleb128 0xb
 795 028b C0000000 		.4byte	.LASF52
 796 028f 1C       		.byte	0x1c
 797 0290 06       		.byte	0x6
 798 0291 6A01     		.2byte	0x16a
 799 0293 E6020000 		.4byte	0x2e6
 800 0297 09       		.uleb128 0x9
 801 0298 3A040000 		.4byte	.LASF28
 802 029c 06       		.byte	0x6
 803 029d 6B01     		.2byte	0x16b
 804 029f 4F020000 		.4byte	0x24f
 805 02a3 00       		.byte	0
 806 02a4 09       		.uleb128 0x9
 807 02a5 AD020000 		.4byte	.LASF29
 808 02a9 06       		.byte	0x6
 809 02aa 6C01     		.2byte	0x16c
 810 02ac FA000000 		.4byte	0xfa
 811 02b0 08       		.byte	0x8
 812 02b1 08       		.uleb128 0x8
 813 02b2 63747800 		.ascii	"ctx\000"
 814 02b6 06       		.byte	0x6
 815 02b7 6E01     		.2byte	0x16e
 816 02b9 DC050000 		.4byte	0x5dc
 817 02bd 0C       		.byte	0xc
 818 02be 09       		.uleb128 0x9
 819 02bf 50040000 		.4byte	.LASF30
 820 02c3 06       		.byte	0x6
 821 02c4 7101     		.2byte	0x171
 822 02c6 25020000 		.4byte	0x225
 823 02ca 10       		.byte	0x10
 824 02cb 09       		.uleb128 0x9
 825 02cc FC040000 		.4byte	.LASF31
ARM GAS  /tmp/ccpjYCoh.s 			page 29


 826 02d0 06       		.byte	0x6
 827 02d1 7201     		.2byte	0x172
 828 02d3 25020000 		.4byte	0x225
 829 02d7 14       		.byte	0x14
 830 02d8 09       		.uleb128 0x9
 831 02d9 EF040000 		.4byte	.LASF53
 832 02dd 06       		.byte	0x6
 833 02de 7501     		.2byte	0x175
 834 02e0 25020000 		.4byte	0x225
 835 02e4 18       		.byte	0x18
 836 02e5 00       		.byte	0
 837 02e6 04       		.uleb128 0x4
 838 02e7 02010000 		.4byte	.LASF54
 839 02eb 05       		.byte	0x5
 840 02ec 5C       		.byte	0x5c
 841 02ed F1020000 		.4byte	0x2f1
 842 02f1 0A       		.uleb128 0xa
 843 02f2 04       		.byte	0x4
 844 02f3 F7020000 		.4byte	0x2f7
 845 02f7 0C       		.uleb128 0xc
 846 02f8 02030000 		.4byte	0x302
 847 02fc 0D       		.uleb128 0xd
 848 02fd 02030000 		.4byte	0x302
 849 0301 00       		.byte	0
 850 0302 0E       		.uleb128 0xe
 851 0303 04       		.byte	0x4
 852 0304 04       		.uleb128 0x4
 853 0305 29030000 		.4byte	.LASF55
 854 0309 05       		.byte	0x5
 855 030a 61       		.byte	0x61
 856 030b 0F030000 		.4byte	0x30f
 857 030f 0B       		.uleb128 0xb
 858 0310 FE010000 		.4byte	.LASF56
 859 0314 14       		.byte	0x14
 860 0315 06       		.byte	0x6
 861 0316 4501     		.2byte	0x145
 862 0318 5E030000 		.4byte	0x35e
 863 031c 09       		.uleb128 0x9
 864 031d 7A000000 		.4byte	.LASF47
 865 0321 06       		.byte	0x6
 866 0322 4601     		.2byte	0x146
 867 0324 4F070000 		.4byte	0x74f
 868 0328 00       		.byte	0
 869 0329 09       		.uleb128 0x9
 870 032a EC000000 		.4byte	.LASF50
 871 032e 06       		.byte	0x6
 872 032f 4701     		.2byte	0x147
 873 0331 4F070000 		.4byte	0x74f
 874 0335 04       		.byte	0x4
 875 0336 09       		.uleb128 0x9
 876 0337 CB040000 		.4byte	.LASF57
 877 033b 06       		.byte	0x6
 878 033c 4801     		.2byte	0x148
 879 033e 26010000 		.4byte	0x126
 880 0342 08       		.byte	0x8
 881 0343 09       		.uleb128 0x9
 882 0344 CE000000 		.4byte	.LASF58
ARM GAS  /tmp/ccpjYCoh.s 			page 30


 883 0348 06       		.byte	0x6
 884 0349 4901     		.2byte	0x149
 885 034b E6020000 		.4byte	0x2e6
 886 034f 0C       		.byte	0xc
 887 0350 08       		.uleb128 0x8
 888 0351 70617200 		.ascii	"par\000"
 889 0355 06       		.byte	0x6
 890 0356 4B01     		.2byte	0x14b
 891 0358 02030000 		.4byte	0x302
 892 035c 10       		.byte	0x10
 893 035d 00       		.byte	0
 894 035e 04       		.uleb128 0x4
 895 035f 77040000 		.4byte	.LASF59
 896 0363 05       		.byte	0x5
 897 0364 66       		.byte	0x66
 898 0365 69030000 		.4byte	0x369
 899 0369 0B       		.uleb128 0xb
 900 036a 55020000 		.4byte	.LASF60
 901 036e 0C       		.byte	0xc
 902 036f 06       		.byte	0x6
 903 0370 5501     		.2byte	0x155
 904 0372 AB030000 		.4byte	0x3ab
 905 0376 09       		.uleb128 0x9
 906 0377 7A000000 		.4byte	.LASF47
 907 037b 06       		.byte	0x6
 908 037c 5601     		.2byte	0x156
 909 037e 4F070000 		.4byte	0x74f
 910 0382 00       		.byte	0
 911 0383 09       		.uleb128 0x9
 912 0384 EC000000 		.4byte	.LASF50
 913 0388 06       		.byte	0x6
 914 0389 5801     		.2byte	0x158
 915 038b 4F070000 		.4byte	0x74f
 916 038f 04       		.byte	0x4
 917 0390 09       		.uleb128 0x9
 918 0391 CB040000 		.4byte	.LASF57
 919 0395 06       		.byte	0x6
 920 0396 5A01     		.2byte	0x15a
 921 0398 26010000 		.4byte	0x126
 922 039c 08       		.byte	0x8
 923 039d 09       		.uleb128 0x9
 924 039e D0030000 		.4byte	.LASF61
 925 03a2 06       		.byte	0x6
 926 03a3 6201     		.2byte	0x162
 927 03a5 26010000 		.4byte	0x126
 928 03a9 0A       		.byte	0xa
 929 03aa 00       		.byte	0
 930 03ab 04       		.uleb128 0x4
 931 03ac 00030000 		.4byte	.LASF62
 932 03b0 05       		.byte	0x5
 933 03b1 6B       		.byte	0x6b
 934 03b2 B6030000 		.4byte	0x3b6
 935 03b6 0B       		.uleb128 0xb
 936 03b7 0B010000 		.4byte	.LASF63
 937 03bb 04       		.byte	0x4
 938 03bc 06       		.byte	0x6
 939 03bd 7C01     		.2byte	0x17c
ARM GAS  /tmp/ccpjYCoh.s 			page 31


 940 03bf D1030000 		.4byte	0x3d1
 941 03c3 09       		.uleb128 0x9
 942 03c4 3E030000 		.4byte	.LASF64
 943 03c8 06       		.byte	0x6
 944 03c9 8401     		.2byte	0x184
 945 03cb 55070000 		.4byte	0x755
 946 03cf 00       		.byte	0
 947 03d0 00       		.byte	0
 948 03d1 04       		.uleb128 0x4
 949 03d2 A6040000 		.4byte	.LASF65
 950 03d6 05       		.byte	0x5
 951 03d7 70       		.byte	0x70
 952 03d8 DC030000 		.4byte	0x3dc
 953 03dc 0B       		.uleb128 0xb
 954 03dd C6030000 		.4byte	.LASF66
 955 03e1 70       		.byte	0x70
 956 03e2 06       		.byte	0x6
 957 03e3 9C01     		.2byte	0x19c
 958 03e5 1E040000 		.4byte	0x41e
 959 03e9 09       		.uleb128 0x9
 960 03ea E2030000 		.4byte	.LASF67
 961 03ee 06       		.byte	0x6
 962 03ef A001     		.2byte	0x1a0
 963 03f1 7F020000 		.4byte	0x27f
 964 03f5 00       		.byte	0
 965 03f6 09       		.uleb128 0x9
 966 03f7 AC000000 		.4byte	.LASF68
 967 03fb 06       		.byte	0x6
 968 03fc A401     		.2byte	0x1a4
 969 03fe 5E030000 		.4byte	0x35e
 970 0402 1C       		.byte	0x1c
 971 0403 08       		.uleb128 0x8
 972 0404 64626700 		.ascii	"dbg\000"
 973 0408 06       		.byte	0x6
 974 0409 A801     		.2byte	0x1a8
 975 040b AB030000 		.4byte	0x3ab
 976 040f 28       		.byte	0x28
 977 0410 09       		.uleb128 0x9
 978 0411 50030000 		.4byte	.LASF69
 979 0415 06       		.byte	0x6
 980 0416 AC01     		.2byte	0x1ac
 981 0418 31010000 		.4byte	0x131
 982 041c 2C       		.byte	0x2c
 983 041d 00       		.byte	0
 984 041e 0F       		.uleb128 0xf
 985 041f 2003     		.2byte	0x320
 986 0421 07       		.byte	0x7
 987 0422 6A01     		.2byte	0x16a
 988 0424 B0040000 		.4byte	0x4b0
 989 0428 09       		.uleb128 0x9
 990 0429 DB010000 		.4byte	.LASF70
 991 042d 07       		.byte	0x7
 992 042e 6C01     		.2byte	0x16c
 993 0430 C7040000 		.4byte	0x4c7
 994 0434 00       		.byte	0
 995 0435 09       		.uleb128 0x9
 996 0436 75030000 		.4byte	.LASF71
ARM GAS  /tmp/ccpjYCoh.s 			page 32


 997 043a 07       		.byte	0x7
 998 043b 6D01     		.2byte	0x16d
 999 043d CC040000 		.4byte	0x4cc
 1000 0441 04       		.byte	0x4
 1001 0442 09       		.uleb128 0x9
 1002 0443 8D040000 		.4byte	.LASF72
 1003 0447 07       		.byte	0x7
 1004 0448 6E01     		.2byte	0x16e
 1005 044a DC040000 		.4byte	0x4dc
 1006 044e 80       		.byte	0x80
 1007 044f 09       		.uleb128 0x9
 1008 0450 F5010000 		.4byte	.LASF73
 1009 0454 07       		.byte	0x7
 1010 0455 6F01     		.2byte	0x16f
 1011 0457 CC040000 		.4byte	0x4cc
 1012 045b 84       		.byte	0x84
 1013 045c 10       		.uleb128 0x10
 1014 045d F7040000 		.4byte	.LASF74
 1015 0461 07       		.byte	0x7
 1016 0462 7001     		.2byte	0x170
 1017 0464 E1040000 		.4byte	0x4e1
 1018 0468 0001     		.2byte	0x100
 1019 046a 10       		.uleb128 0x10
 1020 046b 89030000 		.4byte	.LASF75
 1021 046f 07       		.byte	0x7
 1022 0470 7101     		.2byte	0x171
 1023 0472 CC040000 		.4byte	0x4cc
 1024 0476 0401     		.2byte	0x104
 1025 0478 10       		.uleb128 0x10
 1026 0479 39030000 		.4byte	.LASF76
 1027 047d 07       		.byte	0x7
 1028 047e 7201     		.2byte	0x172
 1029 0480 E6040000 		.4byte	0x4e6
 1030 0484 8001     		.2byte	0x180
 1031 0486 10       		.uleb128 0x10
 1032 0487 93030000 		.4byte	.LASF77
 1033 048b 07       		.byte	0x7
 1034 048c 7301     		.2byte	0x173
 1035 048e CC040000 		.4byte	0x4cc
 1036 0492 8401     		.2byte	0x184
 1037 0494 10       		.uleb128 0x10
 1038 0495 9D030000 		.4byte	.LASF78
 1039 0499 07       		.byte	0x7
 1040 049a 7401     		.2byte	0x174
 1041 049c EB040000 		.4byte	0x4eb
 1042 04a0 0002     		.2byte	0x200
 1043 04a2 11       		.uleb128 0x11
 1044 04a3 495000   		.ascii	"IP\000"
 1045 04a6 07       		.byte	0x7
 1046 04a7 7501     		.2byte	0x175
 1047 04a9 0B050000 		.4byte	0x50b
 1048 04ad 0003     		.2byte	0x300
 1049 04af 00       		.byte	0
 1050 04b0 12       		.uleb128 0x12
 1051 04b1 C3000000 		.4byte	0xc3
 1052 04b5 C0040000 		.4byte	0x4c0
 1053 04b9 13       		.uleb128 0x13
ARM GAS  /tmp/ccpjYCoh.s 			page 33


 1054 04ba C0040000 		.4byte	0x4c0
 1055 04be 00       		.byte	0
 1056 04bf 00       		.byte	0
 1057 04c0 03       		.uleb128 0x3
 1058 04c1 04       		.byte	0x4
 1059 04c2 07       		.byte	0x7
 1060 04c3 0A040000 		.4byte	.LASF79
 1061 04c7 14       		.uleb128 0x14
 1062 04c8 B0040000 		.4byte	0x4b0
 1063 04cc 12       		.uleb128 0x12
 1064 04cd C3000000 		.4byte	0xc3
 1065 04d1 DC040000 		.4byte	0x4dc
 1066 04d5 13       		.uleb128 0x13
 1067 04d6 C0040000 		.4byte	0x4c0
 1068 04da 1E       		.byte	0x1e
 1069 04db 00       		.byte	0
 1070 04dc 14       		.uleb128 0x14
 1071 04dd B0040000 		.4byte	0x4b0
 1072 04e1 14       		.uleb128 0x14
 1073 04e2 B0040000 		.4byte	0x4b0
 1074 04e6 14       		.uleb128 0x14
 1075 04e7 B0040000 		.4byte	0x4b0
 1076 04eb 12       		.uleb128 0x12
 1077 04ec C3000000 		.4byte	0xc3
 1078 04f0 FB040000 		.4byte	0x4fb
 1079 04f4 13       		.uleb128 0x13
 1080 04f5 C0040000 		.4byte	0x4c0
 1081 04f9 3F       		.byte	0x3f
 1082 04fa 00       		.byte	0
 1083 04fb 12       		.uleb128 0x12
 1084 04fc C3000000 		.4byte	0xc3
 1085 0500 0B050000 		.4byte	0x50b
 1086 0504 13       		.uleb128 0x13
 1087 0505 C0040000 		.4byte	0x4c0
 1088 0509 07       		.byte	0x7
 1089 050a 00       		.byte	0
 1090 050b 14       		.uleb128 0x14
 1091 050c FB040000 		.4byte	0x4fb
 1092 0510 15       		.uleb128 0x15
 1093 0511 F2030000 		.4byte	.LASF80
 1094 0515 07       		.byte	0x7
 1095 0516 7601     		.2byte	0x176
 1096 0518 1E040000 		.4byte	0x41e
 1097 051c 16       		.uleb128 0x16
 1098 051d 28       		.byte	0x28
 1099 051e 07       		.byte	0x7
 1100 051f 8501     		.2byte	0x185
 1101 0521 9B050000 		.4byte	0x59b
 1102 0525 09       		.uleb128 0x9
 1103 0526 7C020000 		.4byte	.LASF81
 1104 052a 07       		.byte	0x7
 1105 052b 8701     		.2byte	0x187
 1106 052d 9B050000 		.4byte	0x59b
 1107 0531 00       		.byte	0
 1108 0532 09       		.uleb128 0x9
 1109 0533 D1020000 		.4byte	.LASF82
 1110 0537 07       		.byte	0x7
ARM GAS  /tmp/ccpjYCoh.s 			page 34


 1111 0538 8801     		.2byte	0x188
 1112 053a A0050000 		.4byte	0x5a0
 1113 053e 04       		.byte	0x4
 1114 053f 09       		.uleb128 0x9
 1115 0540 75030000 		.4byte	.LASF71
 1116 0544 07       		.byte	0x7
 1117 0545 8901     		.2byte	0x189
 1118 0547 C3000000 		.4byte	0xc3
 1119 054b 08       		.byte	0x8
 1120 054c 09       		.uleb128 0x9
 1121 054d DF020000 		.4byte	.LASF83
 1122 0551 07       		.byte	0x7
 1123 0552 8A01     		.2byte	0x18a
 1124 0554 A0050000 		.4byte	0x5a0
 1125 0558 0C       		.byte	0xc
 1126 0559 08       		.uleb128 0x8
 1127 055a 53435200 		.ascii	"SCR\000"
 1128 055e 07       		.byte	0x7
 1129 055f 8B01     		.2byte	0x18b
 1130 0561 A0050000 		.4byte	0x5a0
 1131 0565 10       		.byte	0x10
 1132 0566 08       		.uleb128 0x8
 1133 0567 43435200 		.ascii	"CCR\000"
 1134 056b 07       		.byte	0x7
 1135 056c 8C01     		.2byte	0x18c
 1136 056e A0050000 		.4byte	0x5a0
 1137 0572 14       		.byte	0x14
 1138 0573 09       		.uleb128 0x9
 1139 0574 7F030000 		.4byte	.LASF84
 1140 0578 07       		.byte	0x7
 1141 0579 8D01     		.2byte	0x18d
 1142 057b C3000000 		.4byte	0xc3
 1143 057f 18       		.byte	0x18
 1144 0580 08       		.uleb128 0x8
 1145 0581 53485000 		.ascii	"SHP\000"
 1146 0585 07       		.byte	0x7
 1147 0586 8E01     		.2byte	0x18e
 1148 0588 B5050000 		.4byte	0x5b5
 1149 058c 1C       		.byte	0x1c
 1150 058d 09       		.uleb128 0x9
 1151 058e 1D030000 		.4byte	.LASF85
 1152 0592 07       		.byte	0x7
 1153 0593 8F01     		.2byte	0x18f
 1154 0595 A0050000 		.4byte	0x5a0
 1155 0599 24       		.byte	0x24
 1156 059a 00       		.byte	0
 1157 059b 17       		.uleb128 0x17
 1158 059c A0050000 		.4byte	0x5a0
 1159 05a0 14       		.uleb128 0x14
 1160 05a1 C3000000 		.4byte	0xc3
 1161 05a5 12       		.uleb128 0x12
 1162 05a6 C3000000 		.4byte	0xc3
 1163 05aa B5050000 		.4byte	0x5b5
 1164 05ae 13       		.uleb128 0x13
 1165 05af C0040000 		.4byte	0x4c0
 1166 05b3 01       		.byte	0x1
 1167 05b4 00       		.byte	0
ARM GAS  /tmp/ccpjYCoh.s 			page 35


 1168 05b5 14       		.uleb128 0x14
 1169 05b6 A5050000 		.4byte	0x5a5
 1170 05ba 15       		.uleb128 0x15
 1171 05bb FC030000 		.4byte	.LASF86
 1172 05bf 07       		.byte	0x7
 1173 05c0 9001     		.2byte	0x190
 1174 05c2 1C050000 		.4byte	0x51c
 1175 05c6 04       		.uleb128 0x4
 1176 05c7 17000000 		.4byte	.LASF87
 1177 05cb 08       		.byte	0x8
 1178 05cc 65       		.byte	0x65
 1179 05cd 02030000 		.4byte	0x302
 1180 05d1 04       		.uleb128 0x4
 1181 05d2 E4040000 		.4byte	.LASF88
 1182 05d6 08       		.byte	0x8
 1183 05d7 6D       		.byte	0x6d
 1184 05d8 CE000000 		.4byte	0xce
 1185 05dc 05       		.uleb128 0x5
 1186 05dd B3000000 		.4byte	.LASF89
 1187 05e1 04       		.byte	0x4
 1188 05e2 08       		.byte	0x8
 1189 05e3 89       		.byte	0x89
 1190 05e4 F4050000 		.4byte	0x5f4
 1191 05e8 07       		.uleb128 0x7
 1192 05e9 737000   		.ascii	"sp\000"
 1193 05ec 08       		.byte	0x8
 1194 05ed 8A       		.byte	0x8a
 1195 05ee 66060000 		.4byte	0x666
 1196 05f2 00       		.byte	0
 1197 05f3 00       		.byte	0
 1198 05f4 05       		.uleb128 0x5
 1199 05f5 BA030000 		.4byte	.LASF90
 1200 05f9 24       		.byte	0x24
 1201 05fa 09       		.byte	0x9
 1202 05fb C3       		.byte	0xc3
 1203 05fc 66060000 		.4byte	0x666
 1204 0600 07       		.uleb128 0x7
 1205 0601 723800   		.ascii	"r8\000"
 1206 0604 09       		.byte	0x9
 1207 0605 C4       		.byte	0xc4
 1208 0606 C6050000 		.4byte	0x5c6
 1209 060a 00       		.byte	0
 1210 060b 07       		.uleb128 0x7
 1211 060c 723900   		.ascii	"r9\000"
 1212 060f 09       		.byte	0x9
 1213 0610 C5       		.byte	0xc5
 1214 0611 C6050000 		.4byte	0x5c6
 1215 0615 04       		.byte	0x4
 1216 0616 07       		.uleb128 0x7
 1217 0617 72313000 		.ascii	"r10\000"
 1218 061b 09       		.byte	0x9
 1219 061c C6       		.byte	0xc6
 1220 061d C6050000 		.4byte	0x5c6
 1221 0621 08       		.byte	0x8
 1222 0622 07       		.uleb128 0x7
 1223 0623 72313100 		.ascii	"r11\000"
 1224 0627 09       		.byte	0x9
ARM GAS  /tmp/ccpjYCoh.s 			page 36


 1225 0628 C7       		.byte	0xc7
 1226 0629 C6050000 		.4byte	0x5c6
 1227 062d 0C       		.byte	0xc
 1228 062e 07       		.uleb128 0x7
 1229 062f 723400   		.ascii	"r4\000"
 1230 0632 09       		.byte	0x9
 1231 0633 C8       		.byte	0xc8
 1232 0634 C6050000 		.4byte	0x5c6
 1233 0638 10       		.byte	0x10
 1234 0639 07       		.uleb128 0x7
 1235 063a 723500   		.ascii	"r5\000"
 1236 063d 09       		.byte	0x9
 1237 063e C9       		.byte	0xc9
 1238 063f C6050000 		.4byte	0x5c6
 1239 0643 14       		.byte	0x14
 1240 0644 07       		.uleb128 0x7
 1241 0645 723600   		.ascii	"r6\000"
 1242 0648 09       		.byte	0x9
 1243 0649 CA       		.byte	0xca
 1244 064a C6050000 		.4byte	0x5c6
 1245 064e 18       		.byte	0x18
 1246 064f 07       		.uleb128 0x7
 1247 0650 723700   		.ascii	"r7\000"
 1248 0653 09       		.byte	0x9
 1249 0654 CB       		.byte	0xcb
 1250 0655 C6050000 		.4byte	0x5c6
 1251 0659 1C       		.byte	0x1c
 1252 065a 07       		.uleb128 0x7
 1253 065b 6C7200   		.ascii	"lr\000"
 1254 065e 09       		.byte	0x9
 1255 065f CC       		.byte	0xcc
 1256 0660 C6050000 		.4byte	0x5c6
 1257 0664 20       		.byte	0x20
 1258 0665 00       		.byte	0
 1259 0666 0A       		.uleb128 0xa
 1260 0667 04       		.byte	0x4
 1261 0668 F4050000 		.4byte	0x5f4
 1262 066c 18       		.uleb128 0x18
 1263 066d 04       		.byte	0x4
 1264 066e 06       		.byte	0x6
 1265 066f D2       		.byte	0xd2
 1266 0670 CF060000 		.4byte	0x6cf
 1267 0674 19       		.uleb128 0x19
 1268 0675 75020000 		.4byte	.LASF91
 1269 0679 06       		.byte	0x6
 1270 067a D9       		.byte	0xd9
 1271 067b 05010000 		.4byte	0x105
 1272 067f 19       		.uleb128 0x19
 1273 0680 3E050000 		.4byte	.LASF92
 1274 0684 06       		.byte	0x6
 1275 0685 E0       		.byte	0xe0
 1276 0686 05010000 		.4byte	0x105
 1277 068a 19       		.uleb128 0x19
 1278 068b 9D000000 		.4byte	.LASF93
 1279 068f 06       		.byte	0x6
 1280 0690 E7       		.byte	0xe7
 1281 0691 02030000 		.4byte	0x302
ARM GAS  /tmp/ccpjYCoh.s 			page 37


 1282 0695 19       		.uleb128 0x19
 1283 0696 B9040000 		.4byte	.LASF94
 1284 069a 06       		.byte	0x6
 1285 069b EE       		.byte	0xee
 1286 069c CF060000 		.4byte	0x6cf
 1287 06a0 19       		.uleb128 0x19
 1288 06a1 C7010000 		.4byte	.LASF95
 1289 06a5 06       		.byte	0x6
 1290 06a6 F3       		.byte	0xf3
 1291 06a7 05010000 		.4byte	0x105
 1292 06ab 19       		.uleb128 0x19
 1293 06ac B2040000 		.4byte	.LASF96
 1294 06b0 06       		.byte	0x6
 1295 06b1 FC       		.byte	0xfc
 1296 06b2 FA060000 		.4byte	0x6fa
 1297 06b6 1A       		.uleb128 0x1a
 1298 06b7 10000000 		.4byte	.LASF97
 1299 06bb 06       		.byte	0x6
 1300 06bc 0501     		.2byte	0x105
 1301 06be 31070000 		.4byte	0x731
 1302 06c2 1A       		.uleb128 0x1a
 1303 06c3 D3000000 		.4byte	.LASF98
 1304 06c7 06       		.byte	0x6
 1305 06c8 0D01     		.2byte	0x10d
 1306 06ca 10010000 		.4byte	0x110
 1307 06ce 00       		.byte	0
 1308 06cf 0A       		.uleb128 0xa
 1309 06d0 04       		.byte	0x4
 1310 06d1 1A020000 		.4byte	0x21a
 1311 06d5 05       		.uleb128 0x5
 1312 06d6 E0010000 		.4byte	.LASF99
 1313 06da 0C       		.byte	0xc
 1314 06db 0A       		.byte	0xa
 1315 06dc 34       		.byte	0x34
 1316 06dd FA060000 		.4byte	0x6fa
 1317 06e1 06       		.uleb128 0x6
 1318 06e2 3A040000 		.4byte	.LASF28
 1319 06e6 0A       		.byte	0xa
 1320 06e7 35       		.byte	0x35
 1321 06e8 4F020000 		.4byte	0x24f
 1322 06ec 00       		.byte	0
 1323 06ed 07       		.uleb128 0x7
 1324 06ee 636E7400 		.ascii	"cnt\000"
 1325 06f2 0A       		.byte	0xa
 1326 06f3 37       		.byte	0x37
 1327 06f4 1B010000 		.4byte	0x11b
 1328 06f8 08       		.byte	0x8
 1329 06f9 00       		.byte	0
 1330 06fa 0A       		.uleb128 0xa
 1331 06fb 04       		.byte	0x4
 1332 06fc D5060000 		.4byte	0x6d5
 1333 0700 05       		.uleb128 0x5
 1334 0701 88020000 		.4byte	.LASF100
 1335 0705 10       		.byte	0x10
 1336 0706 0B       		.byte	0xb
 1337 0707 39       		.byte	0x39
 1338 0708 31070000 		.4byte	0x731
ARM GAS  /tmp/ccpjYCoh.s 			page 38


 1339 070c 06       		.uleb128 0x6
 1340 070d 3A040000 		.4byte	.LASF28
 1341 0711 0B       		.byte	0xb
 1342 0712 3A       		.byte	0x3a
 1343 0713 4F020000 		.4byte	0x24f
 1344 0717 00       		.byte	0
 1345 0718 06       		.uleb128 0x6
 1346 0719 37020000 		.4byte	.LASF101
 1347 071d 0B       		.byte	0xb
 1348 071e 3C       		.byte	0x3c
 1349 071f 25020000 		.4byte	0x225
 1350 0723 08       		.byte	0x8
 1351 0724 06       		.uleb128 0x6
 1352 0725 7A000000 		.4byte	.LASF47
 1353 0729 0B       		.byte	0xb
 1354 072a 3E       		.byte	0x3e
 1355 072b 65070000 		.4byte	0x765
 1356 072f 0C       		.byte	0xc
 1357 0730 00       		.byte	0
 1358 0731 0A       		.uleb128 0xa
 1359 0732 04       		.byte	0x4
 1360 0733 00070000 		.4byte	0x700
 1361 0737 0A       		.uleb128 0xa
 1362 0738 04       		.byte	0x4
 1363 0739 3D070000 		.4byte	0x73d
 1364 073d 17       		.uleb128 0x17
 1365 073e 42070000 		.4byte	0x742
 1366 0742 03       		.uleb128 0x3
 1367 0743 01       		.byte	0x1
 1368 0744 08       		.byte	0x8
 1369 0745 B2020000 		.4byte	.LASF102
 1370 0749 0A       		.uleb128 0xa
 1371 074a 04       		.byte	0x4
 1372 074b D1050000 		.4byte	0x5d1
 1373 074f 0A       		.uleb128 0xa
 1374 0750 04       		.byte	0x4
 1375 0751 04030000 		.4byte	0x304
 1376 0755 14       		.uleb128 0x14
 1377 0756 37070000 		.4byte	0x737
 1378 075a 04       		.uleb128 0x4
 1379 075b 48040000 		.4byte	.LASF103
 1380 075f 0B       		.byte	0xb
 1381 0760 34       		.byte	0x34
 1382 0761 00070000 		.4byte	0x700
 1383 0765 0A       		.uleb128 0xa
 1384 0766 04       		.byte	0x4
 1385 0767 5A070000 		.4byte	0x75a
 1386 076b 03       		.uleb128 0x3
 1387 076c 01       		.byte	0x1
 1388 076d 02       		.byte	0x2
 1389 076e 82020000 		.4byte	.LASF104
 1390 0772 1B       		.uleb128 0x1b
 1391 0773 64030000 		.4byte	.LASF105
 1392 0777 01       		.byte	0x1
 1393 0778 39       		.byte	0x39
 1394 0779 00000000 		.4byte	.LFB179
 1395 077d 48000000 		.4byte	.LFE179-.LFB179
ARM GAS  /tmp/ccpjYCoh.s 			page 39


 1396 0781 01       		.uleb128 0x1
 1397 0782 9C       		.byte	0x9c
 1398 0783 A4070000 		.4byte	0x7a4
 1399 0787 1C       		.uleb128 0x1c
 1400 0788 6E00     		.ascii	"n\000"
 1401 078a 01       		.byte	0x1
 1402 078b 39       		.byte	0x39
 1403 078c C3000000 		.4byte	0xc3
 1404 0790 00000000 		.4byte	.LLST0
 1405 0794 1D       		.uleb128 0x1d
 1406 0795 AD020000 		.4byte	.LASF29
 1407 0799 01       		.byte	0x1
 1408 079a 39       		.byte	0x39
 1409 079b C3000000 		.4byte	0xc3
 1410 079f 21000000 		.4byte	.LLST1
 1411 07a3 00       		.byte	0
 1412 07a4 1B       		.uleb128 0x1b
 1413 07a5 DA000000 		.4byte	.LASF106
 1414 07a9 01       		.byte	0x1
 1415 07aa 4A       		.byte	0x4a
 1416 07ab 00000000 		.4byte	.LFB180
 1417 07af 38000000 		.4byte	.LFE180-.LFB180
 1418 07b3 01       		.uleb128 0x1
 1419 07b4 9C       		.byte	0x9c
 1420 07b5 C7070000 		.4byte	0x7c7
 1421 07b9 1C       		.uleb128 0x1c
 1422 07ba 6E00     		.ascii	"n\000"
 1423 07bc 01       		.byte	0x1
 1424 07bd 4A       		.byte	0x4a
 1425 07be C3000000 		.4byte	0xc3
 1426 07c2 42000000 		.4byte	.LLST2
 1427 07c6 00       		.byte	0
 1428 07c7 1B       		.uleb128 0x1b
 1429 07c8 4D050000 		.4byte	.LASF107
 1430 07cc 01       		.byte	0x1
 1431 07cd 5A       		.byte	0x5a
 1432 07ce 00000000 		.4byte	.LFB181
 1433 07d2 30000000 		.4byte	.LFE181-.LFB181
 1434 07d6 01       		.uleb128 0x1
 1435 07d7 9C       		.byte	0x9c
 1436 07d8 04080000 		.4byte	0x804
 1437 07dc 1D       		.uleb128 0x1d
 1438 07dd A4000000 		.4byte	.LASF108
 1439 07e1 01       		.byte	0x1
 1440 07e2 5A       		.byte	0x5a
 1441 07e3 C3000000 		.4byte	0xc3
 1442 07e7 63000000 		.4byte	.LLST3
 1443 07eb 1D       		.uleb128 0x1d
 1444 07ec AD020000 		.4byte	.LASF29
 1445 07f0 01       		.byte	0x1
 1446 07f1 5A       		.byte	0x5a
 1447 07f2 C3000000 		.4byte	0xc3
 1448 07f6 84000000 		.4byte	.LLST4
 1449 07fa 1E       		.uleb128 0x1e
 1450 07fb 92040000 		.4byte	.LASF113
 1451 07ff 14080000 		.4byte	0x814
 1452 0803 00       		.byte	0
ARM GAS  /tmp/ccpjYCoh.s 			page 40


 1453 0804 12       		.uleb128 0x12
 1454 0805 42070000 		.4byte	0x742
 1455 0809 14080000 		.4byte	0x814
 1456 080d 13       		.uleb128 0x13
 1457 080e C0040000 		.4byte	0x4c0
 1458 0812 1C       		.byte	0x1c
 1459 0813 00       		.byte	0
 1460 0814 17       		.uleb128 0x17
 1461 0815 04080000 		.4byte	0x804
 1462 0819 1B       		.uleb128 0x1b
 1463 081a 9C020000 		.4byte	.LASF109
 1464 081e 01       		.byte	0x1
 1465 081f 6D       		.byte	0x6d
 1466 0820 00000000 		.4byte	.LFB182
 1467 0824 1C000000 		.4byte	.LFE182-.LFB182
 1468 0828 01       		.uleb128 0x1
 1469 0829 9C       		.byte	0x9c
 1470 082a 3C080000 		.4byte	0x83c
 1471 082e 1C       		.uleb128 0x1c
 1472 082f 6E00     		.ascii	"n\000"
 1473 0831 01       		.byte	0x1
 1474 0832 6D       		.byte	0x6d
 1475 0833 C3000000 		.4byte	0xc3
 1476 0837 A5000000 		.4byte	.LLST5
 1477 083b 00       		.byte	0
 1478 083c 1F       		.uleb128 0x1f
 1479 083d 636800   		.ascii	"ch\000"
 1480 0840 06       		.byte	0x6
 1481 0841 D201     		.2byte	0x1d2
 1482 0843 D1030000 		.4byte	0x3d1
 1483 0847 00       		.byte	0
 1484              		.section	.debug_abbrev,"",%progbits
 1485              	.Ldebug_abbrev0:
 1486 0000 01       		.uleb128 0x1
 1487 0001 11       		.uleb128 0x11
 1488 0002 01       		.byte	0x1
 1489 0003 25       		.uleb128 0x25
 1490 0004 0E       		.uleb128 0xe
 1491 0005 13       		.uleb128 0x13
 1492 0006 0B       		.uleb128 0xb
 1493 0007 03       		.uleb128 0x3
 1494 0008 0E       		.uleb128 0xe
 1495 0009 1B       		.uleb128 0x1b
 1496 000a 0E       		.uleb128 0xe
 1497 000b 55       		.uleb128 0x55
 1498 000c 17       		.uleb128 0x17
 1499 000d 11       		.uleb128 0x11
 1500 000e 01       		.uleb128 0x1
 1501 000f 10       		.uleb128 0x10
 1502 0010 17       		.uleb128 0x17
 1503 0011 00       		.byte	0
 1504 0012 00       		.byte	0
 1505 0013 02       		.uleb128 0x2
 1506 0014 24       		.uleb128 0x24
 1507 0015 00       		.byte	0
 1508 0016 0B       		.uleb128 0xb
 1509 0017 0B       		.uleb128 0xb
ARM GAS  /tmp/ccpjYCoh.s 			page 41


 1510 0018 3E       		.uleb128 0x3e
 1511 0019 0B       		.uleb128 0xb
 1512 001a 03       		.uleb128 0x3
 1513 001b 08       		.uleb128 0x8
 1514 001c 00       		.byte	0
 1515 001d 00       		.byte	0
 1516 001e 03       		.uleb128 0x3
 1517 001f 24       		.uleb128 0x24
 1518 0020 00       		.byte	0
 1519 0021 0B       		.uleb128 0xb
 1520 0022 0B       		.uleb128 0xb
 1521 0023 3E       		.uleb128 0x3e
 1522 0024 0B       		.uleb128 0xb
 1523 0025 03       		.uleb128 0x3
 1524 0026 0E       		.uleb128 0xe
 1525 0027 00       		.byte	0
 1526 0028 00       		.byte	0
 1527 0029 04       		.uleb128 0x4
 1528 002a 16       		.uleb128 0x16
 1529 002b 00       		.byte	0
 1530 002c 03       		.uleb128 0x3
 1531 002d 0E       		.uleb128 0xe
 1532 002e 3A       		.uleb128 0x3a
 1533 002f 0B       		.uleb128 0xb
 1534 0030 3B       		.uleb128 0x3b
 1535 0031 0B       		.uleb128 0xb
 1536 0032 49       		.uleb128 0x49
 1537 0033 13       		.uleb128 0x13
 1538 0034 00       		.byte	0
 1539 0035 00       		.byte	0
 1540 0036 05       		.uleb128 0x5
 1541 0037 13       		.uleb128 0x13
 1542 0038 01       		.byte	0x1
 1543 0039 03       		.uleb128 0x3
 1544 003a 0E       		.uleb128 0xe
 1545 003b 0B       		.uleb128 0xb
 1546 003c 0B       		.uleb128 0xb
 1547 003d 3A       		.uleb128 0x3a
 1548 003e 0B       		.uleb128 0xb
 1549 003f 3B       		.uleb128 0x3b
 1550 0040 0B       		.uleb128 0xb
 1551 0041 01       		.uleb128 0x1
 1552 0042 13       		.uleb128 0x13
 1553 0043 00       		.byte	0
 1554 0044 00       		.byte	0
 1555 0045 06       		.uleb128 0x6
 1556 0046 0D       		.uleb128 0xd
 1557 0047 00       		.byte	0
 1558 0048 03       		.uleb128 0x3
 1559 0049 0E       		.uleb128 0xe
 1560 004a 3A       		.uleb128 0x3a
 1561 004b 0B       		.uleb128 0xb
 1562 004c 3B       		.uleb128 0x3b
 1563 004d 0B       		.uleb128 0xb
 1564 004e 49       		.uleb128 0x49
 1565 004f 13       		.uleb128 0x13
 1566 0050 38       		.uleb128 0x38
ARM GAS  /tmp/ccpjYCoh.s 			page 42


 1567 0051 0B       		.uleb128 0xb
 1568 0052 00       		.byte	0
 1569 0053 00       		.byte	0
 1570 0054 07       		.uleb128 0x7
 1571 0055 0D       		.uleb128 0xd
 1572 0056 00       		.byte	0
 1573 0057 03       		.uleb128 0x3
 1574 0058 08       		.uleb128 0x8
 1575 0059 3A       		.uleb128 0x3a
 1576 005a 0B       		.uleb128 0xb
 1577 005b 3B       		.uleb128 0x3b
 1578 005c 0B       		.uleb128 0xb
 1579 005d 49       		.uleb128 0x49
 1580 005e 13       		.uleb128 0x13
 1581 005f 38       		.uleb128 0x38
 1582 0060 0B       		.uleb128 0xb
 1583 0061 00       		.byte	0
 1584 0062 00       		.byte	0
 1585 0063 08       		.uleb128 0x8
 1586 0064 0D       		.uleb128 0xd
 1587 0065 00       		.byte	0
 1588 0066 03       		.uleb128 0x3
 1589 0067 08       		.uleb128 0x8
 1590 0068 3A       		.uleb128 0x3a
 1591 0069 0B       		.uleb128 0xb
 1592 006a 3B       		.uleb128 0x3b
 1593 006b 05       		.uleb128 0x5
 1594 006c 49       		.uleb128 0x49
 1595 006d 13       		.uleb128 0x13
 1596 006e 38       		.uleb128 0x38
 1597 006f 0B       		.uleb128 0xb
 1598 0070 00       		.byte	0
 1599 0071 00       		.byte	0
 1600 0072 09       		.uleb128 0x9
 1601 0073 0D       		.uleb128 0xd
 1602 0074 00       		.byte	0
 1603 0075 03       		.uleb128 0x3
 1604 0076 0E       		.uleb128 0xe
 1605 0077 3A       		.uleb128 0x3a
 1606 0078 0B       		.uleb128 0xb
 1607 0079 3B       		.uleb128 0x3b
 1608 007a 05       		.uleb128 0x5
 1609 007b 49       		.uleb128 0x49
 1610 007c 13       		.uleb128 0x13
 1611 007d 38       		.uleb128 0x38
 1612 007e 0B       		.uleb128 0xb
 1613 007f 00       		.byte	0
 1614 0080 00       		.byte	0
 1615 0081 0A       		.uleb128 0xa
 1616 0082 0F       		.uleb128 0xf
 1617 0083 00       		.byte	0
 1618 0084 0B       		.uleb128 0xb
 1619 0085 0B       		.uleb128 0xb
 1620 0086 49       		.uleb128 0x49
 1621 0087 13       		.uleb128 0x13
 1622 0088 00       		.byte	0
 1623 0089 00       		.byte	0
ARM GAS  /tmp/ccpjYCoh.s 			page 43


 1624 008a 0B       		.uleb128 0xb
 1625 008b 13       		.uleb128 0x13
 1626 008c 01       		.byte	0x1
 1627 008d 03       		.uleb128 0x3
 1628 008e 0E       		.uleb128 0xe
 1629 008f 0B       		.uleb128 0xb
 1630 0090 0B       		.uleb128 0xb
 1631 0091 3A       		.uleb128 0x3a
 1632 0092 0B       		.uleb128 0xb
 1633 0093 3B       		.uleb128 0x3b
 1634 0094 05       		.uleb128 0x5
 1635 0095 01       		.uleb128 0x1
 1636 0096 13       		.uleb128 0x13
 1637 0097 00       		.byte	0
 1638 0098 00       		.byte	0
 1639 0099 0C       		.uleb128 0xc
 1640 009a 15       		.uleb128 0x15
 1641 009b 01       		.byte	0x1
 1642 009c 27       		.uleb128 0x27
 1643 009d 19       		.uleb128 0x19
 1644 009e 01       		.uleb128 0x1
 1645 009f 13       		.uleb128 0x13
 1646 00a0 00       		.byte	0
 1647 00a1 00       		.byte	0
 1648 00a2 0D       		.uleb128 0xd
 1649 00a3 05       		.uleb128 0x5
 1650 00a4 00       		.byte	0
 1651 00a5 49       		.uleb128 0x49
 1652 00a6 13       		.uleb128 0x13
 1653 00a7 00       		.byte	0
 1654 00a8 00       		.byte	0
 1655 00a9 0E       		.uleb128 0xe
 1656 00aa 0F       		.uleb128 0xf
 1657 00ab 00       		.byte	0
 1658 00ac 0B       		.uleb128 0xb
 1659 00ad 0B       		.uleb128 0xb
 1660 00ae 00       		.byte	0
 1661 00af 00       		.byte	0
 1662 00b0 0F       		.uleb128 0xf
 1663 00b1 13       		.uleb128 0x13
 1664 00b2 01       		.byte	0x1
 1665 00b3 0B       		.uleb128 0xb
 1666 00b4 05       		.uleb128 0x5
 1667 00b5 3A       		.uleb128 0x3a
 1668 00b6 0B       		.uleb128 0xb
 1669 00b7 3B       		.uleb128 0x3b
 1670 00b8 05       		.uleb128 0x5
 1671 00b9 01       		.uleb128 0x1
 1672 00ba 13       		.uleb128 0x13
 1673 00bb 00       		.byte	0
 1674 00bc 00       		.byte	0
 1675 00bd 10       		.uleb128 0x10
 1676 00be 0D       		.uleb128 0xd
 1677 00bf 00       		.byte	0
 1678 00c0 03       		.uleb128 0x3
 1679 00c1 0E       		.uleb128 0xe
 1680 00c2 3A       		.uleb128 0x3a
ARM GAS  /tmp/ccpjYCoh.s 			page 44


 1681 00c3 0B       		.uleb128 0xb
 1682 00c4 3B       		.uleb128 0x3b
 1683 00c5 05       		.uleb128 0x5
 1684 00c6 49       		.uleb128 0x49
 1685 00c7 13       		.uleb128 0x13
 1686 00c8 38       		.uleb128 0x38
 1687 00c9 05       		.uleb128 0x5
 1688 00ca 00       		.byte	0
 1689 00cb 00       		.byte	0
 1690 00cc 11       		.uleb128 0x11
 1691 00cd 0D       		.uleb128 0xd
 1692 00ce 00       		.byte	0
 1693 00cf 03       		.uleb128 0x3
 1694 00d0 08       		.uleb128 0x8
 1695 00d1 3A       		.uleb128 0x3a
 1696 00d2 0B       		.uleb128 0xb
 1697 00d3 3B       		.uleb128 0x3b
 1698 00d4 05       		.uleb128 0x5
 1699 00d5 49       		.uleb128 0x49
 1700 00d6 13       		.uleb128 0x13
 1701 00d7 38       		.uleb128 0x38
 1702 00d8 05       		.uleb128 0x5
 1703 00d9 00       		.byte	0
 1704 00da 00       		.byte	0
 1705 00db 12       		.uleb128 0x12
 1706 00dc 01       		.uleb128 0x1
 1707 00dd 01       		.byte	0x1
 1708 00de 49       		.uleb128 0x49
 1709 00df 13       		.uleb128 0x13
 1710 00e0 01       		.uleb128 0x1
 1711 00e1 13       		.uleb128 0x13
 1712 00e2 00       		.byte	0
 1713 00e3 00       		.byte	0
 1714 00e4 13       		.uleb128 0x13
 1715 00e5 21       		.uleb128 0x21
 1716 00e6 00       		.byte	0
 1717 00e7 49       		.uleb128 0x49
 1718 00e8 13       		.uleb128 0x13
 1719 00e9 2F       		.uleb128 0x2f
 1720 00ea 0B       		.uleb128 0xb
 1721 00eb 00       		.byte	0
 1722 00ec 00       		.byte	0
 1723 00ed 14       		.uleb128 0x14
 1724 00ee 35       		.uleb128 0x35
 1725 00ef 00       		.byte	0
 1726 00f0 49       		.uleb128 0x49
 1727 00f1 13       		.uleb128 0x13
 1728 00f2 00       		.byte	0
 1729 00f3 00       		.byte	0
 1730 00f4 15       		.uleb128 0x15
 1731 00f5 16       		.uleb128 0x16
 1732 00f6 00       		.byte	0
 1733 00f7 03       		.uleb128 0x3
 1734 00f8 0E       		.uleb128 0xe
 1735 00f9 3A       		.uleb128 0x3a
 1736 00fa 0B       		.uleb128 0xb
 1737 00fb 3B       		.uleb128 0x3b
ARM GAS  /tmp/ccpjYCoh.s 			page 45


 1738 00fc 05       		.uleb128 0x5
 1739 00fd 49       		.uleb128 0x49
 1740 00fe 13       		.uleb128 0x13
 1741 00ff 00       		.byte	0
 1742 0100 00       		.byte	0
 1743 0101 16       		.uleb128 0x16
 1744 0102 13       		.uleb128 0x13
 1745 0103 01       		.byte	0x1
 1746 0104 0B       		.uleb128 0xb
 1747 0105 0B       		.uleb128 0xb
 1748 0106 3A       		.uleb128 0x3a
 1749 0107 0B       		.uleb128 0xb
 1750 0108 3B       		.uleb128 0x3b
 1751 0109 05       		.uleb128 0x5
 1752 010a 01       		.uleb128 0x1
 1753 010b 13       		.uleb128 0x13
 1754 010c 00       		.byte	0
 1755 010d 00       		.byte	0
 1756 010e 17       		.uleb128 0x17
 1757 010f 26       		.uleb128 0x26
 1758 0110 00       		.byte	0
 1759 0111 49       		.uleb128 0x49
 1760 0112 13       		.uleb128 0x13
 1761 0113 00       		.byte	0
 1762 0114 00       		.byte	0
 1763 0115 18       		.uleb128 0x18
 1764 0116 17       		.uleb128 0x17
 1765 0117 01       		.byte	0x1
 1766 0118 0B       		.uleb128 0xb
 1767 0119 0B       		.uleb128 0xb
 1768 011a 3A       		.uleb128 0x3a
 1769 011b 0B       		.uleb128 0xb
 1770 011c 3B       		.uleb128 0x3b
 1771 011d 0B       		.uleb128 0xb
 1772 011e 01       		.uleb128 0x1
 1773 011f 13       		.uleb128 0x13
 1774 0120 00       		.byte	0
 1775 0121 00       		.byte	0
 1776 0122 19       		.uleb128 0x19
 1777 0123 0D       		.uleb128 0xd
 1778 0124 00       		.byte	0
 1779 0125 03       		.uleb128 0x3
 1780 0126 0E       		.uleb128 0xe
 1781 0127 3A       		.uleb128 0x3a
 1782 0128 0B       		.uleb128 0xb
 1783 0129 3B       		.uleb128 0x3b
 1784 012a 0B       		.uleb128 0xb
 1785 012b 49       		.uleb128 0x49
 1786 012c 13       		.uleb128 0x13
 1787 012d 00       		.byte	0
 1788 012e 00       		.byte	0
 1789 012f 1A       		.uleb128 0x1a
 1790 0130 0D       		.uleb128 0xd
 1791 0131 00       		.byte	0
 1792 0132 03       		.uleb128 0x3
 1793 0133 0E       		.uleb128 0xe
 1794 0134 3A       		.uleb128 0x3a
ARM GAS  /tmp/ccpjYCoh.s 			page 46


 1795 0135 0B       		.uleb128 0xb
 1796 0136 3B       		.uleb128 0x3b
 1797 0137 05       		.uleb128 0x5
 1798 0138 49       		.uleb128 0x49
 1799 0139 13       		.uleb128 0x13
 1800 013a 00       		.byte	0
 1801 013b 00       		.byte	0
 1802 013c 1B       		.uleb128 0x1b
 1803 013d 2E       		.uleb128 0x2e
 1804 013e 01       		.byte	0x1
 1805 013f 3F       		.uleb128 0x3f
 1806 0140 19       		.uleb128 0x19
 1807 0141 03       		.uleb128 0x3
 1808 0142 0E       		.uleb128 0xe
 1809 0143 3A       		.uleb128 0x3a
 1810 0144 0B       		.uleb128 0xb
 1811 0145 3B       		.uleb128 0x3b
 1812 0146 0B       		.uleb128 0xb
 1813 0147 27       		.uleb128 0x27
 1814 0148 19       		.uleb128 0x19
 1815 0149 11       		.uleb128 0x11
 1816 014a 01       		.uleb128 0x1
 1817 014b 12       		.uleb128 0x12
 1818 014c 06       		.uleb128 0x6
 1819 014d 40       		.uleb128 0x40
 1820 014e 18       		.uleb128 0x18
 1821 014f 9742     		.uleb128 0x2117
 1822 0151 19       		.uleb128 0x19
 1823 0152 01       		.uleb128 0x1
 1824 0153 13       		.uleb128 0x13
 1825 0154 00       		.byte	0
 1826 0155 00       		.byte	0
 1827 0156 1C       		.uleb128 0x1c
 1828 0157 05       		.uleb128 0x5
 1829 0158 00       		.byte	0
 1830 0159 03       		.uleb128 0x3
 1831 015a 08       		.uleb128 0x8
 1832 015b 3A       		.uleb128 0x3a
 1833 015c 0B       		.uleb128 0xb
 1834 015d 3B       		.uleb128 0x3b
 1835 015e 0B       		.uleb128 0xb
 1836 015f 49       		.uleb128 0x49
 1837 0160 13       		.uleb128 0x13
 1838 0161 02       		.uleb128 0x2
 1839 0162 17       		.uleb128 0x17
 1840 0163 00       		.byte	0
 1841 0164 00       		.byte	0
 1842 0165 1D       		.uleb128 0x1d
 1843 0166 05       		.uleb128 0x5
 1844 0167 00       		.byte	0
 1845 0168 03       		.uleb128 0x3
 1846 0169 0E       		.uleb128 0xe
 1847 016a 3A       		.uleb128 0x3a
 1848 016b 0B       		.uleb128 0xb
 1849 016c 3B       		.uleb128 0x3b
 1850 016d 0B       		.uleb128 0xb
 1851 016e 49       		.uleb128 0x49
ARM GAS  /tmp/ccpjYCoh.s 			page 47


 1852 016f 13       		.uleb128 0x13
 1853 0170 02       		.uleb128 0x2
 1854 0171 17       		.uleb128 0x17
 1855 0172 00       		.byte	0
 1856 0173 00       		.byte	0
 1857 0174 1E       		.uleb128 0x1e
 1858 0175 34       		.uleb128 0x34
 1859 0176 00       		.byte	0
 1860 0177 03       		.uleb128 0x3
 1861 0178 0E       		.uleb128 0xe
 1862 0179 49       		.uleb128 0x49
 1863 017a 13       		.uleb128 0x13
 1864 017b 34       		.uleb128 0x34
 1865 017c 19       		.uleb128 0x19
 1866 017d 00       		.byte	0
 1867 017e 00       		.byte	0
 1868 017f 1F       		.uleb128 0x1f
 1869 0180 34       		.uleb128 0x34
 1870 0181 00       		.byte	0
 1871 0182 03       		.uleb128 0x3
 1872 0183 08       		.uleb128 0x8
 1873 0184 3A       		.uleb128 0x3a
 1874 0185 0B       		.uleb128 0xb
 1875 0186 3B       		.uleb128 0x3b
 1876 0187 05       		.uleb128 0x5
 1877 0188 49       		.uleb128 0x49
 1878 0189 13       		.uleb128 0x13
 1879 018a 3F       		.uleb128 0x3f
 1880 018b 19       		.uleb128 0x19
 1881 018c 3C       		.uleb128 0x3c
 1882 018d 19       		.uleb128 0x19
 1883 018e 00       		.byte	0
 1884 018f 00       		.byte	0
 1885 0190 00       		.byte	0
 1886              		.section	.debug_loc,"",%progbits
 1887              	.Ldebug_loc0:
 1888              	.LLST0:
 1889 0000 00000000 		.4byte	.LVL0
 1890 0004 32000000 		.4byte	.LVL2
 1891 0008 0100     		.2byte	0x1
 1892 000a 50       		.byte	0x50
 1893 000b 32000000 		.4byte	.LVL2
 1894 000f 48000000 		.4byte	.LFE179
 1895 0013 0400     		.2byte	0x4
 1896 0015 F3       		.byte	0xf3
 1897 0016 01       		.uleb128 0x1
 1898 0017 50       		.byte	0x50
 1899 0018 9F       		.byte	0x9f
 1900 0019 00000000 		.4byte	0
 1901 001d 00000000 		.4byte	0
 1902              	.LLST1:
 1903 0021 00000000 		.4byte	.LVL0
 1904 0025 1A000000 		.4byte	.LVL1
 1905 0029 0100     		.2byte	0x1
 1906 002b 51       		.byte	0x51
 1907 002c 1A000000 		.4byte	.LVL1
 1908 0030 48000000 		.4byte	.LFE179
ARM GAS  /tmp/ccpjYCoh.s 			page 48


 1909 0034 0400     		.2byte	0x4
 1910 0036 F3       		.byte	0xf3
 1911 0037 01       		.uleb128 0x1
 1912 0038 51       		.byte	0x51
 1913 0039 9F       		.byte	0x9f
 1914 003a 00000000 		.4byte	0
 1915 003e 00000000 		.4byte	0
 1916              	.LLST2:
 1917 0042 00000000 		.4byte	.LVL3
 1918 0046 24000000 		.4byte	.LVL4
 1919 004a 0100     		.2byte	0x1
 1920 004c 50       		.byte	0x50
 1921 004d 24000000 		.4byte	.LVL4
 1922 0051 38000000 		.4byte	.LFE180
 1923 0055 0400     		.2byte	0x4
 1924 0057 F3       		.byte	0xf3
 1925 0058 01       		.uleb128 0x1
 1926 0059 50       		.byte	0x50
 1927 005a 9F       		.byte	0x9f
 1928 005b 00000000 		.4byte	0
 1929 005f 00000000 		.4byte	0
 1930              	.LLST3:
 1931 0063 00000000 		.4byte	.LVL5
 1932 0067 14000000 		.4byte	.LVL6
 1933 006b 0100     		.2byte	0x1
 1934 006d 50       		.byte	0x50
 1935 006e 14000000 		.4byte	.LVL6
 1936 0072 30000000 		.4byte	.LFE181
 1937 0076 0400     		.2byte	0x4
 1938 0078 F3       		.byte	0xf3
 1939 0079 01       		.uleb128 0x1
 1940 007a 50       		.byte	0x50
 1941 007b 9F       		.byte	0x9f
 1942 007c 00000000 		.4byte	0
 1943 0080 00000000 		.4byte	0
 1944              	.LLST4:
 1945 0084 00000000 		.4byte	.LVL5
 1946 0088 1C000000 		.4byte	.LVL7
 1947 008c 0100     		.2byte	0x1
 1948 008e 51       		.byte	0x51
 1949 008f 1C000000 		.4byte	.LVL7
 1950 0093 30000000 		.4byte	.LFE181
 1951 0097 0400     		.2byte	0x4
 1952 0099 F3       		.byte	0xf3
 1953 009a 01       		.uleb128 0x1
 1954 009b 51       		.byte	0x51
 1955 009c 9F       		.byte	0x9f
 1956 009d 00000000 		.4byte	0
 1957 00a1 00000000 		.4byte	0
 1958              	.LLST5:
 1959 00a5 00000000 		.4byte	.LVL8
 1960 00a9 06000000 		.4byte	.LVL9
 1961 00ad 0100     		.2byte	0x1
 1962 00af 50       		.byte	0x50
 1963 00b0 06000000 		.4byte	.LVL9
 1964 00b4 1C000000 		.4byte	.LFE182
 1965 00b8 0400     		.2byte	0x4
ARM GAS  /tmp/ccpjYCoh.s 			page 49


 1966 00ba F3       		.byte	0xf3
 1967 00bb 01       		.uleb128 0x1
 1968 00bc 50       		.byte	0x50
 1969 00bd 9F       		.byte	0x9f
 1970 00be 00000000 		.4byte	0
 1971 00c2 00000000 		.4byte	0
 1972              		.section	.debug_aranges,"",%progbits
 1973 0000 34000000 		.4byte	0x34
 1974 0004 0200     		.2byte	0x2
 1975 0006 00000000 		.4byte	.Ldebug_info0
 1976 000a 04       		.byte	0x4
 1977 000b 00       		.byte	0
 1978 000c 0000     		.2byte	0
 1979 000e 0000     		.2byte	0
 1980 0010 00000000 		.4byte	.LFB179
 1981 0014 48000000 		.4byte	.LFE179-.LFB179
 1982 0018 00000000 		.4byte	.LFB180
 1983 001c 38000000 		.4byte	.LFE180-.LFB180
 1984 0020 00000000 		.4byte	.LFB181
 1985 0024 30000000 		.4byte	.LFE181-.LFB181
 1986 0028 00000000 		.4byte	.LFB182
 1987 002c 1C000000 		.4byte	.LFE182-.LFB182
 1988 0030 00000000 		.4byte	0
 1989 0034 00000000 		.4byte	0
 1990              		.section	.debug_ranges,"",%progbits
 1991              	.Ldebug_ranges0:
 1992 0000 00000000 		.4byte	.LFB179
 1993 0004 48000000 		.4byte	.LFE179
 1994 0008 00000000 		.4byte	.LFB180
 1995 000c 38000000 		.4byte	.LFE180
 1996 0010 00000000 		.4byte	.LFB181
 1997 0014 30000000 		.4byte	.LFE181
 1998 0018 00000000 		.4byte	.LFB182
 1999 001c 1C000000 		.4byte	.LFE182
 2000 0020 00000000 		.4byte	0
 2001 0024 00000000 		.4byte	0
 2002              		.section	.debug_line,"",%progbits
 2003              	.Ldebug_line0:
 2004 0000 E7010000 		.section	.debug_str,"MS",%progbits,1
 2004      02008401 
 2004      00000201 
 2004      FB0E0D00 
 2004      01010101 
 2005              	.LASF46:
 2006 0000 63685F74 		.ascii	"ch_threads_list\000"
 2006      68726561 
 2006      64735F6C 
 2006      69737400 
 2007              	.LASF97:
 2008 0010 77746D74 		.ascii	"wtmtxp\000"
 2008      787000
 2009              	.LASF87:
 2010 0017 72656761 		.ascii	"regarm_t\000"
 2010      726D5F74 
 2010      00
 2011              	.LASF111:
 2012 0020 2E2E2F2E 		.ascii	"../../../os/hal/ports/common/ARMCMx/nvic.c\000"
ARM GAS  /tmp/ccpjYCoh.s 			page 50


 2012      2E2F2E2E 
 2012      2F6F732F 
 2012      68616C2F 
 2012      706F7274 
 2013              	.LASF35:
 2014 004b 666C6167 		.ascii	"flags\000"
 2014      7300
 2015              	.LASF26:
 2016 0051 73797374 		.ascii	"systime_t\000"
 2016      696D655F 
 2016      7400
 2017              	.LASF41:
 2018 005b 7265616C 		.ascii	"realprio\000"
 2018      7072696F 
 2018      00
 2019              	.LASF39:
 2020 0064 6570656E 		.ascii	"epending\000"
 2020      64696E67 
 2020      00
 2021              	.LASF0:
 2022 006d 756E7369 		.ascii	"unsigned int\000"
 2022      676E6564 
 2022      20696E74 
 2022      00
 2023              	.LASF47:
 2024 007a 6E657874 		.ascii	"next\000"
 2024      00
 2025              	.LASF44:
 2026 007f 74687265 		.ascii	"threads_list_t\000"
 2026      6164735F 
 2026      6C697374 
 2026      5F7400
 2027              	.LASF7:
 2028 008e 5F5F696E 		.ascii	"__int32_t\000"
 2028      7433325F 
 2028      7400
 2029              	.LASF36:
 2030 0098 72656673 		.ascii	"refs\000"
 2030      00
 2031              	.LASF93:
 2032 009d 77746F62 		.ascii	"wtobjp\000"
 2032      6A7000
 2033              	.LASF108:
 2034 00a4 68616E64 		.ascii	"handler\000"
 2034      6C657200 
 2035              	.LASF68:
 2036 00ac 76746C69 		.ascii	"vtlist\000"
 2036      737400
 2037              	.LASF89:
 2038 00b3 706F7274 		.ascii	"port_context\000"
 2038      5F636F6E 
 2038      74657874 
 2038      00
 2039              	.LASF52:
 2040 00c0 63685F72 		.ascii	"ch_ready_list\000"
 2040      65616479 
 2040      5F6C6973 
ARM GAS  /tmp/ccpjYCoh.s 			page 51


 2040      7400
 2041              	.LASF58:
 2042 00ce 66756E63 		.ascii	"func\000"
 2042      00
 2043              	.LASF98:
 2044 00d3 65776D61 		.ascii	"ewmask\000"
 2044      736B00
 2045              	.LASF106:
 2046 00da 6E766963 		.ascii	"nvicDisableVector\000"
 2046      44697361 
 2046      626C6556 
 2046      6563746F 
 2046      7200
 2047              	.LASF50:
 2048 00ec 70726576 		.ascii	"prev\000"
 2048      00
 2049              	.LASF49:
 2050 00f1 63685F74 		.ascii	"ch_threads_queue\000"
 2050      68726561 
 2050      64735F71 
 2050      75657565 
 2050      00
 2051              	.LASF54:
 2052 0102 76746675 		.ascii	"vtfunc_t\000"
 2052      6E635F74 
 2052      00
 2053              	.LASF63:
 2054 010b 63685F73 		.ascii	"ch_system_debug\000"
 2054      79737465 
 2054      6D5F6465 
 2054      62756700 
 2055              	.LASF110:
 2056 011b 474E5520 		.ascii	"GNU C 4.8.3 -mcpu=cortex-m0 -mno-thumb-interwork -m"
 2056      4320342E 
 2056      382E3320 
 2056      2D6D6370 
 2056      753D636F 
 2057 014e 7468756D 		.ascii	"thumb -ggdb -O2 -fomit-frame-pointer -falign-functi"
 2057      62202D67 
 2057      67646220 
 2057      2D4F3220 
 2057      2D666F6D 
 2058 0181 6F6E733D 		.ascii	"ons=16 -ffunction-sections -fdata-sections -fno-com"
 2058      3136202D 
 2058      6666756E 
 2058      6374696F 
 2058      6E2D7365 
 2059 01b4 6D6F6E20 		.ascii	"mon -flto\000"
 2059      2D666C74 
 2059      6F00
 2060              	.LASF17:
 2061 01be 75696E74 		.ascii	"uint32_t\000"
 2061      33325F74 
 2061      00
 2062              	.LASF95:
 2063 01c7 73656E74 		.ascii	"sentmsg\000"
 2063      6D736700 
ARM GAS  /tmp/ccpjYCoh.s 			page 52


 2064              	.LASF24:
 2065 01cf 6576656E 		.ascii	"eventmask_t\000"
 2065      746D6173 
 2065      6B5F7400 
 2066              	.LASF70:
 2067 01db 49534552 		.ascii	"ISER\000"
 2067      00
 2068              	.LASF99:
 2069 01e0 63685F73 		.ascii	"ch_semaphore\000"
 2069      656D6170 
 2069      686F7265 
 2069      00
 2070              	.LASF22:
 2071 01ed 74707269 		.ascii	"tprio_t\000"
 2071      6F5F7400 
 2072              	.LASF73:
 2073 01f5 52534552 		.ascii	"RSERVED1\000"
 2073      56454431 
 2073      00
 2074              	.LASF56:
 2075 01fe 63685F76 		.ascii	"ch_virtual_timer\000"
 2075      69727475 
 2075      616C5F74 
 2075      696D6572 
 2075      00
 2076              	.LASF13:
 2077 020f 6C6F6E67 		.ascii	"long long unsigned int\000"
 2077      206C6F6E 
 2077      6720756E 
 2077      7369676E 
 2077      65642069 
 2078              	.LASF5:
 2079 0226 5F5F7569 		.ascii	"__uint16_t\000"
 2079      6E743136 
 2079      5F7400
 2080              	.LASF25:
 2081 0231 636E745F 		.ascii	"cnt_t\000"
 2081      7400
 2082              	.LASF101:
 2083 0237 6F776E65 		.ascii	"owner\000"
 2083      7200
 2084              	.LASF48:
 2085 023d 74687265 		.ascii	"threads_queue_t\000"
 2085      6164735F 
 2085      71756575 
 2085      655F7400 
 2086              	.LASF40:
 2087 024d 6D74786C 		.ascii	"mtxlist\000"
 2087      69737400 
 2088              	.LASF60:
 2089 0255 63685F76 		.ascii	"ch_virtual_timers_list\000"
 2089      69727475 
 2089      616C5F74 
 2089      696D6572 
 2089      735F6C69 
 2090              	.LASF27:
 2091 026c 74687265 		.ascii	"thread_t\000"
ARM GAS  /tmp/ccpjYCoh.s 			page 53


 2091      61645F74 
 2091      00
 2092              	.LASF91:
 2093 0275 7264796D 		.ascii	"rdymsg\000"
 2093      736700
 2094              	.LASF81:
 2095 027c 43505549 		.ascii	"CPUID\000"
 2095      4400
 2096              	.LASF104:
 2097 0282 5F426F6F 		.ascii	"_Bool\000"
 2097      6C00
 2098              	.LASF100:
 2099 0288 63685F6D 		.ascii	"ch_mutex\000"
 2099      75746578 
 2099      00
 2100              	.LASF12:
 2101 0291 5F5F7569 		.ascii	"__uint64_t\000"
 2101      6E743634 
 2101      5F7400
 2102              	.LASF109:
 2103 029c 6E766963 		.ascii	"nvicClearPending\000"
 2103      436C6561 
 2103      7250656E 
 2103      64696E67 
 2103      00
 2104              	.LASF29:
 2105 02ad 7072696F 		.ascii	"prio\000"
 2105      00
 2106              	.LASF102:
 2107 02b2 63686172 		.ascii	"char\000"
 2107      00
 2108              	.LASF43:
 2109 02b7 74687265 		.ascii	"thread_reference_t\000"
 2109      61645F72 
 2109      65666572 
 2109      656E6365 
 2109      5F7400
 2110              	.LASF33:
 2111 02ca 77616261 		.ascii	"wabase\000"
 2111      736500
 2112              	.LASF82:
 2113 02d1 49435352 		.ascii	"ICSR\000"
 2113      00
 2114              	.LASF20:
 2115 02d6 74737461 		.ascii	"tstate_t\000"
 2115      74655F74 
 2115      00
 2116              	.LASF83:
 2117 02df 41495243 		.ascii	"AIRCR\000"
 2117      5200
 2118              	.LASF14:
 2119 02e5 75696E74 		.ascii	"uint8_t\000"
 2119      385F7400 
 2120              	.LASF38:
 2121 02ed 6D736771 		.ascii	"msgqueue\000"
 2121      75657565 
 2121      00
ARM GAS  /tmp/ccpjYCoh.s 			page 54


 2122              	.LASF45:
 2123 02f6 63685F74 		.ascii	"ch_thread\000"
 2123      68726561 
 2123      6400
 2124              	.LASF62:
 2125 0300 73797374 		.ascii	"system_debug_t\000"
 2125      656D5F64 
 2125      65627567 
 2125      5F7400
 2126              	.LASF11:
 2127 030f 6C6F6E67 		.ascii	"long long int\000"
 2127      206C6F6E 
 2127      6720696E 
 2127      7400
 2128              	.LASF85:
 2129 031d 53484353 		.ascii	"SHCSR\000"
 2129      5200
 2130              	.LASF23:
 2131 0323 6D73675F 		.ascii	"msg_t\000"
 2131      7400
 2132              	.LASF55:
 2133 0329 76697274 		.ascii	"virtual_timer_t\000"
 2133      75616C5F 
 2133      74696D65 
 2133      725F7400 
 2134              	.LASF76:
 2135 0339 49435052 		.ascii	"ICPR\000"
 2135      00
 2136              	.LASF64:
 2137 033e 70616E69 		.ascii	"panic_msg\000"
 2137      635F6D73 
 2137      6700
 2138              	.LASF19:
 2139 0348 746D6F64 		.ascii	"tmode_t\000"
 2139      655F7400 
 2140              	.LASF69:
 2141 0350 6D61696E 		.ascii	"mainthread\000"
 2141      74687265 
 2141      616400
 2142              	.LASF15:
 2143 035b 75696E74 		.ascii	"uint16_t\000"
 2143      31365F74 
 2143      00
 2144              	.LASF105:
 2145 0364 6E766963 		.ascii	"nvicEnableVector\000"
 2145      456E6162 
 2145      6C655665 
 2145      63746F72 
 2145      00
 2146              	.LASF71:
 2147 0375 52455345 		.ascii	"RESERVED0\000"
 2147      52564544 
 2147      3000
 2148              	.LASF84:
 2149 037f 52455345 		.ascii	"RESERVED1\000"
 2149      52564544 
 2149      3100
ARM GAS  /tmp/ccpjYCoh.s 			page 55


 2150              	.LASF75:
 2151 0389 52455345 		.ascii	"RESERVED2\000"
 2151      52564544 
 2151      3200
 2152              	.LASF77:
 2153 0393 52455345 		.ascii	"RESERVED3\000"
 2153      52564544 
 2153      3300
 2154              	.LASF78:
 2155 039d 52455345 		.ascii	"RESERVED4\000"
 2155      52564544 
 2155      3400
 2156              	.LASF3:
 2157 03a7 73686F72 		.ascii	"short int\000"
 2157      7420696E 
 2157      7400
 2158              	.LASF8:
 2159 03b1 6C6F6E67 		.ascii	"long int\000"
 2159      20696E74 
 2159      00
 2160              	.LASF90:
 2161 03ba 706F7274 		.ascii	"port_intctx\000"
 2161      5F696E74 
 2161      63747800 
 2162              	.LASF66:
 2163 03c6 63685F73 		.ascii	"ch_system\000"
 2163      79737465 
 2163      6D00
 2164              	.LASF61:
 2165 03d0 6C617374 		.ascii	"lasttime\000"
 2165      74696D65 
 2165      00
 2166              	.LASF18:
 2167 03d9 75696E74 		.ascii	"uint64_t\000"
 2167      36345F74 
 2167      00
 2168              	.LASF67:
 2169 03e2 726C6973 		.ascii	"rlist\000"
 2169      7400
 2170              	.LASF4:
 2171 03e8 5F5F7569 		.ascii	"__uint8_t\000"
 2171      6E74385F 
 2171      7400
 2172              	.LASF80:
 2173 03f2 4E564943 		.ascii	"NVIC_Type\000"
 2173      5F547970 
 2173      6500
 2174              	.LASF86:
 2175 03fc 5343425F 		.ascii	"SCB_Type\000"
 2175      54797065 
 2175      00
 2176              	.LASF32:
 2177 0405 6E616D65 		.ascii	"name\000"
 2177      00
 2178              	.LASF79:
 2179 040a 73697A65 		.ascii	"sizetype\000"
 2179      74797065 
ARM GAS  /tmp/ccpjYCoh.s 			page 56


 2179      00
 2180              	.LASF21:
 2181 0413 74726566 		.ascii	"trefs_t\000"
 2181      735F7400 
 2182              	.LASF10:
 2183 041b 6C6F6E67 		.ascii	"long unsigned int\000"
 2183      20756E73 
 2183      69676E65 
 2183      6420696E 
 2183      7400
 2184              	.LASF51:
 2185 042d 72656164 		.ascii	"ready_list_t\000"
 2185      795F6C69 
 2185      73745F74 
 2185      00
 2186              	.LASF28:
 2187 043a 71756575 		.ascii	"queue\000"
 2187      6500
 2188              	.LASF16:
 2189 0440 696E7433 		.ascii	"int32_t\000"
 2189      325F7400 
 2190              	.LASF103:
 2191 0448 6D757465 		.ascii	"mutex_t\000"
 2191      785F7400 
 2192              	.LASF30:
 2193 0450 6E657765 		.ascii	"newer\000"
 2193      7200
 2194              	.LASF2:
 2195 0456 756E7369 		.ascii	"unsigned char\000"
 2195      676E6564 
 2195      20636861 
 2195      7200
 2196              	.LASF9:
 2197 0464 5F5F7569 		.ascii	"__uint32_t\000"
 2197      6E743332 
 2197      5F7400
 2198              	.LASF37:
 2199 046f 77616974 		.ascii	"waiting\000"
 2199      696E6700 
 2200              	.LASF59:
 2201 0477 76697274 		.ascii	"virtual_timers_list_t\000"
 2201      75616C5F 
 2201      74696D65 
 2201      72735F6C 
 2201      6973745F 
 2202              	.LASF72:
 2203 048d 49434552 		.ascii	"ICER\000"
 2203      00
 2204              	.LASF113:
 2205 0492 5F5F6675 		.ascii	"__func__.6153\000"
 2205      6E635F5F 
 2205      2E363135 
 2205      3300
 2206              	.LASF34:
 2207 04a0 73746174 		.ascii	"state\000"
 2207      6500
 2208              	.LASF65:
ARM GAS  /tmp/ccpjYCoh.s 			page 57


 2209 04a6 63685F73 		.ascii	"ch_system_t\000"
 2209      79737465 
 2209      6D5F7400 
 2210              	.LASF96:
 2211 04b2 77747365 		.ascii	"wtsemp\000"
 2211      6D7000
 2212              	.LASF94:
 2213 04b9 77747472 		.ascii	"wttrp\000"
 2213      7000
 2214              	.LASF1:
 2215 04bf 7369676E 		.ascii	"signed char\000"
 2215      65642063 
 2215      68617200 
 2216              	.LASF57:
 2217 04cb 64656C74 		.ascii	"delta\000"
 2217      6100
 2218              	.LASF6:
 2219 04d1 73686F72 		.ascii	"short unsigned int\000"
 2219      7420756E 
 2219      7369676E 
 2219      65642069 
 2219      6E7400
 2220              	.LASF88:
 2221 04e4 73746B61 		.ascii	"stkalign_t\000"
 2221      6C69676E 
 2221      5F7400
 2222              	.LASF53:
 2223 04ef 63757272 		.ascii	"current\000"
 2223      656E7400 
 2224              	.LASF74:
 2225 04f7 49535052 		.ascii	"ISPR\000"
 2225      00
 2226              	.LASF31:
 2227 04fc 6F6C6465 		.ascii	"older\000"
 2227      7200
 2228              	.LASF112:
 2229 0502 2F686F6D 		.ascii	"/home/awygle/ChibiOS-RT/demos/STM32/RT-STM32F030R8-"
 2229      652F6177 
 2229      79676C65 
 2229      2F436869 
 2229      62694F53 
 2230 0535 4E55434C 		.ascii	"NUCLEO64\000"
 2230      454F3634 
 2230      00
 2231              	.LASF92:
 2232 053e 65786974 		.ascii	"exitcode\000"
 2232      636F6465 
 2232      00
 2233              	.LASF42:
 2234 0547 6D706F6F 		.ascii	"mpool\000"
 2234      6C00
 2235              	.LASF107:
 2236 054d 6E766963 		.ascii	"nvicSetSystemHandlerPriority\000"
 2236      53657453 
 2236      79737465 
 2236      6D48616E 
 2236      646C6572 
ARM GAS  /tmp/ccpjYCoh.s 			page 58


 2237              		.comm	__gnu_lto_v1,1,1
 2238              		.ident	"GCC: (4.8.3-18ubuntu2+12) 4.8.3"
ARM GAS  /tmp/ccpjYCoh.s 			page 59


DEFINED SYMBOLS
                            *ABS*:0000000000000000 nvic.c
     /tmp/ccpjYCoh.s:252    .text.nvicEnableVector:0000000000000000 $t
     /tmp/ccpjYCoh.s:258    .text.nvicEnableVector:0000000000000000 nvicEnableVector
     /tmp/ccpjYCoh.s:321    .text.nvicEnableVector:0000000000000044 $d
     /tmp/ccpjYCoh.s:326    .text.nvicDisableVector:0000000000000000 $t
     /tmp/ccpjYCoh.s:332    .text.nvicDisableVector:0000000000000000 nvicDisableVector
     /tmp/ccpjYCoh.s:375    .text.nvicDisableVector:0000000000000034 $d
     /tmp/ccpjYCoh.s:380    .text.nvicSetSystemHandlerPriority:0000000000000000 $t
     /tmp/ccpjYCoh.s:386    .text.nvicSetSystemHandlerPriority:0000000000000000 nvicSetSystemHandlerPriority
     /tmp/ccpjYCoh.s:431    .text.nvicSetSystemHandlerPriority:000000000000002c $d
     /tmp/ccpjYCoh.s:436    .text.nvicClearPending:0000000000000000 $t
     /tmp/ccpjYCoh.s:442    .text.nvicClearPending:0000000000000000 nvicClearPending
     /tmp/ccpjYCoh.s:465    .text.nvicClearPending:0000000000000018 $d
                            *COM*:0000000000000001 __gnu_lto_v1
                     .debug_frame:0000000000000010 $d
     /tmp/ccpjYCoh.s:325    .text.nvicEnableVector:0000000000000048 $t
     /tmp/ccpjYCoh.s:379    .text.nvicDisableVector:0000000000000038 $t
     /tmp/ccpjYCoh.s:469    .text.nvicClearPending:000000000000001c $t

NO UNDEFINED SYMBOLS
