ARM GAS  /tmp/ccTRMAI7.s 			page 1


   1              		.cpu cortex-m0
   2              		.fpu softvfp
   3              		.eabi_attribute 20, 1
   4              		.eabi_attribute 21, 1
   5              		.eabi_attribute 23, 3
   6              		.eabi_attribute 24, 1
   7              		.eabi_attribute 25, 1
   8              		.eabi_attribute 26, 1
   9              		.eabi_attribute 30, 2
  10              		.eabi_attribute 34, 0
  11              		.eabi_attribute 18, 4
  12              		.code	16
  13              		.file	"test_sequence_010.c"
  14              		.text
  15              	.Ltext0:
  16              		.section	.gnu.lto_.jmpfuncs.d9472d87f8791e7b,"",%progbits
  17 0000 789CC554 		.ascii	"x\234\305T\275N\3030\020>'\245\224\376\246E\252`\261"
  17      BD4EC330 
  17      103E27A5 
  17      94FEA645 
  17      AA60B1
  18 0013 BCF3046C 		.ascii	"\274\363\004l\314\354H\254&qS\213\304\211H@@\227\214"
  18      CCEC48AC 
  18      2671538B 
  18      C4894840 
  18      40978C
  19 0026 B03077E1 		.ascii	"\2600w\341\235x\014\236\241\003\305\211\003$\220\266"
  19      9D780C9E 
  19      A103C589 
  19      032490B6 
  20 0036 A912952C 		.ascii	"\251\022\225,\261\357\356\3739\237t\032hP\364=7\001"
  20      B1EFEEFB 
  20      399F741A 
  20      6850F43D 
  20      3701
  21 0048 5EE45F87 		.ascii	"^\344_\207\270@\233\301\"\232G\006G\200\001\275F\363"
  21      B8409BC1 
  21      229A4706 
  21      478001BD 
  21      46F3
  22 005a 338E5052 		.ascii	"3\216PR\247k\227\210\243\230#9\350\321\307r9\370\272"
  22      A76B9788 
  22      A3982339 
  22      E8D1C772 
  22      39F8BA
  23 006d B400D02F 		.ascii	"\264\000\320/|\003\303\221\302\357\245\3708\365\024"
  23      7C03C391 
  23      C2EFA5F8 
  23      38F514
  24 007c A7345751 		.ascii	"\2474WQ&\330\246\221!\371\021I y\306}\014'\212\261\245"
  24      26D8A691 
  24      21F91149 
  24      2079C67D 
  24      0C278AB1 
  25 0091 E0D9E401 		.ascii	"\340\331\344\001\206S\225l\257\222Ku:\360\327l\027\303"
  25      8653956C 
  25      AF924B75 
ARM GAS  /tmp/ccTRMAI7.s 			page 2


  25      3AF0D76C 
  25      17C3
  26 00a3 B942F7D6 		.ascii	"\271B\367\326\232\355\344\016[\266\233\353s\235\273"
  26      9AEDE40E 
  26      5BB69BEB 
  26      739DBB
  27 00b2 6A8DA135 		.ascii	"j\215\2415oM2\036r*}\014\027JePN\245\3448K\024U\356"
  27      6F4D321E 
  27      722A7D0C 
  27      174A6550 
  27      4EA5E438 
  28 00ca B602C1D6 		.ascii	"\266\002\301\326\331\015\366w\374\214\303:\237\261\326"
  28      D90DF677 
  28      FC8CC33A 
  28      9FB1D6
  29 00d9 A1EE66F2 		.ascii	"\241\356f\362\377lY\256H+\273\"\313'\015\0143\225\034"
  29      FF6C59AE 
  29      482BBB22 
  29      CB270D0C 
  29      33951C
  30 00ec AE6EB6A6 		.ascii	"\256n\266\246\235\272a\253\0273\350o\307\365\014\252"
  30      9DBA61AB 
  30      1733E86F 
  30      C7F50CAA 
  31 00fc 5128F11D 		.ascii	"Q(\361\035\031\271\312\210\222z\357\312\343\230:\216"
  31      19B9CA88 
  31      927AEFCA 
  31      E3983A8E 
  32 010c 67D2907B 		.ascii	"g\322\220{\202\010/$\023\312\035f\301(\023NC\275\200"
  32      82082F24 
  32      13CA1D66 
  32      C128134E 
  32      43BD80
  33 011f 3F32624E 		.ascii	"?2bN\251\260\345\315\2302\352\223\311\015\265]&B\031"
  33      A9B0E5CD 
  33      9832EA93 
  33      C90DB55D 
  33      264219
  34 0132 68C768E6 		.ascii	"h\307h\346\372\341\003\364\271\270\243\016\267H\020"
  34      FAE103F4 
  34      B9B8A30E 
  34      B74810
  35 0141 D290C1F8 		.ascii	"\322\220\301\370V\260{\237\231\262\212$(\025>ty\020"
  35      56B07B9F 
  35      99B28A24 
  35      28153E74 
  35      7910
  36 0153 70614B12 		.ascii	"paK\022\306\310\225\224\273\206OT\243RU"
  36      C6C89594 
  36      BB864F54 
  36      A35255
  37              		.text
  38              		.section	.gnu.lto_.inline.d9472d87f8791e7b,"",%progbits
  39 0000 789C6362 		.ascii	"x\234cb`b\300\006\354\240\302\314\014\034\312V\214\014"
  39      6062C006 
  39      ECA0C2CC 
  39      0C1CCA56 
ARM GAS  /tmp/ccTRMAI7.s 			page 3


  39      8C0C
  40 0012 4C021702 		.ascii	"L\002\027\002\030\330\026\310\203EYx\031\030\230&\370"
  40      18D816C8 
  40      83455978 
  40      19189826 
  40      F8
  41 0023 31B0F281 		.ascii	"1\260\362\201\344\201ln\006\006\306\011~\350\302 >\210"
  41      E4816C6E 
  41      0606C609 
  41      7EE8C220 
  41      3E88
  42 0035 6616D8CA 		.ascii	"f\026\330\312\244\0074\242\217qM\004\206\031$\230\205"
  42      A40734A2 
  42      8F714D04 
  42      86192498 
  42      85
  43 0046 E043F561 		.ascii	"\340C\365aJ\300\365C)\354\332\341\252`\\\002\312p\270"
  43      4AC0F543 
  43      29ECDAE1 
  43      AA605C02 
  43      CA70B8
  44 0059 8948DDA4 		.ascii	"\211H\335\244Y\202C\023U5S\024\366X\370\014\354\374"
  44      59824313 
  44      55355314 
  44      F658F80C 
  44      ECFC
  45 006b 8CE06484 		.ascii	"\214\340d\204\034\271 \031\006\000\310\233*/"
  45      1CB92019 
  45      0600C89B 
  45      2A2F
  46              		.text
  47              		.section	.gnu.lto_.pureconst.d9472d87f8791e7b,"",%progbits
  48 0000 789C6362 		.ascii	"x\234cb`b`g\200\000f\006\011f\011\026\011\000\001\305"
  48      60626067 
  48      80006606 
  48      09660916 
  48      090001C5 
  49 0014 005E     		.ascii	"\000^"
  50              		.text
  51              		.section	.gnu.lto_test_010_002_execute.d9472d87f8791e7b,"",%progbits
  52 0000 789C9555 		.ascii	"x\234\225UML\023Q\020\236y\333m\013\266\026\371i\340"
  52      4D4C1351 
  52      109E79DB 
  52      6D0BB616 
  52      F969E0
  53 0013 4208470F 		.ascii	"B\010G\017-$$\036\361\256\211\027H4\036\232uY\313\306"
  53      2D24241E 
  53      F1AE8917 
  53      48341E9A 
  53      7559CBC6 
  54 0027 B68BB45C 		.ascii	"\266\213\264\\\340\300\243-\206\2031\204\023j\010\220"
  54      E0C0A32D 
  54      86833184 
  54      136A0890 
  55 0037 063D091A 		.ascii	"\006=\011\032.\304`hLL0\006\033\022\016^4\215\036\214"
  55      2EC46068 
  55      4C4C3006 
ARM GAS  /tmp/ccTRMAI7.s 			page 4


  55      1B120E5E 
  55      348D1E8C 
  56 004b 01A32789 		.ascii	"\001\243'\211h\254\357\247\335\026\254\255n\332\331"
  56      68ACEFA7 
  56      DD16ACAD 
  56      6EDAD9
  57 005a 37F3E6E7 		.ascii	"7\363\346\347\233y__\011\0208\371\\`_\217\023`\225\275"
  57      9B795F5F 
  57      091038F9 
  57      5C605F8F 
  57      136095BD 
  58 006e D1054866 		.ascii	"\321\005Hf_\003L\271\011Q7\317\001mT\366\374@=\012Q"
  58      5F034CB9 
  58      095137CF 
  58      016D54F6 
  58      FC403D0A 
  59 0083 F7824C73 		.ascii	"\367\202Lslv2\315\201N\351\244\226\026ND\276\000\204"
  59      6C7632CD 
  59      814EE9A4 
  59      96164E44 
  59      BE0084
  60 0096 49A23854 		.ascii	"I\2428T'N^A\236\234t\3032\315\316\345\247\277\355\342"
  60      274E5E41 
  60      9E9C74C3 
  60      32CDCEE5 
  60      A7BFEDE2 
  61 00aa 5D9A4D2F 		.ascii	"]\232M/\321\237\205\002\242\211\014H\037\202\216p\231"
  61      D19F8502 
  61      A2890C48 
  61      1F828E70 
  61      99
  62 00bb 29D8255E 		.ascii	")\330%^\304q\034\231\214\245o\207\266i:[(\364\213\250"
  62      C4711C99 
  62      8CA56F87 
  62      B6693A5B 
  62      28F48BA8 
  63 00cf FE7A516B 		.ascii	"\376zQk$\233/\024\016\276\347\337\037aK\273\013LT\032"
  63      249B2F14 
  63      0EBEE7DF 
  63      1F614BBB 
  63      0B4C541A 
  64 00e3 B8F072E1 		.ascii	"\270\360r\341\343\242\225\011G\033\027\314]\2054\245"
  64      E3A29509 
  64      471B17CC 
  64      5D8534A5 
  65 00f3 B35DBC16 		.ascii	"\263]\274\026\235\313.\346nw\320\245\344,\375\305`2"
  65      9DCB2EE6 
  65      6E77D0A5 
  65      E42CFDC5 
  65      6032
  66 0105 070217EB 		.ascii	"\007\002\027\353\325\323p\031\273\231\3140\011\334\227"
  66      D5D37019 
  66      BB99CC30 
  66      09DC97
  67 0114 3D034CF2 		.ascii	"=\003L\362y\014\"\341oe\007\222\033\363\207\035\032"
  67      790C22E1 
  67      6F650792 
ARM GAS  /tmp/ccTRMAI7.s 			page 5


  67      1BF3871D 
  67      1A
  68 0125 AEA00AF7 		.ascii	"\256\240\012\367\341\336\024\245M&\252\023pDg\370\312"
  68      E1DE14A5 
  68      4D26AA13 
  68      704467F8 
  68      CA
  69 0136 1915613C 		.ascii	"\031\025a<\275\023J+\225\333rp+\377\356!\312H\000;\302"
  69      BD134A2B 
  69      95DB7270 
  69      2BFFEE21 
  69      CA48003B 
  70 014b A523DA9E 		.ascii	"\245#\332\236n\271\301\236\220\211\015%@\"b\002\306"
  70      6EB9C19E 
  70      90890D25 
  70      40226202 
  70      C6
  71 015c 85295336 		.ascii	"\205)S6\231\330\010\360\022\222YU\032\212\255/\344\356"
  71      99D808F0 
  71      12925955 
  71      1A8AAD2F 
  71      E4EE
  72 016e 54B6EE26 		.ascii	"T\266\356&p\251^\353\022Mv+\347g\376Q\264Q\362\354e"
  72      70A95EEB 
  72      124D762B 
  72      E767FE51 
  72      B451F2EC 
  73 0183 D4D5F3B3 		.ascii	"\324\325\363\263\243\034\254\227\237\333\240IN\341\353"
  73      A31CAC97 
  73      9FDBA049 
  73      4EE1EB
  74 0192 D3CC5A47 		.ascii	"\323\314ZG\361\260J\247\226}\365%\245h\370X\364\366"
  74      F1B04AA7 
  74      967DF525 
  74      A568F858 
  74      F4F6
  75 01a4 48CC5F96 		.ascii	"H\314_\226\324Q\360<\214\255\366\300N\351\310\\\327"
  75      D451F03C 
  75      8CADF6C0 
  75      4EE9C85C 
  75      D7
  76 01b5 253E69A5 		.ascii	"%>i\245W\217\301.V\023\243w\263)y\344\224\332\345\266"
  76      578FC12E 
  76      5613A377 
  76      B32979E4 
  76      94DAE5B6 
  77 01c9 860F4401 		.ascii	"\206\017D\001\200\035H\275Ie\026\213\323\013\243\213"
  77      801D48BD 
  77      4965168B 
  77      D30BA38B 
  78 01d9 95E14102 		.ascii	"\225\341A\002|\016l{\203]\333\253\313M\356\314\215\355"
  78      7C0E6C7B 
  78      835DDBAB 
  78      CB4DEECC 
  78      8DED
  79 01eb 269EEE84 		.ascii	"&\236\356\204i\\\240\363\347M\364\225\017\206\365\272"
  79      695CA0F3 
ARM GAS  /tmp/ccTRMAI7.s 			page 6


  79      E74DF495 
  79      0F86F5BA 
  80 01fb 0DE903B4 		.ascii	"\015\351\003\264S\360\274J\345H\006\231\272\347Wr\220"
  80      53F0BC4A 
  80      E5480699 
  80      BAE75772 
  80      90
  81 020c CE7FFAE8 		.ascii	"\316\177\372\350\372\203\026gt\331 o\335\304f\0166\271"
  81      FA831667 
  81      74D9206F 
  81      DDC4660E 
  81      36B9
  82 021e B1F1E37F 		.ascii	"\261\361\343\177\231G\304\031\222\232\374\320p\225M"
  82      9947C419 
  82      929AFCD0 
  82      70954D
  83 022d B9FE01BA 		.ascii	"\271\376\001\272K\204\370\034\256\311\007\015\237\374"
  83      4B84F81C 
  83      AEC9070D 
  83      9FFC
  84 023b 533E9507 		.ascii	"S>\225\007\370j\221\342\220\223\342\231 \305f5R\264"
  84      F86A91E2 
  84      9093E299 
  84      20C56635 
  84      52B4
  85 024d 9D20C596 		.ascii	"\235 \305\226\234Y\021lE\215\343T U\210\220K}(\023\301"
  85      9C59116C 
  85      458DE354 
  85      20558890 
  85      4B7D2813 
  86 0262 CB525723 		.ascii	"\313RW#\202\257\032\021\274E\"\264t\302|\221\010\255"
  86      82AF1A11 
  86      BC4522B4 
  86      74C27C91 
  86      08AD
  87 0274 7F2782AF 		.ascii	"\177'\202\257\012\021\034\260\357f7\313\363}\033\030"
  87      0A111CB0 
  87      EF6637CB 
  87      F37D1B18 
  88 0284 FFDDF7C1 		.ascii	"\377\335\367\301:\235\341\363\024\000+63'6e\022\025"
  88      3A9DE1F3 
  88      14002B36 
  88      33273665 
  88      1215
  89 0296 565E80C8 		.ascii	"V^\200\3102s\2045\362\334\250\235\306)\256\271]\366"
  89      32738435 
  89      F2DCA89D 
  89      C629AEB9 
  89      5DF6
  90 02a8 4F504638 		.ascii	"OPF8\300n(f\345C\357\015\004\202\362\2230\342\211\340"
  90      C06E2866 
  90      E543EF0D 
  90      0482F293 
  90      30E289E0 
  91 02bc 682218B7 		.ascii	"h\"\030\267\306FuC\252\\\204\342\306\3151#\246\033\241"
  91      C6467543 
  91      AA5C84E2 
ARM GAS  /tmp/ccTRMAI7.s 			page 7


  91      C6CD3123 
  91      A61BA1
  92 02cf 9EDE9E80 		.ascii	"\236\336\236\200\016\215\011+\241EBqs\334\360D\264\321"
  92      0E8D092B 
  92      A1454271 
  92      73DCF044 
  92      B4D1
  93 02e1 B070610A 		.ascii	"\260pa\012\031\351U\207\015md\304\301\265\263v^+\036"
  93      19E95587 
  93      0D6D64C4 
  93      C1B5B376 
  93      5E2B1E
  94 02f4 D4AD68D4 		.ascii	"\324\255h\324\212\261U\304\274\0264czdl\310\010\352"
  94      8AB155C4 
  94      BC163463 
  94      7A646CC8 
  94      08EA
  95 0306 C3DC3B30 		.ascii	"\303\334;0\014\315Z$b\351Z\302\264b]\32753b\014\201"
  95      0CCD5A24 
  95      62E95AC2 
  95      B4625DD7 
  95      3533620C 
  96 031b BFC214B3 		.ascii	"\277\302\024\263\022%\363o\315\376\255\035"
  96      1225F36F 
  96      CDFEAD1D 
  97              		.text
  98              		.section	.gnu.lto_test_010_001_execute.d9472d87f8791e7b,"",%progbits
  99 0000 789CCD5A 		.ascii	"x\234\315Z{lS\327\031?\347\332N\034\307\211\3634\011"
  99      7B6C53D7 
  99      193FE7DA 
  99      4E1CC789 
  99      F33409
 100 0013 63C6A265 		.ascii	"c\306\242eL\375#\341\251U\373\003\306_eL\035\010A)\255"
 100      4CFD23E1 
 100      A955FB03 
 100      C65F654C 
 100      1D084129 
 101 0028 A6E01893 		.ascii	"\246\340\030\223\030\022;`\203\266 \312\215\023(4\011"
 101      18123B60 
 101      83B620CA 
 101      8D132834 
 101      09
 102 0039 092140A1 		.ascii	"\011!@\241\320\006\"\224nU\207VD\241\300\266\264\332"
 102      D0062294 
 102      6E558756 
 102      44A1C0B6 
 102      B4DA
 103 004b 2009AF6D 		.ascii	" \011\257mB-\210U\363\272\265\224\301\200\252\033ky"
 103      422D8855 
 103      F3BAB594 
 103      C180AA1B 
 103      6B79
 104 005d D43BDF77 		.ascii	"\324;\337w\217}\343\313\311\265=.\321\254\350\273\367"
 104      8F7DE3CB 
 104      C9B53D2E 
 104      D1ACE8BB 
 104      F7
ARM GAS  /tmp/ccTRMAI7.s 			page 8


 105 006e 3BF77C8F 		.ascii	";\367|\217\373\373^\276\276\221\210D\264\237\237PB\366"
 105      FBFB5EBE 
 105      BE918844 
 105      B49F9F50 
 105      42F6
 106 0080 3C45C88F 		.ascii	"<E\310\217\331\221\216%T\352<OH\223U\222\312N~\217\310"
 106      D9918E25 
 106      54EA3C4F 
 106      48935592 
 106      CA4E7E8F 
 107 0095 36D34527 		.ascii	"6\323E'\221\355&\316\231\2213s\316\202\234E\312A.\013"
 107      91ED26CE 
 107      99913373 
 107      CE829C45 
 107      CA412E0B 
 108 00a9 B92CCE65 		.ascii	"\271,\316e#\227\3159+rV.gC.\207\226)\246l|9\027\227"
 108      2397CD39 
 108      2B72562E 
 108      67432E87 
 108      9629A66C 
 109 00c1 73396747 		.ascii	"s9gG\316.9\332\277\303\270\274\346\3572.O\312\277]\312"
 109      CE2E39DA 
 109      BFC3B8BC 
 109      E6EF322E 
 109      4FCABF5D 
 110 00d6 3847CFD3 		.ascii	"8G\317\323\214\313\247\016P@\035\\\242\000%\0128W\210"
 110      8CCBA70E 
 110      50401D5C 
 110      A200250A 
 110      385788
 111 00e9 5C21E78A 		.ascii	"\\!\347\212\220+\342\\1r\305\234+A\256\204s\245\310"
 111      902BE25C 
 111      3172C59C 
 111      2B41AE84 
 111      73A5C8
 112 00fc 9572CE89 		.ascii	"\225r\316\211\234S*\273X\311\2701']\214\033C\313\025"
 112      9C532ABB 
 112      58C9B831 
 112      275D8C1B 
 112      43CB15
 113 010f C7CBE227 		.ascii	"\307\313\342'\345\224\302\011\241d\203d2[\262\262\255"
 113      E594C209 
 113      A1648364 
 113      325BB2B2 
 113      AD
 114 0120 39B65C7B 		.ascii	"9\266\\{^\276\243\240\260\250\270\244\3249\246\254\234"
 114      5EBEA3A0 
 114      B0A8B8A4 
 114      D439A6AC 
 114      9C
 115 0131 6E584201 		.ascii	"nXB\001n\333\004\262_\226\273\242\033\017\\\223vw\277"
 115      6EDB04B2 
 115      5F96BBA2 
 115      1B0F5C93 
 115      7677BF
 116 0144 DFD223DF 		.ascii	"\337\322#\337\217\305(\365S\026\232\351\224x)y\2361"
 116      8FC528F5 
ARM GAS  /tmp/ccTRMAI7.s 			page 9


 116      53169AE9 
 116      94782979 
 116      9E31
 117 0156 D48D07C9 		.ascii	"\324\215\007\311\314$@\240\277\253\177\333\313\355\345"
 117      CC2440A0 
 117      BFAB7FDB 
 117      CBEDE5
 118 0165 724FA453 		.ascii	"rO\244S\376\206\355\367S\223D\236\026n\027}\024\233"
 118      FE86EDF7 
 118      5393449E 
 118      166E177D 
 118      149B
 119 0177 FDDB8786 		.ascii	"\375\333\207\206\366S\271Kn\272\035\2139\320\342\367"
 119      F653B94B 
 119      6EBA1D8B 
 119      39D0E2F7 
 120 0187 53A9E092 		.ascii	"S\251\340\222\335Cm\266\316\246\315r,\266\001\345f\246"
 120      DD436DB6 
 120      CEA6CD72 
 120      2CB601E5 
 120      66A6
 121 0199 29B75323 		.ascii	")\267S#\367\243\264\344:\373\33793L\316,\221\027\322"
 121      F7A3B4E4 
 121      3AFBDF39 
 121      334CCE2C 
 121      9117D2
 122 01ac B477FC7C 		.ascii	"\264w\374|\262\275\352Tr\036\332K'$ >\275U\003qM:v\231"
 122      B2BDEA54 
 122      721EDA4B 
 122      2724203E 
 122      BD550371 
 123 01c4 E48397B5 		.ascii	"\344\203\227\265\222+\322\223\224\277X6 \267\364\307"
 123      922BD293 
 123      94BF5836 
 123      20B7F4C7 
 124 01d4 62B3506A 		.ascii	"b\263PjM*\251CR\1774\026\273q4\372\311\033\264\270\217"
 124      4D2AA943 
 124      527F3416 
 124      BB7134FA 
 124      C91BB4B8 
 125 01e9 5276036F 		.ascii	"Rv\003o\261\033\310!\354vm\214X\354@\034@\012\201\224"
 125      B11BC821 
 125      EC766D8C 
 125      58EC401C 
 125      400A8194 
 126 01fd 00710219 		.ascii	"\000q\002\031\313\266\356g[\307\001\343\0022\236\255"
 126      CBB6EE67 
 126      5BC701E3 
 126      02329EAD 
 127 020d F4B11537 		.ascii	"\364\261\02570\023\200<\301W\236d\307\237\263\343DX"
 127      3013803C 
 127      C1579E64 
 127      C79FB3E3 
 127      4458
 128 021f 9C04642A 		.ascii	"\234\004d*\030\230\006g3\200\314\004v\026\234\315\006"
 128      18980667 
 128      3380CC04 
ARM GAS  /tmp/ccTRMAI7.s 			page 10


 128      76169CCD 
 128      06
 129 0230 F20CB073 		.ascii	"\362\014\260s\340l.\220g\201\235\007d>\260\013\200<"
 129      E06C2E90 
 129      67819D07 
 129      643EB00B 
 129      803C
 130 0242 07EC6238 		.ascii	"\007\354b8[\002\244\012\330\245pV\015\244\006\330Z8"
 130      5B02A40A 
 130      D8A57056 
 130      0DA406D8 
 130      5A38
 131 0254 5B01A49E 		.ascii	"[\001\244\236\331?\310\354\007\201Y\005$\004\033\302"
 131      D93FC8EC 
 131      07815905 
 131      24041BC2 
 132 0264 70B61648 		.ascii	"p\266\026H#\260\353\340l=\220\227\370\376\015\354\370"
 132      23B0EBE0 
 132      6C3D9097 
 132      F8FE0DEC 
 132      F8
 133 0275 363BCA14 		.ascii	"6;\312\024V#H\267\000\315z\005i+\3226\244\355H\267\""
 133      562348B7 
 133      00CD7A05 
 133      692BD236 
 133      A4ED48B7 
 134 028a ED40DA89 		.ascii	"\355@\332\211t\033\322.\244\333\221v#\335\201t'\322"
 134      741BD22E 
 134      A4DB9176 
 134      23DD8174 
 134      27D2
 135 029c 5D485938 		.ascii	"]HY8,\244\205\245\253\233g_\354T\333\360,\310\222H\204"
 135      2CA485A5 
 135      AB9B675F 
 135      EC54DBF0 
 135      2CC89248 
 136 02b1 A697B8F2 		.ascii	"\246\227\270\362\257\3254`b\033\323\025\373(IlsJ1%\335"
 136      AFD53460 
 136      621BD315 
 136      FB28496C 
 136      734A3125 
 137 02c6 3DF410A3 		.ascii	"=\364\020\243\004\366\262\317BF\241{-\242\022\034M\347"
 137      04F6B2CF 
 137      4246A17B 
 137      2DA2121C 
 137      4DE7
 138 02d8 48E4D8AB 		.ascii	"H\344\330\253_\226y\350\021j!\257\221=M\262\\\200h\337"
 138      5F9679E8 
 138      116A21AF 
 138      913D4DB2 
 138      5C8068DF 
 139 02ec 9537C359 		.ascii	"\2257\303Yv=\212\201\372l\022?#\260v\201l\212\236\357"
 139      763D8A81 
 139      FA6C123F 
 139      23B07681 
 139      6C8A9EEF 
 140 0300 A58A640D 		.ascii	"\245\212d\015\315I\210X\275\024eP\211\325Os\352)\337"
ARM GAS  /tmp/ccTRMAI7.s 			page 11


 140      CD498858 
 140      BD146550 
 140      89D54F73 
 140      EA29DF
 141 0313 C5561AFD 		.ascii	"\305V\032\375\324\246x\304\227@\237\2150\204s\0119G"
 141      D4A678C4 
 141      97409F8D 
 141      30847309 
 141      3947
 142 0325 9A2F98E2 		.ascii	"\232/\230\342\012mL'\\4)\306,\361u{\302\220\335K\225"
 142      0A6D4C27 
 142      5C3429C6 
 142      2CF1757B 
 142      C290DD4B 
 143 033a 09C736C3 		.ascii	"\011\3076\303b\231\237\346\271H+\335'\277\372\003?\315"
 143      62999FE6 
 143      B9482BDD 
 143      27BFFA03 
 143      3FCD
 144 034c 8F5BF053 		.ascii	"\217[\360S\007!\003\244\345F\302W;\350\265\014\207j"
 144      072103A4 
 144      E546C257 
 144      3BE8B50C 
 144      876A
 145 035e 1135918B 		.ascii	"\0215\221\213ND\343\253;\231\242\001N\014\022I\221\342"
 145      4E44E3AB 
 145      3B99A201 
 145      4E0C1249 
 145      91E2
 146 0370 D9F1E054 		.ascii	"\331\361\340TR\217\310\221\310\336\224\361R\314\364"
 146      528FC891 
 146      C8DE94F1 
 146      52CCF4
 147 037f 9F38ED4C 		.ascii	"\2378\355L\002\015\224G\242W\274z\372Y79\220R?:\373"
 147      020D9447 
 147      A257BC7A 
 147      FA593739 
 147      90523F3A 
 148 0394 87722576 		.ascii	"\207r%v\267/\034<T\3163:\236\332\375gn61\374\0071:\247"
 148      B72F1C3C 
 148      54CE333A 
 148      9EDAFD67 
 148      6E3631FC 
 149 03ac 306B14A3 		.ascii	"0k\024\243^\006\017\342\274\205&\260(\360R\263\207\236"
 149      5E060FE2 
 149      BC8526B0 
 149      28F052B3 
 149      879E
 150 03be 553C5456 		.ascii	"U<TV\345\027\223\034\217\333\303\243\225\305\241\020"
 150      E517931C 
 150      8FDBC3A3 
 150      95C5A110 
 151 03ce 6FA59FE3 		.ascii	"o\245\237\343\353\241\357\242\011%\356\315\367\266&"
 151      EBA1EFA2 
 151      0925EECD 
 151      F7B626
 152 03dd 42EC0043 		.ascii	"B\354\000C \005U7<\366\205\242\330;x\354\213\\\344O"
ARM GAS  /tmp/ccTRMAI7.s 			page 12


 152      20055537 
 152      3CF685A2 
 152      D83B78EC 
 152      8B5CE44F 
 153 03f1 3CF6C523 		.ascii	"<\366\305#\307\276P\020{3\031\314Rb\1777\323\330\233"
 153      C7BE5010 
 153      7B3319CC 
 153      52627F37 
 153      D3D89B
 154 0404 D288BD87 		.ascii	"\322\210\275\207\236f\316\246\025\373+\302\330_\327"
 154      9E66CEA6 
 154      15FB2BC2 
 154      D85FD7
 155 0413 8FBD870E 		.ascii	"\217\275\207\016\245\324\217\225T\240\027\372;\020\372"
 155      A5D48F95 
 155      54A017FA 
 155      3B10FA
 156 0422 0F31F417 		.ascii	"\0171\364\027E\241\177E\033\372K)B\317\314\245\023\371"
 156      45A17F45 
 156      1BFA4B29 
 156      42CFCCA5 
 156      13F9
 157 0434 4BCD273A 		.ascii	"K\315':\022\001.\001;\242\310;E\221/\341\221/q\221k"
 157      12012E01 
 157      3BA2C83B 
 157      45912FE1 
 157      912F7191 
 158 0449 3CF2A523 		.ascii	"<\362\245#G\336)\210\274\205\374\213\232.\220\226\350"
 158      47DE2988 
 158      BC85FC8B 
 158      9A2E9096 
 158      E8
 159 045a ADBF65C7 		.ascii	"\255\277e\307!OXrz\371vp\312O\307\200\273\254[\3062"
 159      214F5872 
 159      7AF97670 
 159      CA4FC780 
 159      BBAC5BC6 
 160 046f CD11B302 		.ascii	"\315\021\263\002{t\363\301\\\216\272\207\376\012\201"
 160      7B74F3C1 
 160      5C8EBA87 
 160      FE0A81
 161 047e 3E3C0C68 		.ascii	"><\014h\26436E\027\375\353\360.\252\350HZ:\254.\361"
 161      B4333645 
 161      17FDEBF0 
 161      2EAAE848 
 161      5A3AAC2E 
 162 0493 8E1A19BC 		.ascii	"\216\032\031\274\315\345\224q\300l\360\202\353\353\266"
 162      CDE59471 
 162      C06CF082 
 162      EBEBB6
 163 04a2 28176AE8 		.ascii	"(\027j\3508\266\232\334k\225u\227\010\365q\034\3652"
 163      38B69ADC 
 163      6B957597 
 163      08F5711C 
 163      F532
 164 04b4 17B9CF51 		.ascii	"\027\271\317Q/W\215\252\250s\025\002\324\263\310i\234"
 164      2F578DAA 
ARM GAS  /tmp/ccTRMAI7.s 			page 13


 164      A8731502 
 164      D4B3C869 
 164      9C
 165 04c5 3C830307 		.ascii	"<\203\003\007\022\373\306+\367\203\276\2353\305W\335"
 165      12FBC62B 
 165      F783BE9D 
 165      33C557DD 
 166 04d5 EC023AE6 		.ascii	"\354\002:\346Hvl\202\3101\267\332\010:%\265\021\214"
 166      48766C82 
 166      C831B7DA 
 166      083A25B5 
 166      118C
 167 04e7 E0D80481 		.ascii	"\340\330\004\201c\331\244\024\375\372\\\365\353\011"
 167      63D9A414 
 167      FDFA5CF5 
 167      EB09
 168 04f5 D5AFC80F 		.ascii	"\325\257\310\017\343\213O\306C\307'\226\262:\221\355"
 168      E38B4FC6 
 168      43C72796 
 168      B23A91ED 
 169 0505 66D7921C 		.ascii	"f\327\222\034\235$rtbF\216N\0228j%\320\260>\270.\305"
 169      9D247274 
 169      62468E4E 
 169      12386A25 
 169      D0B03EB8 
 170 051b 430B3E4E 		.ascii	"C\013>N'\207\345\315\000\026:6\354\342\341\207.\262"
 170      2787E5CD 
 170      00163A36 
 170      ECE2E187 
 170      2EB2
 171 052d 56D75B9E 		.ascii	"V\327[\236a\032[\214mu\207\207D\255\256\3037\012\255"
 171      611A5B8C 
 171      6D758787 
 171      44ADAEC3 
 171      370AAD
 172 0540 EE6C8429 		.ascii	"\356l\204)\3727\226\312\227\242V\327\252mu\3771\240"
 172      FA3796CA 
 172      97A256D7 
 172      AA6D75FF 
 172      31A0
 173 0552 D51908DD 		.ascii	"\325\031\010\335\021!t\2737f=~\354Z\317\001v\367\021"
 173      112174BB 
 173      37663D7E 
 173      EC5ACF01 
 173      76F711
 174 0565 BBBB22EC 		.ascii	"\273\273\"\354\332\264\330}\363\010\330\0353\036\273"
 174      DAB4D87D 
 174      F308D81D 
 174      331EBB
 175 0574 A342ECF6 		.ascii	"\243B\354\366\214\006vg\020\273f\011\260k\222\004\330"
 175      8C067667 
 175      10BB6609 
 175      B06B9204 
 175      D8
 176 0585 B56BB1DB 		.ascii	"\265k\261\333(\375\357\330\035\347\330\301t\333\373"
 176      28FDEFD8 
 176      1DE7D8C1 
ARM GAS  /tmp/ccTRMAI7.s 			page 14


 176      74DBFB
 177 0594 A9EE746B 		.ascii	"\251\356tkU\246\033\333\331\263\317\242\267\261M\335"
 177      55A61BDB 
 177      D9B3CFA2 
 177      B7B14DDD 
 178 05a4 F8BAEEC6 		.ascii	"\370\272\356\306\366\370\306M\3217\016&&\360\324L\236"
 178      F6F8C64D 
 178      D1370E26 
 178      26F0D44C 
 178      9E
 179 05b5 117AD378 		.ascii	"\021z\323xF\230\306t\212\236\021f\210\272\356\264\214"
 179      4698C674 
 179      8A9E1166 
 179      88BAEEB4 
 179      8C
 180 05c6 9E116608 		.ascii	"\236\021f\010\272n\016\271I\261\355\276y\200\3524\336"
 180      BA6E0EB9 
 180      49B1EDBE 
 180      7980EA34 
 180      DE
 181 05d7 9523F55D 		.ascii	"\225#\365]E\213\215H\312\227\315_d\332\201\263\214-"
 181      458B8D48 
 181      CA97CD5F 
 181      64DA81B3 
 181      8C2D
 182 05e9 852BC252 		.ascii	"\205+\302Rxk4:\360\207P\011\273\260\022v\210*a\253\266"
 182      786B343A 
 182      F0875009 
 182      BBB01276 
 182      882A61AB 
 183 05fe 12763F42 		.ascii	"\022v?B%<\206\016\374\261\020\272\267G\245\003\177\004"
 183      253C860E 
 183      FCB110BA 
 183      B747A503 
 183      7F04
 184 0610 D8BD8ED8 		.ascii	"\330\275\216\330\355\025a\327\241\305\256\347\021\260"
 184      ED1561D7 
 184      A1C5AEE7 
 184      11B0
 185 061e 7B0C1DF8 		.ascii	"{\014\035\370/B\354~9*\035\030\261;\210\330\365\212"
 185      2F42EC7E 
 185      392A1D18 
 185      B13B88D8 
 185      F58A
 186 0630 B0EBD462 		.ascii	"\260\353\324b\327gP\007>\246\337\201;\325\306\372\236"
 186      D7675007 
 186      3EA6DF81 
 186      3BD5C6FA 
 186      9E
 187 0641 6E63ED50 		.ascii	"nc\355P7\036\327\335\270U\355\300'\324\016<\323\350"
 187      371ED7DD 
 187      B855EDC0 
 187      27D40E3C 
 187      D3E8
 188 0653 0E3C8BE9 		.ascii	"\016<\213\351\024u\340\331\242\016<+\243\016<[\320\201"
 188      1475E0D9 
 188      A20E3C2B 
ARM GAS  /tmp/ccTRMAI7.s 			page 15


 188      A30E3C5B 
 188      D081
 189 0665 7309557E 		.ascii	"s\011U~\262z'\323\336\231ml\022\3578#J\342\001\203z"
 189      B27A27D3 
 189      DE996D6C 
 189      12EF3823 
 189      4AE20183 
 190 067a 67A15EFD 		.ascii	"g\241^\375\177\0129|\024s\370\210(\207\267is\370\275"
 190      7F0A397C 
 190      1473F888 
 190      2887B769 
 190      73F8BD
 191 068d 54395C38 		.ascii	"T9\\8\252\275s\227\020\272\241Q\251\177\304\3567\210"
 191      AABD7397 
 191      10BAA151 
 191      A97FC4EE 
 191      3788
 192 069f DD491176 		.ascii	"\335I\021v]Z\354\372\015\350\235P\377g\365\353\177\233"
 192      5D5AECFA 
 192      0DE89D50 
 192      FF67F5EB 
 192      7F9B
 193 06b1 5AADE7D4 		.ascii	"Z\255\347\324j}\306\350j\235\303t>\257\374\\\230T\255"
 193      6A7DC6E8 
 193      6A9DC374 
 193      3EAFFC5C 
 193      9854AD
 194 06c4 7345D53A 		.ascii	"sE\325:\207W\353X\027\351\343O\251\337\032\271Z\347"
 194      8757EB58 
 194      17E9E34F 
 194      A9DF1AB9 
 194      5AE7
 195 06d6 0AAAD54E 		.ascii	"\012\252\325N\210\211!b%\006d\315>Q\326\214\250\331"
 195      88892162 
 195      250664CD 
 195      3E51D68C 
 195      A8D9
 196 06e8 A0517B15 		.ascii	"\240Q{\025\322\345,\246\313\220(]\266k\323\345\274\001"
 196      D2E52CA6 
 196      CB90285D 
 196      B66BD3E5 
 196      BC01
 197 06fa 5F532009 		.ascii	"_S \011.\253I\360\254\001I0@~wUU\230\350\327j\244\362"
 197      2EAB49F0 
 197      AC014930 
 197      407E7755 
 197      5598E8D7 
 198 0711 58A42E90 		.ascii	"X\244.\220\254\370\226yF\333\234\227\310\272\370g!k"
 198      ACF89679 
 198      46DB9C97 
 198      C8BAF867 
 198      216B
 199 0723 FD842E82 		.ascii	"\375\204.\202<\202\216~3\221\243\363k\300\342\260\344"
 199      3C828E7E 
 199      3391A3F3 
 199      6BC0E2B0 
 199      E4
ARM GAS  /tmp/ccTRMAI7.s 			page 16


 200 0734 5C204ACE 		.ascii	"\\ J\316\371\031\215\222\005\232\344\274L\360GF3%\371"
 200      F9198D92 
 200      059AE4BC 
 200      4CF04746 
 200      3325F9
 201 0747 E8334B8C 		.ascii	"\3503K\214<\302W\354\010H\001\002\322\022\275\242_\267"
 201      3CC257EC 
 201      08480102 
 201      D212BDA2 
 201      5FB7
 202 0759 5DEA38FE 		.ascii	"]\3528\376\263\3568\336\256\026\370\307jl\2373\272\300"
 202      B3EE38DE 
 202      AE16F8C7 
 202      6A6C9F33 
 202      BAC0
 203 076b 17339DA2 		.ascii	"\0273\235\242q\274D\204\341\342\2140\\\"(\360B%x\307"
 203      71BC4484 
 203      E1E28C30 
 203      5C2228F0 
 203      422578C7 
 204 077f 2E1DCF74 		.ascii	".\035\317t\034[\211\2413\345\262p\246\374c\024\036e"
 204      1C5B89A1 
 204      33E5B270 
 204      A6FC6314 
 204      1E65
 205 0791 5AEF408F 		.ascii	"Z\357@\217\370\014{\304\337E=\242[\333#>\377\377z\224"
 205      F80C7BC4 
 205      DF453DA2 
 205      5BDB233E 
 205      FFFF7A94 
 206 07a5 B92284EE 		.ascii	"\271\"\204\356\306\250\214c\304\356\237\210\335u\021"
 206      C6A88C63 
 206      C4EE9F88 
 206      DD7511
 207 07b4 763BB4D8 		.ascii	"v;\264\330\3352h\034\337\324/\353n\265Zo\251\325Zet"
 207      DD32681C 
 207      DFD42FEB 
 207      6EB55A6F 
 207      A9D55A65 
 208 07c9 B52E653A 		.ascii	"\265.e:E\343\270"
 208      45E3B8
 209 07d0 5A54AD4B 		.ascii	"ZT\255K3\032\307\325\202j-2p\034\177\361\230\306\261"
 209      331AC7D5 
 209      826A2D32 
 209      701C7FF1 
 209      98C6B1
 210 07e3 5BAFD4EE 		.ascii	"[\257\324\356C\272\334\303t\371Z\224.;\265\351\362 "
 210      43BADCC3 
 210      74F95A94 
 210      2E3BB5E9 
 210      F220
 211 07f5 55BAB8D3 		.ascii	"U\272\270\323\031\307-\321\257\365\323e\247:\005\356"
 211      19C72DD1 
 211      AFF5D365 
 211      A73A05EE 
 212 0805 EA4E811D 		.ascii	"\352N\201\035j^\335S\363\252\306\350\274\252e:ES`\205"
 212      6A5EDD53 
ARM GAS  /tmp/ccTRMAI7.s 			page 17


 212      F3AAC6E8 
 212      BCAA653A 
 212      45536085 
 213 0819 28AF6A33 		.ascii	"(\257j3\232\002+\004yU\314\247\300W\277\315t\012\344"
 213      9A022B04 
 213      7955CCA7 
 213      C057BFCD 
 213      740AE4
 214 082c 28D18E6E 		.ascii	"(\321\216n\351\243\017\301\226\204\005\213^UfpD\006"
 214      E9A30FC1 
 214      9684058B 
 214      5E556670 
 214      4406
 215 083e 2F7D724D 		.ascii	"/}rM\212\273]\257\3544\366\021\360\374\303%\240\253"
 215      8ABB5DAF 
 215      EC34F611 
 215      F0FCC325 
 215      A0AB
 216 0850 3CAD2A60 		.ascii	"<\255*`\276\352T\300\357\233\231\222\016\023\334s\273"
 216      BEEA54C0 
 216      EF9B9992 
 216      0E13DC73 
 216      BB
 217 0861 495001BB 		.ascii	"IP\001\273\264\025\260\3154r\0050S)\263\037_\320\036"
 217      B415B0CD 
 217      34720530 
 217      5329B31F 
 217      5FD01E
 218 0874 DA9B48A1 		.ascii	"\332\233H\241 \330\000)\355\013\332U\242\334\012f\364"
 218      20D80029 
 218      ED0BDA55 
 218      A2DC0A66 
 218      F4
 219 0885 82769520 		.ascii	"\202v\225 \267J\360{\330\246\236\266\354\370\256P:\325"
 219      B74AF07B 
 219      D8A69EB6 
 219      ECF8AE50 
 219      3AD5
 220 0897 C27361C4 		.ascii	"\302sa\304\012\0113=X!\232\273X+\272\2130\277\213q."
 220      0A09333D 
 220      58219ABB 
 220      582BBA8B 
 220      30BF8B71 
 221 08ac F22EEFBC 		.ascii	"\362.\357\274\337\036\371.\326\012\356\242\224\177\233"
 221      DF1EF92E 
 221      D60AEEA2 
 221      947F9B
 222 08bb 6CBFAADB 		.ascii	"l\277\252\333Gv\321\304[\346K\237eZK6^K{\373\022\256"
 222      4776D1C4 
 222      5BE64B9F 
 222      655A4B36 
 222      5E4B7BFB 
 223 08d1 341ADD58 		.ascii	"4\032\335X\3261\235\242\306\262^\004\333\272\214\032"
 223      D6319DA2 
 223      C6B25E04 
 223      DBBA8C1A 
 224 08e1 CB7A016C 		.ascii	"\313z\001lN\245\261\014\276\251>H\274\024/d\345u\254"
ARM GAS  /tmp/ccTRMAI7.s 			page 18


 224      4EA5B10C 
 224      BEA93E48 
 224      BC142F64 
 224      E575AC
 225 08f4 B2B821FE 		.ascii	"\262\270!\376?NI\316\312\224mg\027\223<\215P\221\253"
 225      3F4E49CE 
 225      CA946D67 
 225      17933C8D 
 225      5091AB
 226 0907 32E5BEBA 		.ascii	"2\345\276\272\\\344}\036\342\361#\373\032\241\002g\307"
 226      5CE47D1E 
 226      E2F123FB 
 226      1AA10267 
 226      C7
 227 0918 A0B3F8D6 		.ascii	"\240\263\370\326U)\241^\361+Y\345\342!\341\253\2012"
 227      5529A15E 
 227      F12B59E5 
 227      E221E1AB 
 227      8132
 228 092a FE3F591F 		.ascii	"\376?Y\037\\\037\010\351\250Y\251\257\245\034\265\374"
 228      5C1F08E9 
 228      A859A9AF 
 228      A51CB5FC 
 229 093a 91345955 		.ascii	"\2214YU\377\026\262\370\263U\270\341)\025\025\225\312"
 229      FF16B2F8 
 229      B355B8E1 
 229      29151595 
 229      CA
 230 094b 5FD8170A 		.ascii	"_\330\027\012W\256\016W\206\202kV{}\012\013\244*\344"
 230      57AE0E57 
 230      86826B56 
 230      7B7D0A0B 
 230      A42AE4
 231 095e 5BB5C617 		.ascii	"[\265\306\027\360\372\252&O\231\\\341%\246@\305d\032"
 231      F0FAAA26 
 231      4F995CE1 
 231      25A640C5 
 231      641A
 232 0970 60748A3D 		.ascii	"`t\212=\034\014{\352\252B\376F_\305\324\374:\317\352"
 232      1C0C7BEA 
 232      AA42FE46 
 232      5FC5D4FC 
 232      3ACFEA
 233 0983 1ADC0EEC 		.ascii	"\032\334\016\354\264l\377\362p}C\305ts\250\261b\206"
 233      B46CFFF2 
 233      707D43C5 
 233      7473A8B1 
 233      6286
 234 0995 146AB4A9 		.ascii	"\024j\264\251{\355\303wJ\015S\244\206\251R\303\264\202"
 234      7BEDC377 
 234      4A0D53A4 
 234      86A952C3 
 234      B482
 235 09a7 5A9FA7C1 		.ascii	"Z\237\247\301\275|\265\247\246\336\027\010\373\226\021"
 235      BD7CB5A7 
 235      A6DE1708 
 235      FB9611
ARM GAS  /tmp/ccTRMAI7.s 			page 19


 236 09b6 0B2C3498 		.ascii	"\013,4\230a\323S\011'\203\241Jo\260\276>\030`gu\376"
 236      61D35309 
 236      2783A14A 
 236      6FB0BE3E 
 236      18606775 
 237 09cb EA4A7FC0 		.ascii	"\352J\177\300[\267f\231\257\322[\013\273+j\211\323S"
 237      5BB76699 
 237      AFD25B0B 
 237      BB2B6A89 
 237      D353
 238 09dd 5717F47A 		.ascii	"W\027\364z\302\376`\300\035\010\206\335\313=\376:\246"
 238      C2FE60C0 
 238      1D0886DD 
 238      CB3DFE3A 
 238      A6
 239 09ee AC68D832 		.ascii	"\254h\3302_*\256\367\207B\376@\015\263\351\363\271\253"
 239      5F2AAEF7 
 239      8742FE40 
 239      0DB3E9F3 
 239      B9AB
 240 0a00 D9E595C4 		.ascii	"\331\345\225\304\271&\340\373i\203\317\313\354\273\321"
 240      B926E0FB 
 240      6983CFCB 
 240      ECBBD1
 241 0a0f 9F50D813 		.ascii	"\237P\330\023\366\221|\177`\255\247\316\277\214\263"
 241      F6917C7F 
 241      60ADA7CE 
 241      BF8CB3
 242 0a1e 3650ECAB 		.ascii	"6P\354\253o\010\377\214\344\201{no\255'P\303T\376\027"
 242      6F08FF8C 
 242      E4817B6E 
 242      6FAD2750 
 242      C354FE17 
 243 0a32 F3BF7C5B 		.ascii	"\363\277|["
 244              		.text
 245              		.section	.gnu.lto_test_010_001_setup.d9472d87f8791e7b,"",%progbits
 246 0000 789C6362 		.ascii	"x\234cb`b@\007\222@\274\006\210\215\201\230\221\231"
 246      60624007 
 246      9240BC06 
 246      888D8198 
 246      9199
 247 0012 819169C2 		.ascii	"\201\221i\3029\006\206F\016&FF\020\203\201\221\241\236"
 247      39068646 
 247      0E264646 
 247      10838191 
 247      A19E
 248 0024 89B13E92 		.ascii	"\211\261>\222\021\254v=\323\201\007\377\377\257\373"
 248      11AC763D 
 248      D38107FF 
 248      FFAFFB
 249 0033 D2B6FC0C 		.ascii	"\322\266\374\014\343l&f\240\010+CKC\303\004\005\006"
 249      E36C2666 
 249      A0082B43 
 249      4B43C304 
 249      0506
 250 0045 8664B08A 		.ascii	"\206d\260\212\020 \011\322\026\312\310\004\242\231\317"
 250      102009D2 
ARM GAS  /tmp/ccTRMAI7.s 			page 20


 250      16CAC804 
 250      A299CF
 251 0054 33B43DD8 		.ascii	"3\264=\330\375\230+\221q!#+P\272\232\341WCG\203@&#P"
 251      FD982B91 
 251      7121232B 
 251      50BA9AE1 
 251      57434783 
 252 006c 39C44490 		.ascii	"9\304D\220\010G&#c.#\003T\021DM\303D\306LF\246\\FF\250"
 252      08472623 
 252      632E2303 
 252      5411444D 
 252      C344C64C 
 253 0086 680490CB 		.ascii	"h\004\220\313\374\202\207!\223\221\205\201\341\"C\343"
 253      FC828721 
 253      93918581 
 253      E12243E3 
 254 0096 833DCA30 		.ascii	"\203=\3120C! \004h \320F\220\377\014\365\364\364!\250"
 254      43212004 
 254      6820D046 
 254      90FF0CF5 
 254      F4F421A8 
 255 00aa 24B5B844 		.ascii	"$\265\270D\277\250D\2778\277\264(9\025\302\005\021\361"
 255      BFA844BF 
 255      38BFB428 
 255      3915C205 
 255      11F1
 256 00bc C5A985A5 		.ascii	"\305\251\205\245\251y\311\251\361\006\206\006z\311\014"
 256      A979C9A9 
 256      F1068606 
 256      7AC90C
 257 00cb 0062773F 		.ascii	"\000bw?G"
 257      47
 258              		.text
 259              		.section	.gnu.lto_.symbol_nodes.d9472d87f8791e7b,"",%progbits
 260 0000 789C4D50 		.ascii	"x\234MP\273JD1\024<'\271WY\037\255\202W\374.[\025\334"
 260      BB4A4431 
 260      143C27B9 
 260      57591FAD 
 260      8257FC2E 
 261 0017 42584161 		.ascii	"BXAa\027\024\366,\004\024W\020\261\2662\240\260\013"
 261      1714F62C 
 261      04145710 
 261      B1B632A0 
 261      B00B
 262 0029 5AF87E0B 		.ascii	"Z\370~\013\351\265\263V\202\277!\346L\304k\212\031f"
 262      E9B5B356 
 262      82BF21E6 
 262      4CC46B8A 
 262      1966
 263 003b 3273F230 		.ascii	"2s\3620dh\336P^\346\232\205h\377\225H\344pg\241\274"
 263      6468DE50 
 263      5EE69A85 
 263      68FF9548 
 263      E47067A1 
 264 0050 634342E5 		.ascii	"cCB\3459S)d.Y\270\3364\027,\346_\366\205Y\263\267lS"
 264      39532964 
 264      2E59B8DE 
ARM GAS  /tmp/ccTRMAI7.s 			page 21


 264      34172CE6 
 264      5FF68559 
 265 0068 B6BCE2A2 		.ascii	"\266\274\342\242\020[\336p\231\210\037Xl\216\366z\314"
 265      105BDE70 
 265      99881F58 
 265      6C8EF67A 
 265      CC
 266 0079 4F2C45AD 		.ascii	"O,E\255\036Y\312Z\335\263\214\324\352\231e\364OY\232"
 266      1E59CA5A 
 266      DDB38CD4 
 266      EA9965F4 
 266      4F599A
 267 008c 20FFF19D 		.ascii	" \377\361\235x\214\334\247r\203\"x\234\374\326W\241"
 267      788CDCA7 
 267      72832278 
 267      9CFCD657 
 267      A1
 268 009d BEDF566E 		.ascii	"\276\337Vn\220\353'\266\277y\233r\340\324\323\234jp"
 268      90EB27B6 
 268      BF799B72 
 268      E0D4D39C 
 268      6A70
 269 00af D2FDF7BC 		.ascii	"\322\375\367\274\017Nsvg\265\026\225\032\024\3662\275"
 269      0F4E7376 
 269      67B51695 
 269      1A14F632 
 269      BD
 270 00c0 59640E30 		.ascii	"Yd\0160\"L\001\247\2013Zr\025\252\300P\241_i\301\317"
 270      224C01A7 
 270      81335A72 
 270      15AAC050 
 270      A15F69C1 
 271 00d5 E18845E0 		.ascii	"\341\210E\340\022p\031\031`\004\272&\256\331\304\001"
 271      12701919 
 271      6004BA26 
 271      AED9C401 
 272 00e5 4D645680 		.ascii	"MdV\200-$[\230\326\302\264U\365\375\032\034\240_W\337"
 272      2D245B98 
 272      D6C2B455 
 272      F5FD1A1C 
 272      A05F57DF 
 273 00f9 B59104C6 		.ascii	"\265\221\004\306\266\372\256\203[w4\0377\200\233\270"
 273      B6FAAE83 
 273      5B77341F 
 273      37809BB8 
 274 0109 61577743 		.ascii	"aWwC\027-\301)Gxu\310\024\225R\335\343K\202\207\362"
 274      172DC129 
 274      477875C8 
 274      149552DD 
 274      E34B8287 
 275 011e C778B53F 		.ascii	"\307x\265?\201\351\0060\303 \253a\256\017s\3574\367"
 275      81E90630 
 275      C320AB61 
 275      AE0F73EF 
 275      34F7
 276 0130 32C533B6 		.ascii	"2\3053\266\305$\271\364\361\364\003\205N\213\233"
 276      C524B9F4 
ARM GAS  /tmp/ccTRMAI7.s 			page 22


 276      F1F40385 
 276      4E8B9B
 277              		.text
 278              		.section	.gnu.lto_.refs.d9472d87f8791e7b,"",%progbits
 279 0000 789C6D87 		.ascii	"x\234m\207\301\015\300 \020\303\022\037\005&a\273\356"
 279      C10DC020 
 279      10C3121F 
 279      052661BB 
 279      EE
 280 0011 FF2DE2C4 		.ascii	"\377-\342\304\243\002KV\034\204^%!\033\354\021\271\177"
 280      A3024B56 
 280      1C845E25 
 280      211BEC11 
 280      B97F
 281 0023 935B9D7F 		.ascii	"\223[\235\177\367\3322}\2504\372\264\020\356H\037k\242"
 281      F7DA327D 
 281      A834FAB4 
 281      10EE481F 
 281      6BA2
 282 0035 0175     		.ascii	"\001u"
 283              		.text
 284              		.section	.gnu.lto_.decls.d9472d87f8791e7b,"",%progbits
 285 0000 789CBD5B 		.ascii	"x\234\275[{t\024\325\031\277w&\273\331\220\345a\254"
 285      7B7414D5 
 285      19BF7726 
 285      BBD990E5 
 285      61AC
 286 0012 2DB63ED6 		.ascii	"-\266>\326\036\355\251RI\260\326\322s<\202\325S\261"
 286      1EEDA952 
 286      49B0D6D2 
 286      733C82D5 
 286      53B1
 287 0024 E7B4F5B4 		.ascii	"\347\264\365\264\247\347\364\277\355\260\031\222\264"
 287      A7E7F4BF 
 287      EDB01992 
 287      B4
 288 0031 C9EE7676 		.ascii	"\311\356vv\"\330\376\341\020h\214\200M\010`C\0111\240"
 288      22D8FEE1 
 288      10688C80 
 288      4D086043 
 288      0931A0
 289 0044 08145430 		.ascii	"\010\024T0X\001\025W\260)\017%\020+h)tk\252\306\027"
 289      58011557 
 289      B0290F25 
 289      102B6829 
 289      746BAAC6 
 290 0059 8A883C43 		.ascii	"\212\210<C\372\335\327\356\314\354\314\356LR;\207;\271"
 290      FADDD7EE 
 290      CCECCCEE 
 290      4C523B87 
 290      3BB9
 291 006b 333BDFEF 		.ascii	"3;\337\357\376\276\307\375\356c\006\011Ih\272\204\320"
 291      FEBEC7FD 
 291      EE630609 
 291      4968BA84 
 291      D0
 292 007c 301CDFFC 		.ascii	"0\034\337\374\036B\367\004\021*A\010\335\006\345R(\253"
ARM GAS  /tmp/ccTRMAI7.s 			page 23


 292      1E42F704 
 292      112A4108 
 292      DD06E552 
 292      28AB
 293 008e A0AC86B2 		.ascii	"\240\254\206\262\026J\000\312B\214\320\"(=P\377\003"
 293      164A00CA 
 293      428CD022 
 293      283D50FF 
 293      03
 294 009f FC6D85B2 		.ascii	"\374m\205\262\030J;\224\245P\226Ay\030J\007\224\345"
 294      184A3B94 
 294      A5509641 
 294      79184A07 
 294      94E5
 295 00b1 505640E9 		.ascii	"PV@\351\204\322\005\205\034!\202\011\3655P\326A\331"
 295      84D20585 
 295      1C218209 
 295      F53550D6 
 295      41D9
 296 00c3 40B0A06C 		.ascii	"@\260\240l\203\362\002\224]P\200\002\332\003\177\367"
 296      83F20294 
 296      5D508002 
 296      DA037FF7 
 297 00d3 4179154A 		.ascii	"Ay\025J\037\224w\241|\3121\304Ap.C\214\3138(a(O\300"
 297      1F9477A1 
 297      7CCA31C4 
 297      41702E43 
 297      8CCB3828 
 298 00eb BD699CEB 		.ascii	"\275i\234\353\031\250\237\305\214;\341\266\003\3129"
 298      19A89FC5 
 298      8C3BE1B6 
 298      03CA39
 299 00fa 285BA09C 		.ascii	"([\240\234\3079]6B\271\000e;\316\351K\216 o\203\360"
 299      C7395D36 
 299      42B90065 
 299      3BCEE94B 
 299      8E206F83 
 300 010f 1AE23C37 		.ascii	"\032\342<7p\256`2\312m\217\215\023\321+\302\333\027"
 300      70AE6032 
 300      CA6D8F8D 
 300      13D12BC2 
 300      DB17
 301 0121 9C08BF12 		.ascii	"\234\010\277\022\0237'^\347Mv\334h\342)\370\010\256"
 301      1337275E 
 301      E74D76DC 
 301      68E229F8 
 301      08AE
 302 0133 82A7B0AB 		.ascii	"\202\247\260\253\260\263\260\273\360\211\340\277\206"
 302      B0B3B0BB 
 302      F089E0BF 
 302      86
 303 0140 F3DF60D2 		.ascii	"\363\337`\322\241\020\177\342\023\302=(1~]\374\372e"
 303      A1107FE2 
 303      13C23D28 
 303      317E5DFC 
 303      FA65
 304 0152 FE9CC49F 		.ascii	"\376\234\304\237\331\3051\204\237\314G9Z`\030MFw\263"
ARM GAS  /tmp/ccTRMAI7.s 			page 24


 304      D9C53184 
 304      9FCC4739 
 304      5A60184D 
 304      4677B3
 305 0165 3163F7B8 		.ascii	"1c\367\270KP\233\001G\244c\\\031j!\2673k\214\211\023"
 305      4B509B01 
 305      47A4635C 
 305      196A21B7 
 305      336B8C89 
 306 017a 11FA0556 		.ascii	"\021\372\005V0\334\012\321J\270\014\021\214\353\320"
 306      30DC0AD1 
 306      4AB80C11 
 306      8CEBD0
 307 0189 63F0283C 		.ascii	"c\360(</)\370Q\\\006\015H6hq\260\337\311A\304Y]\324"
 307      2F29F851 
 307      5C060D48 
 307      366871B0 
 307      DFC941C4 
 308 01a0 8671167D 		.ascii	"\206q\026}\023\026\360_\346b\253\361%\264F\311\030\234"
 308      1316F05F 
 308      E662ABF1 
 308      25B446C9 
 308      189C
 309 01b2 237D828B 		.ascii	"#}\202\213D\204D\011\227x\334\324P\270,W\271\214Sq\223"
 309      44844409 
 309      9778DCD4 
 309      50B82C57 
 309      B98C5371 
 310 01c7 5B85CB1D 		.ascii	"[\205\313\035\015R\201\026S\203\264\014\344x\032\222"
 310      0D528116 
 310      5383B40C 
 310      E4781A92 
 311 01d7 908E0833 		.ascii	"\220\216\0103\264eZ\337\311\310\206\021R\360:\\\001"
 311      B4655ADF 
 311      C9C88611 
 311      52F03A5C 
 311      01
 312 01e8 A6B809A3 		.ascii	"\246\270\011\243\033\320zf\237\246\257;\331\2458\262"
 312      1BD07A66 
 312      9FA6AF3B 
 312      D9A538B2 
 313 01f8 84EEC240 		.ascii	"\204\356\302@m#\000*x\003\276\201[<\275\344\201\260"
 313      6D23002A 
 313      7803BE81 
 313      5B3CBDE4 
 313      81B0
 314 020a 51C2EE23 		.ascii	"Q\302\356#\376\213\303q\015\352\206\246\323\313\376"
 314      FE8BC371 
 314      0DEA86A6 
 314      D3CBFE
 315 0219 D679B9D1 		.ascii	"\326y\271\321\275\023[\264\3722Z\306\355i`]\301\323"
 315      BD135BB4 
 315      FA325AC6 
 315      ED69605D 
 315      C1D3
 316 022b CA5DEDB2 		.ascii	"\312]\355\262\0313_\3104~\020\217\012\206\342lMn\217"
 316      19335FC8 
ARM GAS  /tmp/ccTRMAI7.s 			page 25


 316      347E108F 
 316      0A86E26C 
 316      4D6E8F
 317 023e C3CD874E 		.ascii	"\303\315\207N\342&\300Wp\017\015\216\371\030[\310*8"
 317      E226C057 
 317      700F0D8E 
 317      F9185BC8 
 317      2A38
 318 0250 50660D12 		.ascii	"Pf\015\022\270\026\017\020\274@Y\256B\022\336\370,\013"
 318      B8160F10 
 318      BC4059AE 
 318      4212DEF8 
 318      2C0B
 319 0262 21AAE09F 		.ascii	"!\252\340\237\313Y\371\002\\\236\335\373\267\305\234"
 319      CB59F902 
 319      5C9EDDFB 
 319      B7C59C
 320 0271 CB263084 		.ascii	"\313&0\204\004}\312\312\305b\034\246\264\233A\266\001"
 320      047DCACA 
 320      C5621CA6 
 320      B49B41B6 
 320      01
 321 0282 80B3CDF3 		.ascii	"\200\263\315\363~\223P/\026\016t\202\313\306\250\211"
 321      7E93502F 
 321      160E7482 
 321      CBC6A889 
 322 0292 BED97946 		.ascii	"\276\331yF\246\365\344n\371OF\272\243\352R\324N\034"
 322      A6F5E46E 
 322      F94F46BA 
 322      A3EA52D4 
 322      4E1C
 323 02a4 960E9AA3 		.ascii	"\226\016\232\243e\272@\010eUM?\327{%\211\215\347\361"
 323      65BA4008 
 323      65554D3F 
 323      D77B2589 
 323      8DE7F1
 324 02b7 A5D07C9F 		.ascii	"\245\320|\237M\315\342(\022:Je^\004yK\314\275\336+G"
 324      4DCDE228 
 324      123A4A65 
 324      5E04794B 
 324      CCBDDE2B 
 325 02cc D8EDE221 		.ascii	"\330\355\342!w\270\271\365\253F\367\242\211<X\322\315"
 325      77B8B9F5 
 325      AB46F7A2 
 325      893C58D2 
 325      CD
 326 02dd 460B9EBB 		.ascii	"F\013\236\273\371\212B\2743=}\307Wq\027\355\242\341"
 326      F98A42BC 
 326      333D7DC7 
 326      577117ED 
 326      A2E1
 327 02ef B244B272 		.ascii	"\262D\262r\367\0036\324\336\367\022\007\353\245`\317"
 327      F70336D4 
 327      DEF71207 
 327      EBA560CF 
 328 02ff 8F026CC5 		.ascii	"\217\002l\305\241\243\213\361<\012\266\207\202\235\224"
 328      A1A38BF1 
ARM GAS  /tmp/ccTRMAI7.s 			page 26


 328      3C0AB687 
 328      829D94
 329 030e EC815C66 		.ascii	"\354\201\\f\013\3442k \227\225\345*\303\342\260\246"
 329      0BE4326B 
 329      209795E5 
 329      2AC3E2B0 
 329      A6
 330 031f 842F5446 		.ascii	"\204/TFB\027%\341T'E\213\307\341\307\037\254\303$\211"
 330      421725E1 
 330      5427458B 
 330      C7E1C71F 
 330      ACC32489 
 331 0333 F09CD53D 		.ascii	"\360\234\325=\335\324\371-P\204\325~{\276z\263\027G"
 331      DDD4F92D 
 331      5084D57E 
 331      7BBE7AB3 
 331      1747
 332 0345 D8EDE2B1 		.ascii	"\330\355\342\261s\244ye~\272b\361\354\326#\017\346R"
 332      73A47965 
 332      7EBA62F1 
 332      ECD6230F 
 332      E652
 333 0357 37641919 		.ascii	"7d\031\031s\012#\351qM\351\243\275,]\212\254\365\240"
 333      730A23E9 
 333      714DE9A3 
 333      BD2C5D8A 
 333      ACF5A0
 334 036a 6FBC884D 		.ascii	"o\274\210M1\011\265\312\243\262~\372t\357\030\243=\354"
 334      3109B5CA 
 334      A3B27EFA 
 334      74EF18A3 
 334      3DEC
 335 037c C9F687ED 		.ascii	"\311\366\207\355\266?Am\177\330\223\355Or\333+x-\315"
 335      B63F416D 
 335      7FD893ED 
 335      4F72DB2B 
 335      782DCD
 336 038f 924B29EF 		.ascii	"\222K)\357\303#\266\345)\233-\227\373\306\313\267e\327"
 336      C323B6E5 
 336      299B2D97 
 336      FBC6CBB7 
 336      65D7
 337 03a1 486DE974 		.ascii	"Hm\351t\230\363\234\202_\302\327\301y'\276\006\316\257"
 337      98F39C82 
 337      5FC2D7C1 
 337      7927BE06 
 337      CEAF
 338 03b3 D2F32138 		.ascii	"\322\363!8\233\332~T\266es\247\266C\356~\354\274\253"
 338      9BDA7E54 
 338      B66573A7 
 338      B643EE7E 
 338      ECBCAB
 339 03c6 4D11A3BE 		.ascii	"M\021\243\276\311\211Fv\3323\001e\263\316\226\025\267"
 339      C9894676 
 339      DA330165 
 339      B3CE9615 
 339      B7
ARM GAS  /tmp/ccTRMAI7.s 			page 27


 340 03d7 903C9EA1 		.ascii	"\220<\236\241\223\211\275\2625\343\024\005\221P?\025"
 340      9389BDB2 
 340      35E31405 
 340      91503F15 
 341 03e7 19B087C3 		.ascii	"\031\260\207\303I%\302\356\026\213\006#}\352\355\262"
 341      4925C2EE 
 341      168B0623 
 341      7DEAEDB2 
 342 03f7 5CD445DC 		.ascii	"\\\324E\334\202\216\323=\335\365\367\305x>M\222\357"
 342      828ED33D 
 342      DDF5F7C5 
 342      783E4D92 
 342      EF
 343 0408 52CA4689 		.ascii	"R\312F\211#e\367\350\225P\033\025y\337F9\263d\340\314"
 343      2365F7E8 
 343      95501B15 
 343      79DF4639 
 343      B364E0CC 
 344 041c F51D8631 		.ascii	"\365\035\2061\201\375T<\212\017.p\310 \016jt\227\210"
 344      81FD543C 
 344      8A0F2E70 
 344      C8200E6A 
 344      749788
 345 042f E6EFCCE9 		.ascii	"\346\357\314\351\361\371\261i\304\354\037S\035v:\353"
 345      F1F9B169 
 345      C4EC1F53 
 345      1D763AEB 
 346 043f E00E22A1 		.ascii	"\340\016\"\241}T\344\323|\035\016Lb:|\352\311\366\247"
 346      7D54E4D3 
 346      7C1D0E4C 
 346      623A7CEA 
 346      C9F6A7
 347 0452 F77662D6 		.ascii	"\367vb\326s\2305_\317\302\216$\2034\245\317\354\015"
 347      7398355F 
 347      CFC28E24 
 347      8334A5CF 
 347      EC0D
 348 0464 B729DEE7 		.ascii	"\267)\336\347n\247\337IO|\201\322=C;\356\322\200\343"
 348      6EA7DF49 
 348      4F7C81D2 
 348      3D433BEE 
 348      D280E3
 349 0477 F0E90169 		.ascii	"\360\351\001i\250\375\257b$>O\241:G\014\265\342\320"
 349      A8FDAF62 
 349      243E4FA1 
 349      3A470CB5 
 349      E2D0
 350 0489 CB621CBE 		.ascii	"\313b\034\276H\241\326\004\354\343p\251m\034.\265\216"
 350      48A1D604 
 350      ECE370A9 
 350      6D1C2EB5 
 350      8E
 351 049a 8FA565B9 		.ascii	"\217\245e\271\012\237P~\261\217KhS\300\3468\247\224"
 351      0A9F507E 
 351      B18F4B68 
 351      53C0E638 
 351      A794
ARM GAS  /tmp/ccTRMAI7.s 			page 28


 352 04ac E79E3232 		.ascii	"\347\23622\355\003\203\223\226\033\351\371\262\350?"
 352      ED038393 
 352      961BE9F9 
 352      B2E83F
 353 04bb 41372B49 		.ascii	"A7+I\350\031\332\326<\311\026{=}\2574\341\271\324n\344"
 353      E819DAD6 
 353      3CC9167B 
 353      3D7DAF34 
 353      E1B9D46E 
 354 04d0 B7E21DE8 		.ascii	"\267\342\035\350\231\275\177\364\326\201\262\213\225"
 354      99BD7FF4 
 354      D681B28B 
 354      95
 355 04dd 6B69FB3B 		.ascii	"ki\373;i\373-\366\366_8\376\306T\026\373-\236\232_\276"
 355      69FB2DF6 
 355      F65F38FE 
 355      C65416FB 
 355      2D9E9A5F 
 356 04f2 7FA9D30C 		.ascii	"\177\251\323\014\340\266\313\012\005GO\337;'\270\222"
 356      E0B6CB0A 
 356      05474FDF 
 356      3B27B892 
 357 0502 8B243276 		.ascii	"\213$2v]\310\013\216i\345\346\306\350\265e\256\376\373"
 357      5DC80B8E 
 357      69E5E6C6 
 357      E8B565AE 
 357      FEFB
 358 0514 A0A03FA2 		.ascii	"\240\240?\242\321\016\364\034\234\272\376i\303x0(8\264"
 358      D10EF41C 
 358      9CBAFE69 
 358      C3783028 
 358      38B4
 359 0526 F8468C58 		.ascii	"\370F\214X,\321\271\037z\255\000[\350\005\3145\222\232"
 359      2CD1B91F 
 359      7AAD005B 
 359      E805CC35 
 359      929A
 360 0538 D25D66B0 		.ascii	"\322]f\260V\337`Vf\233\314`K\274\200Mpg\366\264\031"
 360      56DF6056 
 360      669BCC60 
 360      4BBC804D 
 360      7067F6B4 
 361 054d EC61DF60 		.ascii	"\354a\337`Vf[\314`\313\275\200Mtg\366\0273X\247o0+\263"
 361      56665BCC 
 361      60CBBD80 
 361      4D7467F6 
 361      173358A7 
 362 0565 AD66B047 		.ascii	"\255f\260G\274\200E\034\230e\017\267\331\360\003\222"
 362      BC80451C 
 362      98650FB7 
 362      D9F00392 
 363 0575 6936BC3A 		.ascii	"i6\274:(R\202\317\230F9\2145A\277)\314\2427\031\277"
 363      285282CF 
 363      9846398C 
 363      3541BF29 
 363      CCA23719 
 364 058a 276DE7FD 		.ascii	"'m\347\375\3428\235W\256\367\202X `\332\366QK2\260\247"
ARM GAS  /tmp/ccTRMAI7.s 			page 29


 364      E2389D57 
 364      AEF78258 
 364      2060DAF6 
 364      514B32B0 
 365 059f 7C8359DD 		.ascii	"|\203Y\335\322E\300,\271&\273\363\225\236\330\221\313"
 365      D245C02C 
 365      B926BBF3 
 365      959ED891 
 365      CB
 366 05b0 7696AD2F 		.ascii	"v\226\255/\005?F'\213\236\266\265\362\\\264\326\354"
 366      053F4627 
 366      8B9EB6B5 
 366      F25CB4D6 
 366      EC
 367 05c1 A267BCF0 		.ascii	"\242g\274\360/\020\243\007\362\370\263\025\264[\343"
 367      2F10A307 
 367      F2F8B315 
 367      B45BE3
 368 05d0 1BCC8D6F 		.ascii	"\033\314\215o\367\335\270\325xG\366u~\305\310\244\261"
 368      F7DDB8D5 
 368      7847F675 
 368      7EC5C8A4 
 368      B1
 369 05e1 69B3D0CD 		.ascii	"i\263\320\315d\331\251\305\340a>\212?)\221Q\374\245"
 369      64D9A9C5 
 369      E0613E8A 
 369      3F299151 
 369      FCA5
 370 05f3 A0E384C0 		.ascii	"\240\343\204\300\003\324P\373\023\223\350\216\333f\012"
 370      03D450FB 
 370      1393E88E 
 370      DB660A
 371 0602 B477C440 		.ascii	"\264w\304@+\016uM\245@[(P\177\320>t`\333\274\002[G\376"
 371      2B0E754D 
 371      A5405B28 
 371      507FD03E 
 371      7460DBBC 
 372 061a ACE3B9DF 		.ascii	"\254\343\271\337\277\250g%\364O\273\277,\352\024H\033"
 372      BFA86725 
 372      F44FBBBF 
 372      2CEA1448 
 372      1B
 373 062b D9BEB8BB 		.ascii	"\331\276\270\273r\333\223\2061/\350\307c\031\341\261"
 373      72DB9386 
 373      312FE8C7 
 373      6319E1B1 
 374 063b 6DD43E6F 		.ascii	"m\324>o\345\331\2078\300\237\"\357\373V$dS\344\223\021"
 374      E5D98738 
 374      C09F22EF 
 374      FB562464 
 374      53E49311 
 375 064f 28F28950 		.ascii	"(\362\211Pd\007U\344\223\377\201\"g|+2\301\244\010]"
 375      640755E4 
 375      93FF8122 
 375      677C2B32 
 375      C1A4085D 
 376 0663 DDDCBD8D 		.ascii	"\335\334\275\215fG\2769\347>\303#|vI\366}\271\375d}"
ARM GAS  /tmp/ccTRMAI7.s 			page 30


 376      6647BE39 
 376      E73EC323 
 376      7C7649F6 
 376      7DB9FD64 
 377 0678 4F6E175F 		.ascii	"On\027_U\234\334\317\326\343\226\335\364\"\013\201\335"
 377      559CDCCF 
 377      D6E396DD 
 377      F4220B81 
 377      DD
 378 0689 7C21D04B 		.ascii	"|!\320K-6\344\324\307\274 u\017\365_F\026V{(\314\274"
 378      2D36E4D4 
 378      C7BC2075 
 378      0FF55F46 
 378      16567B28 
 379 069f D211C240 		.ascii	"\322\021\302@W}\221u\325W(\320\302R\273\007\2036\007"
 379      577D9175 
 379      D55728D0 
 379      C252BB07 
 379      833607
 380 06b2 06AD0E84 		.ascii	"\006\255\016\204K\322\322\031\2723v?\277C.J\321\377"
 380      4BD2D219 
 380      BA33763F 
 380      BF432E4A 
 380      D1FF
 381 06c4 5D4E42CB 		.ascii	"]NB\313(}\342\274\221L9I\360\244o\335\306\207V\346\240"
 381      287DE2BC 
 381      914C3949 
 381      F0A46FDD 
 381      C68756E6 
 382 06d9 CE512136 		.ascii	"\316Q!6\245\037i\025[@\323\310\340\272f\224p\317\367"
 382      A51F6915 
 382      5B40D3C8 
 382      E0BA6694 
 382      70CFF7
 383 06ec D90727DB 		.ascii	"\331\007'\333H\365\261\313\320\223\335V\350\025\313"
 383      48F5B1CB 
 383      D093DD56 
 383      E815CB
 384 06fb C74374DE 		.ascii	"\307Ct\336\2641\317\341\307\261m^\177\334\272\011\357"
 384      B431CFE1 
 384      C7B16D5E 
 384      7FDCBA09 
 384      EF
 385 070c D6935E37 		.ascii	"\326\223^7\217\203/\216\332\021o\334fu\304_Gi\271\263"
 385      8F832F8E 
 385      DA116FDC 
 385      6675C45F 
 385      4769B9B3 
 386 0720 ADDE7631 		.ascii	"\255\336v1~)\260\302T\221Wi\263\307\354k\260S\0273\315"
 386      7E29B0C2 
 386      54915769 
 386      B3C7EC6B 
 386      B0531733 
 387 0735 DC8EC73C 		.ascii	"\334\216\307<,\302\214\364\021\272\371\303\266\037\024"
 387      2CC28CF4 
 387      11BAF9C3 
 387      B61F14
ARM GAS  /tmp/ccTRMAI7.s 			page 31


 388 0744 FC399638 		.ascii	"\3749\2268*o\325\327\366\203\221>\246\356\256\362\223"
 388      2A6FD5D7 
 388      F683913E 
 388      A6EEAEF2 
 388      93
 389 0755 740679D2 		.ascii	"t\006y\322\031\240\246<\227\347\363=\3664\355\253\327"
 389      19A0A63C 
 389      97E7F33D 
 389      F634EDAB 
 389      D7
 390 0766 19216CD5 		.ascii	"\031!l\325\306\353J*{\270\305\324QsL\315\017\215*\002"
 390      C6EB4A2A 
 390      7BB8C5D4 
 390      51734CCD 
 390      0F8D2A02 
 391 077a 20A60667 		.ascii	" \246\006g\260y\263\255\317\014\270\364\031\302\340"
 391      B079B3AD 
 391      CF0CB8F4 
 391      19C2E0
 392 0789 3D338385 		.ascii	"=3\203\205\243c\220~\256\3374^x\3348z\203\273\356C\352"
 392      A363907E 
 392      AEDF345E 
 392      78DC387A 
 392      83BBEE43 
 393 079e BAF690DD 		.ascii	"\272\366\220\335u\347\355s)/\273(]#U${@*\013y\230\352"
 393      75E7ED73 
 393      292FBB28 
 393      5D235524 
 393      7B402A0B 
 394 07b5 46ACEE35 		.ascii	"F\254\3565\3050\270#\363C\326\305\213n\305\010c\034"
 394      C530B823 
 394      F343D6C5 
 394      8B6EC508 
 394      631C
 395 07c7 7B652EDF 		.ascii	"{e.\337\023\375T\"\273"
 395      13FD5422 
 395      BB
 396 07d0 786B6DD6 		.ascii	"xkm\326\360\260\247\363\027*r\312\336\237!\361\363="
 396      F0B0A7F3 
 396      172A72CA 
 396      DE9F21F1 
 396      F33D
 397 07e2 D1539EF6 		.ascii	"\321S\236\366Tz\026\210\264\316\262c?\355\320\247F\261"
 397      547A1688 
 397      B4CEB263 
 397      3FEDD0A7 
 397      46B1
 398 07f4 2EB4F830 		.ascii	".\264\3700\307O\301\247%\2620:#Yv\316{\275\030\377\233"
 398      C74FC1A7 
 398      25B2303A 
 398      235976CE 
 398      7BBD18FF 
 399 0809 6E9168A4 		.ascii	"n\221h\244O\365[\367C\367\333\361\234\022\222\005\317"
 399      4FF55BF7 
 399      43F7DBF1 
 399      9C129205 
 399      CF
ARM GAS  /tmp/ccTRMAI7.s 			page 32


 400 081a EC4C5841 		.ascii	"\354LXA\276FW\220,H\017{!W\345\016\366\310\022a\334"
 400      BE465790 
 400      2C480F7B 
 400      2157E50E 
 400      F6C81261 
 401 082f F7E81895 		.ascii	"\367\350\030\225\361\2027\325M\331\246\364\263\257\211"
 401      F18237D5 
 401      4DD9A6F4 
 401      B3AF89
 402 083e D7266CF7 		.ascii	"\327&l\367u\3207\236\225\337\353K,c\372\011/p\323=\373"
 402      75D0379E 
 402      95DFEB4B 
 402      2C63FA09 
 402      2F70D33D 
 403 0853 3EB7D7AD 		.ascii	">\267\327\255\340\317\350\242\370\024}wr\232\236\233"
 403      E0CFE8A2 
 403      F8147D77 
 403      729A9E9B 
 404 0863 24725E4D 		.ascii	"$r^M\317\217\321\363\343\364\374gz~\202\236\267\322"
 404      CF8FD1F3 
 404      E3F4FC67 
 404      7A7E829E 
 404      B7D2
 405 0875 F30BF4BC 		.ascii	"\363\013\364\274\223\236O\320\3639z\276@\317\027\351"
 405      939E4FD0 
 405      F3397ABE 
 405      40CF17E9 
 406 0885 D99029A6 		.ascii	"\331\220)\246l\212-\267Dh\233\005\210\220\177\177\304"
 406      6C8A2DB7 
 406      44689B05 
 406      88907F7F 
 406      C4
 407 0896 2FB3FAF7 		.ascii	"/\263\372\367\2326\035N\207\260O\260H!\033\276o\262"
 407      9A361D4E 
 407      87B04FB0 
 407      48211BBE 
 407      6FB2
 408 08a8 E187D486 		.ascii	"\341\207\324\206\037Q\353\3157k*\206\341\201\221\276"
 408      1F51EBCD 
 408      376B2A86 
 408      E18191BE 
 409 08b8 05C86C59 		.ascii	"\005\310lY\261\303\224\005$t!\204\221\373pR` \344&\271"
 409      B1C39405 
 409      24742184 
 409      91FB7052 
 409      6020E426 
 410 08cd 00C3BA6D 		.ascii	"\000\303\272ml\312\024\030\233\036\224\313s\272\364"
 410      6CCA1418 
 410      9B1E94CB 
 410      73BAF4
 411 08dc DB7529DA 		.ascii	"\333u)\332vA\013\016\230,\3706\265\340;\324\202\315"
 411      76410B0E 
 411      982CF836 
 411      B5E03BD4 
 411      82CD
 412 08ee 34625A64 		.ascii	"4bZdK6j*\263\275\307\263\276<3U\275u\201\215\246\306"
 412      4B366A2A 
ARM GAS  /tmp/ccTRMAI7.s 			page 33


 412      B3BDC7B3 
 412      BE3C3355 
 412      BD75818D 
 413 0904 9FA48D3F 		.ascii	"\237\244\215?E\033\177\216\236\377\205=\204\353Z\227"
 413      451B7F8E 
 413      9EFF853D 
 413      84EB5A97 
 414 0914 CF8F72DF 		.ascii	"\317\217r\337c\261m%.\337\226%\\\301\001\026\311~\277"
 414      63B16D25 
 414      2EDF9625 
 414      5CC10116 
 414      C97EBF
 415 0927 947A4876 		.ascii	"\224zHv\376R\352\222\"T\027\312\276\250\326\012\371"
 415      FE52EA92 
 415      225417CA 
 415      BEA8D60A 
 415      F9
 416 0938 B15CBED5 		.ascii	"\261\\\276\3257\3236\027\246\341\"L\377\340\217\251"
 416      37D33617 
 416      A6E1224C 
 416      FFE08FA9 
 417 0948 350A0840 		.ascii	"5\012\010@\273o\252K\\\250\216/Bu\261\013U\366\352\334"
 417      BB6FAA4B 
 417      5CA88E2F 
 417      4275B10B 
 417      55F6EADC 
 418 095c 4D6AA93F 		.ascii	"Mj\251?\005\357\021\362c\270\374\303\276\365\373\243"
 418      05EF11F2 
 418      63B8FCC3 
 418      BEF5FBA3 
 419 096c 8B7E79D9 		.ascii	"\213~y\331\316&\267\314\037\323\244\220\037\307\345"
 419      CE26B7CC 
 419      1FD3A490 
 419      1FC7E5
 420 097b 97FB66FA 		.ascii	"\227\373f\372'\027\246c\2130\355\360\307\264#\0334\227"
 420      2717A663 
 420      8B30EDF0 
 420      C7B4231B 
 420      3497
 421 098d 72804EDF 		.ascii	"r\200N\337TW\272P\255(Bu\205\007\252dG\213\313\247g"
 421      5457BA50 
 421      AD284275 
 421      8507AA64 
 421      478BCBA7 
 422 09a2 0980C130 		.ascii	"\011\200\3010Gx\3047\327n\027\256\357\026\353\214]9"
 422      4778C437 
 422      D76E17AE 
 422      EF16EB8C 
 422      5D39
 423 09b4 B257A32E 		.ascii	"\262W\243.#\375If\345\237O\334\272\222\314\250\215\213"
 423      23FD4966 
 423      E59F4FDC 
 423      BA92CCA8 
 423      8D8B
 424 09c6 C3F763DB 		.ascii	"\303\367c\333'\211.\257\373\350G\241\262\370<T|\375"
 424      27892EAF 
 424      FBE847A1 
ARM GAS  /tmp/ccTRMAI7.s 			page 34


 424      B2F83C54 
 424      7CFD
 425 09d8 27A1AD65 		.ascii	"'\241\255e\326\2515B\337@k\010\236\261\316\220)\032"
 425      D6A93542 
 425      DF406B08 
 425      9EB1CE90 
 425      291A
 426 09ea FDC853BE 		.ascii	"\375\310S\276\032\231\016p\244,\231o0b\351\013\275\341"
 426      1A990E70 
 426      A42C996F 
 426      3062E90B 
 426      BDE1
 427 09fc B6B999E1 		.ascii	"\266\271\231\341\341\253Y[\260\252\366\204\276\306\216"
 427      E1AB595B 
 427      B0AAF684 
 427      BEC68E
 428 0a0b FEB823FA 		.ascii	"\376\270#\372gv\364\267<\241\257\263\243\257\317G\317"
 428      6776F4B7 
 428      3CA1AFB3 
 428      A3AFCF47 
 428      CF
 429 0a1c B4658E3C 		.ascii	"\264e\216<u\342[\035O\033\363\035\214\032B\017\320\235"
 429      75E25B1D 
 429      4F1BF31D 
 429      8C1A420F 
 429      D09D
 430 0a2e D2DF1B73 		.ascii	"\322\337\033s\361o\262\216r\375\244\367\0119DVpc\254"
 430      F16FB28E 
 430      72FDA4F7 
 430      09394456 
 430      7063AC
 431 0a41 9BD42602 		.ascii	"\233\324&\002\344\001\341qV\027\265\002\357>6\312\226"
 431      E401E171 
 431      5617B502 
 431      EF3E36CA 
 431      96
 432 0a52 EF49D9F3 		.ascii	"\357I\331\363\331\013\376f\304\362]\247\204:\306\330"
 432      D90BFE66 
 432      C4F25DA7 
 432      843AC6D8 
 433 0a62 0DC41E7A 		.ascii	"\015\304\036z\332\321\002\255\253\367\340\345\306\316"
 433      DAD102AD 
 433      ABF7E0E5 
 433      C6CE
 434 0a70 F9C6F0F0 		.ascii	"\371\306\360\360\375\310\373\207\256[\354\304\310\220"
 434      FDC8FB87 
 434      AE5BECC4 
 434      C890
 435 0a7e 9CBDE861 		.ascii	"\234\275\350a\313\326B\337\237\302\022\323\205\347V"
 435      CBD642DF 
 435      9FC212D3 
 435      85E756
 436 0a8d 279EE925 		.ascii	"'\236\351%\013\026]n\254jJ\017\017O\263\323,\020\374"
 436      0B165D6E 
 436      AC6A4A0F 
 436      0F4FB3D3 
 436      2C10FC
ARM GAS  /tmp/ccTRMAI7.s 			page 35


 437 0aa0 DBED34E9 		.ascii	"\333\3554\351kl\013\215\255.4\236w\244\261l\301Cn4\012"
 437      6B6C0B8D 
 437      AD2E349E 
 437      77A4B16C 
 437      C1436E34 
 438 0ab5 0D3D3B0A 		.ascii	"\015=;\012\232\213\017L\366k\033\321].Dw:\022\035~`"
 438      9A8B0F4C 
 438      F66B1BD1 
 438      5D2E4477 
 438      3A121D7E 
 439 0aca 24F67AB9 		.ascii	"$\366z\271 \317iV\232\334\3136\232\007\\h\356\266\322"
 439      20CF6956 
 439      9ADCCB36 
 439      9A075C68 
 439      EEB6D2
 440 0add FC3A5A65 		.ascii	"\374:Zed\016\220\254\3669\206u}\313<\262\001\205\207"
 440      640E90AC 
 440      F6398675 
 440      7DCB3CB2 
 440      018587
 441 0af0 65F145F8 		.ascii	"e\361E\370\277\2630b\276a\371\330\233 \356\315!R\264"
 441      BFB33062 
 441      BE61F9D8 
 441      9B20EECD 
 441      2152B4
 442 0b03 B6CCB3CF 		.ascii	"\266\314\263\317\276\364\265uM\306\374\034\030I\331"
 442      BEF4B575 
 442      4DC6FC1C 
 442      1849D9
 443 0b12 125A566E 		.ascii	"\022ZVn\003sH\356\257X\321\272\333Ir\230\264\236&\007"
 443      037348EE 
 443      AF58D1BA 
 443      DB497298 
 443      B49E2607 
 444 0b26 8116200B 		.ascii	"\201\026 \013\314Uv\260<+\356\267BmJ\203\232\007\357"
 444      CC5576B0 
 444      3C2BEEB7 
 444      426D4A83 
 444      9A07EF
 445 0b39 DEDE4492 		.ascii	"\336\336D\2227\203\022c\216i\2077\235\333\261\204\345"
 445      37831263 
 445      8E698737 
 445      9DDBB184 
 445      E5
 446 0b4a 022EF6C5 		.ascii	"\002.\366\305\333\221\247\016N$og\212~\334\246\340\327"
 446      DB91A70E 
 446      4E246F67 
 446      8A7EDCA6 
 446      E0D7
 447 0b5c E4EB8A7F 		.ascii	"\344\353\212\177\003G7ye\333\367o\347\325\010\273[|"
 447      03473779 
 447      65DBF76F 
 447      E7D508BB 
 447      5B7C
 448 0b6e CF646868 		.ascii	"\317dhh7\246{\240$)A\272\225$\0168\262\365\343\360{"
 448      37A67BA0 
 448      242941BA 
ARM GAS  /tmp/ccTRMAI7.s 			page 36


 448      95240E38 
 448      B2F5E3F0 
 449 0b83 14CE36BB 		.ascii	"\024\3166\273##\200\233\321\337\224M{y\033\250\217\374"
 449      2323809B 
 449      D1DF944D 
 449      7B791BA8 
 449      8FFC
 450 0b95 341FB134 		.ascii	"4\037\2614\337\326K\227\257\004SB\233\275\200\025X\370"
 450      DFD64B97 
 450      AF045342 
 450      9BBD8015 
 450      58F8
 451 0ba7 B59BC1B6 		.ascii	"\265\233\301\266\373\006\213\330\014.\326N\207d\262"
 451      FB068BD8 
 451      0C2ED64E 
 451      8764B2
 452 0bb6 763A4C97 		.ascii	"v:L\227lo\320\363\021z>j]\276\355,\267\366G\341P\023"
 452      6C6FD0F3 
 452      117A3E6A 
 452      5DBEED2C 
 452      B7F647E1 
 453 0bcc 5ECEEFA8 		.ascii	"^\316\357\2508\242\263\375m\216\352w\321\217\340gd\313"
 453      38A2B3FD 
 453      6D8EEA77 
 453      D18FE067 
 453      64CB
 454 0bde 2B881CE4 		.ascii	"+\210\034\344/\255+\225\\\037a2\316O)\370\337\276ge"
 454      2FAD2B95 
 454      5C1F6132 
 454      CE4F29F8 
 454      DFBE6765 
 455 0bf2 6FB9CCCA 		.ascii	"o\271\314\312\314\011*\367\024\231\321\330\273|\036"
 455      CC092AF7 
 455      1499D1D8 
 455      BB7C1E
 456 0c01 8901E8F2 		.ascii	"\211\001\350\362W\241\177\225\2574\230\357nF=FK\272"
 456      57A17F95 
 456      AF3498EF 
 456      6E463D46 
 456      4BBA
 457 0c13 4AC10780 		.ascii	"J\301\007\200]6*~\207\316\031\035\006d\2037\357\226"
 457      5D362A7E 
 457      87CE191D 
 457      06648337 
 457      EF96
 458 0c25 9952243F 		.ascii	"\231R$?\0348\220~m?\331\261\203\004qqx\0303\363I\350"
 458      1C38907E 
 458      6D3FD9B1 
 458      83047171 
 458      781833F3 
 459 0c3b ACBDD5FC 		.ascii	"\254\275\325\374\036;\3103\015kn:\223d.dm\2217\236^"
 459      1E3BC833 
 459      0D6B6E3A 
 459      93642E64 
 459      6D91379E 
 460 0c50 26E68359 		.ascii	"&\346\203Y\350+9\364\207\276\315\372\221\213Y\257(\030"
 460      E82B39F4 
ARM GAS  /tmp/ccTRMAI7.s 			page 37


 460      87BECDFA 
 460      918B59AF 
 460      2818
 461 0c62 390AFE20 		.ascii	"9\012\376 \027\020W\241\346\360J\243cz\256y\026\211"
 461      171057A1 
 461      E6F04AA3 
 461      637AAE79 
 461      1689
 462 0c74 44991623 		.ascii	"D\231\026#}h\034\353F\331\371\035\213P\202\307\272?"
 462      7D681CEB 
 462      46D9F91D 
 462      8B5082C7 
 462      BA3F
 463 0c86 8B55FEF4 		.ascii	"\213U\376\364?\262O\233\347\232\234\005\026\006\332"
 463      3FB24F9B 
 463      E79A9C05 
 463      1606DA
 464 0c95 5A61F1C4 		.ascii	"Za\361\304\331>\007O<\026.\352\211\223E=q\276\017\263"
 464      D93E074F 
 464      3C162EEA 
 464      8993453D 
 464      71BE0FB3 
 465 0ca9 45F65568 		.ascii	"E\366Uh3W\262\325\242\244Y\215\002j\265U\010\265V\345"
 465      3357B2D5 
 465      A2A4598D 
 465      026AB555 
 465      08B556E5 
 466 0cbd ABC50649 		.ascii	"\253\305\006I\321\305l\2752\340\356\2733\256+\352\035"
 466      D1C56CBD 
 466      32E0EEBB 
 466      33AE2BEA 
 466      1D
 467 0cce 0572EE59 		.ascii	"\005r\356YW\251-\005\244\316\271Jm, u\336Uj{\001\251"
 467      57A92D05 
 467      A4CEB94A 
 467      6D2C2075 
 467      DE556A7B 
 468 0ce4 0BB26563 		.ascii	"\013\262ec\223\257\245>~\362=\211|'J&\275\327x\237\364"
 468      93AFA53E 
 468      7EF23D89 
 468      7C274A26 
 468      BDD7789F 
 469 0cf9 5EF432E9 		.ascii	"^\3642\351\265M\207^\014[\323\357\265\350Q\303h7\016"
 469      B54D875E 
 469      0C5BD3EF 
 469      B5E851C3 
 469      68370E
 470 0d0c AA33C4FF 		.ascii	"\2523\304\377\033\330G\237\030\002_:\265\3137\273\270"
 470      1BD8479F 
 470      18025F3A 
 470      B5CB37BB 
 470      B8
 471 0d1d D81011EB 		.ascii	"\330\020\021\353\241\237Y\374\223n\011\272\213q:tq\324"
 471      A19F59FC 
 471      936E09BA 
 471      8B713A74 
 471      71D4
ARM GAS  /tmp/ccTRMAI7.s 			page 38


 472 0d2f 641CF9CF 		.ascii	"d\034\371\317=3\370\004\316]\210\2539\267\3042S\263"
 472      3D33F804 
 472      CE5D88AB 
 472      39B7C432 
 472      53B3
 473 0d41 59FBE502 		.ascii	"Y\373\345\002\326n.\311\245\366\222X\255\242\3350yr"
 473      D66E2EC9 
 473      A5F69258 
 473      ADA2DD30 
 473      7972
 474 0d53 25FB9748 		.ascii	"%\373\227HU\306\022\015\015\2118\324\352\353fV\326\305"
 474      55C6120D 
 474      0D8938D4 
 474      EAEB6656 
 474      D6C5
 475 0d65 63F58DD5 		.ascii	"c\365\215\325je\254\266VU\222\223k\321\330\006\265!"
 475      6A65ACB6 
 475      56559293 
 475      6BD1D806 
 475      B521
 476 0d77 A1DD1725 		.ascii	"\241\335\027%\227Q=x\327\217\177\036\271\003\225\233"
 476      97513D78 
 476      D78F7F1E 
 476      B903959B 
 477 0d87 6E565536 		.ascii	"nVU6\246\264J\"[\023\213U*Z\303\215\361D\\\275QUf\326"
 477      A6B44A22 
 477      5B138B55 
 477      2A5AC38D 
 477      F1445CBD 
 478 0d9f 55DE3C79 		.ascii	"U\336<yj\0261\245WW\253\263\0001\230\252\373\255\032"
 478      6A1631A5 
 478      5757ABB3 
 478      003198AA 
 478      FBAD1A
 479 0db2 D56FF4C0 		.ascii	"\325o\364\300\001\232\211%4\025\204\302P\255Q\365Y\215"
 479      019A8925 
 479      341584C2 
 479      50AD51F5 
 479      598D
 480 0dc4 F158540F 		.ascii	"\361XT\017%\265\304\275u\325\2526\226\262\202\023\324"
 480      25B5C4BD 
 480      75D5AA36 
 480      96B28213 
 480      D4
 481 0dd5 A37AB9E9 		.ascii	"\243z\271\351\352z\007\364dB\323S\225\267\377\364Gw"
 481      EA7A07F4 
 481      6442D353 
 481      95B7FFF4 
 481      4777
 482 0de7 FC680E80 		.ascii	"\374h\016\200s\3441)\375\327J}]M<\252_IU\021\315\307"
 482      73E43129 
 482      FDD74A7D 
 482      5D4D3CAA 
 482      5F495511 
 483 0dfd D5D9840D 		.ascii	"\325\331\204\015\360\256\213\353\360`\250\021\376\336"
 483      F0AE8BEB 
 483      F060A811 
ARM GAS  /tmp/ccTRMAI7.s 			page 39


 483      FEDE
 484 0e0b 72333077 		.ascii	"r30wz\254A\211\325\326\305\325\312((\2514\326\353Q\375"
 484      7AAC4189 
 484      D5D6C5D5 
 484      CA2828A9 
 484      34D6EB51 
 485 0e20 BEA49A22 		.ascii	"\276\244\232\"\370\321\250\020\014\320vJ\342\352\034"
 485      F8D1A810 
 485      0CD0764A 
 485      E2EA1C
 486 0e2f 3D90546A 		.ascii	"=\220Tj\324T\311,MUK\010\355\022b\224\222\306\224Z\035"
 486      D454C92C 
 486      4D554B08 
 486      ED126294 
 486      92C6945A 
 487 0e44 640A5C6D 		.ascii	"d\012\\mV@\323\315F\321\347\000liC\243\256\316\001["
 487      5640D3CD 
 487      46D1E700 
 487      6C6943A3 
 487      AECE015B 
 488 0e58 C46AA3B4 		.ascii	"\304j\243\264z\255\253@\352\276\224 3^\257\325\000>"
 488      7AADAB40 
 488      EABE9420 
 488      335EAFD5 
 488      003E
 489 0e6a 15FD4DA3 		.ascii	"\025\375M\243\332\010N\230\000\322\226[\021w\224Xm5"
 489      DA084E98 
 489      00D2965B 
 489      11779458 
 489      6D35
 490 0e7c B1027B3C 		.ascii	"\261\002{<\252\227eE\003TrjQ\213'\032\222u\365\252\226"
 490      AA976545 
 490      0354726A 
 490      518B271A 
 490      9275F5AA 
 491 0e91 AABCEB8E 		.ascii	"\252\274\353\216;\000Pp*\325\223Z]\0024!f\372\366MQ"
 491      3B005070 
 491      2AD5935A 
 491      5D023421 
 491      66FAF64D 
 492 0ea6 9D5B8C54 		.ascii	"\235[\214TK\310Oa\002\023\215%\342\240\245^N/\340\347"
 492      4BC84F61 
 492      02138D25 
 492      E2A0A55E 
 492      4E2FE0E7 
 493 0eba 983EC729 		.ascii	"\230>\307)\204\034\234\034\275\367\226\006\302\\Sk "
 493      841C9C1C 
 493      BDF79606 
 493      C25C536B 
 493      20
 494 0ecb 3CA3BAA4 		.ascii	"<\243\272\244M\225\264\357\311\332\224*(S$\355fI\373"
 494      4D95B4EF 
 494      C9DA942A 
 494      285324ED 
 494      6649FB
 495 0ede 8EA4DD22 		.ascii	"\216\244\335\"i\337\225\3525)\225\224\001:\000nU\265"
 495      69DF95EA 
ARM GAS  /tmp/ccTRMAI7.s 			page 40


 495      35299594 
 495      013A006E 
 495      55B5
 496 0ef0 40A21E5C 		.ascii	"@\242\036\\Q\022W\032\324\340le\246\222RCzJWt\260\\"
 496      5112571A 
 496      D4E06C65 
 496      A6925243 
 496      7A4A5774 
 497 0f06 29A13815 		.ascii	")\2418\025\314\300\310B-@\177)\325\033\022\325\360{"
 497      CCC0C842 
 497      2D407F29 
 497      D51B12D5 
 497      F07B
 498 0f18 6056BD52 		.ascii	"`V\275R\223*\3255uV\012\364 \177\002\015\251\032\020"
 498      932AD535 
 498      75560AF4 
 498      207F020D 
 498      A91A10
 499 0f2b E4AA8120 		.ascii	"\344\252\201 \257\005\265\352\373\340\247\220:\247N"
 499      AF05B5EA 
 499      FBE0A790 
 499      3AA74E
 500 0f3a 8F817070 		.ascii	"\217\201pp\266\236\230\371\253d\005\2674\210\252\232"
 500      B69E98F9 
 500      AB6405B7 
 500      3488AA9A 
 501 0f4a 1A8F11D0 		.ascii	"\032\217\021\320\331\272\256%KSj\\\007\2010x \2456("
 501      D9BAAE25 
 501      4B536A5C 
 501      07813078 
 501      20A53628 
 502 0f5e C95A50D2 		.ascii	"\311ZP\322=^\340\021\320>\020\213CL\312p\006x\270\225"
 502      3D5EE011 
 502      D03E108B 
 502      434CCA70 
 502      0678B895 
 503 0f72 843F1049 		.ascii	"\204?\020I\311r\365^\202\246\244~\015D\324\331\244\202"
 503      C972F55E 
 503      82A6A47E 
 503      0D44D4D9 
 503      A482
 504 0f84 1BC78998 		.ascii	"\033\307\211\230\250\257K\201\324xS\224\220;\245\263"
 504      A8AF4B81 
 504      D4785394 
 504      903BA5B3 
 505 0f94 953ABD2E 		.ascii	"\225:\275.^\023\002\022\324\367!5"
 505      5E130212 
 505      D4F72135 
 506 0fa0 A9C6A19B 		.ascii	"\251\306\241\233\324\224\002$y\002l\255\324\023\337"
 506      D4940224 
 506      79026CAD 
 506      D413DF
 507 0faf 051A9289 		.ascii	"\005\032\222\211D=\270Q\2757\220\230\035W5\031\236\230"
 507      443DB851 
 507      BD379098 
 507      1D573519 
 507      9E98
ARM GAS  /tmp/ccTRMAI7.s 			page 41


 508 0fc1 92E5AAAB 		.ascii	"\222\345\252\253)\235\260M%\032\265\230\312.\311\011"
 508      299DB04D 
 508      251AB598 
 508      CA2EC909 
 509 0fd1 F40260A2 		.ascii	"\364\002`\242s\325\224\252\3111\364%z\023\352\321\252"
 509      73D594AA 
 509      C931F425 
 509      7A13EAD1 
 509      AA
 510 0fe2 AA9BA2EA 		.ascii	"\252\233\242\352\0345\006!o\2769E\334\254\260\334L\251"
 510      1C350621 
 510      6FBE3945 
 510      DCACB0DC 
 510      4CA9
 511 0ff4 7A63F20A 		.ascii	"zc\362\012ks\244\267\022\205\240N"
 511      6B73A4B7 
 511      1285A04E 
 512 1000 EC12FD3E 		.ascii	"\354\022\375>\020\014\323\313\250\222J\251\232^\021"
 512      100CD3CB 
 512      A8924AA9 
 512      9A5E11
 513 100f AB9D015D 		.ascii	"\253\235\001]\362\366\372\372D\354v\322c\325\3521\354"
 513      F2F6FAFA 
 513      44EC76D2 
 513      63D5EA31 
 513      EC
 514 1020 D60FA0BB 		.ascii	"\326\017\240\273\206Y\365g\340\354\306\324\004v\361"
 514      8659F567 
 514      E0ECC6D4 
 514      0476F1
 515 102f 9399BF52 		.ascii	"\223\231\277Rc\372\335\361:\275\214\342\220\036}}q%"
 515      63FADDF1 
 515      3ABD8CE2 
 515      901E7D7D 
 515      7125
 516 1041 B5448250 		.ascii	"\265D\202P(\247\0273\033g\201\237\231|JW\223\001\312"
 516      28A71733 
 516      1B67819F 
 516      997C4A57 
 516      9301CA
 517 1054 3DA4AB8A 		.ascii	"=\244\253\212V\015\226+\345\372\215!\017\304 \022\243"
 517      560D962B 
 517      E5FA8D21 
 517      0FC42012 
 517      A3
 518 1065 FA257996 		.ascii	"\372%y\226\272|\262\226\250Vter\336/a\263Y\256\244\252"
 518      BA7CB296 
 518      A8567465 
 518      72DE2F61 
 518      B359AEA4 
 519 107a 297A5D22 		.ascii	")z]\"\036Q\342\325\221Y\232R\323\000Q@\357 \363\243"
 519      1E51E2D5 
 519      91599A52 
 519      D3005140 
 519      EF20F3A3 
 520 108e 378DBD93 		.ascii	"7\215\275\223\245\263\010Q\023\225\233,\023 J&\377\013"
 520      A5B30851 
ARM GAS  /tmp/ccTRMAI7.s 			page 42


 520      13959B2C 
 520      13204A26 
 520      FF0B
 521 10a0 1812E99A 		.ascii	"\030\022\351\232"
 522              		.text
 523              		.section	.gnu.lto_.symtab.d9472d87f8791e7b,"",%progbits
 524 0000 74657374 		.ascii	"test_heap\000\000\000\000\000\000\000\000\000\000\000"
 524      5F686561 
 524      70000000 
 524      00000000 
 524      00000000 
 525 0014 00C90100 		.ascii	"\000\311\001\000\000test_sequence_010\000\000\000\000"
 525      00746573 
 525      745F7365 
 525      7175656E 
 525      63655F30 
 526 002e 00000000 		.ascii	"\000\000\000\000\000\000\000\000\317\001\000\000tes"
 526      00000000 
 526      CF010000 
 526      746573
 527 003d 745F7374 		.ascii	"t_step\000\000\002\000\000\000\000\000\000\000\000\000"
 527      65700000 
 527      02000000 
 527      00000000 
 527      0000
 528 004f CD010000 		.ascii	"\315\001\000\000test_buffer\000\000\002\000\000\000"
 528      74657374 
 528      5F627566 
 528      66657200 
 528      00020000 
 529 0064 00000000 		.ascii	"\000\000\000\000\000\000\313\001\000\000_test_asser"
 529      0000CB01 
 529      00005F74 
 529      6573745F 
 529      61737365 
 530 0079 74000002 		.ascii	"t\000\000\002\000\000\000\000\000\000\000\000\000\253"
 530      00000000 
 530      00000000 
 530      00AB
 531 0087 01000063 		.ascii	"\001\000\000chHeapAllocAligned\000\000\002\000\000\000"
 531      68486561 
 531      70416C6C 
 531      6F63416C 
 531      69676E65 
 532 00a2 00000000 		.ascii	"\000\000\000\000\000\000\263\001\000\000chHeapFree\000"
 532      0000B301 
 532      00006368 
 532      48656170 
 532      46726565 
 533 00b7 00020000 		.ascii	"\000\002\000\000\000\000\000\000\000\000\000\271\001"
 533      00000000 
 533      000000B9 
 533      01
 534 00c4 00006368 		.ascii	"\000\000chHeapStatus\000\000\002\000\000\000\000\000"
 534      48656170 
 534      53746174 
 534      75730000 
ARM GAS  /tmp/ccTRMAI7.s 			page 43


 534      02000000 
 535 00da 00000000 		.ascii	"\000\000\000\000\275\001\000\000chHeapObjectInit\000"
 535      BD010000 
 535      63684865 
 535      61704F62 
 535      6A656374 
 536 00f3 00020000 		.ascii	"\000\002\000\000\000\000\000\000\000\000\000\303\001"
 536      00000000 
 536      000000C3 
 536      01
 537 0100 0000     		.ascii	"\000\000"
 538              		.text
 539              		.section	.gnu.lto_.opts,"",%progbits
 540 0000 272D6D63 		.ascii	"'-mcpu=cortex-m0' '-mno-thumb-interwork' '-mthumb' "
 540      70753D63 
 540      6F727465 
 540      782D6D30 
 540      2720272D 
 541 0033 272D6767 		.ascii	"'-ggdb' '-O2' '-fomit-frame-pointer' '-falign-funct"
 541      64622720 
 541      272D4F32 
 541      2720272D 
 541      666F6D69 
 542 0066 696F6E73 		.ascii	"ions=16' '-ffunction-sections' '-fdata-sections' '-"
 542      3D313627 
 542      20272D66 
 542      66756E63 
 542      74696F6E 
 543 0099 666E6F2D 		.ascii	"fno-common' '-flto'\000"
 543      636F6D6D 
 543      6F6E2720 
 543      272D666C 
 543      746F2700 
 544              		.text
 545              		.cfi_sections	.debug_frame
 546              		.section	.text.test_010_002_execute,"ax",%progbits
 547              		.align	2
 548              		.p2align 4,,15
 549              		.code	16
 550              		.thumb_func
 551              		.type	test_010_002_execute, %function
 552              	test_010_002_execute:
 553              	.LFB181:
 554              		.file 1 "../../../test/rt/source/test/test_sequence_010.c"
 555              		.loc 1 230 0
 556              		.cfi_startproc
 557 0000 30B5     		push	{r4, r5, lr}
 558              		.cfi_def_cfa_offset 12
 559              		.cfi_offset 4, -12
 560              		.cfi_offset 5, -8
 561              		.cfi_offset 14, -4
 562              		.loc 1 236 0
 563 0002 154C     		ldr	r4, .L6
 564              		.loc 1 230 0
 565 0004 83B0     		sub	sp, sp, #12
 566              		.cfi_def_cfa_offset 24
 567              		.loc 1 236 0
ARM GAS  /tmp/ccTRMAI7.s 			page 44


 568 0006 0123     		mov	r3, #1
 569              		.loc 1 238 0
 570 0008 6946     		mov	r1, sp
 571 000a 01AA     		add	r2, sp, #4
 572 000c 0020     		mov	r0, #0
 573              		.loc 1 236 0
 574 000e 2360     		str	r3, [r4]
 575              		.loc 1 238 0
 576 0010 FFF7FEFF 		bl	chHeapStatus
 577              	.LVL0:
 578              	.LBB37:
 579              	.LBB38:
 580              		.file 2 "../../../os/common/oslib/include/chheap.h"
 581              		.loc 2 157 0
 582 0014 1021     		mov	r1, #16
 583 0016 1148     		ldr	r0, .L6+4
 584 0018 0822     		mov	r2, #8
 585 001a FFF7FEFF 		bl	chHeapAllocAligned
 586              	.LVL1:
 587 001e 051C     		mov	r5, r0
 588              	.LBE38:
 589              	.LBE37:
 590              		.loc 1 240 0
 591 0020 431E     		sub	r3, r0, #1
 592 0022 9841     		sbc	r0, r0, r3
 593 0024 C0B2     		uxtb	r0, r0
 594 0026 0E49     		ldr	r1, .L6+8
 595 0028 FFF7FEFF 		bl	_test_assert
 596              	.LVL2:
 597 002c 0028     		cmp	r0, #0
 598 002e 01D0     		beq	.L5
 599              	.L1:
 600              		.loc 1 250 0
 601 0030 03B0     		add	sp, sp, #12
 602              		@ sp needed
 603 0032 30BD     		pop	{r4, r5, pc}
 604              	.L5:
 605              		.loc 1 241 0
 606 0034 281C     		mov	r0, r5
 607 0036 FFF7FEFF 		bl	chHeapFree
 608              	.LVL3:
 609              		.loc 1 245 0
 610 003a 0223     		mov	r3, #2
 611              	.LBB39:
 612              	.LBB40:
 613              		.loc 2 157 0
 614 003c 0949     		ldr	r1, .L6+12
 615 003e 0822     		mov	r2, #8
 616 0040 0020     		mov	r0, #0
 617              	.LBE40:
 618              	.LBE39:
 619              		.loc 1 245 0
 620 0042 2360     		str	r3, [r4]
 621              	.LVL4:
 622              	.LBB42:
 623              	.LBB41:
 624              		.loc 2 157 0
ARM GAS  /tmp/ccTRMAI7.s 			page 45


 625 0044 FFF7FEFF 		bl	chHeapAllocAligned
 626              	.LVL5:
 627              	.LBE41:
 628              	.LBE42:
 629              		.loc 1 248 0
 630 0048 4342     		neg	r3, r0
 631 004a 5841     		adc	r0, r0, r3
 632 004c 0649     		ldr	r1, .L6+16
 633 004e C0B2     		uxtb	r0, r0
 634 0050 FFF7FEFF 		bl	_test_assert
 635              	.LVL6:
 636 0054 ECE7     		b	.L1
 637              	.L7:
 638 0056 C046     		.align	2
 639              	.L6:
 640 0058 00000000 		.word	test_step
 641 005c 00000000 		.word	.LANCHOR0
 642 0060 00000000 		.word	.LC2
 643 0064 00FFFFFF 		.word	-256
 644 0068 14000000 		.word	.LC4
 645              		.cfi_endproc
 646              	.LFE181:
 647              		.size	test_010_002_execute, .-test_010_002_execute
 648 006c C046C046 		.section	.text.test_010_001_execute,"ax",%progbits
 649              		.align	2
 650              		.p2align 4,,15
 651              		.code	16
 652              		.thumb_func
 653              		.type	test_010_001_execute, %function
 654              	test_010_001_execute:
 655              	.LFB180:
 656              		.loc 1 94 0
 657              		.cfi_startproc
 658 0000 F0B5     		push	{r4, r5, r6, r7, lr}
 659              		.cfi_def_cfa_offset 20
 660              		.cfi_offset 4, -20
 661              		.cfi_offset 5, -16
 662              		.cfi_offset 6, -12
 663              		.cfi_offset 7, -8
 664              		.cfi_offset 14, -4
 665 0002 5646     		mov	r6, r10
 666 0004 4D46     		mov	r5, r9
 667 0006 4446     		mov	r4, r8
 668 0008 5F46     		mov	r7, fp
 669 000a F0B4     		push	{r4, r5, r6, r7}
 670              		.cfi_def_cfa_offset 36
 671              		.cfi_offset 8, -36
 672              		.cfi_offset 9, -32
 673              		.cfi_offset 10, -28
 674              		.cfi_offset 11, -24
 675              		.loc 1 102 0
 676 000c C84C     		ldr	r4, .L18
 677              		.loc 1 94 0
 678 000e 87B0     		sub	sp, sp, #28
 679              		.cfi_def_cfa_offset 64
 680              		.loc 1 100 0
 681 0010 C84D     		ldr	r5, .L18+4
ARM GAS  /tmp/ccTRMAI7.s 			page 46


 682 0012 0123     		mov	r3, #1
 683              		.loc 1 102 0
 684 0014 03A9     		add	r1, sp, #12
 685 0016 201C     		mov	r0, r4
 686 0018 0022     		mov	r2, #0
 687              		.loc 1 100 0
 688 001a 2B60     		str	r3, [r5]
 689              		.loc 1 102 0
 690 001c FFF7FEFF 		bl	chHeapStatus
 691              	.LVL7:
 692 0020 C54E     		ldr	r6, .L18+8
 693 0022 0138     		sub	r0, r0, #1
 694 0024 4342     		neg	r3, r0
 695 0026 5841     		adc	r0, r0, r3
 696 0028 C0B2     		uxtb	r0, r0
 697 002a 311C     		mov	r1, r6
 698 002c FFF7FEFF 		bl	_test_assert
 699              	.LVL8:
 700 0030 0028     		cmp	r0, #0
 701 0032 06D0     		beq	.L17
 702              	.L8:
 703              		.loc 1 207 0
 704 0034 07B0     		add	sp, sp, #28
 705              		@ sp needed
 706 0036 3CBC     		pop	{r2, r3, r4, r5}
 707 0038 9046     		mov	r8, r2
 708 003a 9946     		mov	r9, r3
 709 003c A246     		mov	r10, r4
 710 003e AB46     		mov	fp, r5
 711 0040 F0BD     		pop	{r4, r5, r6, r7, pc}
 712              	.L17:
 713              	.LBB43:
 714              	.LBB44:
 715              		.loc 2 157 0
 716 0042 CD21     		mov	r1, #205
 717              	.LBE44:
 718              	.LBE43:
 719              		.loc 1 107 0
 720 0044 0223     		mov	r3, #2
 721              	.LBB47:
 722              	.LBB45:
 723              		.loc 2 157 0
 724 0046 0901     		lsl	r1, r1, #4
 725 0048 201C     		mov	r0, r4
 726 004a 0822     		mov	r2, #8
 727              	.LBE45:
 728              	.LBE47:
 729              		.loc 1 107 0
 730 004c 2B60     		str	r3, [r5]
 731              	.LVL9:
 732              	.LBB48:
 733              	.LBB46:
 734              		.loc 2 157 0
 735 004e FFF7FEFF 		bl	chHeapAllocAligned
 736              	.LVL10:
 737              	.LBE46:
 738              	.LBE48:
ARM GAS  /tmp/ccTRMAI7.s 			page 47


 739              		.loc 1 110 0
 740 0052 4342     		neg	r3, r0
 741 0054 5841     		adc	r0, r0, r3
 742 0056 C0B2     		uxtb	r0, r0
 743 0058 B849     		ldr	r1, .L18+12
 744 005a FFF7FEFF 		bl	_test_assert
 745              	.LVL11:
 746 005e 0028     		cmp	r0, #0
 747 0060 E8D1     		bne	.L8
 748              		.loc 1 115 0
 749 0062 0323     		mov	r3, #3
 750              	.LBB49:
 751              	.LBB50:
 752              		.loc 2 157 0
 753 0064 1021     		mov	r1, #16
 754 0066 201C     		mov	r0, r4
 755 0068 0822     		mov	r2, #8
 756              	.LBE50:
 757              	.LBE49:
 758              		.loc 1 115 0
 759 006a 2B60     		str	r3, [r5]
 760              	.LVL12:
 761              	.LBB53:
 762              	.LBB51:
 763              		.loc 2 157 0
 764 006c FFF7FEFF 		bl	chHeapAllocAligned
 765              	.LVL13:
 766              	.LBE51:
 767              	.LBE53:
 768              		.loc 1 118 0
 769 0070 B34F     		ldr	r7, .L18+16
 770              	.LBB54:
 771              	.LBB52:
 772              		.loc 2 157 0
 773 0072 8046     		mov	r8, r0
 774              	.LBE52:
 775              	.LBE54:
 776              		.loc 1 118 0
 777 0074 431E     		sub	r3, r0, #1
 778 0076 9841     		sbc	r0, r0, r3
 779 0078 C0B2     		uxtb	r0, r0
 780 007a 391C     		mov	r1, r7
 781 007c FFF7FEFF 		bl	_test_assert
 782              	.LVL14:
 783 0080 0028     		cmp	r0, #0
 784 0082 D7D1     		bne	.L8
 785              		.loc 1 119 0
 786 0084 4046     		mov	r0, r8
 787 0086 FFF7FEFF 		bl	chHeapFree
 788              	.LVL15:
 789              		.loc 1 124 0
 790 008a 0423     		mov	r3, #4
 791              	.LBB55:
 792              		.loc 1 128 0
 793 008c 04A9     		add	r1, sp, #16
 794 008e 201C     		mov	r0, r4
 795 0090 05AA     		add	r2, sp, #20
ARM GAS  /tmp/ccTRMAI7.s 			page 48


 796              	.LBE55:
 797              		.loc 1 124 0
 798 0092 2B60     		str	r3, [r5]
 799              	.LBB56:
 800              		.loc 1 128 0
 801 0094 FFF7FEFF 		bl	chHeapStatus
 802              	.LVL16:
 803 0098 0290     		str	r0, [sp, #8]
 804              		.loc 1 129 0
 805 009a 0138     		sub	r0, r0, #1
 806 009c 4342     		neg	r3, r0
 807 009e 5841     		adc	r0, r0, r3
 808 00a0 C0B2     		uxtb	r0, r0
 809 00a2 A849     		ldr	r1, .L18+20
 810 00a4 FFF7FEFF 		bl	_test_assert
 811              	.LVL17:
 812 00a8 0028     		cmp	r0, #0
 813 00aa C3D1     		bne	.L8
 814              		.loc 1 130 0
 815 00ac 049A     		ldr	r2, [sp, #16]
 816 00ae A64B     		ldr	r3, .L18+24
 817 00b0 0F20     		mov	r0, #15
 818 00b2 9042     		cmp	r0, r2
 819 00b4 8041     		sbc	r0, r0, r0
 820 00b6 4042     		neg	r0, r0
 821 00b8 191C     		mov	r1, r3
 822 00ba 9846     		mov	r8, r3
 823 00bc FFF7FEFF 		bl	_test_assert
 824              	.LVL18:
 825 00c0 0028     		cmp	r0, #0
 826 00c2 B7D1     		bne	.L8
 827              		.loc 1 131 0
 828 00c4 059B     		ldr	r3, [sp, #20]
 829 00c6 049A     		ldr	r2, [sp, #16]
 830 00c8 4146     		mov	r1, r8
 831 00ca D01A     		sub	r0, r2, r3
 832 00cc 4342     		neg	r3, r0
 833 00ce 5841     		adc	r0, r0, r3
 834 00d0 C0B2     		uxtb	r0, r0
 835 00d2 FFF7FEFF 		bl	_test_assert
 836              	.LVL19:
 837 00d6 0028     		cmp	r0, #0
 838 00d8 ACD1     		bne	.L8
 839              	.LBE56:
 840              		.loc 1 135 0
 841 00da 0523     		mov	r3, #5
 842              	.LBB57:
 843              	.LBB58:
 844              		.loc 2 157 0
 845 00dc 1021     		mov	r1, #16
 846 00de 0822     		mov	r2, #8
 847 00e0 201C     		mov	r0, r4
 848              	.LBE58:
 849              	.LBE57:
 850              		.loc 1 135 0
 851 00e2 2B60     		str	r3, [r5]
 852              	.LVL20:
ARM GAS  /tmp/ccTRMAI7.s 			page 49


 853              	.LBB61:
 854              	.LBB59:
 855              		.loc 2 157 0
 856 00e4 FFF7FEFF 		bl	chHeapAllocAligned
 857              	.LVL21:
 858              	.LBE59:
 859              	.LBE61:
 860              	.LBB62:
 861              	.LBB63:
 862 00e8 1021     		mov	r1, #16
 863              	.LBE63:
 864              	.LBE62:
 865              	.LBB66:
 866              	.LBB60:
 867 00ea 8246     		mov	r10, r0
 868              	.LVL22:
 869              	.LBE60:
 870              	.LBE66:
 871              	.LBB67:
 872              	.LBB64:
 873 00ec 0822     		mov	r2, #8
 874 00ee 201C     		mov	r0, r4
 875 00f0 FFF7FEFF 		bl	chHeapAllocAligned
 876              	.LVL23:
 877              	.LBE64:
 878              	.LBE67:
 879              	.LBB68:
 880              	.LBB69:
 881 00f4 1021     		mov	r1, #16
 882 00f6 0822     		mov	r2, #8
 883              	.LBE69:
 884              	.LBE68:
 885              	.LBB71:
 886              	.LBB65:
 887 00f8 8146     		mov	r9, r0
 888              	.LVL24:
 889              	.LBE65:
 890              	.LBE71:
 891              	.LBB72:
 892              	.LBB70:
 893 00fa 201C     		mov	r0, r4
 894 00fc FFF7FEFF 		bl	chHeapAllocAligned
 895              	.LVL25:
 896 0100 8046     		mov	r8, r0
 897              	.LBE70:
 898              	.LBE72:
 899              		.loc 1 140 0
 900 0102 5046     		mov	r0, r10
 901 0104 FFF7FEFF 		bl	chHeapFree
 902              	.LVL26:
 903              		.loc 1 141 0
 904 0108 4846     		mov	r0, r9
 905 010a FFF7FEFF 		bl	chHeapFree
 906              	.LVL27:
 907              		.loc 1 142 0
 908 010e 4046     		mov	r0, r8
 909 0110 FFF7FEFF 		bl	chHeapFree
ARM GAS  /tmp/ccTRMAI7.s 			page 50


 910              	.LVL28:
 911              		.loc 1 143 0
 912 0114 02A9     		add	r1, sp, #8
 913 0116 0022     		mov	r2, #0
 914 0118 201C     		mov	r0, r4
 915 011a FFF7FEFF 		bl	chHeapStatus
 916              	.LVL29:
 917 011e 0138     		sub	r0, r0, #1
 918 0120 4342     		neg	r3, r0
 919 0122 5841     		adc	r0, r0, r3
 920 0124 C0B2     		uxtb	r0, r0
 921 0126 311C     		mov	r1, r6
 922 0128 FFF7FEFF 		bl	_test_assert
 923              	.LVL30:
 924 012c 8046     		mov	r8, r0
 925 012e 0028     		cmp	r0, #0
 926 0130 00D0     		beq	.LCB333
 927 0132 7FE7     		b	.L8	@long jump
 928              	.LCB333:
 929              		.loc 1 147 0
 930 0134 0623     		mov	r3, #6
 931              	.LBB73:
 932              	.LBB74:
 933              		.loc 2 157 0
 934 0136 1021     		mov	r1, #16
 935 0138 0822     		mov	r2, #8
 936 013a 201C     		mov	r0, r4
 937              	.LBE74:
 938              	.LBE73:
 939              		.loc 1 147 0
 940 013c 2B60     		str	r3, [r5]
 941              	.LVL31:
 942              	.LBB77:
 943              	.LBB75:
 944              		.loc 2 157 0
 945 013e FFF7FEFF 		bl	chHeapAllocAligned
 946              	.LVL32:
 947              	.LBE75:
 948              	.LBE77:
 949              	.LBB78:
 950              	.LBB79:
 951 0142 1021     		mov	r1, #16
 952              	.LBE79:
 953              	.LBE78:
 954              	.LBB82:
 955              	.LBB76:
 956 0144 8146     		mov	r9, r0
 957              	.LVL33:
 958              	.LBE76:
 959              	.LBE82:
 960              	.LBB83:
 961              	.LBB80:
 962 0146 0822     		mov	r2, #8
 963 0148 201C     		mov	r0, r4
 964 014a FFF7FEFF 		bl	chHeapAllocAligned
 965              	.LVL34:
 966              	.LBE80:
ARM GAS  /tmp/ccTRMAI7.s 			page 51


 967              	.LBE83:
 968              	.LBB84:
 969              	.LBB85:
 970 014e 1021     		mov	r1, #16
 971 0150 0822     		mov	r2, #8
 972              	.LBE85:
 973              	.LBE84:
 974              	.LBB87:
 975              	.LBB81:
 976 0152 8246     		mov	r10, r0
 977              	.LVL35:
 978              	.LBE81:
 979              	.LBE87:
 980              	.LBB88:
 981              	.LBB86:
 982 0154 201C     		mov	r0, r4
 983 0156 FFF7FEFF 		bl	chHeapAllocAligned
 984              	.LVL36:
 985              	.LBE86:
 986              	.LBE88:
 987              		.loc 1 152 0
 988 015a FFF7FEFF 		bl	chHeapFree
 989              	.LVL37:
 990              		.loc 1 153 0
 991 015e 5046     		mov	r0, r10
 992 0160 FFF7FEFF 		bl	chHeapFree
 993              	.LVL38:
 994              		.loc 1 154 0
 995 0164 4846     		mov	r0, r9
 996 0166 FFF7FEFF 		bl	chHeapFree
 997              	.LVL39:
 998              		.loc 1 155 0
 999 016a 4246     		mov	r2, r8
 1000 016c 02A9     		add	r1, sp, #8
 1001 016e 201C     		mov	r0, r4
 1002 0170 FFF7FEFF 		bl	chHeapStatus
 1003              	.LVL40:
 1004 0174 0138     		sub	r0, r0, #1
 1005 0176 4342     		neg	r3, r0
 1006 0178 5841     		adc	r0, r0, r3
 1007 017a C0B2     		uxtb	r0, r0
 1008 017c 311C     		mov	r1, r6
 1009 017e FFF7FEFF 		bl	_test_assert
 1010              	.LVL41:
 1011 0182 8046     		mov	r8, r0
 1012 0184 0028     		cmp	r0, #0
 1013 0186 00D0     		beq	.LCB412
 1014 0188 54E7     		b	.L8	@long jump
 1015              	.LCB412:
 1016              		.loc 1 160 0
 1017 018a 0723     		mov	r3, #7
 1018              	.LBB89:
 1019              	.LBB90:
 1020              		.loc 2 157 0
 1021 018c 1121     		mov	r1, #17
 1022 018e 0822     		mov	r2, #8
 1023 0190 201C     		mov	r0, r4
ARM GAS  /tmp/ccTRMAI7.s 			page 52


 1024              	.LBE90:
 1025              	.LBE89:
 1026              		.loc 1 160 0
 1027 0192 2B60     		str	r3, [r5]
 1028              	.LVL42:
 1029              	.LBB93:
 1030              	.LBB91:
 1031              		.loc 2 157 0
 1032 0194 FFF7FEFF 		bl	chHeapAllocAligned
 1033              	.LVL43:
 1034              	.LBE91:
 1035              	.LBE93:
 1036              	.LBB94:
 1037              	.LBB95:
 1038 0198 1021     		mov	r1, #16
 1039              	.LBE95:
 1040              	.LBE94:
 1041              	.LBB97:
 1042              	.LBB92:
 1043 019a 8146     		mov	r9, r0
 1044              	.LVL44:
 1045              	.LBE92:
 1046              	.LBE97:
 1047              	.LBB98:
 1048              	.LBB96:
 1049 019c 0822     		mov	r2, #8
 1050 019e 201C     		mov	r0, r4
 1051 01a0 FFF7FEFF 		bl	chHeapAllocAligned
 1052              	.LVL45:
 1053 01a4 8346     		mov	fp, r0
 1054              	.LBE96:
 1055              	.LBE98:
 1056              		.loc 1 164 0
 1057 01a6 4846     		mov	r0, r9
 1058 01a8 FFF7FEFF 		bl	chHeapFree
 1059              	.LVL46:
 1060              		.loc 1 165 0
 1061 01ac 4246     		mov	r2, r8
 1062 01ae 02A9     		add	r1, sp, #8
 1063 01b0 201C     		mov	r0, r4
 1064 01b2 FFF7FEFF 		bl	chHeapStatus
 1065              	.LVL47:
 1066 01b6 654A     		ldr	r2, .L18+28
 1067 01b8 0238     		sub	r0, r0, #2
 1068 01ba 4342     		neg	r3, r0
 1069 01bc 5841     		adc	r0, r0, r3
 1070 01be C0B2     		uxtb	r0, r0
 1071 01c0 111C     		mov	r1, r2
 1072 01c2 9146     		mov	r9, r2
 1073 01c4 FFF7FEFF 		bl	_test_assert
 1074              	.LVL48:
 1075 01c8 8046     		mov	r8, r0
 1076 01ca 0028     		cmp	r0, #0
 1077 01cc 00D0     		beq	.LCB469
 1078 01ce 31E7     		b	.L8	@long jump
 1079              	.LCB469:
 1080              	.LVL49:
ARM GAS  /tmp/ccTRMAI7.s 			page 53


 1081              	.LBB99:
 1082              	.LBB100:
 1083              		.loc 2 157 0
 1084 01d0 1021     		mov	r1, #16
 1085 01d2 0822     		mov	r2, #8
 1086 01d4 201C     		mov	r0, r4
 1087 01d6 FFF7FEFF 		bl	chHeapAllocAligned
 1088              	.LVL50:
 1089              	.LBE100:
 1090              	.LBE99:
 1091              		.loc 1 169 0
 1092 01da 02A9     		add	r1, sp, #8
 1093              	.LBB102:
 1094              	.LBB101:
 1095              		.loc 2 157 0
 1096 01dc 8246     		mov	r10, r0
 1097              	.LBE101:
 1098              	.LBE102:
 1099              		.loc 1 169 0
 1100 01de 4246     		mov	r2, r8
 1101 01e0 201C     		mov	r0, r4
 1102 01e2 FFF7FEFF 		bl	chHeapStatus
 1103              	.LVL51:
 1104 01e6 0123     		mov	r3, #1
 1105 01e8 9842     		cmp	r0, r3
 1106 01ea 07D0     		beq	.L13
 1107              		.loc 1 169 0 is_stmt 0 discriminator 2
 1108 01ec 0022     		mov	r2, #0
 1109 01ee 201C     		mov	r0, r4
 1110 01f0 02A9     		add	r1, sp, #8
 1111 01f2 FFF7FEFF 		bl	chHeapStatus
 1112              	.LVL52:
 1113 01f6 831E     		sub	r3, r0, #2
 1114 01f8 5A42     		neg	r2, r3
 1115 01fa 5341     		adc	r3, r3, r2
 1116              	.L13:
 1117              		.loc 1 169 0 discriminator 4
 1118 01fc 181C     		mov	r0, r3
 1119 01fe 311C     		mov	r1, r6
 1120 0200 FFF7FEFF 		bl	_test_assert
 1121              	.LVL53:
 1122 0204 8046     		mov	r8, r0
 1123 0206 0028     		cmp	r0, #0
 1124 0208 00D0     		beq	.LCB512
 1125 020a 13E7     		b	.L8	@long jump
 1126              	.LCB512:
 1127              		.loc 1 171 0 is_stmt 1
 1128 020c 5846     		mov	r0, fp
 1129 020e FFF7FEFF 		bl	chHeapFree
 1130              	.LVL54:
 1131              		.loc 1 172 0
 1132 0212 5046     		mov	r0, r10
 1133 0214 FFF7FEFF 		bl	chHeapFree
 1134              	.LVL55:
 1135              		.loc 1 173 0
 1136 0218 02A9     		add	r1, sp, #8
 1137 021a 4246     		mov	r2, r8
ARM GAS  /tmp/ccTRMAI7.s 			page 54


 1138 021c 201C     		mov	r0, r4
 1139 021e FFF7FEFF 		bl	chHeapStatus
 1140              	.LVL56:
 1141 0222 0138     		sub	r0, r0, #1
 1142 0224 4342     		neg	r3, r0
 1143 0226 5841     		adc	r0, r0, r3
 1144 0228 C0B2     		uxtb	r0, r0
 1145 022a 311C     		mov	r1, r6
 1146 022c FFF7FEFF 		bl	_test_assert
 1147              	.LVL57:
 1148 0230 8246     		mov	r10, r0
 1149 0232 0028     		cmp	r0, #0
 1150 0234 00D0     		beq	.LCB532
 1151 0236 FDE6     		b	.L8	@long jump
 1152              	.LCB532:
 1153              		.loc 1 178 0
 1154 0238 0823     		mov	r3, #8
 1155 023a 1A1C     		mov	r2, r3
 1156              	.LBB103:
 1157              	.LBB104:
 1158              		.loc 2 157 0
 1159 023c 1021     		mov	r1, #16
 1160 023e 201C     		mov	r0, r4
 1161              	.LBE104:
 1162              	.LBE103:
 1163              		.loc 1 178 0
 1164 0240 9846     		mov	r8, r3
 1165 0242 2B60     		str	r3, [r5]
 1166              	.LVL58:
 1167              	.LBB107:
 1168              	.LBB105:
 1169              		.loc 2 157 0
 1170 0244 FFF7FEFF 		bl	chHeapAllocAligned
 1171              	.LVL59:
 1172              	.LBE105:
 1173              	.LBE107:
 1174              	.LBB108:
 1175              	.LBB109:
 1176 0248 1021     		mov	r1, #16
 1177 024a 4246     		mov	r2, r8
 1178              	.LBE109:
 1179              	.LBE108:
 1180              	.LBB111:
 1181              	.LBB106:
 1182 024c 8346     		mov	fp, r0
 1183              	.LVL60:
 1184              	.LBE106:
 1185              	.LBE111:
 1186              	.LBB112:
 1187              	.LBB110:
 1188 024e 201C     		mov	r0, r4
 1189 0250 FFF7FEFF 		bl	chHeapAllocAligned
 1190              	.LVL61:
 1191 0254 0190     		str	r0, [sp, #4]
 1192              	.LBE110:
 1193              	.LBE112:
 1194              		.loc 1 182 0
ARM GAS  /tmp/ccTRMAI7.s 			page 55


 1195 0256 5846     		mov	r0, fp
 1196 0258 FFF7FEFF 		bl	chHeapFree
 1197              	.LVL62:
 1198              		.loc 1 183 0
 1199 025c 02A9     		add	r1, sp, #8
 1200 025e 5246     		mov	r2, r10
 1201 0260 201C     		mov	r0, r4
 1202 0262 FFF7FEFF 		bl	chHeapStatus
 1203              	.LVL63:
 1204 0266 0238     		sub	r0, r0, #2
 1205 0268 4342     		neg	r3, r0
 1206 026a 5841     		adc	r0, r0, r3
 1207 026c 4946     		mov	r1, r9
 1208 026e C0B2     		uxtb	r0, r0
 1209 0270 FFF7FEFF 		bl	_test_assert
 1210              	.LVL64:
 1211 0274 8146     		mov	r9, r0
 1212 0276 0028     		cmp	r0, #0
 1213 0278 00D0     		beq	.LCB588
 1214 027a DBE6     		b	.L8	@long jump
 1215              	.LCB588:
 1216              	.LVL65:
 1217              	.LBB113:
 1218              	.LBB114:
 1219              		.loc 2 157 0
 1220 027c 2021     		mov	r1, #32
 1221 027e 4246     		mov	r2, r8
 1222 0280 201C     		mov	r0, r4
 1223 0282 FFF7FEFF 		bl	chHeapAllocAligned
 1224              	.LVL66:
 1225              	.LBE114:
 1226              	.LBE113:
 1227              		.loc 1 185 0
 1228 0286 FFF7FEFF 		bl	chHeapFree
 1229              	.LVL67:
 1230              		.loc 1 186 0
 1231 028a 0198     		ldr	r0, [sp, #4]
 1232 028c FFF7FEFF 		bl	chHeapFree
 1233              	.LVL68:
 1234              		.loc 1 187 0
 1235 0290 4A46     		mov	r2, r9
 1236 0292 02A9     		add	r1, sp, #8
 1237 0294 201C     		mov	r0, r4
 1238 0296 FFF7FEFF 		bl	chHeapStatus
 1239              	.LVL69:
 1240 029a 0138     		sub	r0, r0, #1
 1241 029c 4342     		neg	r3, r0
 1242 029e 5841     		adc	r0, r0, r3
 1243 02a0 C0B2     		uxtb	r0, r0
 1244 02a2 311C     		mov	r1, r6
 1245 02a4 FFF7FEFF 		bl	_test_assert
 1246              	.LVL70:
 1247 02a8 021E     		sub	r2, r0, #0
 1248 02aa 00D0     		beq	.LCB618
 1249 02ac C2E6     		b	.L8	@long jump
 1250              	.LCB618:
 1251              		.loc 1 191 0
ARM GAS  /tmp/ccTRMAI7.s 			page 56


 1252 02ae 0923     		mov	r3, #9
 1253              		.loc 1 193 0
 1254 02b0 02A9     		add	r1, sp, #8
 1255 02b2 201C     		mov	r0, r4
 1256              		.loc 1 191 0
 1257 02b4 2B60     		str	r3, [r5]
 1258              		.loc 1 193 0
 1259 02b6 FFF7FEFF 		bl	chHeapStatus
 1260              	.LVL71:
 1261              	.LBB115:
 1262              	.LBB116:
 1263              		.loc 2 157 0
 1264 02ba 4246     		mov	r2, r8
 1265 02bc 0299     		ldr	r1, [sp, #8]
 1266 02be 201C     		mov	r0, r4
 1267 02c0 FFF7FEFF 		bl	chHeapAllocAligned
 1268              	.LVL72:
 1269 02c4 8046     		mov	r8, r0
 1270              	.LBE116:
 1271              	.LBE115:
 1272              		.loc 1 195 0
 1273 02c6 431E     		sub	r3, r0, #1
 1274 02c8 9841     		sbc	r0, r0, r3
 1275 02ca C0B2     		uxtb	r0, r0
 1276 02cc 391C     		mov	r1, r7
 1277 02ce FFF7FEFF 		bl	_test_assert
 1278              	.LVL73:
 1279 02d2 021E     		sub	r2, r0, #0
 1280 02d4 00D0     		beq	.LCB645
 1281 02d6 ADE6     		b	.L8	@long jump
 1282              	.LCB645:
 1283              		.loc 1 196 0
 1284 02d8 111C     		mov	r1, r2
 1285 02da 201C     		mov	r0, r4
 1286 02dc FFF7FEFF 		bl	chHeapStatus
 1287              	.LVL74:
 1288 02e0 4342     		neg	r3, r0
 1289 02e2 5841     		adc	r0, r0, r3
 1290 02e4 C0B2     		uxtb	r0, r0
 1291 02e6 1A49     		ldr	r1, .L18+32
 1292 02e8 FFF7FEFF 		bl	_test_assert
 1293              	.LVL75:
 1294 02ec 071E     		sub	r7, r0, #0
 1295 02ee 00D0     		beq	.LCB657
 1296 02f0 A0E6     		b	.L8	@long jump
 1297              	.LCB657:
 1298              		.loc 1 197 0
 1299 02f2 4046     		mov	r0, r8
 1300 02f4 FFF7FEFF 		bl	chHeapFree
 1301              	.LVL76:
 1302              		.loc 1 202 0
 1303 02f8 0A23     		mov	r3, #10
 1304              		.loc 1 204 0
 1305 02fa 02A9     		add	r1, sp, #8
 1306 02fc 201C     		mov	r0, r4
 1307 02fe 3A1C     		mov	r2, r7
 1308              		.loc 1 202 0
ARM GAS  /tmp/ccTRMAI7.s 			page 57


 1309 0300 2B60     		str	r3, [r5]
 1310              		.loc 1 204 0
 1311 0302 FFF7FEFF 		bl	chHeapStatus
 1312              	.LVL77:
 1313 0306 0138     		sub	r0, r0, #1
 1314 0308 4342     		neg	r3, r0
 1315 030a 5841     		adc	r0, r0, r3
 1316 030c C0B2     		uxtb	r0, r0
 1317 030e 311C     		mov	r1, r6
 1318 0310 FFF7FEFF 		bl	_test_assert
 1319              	.LVL78:
 1320 0314 0028     		cmp	r0, #0
 1321 0316 00D0     		beq	.LCB675
 1322 0318 8CE6     		b	.L8	@long jump
 1323              	.LCB675:
 1324              		.loc 1 205 0
 1325 031a 029B     		ldr	r3, [sp, #8]
 1326 031c 039A     		ldr	r2, [sp, #12]
 1327 031e 0D49     		ldr	r1, .L18+36
 1328 0320 981A     		sub	r0, r3, r2
 1329 0322 4342     		neg	r3, r0
 1330 0324 5841     		adc	r0, r0, r3
 1331 0326 C0B2     		uxtb	r0, r0
 1332 0328 FFF7FEFF 		bl	_test_assert
 1333              	.LVL79:
 1334 032c 82E6     		b	.L8
 1335              	.L19:
 1336 032e C046     		.align	2
 1337              	.L18:
 1338 0330 00000000 		.word	.LANCHOR0
 1339 0334 00000000 		.word	test_step
 1340 0338 2C000000 		.word	.LC8
 1341 033c 14000000 		.word	.LC4
 1342 0340 00000000 		.word	.LC2
 1343 0344 3C000000 		.word	.LC12
 1344 0348 50000000 		.word	.LC14
 1345 034c 68000000 		.word	.LC16
 1346 0350 78000000 		.word	.LC18
 1347 0354 84000000 		.word	.LC20
 1348              		.cfi_endproc
 1349              	.LFE180:
 1350              		.size	test_010_001_execute, .-test_010_001_execute
 1351 0358 C046C046 		.section	.text.test_010_001_setup,"ax",%progbits
 1351      C046C046 
 1352              		.align	2
 1353              		.p2align 4,,15
 1354              		.code	16
 1355              		.thumb_func
 1356              		.type	test_010_001_setup, %function
 1357              	test_010_001_setup:
 1358              	.LFB179:
 1359              		.loc 1 90 0
 1360              		.cfi_startproc
 1361 0000 08B5     		push	{r3, lr}
 1362              		.cfi_def_cfa_offset 8
 1363              		.cfi_offset 3, -8
 1364              		.cfi_offset 14, -4
ARM GAS  /tmp/ccTRMAI7.s 			page 58


 1365              		.loc 1 91 0
 1366 0002 CD22     		mov	r2, #205
 1367 0004 0248     		ldr	r0, .L21
 1368 0006 0349     		ldr	r1, .L21+4
 1369 0008 D200     		lsl	r2, r2, #3
 1370 000a FFF7FEFF 		bl	chHeapObjectInit
 1371              	.LVL80:
 1372              		.loc 1 92 0
 1373              		@ sp needed
 1374 000e 08BD     		pop	{r3, pc}
 1375              	.L22:
 1376              		.align	2
 1377              	.L21:
 1378 0010 00000000 		.word	.LANCHOR0
 1379 0014 00000000 		.word	test_buffer
 1380              		.cfi_endproc
 1381              	.LFE179:
 1382              		.size	test_010_001_setup, .-test_010_001_setup
 1383              		.global	test_sequence_010
 1384              		.global	test_heap
 1385 0018 C046C046 		.section	.rodata.test_sequence_010,"a",%progbits
 1385      C046C046 
 1386              		.align	2
 1387              		.type	test_sequence_010, %object
 1388              		.size	test_sequence_010, 12
 1389              	test_sequence_010:
 1390 0000 00000000 		.word	test_010_001
 1391 0004 00000000 		.word	test_010_002
 1392 0008 00000000 		.word	0
 1393              		.section	.rodata.str1.4,"aMS",%progbits,1
 1394              		.align	2
 1395              	.LC2:
 1396 0000 616C6C6F 		.ascii	"allocation failed\000"
 1396      63617469 
 1396      6F6E2066 
 1396      61696C65 
 1396      6400
 1397 0012 0000     		.space	2
 1398              	.LC4:
 1399 0014 616C6C6F 		.ascii	"allocation not failed\000"
 1399      63617469 
 1399      6F6E206E 
 1399      6F742066 
 1399      61696C65 
 1400 002a 0000     		.space	2
 1401              	.LC8:
 1402 002c 68656170 		.ascii	"heap fragmented\000"
 1402      20667261 
 1402      676D656E 
 1402      74656400 
 1403              	.LC12:
 1404 003c 6D697373 		.ascii	"missing free block\000"
 1404      696E6720 
 1404      66726565 
 1404      20626C6F 
 1404      636B00
 1405 004f 00       		.space	1
ARM GAS  /tmp/ccTRMAI7.s 			page 59


 1406              	.LC14:
 1407 0050 756E6578 		.ascii	"unexpected heap state\000"
 1407      70656374 
 1407      65642068 
 1407      65617020 
 1407      73746174 
 1408 0066 0000     		.space	2
 1409              	.LC16:
 1410 0068 696E7661 		.ascii	"invalid state\000"
 1410      6C696420 
 1410      73746174 
 1410      6500
 1411 0076 0000     		.space	2
 1412              	.LC18:
 1413 0078 6E6F7420 		.ascii	"not empty\000"
 1413      656D7074 
 1413      7900
 1414 0082 0000     		.space	2
 1415              	.LC20:
 1416 0084 73697A65 		.ascii	"size changed\000"
 1416      20636861 
 1416      6E676564 
 1416      00
 1417 0091 000000   		.space	3
 1418              	.LC24:
 1419 0094 44656661 		.ascii	"Default Heap\000"
 1419      756C7420 
 1419      48656170 
 1419      00
 1420 00a1 000000   		.space	3
 1421              	.LC25:
 1422 00a4 416C6C6F 		.ascii	"Allocation and fragmentation\000"
 1422      63617469 
 1422      6F6E2061 
 1422      6E642066 
 1422      7261676D 
 1423 00c1 000000   		.section	.rodata.test_010_001,"a",%progbits
 1424              		.align	2
 1425              		.type	test_010_001, %object
 1426              		.size	test_010_001, 16
 1427              	test_010_001:
 1428 0000 A4000000 		.word	.LC25
 1429 0004 00000000 		.word	test_010_001_setup
 1430 0008 00000000 		.word	0
 1431 000c 00000000 		.word	test_010_001_execute
 1432              		.section	.rodata.test_010_002,"a",%progbits
 1433              		.align	2
 1434              		.type	test_010_002, %object
 1435              		.size	test_010_002, 16
 1436              	test_010_002:
 1437 0000 94000000 		.word	.LC24
 1438 0004 00000000 		.word	0
 1439 0008 00000000 		.word	0
 1440 000c 00000000 		.word	test_010_002_execute
 1441              		.section	.bss.test_heap,"aw",%nobits
 1442              		.align	3
 1443              		.set	.LANCHOR0,. + 0
ARM GAS  /tmp/ccTRMAI7.s 			page 60


 1444              		.type	test_heap, %object
 1445              		.size	test_heap, 32
 1446              	test_heap:
 1447 0000 00000000 		.space	32
 1447      00000000 
 1447      00000000 
 1447      00000000 
 1447      00000000 
 1448              		.text
 1449              	.Letext0:
 1450              		.file 3 "/usr/lib/gcc/arm-none-eabi/4.8/include/stddef.h"
 1451              		.file 4 "/usr/include/newlib/machine/_default_types.h"
 1452              		.file 5 "/usr/include/newlib/stdint.h"
 1453              		.file 6 "../../../os/common/ports/ARMCMx/compilers/GCC/chtypes.h"
 1454              		.file 7 "../../../os/rt/include/chsystypes.h"
 1455              		.file 8 "../../../os/rt/include/chschd.h"
 1456              		.file 9 "../../../os/common/ports/ARMCMx/chcore.h"
 1457              		.file 10 "../../../os/common/ports/ARMCMx/chcore_v6m.h"
 1458              		.file 11 "../../../os/rt/include/chsem.h"
 1459              		.file 12 "../../../os/rt/include/chmtx.h"
 1460              		.file 13 "../../../os/common/oslib/include/chmemcore.h"
 1461              		.file 14 "../../../test/lib/ch_test.h"
 1462              		.file 15 "../../../test/rt/source/test/test_root.h"