ARM GAS  /tmp/ccnQIHsC.s 			page 1


   1              		.cpu cortex-m0
   2              		.fpu softvfp
   3              		.eabi_attribute 20, 1
   4              		.eabi_attribute 21, 1
   5              		.eabi_attribute 23, 3
   6              		.eabi_attribute 24, 1
   7              		.eabi_attribute 25, 1
   8              		.eabi_attribute 26, 1
   9              		.eabi_attribute 30, 2
  10              		.eabi_attribute 34, 0
  11              		.eabi_attribute 18, 4
  12              		.code	16
  13              		.file	"test_sequence_006.c"
  14              		.text
  15              	.Ltext0:
  16              		.section	.gnu.lto_.jmpfuncs.454ad8d28d90c14,"",%progbits
  17 0000 789C6362 		.ascii	"x\234cb`b\300\006\326\000\261\004\020\003e\231\230\252"
  17      6062C006 
  17      D600B104 
  17      10036599 
  17      98AA
  18 0012 197E35CC 		.ascii	"\031~5\314h\020\310dd\220c`\234\3330\303!\223\221\021"
  18      6810C864 
  18      64906360 
  18      9CDB30C3 
  18      21939111 
  19 0026 AC0A21C3 		.ascii	"\254\012!\303$\307\300\016\221a\206\030\300\310\000"
  19      24C7C00E 
  19      91618618 
  19      C0C800
  20 0035 359915C8 		.ascii	"5\231\025\310\210`\314dd9\301\004\327\322\001\322\302"
  20      8860CC64 
  20      6439C104 
  20      D7D201D2 
  20      C2
  21 0046 9ACC08B5 		.ascii	"\232\314\010\265\214\205\221\011\244\253\014\252\222"
  21      8C859109 
  21      A4AB0CAA 
  21      92
  22 0053 CD05C840 		.ascii	"\315\005\310@\021pF\027pB\027p\004\331\344\350\344\354"
  22      11704617 
  22      70421770 
  22      04D9E4E8 
  22      E4EC
  23 0065 C2209899 		.ascii	"\302 \230\231W\226\230\223\231\242P\234ZX\232\232\227"
  23      57969893 
  23      99A2509C 
  23      5A589A9A 
  23      97
  24 0076 9CCA0000 		.ascii	"\234\312\000\000\333\023 \013"
  24      DB13200B 
  25              		.text
  26              		.section	.gnu.lto_.inline.454ad8d28d90c14,"",%progbits
  27 0000 789C6362 		.ascii	"x\234cb`b\300\006\312\2414PV\341$##\003\223\330\205"
  27      6062C006 
  27      CAA13450 
  27      56E12423 
ARM GAS  /tmp/ccnQIHsC.s 			page 2


  27      230393D8 
  28 0015 366606B6 		.ascii	"6f\006\266\005\362`\345\314<`\031F.\220\012nF\006\306"
  28      05F260E5 
  28      CC3C6019 
  28      462E900A 
  28      6E4606C6 
  29 0029 097ECC3C 		.ascii	"\011~\314<@E\023\374&\370\201\370\014\354\002\014\014"
  29      404513FC 
  29      26F881F8 
  29      0CEC020C 
  29      0C
  30 003a AC13FC18 		.ascii	"\254\023\374\030\300\210\205\201\337\210\021l\017\212"
  30      C0888581 
  30      DF88116C 
  30      0F8A
  31 0048 7EA01C2E 		.ascii	"~\240\034.\232\001\000ot\016\007"
  31      9A01006F 
  31      740E07
  32              		.text
  33              		.section	.gnu.lto_.pureconst.454ad8d28d90c14,"",%progbits
  34 0000 789C6362 		.ascii	"x\234cb`b`e\200\000&\006I\026\011\000\001\007\000A"
  34      60626065 
  34      80002606 
  34      49160900 
  34      01070041 
  35              		.text
  36              		.section	.gnu.lto_test_006_001_execute.454ad8d28d90c14,"",%progbits
  37 0000 789C9554 		.ascii	"x\234\225T\335k\024W\024?\347\316\314f\263\331t\263"
  37      DD6B1457 
  37      143FE7CE 
  37      CC66B3D9 
  37      74B3
  38 0012 9A686235 		.ascii	"\232hb5\2111\276T\334\265 \225\200H\265\376\011\012"
  38      8931BE54 
  38      DCB52095 
  38      8048B5FE 
  38      090A
  39 0024 ED936C27 		.ascii	"\355\223l'\313f \0335\273\351\213\017\336dc\365\301"
  39      CB66201B 
  39      35BBE98B 
  39      0FDE6463 
  39      F5C1
  40 0036 B68BBE44 		.ascii	"\266\213\276D\245\220\030\022\241\212V\213(\305\217"
  40      A5901812 
  40      A18A568B 
  40      28C58F
  41 0045 9580AC44 		.ascii	"\225\200\254D\215yPT\012]\214\264b\241\210/)U\232\236"
  41      8D795054 
  41      0A5D8CB4 
  41      62A1882F 
  41      29559A9E 
  42 0059 73EFDC31 		.ascii	"s\357\33416~\320a\367\316\231s\316\357w\317\307=W\200"
  42      367ED061 
  42      F7CE9973 
  42      CEEF77CF 
  42      C73D5780 
  43 006d 80FF3E1B 		.ascii	"\200\377>\033\351\277(\0040Do\014\001\212\342m\200\376"
ARM GAS  /tmp/ccnQIHsC.s 			page 3


  43      E9BF2804 
  43      30446F0C 
  43      018AE26D 
  43      80FE
  44 007f B0405B0B 		.ascii	"\260@[\013\226\026\256\205ma\2256\201\2148wb \243\016"
  44      9616AE85 
  44      6D619536 
  44      818C3877 
  44      6220A30E 
  45 0093 22AB0161 		.ascii	"\"\253\001a\257\260l\007\367~\201\314&\332`D\312C\225"
  45      AFB06C07 
  45      F77E81CC 
  45      26DA6044 
  45      CA4395
  46 00a6 B1DF9FE0 		.ascii	"\261\337\237\340\021Y\032\034\226/\347\346\020=\244"
  46      11591A1C 
  46      962FE7E6 
  46      103DA4
  47 00b5 9DD723B8 		.ascii	"\235\327#\270\010\237\323\007\266\252\227\260_\017E"
  47      089FD307 
  47      B6AA97B0 
  47      5F0F45
  48 00c4 634BB35F 		.ascii	"cK\263_\177\327$\207\007\212\362\037\202zh\011\330\360"
  48      7FD72487 
  48      078AF21F 
  48      827A6809 
  48      D8F0
  49 00d6 3EE41951 		.ascii	">\344\031Q\252\314\315\335\374\251\362\3506\306\227"
  49      AACCCDDD 
  49      FCA9F2E8 
  49      36C697
  50 00e5 20A47014 		.ascii	" \244p\024\333\300\001\017\355\020-N\230\026\210\222"
  50      DBC0010F 
  50      ED102D4E 
  50      98168892 
  51 00f5 7A84D4B5 		.ascii	"z\204\324\265\364\021\212\321R\025\367\035\353\331\334"
  51      F4118AD1 
  51      5215F71D 
  51      EBD9DC
  52 0104 404B98B8 		.ascii	"@K\230\270\034\030\224\262\330\252}UH\305\322\345\353"
  52      1C1894B2 
  52      D8AA7D55 
  52      48C5D2E5 
  52      EB
  53 0115 07E78754 		.ascii	"\007\347\207T-\240\343}!\001\333\351\331F+Ul;\012zY"
  53      2DA0E37D 
  53      2101DBE9 
  53      D9462B55 
  53      6C3B0A7A 
  54 012a B760E0E2 		.ascii	"\267`\340\342\305\247\215)\034C\007\216\301\321~)\353"
  54      C5A78D29 
  54      1C43078E 
  54      C1D17E29 
  54      EB
  55 013b 28C53DF0 		.ascii	"(\305=\360\267<\300R$\253@L\030\001#Y\254#\344/\177"
  55      B73CC052 
  55      24AB404C 
ARM GAS  /tmp/ccnQIHsC.s 			page 4


  55      18012359 
  55      AC23E42F 
  56 0150 3DBD6F6B 		.ascii	"=\275okh\006\235\265p\212\0215\314Rd)\312,C,\325f\021"
  56      68069DB5 
  56      708A1135 
  56      CC526429 
  56      CA2C432C 
  57 0167 7D6C6DC0 		.ascii	"}lm\300\362\301\274\320\210\354\341\245_\357\255\367"
  57      F2C1BCD0 
  57      88ECE1A5 
  57      5FEFADF7 
  58 0177 733549CB 		.ascii	"s5I\313\223\343\311\240\000F(M\336\235\216\023\235\336"
  58      93E3C9A0 
  58      0046284D 
  58      DE9D8E13 
  58      9DDE
  59 0189 D855CCF4 		.ascii	"\330U\314\364R')\203\365k\340\007)e\345\305\371\261"
  59      52272983 
  59      F56BE007 
  59      2965E5C5 
  59      F9B1
  60 019b 8FA888FA 		.ascii	"\217\250\210\372Kvx\030\013\262\253\013\262\213g\025"
  60      4B767818 
  60      0BB2AB0B 
  60      B28B6715 
  61 01ab 8CA389AB 		.ascii	"\214\243\211\2538\276d\262\024\236&b\2221\220u\204\367"
  61      38BE64B2 
  61      149E2662 
  61      92319075 
  61      84F7
  62 01bd CF2D4BE1 		.ascii	"\317-K\341\031\225m\203O\234\243\036\005\304\213h{\346"
  62      19956D83 
  62      4F9CA31E 
  62      05C48B68 
  62      7BE6
  63 01cf 029F4B30 		.ascii	"\002\237K0\376G\203/\034\230\230\274{\266\332\324+D"
  63      FE47832F 
  63      1C9898BC 
  63      7BB6DAD4 
  63      2B44
  64 01e1 24ECECB0 		.ascii	"$\354\354\260\373\0244\032}8\210n\261\213\026\350\254"
  64      FB14341A 
  64      7D38886E 
  64      B18B16E8 
  64      AC
  65 01f2 1C55F6B2 		.ascii	"\034U\366\262`\034\333\303\036\326\273\350\327\236\263"
  65      601CDBC3 
  65      1ED6BBE8 
  65      D79EB3
  66 0201 F6B041C5 		.ascii	"\366\260A\305x\243\030\321J\356\206N\374U[\227\004\324"
  66      78A318D1 
  66      4AEE864E 
  66      FC555B97 
  66      04D4
  67 0213 4BB38A9A 		.ascii	"K\263\212\232Y\227\276\241!\031>x\352h\374\371\177\217"
  67      5997BEA1 
  67      21193E78 
ARM GAS  /tmp/ccnQIHsC.s 			page 5


  67      EA68FCF9 
  67      7F8F
  68 0225 06D7F306 		.ascii	"\006\327\363\006\014T.\027\252\202\203\313G\332\364"
  68      0C542E17 
  68      AA8283CB 
  68      47DAF4
  69 0234 4B09AC50 		.ascii	"K\011\254P\336f\303\355$\2266YSP\250\\\231\010\245\360"
  69      DE66C3ED 
  69      24963659 
  69      5350A85C 
  69      9908A5F0 
  70 0248 8A2A4534 		.ascii	"\212*E4\330\253\321\325P\032\211&\346\027\332E\317\004"
  70      D8ABD1D5 
  70      501A8926 
  70      E617DA45 
  70      CF04
  71 025a 39AA687F 		.ascii	"9\252h\177\3367{p\005\007_K\321\362T\220A\265\243]o"
  71      DE377B70 
  71      05075F4B 
  71      D1F25490 
  71      41B5A35D 
  72 026f C2615D9D 		.ascii	"\302a]\235\361\331\263h+\034)\303f\322+\207\367?\236"
  72      F1D9B368 
  72      2B1C29C3 
  72      66D22B87 
  72      F73F9E
  73 0282 C6430559 		.ascii	"\306C\005Y\226\203%\032\254\026\217'\3678\365\361\335"
  73      9683251A 
  73      AC168F27 
  73      F738F5F1 
  73      DD
  74 0293 A3455C8A 		.ascii	"\243E\\\212\350\331\363\013\335&\260q\2253wv_\245<\023"
  74      E8D9F30B 
  74      DD26B071 
  74      95337776 
  74      5FA53C13 
  75 02a7 D16A8020 		.ascii	"\321j\200 \243e.]n\272\326Q\212\330\303\017U\016\177"
  75      A3652E5D 
  75      6EBAD651 
  75      8AD8C30F 
  75      550E7F
  76 02ba 144E7C9B 		.ascii	"\024N|\2330\371\3072<.S`/@/w\261\312G\307<\\\241\217"
  76      30F9C732 
  76      3C2E5360 
  76      2F402F77 
  76      B1CA47C7 
  77 02d2 5761F69B 		.ascii	"Wa\366\233\016\003\215g\020\203Q\235W\257QU\257\270"
  77      0E038D67 
  77      1083519D 
  77      57AF5155 
  77      AFB8
  78 02e4 A9BA0D74 		.ascii	"\251\272\015tiZ\272\006\306H\2102\014\376\326_c\270"
  78      695ABA06 
  78      C6488832 
  78      0CFED65F 
  78      63B8
  79 02f6 3451D02B 		.ascii	"4Q\320+x\000\3507O\224-\"\263\206\252\230\313\341\373"
ARM GAS  /tmp/ccnQIHsC.s 			page 6


  79      7800E837 
  79      4F942D22 
  79      B386AA98 
  79      CBE1FB
  80 0309 843B3839 		.ascii	"\204;89Q\263 \340fW\335e\334\300\026]\224\233\243\270"
  80      51B320E0 
  80      6657DD65 
  80      DCC0165D 
  80      949BA3B8 
  81 031d C0ABD5C5 		.ascii	"\300\253\325\305j\345\305\232F\017W6C?~/\207>\365(2"
  81      6AE5C59A 
  81      460F5736 
  81      433F7E2F 
  81      873EF528 
  82 0332 DFDB37AD 		.ascii	"\337\3337\255j\206\375\276\251\335\230<\\\0150\015\001"
  82      6A86FDBE 
  82      A9DD983C 
  82      5C0D300D 
  82      01
  83 0343 AF7EB651 		.ascii	"\257~\266QFwb|.?N$\222\372\227O\347\362\311\336|2\267"
  83      4677627C 
  83      2E3F4E24 
  83      92FA974F 
  83      E7F2C9DE 
  84 035a B3AFD74D 		.ascii	"\263\257\327M\353O^v\344\322\273\373\322=nz\307\272"
  84      EB4F5E76 
  84      E4D2BBFB 
  84      D23D6E7A 
  84      C7BA
  85 036c 759F245C 		.ascii	"u\237$\\\020\371]\350Y\331\\fU\000\335\231c\240\327"
  85      10F95DE8 
  85      59D95C66 
  85      5500DD99 
  85      63A0D7
  86 037f E376F775 		.ascii	"\343v\367u\246\223nW\276\2537\235\352\314%\272\240\345"
  86      A6936E57 
  86      BEAB379D 
  86      EACC25BA 
  86      A0E5
  87 0391 AD3E4440 		.ascii	"\255>D@vg\363\226\317\266B\334\353\371*\325\355u\266"
  87      7667F396 
  87      CFB642DC 
  87      EBF92AD5 
  87      ED75B6
  88 03a4 9AADE05F 		.ascii	"\232\255\340_\244\010\231\300"
  88      A40899C0 
  89              		.text
  90              		.section	.gnu.lto_msg_thread1.454ad8d28d90c14,"",%progbits
  91 0000 789C6362 		.ascii	"x\234cb`b@\007\222@,\304\310\300`\014\244\031\231\031"
  91      60624007 
  91      92402CC4 
  91      C8C0600C 
  91      A4199919 
  92 0014 1899269C 		.ascii	"\030\231&\234c`h\344`bd\0041\030\030\031\352\231\030"
  92      636068E4 
  92      60626404 
  92      31181819 
ARM GAS  /tmp/ccnQIHsC.s 			page 7


  92      EA9918
  93 0027 EB2319C1 		.ascii	"\353#\031\301j\3273\035x\360\377\377\272+[\037U0\262"
  93      6AD7331D 
  93      78F0FFFF 
  93      BA2B5B1F 
  93      5530B2
  94 003a 3331E682 		.ascii	"31\346\202EY\031Z\032\032&(00$\203\271!@\022\2443\224"
  94      4559195A 
  94      1A1A2628 
  94      30302483 
  94      B9214012 
  95 0051 91094433 		.ascii	"\221\011D3\237gh}\360\306\"\221q!#+P\266\232\341WCG"
  95      9F67687D 
  95      F0C62291 
  95      7121232B 
  95      50B69AE1 
  96 0068 83402623 		.ascii	"\203@&#P5\304\314tF\246\010\306LFFG\206L\240\016\006"
  96      5035C4CC 
  96      7446A608 
  96      C64C4646 
  96      47864CA0 
  97 007e A0F205B9 		.ascii	"\240\362\005\271\204U;!T\347\021V\355\214P\235OX\265"
  97      84553B21 
  97      54E71156 
  97      ED8C509D 
  97      4F58B5
  98 0091 0B44F545 		.ascii	"\013D\365E\206\306\007?\230`\312! \004\250\024\350)"
  98      86C6073F 
  98      9860CA21 
  98      2004A814 
  98      E829
  99 00a3 50281AEA 		.ascii	"P(\032\352\351\351CPIjq\211~Q\211~q~iQr*\204\013\"\342"
  99      E9E94350 
  99      496A7189 
  99      7E51897E 
  99      717E6951 
 100 00bd 8B530B4B 		.ascii	"\213S\013KS\363\222S\343\015\014\314\364\222\031\000"
 100      53F39253 
 100      E30D0CCC 
 100      F4921900 
 101 00cd 7CCA4F64 		.ascii	"|\312Od"
 102              		.text
 103              		.section	.gnu.lto_.symbol_nodes.454ad8d28d90c14,"",%progbits
 104 0000 789C4DCA 		.ascii	"x\234M\312K\016\001A\024\205\341s\352A{n\301\332l\304"
 104      4B0E0141 
 104      1485E173 
 104      EA417B6E 
 104      C1DA6CC4 
 105 0014 ED444230 		.ascii	"\355DB0\261\000\263Z\002\355\375L\317\255\201\264\241"
 105      B100B35A 
 105      02EDFD4C 
 105      CFAD81B4 
 105      A1
 106 0025 2588A88A 		.ascii	"%\210\250\212\216R\223\257\376\334\243\240\360B\371"
 106      8E5293AF 
 106      FEDCA3A0 
 106      F042F9
ARM GAS  /tmp/ccnQIHsC.s 			page 8


 107 0034 D482424C 		.ascii	"\324\202BL\257\200\310l\324\265+\372\037\354\232\014"
 107      AF80C86C 
 107      D4B52BFA 
 107      1FEC9A0C 
 108 0044 5CA83C6A 		.ascii	"\\\250<jN\301\337fK\035\216K\032\353\311h\215h\236("
 108      4EC1DF66 
 108      4B1D8E4B 
 108      1AEBC968 
 108      8D689E28 
 109 0058 EABB4953 		.ascii	"\352\273IS\362H\321\261\016\024\023kO\261\261v\224J"
 109      F248D1B1 
 109      0E14136B 
 109      4FB1B176 
 109      944A
 110 006a AC0DA51A 		.ascii	"\254\015\245\032\353LI~\245\321\202\273\277\275M\270"
 110      EB4C497E 
 110      A5D182BB 
 110      BFBD4DB8 
 111 007a C1A3A7D1 		.ascii	"\301\243\247\321@1\014\326\341\306\301\032\362\311\263"
 111      40310CD6 
 111      E1C6C11A 
 111      F2C9B3
 112 0089 A391A008 		.ascii	"\243\221\240\010\2326\3727\277\367\272\322\274\264\360"
 112      9A36FA37 
 112      BFF7BAD2 
 112      BCB4F0
 113 0098 E203DF7C 		.ascii	"\342\003\337|I\315"
 113      49CD
 114              		.text
 115              		.section	.gnu.lto_.refs.454ad8d28d90c14,"",%progbits
 116 0000 789C6362 		.ascii	"x\234cb`b\020g\200\0006\006FF \227\231\211\205\221\225"
 116      60621067 
 116      80003606 
 116      46462097 
 116      99898591 
 117 0015 9191918D 		.ascii	"\221\221\221\215\211\235\221\235\211\201\001\000\005"
 117      899D919D 
 117      89810100 
 117      05
 118 0022 C70051   		.ascii	"\307\000Q"
 119              		.text
 120              		.section	.gnu.lto_.decls.454ad8d28d90c14,"",%progbits
 121 0000 789CBD5B 		.ascii	"x\234\275[}t\024U\226\257W\335\235\356&\341K\305\003"
 121      7D741455 
 121      96AF57DD 
 121      9DEE26E1 
 121      4BC503
 122 0013 E7A0C65D 		.ascii	"\347\240\306]gW\335\225\300\256\3132s\216#\263\3549"
 122      6757DD95 
 122      C0AECB32 
 122      738E23B3 
 122      EC39
 123 0025 EE1FEB9E 		.ascii	"\356\037\353\236=\343\316Y\377\353):E\2225\351\356\251"
 123      3DE3CE59 
 123      FFEB293A 
 123      459235E9 
 123      EEA9
ARM GAS  /tmp/ccnQIHsC.s 			page 9


 124 0037 AEF0B1FB 		.ascii	"\256\360\261\373\207\225\200\001uV\363\301G\022H\014"
 124      87958001 
 124      7556F3C1 
 124      4712480C 
 125 0047 020A4141 		.ascii	"\002\012AA\020\011\210`G\031\022\001\3037a\211\2040"
 125      10098860 
 125      47191201 
 125      C3376189 
 125      8430
 126 0059 8A045819 		.ascii	"\212\004X\031\030`A@\262\367\335WU]U]\325]\025\326\355"
 126      18604140 
 126      B2F7DD57 
 126      555D555D 
 126      D55D15D6 
 127 006e 93F7525D 		.ascii	"\223\367R]\365\356\357\335\373\356\307\273\357\275j"
 127      F5EEEFDD 
 127      FBEEC7BB 
 127      EFBD6A
 128 007d 9EE3B92D 		.ascii	"\236\343\271-\204\343\206\340\263\373\031\216\333\235"
 128      84E386E0 
 128      B3FB198E 
 128      DB9D
 129 008b C7713E8E 		.ascii	"\307q>\216\343~\016%\010e%\224\267\241\274\013e-\224"
 129      E37E0E25 
 129      08652594 
 129      B7A1BC0B 
 129      652D94
 130 009e 00947628 		.ascii	"\000\224v(\0338\366\011C\351\200\362\011\224\024\224"
 130      1B38F609 
 130      43E980F2 
 130      09941494 
 131 00ae 7D50BE84 		.ascii	"}P\276\204r\010\312\313\200[\015\245\026\012\300rK\340"
 131      7208CACB 
 131      805B0DA5 
 131      160AC072 
 131      4BE0
 132 00c0 FF32282B 		.ascii	"\3772(+\240\014B\271\010\305\307s\246\017\305\3713("
 132      A00C42B9 
 132      08C5C773 
 132      A60FC5F9 
 132      3328
 133 00d2 47A18C82 		.ascii	"G\241\214\202R\240\366\371\254\312\017\305Y\005eP\345"
 133      52A0F6F9 
 133      ACCA0FC5 
 133      59056550 
 133      E5
 134 00e3 A100E89B 		.ascii	"\241\000\350\233\000\247\021\312H\270\366\303\275\325"
 134      00A711CA 
 134      48B8F6C3 
 134      BDD5
 135 00f1 70DD0265 		.ascii	"p\335\002e\024|?\006\337G\363\214\347\371p\357<\224"
 135      147C3F06 
 135      DF47F38C 
 135      E7F970EF 
 135      3C94
 136 0103 31F07D2C 		.ascii	"1\360},\024\005\256\357\203\377\207\341\331\375\360"
 136      1405AEEF 
ARM GAS  /tmp/ccnQIHsC.s 			page 10


 136      83FF87E1 
 136      D9FDF0
 137 0112 BF07FE5F 		.ascii	"\277\007\376_\207{;\341\377\003|\246\354\235\034\033"
 137      877B3BE1 
 137      FF037CA6 
 137      EC9D1C1B 
 138 0122 9B55D066 		.ascii	"\233U\320f#\224sp=B\345y\034\264\237\3003y;T\331\017"
 138      23947370 
 138      3D42E579 
 138      1CB49FC0 
 138      33793B54 
 139 0138 A963B14F 		.ascii	"\251c\261O\035\233\200\315\030L\264\310\337\241\366"
 139      1D9B80CD 
 139      184CB4C8 
 139      DFA1F6
 140 0147 F110CFE4 		.ascii	"\361\020\317\344\253#\354>\257>\243cIom7\223q\371\334"
 140      AB23EC3E 
 140      AF3EA363 
 140      496F6D37 
 140      9371F9DC 
 141 015b 6B8A52AD 		.ascii	"k\212R\255\264\325(\377\320=j,W\253\300\247\260qT\230"
 141      B4D528FF 
 141      D03D6A2C 
 141      57ABC0A7 
 141      B0715498 
 142 016f 5B446F0F 		.ascii	"[Do\017\254Q\306\217\347\270\027\211@\340V\010/\012"
 142      AC51C68F 
 142      E7B81789 
 142      40E05608 
 142      2F0A
 143 0181 C208F413 		.ascii	"\302\010\364\023n54\205\366\274@V\2210t\304\023\316"
 143      6E353485 
 143      F6BC4056 
 143      913074C4 
 143      13CE
 144 0193 F6C39ED3 		.ascii	"\366\303\236\323\017%g\327\332\325\020\321\321\037\327"
 144      0F2567D7 
 144      DAD510D1 
 144      D11FD7
 145 01a2 D0032AD5 		.ascii	"\320\003*\325\333d\254j*\213(W\214El\241R\024j\024~"
 145      DB64AC6A 
 145      2A8B2857 
 145      8C456CA1 
 145      52146A14 
 146 01b7 95E21D43 		.ascii	"\225\342\035C?\005\341\364\205_\345\304\211n%\311\317"
 146      3F05E1F4 
 146      855FE5C4 
 146      896E25C9 
 146      CF
 147 01c8 311E8C5B 		.ascii	"1\036\214[\225~\021\321\000\306\252\000k=\263\272\316"
 147      957E11D1 
 147      00C6AA00 
 147      6B3DB3BA 
 147      CE
 148 01d9 81D53139 		.ascii	"\201\32519X}\327\201\325\007\271%j\317\012\221\005\362"
 148      587DD781 
 148      D507B925 
ARM GAS  /tmp/ccnQIHsC.s 			page 11


 148      6ACF0A91 
 148      05F2
 149 01eb F3718E08 		.ascii	"\363q\216\010\353\311\203x\345C\333\200\033\317\346"
 149      EBC98378 
 149      E543DB80 
 149      1BCFE6
 150 01fa 43F52B9F 		.ascii	"C\365+\237\256/'\302v\350\372In\035\323\372\357m\224"
 150      AE2F27C2 
 150      76E8FA49 
 150      6E1DD3FA 
 150      EF6D94
 151 020d 6D92DE1E 		.ascii	"m\222\336\036\007\255\246v`\347\352\337>\243(!\201l"
 151      07ADA676 
 151      60E7EADF 
 151      3EA32821 
 151      816C
 152 021f 40CB798E 		.ascii	"@\313y\216\000\374\373\344I\2578m;\366\214S\374\002"
 152      00FCFBE4 
 152      49AF386D 
 152      3BF68C53 
 152      FC02
 153 0231 D984282F 		.ascii	"\331\204(/\015\023e\240\267\353\323i\310\315\026\304"
 153      0D1365A0 
 153      B7EBD369 
 153      C8CD16C4 
 154 0241 5949CC40 		.ascii	"YI\314@\002\311\013\233\355\031\276k\015(\032|\245="
 154      02C90B9B 
 154      ED19BE6B 
 154      0D281A7C 
 154      A53D
 155 0253 DDA4B190 		.ascii	"\335\244\261\220\274\254\336\241_\202\334\377;\335#"
 155      BCACDEA1 
 155      5F82DCFF 
 155      3BDD23
 156 0262 5CAB92BA 		.ascii	"\\\253\222\272<\320\361\372G\343\233\224\324\002eh\350"
 156      3CD0F1FA 
 156      47E39B94 
 156      D4026568 
 156      E8
 157 0273 6555E73C 		.ascii	"eU\347<w\312\"\330c\334*E\251W6+J\030\255\200\207(G"
 157      77CA22D8 
 157      63DC2A45 
 157      A957362B 
 157      4A18AD80 
 158 028a 5B749047 		.ascii	"[t\220Gl\207\013\033q4\316\256\241\375+k\025\037Z\032"
 158      6C870B1B 
 158      7134CEAE 
 158      A1FD2B6B 
 158      151F5A1A 
 159 029e A7D29878 		.ascii	"\247\322\230x\336FL\021\212\361\225\332\276\347\215"
 159      DE464C11 
 159      8AF195DA 
 159      BEE78D
 160 02ad 094A5B75 		.ascii	"\011J[ujh\350Y\316\275\311\356TM6m\246<L\002fa\354\331"
 160      6A68E859 
 160      CEBDC9EE 
 160      544D366D 
ARM GAS  /tmp/ccnQIHsC.s 			page 12


 160      A63C4C02 
 161 02c5 FAC4CAD6 		.ascii	"\372\304\312\326\256L\266\006j\007\352\016\237\253&"
 161      AE4CB606 
 161      6A07EA0E 
 161      9FAB26
 162 02d4 75F3DBBA 		.ascii	"u\363\333\272\225\313CC\243\315\234\205\270\205\030"
 162      95CB4343 
 162      A3CD9C85 
 162      B88518
 163 02e3 0A5F51AA 		.ascii	"\012_Q\252\310or\307\302\317H\010\270kq\016\206\264"
 163      C86F72C7 
 163      C2CF4808 
 163      B86B710E 
 163      86B4
 164 02f5 01A76A92 		.ascii	"\001\247j\222]kW\304\331\367:\315Nkr}Sl\312\240\334"
 164      5D6B57C4 
 164      D9F73ACD 
 164      4E6B727D 
 164      536CCAA0 
 165 030a 930E1876 		.ascii	"\223\016\030v\304z\240O\215o\034e/\235@V\223\237\270"
 165      C47AA04F 
 165      8D6F1C65 
 165      2F9D4056 
 165      939FB8
 166 031d 8DE219FD 		.ascii	"\215\342\031\375w\247\3737i\020\225\270\212\267*\221"
 166      77A7FB37 
 166      691095B8 
 166      8AB72A91 
 167 032d 35DA6BAB 		.ascii	"5\332k\253\245\253G\372\205&\3453\315\250w\242Q\177"
 167      A5AB47FA 
 167      8526E533 
 167      CDA877A2 
 167      517F
 168 033f ED00B1DF 		.ascii	"\355\000\261\337^\321\365\177pTtV\023\354\261FM*\267"
 168      5ED1F57F 
 168      70547456 
 168      13ECB146 
 168      4D2AB7
 169 0352 459AEB0E 		.ascii	"E\232\353\016\254\034\264e\245\271\371\323\011\312J"
 169      AC1CB465 
 169      A5B9F9D3 
 169      09CA4A
 170 0361 AFAE7038 		.ascii	"\257\256p8\213!\334\307\325\341te\010wm~\015\340\357"
 170      8B21DCC7 
 170      D5E17465 
 170      08776D7E 
 170      0DE0EF
 171 0374 393DDE2D 		.ascii	"9=\336-\357\373\364g\030\357\216\221\373\000f\257\317"
 171      EFFBF467 
 171      18EF8E91 
 171      FB0066AF 
 171      CF
 172 0385 CC764E18 		.ascii	"\314vN\030\236;\202$'\200\234\0212\007\030\270\335z"
 172      9E3B8224 
 172      27809C11 
 172      320718B8 
 172      DD7A
ARM GAS  /tmp/ccnQIHsC.s 			page 13


 173 0397 AA9A5481 		.ascii	"\252\232T\201\014\354\031g3\032\352\347Q\256\015\010"
 173      0CEC1967 
 173      331AEAE7 
 173      51AE0D08 
 174 03a7 5237F6AE 		.ascii	"R7\366\256 J\333g\304\246\313\351Z\217!\003\343\313"
 174      204ADB67 
 174      C4A6CBE9 
 174      5A8F2103 
 174      E3CB
 175 03b9 8FD69105 		.ascii	"\217\326\221\005\210\377\025\262~\327\236\365\266\351"
 175      88FF15B2 
 175      7ED79EF5 
 175      B6E9
 176 03c7 4E403CF7 		.ascii	"N@<\367\206\237\222\234\316`\275\377\200\306\372i\027"
 176      869F929C 
 176      CE60BDFF 
 176      80C6FA69 
 176      17
 177 03d8 AC57A70E 		.ascii	"\254W\247\016\275\3262\201\262.\220\243\204\206\316"
 177      BDD63281 
 177      B22E90A3 
 177      8486CE
 178 03e7 B7745C3B 		.ascii	"\267t\\;\325\351\323<\307\351\214\231\361\016\357-\250"
 178      D5E9D33C 
 178      C7E98C99 
 178      F10EEF2D 
 178      A8
 179 03f8 1534B0D5 		.ascii	"\0254\260\325\236\301\012\355X\325\0140-\255@\316\240"
 179      9EC10AED 
 179      58D50C30 
 179      2DAD40CE 
 179      A0
 180 0409 2FFF9E3C 		.ascii	"/\377\236<\012\3657P\353\037\236[\347\327\264j7t\271"
 180      0AF53750 
 180      EB1F9E5B 
 180      E7D7B46A 
 180      3774B9
 181 041c 45F87EEF 		.ascii	"E\370~\357\012\034\0225\246\270\311\003\332\324<`\020"
 181      0A1C1235 
 181      A6B8C903 
 181      DAD43C60 
 181      10
 182 042d 67DE8D7E 		.ascii	"g\336\215~\233)\334\025\320\216\232\337u\222jT\337E"
 182      9B29DC15 
 182      D08E9ADF 
 182      75926A54 
 182      DF45
 183 043f 84EA1836 		.ascii	"\204\352\0306To\327\356:2\037\241.!T\312o\315\007\202"
 183      546FD7EE 
 183      3A321FA1 
 183      2E2154CA 
 183      6FCD0782 
 184 0453 967C2068 		.ascii	"\226| h\236\237\203\341\364\005\235\226Gs?rs\236\333"
 184      9E9F83E1 
 184      F4059D96 
 184      47733F72 
 184      739EDB
ARM GAS  /tmp/ccnQIHsC.s 			page 14


 185 0466 67559D9D 		.ascii	"gU\235\235\301\244\347\035\213\352\224\201[\375\375"
 185      C1A4E71D 
 185      8BEA9481 
 185      5BFDFD
 186 0475 3CCD177C 		.ascii	"<\315\027|\232\007\3459\215\022\317\035\304\276\256"
 186      9A07E539 
 186      8D12CF1D 
 186      C4BEAE
 187 0484 6678D0B7 		.ascii	"fx\320\267\335O4*\312\030\366(\267\003}\264w\031ZK\316"
 187      DD4F342A 
 187      CA18F628 
 187      B7037DB4 
 187      77195A4B 
 188 0499 10C66BDD 		.ascii	"\020\306k\335?\206\335/\014\320\356oZ\273\357\275pb"
 188      3F86DD2F 
 188      0CD0EE6F 
 188      5ABBEFBD 
 188      7062
 189 04ab 1AEBFEA6 		.ascii	"\032\353\376\246\253\356\233z\026gv\357\030zU\333\270"
 189      ABEE9B7A 
 189      166776EF 
 189      187A55DB 
 189      B8
 190 04bc FDEDE0C4 		.ascii	"\375\355\340\304\267\260\223;\350\247\235\001\253i<"
 190      B7B0933B 
 190      E8A79D01 
 190      AB693C
 191 04cb 6B9CEDB4 		.ascii	"k\234\355\264\344Zo\000\301V\347~Xa\002\304\034\234"
 191      E45A6F00 
 191      C156E77E 
 191      586102C4 
 191      1C9C
 192 04dd B60E32B6 		.ascii	"\266\0162\266W\3634\036\276\364\214Xh\032\210\025=\030"
 192      57F3341E 
 192      BEF48C58 
 192      681A8815 
 192      3D18
 193 04ef 7818D841 		.ascii	"x\030\330A7`\216vT\235j5\202\035\365\014f\346\354\003"
 193      37608E76 
 193      549D6A35 
 193      821DF50C 
 193      66E6EC03 
 194 0503 23D80937 		.ascii	"#\330\0117`c\2349\333l\004\353\363\014f\346l\213\021"
 194      60639C39 
 194      DB6C04EB 
 194      F30C66E6 
 194      6C8B11
 195 0516 ACDF0DD8 		.ascii	"\254\337\015\330xg\316\266\032\301\316x\0063s\266\315"
 195      7867CEB6 
 195      1AC1CE78 
 195      063373B6 
 195      CD
 196 0527 08F68D1B 		.ascii	"\010\366\215\033\260B\033\316\364\217S\032r#\235\325"
 196      B0421BCE 
 196      F48F531A 
 196      72239DD5 
 197 0537 F1DCB980 		.ascii	"\361\334\271\200\026\020<\3324\227\306\270\020\360\032"
ARM GAS  /tmp/ccnQIHsC.s 			page 15


 197      16103CDA 
 197      3497C6B8 
 197      10F01A
 198 0546 C04C72C3 		.ascii	"\300Lr\303\374}\372m\3220_\351\236\254\315\241\227\334"
 198      FC7DFA6D 
 198      D2305FE9 
 198      9EACCDA1 
 198      97DC
 199 0558 20663198 		.ascii	" f1\230\332}\206\011\371\232g0\263ZZ\031X7\202\335r"
 199      DA7D8609 
 199      F99A6730 
 199      B35A5A19 
 199      583782DD 
 200 056d 0396C560 		.ascii	"\003\226\305`\016R0\273,>U\243,\"U\233&fM\242 \206="
 200      0E5230BB 
 200      2C3E55A3 
 200      2C22559B 
 200      26664DA2 
 201 0584 D48E31AC 		.ascii	"\324\2161\254\231\247\323\333P\300v\246t\205\265\243"
 201      99A7D3DB 
 201      50C076A6 
 201      7485B5A3 
 202 0594 E68036ED 		.ascii	"\346\2006\355\266 \330ky\303\007\353\355:\245M\274m"
 202      B620D86B 
 202      79C307EB 
 202      ED3AA54D 
 202      BC6D
 203 05a6 08D69067 		.ascii	"\010\326\220g\215\256a\313\304\0336O\215\341p\372bH"
 203      8DAE61CB 
 203      C41B364F 
 203      8DE170FA 
 203      6248
 204 05b8 FB981762 		.ascii	"\373\230\027b?*\215\223\2674\361\006oi\315\363\252}"
 204      3F2A8D93 
 204      B734F106 
 204      6F69CDF3 
 204      AA7D
 205 05ca B3A5DFEA 		.ascii	"\263\245\337\352\377\037~\231\222\252\362\031\366\350"
 205      FF1F7E99 
 205      92AAF219 
 205      F6E8
 206 05d8 9C966E5A 		.ascii	"\234\226nZ\232u\355\242\017\323\25458\256k\354\225\344"
 206      9A75EDA2 
 206      0FD3AC35 
 206      38AE6BEC 
 206      95E4
 207 05ea 026847CD 		.ascii	"\002hG\315\373\177\201@k\021h\303\260\201z\273Z\331"
 207      FB7F8140 
 207      6B1168C3 
 207      B0817ABB 
 207      5AD9
 208 05fc 96CB7A04 		.ascii	"\226\313z\004\332\232\241ib\32141k@_~\252\253\317\037"
 208      DA9AA169 
 208      62D13431 
 208      6B405F7E 
 208      AAABCF1F 
 209 0610 AB2D647F 		.ascii	"\253-d\177Vu\231\304\311\022C\365\300t\247\236\\\255"
ARM GAS  /tmp/ccnQIHsC.s 			page 16


 209      567599C4 
 209      C91243F5 
 209      C074A79E 
 209      5CAD
 210 0622 561A277B 		.ascii	"V\032'{\320\327eU_\037\340\350\354\311\030\035:\374"
 210      D0D76555 
 210      5F1FE0E8 
 210      ECC9181D 
 210      3AFC
 211 0634 DEC4E8F1 		.ascii	"\336\304\350\361,F\310,F\353\220w1n\252b|\204b\034\375"
 211      2C46C82C 
 211      46EB9077 
 211      316EAA62 
 211      7C84621C 
 212 0649 3F10E32B 		.ascii	"?\020\343+\317b\2141\210\201\313\274\305l\232\270\237"
 212      CF628C31 
 212      8881CBBC 
 212      C56C9AB8 
 212      9F
 213 065a ABCF9EE8 		.ascii	"\253\317\236\350R~>\346\3577e\231\251c=\244\220\335"
 213      527E3EE6 
 213      EF376599 
 213      A9633DA4 
 213      90DD
 214 066c CEBDB8BD 		.ascii	"\316\275\270\275\332\263B]!\262]\3163\310;\245\035N"
 214      DAB3425D 
 214      21B25DCE 
 214      33C83BA5 
 214      1D4E
 215 067e EAA7A46A 		.ascii	"\352\247\244j\017\340\034\302\300\006\357\011\254:\365"
 215      0FE01CC2 
 215      C006EF09 
 215      AC3AF5
 216 068d D69BDAF2 		.ascii	"\326\233\332\362\0257\376\256\334#\334'\007\254S\222"
 216      1537FEAE 
 216      DC23DC27 
 216      07AC5392 
 217 069d 25AF3EE6 		.ascii	"%\257>\346\020\357\364\225\375\036m\"\331\315S\206n"
 217      10EFF495 
 217      FD1E6D22 
 217      D9CD5386 
 217      6E
 218 06ae 6618CB51 		.ascii	"f\030\313QbI\255\351\015C\023'\035~n\014\276\257\007"
 218      6249ADE9 
 218      0D431327 
 218      1D7E6E0C 
 218      BEAF07
 219 06c1 EF490760 		.ascii	"\357I\007`?\327\033\2644\203)\242\356\236\020a\321\254"
 219      3FD71BB4 
 219      348329A2 
 219      EE9E1061 
 219      D1AC
 220 06d3 2A22D732 		.ascii	"*\"\3272\350\327\032V\001\012\322\204\335\356\347-\253"
 220      E8D71A56 
 220      010AD284 
 220      DDEEE72D 
 220      AB
ARM GAS  /tmp/ccnQIHsC.s 			page 17


 221 06e4 A096DB03 		.ascii	"\240\226\333\0035\3528\322g\271\215\264\357lX\251/`"
 221      35EA38D2 
 221      67B98DB4 
 221      EF6C58A9 
 221      2F60
 222 06f6 FB2902F9 		.ascii	"\373)\002\371\226\360*\252\335<\235\333D\373\305\356"
 222      96F02AAA 
 222      DD3C9DDB 
 222      44FBC5EE 
 223 0706 C91E4E01 		.ascii	"\311\036N\001\266\250\253\377C,\314\005\255*\337d\235"
 223      B6A8ABFF 
 223      432CCC05 
 223      AD2ADF64 
 223      9D
 224 0717 053C6C84 		.ascii	"\005<l\204\363\334~}\210\334\246\224\326\217\223I\355"
 224      F3DC7E7D 
 224      88DCA694 
 224      D68F9349 
 224      ED
 225 0728 339AD4C1 		.ascii	"3\232\324\301{3\0000\251=\253\231I\3452\001E?w\032\203"
 225      7B330030 
 225      A93DAB99 
 225      49E53201 
 225      453F771A 
 226 073d 3DF762CF 		.ascii	"=\367b\317'\2546P7\324\275P\333\205se\003\327ml\340"
 226      27AC3650 
 226      37D4BD50 
 226      DB857365 
 226      03D76D6C 
 227 0752 C4306D00 		.ascii	"\3040m\000\014\372\374\027\004\341X\346\254\204\210"
 227      0CFAFC17 
 227      04E158E6 
 227      AC8488
 228 0761 19CEE38A 		.ascii	"\031\316\343\212\362\216\350u`\230u\245\376\353,\015"
 228      F28EE875 
 228      609875A5 
 228      FEEB2C0D 
 229 0771 D5033CDD 		.ascii	"\325\003<\335'\254\011YM\213\215\214\301\264\322\303"
 229      27AC0959 
 229      4D8B8D8C 
 229      C1B4D2C3 
 230 0781 2890933C 		.ascii	"(\220\223<\335#\353\343\351\036\331WX\367\363\206\235"
 230      DD23EBE3 
 230      E91ED957 
 230      58F7F386 
 230      9D
 231 0792 3227B338 		.ascii	"2'\2638\2356\013\201|m\035F\267\013\232\234\335\364"
 231      9D360B81 
 231      7C6D1D46 
 231      B70B9A9C 
 231      DDF4
 232 07a4 1AADEF8D 		.ascii	"\032\255\357\215\320\275Y\337\255\376\036?n\374x\330"
 232      D0BD59DF 
 232      ADFE1E3F 
 232      6EFC78D8 
 233 07b4 B47B4F75 		.ascii	"\264{Ou\333\263\350\266K2\306\366\242\325m\335\354`"
 233      DBB3E8B6 
ARM GAS  /tmp/ccnQIHsC.s 			page 18


 233      4B32C6F6 
 233      A2D56DDD 
 233      EC60
 234 07c6 AD1CAE20 		.ascii	"\255\034\256 \372\207\347\326\206\\"
 234      FA87E7D6 
 234      865C
 235 07d0 A4D68536 		.ascii	"\244\326\2056c\256E\367\326\343jv\220s\033L\337J\337"
 235      63AE45F7 
 235      D6E36A76 
 235      90731B4C 
 235      DF4ADF
 236 07e3 5FA5EE48 		.ascii	"_\245\356H_DKk\267\214\206\213\375\264\355Hr\311\352"
 236      5F444B6B 
 236      B78C868B 
 236      FDB4ED48 
 236      72C9EA
 237 07f6 C6B75BF7 		.ascii	"\306\267[\367k;\322\227\\\270qu\352C\323\216\264f\201"
 237      6B3BD297 
 237      5CB87175 
 237      EA43D38E 
 237      B46681
 238 0809 97B25B60 		.ascii	"\227\262[`\326\0215)\361\222\301A.\243\203\\1:\005\317"
 238      D6113529 
 238      F192C141 
 238      2EA3835C 
 238      313A05CF 
 239 081d 7DE166F4 		.ascii	"}\341f\364\037w2E\010C\207\331a\200\266\271\177\310"
 239      1F773245 
 239      084387D9 
 239      6180B6B9 
 239      7FC8
 240 082f 8A671788 		.ascii	"\212g\027\210LxFm\302\002\376\010\346K\314JO\272an\262"
 240      4C78466D 
 240      C202FE08 
 240      E64BCC4A 
 240      4FBA616E 
 241 0844 33D85B0D 		.ascii	"3\330[\015\332\340\366b~\362\265\033\274iN\302V\247"
 241      DAE0F662 
 241      7EF2B51B 
 241      BC694EC2 
 241      56A7
 242 0856 3A8E68C9 		.ascii	":\216h\311!\333\372\276\350\031\317\314\337\261\006"
 242      21DBFABE 
 242      E819CFCC 
 242      DFB106
 243 0865 533E77CD 		.ascii	"S>w\315\015\334t\327\272O\237\364@p\304\003\204><@8"
 243      0DDC74D7 
 243      BA4F9FF4 
 243      4070C403 
 243      843E3C40 
 244 087a 87F51FB1 		.ascii	"\207\365\037\261\256\307@\271\030\353\245X7b\275\032"
 244      AEC740B9 
 244      18EBA558 
 244      3762BD1A 
 245 088a EB8D586F 		.ascii	"\353\215Xo\301z;\326\027\260\276\212\365u\254o`\375"
 245      C17A3BD6 
 245      17B0BE8A 
ARM GAS  /tmp/ccnQIHsC.s 			page 19


 245      F575AC6F 
 245      60FD
 246 089c 3DD6B7DD 		.ascii	"=\326\267\335\004\\K\006\250\237\315m`\001\310r<w\313"
 246      045C4B06 
 246      A89FCD6D 
 246      6001C872 
 246      3C77CB
 247 08af E29A9A70 		.ascii	"\342\232\232pwy\273\343\271\345'w=\254\0376Z\316\347"
 247      7779BBE3 
 247      B9E52777 
 247      3DAC1F36 
 247      5ACEE7
 248 08c2 68BF4E3C 		.ascii	"h\277N<)\276\314\263\352\205a\373\236\253|v=\037i?\364"
 248      29BECCB3 
 248      EA8561FB 
 248      9EAB7C76 
 248      3D1F693F 
 249 08d7 4CCB6665 		.ascii	"L\313fe\301\253\312\335\241\227\211\207\256\347\373"
 249      C1ABCADD 
 249      A1978987 
 249      AEE7FB
 250 08e6 32DFEC50 		.ascii	"2\337\354P\257\335G\367\276\365g~\266\021\267\207j|"
 250      AFDD47F7 
 250      BEF5677E 
 250      B611B787 
 250      6A7C
 251 08f8 D430BF0D 		.ascii	"\3240\277\015[\303{\300\022\335\003\346\350\036\010"
 251      5BC37BC0 
 251      12DD03E6 
 251      E81E08
 252 0907 A72FD2C7 		.ascii	"\247/\322\307\031:O\203L7\366\007\331\364=\205,\274"
 252      193A4F83 
 252      4C37F607 
 252      D9F43D85 
 252      2CBC
 253 0919 1D69EF1C 		.ascii	"\035i\357\034\277\026y{\335G\255\374\273\014\336\332"
 253      BF16797B 
 253      DD47ADFC 
 253      BB0CDEDA 
 254 0929 AD8B8476 		.ascii	"\255\213\204v\263\211XF'\323H\256;\250\352M[U-o\336"
 254      B3895846 
 254      27D348AE 
 254      3BA8EA4D 
 254      5B552D6F 
 255 093e 35C1C948 		.ascii	"5\301\311H6d9\224\257\263j\212\2525\207\371.\034a\317"
 255      36643994 
 255      AFB36A8A 
 255      AA3587F9 
 255      2E1C61CF 
 256 0952 D9623367 		.ascii	"\331b3g\177\302\255T\332\352\007\352\352O\327\223zz"
 256      7FC2AD54 
 256      DAEA07EA 
 256      EA4FD793 
 256      7A7A
 257 0964 D0ADA420 		.ascii	"\320\255\244 9~\004\325\001\253\025\035\304\211\265"
 257      397E04D5 
 257      01AB151D 
ARM GAS  /tmp/ccnQIHsC.s 			page 20


 257      C489B5
 258 0973 A569380A 		.ascii	"\245i8\012\365A\355\300\325\206SU\244A\321\241\264\267"
 258      F541EDC0 
 258      D5865355 
 258      A441D1A1 
 258      B4B7
 259 0985 A20C6BBC 		.ascii	"\242\014k\274T\266\263\223\314c\020\265U\233\236\266"
 259      54B6B393 
 259      CC6310B5 
 259      559B9EB6 
 260 0995 3D80B7D3 		.ascii	"=\200\267\323\300H\340\320J \315>\355\275\253w\214\231"
 260      C048E0D0 
 260      4A20CD3E 
 260      EDBDAB77 
 260      8C99
 261 09a7 86E12BCF 		.ascii	"\206\341+\317-\267\012\232\011\263\334,)\250\363v\353"
 261      2DB70A9A 
 261      09B3DC2C 
 261      29A8F376 
 261      EB
 262 09b8 B12E529F 		.ascii	"\261.R\237\226\324.\325\014j0\011\316\260z\275\266R"
 262      96D42ED5 
 262      0C6A3009 
 262      CEB07ABD 
 262      B652
 263 09ca DDB96CF1 		.ascii	"\335\271l\361\321\251\253u\204m\026\340\014\004\211"
 263      D1A9AB75 
 263      846D16E0 
 263      0C0489
 264 09d9 0392B4F9 		.ascii	"\003\222\264\3712\262\200\376\0325\013\240\317r'\363"
 264      32B280FE 
 264      1A350BA0 
 264      CF7227F3 
 265 09e9 757D8E47 		.ascii	"u}\216G\352\003\372\020L4\360\336\327{F\345}5\362\276"
 265      EA03FA10 
 265      4C34F0DE 
 265      D77B46E5 
 265      7D35F2BE 
 266 09fd 2537EF66 		.ascii	"%7\357f \236\353D\222w3y\377\356\025\225\367w]\361\336"
 266      209EEB44 
 266      92773379 
 266      FFEE1595 
 266      F7775DF1 
 267 0a12 D16BCC00 		.ascii	"\321k\314\000\264\245\010\245\035\336Rd[/f\000\203\270"
 267      B4A508A5 
 267      1DDE5264 
 267      5B2F6600 
 267      83B8
 268 0a24 AD74C50A 		.ascii	"\255t\305\012\346i!\242\244>a`\354\334\263\216\367\012"
 268      E66921A2 
 268      A43E6160 
 268      ECDCB38E 
 268      F70A
 269 0a36 5668E2EC 		.ascii	"Vh\342\354\3102s\256\326\340\006/\313a\305\321^\375"
 269      C83273AE 
 269      D6E0062F 
 269      CB61C5D1 
ARM GAS  /tmp/ccnQIHsC.s 			page 21


 269      5EFD
 270 0a48 B042204B 		.ascii	"\260B K<\203\231\231;\331k8\3718\240\3536\013\230\335"
 270      3C839999 
 270      3BD96B38 
 270      F938A0EB 
 270      360B98DD 
 271 0a5c 6185DDC7 		.ascii	"a\205\335\307h$\002Y\347\243\231D\273\217\316\367\353"
 271      68240259 
 271      E7A39944 
 271      BB8FCEF7 
 271      EB
 272 0a6d B17E0FEB 		.ascii	"\261~\017\353\367\261\336\200\365F\237)\307\354\325"
 272      F7B1DE80 
 272      F5469F29 
 272      C7ECD5
 273 0a7c BDC4D614 		.ascii	"\275\304\326\024s\231\204\222jrv\017\323\016\213\356"
 273      73998492 
 273      6A72760F 
 273      D30E8BEE 
 274 0a8c D9E7AAC8 		.ascii	"\331\347\252\310+h\302\037\242w\234\312\355\035\226"
 274      2B68C21F 
 274      A2779CCA 
 274      ED1D96
 275 0a9b 9D9AAB48 		.ascii	"\235\232\253H\2615\3039\372\217k\316\261\325\205sT\247"
 275      B135C339 
 275      FA8F6BCE 
 275      B1D58573 
 275      54A7
 276 0aad 4E2D75B7 		.ascii	"N-u\267Qd\016t\272\227\177\243\2759\263\003\345x-?\367"
 276      51640E74 
 276      BA977FA3 
 276      BD39B303 
 276      E5782D3F 
 277 0ac2 4B3F2620 		.ascii	"K?& \236kF\222]\231\202\354\321\004\331\345J\220\226"
 277      9E6B4692 
 277      5D9982EC 
 277      D104D9E5 
 277      4A9096
 278 0ad5 A59AED7F 		.ascii	"\245\232\355\177\354K\257Sve\2670G\225V\247Z\217\243"
 278      EC4BAF53 
 278      7665B730 
 278      479556A7 
 278      5A8FA3
 279 0ae8 B932B0B3 		.ascii	"\2712\260\263\236\301\314\266\277\351\370\212\361J["
 279      9EC1CCB6 
 279      BFE9F88A 
 279      F14A5B
 280 0af7 A7F60E8B 		.ascii	"\247\366\016\213R\243<\2766=$c4\004\3368\264[\237\304"
 280      52A33CBE 
 280      363D2463 
 280      3404DE38 
 280      B45B9FC4 
 281 0b0b E5F06ECC 		.ascii	"\345\360n\314\227\326[\006\326=\320\216\232\216\277"
 281      97D65B06 
 281      D63DD08E 
 281      9A8EBF
 282 0b1a 44A02E04 		.ascii	"D\240.\004\372h\330@\275]\357\377\024\201\366\"\320"
ARM GAS  /tmp/ccnQIHsC.s 			page 22


 282      FA68D840 
 282      BD5DEFFF 
 282      1481F622 
 282      D0
 283 0b2b AE7C6B96 		.ascii	"\256|k\226\344\263dp>s\006\347\013\247/\206\206|\334"
 283      E4B36470 
 283      3E7306E7 
 283      0BA72F86 
 283      867CDC
 284 0b3e 8FD81856 		.ascii	"\217\330\030V\215\272U\331I\224+,\323\015\214\375\001"
 284      8DBA55D9 
 284      49942B2C 
 284      D30D8CFD 
 284      01
 285 0b4f DCC0F096 		.ascii	"\334\300\360\226J._\336_\245n\224\036\300\\\362@\306"
 285      4A2E5FDE 
 285      5FA56E94 
 285      1EC05CF2 
 285      40C6
 286 0b61 28E5CA25 		.ascii	"(\345\312%y\356\204\225wo\263\000\270\316\227k\264\335"
 286      79EE8495 
 286      776FB300 
 286      B8CE976B 
 286      B4DD
 287 0b73 645CB69D 		.ascii	"d\\\266\235r\003h7\015\330}\214\276*\220\024\006\333"
 287      72036837 
 287      0DD87D8C 
 287      BE2A9014 
 287      06DB
 288 0b85 4E0CAA9F 		.ascii	"N\014\252\237a\3759\326=X\037\361\271XnQ\017\323\261"
 288      61FD39D6 
 288      3D581FF1 
 288      B9586E51 
 288      0FD3B1
 289 0b98 99D76E1D 		.ascii	"\231\327n\035\266\327^\316\364Z/`\246\201L]W\275\226"
 289      B6D75ECE 
 289      F45A2F60 
 289      A6814C5D 
 289      57BD96
 290 0bab 39A140BE 		.ascii	"9\241@\276\364Y\360\274\031Uj\361\262\202\203\277\326"
 290      F459F0BC 
 290      19556AF1 
 290      B28283BF 
 290      D6
 291 0bbc 3CFA4C3E 		.ascii	"<\372L>\361\010\246\275\304o\253\224\255\006\245lC\245"
 291      F108A6BD 
 291      C46FAB94 
 291      AD06A56C 
 291      43A5
 292 0bce 6C47151C 		.ascii	"lG\025\034\303\3728\326\275\346Y\357B\276e\3263M1vs"
 292      C3FA38D6 
 292      BDE659EF 
 292      42BE65D6 
 292      334D3176 
 293 0be3 B0717894 		.ascii	"\260qx\224\324\007}0\326\356\267\264\276\323\266\264"
 293      D4077D30 
 293      D6EEB7B4 
ARM GAS  /tmp/ccnQIHsC.s 			page 23


 293      BED3B6B4 
 294 0bf3 FA70AAB8 		.ascii	"\372p\252\270b?Ud\333\322R\012(I\177fBxW\233*\372sO"
 294      623F5564 
 294      DBD2520A 
 294      28497F66 
 294      4278579B 
 295 0c0b 150BE6A7 		.ascii	"\025\013\346\247\232\232\337I\317y\363u\337\376\"\313"
 295      9A9ADF49 
 295      CF79F375 
 295      DFFE22CB 
 296 0c1b D2AADBF8 		.ascii	"\322\252\333\370fJ\255\316\207G#\265W]\277Au\003\250"
 296      664AADCE 
 296      874723B5 
 296      575DBF41 
 296      7503A8
 297 0c2e BA336645 		.ascii	"\2723fE5\027X\024\345q\013l{\237\226\000\263Ws[\255"
 297      35175814 
 297      E5710B6C 
 297      7B9F9600 
 297      B357735B 
 298 0c43 78E61771 		.ascii	"x\346\027q\355\000\013\263\011\320f\020\340m\024`\025"
 298      ED000BB3 
 298      09D06610 
 298      E06D1460 
 298      15
 299 0c54 DADB66AC 		.ascii	"\332\333f\254Ob}\326,\322\272\002\313B\312\274p\241"
 299      4F627DD6 
 299      2CD2BA02 
 299      CB42CABC 
 299      70A1
 300 0c66 A8E7CC0B 		.ascii	"\250\347\314\013\2516\372\246\366W+\215\013)\343\312"
 300      A936FAA6 
 300      F6572B8D 
 300      0B29E3CA 
 301 0c76 CEB08391 		.ascii	"\316\260\203\221\271&;\237\271\264\343\271\367\254,"
 301      B9263B9F 
 301      B9B4E3B9 
 301      F7AC2C
 302 0c85 64D25DB0 		.ascii	"d\322]\260\254ZS\003\035\257\337X\011\253V\305\302\002"
 302      AC5A5303 
 302      1DAFDF58 
 302      09AB56C5 
 302      C202
 303 0c97 7D35D8B4 		.ascii	"}5\330\264l\325\254\031\2542\307\211\002\254\251\177"
 303      6CD5AC19 
 303      AC32C789 
 303      02ACA97F 
 304 0ca7 3705E6D5 		.ascii	"7\005\346\325\234\007\020\002\371\003\214m\316f\264"
 304      9C071002 
 304      F9038C6D 
 304      CE66B4
 305 0cb6 E1158B8B 		.ascii	"\341\025\213\213\244n\213\205\354n\356<\352\207\037"
 305      A46E8B85 
 305      EC6EEE3C 
 305      EA871F
 306 0cc5 BAD9414B 		.ascii	"\272\331AK7\316K\3130\353\2772\354\200<t\036\341,\323"
 306      37CE4BCB 
ARM GAS  /tmp/ccnQIHsC.s 			page 24


 306      30EBBF32 
 306      EC803C74 
 306      1EE12CD3 
 307 0cd9 E84E8769 		.ascii	"\350N\207i\224\262w\335gp\265-\250$/\335\027\232\272"
 307      94B277DD 
 307      6770B52D 
 307      A8242FDD 
 307      179ABA
 308 0cec AFDD83F3 		.ascii	"\257\335\203\363\301u\234\214?v\003\226%~\327\033\301"
 308      C1759C8C 
 308      3F760396 
 308      257ED71B 
 308      C1
 309 0cfd 3EF70C56 		.ascii	">\367\014V\230\3418\314e\376\210.s\025\335\344\032\326"
 309      98E138CC 
 309      65FE882E 
 309      7315DDE4 
 309      1AD6
 310 0d0f 37B0FEDE 		.ascii	"7\260\376\336\3542\373\012\254\251\004S\250\001/\255"
 310      EC32FB0A 
 310      ACA90453 
 310      A8012FAD 
 311 0d1f 772E37A2 		.ascii	"w.7\242\375\370[\024u\311A>\212\177\307g\312d\322\220"
 311      FDF85B14 
 311      75C9413E 
 311      8A7FC767 
 311      CA64D290 
 312 0d33 D3CDE21B 		.ascii	"\323\315\342\033|\204\021\3317\023\310\017>\257\277"
 312      7C8411D9 
 312      3713C80F 
 312      3EAFBF
 313 0d42 77BBEBB3 		.ascii	"w\273\353\263\377\275\233\361}\234t+\030\304\343V\247"
 313      FFBD9BF1 
 313      7D9C742B 
 313      18C4E356 
 313      A7
 314 0d53 CF606208 		.ascii	"\317`b\010|\376an\260\240Eaw\236\346>T\026\245\300}"
 314      7CFE616E 
 314      B0A04561 
 314      779EE63E 
 314      5416A5C0 
 315 0d68 FE1BB8D3 		.ascii	"\376\033\270\323\315\342?\270[J\2432\320\261\357\306"
 315      CDE23FB8 
 315      5B4AA332 
 315      D0B1EFC6 
 316 0d78 1426138D 		.ascii	"\024&\023\215\017\007\017\2466u\321P\013\031\340]\210"
 316      0F070FA6 
 316      3675D150 
 316      0B19E05D 
 316      88
 317 0d89 0E6CF878 		.ascii	"\016l\370x\256z\2445\330ex\354\002?o\350m:\243d*d]\245"
 317      AE7AA435 
 317      D86578EC 
 317      023F6FE8 
 317      6D3AA364 
 318 0da1 3EEC226E 		.ascii	">\354\"n~E\270V\207\036\247B/\362{\035\325W\375\366"
 318      7E45B856 
ARM GAS  /tmp/ccnQIHsC.s 			page 25


 318      871EA742 
 318      2FF27B1D 
 318      D557FDF6 
 319 0db5 A3FA4056 		.ascii	"\243\372@V\313\021\310B\277n\020\017so\216lQ\032\247"
 319      CB11C842 
 319      BF6E100F 
 319      736F8E6C 
 319      511AA7
 320 0dc8 A7BB6796 		.ascii	"\247\273g\226H)\230\2033\2334~\377^\025v\221\222\332"
 320      48299883 
 320      339B347E 
 320      FF5E1576 
 320      9192DA
 321 0ddb 1664B7CD 		.ascii	"\026d\267\315?\265R\373e\022j\326g1\330\200\263X\277"
 321      3FB552FB 
 321      65126AD6 
 321      6731D880 
 321      B358BF
 322 0dee F5DBFFC8 		.ascii	"\365\333\377\310Q \215i\325fP\375\247#UK\026\337x\303"
 322      51208D69 
 322      D56650FD 
 322      A723554B 
 322      16DF78C3 
 323 0e02 918A6EA7 		.ascii	"\221\212n\247;Q\275\351Hu>\013\207\265\216TJ\226\276"
 323      3B51BDE9 
 323      48753E0B 
 323      87B58E54 
 323      4A96BE
 324 0e15 EA1CA90E 		.ascii	"\352\034\251\016g\011\316\365\216T=Y\250\032\034\251"
 324      6709CEF5 
 324      8E543D59 
 324      A81A1CA9 
 325 0e25 3AB3502D 		.ascii	":\263P-NS\251\277?<\322\336\371\217\033\351k\352\364"
 325      4E53A9BF 
 325      3F3CD2DE 
 325      F98F1BE9 
 325      6BEAF4
 326 0e38 0CA36AC1 		.ascii	"\014\243j\301/,{\343\203Y\022\270\245\376\314\003\224"
 326      2F2C7BE3 
 326      835912B8 
 326      A5FECC03 
 326      94
 327 0e49 3523CD11 		.ascii	"5#\315\021U\375\261_\265\262y-\375\355\";S\020\310\022"
 327      55FDB15F 
 327      B5B2792D 
 327      FDED223B 
 327      5310C812 
 328 0e5d BFFD0F17 		.ascii	"\277\375\017\027U\274e~\273\237$\366\036^\241\376$\361"
 328      55BC657E 
 328      BB9F24F6 
 328      1E5EA1FE 
 328      24F1
 329 0e6f 53E5D110 		.ascii	"S\345\321\020S\005\317ud\357\221\275\214$\220\246\354"
 329      5305CF75 
 329      64EF91BD 
 329      8C2490A6 
 329      EC
ARM GAS  /tmp/ccnQIHsC.s 			page 26


 330 0e80 3D369B7B 		.ascii	"=6\233{\374s\356\035\232\006w\354\2733\266\2516\224"
 330      FC73EE1D 
 330      9A0677EC 
 330      BB33B6A9 
 330      3694
 331 0e92 F14A53C6 		.ascii	"\361JS\306\230\327e\261\212\226\364\230s\376h\251 \345"
 331      98D765B1 
 331      8A96F498 
 331      73FE68A9 
 331      20E5
 332 0ea4 3DF74FBF 		.ascii	"=\367O\277*\234\301M\2334\251\210\375\305\223E\321x"
 332      2A9CC14D 
 332      9B34A988 
 332      FDC59345 
 332      D178
 333 0eb6 45453C56 		.ascii	"EE<V\224\210Kr\262\350\027\277|~\306\363s\351\275DY"
 333      94884B72 
 333      B2E817BF 
 333      7C7EC6F3 
 333      73E9BD44 
 334 0ecb B928258B 		.ascii	"\271(%\213\236\2331\243(Z*\317K\210\311I\245\\\240\""
 334      9E9B31A3 
 334      285A2ACF 
 334      4B88C949 
 334      A55CA022 
 335 0edf 5912911F 		.ascii	"Y\022\221\037*\252LJEe\261hye\261X\024\023\347\224\227"
 335      2AAA4C4A 
 335      4565B168 
 335      7965B158 
 335      1413E794 
 336 0ef4 CD2C4ACA 		.ascii	"\315,J\312\305e1\031\332\004\341\337_\377UD~\312\256"
 336      C5653119 
 336      DA04E1DF 
 336      5FFF5544 
 336      7ECAAE
 337 0f07 5585102D 		.ascii	"U\205\020--\213\211E\221bq\226PY.G4\344p$\242\322M\321"
 337      2D8B8945 
 337      91627196 
 337      50592E47 
 337      34E47024 
 338 0f1f 9993C5A4 		.ascii	"\231\223\305\244\\$\311E\311x\245\024\025\331WZE\222"
 338      5C24C945 
 338      C978A514 
 338      15D9575A 
 338      4592
 339 0f31 E26F2AC5 		.ascii	"\342o*\305XT\214L\236<uR\224\313G\256J%Q(\236B\022\017"
 339      58548C4C 
 339      9E3C7552 
 339      94CB47AE 
 339      4A255128 
 340 0f49 60137802 		.ascii	"`\023x\002eJD\234+F+eq\242\031\224\262\022-\215\320"
 340      654A449C 
 340      2B462B65 
 340      71A21994 
 340      B2122D8D 
 341 0f5e 6B2A55E4 		.ascii	"k*U\344\357\342\361\362q\3705\"$\223\242\224\356\342"
 341      EFE2F1F2 
ARM GAS  /tmp/ccnQIHsC.s 			page 27


 341      71F83522 
 341      2493A294 
 341      EEE2
 342 0f70 89DCDC48 		.ascii	"\211\334\334H\3618E\031\213_\346\010e\262\312Kr4\336"
 342      F1384519 
 342      8B5FE608 
 342      65B2CA4B 
 342      7234DE
 343 0f83 112BE89D 		.ascii	"\021+\350\235\370Kb\354\021\343\260\003\22266\321R\020"
 343      F84B62EC 
 343      11E3B003 
 343      923636D1 
 343      5210
 344 0f95 00101E73 		.ascii	"\000\020\036s|\236\234\227\324\006*"
 344      7C9E9C97 
 344      D4062A
 345 0fa0 C4C02372 		.ascii	"\304\300#r\230\012\200\327\205\316t\321\322b\240\031"
 345      980A80D7 
 345      85CE74D1 
 345      D262A019 
 346 0fb0 AD321401 		.ascii	"\2552\024\001\231*\305\210<F'Uo\371c\342\\\331\237\220"
 346      992AC588 
 346      3C462755 
 346      6FF963E2 
 346      5CD99F90 
 347 0fc4 C4D901FC 		.ascii	"\304\331\001\374\036\224\023RY<\"\207*U\245\214\210"
 347      1E941352 
 347      593C2287 
 347      2A55A58C 
 347      88
 348 0fd5 44B44B3F 		.ascii	"D\264K?}T@\315%\022\215\307d |\"\2479\225F\343\222\010"
 348      7D5440CD 
 348      25128DC7 
 348      64207C22 
 348      A7399546 
 349 0fec 8CE42319 		.ascii	"\214\344#\031\000E\345\271O\271\243\212\314\236ZA\305"
 349      0045E5B9 
 349      4FB9A38A 
 349      CC9E5A41 
 349      C5
 350 0ffd 96C412   		.ascii	"\226\304\022"
 351 1000 41AA88C8 		.ascii	"A\252\210\310\2744\215\227~\352\223\246L\2062\205\227"
 351      BC348D97 
 351      7EEA93A6 
 351      4C863285 
 351      97
 352 1011 9EE6A5BF 		.ascii	"\236\346\245\277\341\245\251\274\364\267|\271\304'\023"
 352      E1A5A9BC 
 352      F4B77CB9 
 352      C42713
 353 1020 3E800E80 		.ascii	">\200\016\200\265\211R ^^,J\376\230P!\216H\312/\011"
 353      B5895220 
 353      5E5E2C4A 
 353      FE985021 
 353      8E48CA2F 
 354 1035 E5652531 		.ascii	"\345e%1U\244\251O\353\"\321\313\2749\302L!)\206\344"
 354      55A4A94F 
ARM GAS  /tmp/ccnQIHsC.s 			page 28


 354      EB22D1CB 
 354      BC39C24C 
 354      212986E4 
 355 1049 A42CC830 		.ascii	"\244,\3100>A\372`\032\0141k\002W\001|\022\224+\342\305"
 355      3E41FA60 
 355      1A0C316B 
 355      0257017C 
 355      12942BE2 
 356 105e F03C30AB 		.ascii	"\360<0\253\\(I\006eI\234\225\204\001\241\377\362\244"
 356      5C284906 
 356      65499C95 
 356      8401A1FF 
 356      F2A4
 357 1070 E279A0C5 		.ascii	"\342y\240\305\2208\267L\216B\243\2749r|\346\277%\356"
 357      9038B74C 
 357      8E42A3BC 
 357      39727CE6 
 357      BF25EE
 358 1083 53B5054D 		.ascii	"S\265\005MD\011MV\016\314\221e)\021L\2121\031\010\012"
 358      44094D56 
 358      0ECC9165 
 358      29114C8A 
 358      3119080A 
 359 1097 401549B1 		.ascii	"@\025I\261BH\224\202\254\316\006\002M\250\241Fc`J>\250"
 359      42489482 
 359      ACCE0602 
 359      4DA8A146 
 359      63604A3E 
 360 10ac 011E6E25 		.ascii	"\001\036n%B@]\001\346=7\213i\311s)e|NL\224\202\330\226"
 360      42405D01 
 360      E63D378B 
 360      69C97329 
 360      657C4E4C 
 361 10c4 CA2BC3ED 		.ascii	"\312+\303\355D\2768\2332!$_\202[\342\034zA*Gi\206Q^"
 361      44BE389B 
 361      3221245F 
 361      825BE21C 
 361      7A412A47 
 362 10dc 06C62B8F 		.ascii	"\006\306+\2176\230\012\275\023\244\006^\026+\011\001"
 362      36980ABD 
 362      13A4065E 
 362      162B0901 
 363 10ec EF682A21 		.ascii	"\357h*!1!\306\300\365K\202\000I[\200\246\204rj#\201"
 363      3121C6C0 
 363      F54B8200 
 363      495B80A6 
 363      84726A23 
 364 1101 8A04B815 		.ascii	"\212\004\270\025\010\370|\262\344\227b\271\010#\034"
 364      08F87CB2 
 364      E49762B9 
 364      08231C
 365 1110 C62FFF0A 		.ascii	"\306/\377\012\020\177\352\310\260\332\0330=\031#\010"
 365      107FEAC8 
 365      B0DA1B30 
 365      3D192308 
 366 1120 F5D59268 		.ascii	"\365\325\222h\264\010\264\377T,\036\023\237\022\205"
 366      B408B4FF 
ARM GAS  /tmp/ccnQIHsC.s 			page 29


 366      542C1E13 
 366      9F1285
 367 112f 9965454F 		.ascii	"\231eEOO\232\246\323@\350\201p\002\004y\311\262\177"
 367      4F9AA6D3 
 367      40E88170 
 367      020479C9 
 367      B27F
 368 1141 A7EA9367 		.ascii	"\247\352\223gU\306\242\021yl\264\364_J\213g\000\234"
 368      55C6A211 
 368      796CB4F4 
 368      5F4A8B67 
 368      009C
 369 1153 2CBE00FA 		.ascii	",\276\000\372+\213\262\376_\000\206\303,\220\310b\202"
 369      2B8BB2FE 
 369      5F0086C3 
 369      2C90C862 
 369      82
 370 1164 9F23E453 		.ascii	"\237#\344S%\200\213\211\025\314\255\330u\001\345c\236"
 370      25808B89 
 370      15CCADD8 
 370      7501E563 
 370      9E
 371 1175 3A0E23E1 		.ascii	":\016#\341v\372{0Z)\201:\345\200D\277\215\233]&\311"
 371      76FA7B30 
 371      5A29813A 
 371      E58044BF 
 371      8D9B5D26 
 372 118a 95427944 		.ascii	"\225ByD.\253\200\230\251R<\010\0246\017F\233\3561_4"
 372      2EAB8098 
 372      A9523C08 
 372      14360F46 
 372      9BEE315F 
 373 119f DD0AD3DE 		.ascii	"\335\012\323\336\341B5\325)SuS\245\227\201b\261\\\026"
 373      E14235D5 
 373      29537553 
 373      A5978162 
 373      B15C16
 374 11b2 42B35511 		.ascii	"B\263U\021\375\364\237/!H\241r!)S\262\274\3312\355f"
 374      FDF49F2F 
 374      2148A172 
 374      212953B2 
 374      BCD932ED 
 375 11c7 942A4FB1 		.ascii	"\224*O\2618\263\262\204\251\321x'\234\020be\321\010"
 375      38B3B284 
 375      A9D17827 
 375      9C106265 
 375      D108
 376 11d9 28D1573C 		.ascii	"(\321W<\263dD\205\000\3608\356|\2644\250j \220\024\345"
 376      B3644485 
 376      00F038EE 
 376      7CB434A8 
 376      6A209014 
 377 11ee CA444816 		.ascii	"\312DH\026\005\251\030\314'\250\206\322\021t\344\242"
 377      05A918CC 
 377      27A886D2 
 377      1174E4A2 
 378 11fe A04C18E0 		.ascii	"\240L\030\340\214h<a\222\024/\026daR\306\223\002cX\036"
ARM GAS  /tmp/ccnQIHsC.s 			page 30


 378      8C683C61 
 378      92142F16 
 378      646152C6 
 378      93026358 
 379 1213 F7BC984C 		.ascii	"\367\274\230L\012%b\262\360\005Q\232-J\205\345\361x"
 379      0A2562B2 
 379      F005519A 
 379      2D4A85E5 
 379      F178
 380 1225 8263FA7A 		.ascii	"\202c\372zN\224\377\031\254G*\223\347\2758R\273\363"
 380      4E94FF19 
 380      AC472A93 
 380      E7BD3852 
 380      BBF3
 381 1237 82583EEB 		.ascii	"\202X>\353\305\377\005q\247\375\017"
 381      C5FF0571 
 381      A7FD0F
 382              		.text
 383              		.section	.gnu.lto_.symtab.454ad8d28d90c14,"",%progbits
 384 0000 74657374 		.ascii	"test_sequence_006\000\000\000\000\000\000\000\000\000"
 384      5F736571 
 384      75656E63 
 384      655F3030 
 384      36000000 
 385 001a 000000EB 		.ascii	"\000\000\000\353\001\000\000test_step\000\000\002\000"
 385      01000074 
 385      6573745F 
 385      73746570 
 385      00000200 
 386 002e 00000000 		.ascii	"\000\000\000\000\000\000\000\000\225\001\000\000wa\000"
 386      00000000 
 386      95010000 
 386      776100
 387 003d 00020000 		.ascii	"\000\002\000\000\000\000\000\000\000\000\000\227\001"
 387      00000000 
 387      00000097 
 387      01
 388 004a 00006368 		.ascii	"\000\000ch\000\000\002\000\000\000\000\000\000\000\000"
 388      00000200 
 388      00000000 
 388      000000
 389 0059 009C0100 		.ascii	"\000\234\001\000\000threads\000\000\002\000\000\000"
 389      00746872 
 389      65616473 
 389      00000200 
 389      0000
 390 006b 00000000 		.ascii	"\000\000\000\000\000\000\350\001\000\000_test_asser"
 390      0000E801 
 390      00005F74 
 390      6573745F 
 390      61737365 
 391 0080 745F7365 		.ascii	"t_sequence\000\000\002\000\000\000\000\000\000\000\000"
 391      7175656E 
 391      63650000 
 391      02000000 
 391      00000000 
 392 0095 00C00000 		.ascii	"\000\300\000\000\000test_wait_threads\000\000\002\000"
ARM GAS  /tmp/ccnQIHsC.s 			page 31


 392      00746573 
 392      745F7761 
 392      69745F74 
 392      68726561 
 393 00af 00000000 		.ascii	"\000\000\000\000\000\000\000\000\313\000\000\000tes"
 393      00000000 
 393      CB000000 
 393      746573
 394 00be 745F656D 		.ascii	"t_emit_token\000\000\002\000\000\000\000\000\000\000"
 394      69745F74 
 394      6F6B656E 
 394      00000200 
 394      00000000 
 395 00d4 0000CD00 		.ascii	"\000\000\315\000\000\000chMsgRelease\000\000\002\000"
 395      00006368 
 395      4D736752 
 395      656C6561 
 395      73650000 
 396 00ea 00000000 		.ascii	"\000\000\000\000\000\000\000\000\321\000\000\000chM"
 396      00000000 
 396      D1000000 
 396      63684D
 397 00f9 73675761 		.ascii	"sgWait\000\000\002\000\000\000\000\000\000\000\000\000"
 397      69740000 
 397      02000000 
 397      00000000 
 397      0000
 398 010b 7F010000 		.ascii	"\177\001\000\000chThdCreateStatic\000\000\002\000\000"
 398      63685468 
 398      64437265 
 398      61746553 
 398      74617469 
 399 0125 00000000 		.ascii	"\000\000\000\000\000\000\000\202\001\000\000chMsgSe"
 399      00000082 
 399      01000063 
 399      684D7367 
 399      5365
 400 0137 6E640000 		.ascii	"nd\000\000\002\000\000\000\000\000\000\000\000\000\220"
 400      02000000 
 400      00000000 
 400      000090
 401 0146 010000   		.ascii	"\001\000\000"
 402              		.text
 403              		.section	.gnu.lto_.opts,"",%progbits
 404 0000 272D6D63 		.ascii	"'-mcpu=cortex-m0' '-mno-thumb-interwork' '-mthumb' "
 404      70753D63 
 404      6F727465 
 404      782D6D30 
 404      2720272D 
 405 0033 272D6767 		.ascii	"'-ggdb' '-O2' '-fomit-frame-pointer' '-falign-funct"
 405      64622720 
 405      272D4F32 
 405      2720272D 
 405      666F6D69 
 406 0066 696F6E73 		.ascii	"ions=16' '-ffunction-sections' '-fdata-sections' '-"
 406      3D313627 
 406      20272D66 
ARM GAS  /tmp/ccnQIHsC.s 			page 32


 406      66756E63 
 406      74696F6E 
 407 0099 666E6F2D 		.ascii	"fno-common' '-flto'\000"
 407      636F6D6D 
 407      6F6E2720 
 407      272D666C 
 407      746F2700 
 408              		.text
 409              		.cfi_sections	.debug_frame
 410              		.section	.text.test_006_001_execute,"ax",%progbits
 411              		.align	2
 412              		.p2align 4,,15
 413              		.code	16
 414              		.thumb_func
 415              		.type	test_006_001_execute, %function
 416              	test_006_001_execute:
 417              	.LFB180:
 418              		.file 1 "../../../test/rt/source/test/test_sequence_006.c"
 419              		.loc 1 76 0
 420              		.cfi_startproc
 421 0000 30B5     		push	{r4, r5, lr}
 422              		.cfi_def_cfa_offset 12
 423              		.cfi_offset 4, -12
 424              		.cfi_offset 5, -8
 425              		.cfi_offset 14, -4
 426              		.loc 1 81 0
 427 0002 144C     		ldr	r4, .L5
 428 0004 0123     		mov	r3, #1
 429 0006 2360     		str	r3, [r4]
 430              	.LBB13:
 431              	.LBB14:
 432              	.LBB15:
 433              	.LBB16:
 434              		.file 2 "../../../os/rt/include/chthreads.h"
 435              		.loc 2 277 0
 436 0008 134B     		ldr	r3, .L5+4
 437              	.LBE16:
 438              	.LBE15:
 439              	.LBE14:
 440              	.LBE13:
 441              		.loc 1 76 0
 442 000a 83B0     		sub	sp, sp, #12
 443              		.cfi_def_cfa_offset 24
 444              	.LBB20:
 445              	.LBB19:
 446              	.LBB18:
 447              	.LBB17:
 448              		.loc 2 277 0
 449 000c 9B69     		ldr	r3, [r3, #24]
 450              	.LBE17:
 451              	.LBE18:
 452              	.LBE19:
 453              	.LBE20:
 454              		.loc 1 83 0
 455 000e A421     		mov	r1, #164
 456 0010 9A68     		ldr	r2, [r3, #8]
 457 0012 0093     		str	r3, [sp]
ARM GAS  /tmp/ccnQIHsC.s 			page 33


 458 0014 114B     		ldr	r3, .L5+8
 459 0016 0132     		add	r2, r2, #1
 460 0018 1868     		ldr	r0, [r3]
 461 001a 4900     		lsl	r1, r1, #1
 462 001c 104B     		ldr	r3, .L5+12
 463 001e FFF7FEFF 		bl	chThdCreateStatic
 464              	.LVL0:
 465 0022 104B     		ldr	r3, .L5+16
 466 0024 1860     		str	r0, [r3]
 467              		.loc 1 89 0
 468 0026 0223     		mov	r3, #2
 469 0028 2360     		str	r3, [r4]
 470              	.LVL1:
 471 002a 0424     		mov	r4, #4
 472              	.LVL2:
 473              	.L3:
 474              	.LBB21:
 475              		.loc 1 94 0 discriminator 2
 476 002c FFF7FEFF 		bl	chMsgWait
 477              	.LVL3:
 478              	.LBE21:
 479              		.loc 1 77 0 discriminator 2
 480 0030 456A     		ldr	r5, [r0, #36]
 481              	.LVL4:
 482 0032 013C     		sub	r4, r4, #1
 483              	.LVL5:
 484              	.LBB22:
 485              		.loc 1 96 0 discriminator 2
 486 0034 291C     		mov	r1, r5
 487 0036 FFF7FEFF 		bl	chMsgRelease
 488              	.LVL6:
 489              		.loc 1 97 0 discriminator 2
 490 003a E8B2     		uxtb	r0, r5
 491 003c FFF7FEFF 		bl	test_emit_token
 492              	.LVL7:
 493              		.loc 1 93 0 discriminator 2
 494 0040 002C     		cmp	r4, #0
 495 0042 F3D1     		bne	.L3
 496              		.loc 1 99 0
 497 0044 FFF7FEFF 		bl	test_wait_threads
 498              	.LVL8:
 499              		.loc 1 100 0
 500 0048 0749     		ldr	r1, .L5+20
 501 004a 0848     		ldr	r0, .L5+24
 502 004c FFF7FEFF 		bl	_test_assert_sequence
 503              	.LVL9:
 504              	.LBE22:
 505              		.loc 1 102 0
 506 0050 03B0     		add	sp, sp, #12
 507              		@ sp needed
 508 0052 30BD     		pop	{r4, r5, pc}
 509              	.L6:
 510              		.align	2
 511              	.L5:
 512 0054 00000000 		.word	test_step
 513 0058 00000000 		.word	ch
 514 005c 00000000 		.word	wa
ARM GAS  /tmp/ccnQIHsC.s 			page 34


 515 0060 00000000 		.word	msg_thread1
 516 0064 00000000 		.word	threads
 517 0068 08000000 		.word	.LC7
 518 006c 00000000 		.word	.LC5
 519              		.cfi_endproc
 520              	.LFE180:
 521              		.size	test_006_001_execute, .-test_006_001_execute
 522              		.section	.text.msg_thread1,"ax",%progbits
 523              		.align	2
 524              		.p2align 4,,15
 525              		.code	16
 526              		.thumb_func
 527              		.type	msg_thread1, %function
 528              	msg_thread1:
 529              	.LFB179:
 530              		.loc 1 50 0
 531              		.cfi_startproc
 532              	.LVL10:
 533 0000 10B5     		push	{r4, lr}
 534              		.cfi_def_cfa_offset 8
 535              		.cfi_offset 4, -8
 536              		.cfi_offset 14, -4
 537              		.loc 1 52 0
 538 0002 4121     		mov	r1, #65
 539              		.loc 1 50 0
 540 0004 041C     		mov	r4, r0
 541              		.loc 1 52 0
 542 0006 FFF7FEFF 		bl	chMsgSend
 543              	.LVL11:
 544              		.loc 1 53 0
 545 000a 201C     		mov	r0, r4
 546 000c 4221     		mov	r1, #66
 547 000e FFF7FEFF 		bl	chMsgSend
 548              	.LVL12:
 549              		.loc 1 54 0
 550 0012 201C     		mov	r0, r4
 551 0014 4321     		mov	r1, #67
 552 0016 FFF7FEFF 		bl	chMsgSend
 553              	.LVL13:
 554              		.loc 1 55 0
 555 001a 201C     		mov	r0, r4
 556 001c 4421     		mov	r1, #68
 557 001e FFF7FEFF 		bl	chMsgSend
 558              	.LVL14:
 559              		.loc 1 56 0
 560              		@ sp needed
 561              	.LVL15:
 562 0022 10BD     		pop	{r4, pc}
 563              		.cfi_endproc
 564              	.LFE179:
 565              		.size	msg_thread1, .-msg_thread1
 566              		.global	test_sequence_006
 567 0024 C046C046 		.section	.rodata.test_sequence_006,"a",%progbits
 567      C046C046 
 567      C046C046 
 568              		.align	2
 569              		.type	test_sequence_006, %object
ARM GAS  /tmp/ccnQIHsC.s 			page 35


 570              		.size	test_sequence_006, 8
 571              	test_sequence_006:
 572 0000 00000000 		.word	test_006_001
 573 0004 00000000 		.word	0
 574              		.section	.rodata.str1.4,"aMS",%progbits,1
 575              		.align	2
 576              	.LC5:
 577 0000 41424344 		.ascii	"ABCD\000"
 577      00
 578 0005 000000   		.space	3
 579              	.LC7:
 580 0008 696E7661 		.ascii	"invalid sequence\000"
 580      6C696420 
 580      73657175 
 580      656E6365 
 580      00
 581 0019 000000   		.space	3
 582              	.LC9:
 583 001c 4D657373 		.ascii	"Messages Server loop\000"
 583      61676573 
 583      20536572 
 583      76657220 
 583      6C6F6F70 
 584 0031 000000   		.section	.rodata.test_006_001,"a",%progbits
 585              		.align	2
 586              		.type	test_006_001, %object
 587              		.size	test_006_001, 16
 588              	test_006_001:
 589 0000 1C000000 		.word	.LC9
 590 0004 00000000 		.word	0
 591 0008 00000000 		.word	0
 592 000c 00000000 		.word	test_006_001_execute
 593              		.text
 594              	.Letext0:
 595              		.file 3 "/usr/lib/gcc/arm-none-eabi/4.8/include/stddef.h"
 596              		.file 4 "/usr/include/newlib/machine/_default_types.h"
 597              		.file 5 "/usr/include/newlib/stdint.h"
 598              		.file 6 "../../../os/common/ports/ARMCMx/compilers/GCC/chtypes.h"
 599              		.file 7 "../../../os/rt/include/chsystypes.h"
 600              		.file 8 "../../../os/rt/include/chschd.h"
 601              		.file 9 "../../../os/common/ports/ARMCMx/chcore.h"
 602              		.file 10 "../../../os/common/ports/ARMCMx/chcore_v6m.h"
 603              		.file 11 "../../../os/rt/include/chsem.h"
 604              		.file 12 "../../../os/rt/include/chmtx.h"
 605              		.file 13 "../../../test/lib/ch_test.h"
 606              		.file 14 "../../../test/rt/source/test/test_root.h"
 607              		.file 15 "../../../os/rt/include/chmsg.h"