ARM GAS  /tmp/cc2L2Wn2.s 			page 1


   1              		.cpu cortex-m0
   2              		.fpu softvfp
   3              		.eabi_attribute 20, 1
   4              		.eabi_attribute 21, 1
   5              		.eabi_attribute 23, 3
   6              		.eabi_attribute 24, 1
   7              		.eabi_attribute 25, 1
   8              		.eabi_attribute 26, 1
   9              		.eabi_attribute 30, 2
  10              		.eabi_attribute 34, 0
  11              		.eabi_attribute 18, 4
  12              		.code	16
  13              		.file	"test_root.c"
  14              		.text
  15              	.Ltext0:
  16              		.section	.gnu.lto_.jmpfuncs.f281097c613eb6c4,"",%progbits
  17 0000 789C6362 		.ascii	"x\234cb`b\300\006$\24043\003\003#\003P\015#\210\311"
  17      6062C006 
  17      24A03433 
  17      03032303 
  17      500D2388 
  18 0015 C814C198 		.ascii	"\310\024\301\230\311\010b3\000\000\012\364\000\356"
  18      C9086233 
  18      00000AF4 
  18      00EE
  19              		.text
  20              		.section	.gnu.lto_.inline.f281097c613eb6c4,"",%progbits
  21 0000 789C6362 		.ascii	"x\234cb`b\300\006\202\24143\003\003\367\011\006F\006"
  21      6062C006 
  21      82A13433 
  21      0303F709 
  21      064606
  22 0013 269E179F 		.ascii	"&\236\027\237\231\031\330\026\310\203\2253q320N\360"
  22      9919D816 
  22      C8839533 
  22      71333230 
  22      4EF0
  23 0025 6362E039 		.ascii	"cb\3409\003\222\343[\263\212\005]\216\231\201C\000("
  23      0392E35B 
  23      B38A055D 
  23      8E998143 
  23      0028
  24 0037 C5F6410F 		.ascii	"\305\366A\017I\206\001\250\232\001\000\033\350\012\337"
  24      498601A8 
  24      9A01001B 
  24      E80ADF
  25              		.text
  26              		.section	.gnu.lto_.pureconst.f281097c613eb6c4,"",%progbits
  27 0000 789C6362 		.ascii	"x\234cb`b`g\200\000f\006\011&\011f+\000\001\341\000"
  27      60626067 
  27      80006606 
  27      09260966 
  27      2B0001E1 
  28 0015 7E       		.ascii	"~"
  29              		.text
  30              		.section	.gnu.lto_test_terminate_threads.f281097c613eb6c4,"",%progbits
  31 0000 789C5D92 		.ascii	"x\234]\222\277k\024A\024\307\277\337\231\235\335\365"
ARM GAS  /tmp/cc2L2Wn2.s 			page 2


  31      BF6B1441 
  31      14C7BFDF 
  31      999DDDF5 
  32 0010 47402BDB 		.ascii	"G@+\333\240\225\220\273#M\376\007\373\\\210\225\204"
  32      A09590BB 
  32      234DFE07 
  32      FB5C8895 
  32      84
  33 0021 251C5BC8 		.ascii	"%\034[\310\301\335YYd6w\2014\301`\245I\223#\215\205"
  33      C1DD5959 
  33      64367781 
  33      34C160A5 
  33      4993238D 
  34 0036 E01F1085 		.ascii	"\340\037\020\205\013\026z\205\212\245`\261X\244\012"
  34      0B167A85 
  34      8AA560B1 
  34      58A40A
  35 0045 D6171338 		.ascii	"\326\027\0238\337\354\354\336E\207\335y\363f\336\373"
  35      DFECECDE 
  35      4587DD79 
  35      F366DEFB 
  36 0055 BC1F330A 		.ascii	"\274\0373\012\012\377\2175\371\257\010\324D2\006\325"
  36      0AFF8F35 
  36      F9AF08D4 
  36      443206D5 
  37 0065 FE57208B 		.ascii	"\376W \213\025C\277\320*\370\264\002{\323\214\357\301"
  37      1543BFD0 
  37      2AF8B402 
  37      7BD38CEF 
  37      C1
  38 0076 DE0E68FC 		.ascii	"\336\016h\374\266\361\347\247q\250\364\336)\304 \352"
  38      B6F1E7A7 
  38      71A8F4DE 
  38      29C420EA 
  39 0086 2F884144 		.ascii	"/\210AD\272}\020[J\007&\214\270\365\230.\016\357ch\355"
  39      BA7D105B 
  39      4A07268C 
  39      B8F5982E 
  39      0EEF6368 
  40 009b CB7CE732 		.ascii	"\313|\3472\347k;\032\034\331\253\351\224L)9-\021\011"
  40      E76B3B1A 
  40      1CD9ABE9 
  40      944C2939 
  40      2D1109
  41 00ae B12E0A17 		.ascii	"\261.\012\027\013\241\202\177\223|\247F\371t\372\376"
  41      0BA1827F 
  41      937CA746 
  41      F974FAFE 
  42 00be C3DB5F17 		.ascii	"\303\333_\027\274\033\023\033\034\012\317 \245\216J"
  42      BC1B131B 
  42      1C0ACF20 
  42      A58E4A
  43 00cd 4586C1C0 		.ascii	"E\206\301\300\332\375\305JO\212\270\2532KfM*\021z\214"
  43      DAFDC54A 
  43      4F8AB8AB 
  43      324B664D 
  43      2A117A8C 
ARM GAS  /tmp/cc2L2Wn2.s 			page 3


  44 00e1 EDFCF7C7 		.ascii	"\355\374\367\307p\203\3074\245\243\2137\013\324\244"
  44      7083C734 
  44      A5A38B37 
  44      0BD4A4
  45 00f0 8694A3BF 		.ascii	"\206\224\243\277`\373\347\344r\244\274a\213\246\206"
  45      60FBE7E4 
  45      72A4BC61 
  45      8BA686
  46 00ff 25097688 		.ascii	"%\011v\210\203\314\332;)\203\347\370cw\335\312<-\274"
  46      83CCDA3B 
  46      2983E7F8 
  46      6377DDCA 
  46      3C2DBC
  47 0112 1DC51488 		.ascii	"\035\305\024\210\026\347\270\317\030\234g\3133\2103"
  47      16E7B8CF 
  47      189C67CB 
  47      338833
  48 0121 D2D7EB6A 		.ascii	"\322\327\353j2\300IM\177\303 \237\034\337\362v\300\214"
  48      32C0494D 
  48      7FC3209F 
  48      1CDFF276 
  48      C08C
  49 0133 1D26254B 		.ascii	"\035&%K|SF\225\217)S\354\357\366O^<\252\350\221\004"
  49      7C534695 
  49      8F2953EC 
  49      EFF64F5E 
  49      3CAAE891 
  50 0148 2E6A712E 		.ascii	".jq.c\250\3535\266\346\316!\344~\\\037b\314\016Ydz\226"
  50      63A8EB35 
  50      B6E6CE21 
  50      E47E5C1F 
  50      62CC0E59 
  51 015f 4515CB83 		.ascii	"E\025\313\203\346\227\360\003,\333\244\336h\201\231"
  51      E697F003 
  51      2CDBA4DE 
  51      688199
  52 016e 57371C2B 		.ascii	"W7\034+r-\375\216,\277xP\345\356\307\252 \373\013\356"
  52      722DFD8E 
  52      2CBF7850 
  52      E5EEC7AA 
  52      20FB0BEE 
  53 0182 B13DACD7 		.ascii	"\261=\254\327\033\376\353mv{\215N\257\321m?\353$\233"
  53      1BFEEB6D 
  53      767B8D4E 
  53      AFD16D3F 
  53      EB249B
  54 0195 5E75D393 		.ascii	"^u\323\223N\273\335\253'`\372\027c\356\207\024"
  54      4EBBDDAB 
  54      2760FA17 
  54      63EE8714 
  55              		.text
  56              		.section	.gnu.lto_test_wait_threads.f281097c613eb6c4,"",%progbits
  57 0000 789C9552 		.ascii	"x\234\225R\277k\024A\024\376\276\231\235\335M0 6\266"
  57      BF6B1441 
  57      14FEBE99 
  57      9DDD4D30 
  57      2036B6
ARM GAS  /tmp/cc2L2Wn2.s 			page 4


  58 0013 41B01072 		.ascii	"A\260\020rw\330\330\371\007\010\2269\321J\302\022\302"
  58      77D8D8F9 
  58      07089639 
  58      D14AC212 
  58      C2
  59 0024 16E1E072 		.ascii	"\026\341\340rV\026\231\315\235\020\021C\020\213D\033"
  59      561699CD 
  59      9D101143 
  59      108B441B 
  60 0034 630A5304 		.ascii	"c\012S\004\322\006,\314\025b\256PI\247`\261\026Z\345"
  60      D2062CCC 
  60      1562AE50 
  60      49A760B1 
  60      165AE5
  61 0047 0F084158 		.ascii	"\017\010AX\337\354\354^\022;\037\2733\363~}\357{oFA"
  61      DFECEC5E 
  61      123B1FBB 
  61      33F37E7D 
  61      EF7B6F46 
  62 005c E15FB927 		.ascii	"\341_\271'\377]17dg\014\252\365/@\026+\206\376\240U"
  62      FF5D3137 
  62      64670CAA 
  62      F52F4016 
  62      2B86FEA0 
  63 0071 F0E916EC 		.ascii	"\360\351\026\354\244\031]\205\275\024\320x\263\361\376"
  63      A4195D85 
  63      BD14D078 
  63      B3F1FE
  64 0080 611C2AFD 		.ascii	"a\034*\375|\010\011\210\372S\022\020\221\316\016bY\351"
  64      7C080988 
  64      FA531210 
  64      91CE0E62 
  64      59E9
  65 0092 C0841197 		.ascii	"\300\204\021\227\037\320\325\3415lY\373\"\377U\344\334"
  65      1FD0D5E1 
  65      356C59FB 
  65      22FF55E4 
  65      DC
  66 00a3 B4078337 		.ascii	"\264\007\2037\366OQ\220)\205\323\014\221\020\367E\341"
  66      F64F5190 
  66      2985D30C 
  66      9110F745 
  66      E1
  67 00b4 74B9A9E0 		.ascii	"t\271\251\340\"\311=u\220\027\305\361\207\223\237k\274"
  67      22C93D75 
  67      9017C5F1 
  67      87939F6B 
  67      BC
  68 00c5 3241CC71 		.ascii	"2A\314qK\360\014R\352\270RD\014\006\326\256O\327zR\326"
  68      4BF00C52 
  68      EAB85244 
  68      0C06D6AE 
  68      4FD77A52 
  69 00da 9D955598 		.ascii	"\235\225U\230\265\251d\323#\254\344O?\206s\334\246\251"
  69      B5A964D3 
  69      23ACE44F 
  69      3F8673DC 
ARM GAS  /tmp/cc2L2Wn2.s 			page 5


  69      A6A9
  70 00ec 125DBD71 		.ascii	"\022]\275q\24165\244\035\375\031+?\276\275\035*\037"
  70      A13635A4 
  70      1DFD192B 
  70      3FBEBD1D 
  70      2A1F
  71 00fe B840D3C0 		.ascii	"\270@\323\300\214\024{\215W\231\265\227S\006\217qjW"
  71      8C147B8D 
  71      5799B597 
  71      53068F71 
  71      6A57
  72 0110 DDC92C96 		.ascii	"\335\311,\226\331\016\305\224\020\013<\203;\304\340"
  72      D90EC594 
  72      100B3C83 
  72      3BC4E0
  73 011f 38BB3906 		.ascii	"8\2739\006qA\372|_m\006x\337\320_1\310\237=\231\364"
  73      7141FA7C 
  73      5F6D0678 
  73      DFD05F31 
  73      C89F3D99 
  74 0134 71C0183B 		.ascii	"q\300\030;L*,\311M\031\001Bk\177c\373\250\242\325\300"
  74      4C2A2CC9 
  74      4D190142 
  74      6B7F63FB 
  74      A8A2D5C0 
  75 0148 AE15B9FD 		.ascii	"\256\025\271\375\337\304.\360h\213\333\267\334_\355"
  75      DFC42EF0 
  75      688BDBB7 
  75      DC5FED
  76 0157 BF7B79A7 		.ascii	"\277{y\247f\033K|9\033\2275\202:?3\361\326\311!\344"
  76      661B4B7C 
  76      391B9735 
  76      823A3F33 
  76      F1D6C921 
  77 016c BEDD5CC5 		.ascii	"\276\335\\\305R;Yv\376;\213j,\017tv\251\337\301j\354"
  77      523B5976 
  77      FE3B8B6A 
  77      2C0F7476 
  77      A9DFC16A 
  78 0181 6A470B98 		.ascii	"jG\013\230\331\230pX\221\273\242#d\371\332\365z\026"
  78      D9987058 
  78      91BBA223 
  78      64F9DAF5 
  78      7A16
  79 0193 5E6605B2 		.ascii	"^f\005\262?\345\036\357\215f\263\345\277\336\374R\257"
  79      3FE51EEF 
  79      8D66B3E5 
  79      BFDEFC52 
  79      AF
  80 01a4 D5EDB596 		.ascii	"\325\355\265\226:\217\272\311\274W\335\362\260\333\351"
  80      3A8FBAC9 
  80      BC57DDF2 
  80      B0DBE9
  81 01b3 F49A0998 		.ascii	"\364\232\011\230\376\005an\226\272"
  81      FE05616E 
  81      96BA
  82              		.text
ARM GAS  /tmp/cc2L2Wn2.s 			page 6


  83              		.section	.gnu.lto_test_wait_tick.f281097c613eb6c4,"",%progbits
  84 0000 789C8D52 		.ascii	"x\234\215RMh\023A\024~o\223t\023c\245GEIKO\212\230\241"
  84      4D681341 
  84      147E6F93 
  84      741363A5 
  84      4745494B 
  85 0018 2D7856EA 		.ascii	"-xV\352\245\320\200\230\010z\012q\262$\013\331n\331"
  85      A5D08098 
  85      087A0A71 
  85      B2240BD9 
  85      6ED9
  86 002a DD86160F 		.ascii	"\335\206\026\017\335\324\200\242(!\210\370Wk\301\242"
  86      DDD480A2 
  86      282188F8 
  86      576BC1A2 
  87 003a 15AC37CF 		.ascii	"\025\2547\317\301\203(\322\004\351\251\232CQ<xP\033"
  87      C18328D2 
  87      04E9A99A 
  87      43513C78 
  87      501B
  88 004c 7A29B524 		.ascii	"z)\265$\276\331m\327`,\270\354\233\331\231\367\315\367"
  88      BED96DD7 
  88      602CB8EC 
  88      9BD999F7 
  88      CDF7
  89 005e BEF7CD4A 		.ascii	"\276\367\315J \301\337\317!\212\253\264}\026\001\320"
  89      20C1DFCF 
  89      218AABB4 
  89      7D1601D0 
  90 006e 072895AA 		.ascii	"\007(\225\252\000\205\240\204(>\000aZ\302\351\213\350"
  90      0085A084 
  90      283E0061 
  90      5AC2E98B 
  90      E8
  91 007f 605F4A95 		.ascii	"`_J\225\265Vk\351\325\365'\333\270(\005\375\240\"\004"
  91      B5566BE9 
  91      D5F527DB 
  91      B82805FD 
  91      A02204
  92 0092 6810D900 		.ascii	"h\020\331\000\024m\273\324\007\300\035l\202FAp\036%"
  92      146DBBD4 
  92      07C01D6C 
  92      82464170 
  92      1E25
  93 00a4 31FB6A50 		.ascii	"1\373jP\\\233]\220S8\217\001J_\206-\373\232\335\243"
  93      5C9B5D90 
  93      53388F01 
  93      4A5F862D 
  93      FB9ADDA3 
  94 00b8 A2C4D1E5 		.ascii	"\242\304\321\345\276\200\304\203D\346\003\250B\241Q"
  94      BE80C483 
  94      44E603A8 
  94      42A151
  95 00c7 7FF4063D 		.ascii	"\177\364\006=N\367\243\362\353\346\367\360Qo\265q{3"
  95      4EF7A3F2 
  95      EBE6F7F0 
  95      516FB571 
ARM GAS  /tmp/cc2L2Wn2.s 			page 7


  95      7B33
  96 00d9 7CC45B35 		.ascii	"|\304[5\356l\311\236\212~\230\267\355r\245Q\273u\320"
  96      EE6CC99E 
  96      8A7E98B7 
  96      ED72A551 
  96      BB75D0
  97 00ec 7E5C28D9 		.ascii	"~\\(\331\315VK\320K\360\236J\220@Q\314\337\343L\201"
  97      CD564BD0 
  97      4BF09E4A 
  97      904051CC 
  97      DFE34C81 
  98 0100 0E4B7608 		.ascii	"\016Kv\010o\324\006\001\\\275\034\035\020'm\034\375"
  98      6FD40601 
  98      5CBD1C1D 
  98      10276D1C 
  98      FD
  99 0111 14011789 		.ascii	"\024\001\027\211\260B[N.\002u\234\265\357\236R\261\313"
  99      B0425B4E 
  99      2E02759C 
  99      B5EF9E52 
  99      B1CB
 100 0123 CD2DC3EB 		.ascii	"\315-\303\353\217\0177\276-\226;\272\370\262\360\311"
 100      8F0F37BE 
 100      2D963BBA 
 100      F8B2F0C9 
 101 0133 E76BD3BD 		.ascii	"\347k\323\275\352\351\266\177\316\035\0265\237:5\273"
 101      EAE9B67F 
 101      CE1D1635 
 101      9F3A35BB 
 102 0143 28648AA0 		.ascii	"(d\212\240\240\313\240\3778<\267\213\205\265{\265j\031"
 102      A0CBA0FF 
 102      383CB78B 
 102      85B57BB5 
 102      6A19
 103 0155 FD2ACA0F 		.ascii	"\375*\312\017\340>\265F\036\006E\037!\362\323\366;-"
 103      E03EB546 
 103      1E06451F 
 103      21F2D3F6 
 103      3B2D
 104 0167 851C0197 		.ascii	"\205\034\001\227\204\257)\\r\305.\303\314\217+\007R"
 104      84AF295C 
 104      72C52EC3 
 104      CC8F2B07 
 104      52
 105 0178 F8829619 		.ascii	"\370\202\226\031\014\020\035\300;\230Y\257\177m\256"
 105      0C101DC0 
 105      3B9859AF 
 105      7F6DAE
 106 0187 A25B3185 		.ascii	"\242[1\205\317\260\3379\352\370\277\331\335i\1773\334"
 106      CFB0DF39 
 106      EAF8BFD9 
 106      DD697F33 
 106      DC
 107 0198 DB66FF5C 		.ascii	"\333f\377\\w\244\355\336\275~\266\345?=\204\\\337\366"
 107      77A4EDDE 
 107      BD7EB6E5 
 107      3F3D845C 
ARM GAS  /tmp/cc2L2Wn2.s 			page 8


 107      DFF6
 108 01aa 5184773D 		.ascii	"Q\204w={+\355\345\331\007(\254\177^\331\357\232\236"
 108      7B2BEDE5 
 108      D90728AC 
 108      7F5ED9EF 
 108      9A9E
 109 01bc D9753941 		.ascii	"\331u9AwF\277\2208r,\032e\356k)\246\305\014\213\231"
 109      7746BF90 
 109      38722C1A 
 109      65EE6B29 
 109      A6C50C8B 
 110 01d1 FA84C115 		.ascii	"\372\204\301\025w)\206\244\241\353V\224\303\200\207"
 110      772986A4 
 110      A1EB5694 
 110      C38087
 111 01e0 D44DC675 		.ascii	"\324M\306uM\323\307\2302i\261\341X|$\316\3241\236\233"
 111      4DD3C798 
 111      3269B1E1 
 111      587C24CE 
 111      D4319E9B 
 112 01f4 482B8C6B 		.ascii	"H+\214k\246j&3\234G\263p\342\037'\306u\3032\331\351"
 112      A66A2633 
 112      9C47B370 
 112      E21F27C6 
 112      75C332D9 
 113 0209 73B1E1D8 		.ascii	"s\261\341\330$\343Y\256\033J2\177R#to;\232tx\214Ys\312"
 113      24E359AE 
 113      1B4A327F 
 113      5223746F 
 113      3B9A7478 
 114 0221 A47C64CF 		.ascii	"\244|d\317|\336\242\264L(K\325\224 \0377\325t\237\012"
 114      7CDEA2B4 
 114      4C284BD5 
 114      94201F37 
 114      D5749F0A 
 115 0235 B2A668BA 		.ascii	"\262\246h\2721\005C\355\347\262\251\334\216\204x\"6"
 115      310543ED 
 115      E7B2A9DC 
 115      8E847822 
 115      36
 116 0246 34C84647 		.ascii	"4\310FG\317\260\304H,? 2Ij6\227K\023\031\373O\345\242"
 116      CFB0C448 
 116      2C3F2032 
 116      496A3697 
 116      4B1319FB 
 117 025d A04178A7 		.ascii	"\240Ax\247\250BE\177\003\315\362\027\221"
 117      A842457F 
 117      03CDF217 
 117      91
 118              		.text
 119              		.section	.gnu.lto_.symbol_nodes.f281097c613eb6c4,"",%progbits
 120 0000 789C4DCD 		.ascii	"x\234M\3157\016\002A\020D\321\3763;x\023\000\347\355"
 120      370E0241 
 120      1044D1FE 
 120      333B7813 
 120      00E7ED
 121 0013 95480839 		.ascii	"\225H\0109\00119\336{\023q\006\020w Dlk\021K'OU*\251"
ARM GAS  /tmp/cc2L2Wn2.s 			page 9


 121      013139DE 
 121      7B137106 
 121      10772044 
 121      6C6B114B 
 122 002c 9D3879C8 		.ascii	"\2358y\310\367\334\004\025\351\336DT{\035\302\010\011"
 122      F7DC0415 
 122      E9DE4454 
 122      7B1DC208 
 122      09
 123 003d 2A6E8A92 		.ascii	"*n\212\222\265n\206\272\277\321\030\222Q\030\342\214"
 123      B56E86BA 
 123      BFD11892 
 123      5118E28C 
 124 004d 01DE9813 		.ascii	"\001\336\230\023I\302\202`,\311\031+\362\306\232\202"
 124      49C28260 
 124      2CC9192B 
 124      F2C69A82 
 125 005d B1A1686C 		.ascii	"\261\241hl)\031;\312\306\236\212q\240j\034\251\031'"
 125      29193BCA 
 125      C69E8A71 
 125      A06A1CA9 
 125      1927
 126 006f EA099C51 		.ascii	"\352\011\234Q\237\376\215c\270\240Q\226\256h\370%/\015"
 126      9FFE8D63 
 126      B8A05196 
 126      AE68F825 
 126      2F0D
 127 0081 79F65F39 		.ascii	"y\366_9\357\232\251\276%\355\373\033\371\000u\2608\000"
 127      EF9AA9BE 
 127      25EDFB1B 
 127      F90075B0 
 127      3800
 128              		.text
 129              		.section	.gnu.lto_.refs.f281097c613eb6c4,"",%progbits
 130 0000 789C35C2 		.ascii	"x\2345\302\211\015\300 \020\304\300=\213?\204\257\023"
 130      890DC020 
 130      10C4C03D 
 130      8B3F84AF 
 130      13
 131 0011 FA6F2E91 		.ascii	"\372o.\221\020\036#\264u\262\177\220\231y\207\277j "
 131      101E23B4 
 131      75B27F90 
 131      997987BF 
 131      6A20
 132 0023 92C8141E 		.ascii	"\222\310\024\036*/\215\316`\262\364\001\035\027\001"
 132      2A2F8DCE 
 132      60B2F401 
 132      1D1701
 133 0032 2B       		.ascii	"+"
 134              		.text
 135              		.section	.gnu.lto_.decls.f281097c613eb6c4,"",%progbits
 136 0000 789CBD5B 		.ascii	"x\234\275[\015p\024U\236\357\217I&C\"\237\267\026\336"
 136      0D701455 
 136      9EEF8F49 
 136      2643229F 
 136      B716DE
 137 0013 AD12F7F4 		.ascii	"\255\022\367\364\\\255[\222\000b\254\272U\274`\271V"
ARM GAS  /tmp/cc2L2Wn2.s 			page 10


 137      5CAD5B92 
 137      0062ACBA 
 137      55BC60B9 
 137      56
 138 0024 C99E1570 		.ascii	"\311\236\025p\317\252\253\332\331f\322\220Y'3q\246C"
 138      CFAAABDA 
 138      D966D290 
 138      59273371 
 138      A643
 139 0036 E0AEAEEC 		.ascii	"\340\256\256\354$\010,\207k  (!\004\026\026DY\"\230"
 139      24082C87 
 139      6B202028 
 139      21041616 
 139      44592298 
 140 004a 0450A057 		.ascii	"\004P\240W\331\020\303\022C\002\030Ad\020e\221\335c"
 140      D910C312 
 140      43021841 
 140      64106591 
 140      DD63
 141 005c 897C7F39 		.ascii	"\211|\1779\367\177\257\273\247\373\365\274\236\351\016"
 141      F77FAFBB 
 141      A7FBF5BC 
 141      9EE90E
 142 006b EB75E5BD 		.ascii	"\353u\345\275\274\351~\357\367\377|\377\367\177\257"
 142      BCE97EEF 
 142      F7FF7CFF 
 142      F77FAF
 143 007a 67388663 		.ascii	"g8\206c\226\262\014\223\200\353\227?f\030f\010\303x"
 143      96B20C93 
 143      80EB973F 
 143      66186608 
 143      C378
 144 008c E0DF6350 		.ascii	"\340\337cP\3406\263\206Q\257l(oA\331\002e+\2246(/B\207"
 144      E036B386 
 144      51AF6C28 
 144      6F41D902 
 144      652B9436 
 145 00a4 2A28C3A1 		.ascii	"*(\303\241=\007\376\3777\224\371P\020\336\026([\241"
 145      3D07FEFF 
 145      3794F950 
 145      10DE1628 
 145      5BA1
 146 00b6 B442D90E 		.ascii	"\264B\331\016\345=(\273\241\374\036\312^(\373\240tA"
 146      E53D28BB 
 146      A1FC1ECA 
 146      5E28FBA0 
 146      7441
 147 00c8 3900A587 		.ascii	"9\000\245\207e\210\013\321\311\201\222\005e(\224<(;"
 147      65880BD1 
 147      C9819205 
 147      6528943C 
 147      283B
 148 00da A0FC27F4 		.ascii	"\240\374'\364\353\205\322\007\245]\353\313i\375\333"
 148      EB85D207 
 148      A55DEBCB 
 148      69FDDB
 149 00e9 347EE758 		.ascii	"4~\347X\260\266d\300:\004%\312\032X[4\271hX[U\3650^"
ARM GAS  /tmp/cc2L2Wn2.s 			page 11


 149      B0B664C0 
 149      3A0425CA 
 149      1A585B34 
 149      B968585B 
 150 0101 4D2F87E1 		.ascii	"M/\207\341\371,\326\300=\002\355~(\237B\311\343T\214"
 150      F92CD6C0 
 150      3D02ED7E 
 150      289F42C9 
 150      E3548C
 151 0114 F3ACFA0C 		.ascii	"\363\254\372\014\215E\272\272\003\356\017\2072\012\312"
 151      8D45BABA 
 151      03EE0F87 
 151      320ACA
 152 0123 9D50FE01 		.ascii	"\235P\376\001\312=P\356\205r\037\224\007\240<\3041)"
 152      CA3D50EE 
 152      85721F94 
 152      07A03CC4 
 152      3129
 153 0135 978F5920 		.ascii	"\227\217Y \313\265\262<O\376\341F\240\367<+\260C}\240"
 153      CBB5B23C 
 153      4FFEE146 
 153      A0F73C2B 
 153      B0437DA0 
 154 0149 79D4C8F3 		.ascii	"y\324\310\363a\326\357g\326\311r}|\375\312\357\311\036"
 154      61D6EF67 
 154      D6C9727D 
 154      7CFDCAEF 
 154      C91E
 155 015b 815DC3A2 		.ascii	"\201]\303\242\273\017\260\314C\314\2332\334\227\345"
 155      BB0FB0CC 
 155      43CC9B32 
 155      DC97E5
 156 016a B57F9F0A 		.ascii	"\265\177\237\012\353\002w`\307)N\226s\004v=F\376\031"
 156      EB027760 
 156      C7294E96 
 156      7304763D 
 156      46FE19
 157 017d CB08EC3A 		.ascii	"\313\010\354:\366!\3278\211\216\315\217b\234\215\030"
 157      F621D738 
 157      898ECD8F 
 157      629C8D18 
 158 018d E7159604 		.ascii	"\347\025\226\004\022X\336gf\020\177\326; 4\374Xk$\022"
 158      1258DE67 
 158      66107FD6 
 158      3B2034FC 
 158      586B2412 
 159 01a1 3CF31D76 		.ascii	"<\363\035v\036\3034\311\315\361\370@\327%\341uY\231"
 159      1EC334C9 
 159      CDF1F840 
 159      D725E175 
 159      5999
 160 01b3 2B27122F 		.ascii	"+'\022/1w2\313@\235r\363<Yf%\201}\354{\272\254\371\272"
 160      317732CB 
 160      409D72F3 
 160      3C596625 
 160      817DEC7B 
 161 01cb AC1E0DFD 		.ascii	"\254\036\015\375m\366N\255\365\034\257;\330\007\026"
ARM GAS  /tmp/cc2L2Wn2.s 			page 12


 161      6DF64EAD 
 161      F51CAF3B 
 161      D80716
 162 01da 6919E69F 		.ascii	"i\031\346\237\230\365\010O\336(\363\030\015\365\177"
 162      98F5084F 
 162      DE28F318 
 162      0DF57F
 163 01e9 8B1D4332 		.ascii	"\213\035C2\272\231%\\B\345K\271\271/\257\276&\236H\214"
 163      BA99255C 
 163      42E54BB9 
 163      B92FAFBE 
 163      269E488C 
 164 01fd 516971E0 		.ascii	"Qiq\340xN\320\267X\321[\250\350\355]\257\334%7\327*"
 164      784ED0B7 
 164      58D15BA8 
 164      E8ED5DAF 
 164      DC2537D7 
 165 0212 89C4E356 		.ascii	"\211\304\343V\241\221o\331I\275\215\"\365\237\351|\325"
 165      A1916FD9 
 165      49BD8D22 
 165      F59FE97C 
 165      D5
 166 0223 CA2D1BE5 		.ascii	"\312-\033\345,\025\016\015\330\012\214\321\034G\303"
 166      2C150E0D 
 166      D80A8CD1 
 166      1C47C3
 167 0232 7B3795CD 		.ascii	"{7\225\315x}\374\322\307W\352\330\305u\315\235\362\371"
 167      787DFCD2 
 167      C757EAD8 
 167      C575CD9D 
 167      F2F9
 168 0244 4462980B 		.ascii	"Db\230\013\363\264k\214\362*\215\\f!\342\010\006\376"
 168      F3B46B8C 
 168      F22A8D5C 
 168      6621E208 
 168      06FE
 169 0256 A473E848 		.ascii	"\244s\350Hf1B\311\3574\\\271\331\243\003Lf\222\276\374"
 169      663142C9 
 169      EF345CB9 
 169      D9A3034C 
 169      6692BEFC 
 170 026a D5EABBD1 		.ascii	"\325\352\273\321\\\333\311\216\004\220&\216\2242#\010"
 170      5CDBC98E 
 170      0490268E 
 170      94322308 
 171 027a C76CC043 		.ascii	"\307l\300Cv\301pu \206\225\343}\015\307k\331\032\220"
 171      76C17075 
 171      208695E3 
 171      7D0DC76B 
 171      D91A90
 172 028d 407DC658 		.ascii	"@}\306X\224g\272\356e\232a\200r\245\253\221\225\233"
 172      9467BAEE 
 172      659A6180 
 172      72A5AB91 
 172      959B
 173 029f 3F602924 		.ascii	"?`)$'\351\024s\014\266_>\333\351\301S\360\367\230\361"
 173      27E91473 
ARM GAS  /tmp/cc2L2Wn2.s 			page 13


 173      0CB65F3E 
 173      DBE9C153 
 173      F0F798F1 
 174 02b3 5E3AE3CD 		.ascii	"^:\343\315\223\354`8\346\013<do\012\343}\037\353\214"
 174      93EC6038 
 174      E60B3C64 
 174      6F0AE37D 
 174      1FEB8C
 175 02c6 EF75C078 		.ascii	"\357u\300x\255rp\341\252\273\020\343\002\273\203\315"
 175      AD7270E1 
 175      AABB10E3 
 175      02BB83CD 
 176 02d6 05DC0B49 		.ascii	"\005\334\013I\\\232\331\264\246zi\035H\274\336\256\274"
 176      5C9AD9B4 
 176      A67A691D 
 176      48BCDEAE 
 176      BC
 177 02e7 7A4107BB 		.ascii	"zA\007\273\352\032,\237\306\252\356\177\206\264\002"
 177      EA1A2C9F 
 177      C6AAEE7F 
 177      86B402
 178 02f6 DBC1DE0F 		.ascii	"\333\301\336\017\365>\366^\250?\202:yq\314\255\244M"
 178      F53EF65E 
 178      A83F823A 
 178      7971CCAD 
 178      A44D
 179 0308 69AACB2C 		.ascii	"i\252\313,\302\265\256F\254\022-\242\252\016\311PE\320"
 179      C2B5AE46 
 179      AC122DA2 
 179      AA0EC950 
 179      45D0
 180 031a CCB9FC8D 		.ascii	"\314\271\374\215\275\007\331:\254\365\0038\246\276\317"
 180      BD07D93A 
 180      ACF50338 
 180      A6BECF
 181 0329 5383B303 		.ascii	"S\203\263\003\250\2017\027\3753\366\214\036\014\264"
 181      A8813717 
 181      FD33F68C 
 181      1E0CB4
 182 0338 77D04089 		.ascii	"w\320@\211\216\275\2135\236\3720\324\001\336\032\347"
 182      8EBD8B35 
 182      9EFA30D4 
 182      01DE1AE7 
 183 0348 BD9638EF 		.ascii	"\275\2268\357%\243\261\327g4Pv2\214\371\216\273sL?o"
 183      25A3B1D7 
 183      67345076 
 183      328CF98E 
 183      BB734C3F 
 184 035d 311DCD61 		.ascii	"1\035\315ar\354L'\307{\373>\347\320B\301\3533(\333N"
 184      72EC4C27 
 184      C77BFB3E 
 184      E7D042C1 
 184      EB3328DB 
 185 0372 4B1C731C 		.ascii	"K\034s\034\323\352\267\316\240\326\023\177\324gP\277"
 185      D3EAB7CE 
 185      A0D6137F 
 185      D46750BF 
ARM GAS  /tmp/cc2L2Wn2.s 			page 14


 186 0382 A319D4DA 		.ascii	"\243\031\324\332\265\034\273K\306\370\305\351\364\357"
 186      B51CBB4B 
 186      C6F8C5E9 
 186      F4EF
 187 0390 C3F4977A 		.ascii	"\303\364\227z\020\375\343V\372\213O\365\027\257\220"
 187      10FDE356 
 187      FA8B4FF5 
 187      17AF90
 188 039f E5E1EAA3 		.ascii	"\345\341\352\243\314\344_\357^\232J\3366\356j\316\321"
 188      CCE45FEF 
 188      5E9A4ADE 
 188      36EE6ACE 
 188      D1
 189 03b0 7AE2F480 		.ascii	"z\342\364\200&\344I<S\273=V\347x<\2274\037|6u\340\230"
 189      26E4493C 
 189      53BB3D56 
 189      E7783C97 
 189      341F7C36 
 190 03c7 4F92EC0F 		.ascii	"O\222\354\017*P\200\234g\212\337\334*\313\277\312\326"
 190      2A50809C 
 190      678ADFDC 
 190      2ACBBFCA 
 190      D6
 191 03d8 7938EA1A 		.ascii	"y8\352\0321\237\320Dc7\016=*\330q'`\266\236T\2534\231"
 191      319FD044 
 191      63370E3D 
 191      2AD87127 
 191      60B69E54 
 192 03ef C14EBA06 		.ascii	"\301N\272\006#9k1\203}\345\004l\270=g[\315`g\\\203\221"
 192      23396B31 
 192      837DE504 
 192      6CB83D67 
 192      5BCD6067 
 193 0406 9CBD6B06 		.ascii	"\234\275k\006\373\263\023\260\321\366\234\265\231\301"
 193      FBB313B0 
 193      D1F69CB5 
 193      99C1
 194 0414 CEB90623 		.ascii	"\316\271\006#9\333n\006\033p\002\226O\341,y\331%!\237"
 194      39DB6E06 
 194      1B700296 
 194      4FE12C79 
 194      D925219F 
 195 0428 B1493FE7 		.ascii	"\261I?\347\230\213\036=$\270\364i\306\300\270\342q\033"
 195      988B1E3D 
 195      24B8F469 
 195      C6C0B8E2 
 195      711B
 196 043a C208B961 		.ascii	"\302\010\271a\005?\261\226m\250\223;\013\365U\364\206"
 196      053FB196 
 196      6DA8933B 
 196      0BF555F4 
 196      86
 197 044b 13C4340E 		.ascii	"\023\3044\016S\277\337\264$\327d\271\005#\315\322\204"
 197      53BFDFB4 
 197      24D764B9 
 197      0523CDD2 
 197      84
ARM GAS  /tmp/cc2L2Wn2.s 			page 15


 198 045c C08858A3 		.ascii	"\300\210X\243-I\361\365\312\350\025F\264\313\321\261"
 198      2D49F1F5 
 198      CAE81546 
 198      B4CBD1B1 
 199 046c D01E4C0D 		.ascii	"\320\036L\015m\260\003\342\222\235\345\321\243\351}"
 199      6DB003E2 
 199      929DE5D1 
 199      A3E97D
 200 047b 05F65BBC 		.ascii	"\005\366[\274\264'X_\222\013\265\255\267\022,\322\363"
 200      B427585F 
 200      920BB5AD 
 200      B7122CD2 
 200      F3
 201 048c FC2CCBE6 		.ascii	"\374,\313\346P\2772\015\265\363\204\233fOX\344DMi\246"
 201      50BF320D 
 201      B5F3849B 
 201      664F58E4 
 201      444D69A6 
 202 04a0 428F9D9A 		.ascii	"B\217\235\232\224y\362\002\266\346\235\357\247M\017"
 202      9479F202 
 202      B6E69DEF 
 202      A74D0F
 203 04af 5B4F9C5B 		.ascii	"[O\234[\303\326\342\360<\227Ck\367\342,j\032\340\010"
 203      C3D6E2F0 
 203      3C97436B 
 203      F7E22C6A 
 203      1AE008
 204 04c2 6CE09A96 		.ascii	"l\340\232\226Q\314\307P\215\267\001\225\3508\256\347"
 204      51CCC750 
 204      8DB70195 
 204      E838AEE7 
 205 04d2 140B31D8 		.ascii	"\024\0131\330\372,\353\262\341\263\344\024>r\325\367"
 205      FA2CEBB2 
 205      E1B3E414 
 205      3E72D5F7 
 206 04e2 F98C4642 		.ascii	"\371\214FB\277HC~\247c\354\214_\307\231\214\337\342"
 206      BF48437E 
 206      A763EC8C 
 206      5FC7998C 
 206      DFE2
 207 04f4 DAF8C41C 		.ascii	"\332\370\304\034\201,\3442\267\\Vjx\223\267\247\235"
 207      812CE432 
 207      B75C566A 
 207      7893B7A7 
 207      9D
 208 0505 1A90411E 		.ascii	"\032\220A\036\335\375cl\244W\261^\333\351Fr\0004\360"
 208      DDFD636C 
 208      A457B15E 
 208      DBE94672 
 208      0034F0
 209 0518 F551F590 		.ascii	"\365Q\365\220`\011\006R\006\015\224\350h*\306@\3130"
 209      60090652 
 209      060D94E8 
 209      682AC640 
 209      CB30
 210 052a 50678AA5 		.ascii	"Pg\212\245Y\213\245Y\322\002\311y\247M\273\357\252/"
 210      598BA559 
ARM GAS  /tmp/cc2L2Wn2.s 			page 16


 210      D202C979 
 210      A74DBBEF 
 210      AA2F
 211 053c EC9EACE6 		.ascii	"\354\236\254\346\"\304I\2638$#\356\315%\354\205ZyE\241"
 211      22C449B3 
 211      382423EE 
 211      CD25EC85 
 211      5A7945A1 
 212 0550 0B7BBDA1 		.ascii	"\013{\275\241\331\353\015\254\235\376\024\355 \365\273"
 212      D9EB0DAC 
 212      9DFE14ED 
 212      20F5BB
 213 055f 1323EE5A 		.ascii	"\023#\356Z\214\034R\214\206\304 \304\330\243\212\261"
 213      8C1C528C 
 213      86C420C4 
 213      D8A38AB1 
 214 056f 1A8B71FA 		.ascii	"\032\213q\372o \3069\327b\0147\211\201w\260K\325\365"
 214      6F20C639 
 214      D7620C37 
 214      898177B0 
 214      4BD5F5
 215 0582 6F14B324 		.ascii	"o\024\263$}\016\217\223cn\024\221?+\207\273\331|\365"
 215      7D0E8F93 
 215      636E1491 
 215      3F2B87BB 
 215      D97CF5
 216 0595 76E65DFB 		.ascii	"v\346]\373\205n\323NOv\264\323;\232\334\351m\300*\273"
 216      856ED34E 
 216      4F76B4D3 
 216      3B9ADCE9 
 216      6DC02ABB 
 217 05a9 409B604E 		.ascii	"@\233`N\240\232\0076#F7a\224k\203E\201i\272G\235\246"
 217      A09A0736 
 217      23463761 
 217      946B8345 
 217      8169BA47 
 218 05bf 9B31504D 		.ascii	"\2331PM\266\325\202\331\026\003f\223\006\204\217\210"
 218      B6D582D9 
 218      16036693 
 218      06848F88 
 219 05cf D2551C1F 		.ascii	"\322U\034\037_\322\356\240\017^\346\377}\034\307\374"
 219      5FD2EEA0 
 219      0F5EE6FF 
 219      7D1CC7FC 
 220 05df 8FCA3E18 		.ascii	"\217\312>\030\317e\002\246;O\303\227\015z\362\244\332"
 220      CF6502A6 
 220      3B4FC397 
 220      0D7AF2A4 
 220      DA
 221 05f0 67C96D21 		.ascii	"g\311m!\326*\253_\325\317G\036G\351\323\312\333\204"
 221      D62AAB5F 
 221      D5CF471E 
 221      47E9D3CA 
 221      DB84
 222 0602 7BFF636B 		.ascii	"{\377ck^`\331\267\355\264Yu\364\203\243Sq5\274\267s"
 222      5E60D9B7 
 222      EDB45975 
ARM GAS  /tmp/cc2L2Wn2.s 			page 17


 222      F483A353 
 222      7135BCB7 
 223 0617 889DB529 		.ascii	"\210\235\265)\346\336\301Z\366m\350\206\251\213\335"
 223      E6DEC15A 
 223      F66DE886 
 223      A98BDD
 224 0626 3C6A332F 		.ascii	"<j3/\200\255\267k\206\276K\0263\274w\233z\273\246\231"
 224      80ADB76B 
 224      86BE4B16 
 224      33BC779B 
 224      7ABBA699 
 225 063a 21D326FB 		.ascii	"!\323&\373\027:V\036\026\344CLv\017g\331c\037\274\034"
 225      173A561E 
 225      16E4434C 
 225      760F67D9 
 225      631FBC1C 
 226 064e 9FA7E557 		.ascii	"\237\247\345W\350Y\346@q\354+\237\274$O=\256\023\330"
 226      E859E640 
 226      71EC2B9F 
 226      BC244F3D 
 226      AE13D8
 227 0661 FD2CA7A1 		.ascii	"\375,\247\241\322r\245\214\352Q>\027;\013\335\204\234"
 227      D272A58C 
 227      EA513E17 
 227      3B0BDD84 
 227      9C
 228 0672 0E3DE4EC 		.ascii	"\016=\344\354\305\272<\237b\364M\326(\355j\322]N*\311"
 228      C5BA3C9F 
 228      62F44DD6 
 228      28ED6AD2 
 228      5D4E2AC9 
 229 0686 E98EC57A 		.ascii	"\351\216\305z\3319\325n\263S]\277=\027\000\247\352X"
 229      D939D56E 
 229      B3535DBF 
 229      3D1700A7 
 229      EA58
 230 0698 A73A5526 		.ascii	"\247:U&'\220Y\363F\006\202\242\027Q\336o\365\202\326"
 230      279059F3 
 230      460682A2 
 230      1751DE6F 
 230      F582D6
 231 06ab EB9DF3B5 		.ascii	"\353\235\363\265C\220\375\216\274\340\022\305\013\366"
 231      4390FD8E 
 231      BCE012C5 
 231      0BF6
 232 06b9 0FD20BC0 		.ascii	"\017\322\013\300\245\277\376\210\305p\352\306lS\222"
 232      A5BFFE88 
 232      C570EAC6 
 232      6C5392
 233 06c8 499756D0 		.ascii	"I\227V\320\340n\212n\025\243\372\227\362\351Wh\035\352"
 233      E06E8A6E 
 233      15A3FA97 
 233      F2E95768 
 233      1DEA
 234 06da E3D04174 		.ascii	"\343\320At\213\327\352Z\252fL\256e\250Q`\017ph\247\326"
 234      8BD7EA5A 
 234      AA664CAE 
ARM GAS  /tmp/cc2L2Wn2.s 			page 18


 234      65A85160 
 234      0F7068A7 
 235 06ef CDA143D8 		.ascii	"\315\241C\330\217q}\2203\035\305\332\271E\257\341\026"
 235      8F717D90 
 235      331DC5DA 
 235      B945AFE1 
 235      16
 236 0700 02DB6955 		.ascii	"\002\333iU\243\323\375rF2]f\357\333\356\275=\357\353"
 236      A3D3FD72 
 236      46325D66 
 236      EFDBEEBD 
 236      3DEFEB
 237 0713 EDEBF6E0 		.ascii	"\355\353\366\340\223E\027\247\302G\377\240O\334~<q\367"
 237      934517A7 
 237      C247FFA0 
 237      4FDC7E3C 
 237      71F7
 238 0725 A468B7C7 		.ascii	"\244h\267\307\232D;9$\335?XQ\222\027\344\314^\007[\234"
 238      9A443B39 
 238      24DD3F58 
 238      519217E4 
 238      CC5E075B 
 239 073a 7C8AD693 		.ascii	"|\212\326\223\013\355\021-K\313x\322\252\277\025=\255"
 239      0BED112D 
 239      4BCB78D2 
 239      AABF153D 
 239      AD
 240 074b A8AF3C3E 		.ascii	"\250\257<>\307\236v\310\242\013\007\007\266\247\360"
 240      C79E76C8 
 240      A20B0707 
 240      B6A7F0
 241 075a 9093D669 		.ascii	"\220\223\326i\334\327\220<\260=\351`\032\327*\333\210"
 241      DCD7903C 
 241      B03DE960 
 241      1AD72ADB 
 241      88
 242 076b 571EBA07 		.ascii	"W\036\272\007\236L\357\201i\365I\230\360\244i\202\234"
 242      9E4CEF81 
 242      69F54998 
 242      F0A46982 
 242      9C
 243 077c C213E44B 		.ascii	"\302\023\344K\363\244\200\224\321\211\356\177h\347\212"
 243      F3A48094 
 243      D189EE7F 
 243      68E78A
 244 078b 10867AD5 		.ascii	"\020\206z\325wM\372\333\243\033V<Z \"\360\314\266\254"
 244      774DFADB 
 244      A31B563C 
 244      5A2022F0 
 244      CCB6AC
 245 079e 55EAFBF0 		.ascii	"U\352\373\360\371\220\352\243ss\0340Wh\017\266\272A"
 245      F990EAA3 
 245      73731C30 
 245      57680FB6 
 245      BA41
 246 07b0 576E17CE 		.ascii	"Wn\027\316P^q\202Wl'l\255\322\336\327\250\341\251oV"
 246      505E7182 
ARM GAS  /tmp/cc2L2Wn2.s 			page 19


 246      576C276C 
 246      ADD2DED7 
 246      A8E1A96F 
 247 07c5 96B9C623 		.ascii	"\226\271\306#\371;\334@\344sM"
 247      F93BDC40 
 247      E4734D
 248 07d0 4EE02639 		.ascii	"N\340&9\266\275\361\"\021\026T|\214\245\3407T\177\304"
 248      B6BDF122 
 248      1116547C 
 248      8CA5E037 
 248      547FC4
 249 07e3 F527B8BE 		.ascii	"\365'\270\276\202\353k\270\276\201\353Z\034:\177\215"
 249      82EB6BB8 
 249      BE81EB5A 
 249      1C3A7F8D 
 250 07f3 EBD771DD 		.ascii	"\353\327q\335\204\353\337\340\3728\256O\343\372\014"
 250      84EBDFE0 
 250      FA38AE4F 
 250      E3FA0C
 251 0802 AECFE2FA 		.ascii	"\256\317\342\372/\270>\347$\340Zr@\343\3150\366\307"
 251      2FB83EE7 
 251      24E05A72 
 251      40E3CD30 
 251      F6C7
 252 0814 7539D697 		.ascii	"u9\326\227\303j\247\363\034\365u\357\253\227\033\354"
 252      C36AA7F3 
 252      1CF575EF 
 252      AB971BEC 
 253 0824 5FF7A26C 		.ascii	"_\367\242l\317\216\213o8\342}\257\316\026\301\3136\033"
 253      CF8E8B6F 
 253      38E27DAF 
 253      CE16C1CB 
 253      361B
 254 0836 5E2ED278 		.ascii	"^.\322xQ\026/Yt\227\274\206\372\206<\315{\347\313V>"
 254      51162F59 
 254      7497BC86 
 254      FA863CCD 
 254      7BE7CB56 
 255 084b D6E04D2D 		.ascii	"\326\340M-\301\307.\033>\256\222|\374\200Y#\307{\342"
 255      C1C72E1B 
 255      3EAE927C 
 255      FC805923 
 255      C77BE2
 256 085e 035DA7DF 		.ascii	"\003]\247\337a!~u\302\354\204\014k\314\010\246^[zU!"
 256      61217E75 
 256      C2EC840C 
 256      6BCC08A6 
 256      5E5B7A55 
 257 0873 354E9A93 		.ascii	"5N\232\223\313\357\337ip\327\271\021\270Ed\203\270\207"
 257      CBEFDF69 
 257      70D7B911 
 257      B8456483 
 257      B887
 258 0885 1DF33738 		.ascii	"\035\36378\343l3\317g4<I\326;\223\254\333\222\275iH"
 258      E36C33CF 
 258      67343C49 
 258      D63B93AC 
ARM GAS  /tmp/cc2L2Wn2.s 			page 20


 258      DB92BD69 
 259 089a 81246851 		.ascii	"\201$hQ\224\326}K!\246@J\374-\360o\260\237L(\224t/\225"
 259      94D67D4B 
 259      21A6404A 
 259      FC2DF06F 
 259      B09F4C28 
 260 08b2 525F0FD9 		.ascii	"R_\017\331P6\353\345\3614j\221\371\021\026q\255\037"
 260      5036EBE5 
 260      F1346A91 
 260      F9111671 
 260      AD1F
 261 08c4 39A627B3 		.ascii	"9\246'\263\2305\274*\346\004f\233\274@yV`\277\005u'"
 261      9835BC2A 
 261      E604669B 
 261      BC407956 
 261      60BF0575 
 262 08d9 A7F17F31 		.ascii	"\247\361\1771\327e\320z\025\2214\351\034\256\030\252"
 262      D765D07A 
 262      159134E9 
 262      1CAE18AA 
 263 08e9 9E7D68BD 		.ascii	"\236}h\275\225\031:\366\231<\015\374e\336\255\351\346"
 263      95193AF6 
 263      993C0DFC 
 263      65DEADE9 
 263      E6
 264 08fa F174D3FD 		.ascii	"\361t\323\375)\217!\264\2262p.\237LdT\207S\026\317\337"
 264      298F21B4 
 264      9632702E 
 264      9F4C6454 
 264      875316CF 
 265 090f C2D6372F 		.ascii	"\302\3267/\202\325\017\177\371\004\361\3021}V\215\020"
 265      82D50F7F 
 265      F904F1C2 
 265      317D568D 
 265      10
 266 0920 5C636FE7 		.ascii	"\\co\347\230\023\320Is|\364,+y\212\204)-\340\315\356"
 266      9813D049 
 266      737CF42C 
 266      2B798A84 
 266      292DE0CD 
 267 0935 ADC1B0CC 		.ascii	"\255\301\260\314d\346CP\225\322>\377\001l7]s*g\002;"
 267      64E64350 
 267      95D23EFF 
 267      016C375D 
 267      732A6702 
 268 094a 9FFF8149 		.ascii	"\237\377\201I\256N\3164\226\323\307\356p4\266>\3134"
 268      AE4ECE34 
 268      96D3C7EE 
 268      7034B63E 
 268      CB34
 269 095c 96D7C7BE 		.ascii	"\226\327\307\276\347hl\277\3274\326\243\217\335\345"
 269      E7686CBF 
 269      D734D6A3 
 269      8FDDE5
 270 096b 686CF310 		.ascii	"hl\363\020C\275\315\212r\341\177!\321\227q\200\243\314"
 270      43BDCD8A 
 270      72E17F21 
ARM GAS  /tmp/cc2L2Wn2.s 			page 21


 270      D1977180 
 270      A3CC
 271 097d 0562D7AE 		.ascii	"\005b\327\256\030\2316\254/l\206d;\276z\303\301\321"
 271      189936AC 
 271      2F6C8664 
 271      3BBE7AC3 
 271      C1D1
 272 098f 2825CC98 		.ascii	"(%\314\230\234\303J\300\337O\373\006\013\331\015u\\"
 272      9CC34AC0 
 272      DF4FFB06 
 272      0BD90D75 
 272      5C
 273 09a0 C9931991 		.ascii	"\311\223\031\221rC\314W\357f\316\205n\335\352T7!7q,"
 273      7243CC57 
 273      EF66CE85 
 273      6EDDEA54 
 273      37213771 
 274 09b5 AEE1380D 		.ascii	"\256\3418\015pPY\262\222\370\032\303Y\3164\320w\243"
 274      705059B2 
 274      92F81AC3 
 274      59CE34D0 
 274      77A3
 275 09c7 EC7C7B35 		.ascii	"\354|{5oJ\322\347\372X\227\344\363\011\362\365\0358"
 275      6F4AD2E7 
 275      FA5897E4 
 275      F309F2F5 
 275      1D38
 276 09d9 9341981C 		.ascii	"\223A\230\034\263\320\011X\232\015\325\0223X\203k\260"
 276      B3D00958 
 276      9A0DD512 
 276      3358836B 
 276      B0
 277 09ea 7C8BC2F5 		.ascii	"|\213\302\365\264\240\221Gi\301*\036/\363\270^\203\353"
 277      B4A09147 
 277      69C12A1E 
 277      2FF3B85E 
 277      83EB
 278 09fc DFF04492 		.ascii	"\337\360D\222\270\322g\335+\250\0065\341\031vg2#\322"
 278      B8D267DD 
 278      2BA80635 
 278      E1197667 
 278      3223D2
 279 0a0f F56F31D4 		.ascii	"\365o1\324\012\033\371\020\376oy\342`\311\026R`_3z\352"
 279      0A1BF910 
 279      FE6F79E2 
 279      60C91652 
 279      605F337A 
 280 0a24 A199D7FB 		.ascii	"\241\231\327\373L\320\372,s\035=7\330DO=xr\314o}\326"
 280      4CD0FA2C 
 280      731D3D37 
 280      D8444F3D 
 280      7872CC6F 
 281 0a3a 152185EC 		.ascii	"\025!\205\354F\210o\3670\357\370V\311\252\255\324\225"
 281      46886FF7 
 281      30EFF856 
 281      C9AAADD4 
 281      95
ARM GAS  /tmp/cc2L2Wn2.s 			page 22


 282 0a4b A1875719 		.ascii	"\241\207W\031\"\226\206\025r|`\341.\236\272: V\227\233"
 282      22968615 
 282      727C60E1 
 282      2E9EBA3A 
 282      2056979B 
 283 0a5f F461BE6F 		.ascii	"\364a\276o\326\223\300\376N\2233\365\262\223\363m2\330"
 283      D693C0FE 
 283      4E9333F5 
 283      B293F36D 
 283      32D8
 284 0a71 9FAF8F2F 		.ascii	"\237\257\217/\373\335G\015\354R\271Y\317.\004v3\216"
 284      FBDD470D 
 284      EC52B959 
 284      CF2E0476 
 284      338E
 285 0a83 F7177DD6 		.ascii	"\367\027}\326\034E`[\350\001\\\027\250k\027\257R\320"
 285      1C45605B 
 285      E8015C17 
 285      A86B17AF 
 285      52D0
 286 0a95 A0576DA5 		.ascii	"\240Wm\245Co\037\222\012\275\215\006\315\031\272\332"
 286      436F1F92 
 286      0ABD8D06 
 286      CD19BADA 
 287 0aa5 4D42B7B6 		.ascii	"MB\267\266\321\241oR\240\333h\320\274\001\275\207\204"
 287      D1A16F52 
 287      A0DB68D0 
 287      BC01BD87 
 287      84
 288 0ab6 DEB5930E 		.ascii	"\336\265\223\016\255\344\246B\357\240A{\014\205\354"
 288      ADE4A642 
 288      EFA0417B 
 288      0C85EC
 289 0ac5 2D22A00F 		.ascii	"-\"\240\017\357\246C\317\315K\205~\237\006\235ep\335"
 289      EFA643CF 
 289      CD4B857E 
 289      9F069D65 
 289      70DD
 290 0ad7 41421FFF 		.ascii	"AB\037\377\202\016\335I\201\336C\203\3166\270\336GB"
 290      820EDD49 
 290      81DE4383 
 290      CE36B8DE 
 290      4742
 291 0ae9 5F3A4D87 		.ascii	"_:M\207^tG*\364\0074h\257\301\365\001\022\372\326Y:"
 291      5E74472A 
 291      F4073468 
 291      AFC1F501 
 291      12FAD659 
 292 0afe 740F05FA 		.ascii	"t\017\005\372\0174\350\034\203\353n\022z\331_\351\320"
 292      0F34E81C 
 292      83EB6E12 
 292      7AD95FE9 
 292      D0
 293 0b0f 4B87A642 		.ascii	"K\207\246Bw\322\240}\006\327\207H\350U\027\350\320\375"
 293      77D2A07D 
 293      06D78748 
 293      E85517E8 
ARM GAS  /tmp/cc2L2Wn2.s 			page 23


 293      D0FD
 294 0b21 14E8FD34 		.ascii	"\024\350\3754\350!\006\327\207I\350\326+t\350\306a\251"
 294      E82106D7 
 294      8749E8D6 
 294      2B74E8C6 
 294      61A9
 295 0b33 D0DD34E8 		.ascii	"\320\3354\350\\\003\372\010\011\275\353\006\035:N\201"
 295      5C03FA08 
 295      09BDEB06 
 295      1D3A4E81 
 296 0b43 3E4883CE 		.ascii	">H\203\316\303\015=\376Z\202\373u#\371M=\2213\202\216"
 296      C30D3DFE 
 296      5A82FB75 
 296      23F94D3D 
 296      9133828E 
 297 0b57 65547B9A 		.ascii	"eT{\232\265\273\317v\024\332\352\331\215:d;\352r\232"
 297      B5BBCF76 
 297      14DAEAD9 
 297      8D3A643B 
 297      EA729A
 298 0b6a 51878D51 		.ascii	"Q\207\215Q\346\034=a|\021\272X\037\342\325\206\034q"
 298      E61C3D61 
 298      7C11BA58 
 298      1FE2D586 
 298      1C71
 299 0b7c BDC67C62 		.ascii	"\275\306|b\263\306dk\2241R]\332\263?\260\014\336\367"
 299      B3C6646B 
 299      9431525D 
 299      DAB33FB0 
 299      0CDEF7
 300 0b8f 673EC8A3 		.ascii	"g>\310\243\345v\331:\324/\230d\312x81\020VO\021?\345"
 300      E576D93A 
 300      D42F9864 
 300      CA783831 
 300      10564F11 
 301 0ba5 D171CFFA 		.ascii	"\321q\317\372\341\031\277\345L\342\340\2579Ys\304\206"
 301      E119BFE5 
 301      4CE2E0AF 
 301      395973C4 
 301      86
 302 0bb6 6379E88B 		.ascii	"cy\350\213\323\237e\316\022\347\326)\313\216\351\207"
 302      D39F65CE 
 302      12E7D629 
 302      CB8EE987 
 303 0bc6 30FD3C8A 		.ascii	"0\375<\212\371\357`\026>\033\\\232\010x\257\035SO\234"
 303      F9EF6016 
 303      3E1B5C9A 
 303      0878AF1D 
 303      534F9C
 304 0bd9 3058AB6B 		.ascii	"0X\253k\260|\002l\205\031l\207\0230\273\244\017\300"
 304      B07C026C 
 304      85196C87 
 304      1330BBA4 
 304      0FC0
 305 0beb DE3083ED 		.ascii	"\3360\203\355v\015Fr\326h\006\373\320\011\230\335\267"
 305      760D4672 
 305      D66806FB 
ARM GAS  /tmp/cc2L2Wn2.s 			page 24


 305      D00998DD 
 305      B7
 306 0bfc B800ACC9 		.ascii	"\270\000\254\311\014\326\341\032\214\344\254\305\014"
 306      0CD6E11A 
 306      8CE4ACC5 
 306      0C
 307 0c09 D6E504CC 		.ascii	"\326\345\004\314\356\273N\000\266\325\014\326\343\032"
 307      EEBB4E00 
 307      B6D50CD6 
 307      E31A
 308 0c17 8CE4EC5D 		.ascii	"\214\344\354]3\330\021'`\371\366\234\265\231\301\216"
 308      33D81127 
 308      60F9F69C 
 308      B599C18E 
 309 0c27 B9062339 		.ascii	"\271\006#9\333n\006;\341\004\314\356\014\027\300v\232"
 309      DB6E063B 
 309      E104CCEE 
 309      0C17C076 
 309      9A
 310 0c38 C14EB906 		.ascii	"\301N\271\006#9{\337\014\366''`\205v\234\325(\273\377"
 310      23397BDF 
 310      0CF62727 
 310      6085769C 
 310      D528BBFF 
 311 0c4c A35E30E7 		.ascii	"\243^0\347\263\010\325f\353i\356\326\303\332v\203\245"
 311      B308D566 
 311      EB69EED6 
 311      C3DA7683 
 311      A5
 312 0c5d C77524BE 		.ascii	"\307u$\276a\023\211\315? 2z\241\357\256Z\305&\271\240"
 312      611389CD 
 312      3F20327A 
 312      A1EFAE5A 
 312      C526B9A0 
 313 0c71 C94D2AB1 		.ascii	"\311M*\261\307\254\304\277:Q\342${\260^3\330E'`?\261"
 313      C7ACC4BF 
 313      3A51E224 
 313      7BB05E33 
 313      D8452760 
 314 0c87 F7954366 		.ascii	"\367\225Cf\260\253\256\301H\316\216\230\301n9\001{\326"
 314      B0ABAEC1 
 314      48CE8E98 
 314      C16E3901 
 314      7BD6
 315 0c99 9EB37E33 		.ascii	"\236\263~3\230<\302-\230\231\263\032\345\250\341x\350"
 315      983CC22D 
 315      9899B31A 
 315      E5A8E178 
 315      E8
 316 0caa 872F84E7 		.ascii	"\207/\204\347M\"\243-\321\315\344y\226n\002\373+\217"
 316      4D22A32D 
 316      D1CDE479 
 316      966E02FB 
 316      2B8F
 317 0cbc 5BC75BE8 		.ascii	"[\307[\350\241;\236\371[iF/\020{\236Ul\202\011\255\371"
 317      A13B9EF9 
 317      5B69462F 
ARM GAS  /tmp/cc2L2Wn2.s 			page 25


 317      107B9E55 
 317      6C8209AD 
 318 0cd1 3C4587B4 		.ascii	"<E\207\264\313\274P\013\354q|T\3609\336\314\307q\375"
 318      CBBC500B 
 318      EC717C54 
 318      F039DECC 
 318      C771FD
 319 0ce4 05AEBFC4 		.ascii	"\005\256\277\304\365i\\\237\301\365Y\\\377\005\327\347"
 319      F5695C9F 
 319      C1F5595C 
 319      FF05D7E7 
 320 0cf4 707D1ED7 		.ascii	"p}\036\327\337\340\372\"\256/\343\372*\256o\341:\201"
 320      DFE0FA22 
 320      AE2FE3FA 
 320      2AAE6FE1 
 320      3A81
 321 0d06 EB1A0FAA 		.ascii	"\353\032\017\252\353p\3752\256\347{L\007\007\226\034"
 321      EB70FD32 
 321      AEE77B4C 
 321      0707961C 
 322 0d16 EDD33447 		.ascii	"\355\3234G\004\213<\311\034\015\035\320+\347\343m\233"
 322      048B3CC9 
 322      1C0D1DD0 
 322      2BE7E36D 
 322      9B
 323 0d27 AE3FA6FF 		.ascii	"\256?\246\377p\357^\365\247i\034\263i\2045\235\245\376"
 323      70EF5EF5 
 323      A7691CB3 
 323      6984359D 
 323      A5FE
 324 0d39 18ED154F 		.ascii	"\030\355\025O\332\037\243\375\332\223\362F\000\010^"
 324      DA1FA3FD 
 324      DA93F246 
 324      00085E
 325 0d48 7BEB9B9F 		.ascii	"{\353\233\237\277\215~U \177\233x\251f.\253\3770\357"
 325      BF8D7E55 
 325      207F9B78 
 325      A9662EAB 
 325      FF30EF
 326 0d5b 333A4D99 		.ascii	"3:M\231\374a^\275\307\362\303\274\305T\"\365\247\372"
 326      FC615EBD 
 326      C7F2C3BC 
 326      C55422F5 
 326      A7FA
 327 0d6d 7F6E924A 		.ascii	"\177n\222J\245p\332\021\205\006+\205\245T\012\007\267"
 327      A570DA11 
 327      85062B85 
 327      A5540A07 
 327      B7
 328 0d7e 9C1D7DCD 		.ascii	"\234\035}\315\020#Id\355H3\021\355H\267e$\233\216\344"
 328      10234964 
 328      ED483311 
 328      ED48B765 
 328      249B8EE4 
 329 0d92 6B5692CB 		.ascii	"kV\222\313\251$\3337}\361/;\010\315\251\326\332=\322"
 329      A924DB37 
 329      7DF12F3B 
ARM GAS  /tmp/cc2L2Wn2.s 			page 26


 329      08CDA9D6 
 329      DA3DD2
 330 0da5 91B556A6 		.ascii	"\221\265V\246\267V#\225fo[\327\335)\356Q3\312\021\301"
 330      B7562395 
 330      666F5BD7 
 330      DD29EE51 
 330      33CA11C1 
 331 0db9 A6F40457 		.ascii	"\246\364\004WS\011\036\335y\364\301\024\202\0379#\270"
 331      53091EDD 
 331      79F4C114 
 331      821F3923 
 331      B8
 332 0dca 263DC1B5 		.ascii	"&=\301\2656\376\330[N\365G:M\213\351\326YM\267\336\306"
 332      36FED85B 
 332      4EF5473A 
 332      4D8BE9D6 
 332      594DB7DE 
 333 0ddf 1FE3FE14 		.ascii	"\037\343\376\024\177<\343\210\302\006+\205\2156\376"
 333      7F3CE388 
 333      C2062B85 
 333      8D36FE
 334 0dee D8BB9C5D 		.ascii	"\330\273\234]^'\253/\375\232\027p:\225\213\243R\034"
 334      5E27AB2F 
 334      FD9A1770 
 334      3A958BA3 
 334      521C
 335 0e00 52605F37 		.ascii	"R`_70h47Yi\276E\322d\356\033;\266@\375\213\304\012\242"
 335      30683437 
 335      5969BE45 
 335      D264EE1B 
 335      3BB640FD 
 336 0e18 5241301C 		.ascii	"RA0\034\010U\225\211\005\201\362\330\234\2304\247R\214"
 336      08559589 
 336      0581F2D8 
 336      9C9834A7 
 336      528C
 337 0e2a 8D2D677C 		.ascii	"\215-g|\250\035\254\020\375R\366S?}.\277\204\271\273"
 337      A81DAC10 
 337      FD52F653 
 337      3F7D2EBF 
 337      84B9BB
 338 0e3d A02A164D 		.ascii	"\240*\026M\366\015\213\325\241\340\364\202\230T\026"
 338      F60D8BD5 
 338      A1E0F482 
 338      985416
 339 0e4c 0C4BD03D 		.ascii	"\014K\320=\247\012\376\027M\364K?\242u\253\020\002\345"
 339      A70AFE17 
 339      4DF44B3F 
 339      A275AB10 
 339      02E5
 340 0e5e C1B058E0 		.ascii	"\301\260X\340/\023g\010U!\311\257S\031\342\367\353\003"
 340      2F136708 
 340      5521C9AF 
 340      5319E2F7 
 340      EB03
 341 0e70 1F4C7225 		.ascii	"\037Lr%\2111\011\361\025\213TE\003\242\372\021U\376"
 341      893109F1 
ARM GAS  /tmp/cc2L2Wn2.s 			page 27


 341      158B5445 
 341      03A2FA11 
 341      55FE
 342 0e82 6824228D 		.ascii	"h$\"\215\0150w\342\017\222\030\255\010\206\005\0118"
 342      0D3077E2 
 342      0F9218AD 
 342      08860509 
 342      38
 343 0e93 2C8F8A42 		.ascii	",\217\212BYl\004\276]-\004%\375\316P\323\235`\340\205"
 343      596C04BE 
 343      5D2D0425 
 343      FDCE50D3 
 343      9D60E085 
 344 0ea7 7FB4955B 		.ascii	"\177\264\225[\353\217\344P\233~\311\027(\327`\362\355"
 344      EB8FE450 
 344      9B7EC917 
 344      28D760F2 
 344      ED
 345 0eb8 D515282F 		.ascii	"\325\025(/\2031\303\264\341\376\027\253\304*`gxr\250"
 345      8331C3B4 
 345      E1FE17AB 
 345      C42A6067 
 345      7872A8
 346 0ecb 76CB1316 		.ascii	"v\313\023\026gK\236\312\2508+\013\177.6#\006\"\025\025"
 346      674B9ECA 
 346      A8382B0B 
 346      7F2E3623 
 346      06221515 
 347 0edf 91704165 		.ascii	"\221pAe$*\305\012\236(\235R2e6\272W\031\014\211\321"
 347      242AC50A 
 347      9E289D52 
 347      326536BA 
 347      57190C89 
 348 0ef4 58C15325 		.ascii	"X\301S%%\210?M]^\2512\032\214\370%\254\355\361\343\374"
 348      25883F4D 
 348      5D5EA932 
 348      1A8CF825 
 348      ACEDF1E3 
 349 0f09 92A63FD4 		.ascii	"\222\246?\324\364\240Gy\010\306\037\210\204%\240\370"
 349      F4A04779 
 349      08C61F88 
 349      8425A0F8 
 350 0f19 604632E5 		.ascii	"`F2\345\201HT\004\334\\<\014\200\002\322\354\0379\033"
 350      81485404 
 350      DC5C3C0C 
 350      8002D2EC 
 350      1F391B
 351 0f2c E59F35B1 		.ascii	"\345\2375\261\002\351+*\316\024\242\025~\211\213\026"
 351      02E92B2A 
 351      CE14A215 
 351      7E898B16 
 352 0f3c 73D147F9 		.ascii	"s\321G\371hQ!\224\".:\201\213>\314E'r\321G\270P\224"
 352      68512194 
 352      222E3A81 
 352      8B3ECC45 
 352      2772D147 
 353 0f53 8B55F200 		.ascii	"\213U\362\000\235\005\356 F\263\"\24121\352\011\224"
ARM GAS  /tmp/cc2L2Wn2.s 			page 28


 353      9D05EE20 
 353      46B322A1 
 353      3231EA09 
 353      94
 354 0f64 0B514F58 		.ascii	"\013QOX\250\020\207\304\244\027\204PpfX\223k\342\204"
 354      A81087C4 
 354      A4178450 
 354      70665893 
 354      6BE284
 355 0f77 A45CA899 		.ascii	"\244\\\250\231]-L\027bb\216\024\223\260\261\275\350"
 355      5D2D4C17 
 355      62628E14 
 355      93B0B1BD 
 355      E8
 356 0f88 41311848 		.ascii	"A1\030H\355\002\255,\374\304+UD\312\340y\326\214\220"
 356      ED02AD2C 
 356      FCC42B55 
 356      44CAE079 
 356      D68C90
 357 0f9b 3033E695 		.ascii	"03\346\225\242"
 357      A2
 358 0fa0 E28C1868 		.ascii	"\342\214\030h\005\375\313\252\210\315\204\201\232\242"
 358      05FDCBAA 
 358      88CD8481 
 358      9AA2
 359 0fae 60A0D6CA 		.ascii	"`\240\326\312\216\226\315\201G9\342\354\240\024\200"
 359      8E96CD81 
 359      4739E2EC 
 359      A01480
 360 0fbd C1D9D552 		.ascii	"\301\331\325Rd\372/+Gj>\000C\305\250\030\016 \320jI"
 360      64FA2F2B 
 360      476A3E00 
 360      43C5A818 
 360      0E20D06A 
 361 0fd2 8A567A63 		.ascii	"\212VzcbX\202\001y`\340\230X!T\226\203\"\306\330\273"
 361      62588201 
 361      7960E098 
 361      58215496 
 361      8322C6D8 
 362 0fe7 87883494 		.ascii	"\207\2104\224\025\010\203\373\361P\003<\334\252\314"
 362      150883FB 
 362      F150033C 
 362      DCAACC
 363 0ff6 81D11555 		.ascii	"\201\321\025U` \373\221\025\322"
 363      6020FB91 
 363      15D2
 364 1000 6C343252 		.ascii	"l42R\035\026\243^\334\027\351A\202\333\225\271\342,"
 364      1D16A35E 
 364      DC17E941 
 364      82DB95B9 
 364      E22C
 365 1012 C484107B 		.ascii	"\304\204\020{\001n\211\325\250\301V\015\325\335-\024"
 365      016E89D5 
 365      A8C1560D 
 365      D5DD2D14 
 366 1022 44336398 		.ascii	"D3c\230\311\001\321\035/\232\002\301\360\314\034\340"
 366      C901D11D 
ARM GAS  /tmp/cc2L2Wn2.s 			page 29


 366      2F9A02C1 
 366      F0CC1CE0 
 367 1032 1D3B608E 		.ascii	"\035;`\216X)\206a\346\316\364\002$\352\001f\024B\310"
 367      58298661 
 367      E6CEF402 
 367      24EA0166 
 367      1442C8
 368 1045 81B22A2A 		.ascii	"\201\262**#\221\320\320@\371\264\362\262i\372\014\363"
 368      2391D0D0 
 368      40F9B4F2 
 368      B269FA0C 
 368      F3
 369 1056 E18FFF0E 		.ascii	"\341\217\377\016 CpkjH\024+\275\032\005\256Z\310\305"
 369      2043706B 
 369      6A48142B 
 369      BD1A05AE 
 369      5AC8C5
 370 1069 F36C7AD5 		.ascii	"\363lz\325\014\320\227\027\233R,\373>9\235Q\024@\\A"
 370      0CD09717 
 370      9B522CFB 
 370      3E399D51 
 370      14405C41 
 371 107d 1B491613 		.ascii	"\033I\026\023\245\252\312\034I\024\242e \244W\234-\006"
 371      A5AACA1C 
 371      4914A265 
 371      20A4579C 
 371      2D06
 372 108f 40CA21E8 		.ascii	"@\312!\350q\000\214\015\016\200!cUAI\034>\266L\220\204"
 372      71008C0D 
 372      0E802163 
 372      5541491C 
 372      3EB64C90 
 373 10a4 B1C68DA2 		.ascii	"\261\306\215\242\314\221\"&\202\234\310r\205\205E@o"
 373      CC912226 
 373      829CC872 
 373      85854540 
 373      6F
 374 10b5 44CA4D77 		.ascii	"D\312Mw\030\343h\030\343\334a\214\247a\214w\2071\201"
 374      18E36818 
 374      E3DC618C 
 374      A7618C77 
 374      873181
 375 10c8 8631C11D 		.ascii	"\2061\301\035\306\3034\214\207\335aL\244aLt\207\361"
 375      C6C3348C 
 375      87DD614C 
 375      A4614C74 
 375      87F1
 376 10da 080DE311 		.ascii	"\010\015\343\021w\030\3054\214bw\030\217\3220\036u\205"
 376      7718C534 
 376      8C627718 
 376      8FD2301E 
 376      7585
 377 10ec 515448C1 		.ascii	"QTH\301(*t\207A\363\323\"w~ZD\363\323\242q\343\314q"
 377      282A7487 
 377      41F3D322 
 377      777E5A44 
 377      F3D3A271 
ARM GAS  /tmp/cc2L2Wn2.s 			page 30


 378 1103 A65C0869 		.ascii	"\246\\\010i\341|\352\264)\343\307\025<\363\314\344\202"
 378      E17CEAB4 
 378      29E3C715 
 378      3CF3CCE4 
 378      82
 379 1114 694F4F99 		.ascii	"iOO\231U\004ky\005\012\212A\024\264r\223\037 t\225\224"
 379      55046B79 
 379      050A8A41 
 379      14B47293 
 379      1F207495 
 380 1129 164119E7 		.ascii	"\026A\031\347\231:\245\244\3243\371\351'K\271\251\245"
 380      993AA5A4 
 380      D433F9E9 
 380      274BB9A9 
 380      A5
 381 113a FC934F95 		.ascii	"\374\223O\225f\225\224L)-\302\3658OI\311\223\245|\311"
 381      6695944C 
 381      292DC2F5 
 381      384F49C9 
 381      93A57CC9 
 382 114e 4FA7F1CF 		.ascii	"O\247\361\317N-\341\237(-\345KK\3403\014\370\327\311"
 382      4E2DE19F 
 382      282DE54B 
 382      4BE0330C 
 382      F8D7C9
 383 1161 D34AF9C9 		.ascii	"\323J\371\311h\344\224'J\271\177SG\215\207\376\317\227"
 383      68E49427 
 383      4AB97F53 
 383      478D87FE 
 383      CF97
 384 1173 DE631B00 		.ascii	"\336c\033\000g\241(1\"P\376\263iO\211\322T\310D\304"
 384      67A12831 
 384      2250FEB3 
 384      694F89D2 
 384      54C844C4 
 385 1187 8A69908C 		.ascii	"\212i\220\214\244\211\265sp\322\022(\207\316\317D\002"
 385      A489B573 
 385      70D21228 
 385      87CECF44 
 385      02
 386 1198 2FF8F08A 		.ascii	"/\370\360\212\026\202V\221y\214\266\236\301\342XP2e"
 386      16825691 
 386      798CB69E 
 386      C1E25850 
 386      3265
 387 11aa EAD3530D 		.ascii	"\352\323S\015\204\212X0\346\237\031\010\000\312\035"
 387      848A5830 
 387      E69F1908 
 387      00CA1D
 388 11b9 7E7F5930 		.ascii	"~\177Y0&L\017\211\376`\364\305;\204P\2650'\006kF\010"
 388      264C0F89 
 388      FE60F4C5 
 388      3B8450B5 
 388      3027066B 
 389 11cf 52989129 		.ascii	"R\230\221)<=_\340p\301D\331T\024\340Ga\326\360'\377"
 389      3C3D5FE0 
 389      70C144D9 
ARM GAS  /tmp/cc2L2Wn2.s 			page 31


 389      5414E047 
 389      61D6F027 
 390 11e4 4C516D8D 		.ascii	"LQm\215wf\"x\342\007\343\206B(\355\030\251\2660F R\005"
 390      77662278 
 390      E207E386 
 390      4228ED18 
 390      A9B63046 
 391 11fb 4B7E3417 		.ascii	"K~4\027\313\377\\\030\311\255\256\351U\270\235\347\367"
 391      CBFF5C18 
 391      C9ADAEE9 
 391      55B89DE7 
 391      F7
 392 120c 8B615DA0 		.ascii	"\213a]\240\377\003r\365R\377"
 392      FF0372F5 
 392      52FF
 393              		.text
 394              		.section	.gnu.lto_.symtab.f281097c613eb6c4,"",%progbits
 395 0000 74657374 		.ascii	"test_terminate_threads\000\000\000\000\000\000\000\000"
 395      5F746572 
 395      6D696E61 
 395      74655F74 
 395      68726561 
 396 001e 00000000 		.ascii	"\000\000\000\000\253\000\000\000threads\000\000\000"
 396      AB000000 
 396      74687265 
 396      61647300 
 396      0000
 397 0030 00000000 		.ascii	"\000\000\000\000\000\000\000\000\000y\001\000\000te"
 397      00000000 
 397      00790100 
 397      007465
 398 003f 73745F77 		.ascii	"st_wait_threads\000\000\000\000\000\000\000\000\000"
 398      6169745F 
 398      74687265 
 398      61647300 
 398      00000000 
 399 0057 000000AF 		.ascii	"\000\000\000\257\000\000\000test_wait_tick\000\000\000"
 399      00000074 
 399      6573745F 
 399      77616974 
 399      5F746963 
 400 006f 00000000 		.ascii	"\000\000\000\000\000\000\000\000\000\262\000\000\000"
 400      00000000 
 400      00B20000 
 400      00
 401 007c 77610000 		.ascii	"wa\000\000\000\000\000\000\000\000\000\000\000\000}"
 401      00000000 
 401      00000000 
 401      00007D
 402 008b 01000074 		.ascii	"\001\000\000test_buffer\000\000\000\000\000\000\000"
 402      6573745F 
 402      62756666 
 402      65720000 
 402      00000000 
 403 00a0 00000000 		.ascii	"\000\000\000\000\000\207\001\000\000test_suite\000\000"
 403      00870100 
 403      00746573 
ARM GAS  /tmp/cc2L2Wn2.s 			page 32


 403      745F7375 
 403      69746500 
 404 00b5 00000000 		.ascii	"\000\000\000\000\000\000\000\000\000\000\224\001\000"
 404      00000000 
 404      00009401 
 404      00
 405 00c2 00746573 		.ascii	"\000test_sequence_001\000\000\002\000\000\000\000\000"
 405      745F7365 
 405      7175656E 
 405      63655F30 
 405      30310000 
 406 00dc 00000000 		.ascii	"\000\000\000\000\257\001\000\000test_sequence_002\000"
 406      AF010000 
 406      74657374 
 406      5F736571 
 406      75656E63 
 407 00f6 00020000 		.ascii	"\000\002\000\000\000\000\000\000\000\000\000\262\001"
 407      00000000 
 407      000000B2 
 407      01
 408 0103 00007465 		.ascii	"\000\000test_sequence_003\000\000\002\000\000\000\000"
 408      73745F73 
 408      65717565 
 408      6E63655F 
 408      30303300 
 409 011d 00000000 		.ascii	"\000\000\000\000\000\265\001\000\000test_sequence_0"
 409      00B50100 
 409      00746573 
 409      745F7365 
 409      7175656E 
 410 0135 30340000 		.ascii	"04\000\000\002\000\000\000\000\000\000\000\000\000\270"
 410      02000000 
 410      00000000 
 410      0000B8
 411 0144 01000074 		.ascii	"\001\000\000test_sequence_005\000\000\002\000\000\000"
 411      6573745F 
 411      73657175 
 411      656E6365 
 411      5F303035 
 412 015e 00000000 		.ascii	"\000\000\000\000\000\000\273\001\000\000test_sequen"
 412      0000BB01 
 412      00007465 
 412      73745F73 
 412      65717565 
 413 0173 63655F30 		.ascii	"ce_006\000\000\002\000\000\000\000\000\000\000\000\000"
 413      30360000 
 413      02000000 
 413      00000000 
 413      0000
 414 0185 BE010000 		.ascii	"\276\001\000\000test_sequence_007\000\000\002\000\000"
 414      74657374 
 414      5F736571 
 414      75656E63 
 414      655F3030 
 415 019f 00000000 		.ascii	"\000\000\000\000\000\000\000\301\001\000\000test_se"
 415      000000C1 
 415      01000074 
ARM GAS  /tmp/cc2L2Wn2.s 			page 33


 415      6573745F 
 415      7365
 416 01b1 7175656E 		.ascii	"quence_008\000\000\002\000\000\000\000\000\000\000\000"
 416      63655F30 
 416      30380000 
 416      02000000 
 416      00000000 
 417 01c6 00C40100 		.ascii	"\000\304\001\000\000test_sequence_009\000\000\002\000"
 417      00746573 
 417      745F7365 
 417      7175656E 
 417      63655F30 
 418 01e0 00000000 		.ascii	"\000\000\000\000\000\000\000\000\307\001\000\000tes"
 418      00000000 
 418      C7010000 
 418      746573
 419 01ef 745F7365 		.ascii	"t_sequence_010\000\000\002\000\000\000\000\000\000\000"
 419      7175656E 
 419      63655F30 
 419      31300000 
 419      02000000 
 420 0207 0000CA01 		.ascii	"\000\000\312\001\000\000test_sequence_011\000\000\002"
 420      00007465 
 420      73745F73 
 420      65717565 
 420      6E63655F 
 421 0221 00000000 		.ascii	"\000\000\000\000\000\000\000\000\000\315\001\000\000"
 421      00000000 
 421      00CD0100 
 421      00
 422 022e 74657374 		.ascii	"test_sequence_012\000\000\002\000\000\000\000\000\000"
 422      5F736571 
 422      75656E63 
 422      655F3031 
 422      32000002 
 423 0248 000000D0 		.ascii	"\000\000\000\320\001\000\000chThdTerminate\000\000\002"
 423      01000063 
 423      68546864 
 423      5465726D 
 423      696E6174 
 424 0260 00000000 		.ascii	"\000\000\000\000\000\000\000\000\000\266\000\000\000"
 424      00000000 
 424      00B60000 
 424      00
 425 026d 63685468 		.ascii	"chThdWait\000\000\002\000\000\000\000\000\000\000\000"
 425      64576169 
 425      74000002 
 425      00000000 
 425      00000000 
 426 0281 00710100 		.ascii	"\000q\001\000\000chThdSleep\000\000\002\000\000\000"
 426      00636854 
 426      6864536C 
 426      65657000 
 426      00020000 
 427 0296 00000000 		.ascii	"\000\000\000\000\000\000u\001\000\000"
 427      00007501 
 427      0000
ARM GAS  /tmp/cc2L2Wn2.s 			page 34


 428              		.text
 429              		.section	.gnu.lto_.opts,"",%progbits
 430 0000 272D6D63 		.ascii	"'-mcpu=cortex-m0' '-mno-thumb-interwork' '-mthumb' "
 430      70753D63 
 430      6F727465 
 430      782D6D30 
 430      2720272D 
 431 0033 272D6767 		.ascii	"'-ggdb' '-O2' '-fomit-frame-pointer' '-falign-funct"
 431      64622720 
 431      272D4F32 
 431      2720272D 
 431      666F6D69 
 432 0066 696F6E73 		.ascii	"ions=16' '-ffunction-sections' '-fdata-sections' '-"
 432      3D313627 
 432      20272D66 
 432      66756E63 
 432      74696F6E 
 433 0099 666E6F2D 		.ascii	"fno-common' '-flto'\000"
 433      636F6D6D 
 433      6F6E2720 
 433      272D666C 
 433      746F2700 
 434              		.text
 435              		.cfi_sections	.debug_frame
 436              		.section	.text.test_terminate_threads,"ax",%progbits
 437              		.align	2
 438              		.p2align 4,,15
 439              		.global	test_terminate_threads
 440              		.code	16
 441              		.thumb_func
 442              		.type	test_terminate_threads, %function
 443              	test_terminate_threads:
 444              	.LFB179:
 445              		.file 1 "../../../test/rt/source/test/test_root.c"
 446              		.loc 1 115 0
 447              		.cfi_startproc
 448              	.LVL0:
 449 0000 38B5     		push	{r3, r4, r5, lr}
 450              		.cfi_def_cfa_offset 16
 451              		.cfi_offset 3, -16
 452              		.cfi_offset 4, -12
 453              		.cfi_offset 5, -8
 454              		.cfi_offset 14, -4
 455 0002 064C     		ldr	r4, .L9
 456 0004 251C     		mov	r5, r4
 457 0006 1435     		add	r5, r5, #20
 458              	.LVL1:
 459              	.L4:
 460              		.loc 1 119 0
 461 0008 2068     		ldr	r0, [r4]
 462 000a 0028     		cmp	r0, #0
 463 000c 01D0     		beq	.L2
 464              		.loc 1 120 0
 465 000e FFF7FEFF 		bl	chThdTerminate
 466              	.LVL2:
 467              	.L2:
 468 0012 0434     		add	r4, r4, #4
ARM GAS  /tmp/cc2L2Wn2.s 			page 35


 469              		.loc 1 118 0
 470 0014 AC42     		cmp	r4, r5
 471 0016 F7D1     		bne	.L4
 472              		.loc 1 121 0
 473              		@ sp needed
 474 0018 38BD     		pop	{r3, r4, r5, pc}
 475              	.L10:
 476 001a C046     		.align	2
 477              	.L9:
 478 001c 00000000 		.word	.LANCHOR0
 479              		.cfi_endproc
 480              	.LFE179:
 481              		.size	test_terminate_threads, .-test_terminate_threads
 482              		.section	.text.test_wait_threads,"ax",%progbits
 483              		.align	2
 484              		.p2align 4,,15
 485              		.global	test_wait_threads
 486              		.code	16
 487              		.thumb_func
 488              		.type	test_wait_threads, %function
 489              	test_wait_threads:
 490              	.LFB180:
 491              		.loc 1 126 0
 492              		.cfi_startproc
 493              	.LVL3:
 494 0000 70B5     		push	{r4, r5, r6, lr}
 495              		.cfi_def_cfa_offset 16
 496              		.cfi_offset 4, -16
 497              		.cfi_offset 5, -12
 498              		.cfi_offset 6, -8
 499              		.cfi_offset 14, -4
 500 0002 074C     		ldr	r4, .L18
 501              		.loc 1 132 0
 502 0004 0026     		mov	r6, #0
 503 0006 251C     		mov	r5, r4
 504 0008 1435     		add	r5, r5, #20
 505              	.LVL4:
 506              	.L14:
 507              		.loc 1 130 0
 508 000a 2068     		ldr	r0, [r4]
 509 000c 0028     		cmp	r0, #0
 510 000e 02D0     		beq	.L12
 511              		.loc 1 131 0
 512 0010 FFF7FEFF 		bl	chThdWait
 513              	.LVL5:
 514              		.loc 1 132 0
 515 0014 2660     		str	r6, [r4]
 516              	.L12:
 517 0016 0434     		add	r4, r4, #4
 518              		.loc 1 129 0
 519 0018 AC42     		cmp	r4, r5
 520 001a F6D1     		bne	.L14
 521              		.loc 1 134 0
 522              		@ sp needed
 523 001c 70BD     		pop	{r4, r5, r6, pc}
 524              	.L19:
 525 001e C046     		.align	2
ARM GAS  /tmp/cc2L2Wn2.s 			page 36


 526              	.L18:
 527 0020 00000000 		.word	.LANCHOR0
 528              		.cfi_endproc
 529              	.LFE180:
 530              		.size	test_wait_threads, .-test_wait_threads
 531 0024 C046C046 		.section	.text.test_wait_tick,"ax",%progbits
 531      C046C046 
 531      C046C046 
 532              		.align	2
 533              		.p2align 4,,15
 534              		.global	test_wait_tick
 535              		.code	16
 536              		.thumb_func
 537              		.type	test_wait_tick, %function
 538              	test_wait_tick:
 539              	.LFB181:
 540              		.loc 1 139 0
 541              		.cfi_startproc
 542 0000 08B5     		push	{r3, lr}
 543              		.cfi_def_cfa_offset 8
 544              		.cfi_offset 3, -8
 545              		.cfi_offset 14, -4
 546              		.loc 1 141 0
 547 0002 0120     		mov	r0, #1
 548 0004 FFF7FEFF 		bl	chThdSleep
 549              	.LVL6:
 550              	.LBB50:
 551              	.LBB51:
 552              	.LBB52:
 553              	.LBB53:
 554              	.LBB54:
 555              	.LBB55:
 556              		.file 2 "../../../os/common/ext/CMSIS/include/cmsis_gcc.h"
 557              		.loc 2 71 0
 558              	@ 71 "../../../os/common/ext/CMSIS/include/cmsis_gcc.h" 1
 559 0008 72B6     		cpsid i
 560              	@ 0 "" 2
 561              		.code	16
 562              	.LBE55:
 563              	.LBE54:
 564              	.LBE53:
 565              	.LBE52:
 566              	.LBB56:
 567              	.LBB57:
 568              	.LBB58:
 569              	.LBB59:
 570              		.file 3 "../../../os/hal/ports/STM32/LLD/TIMv1/hal_st_lld.h"
 571              		.loc 3 141 0
 572 000a 024B     		ldr	r3, .L21
 573 000c 586A     		ldr	r0, [r3, #36]
 574              	.LBE59:
 575              	.LBE58:
 576              	.LBE57:
 577              	.LBE56:
 578              	.LBB60:
 579              	.LBB61:
 580              	.LBB62:
ARM GAS  /tmp/cc2L2Wn2.s 			page 37


 581              	.LBB63:
 582              	.LBB64:
 583              		.loc 2 60 0
 584              	@ 60 "../../../os/common/ext/CMSIS/include/cmsis_gcc.h" 1
 585 000e 62B6     		cpsie i
 586              	@ 0 "" 2
 587              		.code	16
 588              	.LBE64:
 589              	.LBE63:
 590              	.LBE62:
 591              	.LBE61:
 592              	.LBE60:
 593              	.LBE51:
 594              	.LBE50:
 595              		.loc 1 142 0
 596 0010 80B2     		uxth	r0, r0
 597              		.loc 1 143 0
 598              		@ sp needed
 599 0012 08BD     		pop	{r3, pc}
 600              	.L22:
 601              		.align	2
 602              	.L21:
 603 0014 00040040 		.word	1073742848
 604              		.cfi_endproc
 605              	.LFE181:
 606              		.size	test_wait_tick, .-test_wait_tick
 607              		.global	wa
 608              		.global	threads
 609              		.global	test_buffer
 610              		.global	test_suite
 611 0018 C046C046 		.section	.bss.test_buffer,"aw",%nobits
 611      C046C046 
 612              		.align	3
 613              		.type	test_buffer, %object
 614              		.size	test_buffer, 1640
 615              	test_buffer:
 616 0000 00000000 		.space	1640
 616      00000000 
 616      00000000 
 616      00000000 
 616      00000000 
 617              		.section	.data.test_suite,"aw",%progbits
 618              		.align	2
 619              		.type	test_suite, %object
 620              		.size	test_suite, 52
 621              	test_suite:
 622 0000 00000000 		.word	test_sequence_001
 623 0004 00000000 		.word	test_sequence_002
 624 0008 00000000 		.word	test_sequence_003
 625 000c 00000000 		.word	test_sequence_004
 626 0010 00000000 		.word	test_sequence_005
 627 0014 00000000 		.word	test_sequence_006
 628 0018 00000000 		.word	test_sequence_007
 629 001c 00000000 		.word	test_sequence_008
 630 0020 00000000 		.word	test_sequence_009
 631 0024 00000000 		.word	test_sequence_010
 632 0028 00000000 		.word	test_sequence_011
ARM GAS  /tmp/cc2L2Wn2.s 			page 38


 633 002c 00000000 		.word	test_sequence_012
 634 0030 00000000 		.word	0
 635              		.section	.rodata.wa,"a",%progbits
 636              		.align	2
 637              		.type	wa, %object
 638              		.size	wa, 20
 639              	wa:
 640 0000 00000000 		.word	test_buffer
 641 0004 48010000 		.word	test_buffer+328
 642 0008 90020000 		.word	test_buffer+656
 643 000c D8030000 		.word	test_buffer+984
 644 0010 20050000 		.word	test_buffer+1312
 645              		.section	.bss.threads,"aw",%nobits
 646              		.align	2
 647              		.set	.LANCHOR0,. + 0
 648              		.type	threads, %object
 649              		.size	threads, 20
 650              	threads:
 651 0000 00000000 		.space	20
 651      00000000 
 651      00000000 
 651      00000000 
 651      00000000 
 652              		.text
 653              	.Letext0:
 654              		.file 4 "/usr/lib/gcc/arm-none-eabi/4.8/include/stddef.h"
 655              		.file 5 "/usr/include/newlib/machine/_default_types.h"
 656              		.file 6 "/usr/include/newlib/stdint.h"
 657              		.file 7 "../../../os/common/ports/ARMCMx/compilers/GCC/chtypes.h"
 658              		.file 8 "../../../os/rt/include/chsystypes.h"
 659              		.file 9 "../../../os/rt/include/chschd.h"
 660              		.file 10 "../../../os/common/ports/ARMCMx/chcore.h"
 661              		.file 11 "../../../os/common/ports/ARMCMx/chcore_v6m.h"
 662              		.file 12 "../../../os/hal/ports/STM32/LLD/TIMv1/stm32_tim.h"
 663              		.file 13 "../../../os/rt/include/chsem.h"
 664              		.file 14 "../../../os/rt/include/chmtx.h"
 665              		.file 15 "../../../test/lib/ch_test.h"
 666              		.file 16 "../../../os/common/ports/ARMCMx/chcore_timer.h"
 667              		.file 17 "../../../os/rt/include/chsys.h"
 668              		.file 18 "../../../os/rt/include/chvt.h"
 669              		.file 19 "../../../test/rt/source/test/test_sequence_001.h"
 670              		.file 20 "../../../test/rt/source/test/test_sequence_002.h"
 671              		.file 21 "../../../test/rt/source/test/test_sequence_003.h"
 672              		.file 22 "../../../test/rt/source/test/test_sequence_004.h"
 673              		.file 23 "../../../test/rt/source/test/test_sequence_005.h"
 674              		.file 24 "../../../test/rt/source/test/test_sequence_006.h"
 675              		.file 25 "../../../test/rt/source/test/test_sequence_007.h"
 676              		.file 26 "../../../test/rt/source/test/test_sequence_008.h"
 677              		.file 27 "../../../test/rt/source/test/test_sequence_009.h"
 678              		.file 28 "../../../test/rt/source/test/test_sequence_010.h"
 679              		.file 29 "../../../test/rt/source/test/test_sequence_011.h"
 680              		.file 30 "../../../test/rt/source/test/test_sequence_012.h"
 681              		.file 31 "../../../os/rt/include/chthreads.h"