ARM GAS  /tmp/cc2L2Wn2.s 			page 1


   1              		.cpu cortex-m0
   2              		.fpu softvfp
   3              		.eabi_attribute 20, 1
   4              		.eabi_attribute 21, 1
   5              		.eabi_attribute 23, 3
   6              		.eabi_attribute 24, 1
   7              		.eabi_attribute 25, 1
   8              		.eabi_attribute 26, 1
   9              		.eabi_attribute 30, 2
  10              		.eabi_attribute 34, 0
  11              		.eabi_attribute 18, 4
  12              		.code	16
  13              		.file	"test_root.c"
  14              		.text
  15              	.Ltext0:
  16              		.section	.gnu.lto_.jmpfuncs.f281097c613eb6c4,"",%progbits
  17 0000 789C6362 		.ascii	"x\234cb`b\300\006$\24043\003\003#\003P\015#\210\311"
  17      6062C006 
  17      24A03433 
  17      03032303 
  17      500D2388 
  18 0015 C814C198 		.ascii	"\310\024\301\230\311\010b3\000\000\012\364\000\356"
  18      C9086233 
  18      00000AF4 
  18      00EE
  19              		.text
  20              		.section	.gnu.lto_.inline.f281097c613eb6c4,"",%progbits
  21 0000 789C6362 		.ascii	"x\234cb`b\300\006\202\24143\003\003\367\011\006F\006"
  21      6062C006 
  21      82A13433 
  21      0303F709 
  21      064606
  22 0013 269E179F 		.ascii	"&\236\027\237\231\031\330\026\310\203\2253q320N\360"
  22      9919D816 
  22      C8839533 
  22      71333230 
  22      4EF0
  23 0025 6362E039 		.ascii	"cb\3409\003\222\343[\263\212\005]\216\231\201C\000("
  23      0392E35B 
  23      B38A055D 
  23      8E998143 
  23      0028
  24 0037 C5F6410F 		.ascii	"\305\366A\017I\206\001\250\232\001\000\033\350\012\337"
  24      498601A8 
  24      9A01001B 
  24      E80ADF
  25              		.text
  26              		.section	.gnu.lto_.pureconst.f281097c613eb6c4,"",%progbits
  27 0000 789C6362 		.ascii	"x\234cb`b`g\200\000f\006\011&\011f+\000\001\341\000"
  27      60626067 
  27      80006606 
  27      09260966 
  27      2B0001E1 
  28 0015 7E       		.ascii	"~"
  29              		.text
  30              		.section	.gnu.lto_test_terminate_threads.f281097c613eb6c4,"",%progbits
  31 0000 789C5D92 		.ascii	"x\234]\222\277k\024A\024\307\277\337\231\235\335\365"
ARM GAS  /tmp/cc2L2Wn2.s 			page 2


  31      BF6B1441 
  31      14C7BFDF 
  31      999DDDF5 
  32 0010 47402BDB 		.ascii	"G@+\333\240\225\220\273#M\376\007\373\\\210\225\204"
  32      A09590BB 
  32      234DFE07 
  32      FB5C8895 
  32      84
  33 0021 251C5BC8 		.ascii	"%\034[\310\301\335YYd6w\2014\301`\245I\223#\215\205"
  33      C1DD5959 
  33      64367781 
  33      34C160A5 
  33      4993238D 
  34 0036 E01F1085 		.ascii	"\340\037\020\205\013\026z\205\212\245`\261X\244\012"
  34      0B167A85 
  34      8AA560B1 
  34      58A40A
  35 0045 D6171338 		.ascii	"\326\027\0238\337\354\354\336E\207\335y\363f\336\373"
  35      DFECECDE 
  35      4587DD79 
  35      F366DEFB 
  36 0055 BC1F330A 		.ascii	"\274\0373\012\012\377\2175\371\257\010\324D2\006\325"
  36      0AFF8F35 
  36      F9AF08D4 
  36      443206D5 
  37 0065 FE57208B 		.ascii	"\376W \213\025C\277\320*\370\264\002{\323\214\357\301"
  37      1543BFD0 
  37      2AF8B402 
  37      7BD38CEF 
  37      C1
  38 0076 DE0E68FC 		.ascii	"\336\016h\374\266\361\347\247q\250\364\336)\304 \352"
  38      B6F1E7A7 
  38      71A8F4DE 
  38      29C420EA 
  39 0086 2F884144 		.ascii	"/\210AD\272}\020[J\007&\214\270\365\230.\016\357ch\355"
  39      BA7D105B 
  39      4A07268C 
  39      B8F5982E 
  39      0EEF6368 
  40 009b CB7CE732 		.ascii	"\313|\3472\347k;\032\034\331\253\351\224L)9-\021\011"
  40      E76B3B1A 
  40      1CD9ABE9 
  40      944C2939 
  40      2D1109
  41 00ae B12E0A17 		.ascii	"\261.\012\027\013\241\202\177\223|\247F\371t\372\376"
  41      0BA1827F 
  41      937CA746 
  41      F974FAFE 
  42 00be C3DB5F17 		.ascii	"\303\333_\027\274\033\023\033\034\012\317 \245\216J"
  42      BC1B131B 
  42      1C0ACF20 
  42      A58E4A
  43 00cd 4586C1C0 		.ascii	"E\206\301\300\332\375\305JO\212\270\2532KfM*\021z\214"
  43      DAFDC54A 
  43      4F8AB8AB 
  43      324B664D 
  43      2A117A8C 
ARM GAS  /tmp/cc2L2Wn2.s 			page 3


  44 00e1 EDFCF7C7 		.ascii	"\355\374\367\307p\203\3074\245\243\2137\013\324\244"
  44      7083C734 
  44      A5A38B37 
  44      0BD4A4
  45 00f0 8694A3BF 		.ascii	"\206\224\243\277`\373\347\344r\244\274a\213\246\206"
  45      60FBE7E4 
  45      72A4BC61 
  45      8BA686
  46 00ff 25097688 		.ascii	"%\011v\210\203\314\332;)\203\347\370cw\335\312<-\274"
  46      83CCDA3B 
  46      2983E7F8 
  46      6377DDCA 
  46      3C2DBC
  47 0112 1DC51488 		.ascii	"\035\305\024\210\026\347\270\317\030\234g\3133\2103"
  47      16E7B8CF 
  47      189C67CB 
  47      338833
  48 0121 D2D7EB6A 		.ascii	"\322\327\353j2\300IM\177\303 \237\034\337\362v\300\214"
  48      32C0494D 
  48      7FC3209F 
  48      1CDFF276 
  48      C08C
  49 0133 1D26254B 		.ascii	"\035&%K|SF\225\217)S\354\357\366O^<\252\350\221\004"
  49      7C534695 
  49      8F2953EC 
  49      EFF64F5E 
  49      3CAAE891 
  50 0148 2E6A712E 		.ascii	".jq.c\250\3535\266\346\316!\344~\\\037b\314\016Ydz\226"
  50      63A8EB35 
  50      B6E6CE21 
  50      E47E5C1F 
  50      62CC0E59 
  51 015f 4515CB83 		.ascii	"E\025\313\203\346\227\360\003,\333\244\336h\201\231"
  51      E697F003 
  51      2CDBA4DE 
  51      688199
  52 016e 57371C2B 		.ascii	"W7\034+r-\375\216,\277xP\345\356\307\252 \373\013\356"
  52      722DFD8E 
  52      2CBF7850 
  52      E5EEC7AA 
  52      20FB0BEE 
  53 0182 B13DACD7 		.ascii	"\261=\254\327\033\376\353mv{\215N\257\321m?\353$\233"
  53      1BFEEB6D 
  53      767B8D4E 
  53      AFD16D3F 
  53      EB249B
  54 0195 5E75D393 		.ascii	"^u\323\223N\273\335\253'`\372\027c\356\207\024"
  54      4EBBDDAB 
  54      2760FA17 
  54      63EE8714 
  55              		.text
  56              		.section	.gnu.lto_test_wait_threads.f281097c613eb6c4,"",%progbits
  57 0000 789C9552 		.ascii	"x\234\225R\277k\024A\024\376\276\231\235\335M0 6\266"
  57      BF6B1441 
  57      14FEBE99 
  57      9DDD4D30 
  57      2036B6
ARM GAS  /tmp/cc2L2Wn2.s 			page 4


  58 0013 41B01072 		.ascii	"A\260\020rw\330\330\371\007\010\2269\321J\302\022\302"
  58      77D8D8F9 
  58      07089639 
  58      D14AC212 
  58      C2
  59 0024 16E1E072 		.ascii	"\026\341\340rV\026\231\315\235\020\021C\020\213D\033"
  59      561699CD 
  59      9D101143 
  59      108B441B 
  60 0034 630A5304 		.ascii	"c\012S\004\322\006,\314\025b\256PI\247`\261\026Z\345"
  60      D2062CCC 
  60      1562AE50 
  60      49A760B1 
  60      165AE5
  61 0047 0F084158 		.ascii	"\017\010AX\337\354\354^\022;\037\2733\363~}\357{oFA"
  61      DFECEC5E 
  61      123B1FBB 
  61      33F37E7D 
  61      EF7B6F46 
  62 005c E15FB927 		.ascii	"\341_\271'\377]17dg\014\252\365/@\026+\206\376\240U"
  62      FF5D3137 
  62      64670CAA 
  62      F52F4016 
  62      2B86FEA0 
  63 0071 F0E916EC 		.ascii	"\360\351\026\354\244\031]\205\275\024\320x\263\361\376"
  63      A4195D85 
  63      BD14D078 
  63      B3F1FE
  64 0080 611C2AFD 		.ascii	"a\034*\375|\010\011\210\372S\022\020\221\316\016bY\351"
  64      7C080988 
  64      FA531210 
  64      91CE0E62 
  64      59E9
  65 0092 C0841197 		.ascii	"\300\204\021\227\037\320\325\3415lY\373\"\377U\344\334"
  65      1FD0D5E1 
  65      356C59FB 
  65      22FF55E4 
  65      DC
  66 00a3 B4078337 		.ascii	"\264\007\2037\366OQ\220)\205\323\014\221\020\367E\341"
  66      F64F5190 
  66      2985D30C 
  66      9110F745 
  66      E1
  67 00b4 74B9A9E0 		.ascii	"t\271\251\340\"\311=u\220\027\305\361\207\223\237k\274"
  67      22C93D75 
  67      9017C5F1 
  67      87939F6B 
  67      BC
  68 00c5 3241CC71 		.ascii	"2A\314qK\360\014R\352\270RD\014\006\326\256O\327zR\326"
  68      4BF00C52 
  68      EAB85244 
  68      0C06D6AE 
  68      4FD77A52 
  69 00da 9D955598 		.ascii	"\235\225U\230\265\251d\323#\254\344O?\206s\334\246\251"
  69      B5A964D3 
  69      23ACE44F 
  69      3F8673DC 
ARM GAS  /tmp/cc2L2Wn2.s 			page 5


  69      A6A9
  70 00ec 125DBD71 		.ascii	"\022]\275q\24165\244\035\375\031+?\276\275\035*\037"
  70      A13635A4 
  70      1DFD192B 
  70      3FBEBD1D 
  70      2A1F
  71 00fe B840D3C0 		.ascii	"\270@\323\300\214\024{\215W\231\265\227S\006\217qjW"
  71      8C147B8D 
  71      5799B597 
  71      53068F71 
  71      6A57
  72 0110 DDC92C96 		.ascii	"\335\311,\226\331\016\305\224\020\013<\203;\304\340"
  72      D90EC594 
  72      100B3C83 
  72      3BC4E0
  73 011f 38BB3906 		.ascii	"8\2739\006qA\372|_m\006x\337\320_1\310\237=\231\364"
  73      7141FA7C 
  73      5F6D0678 
  73      DFD05F31 
  73      C89F3D99 
  74 0134 71C0183B 		.ascii	"q\300\030;L*,\311M\031\001Bk\177c\373\250\242\325\300"
  74      4C2A2CC9 
  74      4D190142 
  74      6B7F63FB 
  74      A8A2D5C0 
  75 0148 AE15B9FD 		.ascii	"\256\025\271\375\337\304.\360h\213\333\267\334_\355"
  75      DFC42EF0 
  75      688BDBB7 
  75      DC5FED
  76 0157 BF7B79A7 		.ascii	"\277{y\247f\033K|9\033\2275\202:?3\361\326\311!\344"
  76      661B4B7C 
  76      391B9735 
  76      823A3F33 
  76      F1D6C921 
  77 016c BEDD5CC5 		.ascii	"\276\335\\\305R;Yv\376;\213j,\017tv\251\337\301j\354"
  77      523B5976 
  77      FE3B8B6A 
  77      2C0F7476 
  77      A9DFC16A 
  78 0181 6A470B98 		.ascii	"jG\013\230\331\230pX\221\273\242#d\371\332\365z\026"
  78      D9987058 
  78      91BBA223 
  78      64F9DAF5 
  78      7A16
  79 0193 5E6605B2 		.ascii	"^f\005\262?\345\036\357\215f\263\345\277\336\374R\257"
  79      3FE51EEF 
  79      8D66B3E5 
  79      BFDEFC52 
  79      AF
  80 01a4 D5EDB596 		.ascii	"\325\355\265\226:\217\272\311\274W\335\362\260\333\351"
  80      3A8FBAC9 
  80      BC57DDF2 
  80      B0DBE9
  81 01b3 F49A0998 		.ascii	"\364\232\011\230\376\005an\226\272"
  81      FE05616E 
  81      96BA
  82              		.text
ARM GAS  /tmp/cc2L2Wn2.s 			page 6


  83              		.section	.gnu.lto_test_wait_tick.f281097c613eb6c4,"",%progbits
  84 0000 789C8D52 		.ascii	"x\234\215RMh\023A\024~o\223t\023c\245GEIKO\212\230\241"
  84      4D681341 
  84      147E6F93 
  84      741363A5 
  84      4745494B 
  85 0018 2D7856EA 		.ascii	"-xV\352\245\320\200\230\010z\012q\262$\013\331n\331"
  85      A5D08098 
  85      087A0A71 
  85      B2240BD9 
  85      6ED9
  86 002a DD86160F 		.ascii	"\335\206\026\017\335\324\200\242(!\210\370Wk\301\242"
  86      DDD480A2 
  86      282188F8 
  86      576BC1A2 
  87 003a 15AC37CF 		.ascii	"\025\2547\317\301\203(\322\004\351\251\232CQ<xP\033"
  87      C18328D2 
  87      04E9A99A 
  87      43513C78 
  87      501B
  88 004c 7A29B524 		.ascii	"z)\265$\276\331m\327`,\270\354\233\331\231\367\315\367"
  88      BED96DD7 
  88      602CB8EC 
  88      9BD999F7 
  88      CDF7
  89 005e BEF7CD4A 		.ascii	"\276\367\315J \301\337\317!\212\253\264}\026\001\320"
  89      20C1DFCF 
  89      218AABB4 
  89      7D1601D0 
  90 006e 072895AA 		.ascii	"\007(\225\252\000\205\240\204(>\000aZ\302\351\213\350"
  90      0085A084 
  90      283E0061 
  90      5AC2E98B 
  90      E8
  91 007f 605F4A95 		.ascii	"`_J\225\265Vk\351\325\365'\333\270(\005\375\240\"\004"
  91      B5566BE9 
  91      D5F527DB 
  91      B82805FD 
  91      A02204
  92 0092 6810D900 		.ascii	"h\020\331\000\024m\273\324\007\300\035l\202FAp\036%"
  92      146DBBD4 
  92      07C01D6C 
  92      82464170 
  92      1E25
  93 00a4 31FB6A50 		.ascii	"1\373jP\\\233]\220S8\217\001J_\206-\373\232\335\243"
  93      5C9B5D90 
  93      53388F01 
  93      4A5F862D 
  93      FB9ADDA3 
  94 00b8 A2C4D1E5 		.ascii	"\242\304\321\345\276\200\304\203D\346\003\250B\241Q"
  94      BE80C483 
  94      44E603A8 
  94      42A151
  95 00c7 7FF4063D 		.ascii	"\177\364\006=N\367\243\362\353\346\367\360Qo\265q{3"
  95      4EF7A3F2 
  95      EBE6F7F0 
  95      516FB571 
ARM GAS  /tmp/cc2L2Wn2.s 			page 7


  95      7B33
  96 00d9 7CC45B35 		.ascii	"|\304[5\356l\311\236\212~\230\267\355r\245Q\273u\320"
  96      EE6CC99E 
  96      8A7E98B7 
  96      ED72A551 
  96      BB75D0
  97 00ec 7E5C28D9 		.ascii	"~\\(\331\315VK\320K\360\236J\220@Q\314\337\343L\201"
  97      CD564BD0 
  97      4BF09E4A 
  97      904051CC 
  97      DFE34C81 
  98 0100 0E4B7608 		.ascii	"\016Kv\010o\324\006\001\\\275\034\035\020'm\034\375"
  98      6FD40601 
  98      5CBD1C1D 
  98      10276D1C 
  98      FD
  99 0111 14011789 		.ascii	"\024\001\027\211\260B[N.\002u\234\265\357\236R\261\313"
  99      B0425B4E 
  99      2E02759C 
  99      B5EF9E52 
  99      B1CB
 100 0123 CD2DC3EB 		.ascii	"\315-\303\353\217\0177\276-\226;\272\370\262\360\311"
 100      8F0F37BE 
 100      2D963BBA 
 100      F8B2F0C9 
 101 0133 E76BD3BD 		.ascii	"\347k\323\275\352\351\266\177\316\035\0265\237:5\273"
 101      EAE9B67F 
 101      CE1D1635 
 101      9F3A35BB 
 102 0143 28648AA0 		.ascii	"(d\212\240\240\313\240\3778<\267\213\205\265{\265j\031"
 102      A0CBA0FF 
 102      383CB78B 
 102      85B57BB5 
 102      6A19
 103 0155 FD2ACA0F 		.ascii	"\375*\312\017\340>\265F\036\006E\037!\362\323\366;-"
 103      E03EB546 
 103      1E06451F 
 103      21F2D3F6 
 103      3B2D
 104 0167 851C0197 		.ascii	"\205\034\001\227\204\257)\\r\305.\303\314\217+\007R"
 104      84AF295C 
 104      72C52EC3 
 104      CC8F2B07 
 104      52
 105 0178 F8829619 		.ascii	"\370\202\226\031\014\020\035\300;\230Y\257\177m\256"
 105      0C101DC0 
 105      3B9859AF 
 105      7F6DAE
 106 0187 A25B3185 		.ascii	"\242[1\205\317\260\3379\352\370\277\331\335i\1773\334"
 106      CFB0DF39 
 106      EAF8BFD9 
 106      DD697F33 
 106      DC
 107 0198 DB66FF5C 		.ascii	"\333f\377\\w\244\355\336\275~\266\345?=\204\\\337\366"
 107      77A4EDDE 
 107      BD7EB6E5 
 107      3F3D845C 
ARM GAS  /tmp/cc2L2Wn2.s 			page 8


 107      DFF6
 108 01aa 5184773D 		.ascii	"Q\204w={+\355\345\331\007(\254\177^\331\357\232\236"
 108      7B2BEDE5 
 108      D90728AC 
 108      7F5ED9EF 
 108      9A9E
 109 01bc D9753941 		.ascii	"\331u9AwF\277\2208r,\032e\356k)\246\305\014\213\231"
 109      7746BF90 
 109      38722C1A 
 109      65EE6B29 
 109      A6C50C8B 
 110 01d1 FA84C115 		.ascii	"\372\204\301\025w)\206\244\241\353V\224\303\200\207"
 110      772986A4 
 110      A1EB5694 
 110      C38087
 111 01e0 D44DC675 		.ascii	"\324M\306uM\323\307\2302i\261\341X|$\316\3241\236\233"
 111      4DD3C798 
 111      3269B1E1 
 111      587C24CE 
 111      D4319E9B 
 112 01f4 482B8C6B 		.ascii	"H+\214k\246j&3\234G\263p\342\037'\306u\3032\331\351"
 112      A66A2633 
 112      9C47B370 
 112      E21F27C6 
 112      75C332D9 
 113 0209 73B1E1D8 		.ascii	"s\261\341\330$\343Y\256\033J2\177R#to;\232tx\214Ys\312"
 113      24E359AE 
 113      1B4A327F 
 113      5223746F 
 113      3B9A7478 
 114 0221 A47C64CF 		.ascii	"\244|d\317|\336\242\264L(K\325\224 \0377\325t\237\012"
 114      7CDEA2B4 
 114      4C284BD5 
 114      94201F37 
 114      D5749F0A 
 115 0235 B2A668BA 		.ascii	"\262\246h\2721\005C\355\347\262\251\334\216\204x\"6"
 115      310543ED 
 115      E7B2A9DC 
 115      8E847822 
 115      36
 116 0246 34C84647 		.ascii	"4\310FG\317\260\304H,? 2Ij6\227K\023\031\373O\345\242"
 116      CFB0C448 
 116      2C3F2032 
 116      496A3697 
 116      4B1319FB 
 117 025d A04178A7 		.ascii	"\240Ax\247\250BE\177\003\315\362\027\221"
 117      A842457F 
 117      03CDF217 
 117      91
 118              		.text
 119              		.section	.gnu.lto_.symbol_nodes.f281097c613eb6c4,"",%progbits
 120 0000 789C4DCD 		.ascii	"x\234M\3157\016\002A\020D\321\3763;x\023\000\347\355"
 120      370E0241 
 120      1044D1FE 
 120      333B7813 
 120      00E7ED
 121 0013 95480839 		.ascii	"\225H\0109\00119\336{\023q\006\020w Dlk\021K'OU*\251"
ARM GAS  /tmp/cc2L2Wn2.s 			page 9


 121      013139DE 
 121      7B137106 
 121      10772044 
 121      6C6B114B 
 122 002c 9D3879C8 		.ascii	"\2358y\310\367\334\004\025\351\336DT{\035\302\010\011"
 122      F7DC0415 
 122      E9DE4454 
 122      7B1DC208 
 122      09
 123 003d 2A6E8A92 		.ascii	"*n\212\222\265n\206\272\277\321\030\222Q\030\342\214"
 123      B56E86BA 
 123      BFD11892 
 123      5118E28C 
 124 004d 01DE9813 		.ascii	"\001\336\230\023I\302\202`,\311\031+\362\306\232\202"
 124      49C28260 
 124      2CC9192B 
 124      F2C69A82 
 125 005d B1A1686C 		.ascii	"\261\241hl)\031;\312\306\236\212q\240j\034\251\031'"
 125      29193BCA 
 125      C69E8A71 
 125      A06A1CA9 
 125      1927
 126 006f EA099C51 		.ascii	"\352\011\234Q\237\376\215c\270\240Q\226\256h\370%/\015"
 126      9FFE8D63 
 126      B8A05196 
 126      AE68F825 
 126      2F0D
 127 0081 79F65F39 		.ascii	"y\366_9\357\232\251\276%\355\373\033\371\000u\2608\000"
 127      EF9AA9BE 
 127      25EDFB1B 
 127      F90075B0 
 127      3800
 128              		.text
 129              		.section	.gnu.lto_.refs.f281097c613eb6c4,"",%progbits
 130 0000 789C35C2 		.ascii	"x\2345\302\211\015\300 \020\304\300=\213?\204\257\023"
 130      890DC020 
 130      10C4C03D 
 130      8B3F84AF 
 130      13
 131 0011 FA6F2E91 		.ascii	"\372o.\221\020\036#\264u\262\177\220\231y\207\277j "
 131      101E23B4 
 131      75B27F90 
 131      997987BF 
 131      6A20
 132 0023 92C8141E 		.ascii	"\222\310\024\036*/\215\316`\262\364\001\035\027\001"
 132      2A2F8DCE 
 132      60B2F401 
 132      1D1701
 133 0032 2B       		.ascii	"+"
 134              		.text
 135              		.section	.gnu.lto_.decls.f281097c613eb6c4,"",%progbits
 136 0000 789CBD5B 		.ascii	"x\234\275[\015p\024U\236\357\217I&C\"\237\267\026\336"
 136      0D701455 
 136      9EEF8F49 
 136      2643229F 
 136      B716DE
 137 0013 AD12F7F4 		.ascii	"\255\022\367\364\\\255[\222\000b\254\272U\274`\271V"
ARM GAS  /tmp/cc2L2Wn2.s 			page 10


 137      5CAD5B92 
 137      0062ACBA 
 137      55BC60B9 
 137      56
 138 0024 C99E1570 		.ascii	"\311\236\025p\317\252\253\332\331f\322\220Y'3q\246C"
 138      CFAAABDA 
 138      D966D290 
 138      59273371 
 138      A643
 139 0036 E0AEAEEC 		.ascii	"\340\256\256\354$\010,\207k  (!\004\026\026DY\"\230"
 139      24082C87 
 139      6B202028 
 139      21041616 
 139      44592298 
 140 004a 0450A057 		.ascii	"\004P\240W\331\020\303\022C\002\030Ad\020e\221\335c"
 140      D910C312 
 140      43021841 
 140      64106591 
 140      DD63
 141 005c 897C7F39 		.ascii	"\211|\1779\367\177\257\273\247\373\365\274\236\351\016"
 141      F77FAFBB 
 141      A7FBF5BC 
 141      9EE90E
 142 006b EB75E5BD 		.ascii	"\353u\345\275\274\351~\357\367\377|\377\367\177\257"
 142      BCE97EEF 
 142      F7FF7CFF 
 142      F77FAF
 143 007a 67388663 		.ascii	"g8\206c\226\262\014\223\200\353\227?f\030f\010\303x"
 143      96B20C93 
 143      80EB973F 
 143      66186608 
 143      C378
 144 008c E0DF6350 		.ascii	"\340\337cP\3406\263\206Q\257l(oA\331\002e+\2246(/B\207"
 144      E036B386 
 144      51AF6C28 
 144      6F41D902 
 144      652B9436 
 145 00a4 2A28C3A1 		.ascii	"*(\303\241=\007\376\3777\224\371P\020\336\026([\241"
 145      3D07FEFF 
 145      3794F950 
 145      10DE1628 
 145      5BA1
 146 00b6 B442D90E 		.ascii	"\264B\331\016\345=(\273\241\374\036\312^(\373\240tA"
 146      E53D28BB 
 146      A1FC1ECA 
 146      5E28FBA0 
 146      7441
 147 00c8 3900A587 		.ascii	"9\000\245\207e\210\013\321\311\201\222\005e(\224<(;"
 147      65880BD1 
 147      C9819205 
 147      6528943C 
 147      283B
 148 00da A0FC27F4 		.ascii	"\240\374'\364\353\205\322\007\245]\353\313i\375\333"
 148      EB85D207 
 148      A55DEBCB 
 148      69FDDB
 149 00e9 347EE758 		.ascii	"4~\347X\260\266d\300:\004%\312\032X[4\271hX[U\3650^"
ARM GAS  /tmp/cc2L2Wn2.s 			page 11


 149      B0B664C0 
 149      3A0425CA 
 149      1A585B34 
 149      B968585B 
 150 0101 4D2F87E1 		.ascii	"M/\207\341\371,\326\300=\002\355~(\237B\311\343T\214"
 150      F92CD6C0 
 150      3D02ED7E 
 150      289F42C9 
 150      E3548C
 151 0114 F3ACFA0C 		.ascii	"\363\254\372\014\215E\272\272\003\356\017\2072\012\312"
 151      8D45BABA 
 151      03EE0F87 
 151      320ACA
 152 0123 9D50FE01 		.ascii	"\235P\376\001\312=P\356\205r\037\224\007\240<\3041)"
 152      CA3D50EE 
 152      85721F94 
 152      07A03CC4 
 152      3129
 153 0135 978F5920 		.ascii	"\227\217Y \313\265\262<O\376\341F\240\367<+\260C}\240"
 153      CBB5B23C 
 153      4FFEE146 
 153      A0F73C2B 
 153      B0437DA0 
 154 0149 79D4C8F3 		.ascii	"y\324\310\363a\326\357g\326\311r}|\375\312\357\311\036"
 154      61D6EF67 
 154      D6C9727D 
 154      7CFDCAEF 
 154      C91E
 155 015b 815DC3A2 		.ascii	"\201]\303\242\273\017\260\314C\314\2332\334\227\345"
 155      BB0FB0CC 
 155      43CC9B32 
 155      DC97E5
 156 016a B57F9F0A 		.ascii	"\265\177\237\012\353\002w`\307)N\226s\004v=F\376\031"
 156      EB027760 
 156      C7294E96 
 156      7304763D 
 156      46FE19
 157 017d CB08EC3A 		.ascii	"\313\010\354:\366!\3278\211\216\315\217b\234\215\030"
 157      F621D738 
 157      898ECD8F 
 157      629C8D18 
 158 018d E7159604 		.ascii	"\347\025\226\004\022X\336gf\020\177\326; 4\374Xk$\022"
 158      1258DE67 
 158      66107FD6 
 158      3B2034FC 
 158      586B2412 
 159 01a1 3CF31D76 		.ascii	"<\363\035v\036\3034\311\315\361\370@\327%\341uY\231"
 159      1EC334C9 
 159      CDF1F840 
 159      D725E175 
 159      5999
 160 01b3 2B27122F 		.ascii	"+'\022/1w2\313@\235r\363<Yf%\201}\354{\272\254\371\272"
 160      317732CB 
 160      409D72F3 
 160      3C596625 
 160      817DEC7B 
 161 01cb AC1E0DFD 		.ascii	"\254\036\015\375m\366N\255\365\034\257;\330\007\026"
ARM GAS  /tmp/cc2L2Wn2.s 			page 12


 161      6DF64EAD 
 161      F51CAF3B 
 161      D80716
 162 01da 6919E69F 		.ascii	"i\031\346\237\230\365\010O\336(\363\030\015\365\177"
 162      98F5084F 
 162      DE28F318 
 162      0DF57F
 163 01e9 8B1D4332 		.ascii	"\213\035C2\272\231%\\B\345K\271\271/\257\276&\236H\214"
 163      BA99255C 
 163      42E54BB9 
 163      B92FAFBE 
 163      269E488C 
 164 01fd 516971E0 		.ascii	"Qiq\340xN\320\267X\321[\250\350\355]\257\334%7\327*"
 164      784ED0B7 
 164      58D15BA8 
 164      E8ED5DAF 
 164      DC2537D7 
 165 0212 89C4E356 		.ascii	"\211\304\343V\241\221o\331I\275\215\"\365\237\351|\325"
 165      A1916FD9 
 165      49BD8D22 
 165      F59FE97C 
 165      D5
 166 0223 CA2D1BE5 		.ascii	"\312-\033\345,\025\016\015\330\012\214\321\034G\303"
 166      2C150E0D 
 166      D80A8CD1 
 166      1C47C3
 167 0232 7B3795CD 		.ascii	"{7\225\315x}\374\322\307W\352\330\305u\315\235\362\371"
 167      787DFCD2 
 167      C757EAD8 
 167      C575CD9D 
 167      F2F9
 168 0244 4462980B 		.ascii	"Db\230\013\363\264k\214\362*\215\\f!\342\010\006\376"
 168      F3B46B8C 
 168      F22A8D5C 
 168      6621E208 
 168      06FE
 169 0256 A473E848 		.ascii	"\244s\350Hf1B\311\3574\\\271\331\243\003Lf\222\276\374"
 169      663142C9 
 169      EF345CB9 
 169      D9A3034C 
 169      6692BEFC 
 170 026a D5EABBD1 		.ascii	"\325\352\273\321\\\333\311\216\004\220&\216\2242#\010"
 170      5CDBC98E 
 170      0490268E 
 170      94322308 
 171 027a C76CC043 		.ascii	"\307l\300Cv\301pu \206\225\343}\015\307k\331\032\220"
 171      76C17075 
 171      208695E3 
 171      7D0DC76B 
 171      D91A90
 172 028d 407DC658 		.ascii	"@}\306X\224g\272\356e\232a\200r\245\253\221\225\233"
 172      9467BAEE 
 172      659A6180 
 172      72A5AB91 
 172      959B
 173 029f 3F602924 		.ascii	"?`)$'\351\024s\014\266_>\333\351\301S\360\367\230\361"
 173      27E91473 
ARM GAS  /tmp/cc2L2Wn2.s 			page 13


 173      0CB65F3E 
 173      DBE9C153 
 173      F0F798F1 
 174 02b3 5E3AE3CD 		.ascii	"^:\343\315\223\354`8\346\013<do\012\343}\037\353\214"
 174      93EC6038 
 174      E60B3C64 
 174      6F0AE37D 
 174      1FEB8C
 175 02c6 EF75C078 		.ascii	"\357u\300x\255rp\341\252\273\020\343\002\273\203\315"
 175      AD7270E1 
 175      AABB10E3 
 175      02BB83CD 
 176 02d6 05DC0B49 		.ascii	"\005\334\013I\\\232\331\264\246zi\035H\274\336\256\274"
 176      5C9AD9B4 
 176      A67A691D 
 176      48BCDEAE 
 176      BC
 177 02e7 7A4107BB 		.ascii	"zA\007\273\352\032,\237\306\252\356\177\206\264\002"
 177      EA1A2C9F 
 177      C6AAEE7F 
 177      86B402
 178 02f6 DBC1DE0F 		.ascii	"\333\301\336\017\365>\366^\250?\202:yq\314\255\244M"
 178      F53EF65E 
 178      A83F823A 
 178      7971CCAD 
 178      A44D
 179 0308 69AACB2C 		.ascii	"i\252\313,\302\265\256F\254\022-\242\252\016\311PE\320"
 179      C2B5AE46 
 179      AC122DA2 
 179      AA0EC950 
 179      45D0
 180 031a CCB9FC8D 		.ascii	"\314\271\374\215\275\007\331:\254\365\0038\246\276\317"
 180      BD07D93A 
 180      ACF50338 
 180      A6BECF
 181 0329 5383B303 		.ascii	"S\203\263\003\250\2017\027\3753\366\214\036\014\264"
 181      A8813717 
 181      FD33F68C 
 181      1E0CB4
 182 0338 77D04089 		.ascii	"w\320@\211\216\275\2135\236\3720\324\001\336\032\347"
 182      8EBD8B35 
 182      9EFA30D4 
 182      01DE1AE7 
 183 0348 BD9638EF 		.ascii	"\275\2268\357%\243\261\327g4Pv2\214\371\216\273sL?o"
 183      25A3B1D7 
 183      67345076 
 183      328CF98E 
 183      BB734C3F 
 184 035d 311DCD61 		.ascii	"1\035\315ar\354L'\307{\373>\347\320B\301\3533(\333N"
 184      72EC4C27 
 184      C77BFB3E 
 184      E7D042C1 
 184      EB3328DB 
 185 0372 4B1C731C 		.ascii	"K\034s\034\323\352\267\316\240\326\023\177\324gP\277"
 185      D3EAB7CE 
 185      A0D6137F 
 185      D46750BF 
ARM GAS  /tmp/cc2L2Wn2.s 			page 14


 186 0382 A319D4DA 		.ascii	"\243\031\324\332\265\034\273K\306\370\305\351\364\357"
 186      B51CBB4B 
 186      C6F8C5E9 
 186      F4EF
 187 0390 C3F4977A 		.ascii	"\303\364\227z\020\375\343V\372\213O\365\027\257\220"
 187      10FDE356 
 187      FA8B4FF5 
 187      17AF90
 188 039f E5E1EAA3 		.ascii	"\345\341\352\243\314\344_\357^\232J\3366\356j\316\321"
 188      CCE45FEF 
 188      5E9A4ADE 
 188      36EE6ACE 
 188      D1
 189 03b0 7AE2F480 		.ascii	"z\342\364\200&\344I<S\273=V\347x<\2274\037|6u\340\230"
 189      26E4493C 
 189      53BB3D56 
 189      E7783C97 
 189      341F7C36 
 190 03c7 4F92EC0F 		.ascii	"O\222\354\017*P\200\234g\212\337\334*\313\277\312\326"
 190      2A50809C 
 190      678ADFDC 
 190      2ACBBFCA 
 190      D6
 191 03d8 7938EA1A 		.ascii	"y8\352\0321\237\320Dc7\016=*\330q'`\266\236T\2534\231"
 191      319FD044 
 191      63370E3D 
 191      2AD87127 
 191      60B69E54 
 192 03ef C14EBA06 		.ascii	"\301N\272\006#9k1\203}\345\004l\270=g[\315`g\\\203\221"
 192      23396B31 
 192      837DE504 
 192      6CB83D67 
 192      5BCD6067 
 193 0406 9CBD6B06 		.ascii	"\234\275k\006\373\263\023\260\321\366\234\265\231\301"
 193      FBB313B0 
 193      D1F69CB5 
 193      99C1
 194 0414 CEB90623 		.ascii	"\316\271\006#9\333n\006\033p\002\226O\341,y\331%!\237"
 194      39DB6E06 
 194      1B700296 
 194      4FE12C79 
 194      D925219F 
 195 0428 B1493FE7 		.ascii	"\261I?\347\230\213\036=$\270\364i\306\300\270\342q\033"
 195      988B1E3D 
 195      24B8F469 
 195      C6C0B8E2 
 195      711B
 196 043a C208B961 		.ascii	"\302\010\271a\005?\261\226m\250\223;\013\365U\364\206"
 196      053FB196 
 196      6DA8933B 
 196      0BF555F4 
 196      86
 197 044b 13C4340E 		.ascii	"\023\3044\016S\277\337\264$\327d\271\005#\315\322\204"
 197      53BFDFB4 
 197      24D764B9 
 197      0523CDD2 
 197      84
ARM GAS  /tmp/cc2L2Wn2.s 			page 15


 198 045c C08858A3 		.ascii	"\300\210X\243-I\361\365\312\350\025F\264\313\321\261"
 198      2D49F1F5 
 198      CAE81546 
 198      B4CBD1B1 
 199 046c D01E4C0D 		.ascii	"\320\036L\015m\260\003\342\222\235\345\321\243\351}"
 199      6DB003E2 
 199      929DE5D1 
 199      A3E97D
 200 047b 05F65BBC 		.ascii	"\005\366[\274\264'X_\222\013\265\255\267\022,\322\363"
 200      B427585F 
 200      920BB5AD 
 200      B7122CD2 
 200      F3
 201 048c FC2CCBE6 		.ascii	"\374,\313\346P\2772\015\265\363\204\233fOX\344DMi\246"
 201      50BF320D 
 201      B5F3849B 
 201      664F58E4 
 201      444D69A6 
 202 04a0 428F9D9A 		.ascii	"B\217\235\232\224y\362\002\266\346\235\357\247M\017"
 202      9479F202 
 202      B6E69DEF 
 202      A74D0F
 203 04af 5B4F9C5B 		.ascii	"[O\234[\303\326\342\360<\227Ck\367\342,j\032\340\010"
 203      C3D6E2F0 
 203      3C97436B 
 203      F7E22C6A 
 203      1AE008
 204 04c2 6CE09A96 		.ascii	"l\340\232\226Q\314\307P\215\267\001\225\3508\256\347"
 204      51CCC750 
 204      8DB70195 
 204      E838AEE7 
 205 04d2 140B31D8 		.ascii	"\024\0131\330\372,\353\262\341\263\344\024>r\325\367"
 205      FA2CEBB2 
 205      E1B3E414 
 205      3E72D5F7 
 206 04e2 F98C4642 		.ascii	"\371\214FB\277HC~\247c\354\214_\307\231\214\337\342"
 206      BF48437E 
 206      A763EC8C 
 206      5FC7998C 
 206      DFE2
 207 04f4 DAF8C41C 		.ascii	"\332\370\304\034\201,\3442\267\\Vjx\223\267\247\235"
 207      812CE432 
 207      B75C566A 
 207      7893B7A7 
 207      9D
 208 0505 1A90411E 		.ascii	"\032\220A\036\335\375cl\244W\261^\333\351Fr\0004\360"
 208      DDFD636C 
 208      A457B15E 
 208      DBE94672 
 208      0034F0
 209 0518 F551F590 		.ascii	"\365Q\365\220`\011\006R\006\015\224\350h*\306@\3130"
 209      60090652 
 209      060D94E8 
 209      682AC640 
 209      CB30
 210 052a 50678AA5 		.ascii	"Pg\212\245Y\213\245Y\322\002\311y\247M\273\357\252/"
 210      598BA559 
ARM GAS  /tmp/cc2L2Wn2.s 			page 16


 210      D202C979 
 210      A74DBBEF 
 210      AA2F
 211 053c EC9EACE6 		.ascii	"\354\236\254\346\"\304I\2638$#\356\315%\354\205ZyE\241"
 211      22C449B3 
 211      382423EE 
 211      CD25EC85 
 211      5A7945A1 
 212 0550 0B7BBDA1 		.ascii	"\013{\275\241\331\353\015\254\235\376\024\355 \365\273"
 212      D9EB0DAC 
 212      9DFE14ED 
 212      20F5BB
 213 055f 1323EE5A 		.ascii	"\023#\356Z\214\034R\214\206\304 \304\330\243\212\261"
 213      8C1C528C 
 213      86C420C4 
 213      D8A38AB1 
 214 056f 1A8B71FA 		.ascii	"\032\213q\372o \3069\327b\0147\211\201w\260K\325\365"
 214      6F20C639 
 214      D7620C37 
 214      898177B0 
 214      4BD5F5
 215 0582 6F14B324 		.ascii	"o\024\263$}\016\217\223cn\024\221?+\207\273\331|\365"
 215      7D0E8F93 
 215      636E1491 
 215      3F2B87BB 
 215      D97CF5
 216 0595 76E65DFB 		.ascii	"v\346]\373\205n\323NOv\264\323;\232\334\351m\300*\273"
 216      856ED34E 
 216      4F76B4D3 
 216      3B9ADCE9 
 216      6DC02ABB 
 217 05a9 409B604E 		.ascii	"@\233`N\240\232\0076#F7a\224k\203E\201i\272G\235\246"
 217      A09A0736 
 217      23463761 
 217      946B8345 
 217      8169BA47 
 218 05bf 9B31504D 		.ascii	"\2331PM\266\325\202\331\026\003f\223\006\204\217\210"
 218      B6D582D9 
 218      16036693 
 218      06848F88 
 219 05cf D2551C1F 		.ascii	"\322U\034\037_\322\356\240\017^\346\377}\034\307\374"
 219      5FD2EEA0 
 219      0F5EE6FF 
 219      7D1CC7FC 
 220 05df 8FCA3E18 		.ascii	"\217\312>\030\317e\002\246;O\303\227\015z\362\244\332"
 220      CF6502A6 
 220      3B4FC397 
 220      0D7AF2A4 
 220      DA
 221 05f0 67C96D21 		.ascii	"g\311m!\326*\253_\325\317G\036G\351\323\312\333\204"
 221      D62AAB5F 
 221      D5CF471E 
 221      47E9D3CA 
 221      DB84
 222 0602 7BFF636B 		.ascii	"{\377ck^`\331\267\355\264Yu\364\203\243Sq5\274\267s"
 222      5E60D9B7 
 222      EDB45975 
ARM GAS  /tmp/cc2L2Wn2.s 			page 17


 222      F483A353 
 222      7135BCB7 
 223 0617 889DB529 		.ascii	"\210\235\265)\346\336\301Z\366m\350\206\251\213\335"
 223      E6DEC15A 
 223      F66DE886 
 223      A98BDD
 224 0626 3C6A332F 		.ascii	"<j3/\200\255\267k\206\276K\0263\274w\233z\273\246\231"
 224      80ADB76B 
 224      86BE4B16 
 224      33BC779B 
 224      7ABBA699 
 225 063a 21D326FB 		.ascii	"!\323&\373\027:V\036\026\344CLv\017g\331c\037\274\034"
 225      173A561E 
 225      16E4434C 
 225      760F67D9 
 225      631FBC1C 
 226 064e 9FA7E557 		.ascii	"\237\247\345W\350Y\346@q\354+\237\274$O=\256\023\330"
 226      E859E640 
 226      71EC2B9F 
 226      BC244F3D 
 226      AE13D8
 227 0661 FD2CA7A1 		.ascii	"\375,\247\241\322r\245\214\352Q>\027;\013\335\204\234"
 227      D272A58C 
 227      EA513E17 
 227      3B0BDD84 
 227      9C
 228 0672 0E3DE4EC 		.ascii	"\016=\344\354\305\272<\237b\364M\326(\355j\322]N*\311"
 228      C5BA3C9F 
 228      62F44DD6 
 228      28ED6AD2 
 228      5D4E2AC9 
 229 0686 E98EC57A 		.ascii	"\351\216\305z\3319\325n\263S]\277=\027\000\247\352X"
 229      D939D56E 
 229      B3535DBF 
 229      3D1700A7 
 229      EA58
 230 0698 A73A5526 		.ascii	"\247:U&'\220Y\363F\006\202\242\027Q\336o\365\202\326"
 230      279059F3 
 230      460682A2 
 230      1751DE6F 
 230      F582D6
 231 06ab EB9DF3B5 		.ascii	"\353\235\363\265C\220\375\216\274\340\022\305\013\366"
 231      4390FD8E 
 231      BCE012C5 
 231      0BF6
 232 06b9 0FD20BC0 		.ascii	"\017\322\013\300\245\277\376\210\305p\352\306lS\222"
 232      A5BFFE88 
 232      C570EAC6 
 232      6C5392
 233 06c8 499756D0 		.ascii	"I\227V\320\340n\212n\025\243\372\227\362\351Wh\035\352"
 233      E06E8A6E 
 233      15A3FA97 
 233      F2E95768 
 233      1DEA
 234 06da E3D04174 		.ascii	"\343\320At\213\327\352Z\252fL\256e\250Q`\017ph\247\326"
 234      8BD7EA5A 
 234      AA664CAE 
ARM GAS  /tmp/cc2L2Wn2.s 			page 18


 234      65A85160 
 234      0F7068A7 
 235 06ef CDA143D8 		.ascii	"\315\241C\330\217q}\2203\035\305\332\271E\257\341\026"
 235      8F717D90 
 235      331DC5DA 
 235      B945AFE1 
 235      16
 236 0700 02DB6955 		.ascii	"\002\333iU\243\323\375rF2]f\357\333\356\275=\357\353"
 236      A3D3FD72 
 236      46325D66 
 236      EFDBEEBD 
 236      3DEFEB
 237 0713 EDEBF6E0 		.ascii	"\355\353\366\340\223E\027\247\302G\377\240O\334~<q\367"
 237      934517A7 
 237      C247FFA0 
 237      4FDC7E3C 
 237      71F7
 238 0725 A468B7C7 		.ascii	"\244h\267\307\232D;9$\335?XQ\222\027\344\314^\007[\234"
 238      9A443B39 
 238      24DD3F58 
 238      519217E4 
 238      CC5E075B 
 239 073a 7C8AD693 		.ascii	"|\212\326\223\013\355\021-K\313x\322\252\277\025=\255"
 239      0BED112D 
 239      4BCB78D2 
 239      AABF153D 
 239      AD
 240 074b A8AF3C3E 		.ascii	"\250\257<>\307\236v\310\242\013\007\007\266\247\360"
 240      C79E76C8 
 240      A20B0707 
 240      B6A7F0
 241 075a 9093D669 		.ascii	"\220\223\326i\334\327\220<\260=\351`\032\327*\333\210"
 241      DCD7903C 
 241      B03DE960 
 241      1AD72ADB 
 241      88
 242 076b 571EBA07 		.ascii	"W\036\272\007\236L\357\201i\365I\230\360\244i\202\234"
 242      9E4CEF81 
 242      69F54998 
 242      F0A46982 
 242      9C
 243 077c C213E44B 		.ascii	"\302\023\344K\363\244\200\224\321\211\356\177h\347\212"
 243      F3A48094 
 243      D189EE7F 
 243      68E78A
 244 078b 10867AD5 		.ascii	"\020\206z\325wM\372\333\243\033V<Z \"\360\314\266\254"
 244      774DFADB 
 244      A31B563C 
 244      5A2022F0 
 244      CCB6AC
 245 079e 55EAFBF0 		.ascii	"U\352\373\360\371\220\352\243ss\0340Wh\017\266\272A"
 245      F990EAA3 
 245      73731C30 
 245      57680FB6 
 245      BA41
 246 07b0 576E17CE 		.ascii	"Wn\027\316P^q\202Wl'l\255\322\336\327\250\341\251oV"
 246      505E7182 
ARM GAS  /tmp/cc2L2Wn2.s 			page 19


 246      576C276C 
 246      ADD2DED7 
 246      A8E1A96F 
 247 07c5 96B9C623 		.ascii	"\226\271\306#\371;\334@\344sM"
 247      F93BDC40 
 247      E4734D
 248 07d0 4EE02639 		.ascii	"N\340&9\266\275\361\"\021\026T|\214\245\3407T\177\304"
 248      B6BDF122 
 248      1116547C 
 248      8CA5E037 
 248      547FC4
 249 07e3 F527B8BE 		.ascii	"\365'\270\276\202\353k\270\276\201\353Z\034:\177\215"
 249      82EB6BB8 
 249      BE81EB5A 
 249      1C3A7F8D 
 250 07f3 EBD771DD 		.ascii	"\353\327q\335\204\353\337\340\3728\256O\343\372\014"
 250      84EBDFE0 
 250      FA38AE4F 
 250      E3FA0C
 251 0802 AECFE2FA 		.ascii	"\256\317\342\372/\270>\347$\340Zr@\343\3150\366\307"
 251      2FB83EE7 
 251      24E05A72 
 251      40E3CD30 
 251      F6C7
 252 0814 7539D697 		.ascii	"u9\326\227\303j\247\363\034\365u\357\253\227\033\354"
 252      C36AA7F3 
 252      1CF575EF 
 252      AB971BEC 
 253 0824 5FF7A26C 		.ascii	"_\367\242l\317\216\213o8\342}\257\316\026\301\3136\033"
 253      CF8E8B6F 
 253      38E27DAF 
 253      CE16C1CB 
 253      361B
 254 0836 5E2ED278 		.ascii	"^.\322xQ\026/Yt\227\274\206\372\206<\315{\347\313V>"
 254      51162F59 
 254      7497BC86 
 254      FA863CCD 
 254      7BE7CB56 
 255 084b D6E04D2D 		.ascii	"\326\340M-\301\307.\033>\256\222|\374\200Y#\307{\342"
 255      C1C72E1B 
 255      3EAE927C 
 255      FC805923 
 255      C77BE2
 256 085e 035DA7DF 		.ascii	"\003]\247\337a!~u\302\354\204\014k\314\010\246^[zU!"
 256      61217E75 
 256      C2EC840C 
 256      6BCC08A6 
 256      5E5B7A55 
 257 0873 354E9A93 		.ascii	"5N\232\223\313\357\337ip\327\271\021\270Ed\203\270\207"
 257      CBEFDF69 
 257      70D7B911 
 257      B8456483 
 257      B887
 258 0885 1DF33738 		.ascii	"\035\36378\343l3\317g4<I\326;\223\254\333\222\275iH"
 258      E36C33CF 
 258      67343C49 
 258      D63B93AC 
ARM GAS  /tmp/cc2L2Wn2.s 			page 20


 258      DB92BD69 
 259 089a 81246851 		.ascii	"\201$hQ\224\326}K!\246@J\374-\360o\260\237L(\224t/\225"
 259      94D67D4B 
 259      21A6404A 
 259      FC2DF06F 
 259      B09F4C28 
 260 08b2 525F0FD9 		.ascii	"R_\017\331P6\353\345\3614j\221\371\021\026q\255\037"
 260      5036EBE5 
 260      F1346A91 
 260      F9111671 
 260      AD1F
 261 08c4 39A627B3 		.ascii	"9\246'\263\2305\274*\346\004f\233\274@yV`\277\005u'"
 261      9835BC2A 
 261      E604669B 
 261      BC407956 
 261      60BF0575 
 262 08d9 A7F17F31 		.ascii	"\247\361\1771\327e\320z\025\2214\351\034\256\030\252"
 262      D765D07A 
 262      159134E9 
 262      1CAE18AA 
 263 08e9 9E7D68BD 		.ascii	"\236}h\275\225\031:\366\231<\015\374e\336\255\351\346"
 263      95193AF6 
 263      993C0DFC 
 263      65DEADE9 
 263      E6
 264 08fa F174D3FD 		.ascii	"\361t\323\375)\217!\264\2262p.\237LdT\207S\026\317\337"
 264      298F21B4 
 264      9632702E 
 264      9F4C6454 
 264      875316CF 
 265 090f C2D6372F 		.ascii	"\302\3267/\202\325\017\177\371\004\361\3021}V\215\020"
 265      82D50F7F 
 265      F904F1C2 
 265      317D568D 
 265      10
 266 0920 5C636FE7 		.ascii	"\\co\347\230\023\320Is|\364,+y\212\204)-\340\315\356"
 266      9813D049 
 266      737CF42C 
 266      2B798A84 
 266      292DE0CD 
 267 0935 ADC1B0CC 		.ascii	"\255\301\260\314d\346CP\225\322>\377\001l7]s*g\002;"
 267      64E64350 
 267      95D23EFF 
 267      016C375D 
 267      732A6702 
 268 094a 9FFF8149 		.ascii	"\237\377\201I\256N\3164\226\323\307\356p4\266>\3134"
 268      AE4ECE34 
 268      96D3C7EE 
 268      7034B63E 
 268      CB34
 269 095c 96D7C7BE 		.ascii	"\226\327\307\276\347hl\277\3274\326\243\217\335\345"
 269      E7686CBF 
 269      D734D6A3 
 269      8FDDE5
 270 096b 686CF310 		.ascii	"hl\363\020C\275\315\212r\341\177!\321\227q\200\243\314"
 270      43BDCD8A 
 270      72E17F21 
ARM GAS  /tmp/cc2L2Wn2.s 			page 21


 270      D1977180 
 270      A3CC
 271 097d 0562D7AE 		.ascii	"\005b\327\256\030\2316\254/l\206d;\276z\303\301\321"
 271      189936AC 
 271      2F6C8664 
 271      3BBE7AC3 
 271      C1D1
 272 098f 2825CC98 		.ascii	"(%\314\230\234\303J\300\337O\373\006\013\331\015u\\"
 272      9CC34AC0 
 272      DF4FFB06 
 272      0BD90D75 
 272      5C
 273 09a0 C9931991 		.ascii	"\311\223\031\221rC\314W\357f\316\205n\335\352T7!7q,"
 273      7243CC57 
 273      EF66CE85 
 273      6EDDEA54 
 273      37213771 
 274 09b5 AEE1380D 		.ascii	"\256\3418\015pPY\262\222\370\032\303Y\3164\320w\243"
 274      705059B2 
 274      92F81AC3 
 274      59CE34D0 
 274      77A3
 275 09c7 EC7C7B35 		.ascii	"\354|{5oJ\322\347\372X\227\344\363\011\362\365\0358"
 275      6F4AD2E7 
 275      FA5897E4 
 275      F309F2F5 
 275      1D38
 276 09d9 9341981C 		.ascii	"\223A\230\034\263\320\011X\232\015\325\0223X\203k\260"
 276      B3D00958 
 276      9A0DD512 
 276      3358836B 
 276      B0
 277 09ea 7C8BC2F5 		.ascii	"|\213\302\365\264\240\221Gi\301*\036/\363\270^\203\353"
 277      B4A09147 
 277      69C12A1E 
 277      2FF3B85E 
 277      83EB
 278 09fc DFF04492 		.ascii	"\337\360D\222\270\322g\335+\250\0065\341\031vg2#\322"
 278      B8D267DD 
 278      2BA80635 
 278      E1197667 
 278      3223D2
 279 0a0f F56F31D4 		.ascii	"\365o1\324\012\033\371\020\376oy\342`\311\026R`_3z\352"
 279      0A1BF910 
 279      FE6F79E2 
 279      60C91652 
 279      605F337A 
 280 0a24 A199D7FB 		.ascii	"\241\231\327\373L\320\372,s\035=7\330DO=xr\314o}\326"
 280      4CD0FA2C 
 280      731D3D37 
 280      D8444F3D 
 280      7872CC6F 
 281 0a3a 152185EC 		.ascii	"\025!\205\354F\210o\3670\357\370V\311\252\255\324\225"
 281      46886FF7 
 281      30EFF856 
 281      C9AAADD4 
 281      95
ARM GAS  /tmp/cc2L2Wn2.s 			page 22


 282 0a4b A1875719 		.ascii	"\241\207W\031\"\226\206\025r|`\341.\236\272: V\227\233"
 282      22968615 
 282      727C60E1 
 282      2E9EBA3A 
 282      2056979B 
 283 0a5f F461BE6F 		.ascii	"\364a\276o\326\223\300\376N\2233\365\262\223\363m2\330"
 283      D693C0FE 
 283      4E9333F5 
 283      B293F36D 
 283      32D8
 284 0a71 9FAF8F2F 		.ascii	"\237\257\217/\373\335G\015\354R\271Y\317.\004v3\216"
 284      FBDD470D 
 284      EC52B959 
 284      CF2E0476 
 284      338E
 285 0a83 F7177DD6 		.ascii	"\367\027}\326\034E`[\350\001\\\027\250k\027\257R\320"
 285      1C45605B 
 285      E8015C17 
 285      A86B17AF 
 285      52D0
 286 0a95 A0576DA5 		.ascii	"\240Wm\245Co\037\222\012\275\215\006\315\031\272\332"
 286      436F1F92 
 286      0ABD8D06 
 286      CD19BADA 
 287 0aa5 4D42B7B6 		.ascii	"MB\267\266\321\241oR\240\333h\320\274\001\275\207\204"
 287      D1A16F52 
 287      A0DB68D0 
 287      BC01BD87 
 287      84
 288 0ab6 DEB5930E 		.ascii	"\336\265\223\016\255\344\246B\357\240A{\014\205\354"
 288      ADE4A642 
 288      EFA0417B 
 288      0C85EC
 289 0ac5 2D22A00F 		.ascii	"-\"\240\017\357\246C\317\315K\205~\237\006\235ep\335"
 289      EFA643CF 
 289      CD4B857E 
 289      9F069D65 
 289      70DD
 290 0ad7 41421FFF 		.ascii	"AB\037\377\202\016\335I\201\336C\203\3166\270\336GB"
 290      820EDD49 
 290      81DE4383 
 290      CE36B8DE 
 290      4742
 291 0ae9 5F3A4D87 		.ascii	"_:M\207^tG*\364\0074h\257\301\365\001\022\372\326Y:"
 291      5E74472A 
 291      F4073468 
 291      AFC1F501 
 291      12FAD659 
 292 0afe 740F05FA 		.ascii	"t\017\005\372\0174\350\034\203\353n\022z\331_\351\320"
 292      0F34E81C 
 292      83EB6E12 
 292      7AD95FE9 
 292      D0
 293 0b0f 4B87A642 		.ascii	"K\207\246Bw\322\240}\006\327\207H\350U\027\350\320\375"
 293      77D2A07D 
 293      06D78748 
 293      E85517E8 
ARM GAS  /tmp/cc2L2Wn2.s 			page 23


 293      D0FD
 294 0b21 14E8FD34 		.ascii	"\024\350\3754\350!\006\327\207I\350\326+t\350\306a\251"
 294      E82106D7 
 294      8749E8D6 
 294      2B74E8C6 
 294      61A9
 295 0b33 D0DD34E8 		.ascii	"\320\3354\350\\\003\372\010\011\275\353\006\035:N\201"
 295      5C03FA08 
 295      09BDEB06 
 295      1D3A4E81 
 296 0b43 3E4883CE 		.ascii	">H\203\316\303\015=\376Z\202\373u#\371M=\2213\202\216"
 296      C30D3DFE 
 296      5A82FB75 
 296      23F94D3D 
 296      9133828E 
 297 0b57 65547B9A 		.ascii	"eT{\232\265\273\317v\024\332\352\331\215:d;\352r\232"
 297      B5BBCF76 
 297      14DAEAD9 
 297      8D3A643B 
 297      EA729A
 298 0b6a 51878D51 		.ascii	"Q\207\215Q\346\034=a|\021\272X\037\342\325\206\034q"
 298      E61C3D61 
 298      7C11BA58 
 298      1FE2D586 
 298      1C71
 299 0b7c BDC67C62 		.ascii	"\275\306|b\263\306dk\2241R]\332\263?\260\014\336\367"
 299      B3C6646B 
 299      9431525D 
 299      DAB33FB0 
 299      0CDEF7
 300 0b8f 673EC8A3 		.ascii	"g>\310\243\345v\331:\324/\230d\312x81\020VO\021?\345"
 300      E576D93A 
 300      D42F9864 
 300      CA783831 
 300      10564F11 
 301 0ba5 D171CFFA 		.ascii	"\321q\317\372\341\031\277\345L\342\340\2579Ys\304\206"
 301      E119BFE5 
 301      4CE2E0AF 
 301      395973C4 
 301      86
 302 0bb6 6379E88B 		.ascii	"cy\350\213\323\237e\316\022\347\326)\313\216\351\207"
 302      D39F65CE 
 302      12E7D629 
 302      CB8EE987 
 303 0bc6 30FD3C8A 		.ascii	"0\375<\212\371\357`\026>\033\\\232\010x\257\035SO\234"
 303      F9EF6016 
 303      3E1B5C9A 
 303      0878AF1D 
 303      534F9C
 304 0bd9 3058AB6B 		.ascii	"0X\253k\260|\002l\205\031l\207\0230\273\244\017\300"
 304      B07C026C 
 304      85196C87 
 304      1330BBA4 
 304      0FC0
 305 0beb DE3083ED 		.ascii	"\3360\203\355v\015Fr\326h\006\373\320\011\230\335\267"
 305      760D4672 
 305      D66806FB 
ARM GAS  /tmp/cc2L2Wn2.s 			page 24


 305      D00998DD 
 305      B7
 306 0bfc B800ACC9 		.ascii	"\270\000\254\311\014\326\341\032\214\344\254\305\014"
 306      0CD6E11A 
 306      8CE4ACC5 
 306      0C
 307 0c09 D6E504CC 		.ascii	"\326\345\004\314\356\273N\000\266\325\014\326\343\032"
 307      EEBB4E00 
 307      B6D50CD6 
 307      E31A
 308 0c17 8CE4EC5D 		.ascii	"\214\344\354]3\330\021'`\371\366\234\265\231\301\216"
 308      33D81127 
 308      60F9F69C 
 308      B599C18E 
 309 0c27 B9062339 		.ascii	"\271\006#9\333n\006;\341\004\314\356\014\027\300v\232"
 309      DB6E063B 
 309      E104CCEE 
 309      0C17C076 
 309      9A
 310 0c38 C14EB906 		.ascii	"\301N\271\006#9{\337\014\366''`\205v\234\325(\273\377"
 310      23397BDF 
 310      0CF62727 
 310      6085769C 
 310      D528BBFF 
 311 0c4c A35E30E7 		.ascii	"\243^0\347\263\010\325f\353i\356\326\303\332v\203\245"
 311      B308D566 
 311      EB69EED6 
 311      C3DA7683 
 311      A5
 312 0c5d C77524BE 		.ascii	"\307u$\276a\023\211\315? 2z\241\357\256Z\305&\271\240"
 312      611389CD 
 312      3F20327A 
 312      A1EFAE5A 
 312      C526B9A0 
 313 0c71 C94D2AB1 		.ascii	"\311M*\261\307\254\304\277:Q\342${\260^3\330E'`?\261"
 313      C7ACC4BF 
 313      3A51E224 
 313      7BB05E33 
 313      D8452760 
 314 0c87 F7954366 		.ascii	"\367\225Cf\260\253\256\301H\316\216\230\301n9\001{\326"
 314      B0ABAEC1 
 314      48CE8E98 
 314      C16E3901 
 314      7BD6
 315 0c99 9EB37E33 		.ascii	"\236\263~3\230<\302-\230\231\263\032\345\250\341x\350"
 315      983CC22D 
 315      9899B31A 
 315      E5A8E178 
 315      E8
 316 0caa 872F84E7 		.ascii	"\207/\204\347M\"\243-\321\315\344y\226n\002\373+\217"
 316      4D22A32D 
 316      D1CDE479 
 316      966E02FB 
 316      2B8F
 317 0cbc 5BC75BE8 		.ascii	"[\307[\350\241;\236\371[iF/\020{\236Ul\202\011\255\371"
 317      A13B9EF9 
 317      5B69462F 
ARM GAS  /tmp/cc2L2Wn2.s 			page 25


 317      107B9E55 
 317      6C8209AD 
 318 0cd1 3C4587B4 		.ascii	"<E\207\264\313\274P\013\354q|T\3609\336\314\307q\375"
 318      CBBC500B 
 318      EC717C54 
 318      F039DECC 
 318      C771FD
 319 0ce4 05AEBFC4 		.ascii	"\005\256\277\304\365i\\\237\301\365Y\\\377\005\327\347"
 319      F5695C9F 
 319      C1F5595C 
 319      FF05D7E7 
 320 0cf4 707D1ED7 		.ascii	"p}\036\327\337\340\372\"\256/\343\372*\256o\341:\201"
 320      DFE0FA22 
 320      AE2FE3FA 
 320      2AAE6FE1 
 320      3A81
 321 0d06 EB1A0FAA 		.ascii	"\353\032\017\252\353p\3752\256\347{L\007\007\226\034"
 321      EB70FD32 
 321      AEE77B4C 
 321      0707961C 
 322 0d16 EDD33447 		.ascii	"\355\3234G\004\213<\311\034\015\035\320+\347\343m\233"
 322      048B3CC9 
 322      1C0D1DD0 
 322      2BE7E36D 
 322      9B
 323 0d27 AE3FA6FF 		.ascii	"\256?\246\377p\357^\365\247i\034\263i\2045\235\245\376"
 323      70EF5EF5 
 323      A7691CB3 
 323      6984359D 
 323      A5FE
 324 0d39 18ED154F 		.ascii	"\030\355\025O\332\037\243\375\332\223\362F\000\010^"
 324      DA1FA3FD 
 324      DA93F246 
 324      00085E
 325 0d48 7BEB9B9F 		.ascii	"{\353\233\237\277\215~U \177\233x\251f.\253\3770\357"
 325      BF8D7E55 
 325      207F9B78 
 325      A9662EAB 
 325      FF30EF
 326 0d5b 333A4D99 		.ascii	"3:M\231\374a^\275\307\362\303\274\305T\"\365\247\372"
 326      FC615EBD 
 326      C7F2C3BC 
 326      C55422F5 
 326      A7FA
 327 0d6d 7F6E924A 		.ascii	"\177n\222J\245p\332\021\205\006+\205\245T\012\007\267"
 327      A570DA11 
 327      85062B85 
 327      A5540A07 
 327      B7
 328 0d7e 9C1D7DCD 		.ascii	"\234\035}\315\020#Id\355H3\021\355H\267e$\233\216\344"
 328      10234964 
 328      ED483311 
 328      ED48B765 
 328      249B8EE4 
 329 0d92 6B5692CB 		.ascii	"kV\222\313\251$\3337}\361/;\010\315\251\326\332=\322"
 329      A924DB37 
 329      7DF12F3B 
ARM GAS  /tmp/cc2L2Wn2.s 			page 26


 329      08CDA9D6 
 329      DA3DD2
 330 0da5 91B556A6 		.ascii	"\221\265V\246\267V#\225fo[\327\335)\356Q3\312\021\301"
 330      B7562395 
 330      666F5BD7 
 330      DD29EE51 
 330      33CA11C1 
 331 0db9 A6F40457 		.ascii	"\246\364\004WS\011\036\335y\364\301\024\202\0379#\270"
 331      53091EDD 
 331      79F4C114 
 331      821F3923 
 331      B8
 332 0dca 263DC1B5 		.ascii	"&=\301\2656\376\330[N\365G:M\213\351\326YM\267\336\306"
 332      36FED85B 
 332      4EF5473A 
 332      4D8BE9D6 
 332      594DB7DE 
 333 0ddf 1FE3FE14 		.ascii	"\037\343\376\024\177<\343\210\302\006+\205\2156\376"
 333      7F3CE388 
 333      C2062B85 
 333      8D36FE
 334 0dee D8BB9C5D 		.ascii	"\330\273\234]^'\253/\375\232\027p:\225\213\243R\034"
 334      5E27AB2F 
 334      FD9A1770 
 334      3A958BA3 
 334      521C
 335 0e00 52605F37 		.ascii	"R`_70h47Yi\276E\322d\356\033;\266@\375\213\304\012\242"
 335      30683437 
 335      5969BE45 
 335      D264EE1B 
 335      3BB640FD 
 336 0e18 5241301C 		.ascii	"RA0\034\010U\225\211\005\201\362\330\234\2304\247R\214"
 336      08559589 
 336      0581F2D8 
 336      9C9834A7 
 336      528C
 337 0e2a 8D2D677C 		.ascii	"\215-g|\250\035\254\020\375R\366S?}.\277\204\271\273"
 337      A81DAC10 
 337      FD52F653 
 337      3F7D2EBF 
 337      84B9BB
 338 0e3d A02A164D 		.ascii	"\240*\026M\366\015\213\325\241\340\364\202\230T\026"
 338      F60D8BD5 
 338      A1E0F482 
 338      985416
 339 0e4c 0C4BD03D 		.ascii	"\014K\320=\247\012\376\027M\364K?\242u\253\020\002\345"
 339      A70AFE17 
 339      4DF44B3F 
 339      A275AB10 
 339      02E5
 340 0e5e C1B058E0 		.ascii	"\301\260X\340/\023g\010U!\311\257S\031\342\367\353\003"
 340      2F136708 
 340      5521C9AF 
 340      5319E2F7 
 340      EB03
 341 0e70 1F4C7225 		.ascii	"\037Lr%\2111\011\361\025\213TE\003\242\372\021U\376"
 341      893109F1 
ARM GAS  /tmp/cc2L2Wn2.s 			page 27


 341      158B5445 
 341      03A2FA11 
 341      55FE
 342 0e82 6824228D 		.ascii	"h$\"\215\0150w\342\017\222\030\255\010\206\005\0118"
 342      0D3077E2 
 342      0F9218AD 
 342      08860509 
 342      38
 343 0e93 2C8F8A42 		.ascii	",\217\212BYl\004\276]-\004%\375\316P\323\235`\340\205"
 343      596C04BE 
 343      5D2D0425 
 343      FDCE50D3 
 343      9D60E085 
 344 0ea7 7FB4955B 		.ascii	"\177\264\225[\353\217\344P\233~\311\027(\327`\362\355"
 344      EB8FE450 
 344      9B7EC917 
 344      28D760F2 
 344      ED
 345 0eb8 D515282F 		.ascii	"\325\025(/\2031\303\264\341\376\027\253\304*`gxr\250"
 345      8331C3B4 
 345      E1FE17AB 
 345      C42A6067 
 345      7872A8
 346 0ecb 76CB1316 		.ascii	"v\313\023\026gK\236\312\2508+\013\177.6#\006\"\025\025"
 346      674B9ECA 
 346      A8382B0B 
 346      7F2E3623 
 346      06221515 
 347 0edf 91704165 		.ascii	"\221pAe$*\305\012\236(\235R2e6\272W\031\014\211\321"
 347      242AC50A 
 347      9E289D52 
 347      326536BA 
 347      57190C89 
 348 0ef4 58C15325 		.ascii	"X\301S%%\210?M]^\2512\032\214\370%\254\355\361\343\374"
 348      25883F4D 
 348      5D5EA932 
 348      1A8CF825 
 348      ACEDF1E3 
 349 0f09 92A63FD4 		.ascii	"\222\246?\324\364\240Gy\010\306\037\210\204%\240\370"
 349      F4A04779 
 349      08C61F88 
 349      8425A0F8 
 350 0f19 604632E5 		.ascii	"`F2\345\201HT\004\334\\<\014\200\002\322\354\0379\033"
 350      81485404 
 350      DC5C3C0C 
 350      8002D2EC 
 350      1F391B
 351 0f2c E59F35B1 		.ascii	"\345\2375\261\002\351+*\316\024\242\025~\211\213\026"
 351      02E92B2A 
 351      CE14A215 
 351      7E898B16 
 352 0f3c 73D147F9 		.ascii	"s\321G\371hQ!\224\".:\201\213>\314E'r\321G\270P\224"
 352      68512194 
 352      222E3A81 
 352      8B3ECC45 
 352      2772D147 
 353 0f53 8B55F200 		.ascii	"\213U\362\000\235\005\356 F\263\"\24121\352\011\224"
ARM GAS  /tmp/cc2L2Wn2.s 			page 28


 353      9D05EE20 
 353      46B322A1 
 353      3231EA09 
 353      94
 354 0f64 0B514F58 		.ascii	"\013QOX\250\020\207\304\244\027\204PpfX\223k\342\204"
 354      A81087C4 
 354      A4178450 
 354      70665893 
 354      6BE284
 355 0f77 A45CA899 		.ascii	"\244\\\250\231]-L\027bb\216\024\223\260\261\275\350"
 355      5D2D4C17 
 355      62628E14 
 355      93B0B1BD 
 355      E8
 356 0f88 41311848 		.ascii	"A1\030H\355\002\255,\374\304+UD\312\340y\326\214\220"
 356      ED02AD2C 
 356      FCC42B55 
 356      44CAE079 
 356      D68C90
 357 0f9b 3033E695 		.ascii	"03\346\225\242"
 357      A2
 358 0fa0 E28C1868 		.ascii	"\342\214\030h\005\375\313\252\210\315\204\201\232\242"
 358      05FDCBAA 
 358      88CD8481 
 358      9AA2
 359 0fae 60A0D6CA 		.ascii	"`\240\326\312\216\226\315\201G9\342\354\240\024\200"
 359      8E96CD81 
 359      4739E2EC 
 359      A01480
 360 0fbd C1D9D552 		.ascii	"\301\331\325Rd\372/+Gj>\000C\305\250\030\016 \320jI"
 360      64FA2F2B 
 360      476A3E00 
 360      43C5A818 
 360      0E20D06A 
 361 0fd2 8A567A63 		.ascii	"\212VzcbX\202\001y`\340\230X!T\226\203\"\306\330\273"
 361      62588201 
 361      7960E098 
 361      58215496 
 361      8322C6D8 
 362 0fe7 87883494 		.ascii	"\207\2104\224\025\010\203\373\361P\003<\334\252\314"
 362      150883FB 
 362      F150033C 
 362      DCAACC
 363 0ff6 81D11555 		.ascii	"\201\321\025U` \373\221\025\322"
 363      6020FB91 
 363      15D2
 364 1000 6C343252 		.ascii	"l42R\035\026\243^\334\027\351A\202\333\225\271\342,"
 364      1D16A35E 
 364      DC17E941 
 364      82DB95B9 
 364      E22C
 365 1012 C484107B 		.ascii	"\304\204\020{\001n\211\325\250\301V\015\325\335-\024"
 365      016E89D5 
 365      A8C1560D 
 365      D5DD2D14 
 366 1022 44336398 		.ascii	"D3c\230\311\001\321\035/\232\002\301\360\314\034\340"
 366      C901D11D 
ARM GAS  /tmp/cc2L2Wn2.s 			page 29


 366      2F9A02C1 
 366      F0CC1CE0 
 367 1032 1D3B608E 		.ascii	"\035;`\216X)\206a\346\316\364\002$\352\001f\024B\310"
 367      58298661 
 367      E6CEF402 
 367      24EA0166 
 367      1442C8
 368 1045 81B22A2A 		.ascii	"\201\262**#\221\320\320@\371\264\362\262i\372\014\363"
 368      2391D0D0 
 368      40F9B4F2 
 368      B269FA0C 
 368      F3
 369 1056 E18FFF0E 		.ascii	"\341\217\377\016 CpkjH\024+\275\032\005\256Z\310\305"
 369      2043706B 
 369      6A48142B 
 369      BD1A05AE 
 369      5AC8C5
 370 1069 F36C7AD5 		.ascii	"\363lz\325\014\320\227\027\233R,\373>9\235Q\024@\\A"
 370      0CD09717 
 370      9B522CFB 
 370      3E399D51 
 370      14405C41 
 371 107d 1B491613 		.ascii	"\033I\026\023\245\252\312\034I\024\242e \244W\234-\006"
 371      A5AACA1C 
 371      4914A265 
 371      20A4579C 
 371      2D06
 372 108f 40CA21E8 		.ascii	"@\312!\350q\000\214\015\016\200!cUAI\034>\266L\220\204"
 372      71008C0D 
 372      0E802163 
 372      5541491C 
 372      3EB64C90 
 373 10a4 B1C68DA2 		.ascii	"\261\306\215\242\314\221\"&\202\234\310r\205\205E@o"
 373      CC912226 
 373      829CC872 
 373      85854540 
 373      6F
 374 10b5 44CA4D77 		.ascii	"D\312Mw\030\343h\030\343\334a\214\247a\214w\2071\201"
 374      18E36818 
 374      E3DC618C 
 374      A7618C77 
 374      873181
 375 10c8 8631C11D 		.ascii	"\2061\301\035\306\3034\214\207\335aL\244aLt\207\361"
 375      C6C3348C 
 375      87DD614C 
 375      A4614C74 
 375      87F1
 376 10da 080DE311 		.ascii	"\010\015\343\021w\030\3054\214bw\030\217\3220\036u\205"
 376      7718C534 
 376      8C627718 
 376      8FD2301E 
 376      7585
 377 10ec 515448C1 		.ascii	"QTH\301(*t\207A\363\323\"w~ZD\363\323\242q\343\314q"
 377      282A7487 
 377      41F3D322 
 377      777E5A44 
 377      F3D3A271 
ARM GAS  /tmp/cc2L2Wn2.s 			page 30


 378 1103 A65C0869 		.ascii	"\246\\\010i\341|\352\264)\343\307\025<\363\314\344\202"
 378      E17CEAB4 
 378      29E3C715 
 378      3CF3CCE4 
 378      82
 379 1114 694F4F99 		.ascii	"iOO\231U\004ky\005\012\212A\024\264r\223\037 t\225\224"
 379      55046B79 
 379      050A8A41 
 379      14B47293 
 379      1F207495 
 380 1129 164119E7 		.ascii	"\026A\031\347\231:\245\244\3243\371\351'K\271\251\245"
 380      993AA5A4 
 380      D433F9E9 
 380      274BB9A9 
 380      A5
 381 113a FC934F95 		.ascii	"\374\223O\225f\225\224L)-\302\3658OI\311\223\245|\311"
 381      6695944C 
 381      292DC2F5 
 381      384F49C9 
 381      93A57CC9 
 382 114e 4FA7F1CF 		.ascii	"O\247\361\317N-\341\237(-\345KK\3403\014\370\327\311"
 382      4E2DE19F 
 382      282DE54B 
 382      4BE0330C 
 382      F8D7C9
 383 1161 D34AF9C9 		.ascii	"\323J\371\311h\344\224'J\271\177SG\215\207\376\317\227"
 383      68E49427 
 383      4AB97F53 
 383      478D87FE 
 383      CF97
 384 1173 DE631B00 		.ascii	"\336c\033\000g\241(1\"P\376\263iO\211\322T\310D\304"
 384      67A12831 
 384      2250FEB3 
 384      694F89D2 
 384      54C844C4 
 385 1187 8A69908C 		.ascii	"\212i\220\214\244\211\265sp\322\022(\207\316\317D\002"
 385      A489B573 
 385      70D21228 
 385      87CECF44 
 385      02
 386 1198 2FF8F08A 		.ascii	"/\370\360\212\026\202V\221y\214\266\236\301\342XP2e"
 386      16825691 
 386      798CB69E 
 386      C1E25850 
 386      3265
 387 11aa EAD3530D 		.ascii	"\352\323S\015\204\212X0\346\237\031\010\000\312\035"
 387      848A5830 
 387      E69F1908 
 387      00CA1D
 388 11b9 7E7F5930 		.ascii	"~\177Y0&L\017\211\376`\364\305;\204P\2650'\006kF\010"
 388      264C0F89 
 388      FE60F4C5 
 388      3B8450B5 
 388      3027066B 
 389 11cf 52989129 		.ascii	"R\230\221)<=_\340p\301D\331T\024\340Ga\326\360'\377"
 389      3C3D5FE0 
 389      70C144D9 
ARM GAS  /tmp/cc2L2Wn2.s 			page 31


 389      5414E047 
 389      61D6F027 
 390 11e4 4C516D8D 		.ascii	"LQm\215wf\"x\342\007\343\206B(\355\030\251\2660F R\005"
 390      77662278 
 390      E207E386 
 390      4228ED18 
 390      A9B63046 
 391 11fb 4B7E3417 		.ascii	"K~4\027\313\377\\\030\311\255\256\351U\270\235\347\367"
 391      CBFF5C18 
 391      C9ADAEE9 
 391      55B89DE7 
 391      F7
 392 120c 8B615DA0 		.ascii	"\213a]\240\377\003r\365R\377"
 392      FF0372F5 
 392      52FF
 393              		.text
 394              		.section	.gnu.lto_.symtab.f281097c613eb6c4,"",%progbits
 395 0000 74657374 		.ascii	"test_terminate_threads\000\000\000\000\000\000\000\000"
 395      5F746572 
 395      6D696E61 
 395      74655F74 
 395      68726561 
 396 001e 00000000 		.ascii	"\000\000\000\000\253\000\000\000threads\000\000\000"
 396      AB000000 
 396      74687265 
 396      61647300 
 396      0000
 397 0030 00000000 		.ascii	"\000\000\000\000\000\000\000\000\000y\001\000\000te"
 397      00000000 
 397      00790100 
 397      007465
 398 003f 73745F77 		.ascii	"st_wait_threads\000\000\000\000\000\000\000\000\000"
 398      6169745F 
 398      74687265 
 398      61647300 
 398      00000000 
 399 0057 000000AF 		.ascii	"\000\000\000\257\000\000\000test_wait_tick\000\000\000"
 399      00000074 
 399      6573745F 
 399      77616974 
 399      5F746963 
 400 006f 00000000 		.ascii	"\000\000\000\000\000\000\000\000\000\262\000\000\000"
 400      00000000 
 400      00B20000 
 400      00
 401 007c 77610000 		.ascii	"wa\000\000\000\000\000\000\000\000\000\000\000\000}"
 401      00000000 
 401      00000000 
 401      00007D
 402 008b 01000074 		.ascii	"\001\000\000test_buffer\000\000\000\000\000\000\000"
 402      6573745F 
 402      62756666 
 402      65720000 
 402      00000000 
 403 00a0 00000000 		.ascii	"\000\000\000\000\000\207\001\000\000test_suite\000\000"
 403      00870100 
 403      00746573 
ARM GAS  /tmp/cc2L2Wn2.s 			page 32


 403      745F7375 
 403      69746500 
 404 00b5 00000000 		.ascii	"\000\000\000\000\000\000\000\000\000\000\224\001\000"
 404      00000000 
 404      00009401 
 404      00
 405 00c2 00746573 		.ascii	"\000test_sequence_001\000\000\002\000\000\000\000\000"
 405      745F7365 
 405      7175656E 
 405      63655F30 
 405      30310000 
 406 00dc 00000000 		.ascii	"\000\000\000\000\257\001\000\000test_sequence_002\000"
 406      AF010000 
 406      74657374 
 406      5F736571 
 406      75656E63 
 407 00f6 00020000 		.ascii	"\000\002\000\000\000\000\000\000\000\000\000\262\001"
 407      00000000 
 407      000000B2 
 407      01
 408 0103 00007465 		.ascii	"\000\000test_sequence_003\000\000\002\000\000\000\000"
 408      73745F73 
 408      65717565 
 408      6E63655F 
 408      30303300 
 409 011d 00000000 		.ascii	"\000\000\000\000\000\265\001\000\000test_sequence_0"
 409      00B50100 
 409      00746573 
 409      745F7365 
 409      7175656E 
 410 0135 30340000 		.ascii	"04\000\000\002\000\000\000\000\000\000\000\000\000\270"
 410      02000000 
 410      00000000 
 410      0000B8
 411 0144 01000074 		.ascii	"\001\000\000test_sequence_005\000\000\002\000\000\000"
 411      6573745F 
 411      73657175 
 411      656E6365 
 411      5F303035 
 412 015e 00000000 		.ascii	"\000\000\000\000\000\000\273\001\000\000test_sequen"
 412      0000BB01 
 412      00007465 
 412      73745F73 
 412      65717565 
 413 0173 63655F30 		.ascii	"ce_006\000\000\002\000\000\000\000\000\000\000\000\000"
 413      30360000 
 413      02000000 
 413      00000000 
 413      0000
 414 0185 BE010000 		.ascii	"\276\001\000\000test_sequence_007\000\000\002\000\000"
 414      74657374 
 414      5F736571 
 414      75656E63 
 414      655F3030 
 415 019f 00000000 		.ascii	"\000\000\000\000\000\000\000\301\001\000\000test_se"
 415      000000C1 
 415      01000074 
ARM GAS  /tmp/cc2L2Wn2.s 			page 33


 415      6573745F 
 415      7365
 416 01b1 7175656E 		.ascii	"quence_008\000\000\002\000\000\000\000\000\000\000\000"
 416      63655F30 
 416      30380000 
 416      02000000 
 416      00000000 
 417 01c6 00C40100 		.ascii	"\000\304\001\000\000test_sequence_009\000\000\002\000"
 417      00746573 
 417      745F7365 
 417      7175656E 
 417      63655F30 
 418 01e0 00000000 		.ascii	"\000\000\000\000\000\000\000\000\307\001\000\000tes"
 418      00000000 
 418      C7010000 
 418      746573
 419 01ef 745F7365 		.ascii	"t_sequence_010\000\000\002\000\000\000\000\000\000\000"
 419      7175656E 
 419      63655F30 
 419      31300000 
 419      02000000 
 420 0207 0000CA01 		.ascii	"\000\000\312\001\000\000test_sequence_011\000\000\002"
 420      00007465 
 420      73745F73 
 420      65717565 
 420      6E63655F 
 421 0221 00000000 		.ascii	"\000\000\000\000\000\000\000\000\000\315\001\000\000"
 421      00000000 
 421      00CD0100 
 421      00
 422 022e 74657374 		.ascii	"test_sequence_012\000\000\002\000\000\000\000\000\000"
 422      5F736571 
 422      75656E63 
 422      655F3031 
 422      32000002 
 423 0248 000000D0 		.ascii	"\000\000\000\320\001\000\000chThdTerminate\000\000\002"
 423      01000063 
 423      68546864 
 423      5465726D 
 423      696E6174 
 424 0260 00000000 		.ascii	"\000\000\000\000\000\000\000\000\000\266\000\000\000"
 424      00000000 
 424      00B60000 
 424      00
 425 026d 63685468 		.ascii	"chThdWait\000\000\002\000\000\000\000\000\000\000\000"
 425      64576169 
 425      74000002 
 425      00000000 
 425      00000000 
 426 0281 00710100 		.ascii	"\000q\001\000\000chThdSleep\000\000\002\000\000\000"
 426      00636854 
 426      6864536C 
 426      65657000 
 426      00020000 
 427 0296 00000000 		.ascii	"\000\000\000\000\000\000u\001\000\000"
 427      00007501 
 427      0000
ARM GAS  /tmp/cc2L2Wn2.s 			page 34


 428              		.text
 429              		.section	.gnu.lto_.opts,"",%progbits
 430 0000 272D6D63 		.ascii	"'-mcpu=cortex-m0' '-mno-thumb-interwork' '-mthumb' "
 430      70753D63 
 430      6F727465 
 430      782D6D30 
 430      2720272D 
 431 0033 272D6767 		.ascii	"'-ggdb' '-O2' '-fomit-frame-pointer' '-falign-funct"
 431      64622720 
 431      272D4F32 
 431      2720272D 
 431      666F6D69 
 432 0066 696F6E73 		.ascii	"ions=16' '-ffunction-sections' '-fdata-sections' '-"
 432      3D313627 
 432      20272D66 
 432      66756E63 
 432      74696F6E 
 433 0099 666E6F2D 		.ascii	"fno-common' '-flto'\000"
 433      636F6D6D 
 433      6F6E2720 
 433      272D666C 
 433      746F2700 
 434              		.text
 435              		.cfi_sections	.debug_frame
 436              		.section	.text.test_terminate_threads,"ax",%progbits
 437              		.align	2
 438              		.p2align 4,,15
 439              		.global	test_terminate_threads
 440              		.code	16
 441              		.thumb_func
 442              		.type	test_terminate_threads, %function
 443              	test_terminate_threads:
 444              	.LFB179:
 445              		.file 1 "../../../test/rt/source/test/test_root.c"
 446              		.loc 1 115 0
 447              		.cfi_startproc
 448              	.LVL0:
 449 0000 38B5     		push	{r3, r4, r5, lr}
 450              		.cfi_def_cfa_offset 16
 451              		.cfi_offset 3, -16
 452              		.cfi_offset 4, -12
 453              		.cfi_offset 5, -8
 454              		.cfi_offset 14, -4
 455 0002 064C     		ldr	r4, .L9
 456 0004 251C     		mov	r5, r4
 457 0006 1435     		add	r5, r5, #20
 458              	.LVL1:
 459              	.L4:
 460              		.loc 1 119 0
 461 0008 2068     		ldr	r0, [r4]
 462 000a 0028     		cmp	r0, #0
 463 000c 01D0     		beq	.L2
 464              		.loc 1 120 0
 465 000e FFF7FEFF 		bl	chThdTerminate
 466              	.LVL2:
 467              	.L2:
 468 0012 0434     		add	r4, r4, #4
ARM GAS  /tmp/cc2L2Wn2.s 			page 35


 469              		.loc 1 118 0
 470 0014 AC42     		cmp	r4, r5
 471 0016 F7D1     		bne	.L4
 472              		.loc 1 121 0
 473              		@ sp needed
 474 0018 38BD     		pop	{r3, r4, r5, pc}
 475              	.L10:
 476 001a C046     		.align	2
 477              	.L9:
 478 001c 00000000 		.word	.LANCHOR0
 479              		.cfi_endproc
 480              	.LFE179:
 481              		.size	test_terminate_threads, .-test_terminate_threads
 482              		.section	.text.test_wait_threads,"ax",%progbits
 483              		.align	2
 484              		.p2align 4,,15
 485              		.global	test_wait_threads
 486              		.code	16
 487              		.thumb_func
 488              		.type	test_wait_threads, %function
 489              	test_wait_threads:
 490              	.LFB180:
 491              		.loc 1 126 0
 492              		.cfi_startproc
 493              	.LVL3:
 494 0000 70B5     		push	{r4, r5, r6, lr}
 495              		.cfi_def_cfa_offset 16
 496              		.cfi_offset 4, -16
 497              		.cfi_offset 5, -12
 498              		.cfi_offset 6, -8
 499              		.cfi_offset 14, -4
 500 0002 074C     		ldr	r4, .L18
 501              		.loc 1 132 0
 502 0004 0026     		mov	r6, #0
 503 0006 251C     		mov	r5, r4
 504 0008 1435     		add	r5, r5, #20
 505              	.LVL4:
 506              	.L14:
 507              		.loc 1 130 0
 508 000a 2068     		ldr	r0, [r4]
 509 000c 0028     		cmp	r0, #0
 510 000e 02D0     		beq	.L12
 511              		.loc 1 131 0
 512 0010 FFF7FEFF 		bl	chThdWait
 513              	.LVL5:
 514              		.loc 1 132 0
 515 0014 2660     		str	r6, [r4]
 516              	.L12:
 517 0016 0434     		add	r4, r4, #4
 518              		.loc 1 129 0
 519 0018 AC42     		cmp	r4, r5
 520 001a F6D1     		bne	.L14
 521              		.loc 1 134 0
 522              		@ sp needed
 523 001c 70BD     		pop	{r4, r5, r6, pc}
 524              	.L19:
 525 001e C046     		.align	2
ARM GAS  /tmp/cc2L2Wn2.s 			page 36


 526              	.L18:
 527 0020 00000000 		.word	.LANCHOR0
 528              		.cfi_endproc
 529              	.LFE180:
 530              		.size	test_wait_threads, .-test_wait_threads
 531 0024 C046C046 		.section	.text.test_wait_tick,"ax",%progbits
 531      C046C046 
 531      C046C046 
 532              		.align	2
 533              		.p2align 4,,15
 534              		.global	test_wait_tick
 535              		.code	16
 536              		.thumb_func
 537              		.type	test_wait_tick, %function
 538              	test_wait_tick:
 539              	.LFB181:
 540              		.loc 1 139 0
 541              		.cfi_startproc
 542 0000 08B5     		push	{r3, lr}
 543              		.cfi_def_cfa_offset 8
 544              		.cfi_offset 3, -8
 545              		.cfi_offset 14, -4
 546              		.loc 1 141 0
 547 0002 0120     		mov	r0, #1
 548 0004 FFF7FEFF 		bl	chThdSleep
 549              	.LVL6:
 550              	.LBB50:
 551              	.LBB51:
 552              	.LBB52:
 553              	.LBB53:
 554              	.LBB54:
 555              	.LBB55:
 556              		.file 2 "../../../os/common/ext/CMSIS/include/cmsis_gcc.h"
 557              		.loc 2 71 0
 558              	@ 71 "../../../os/common/ext/CMSIS/include/cmsis_gcc.h" 1
 559 0008 72B6     		cpsid i
 560              	@ 0 "" 2
 561              		.code	16
 562              	.LBE55:
 563              	.LBE54:
 564              	.LBE53:
 565              	.LBE52:
 566              	.LBB56:
 567              	.LBB57:
 568              	.LBB58:
 569              	.LBB59:
 570              		.file 3 "../../../os/hal/ports/STM32/LLD/TIMv1/hal_st_lld.h"
 571              		.loc 3 141 0
 572 000a 024B     		ldr	r3, .L21
 573 000c 586A     		ldr	r0, [r3, #36]
 574              	.LBE59:
 575              	.LBE58:
 576              	.LBE57:
 577              	.LBE56:
 578              	.LBB60:
 579              	.LBB61:
 580              	.LBB62:
ARM GAS  /tmp/cc2L2Wn2.s 			page 37


 581              	.LBB63:
 582              	.LBB64:
 583              		.loc 2 60 0
 584              	@ 60 "../../../os/common/ext/CMSIS/include/cmsis_gcc.h" 1
 585 000e 62B6     		cpsie i
 586              	@ 0 "" 2
 587              		.code	16
 588              	.LBE64:
 589              	.LBE63:
 590              	.LBE62:
 591              	.LBE61:
 592              	.LBE60:
 593              	.LBE51:
 594              	.LBE50:
 595              		.loc 1 142 0
 596 0010 80B2     		uxth	r0, r0
 597              		.loc 1 143 0
 598              		@ sp needed
 599 0012 08BD     		pop	{r3, pc}
 600              	.L22:
 601              		.align	2
 602              	.L21:
 603 0014 00040040 		.word	1073742848
 604              		.cfi_endproc
 605              	.LFE181:
 606              		.size	test_wait_tick, .-test_wait_tick
 607              		.global	wa
 608              		.global	threads
 609              		.global	test_buffer
 610              		.global	test_suite
 611 0018 C046C046 		.section	.bss.test_buffer,"aw",%nobits
 611      C046C046 
 612              		.align	3
 613              		.type	test_buffer, %object
 614              		.size	test_buffer, 1640
 615              	test_buffer:
 616 0000 00000000 		.space	1640
 616      00000000 
 616      00000000 
 616      00000000 
 616      00000000 
 617              		.section	.data.test_suite,"aw",%progbits
 618              		.align	2
 619              		.type	test_suite, %object
 620              		.size	test_suite, 52
 621              	test_suite:
 622 0000 00000000 		.word	test_sequence_001
 623 0004 00000000 		.word	test_sequence_002
 624 0008 00000000 		.word	test_sequence_003
 625 000c 00000000 		.word	test_sequence_004
 626 0010 00000000 		.word	test_sequence_005
 627 0014 00000000 		.word	test_sequence_006
 628 0018 00000000 		.word	test_sequence_007
 629 001c 00000000 		.word	test_sequence_008
 630 0020 00000000 		.word	test_sequence_009
 631 0024 00000000 		.word	test_sequence_010
 632 0028 00000000 		.word	test_sequence_011
ARM GAS  /tmp/cc2L2Wn2.s 			page 38


 633 002c 00000000 		.word	test_sequence_012
 634 0030 00000000 		.word	0
 635              		.section	.rodata.wa,"a",%progbits
 636              		.align	2
 637              		.type	wa, %object
 638              		.size	wa, 20
 639              	wa:
 640 0000 00000000 		.word	test_buffer
 641 0004 48010000 		.word	test_buffer+328
 642 0008 90020000 		.word	test_buffer+656
 643 000c D8030000 		.word	test_buffer+984
 644 0010 20050000 		.word	test_buffer+1312
 645              		.section	.bss.threads,"aw",%nobits
 646              		.align	2
 647              		.set	.LANCHOR0,. + 0
 648              		.type	threads, %object
 649              		.size	threads, 20
 650              	threads:
 651 0000 00000000 		.space	20
 651      00000000 
 651      00000000 
 651      00000000 
 651      00000000 
 652              		.text
 653              	.Letext0:
 654              		.file 4 "/usr/lib/gcc/arm-none-eabi/4.8/include/stddef.h"
 655              		.file 5 "/usr/include/newlib/machine/_default_types.h"
 656              		.file 6 "/usr/include/newlib/stdint.h"
 657              		.file 7 "../../../os/common/ports/ARMCMx/compilers/GCC/chtypes.h"
 658              		.file 8 "../../../os/rt/include/chsystypes.h"
 659              		.file 9 "../../../os/rt/include/chschd.h"
 660              		.file 10 "../../../os/common/ports/ARMCMx/chcore.h"
 661              		.file 11 "../../../os/common/ports/ARMCMx/chcore_v6m.h"
 662              		.file 12 "../../../os/hal/ports/STM32/LLD/TIMv1/stm32_tim.h"
 663              		.file 13 "../../../os/rt/include/chsem.h"
 664              		.file 14 "../../../os/rt/include/chmtx.h"
 665              		.file 15 "../../../test/lib/ch_test.h"
 666              		.file 16 "../../../os/common/ports/ARMCMx/chcore_timer.h"
 667              		.file 17 "../../../os/rt/include/chsys.h"
 668              		.file 18 "../../../os/rt/include/chvt.h"
 669              		.file 19 "../../../test/rt/source/test/test_sequence_001.h"
 670              		.file 20 "../../../test/rt/source/test/test_sequence_002.h"
 671              		.file 21 "../../../test/rt/source/test/test_sequence_003.h"
 672              		.file 22 "../../../test/rt/source/test/test_sequence_004.h"
 673              		.file 23 "../../../test/rt/source/test/test_sequence_005.h"
 674              		.file 24 "../../../test/rt/source/test/test_sequence_006.h"
 675              		.file 25 "../../../test/rt/source/test/test_sequence_007.h"
 676              		.file 26 "../../../test/rt/source/test/test_sequence_008.h"
 677              		.file 27 "../../../test/rt/source/test/test_sequence_009.h"
 678              		.file 28 "../../../test/rt/source/test/test_sequence_010.h"
 679              		.file 29 "../../../test/rt/source/test/test_sequence_011.h"
 680              		.file 30 "../../../test/rt/source/test/test_sequence_012.h"
 681              		.file 31 "../../../os/rt/include/chthreads.h"
 682              		.section	.debug_info,"",%progbits
 683              	.Ldebug_info0:
 684 0000 FB0A0000 		.4byte	0xafb
 685 0004 0400     		.2byte	0x4
ARM GAS  /tmp/cc2L2Wn2.s 			page 39


 686 0006 00000000 		.4byte	.Ldebug_abbrev0
 687 000a 04       		.byte	0x4
 688 000b 01       		.uleb128 0x1
 689 000c C9010000 		.4byte	.LASF131
 690 0010 01       		.byte	0x1
 691 0011 3F040000 		.4byte	.LASF132
 692 0015 9E060000 		.4byte	.LASF133
 693 0019 00000000 		.4byte	.Ldebug_ranges0+0
 694 001d 00000000 		.4byte	0
 695 0021 00000000 		.4byte	.Ldebug_line0
 696 0025 02       		.uleb128 0x2
 697 0026 04       		.byte	0x4
 698 0027 05       		.byte	0x5
 699 0028 696E7400 		.ascii	"int\000"
 700 002c 03       		.uleb128 0x3
 701 002d 5A030000 		.4byte	.LASF2
 702 0031 04       		.byte	0x4
 703 0032 D4       		.byte	0xd4
 704 0033 37000000 		.4byte	0x37
 705 0037 04       		.uleb128 0x4
 706 0038 04       		.byte	0x4
 707 0039 07       		.byte	0x7
 708 003a DD000000 		.4byte	.LASF0
 709 003e 04       		.uleb128 0x4
 710 003f 01       		.byte	0x1
 711 0040 06       		.byte	0x6
 712 0041 54060000 		.4byte	.LASF1
 713 0045 03       		.uleb128 0x3
 714 0046 58050000 		.4byte	.LASF3
 715 004a 05       		.byte	0x5
 716 004b 1D       		.byte	0x1d
 717 004c 50000000 		.4byte	0x50
 718 0050 04       		.uleb128 0x4
 719 0051 01       		.byte	0x1
 720 0052 08       		.byte	0x8
 721 0053 ED050000 		.4byte	.LASF4
 722 0057 04       		.uleb128 0x4
 723 0058 02       		.byte	0x2
 724 0059 05       		.byte	0x5
 725 005a 0A050000 		.4byte	.LASF5
 726 005e 03       		.uleb128 0x3
 727 005f FF020000 		.4byte	.LASF6
 728 0063 05       		.byte	0x5
 729 0064 2B       		.byte	0x2b
 730 0065 69000000 		.4byte	0x69
 731 0069 04       		.uleb128 0x4
 732 006a 02       		.byte	0x2
 733 006b 07       		.byte	0x7
 734 006c 66060000 		.4byte	.LASF7
 735 0070 03       		.uleb128 0x3
 736 0071 11010000 		.4byte	.LASF8
 737 0075 05       		.byte	0x5
 738 0076 3F       		.byte	0x3f
 739 0077 7B000000 		.4byte	0x7b
 740 007b 04       		.uleb128 0x4
 741 007c 04       		.byte	0x4
 742 007d 05       		.byte	0x5
ARM GAS  /tmp/cc2L2Wn2.s 			page 40


 743 007e 14050000 		.4byte	.LASF9
 744 0082 03       		.uleb128 0x3
 745 0083 01060000 		.4byte	.LASF10
 746 0087 05       		.byte	0x5
 747 0088 41       		.byte	0x41
 748 0089 8D000000 		.4byte	0x8d
 749 008d 04       		.uleb128 0x4
 750 008e 04       		.byte	0x4
 751 008f 07       		.byte	0x7
 752 0090 AA050000 		.4byte	.LASF11
 753 0094 04       		.uleb128 0x4
 754 0095 08       		.byte	0x8
 755 0096 05       		.byte	0x5
 756 0097 68040000 		.4byte	.LASF12
 757 009b 03       		.uleb128 0x3
 758 009c 9D030000 		.4byte	.LASF13
 759 00a0 05       		.byte	0x5
 760 00a1 5B       		.byte	0x5b
 761 00a2 A6000000 		.4byte	0xa6
 762 00a6 04       		.uleb128 0x4
 763 00a7 08       		.byte	0x8
 764 00a8 07       		.byte	0x7
 765 00a9 D5020000 		.4byte	.LASF14
 766 00ad 03       		.uleb128 0x3
 767 00ae 08040000 		.4byte	.LASF15
 768 00b2 06       		.byte	0x6
 769 00b3 2A       		.byte	0x2a
 770 00b4 45000000 		.4byte	0x45
 771 00b8 03       		.uleb128 0x3
 772 00b9 F2040000 		.4byte	.LASF16
 773 00bd 06       		.byte	0x6
 774 00be 36       		.byte	0x36
 775 00bf 5E000000 		.4byte	0x5e
 776 00c3 03       		.uleb128 0x3
 777 00c4 D7050000 		.4byte	.LASF17
 778 00c8 06       		.byte	0x6
 779 00c9 41       		.byte	0x41
 780 00ca 70000000 		.4byte	0x70
 781 00ce 03       		.uleb128 0x3
 782 00cf 6C020000 		.4byte	.LASF18
 783 00d3 06       		.byte	0x6
 784 00d4 42       		.byte	0x42
 785 00d5 82000000 		.4byte	0x82
 786 00d9 03       		.uleb128 0x3
 787 00da 49050000 		.4byte	.LASF19
 788 00de 06       		.byte	0x6
 789 00df 4E       		.byte	0x4e
 790 00e0 9B000000 		.4byte	0x9b
 791 00e4 03       		.uleb128 0x3
 792 00e5 C0040000 		.4byte	.LASF20
 793 00e9 07       		.byte	0x7
 794 00ea 3C       		.byte	0x3c
 795 00eb AD000000 		.4byte	0xad
 796 00ef 03       		.uleb128 0x3
 797 00f0 F4030000 		.4byte	.LASF21
 798 00f4 07       		.byte	0x7
 799 00f5 3D       		.byte	0x3d
ARM GAS  /tmp/cc2L2Wn2.s 			page 41


 800 00f6 AD000000 		.4byte	0xad
 801 00fa 03       		.uleb128 0x3
 802 00fb A2050000 		.4byte	.LASF22
 803 00ff 07       		.byte	0x7
 804 0100 3E       		.byte	0x3e
 805 0101 AD000000 		.4byte	0xad
 806 0105 03       		.uleb128 0x3
 807 0106 9B020000 		.4byte	.LASF23
 808 010a 07       		.byte	0x7
 809 010b 40       		.byte	0x40
 810 010c CE000000 		.4byte	0xce
 811 0110 03       		.uleb128 0x3
 812 0111 97040000 		.4byte	.LASF24
 813 0115 07       		.byte	0x7
 814 0116 41       		.byte	0x41
 815 0117 C3000000 		.4byte	0xc3
 816 011b 03       		.uleb128 0x3
 817 011c 7D020000 		.4byte	.LASF25
 818 0120 07       		.byte	0x7
 819 0121 43       		.byte	0x43
 820 0122 CE000000 		.4byte	0xce
 821 0126 03       		.uleb128 0x3
 822 0127 0A030000 		.4byte	.LASF26
 823 012b 07       		.byte	0x7
 824 012c 45       		.byte	0x45
 825 012d C3000000 		.4byte	0xc3
 826 0131 03       		.uleb128 0x3
 827 0132 38000000 		.4byte	.LASF27
 828 0136 08       		.byte	0x8
 829 0137 35       		.byte	0x35
 830 0138 B8000000 		.4byte	0xb8
 831 013c 03       		.uleb128 0x3
 832 013d 51030000 		.4byte	.LASF28
 833 0141 08       		.byte	0x8
 834 0142 3F       		.byte	0x3f
 835 0143 47010000 		.4byte	0x147
 836 0147 05       		.uleb128 0x5
 837 0148 1E040000 		.4byte	.LASF46
 838 014c 44       		.byte	0x44
 839 014d 09       		.byte	0x9
 840 014e 9A       		.byte	0x9a
 841 014f 25020000 		.4byte	0x225
 842 0153 06       		.uleb128 0x6
 843 0154 D1050000 		.4byte	.LASF29
 844 0158 09       		.byte	0x9
 845 0159 9B       		.byte	0x9b
 846 015a 5A020000 		.4byte	0x25a
 847 015e 00       		.byte	0
 848 015f 06       		.uleb128 0x6
 849 0160 CB030000 		.4byte	.LASF30
 850 0164 09       		.byte	0x9
 851 0165 9C       		.byte	0x9c
 852 0166 05010000 		.4byte	0x105
 853 016a 08       		.byte	0x8
 854 016b 07       		.uleb128 0x7
 855 016c 63747800 		.ascii	"ctx\000"
 856 0170 09       		.byte	0x9
ARM GAS  /tmp/cc2L2Wn2.s 			page 42


 857 0171 9D       		.byte	0x9d
 858 0172 6B040000 		.4byte	0x46b
 859 0176 0C       		.byte	0xc
 860 0177 06       		.uleb128 0x6
 861 0178 E7050000 		.4byte	.LASF31
 862 017c 09       		.byte	0x9
 863 017d 9F       		.byte	0x9f
 864 017e 30020000 		.4byte	0x230
 865 0182 10       		.byte	0x10
 866 0183 06       		.uleb128 0x6
 867 0184 98060000 		.4byte	.LASF32
 868 0188 09       		.byte	0x9
 869 0189 A0       		.byte	0xa0
 870 018a 30020000 		.4byte	0x230
 871 018e 14       		.byte	0x14
 872 018f 06       		.uleb128 0x6
 873 0190 70050000 		.4byte	.LASF33
 874 0194 09       		.byte	0x9
 875 0195 A7       		.byte	0xa7
 876 0196 E8060000 		.4byte	0x6e8
 877 019a 18       		.byte	0x18
 878 019b 06       		.uleb128 0x6
 879 019c ED030000 		.4byte	.LASF34
 880 01a0 09       		.byte	0x9
 881 01a1 B0       		.byte	0xb0
 882 01a2 FA060000 		.4byte	0x6fa
 883 01a6 1C       		.byte	0x1c
 884 01a7 06       		.uleb128 0x6
 885 01a8 35060000 		.4byte	.LASF35
 886 01ac 09       		.byte	0x9
 887 01ad B5       		.byte	0xb5
 888 01ae EF000000 		.4byte	0xef
 889 01b2 20       		.byte	0x20
 890 01b3 06       		.uleb128 0x6
 891 01b4 32000000 		.4byte	.LASF36
 892 01b8 09       		.byte	0x9
 893 01b9 B9       		.byte	0xb9
 894 01ba E4000000 		.4byte	0xe4
 895 01be 21       		.byte	0x21
 896 01bf 06       		.uleb128 0x6
 897 01c0 1B010000 		.4byte	.LASF37
 898 01c4 09       		.byte	0x9
 899 01c5 BE       		.byte	0xbe
 900 01c6 FA000000 		.4byte	0xfa
 901 01ca 22       		.byte	0x22
 902 01cb 08       		.uleb128 0x8
 903 01cc 7500     		.ascii	"u\000"
 904 01ce 09       		.byte	0x9
 905 01cf 0F01     		.2byte	0x10f
 906 01d1 1D060000 		.4byte	0x61d
 907 01d5 24       		.byte	0x24
 908 01d6 09       		.uleb128 0x9
 909 01d7 0C060000 		.4byte	.LASF38
 910 01db 09       		.byte	0x9
 911 01dc 1401     		.2byte	0x114
 912 01de 36020000 		.4byte	0x236
 913 01e2 28       		.byte	0x28
ARM GAS  /tmp/cc2L2Wn2.s 			page 43


 914 01e3 09       		.uleb128 0x9
 915 01e4 10040000 		.4byte	.LASF39
 916 01e8 09       		.byte	0x9
 917 01e9 1A01     		.2byte	0x11a
 918 01eb 5A020000 		.4byte	0x25a
 919 01ef 2C       		.byte	0x2c
 920 01f0 09       		.uleb128 0x9
 921 01f1 D4000000 		.4byte	.LASF40
 922 01f5 09       		.byte	0x9
 923 01f6 2001     		.2byte	0x120
 924 01f8 1B010000 		.4byte	0x11b
 925 01fc 34       		.byte	0x34
 926 01fd 09       		.uleb128 0x9
 927 01fe 32030000 		.4byte	.LASF41
 928 0202 09       		.byte	0x9
 929 0203 2701     		.2byte	0x127
 930 0205 E2060000 		.4byte	0x6e2
 931 0209 38       		.byte	0x38
 932 020a 09       		.uleb128 0x9
 933 020b 54000000 		.4byte	.LASF42
 934 020f 09       		.byte	0x9
 935 0210 2B01     		.2byte	0x12b
 936 0212 05010000 		.4byte	0x105
 937 0216 3C       		.byte	0x3c
 938 0217 09       		.uleb128 0x9
 939 0218 E3060000 		.4byte	.LASF43
 940 021c 09       		.byte	0x9
 941 021d 3201     		.2byte	0x132
 942 021f 0D030000 		.4byte	0x30d
 943 0223 40       		.byte	0x40
 944 0224 00       		.byte	0
 945 0225 03       		.uleb128 0x3
 946 0226 DA030000 		.4byte	.LASF44
 947 022a 08       		.byte	0x8
 948 022b 44       		.byte	0x44
 949 022c 30020000 		.4byte	0x230
 950 0230 0A       		.uleb128 0xa
 951 0231 04       		.byte	0x4
 952 0232 3C010000 		.4byte	0x13c
 953 0236 03       		.uleb128 0x3
 954 0237 02010000 		.4byte	.LASF45
 955 023b 08       		.byte	0x8
 956 023c 49       		.byte	0x49
 957 023d 41020000 		.4byte	0x241
 958 0241 05       		.uleb128 0x5
 959 0242 00000000 		.4byte	.LASF47
 960 0246 04       		.byte	0x4
 961 0247 09       		.byte	0x9
 962 0248 88       		.byte	0x88
 963 0249 5A020000 		.4byte	0x25a
 964 024d 06       		.uleb128 0x6
 965 024e EA000000 		.4byte	.LASF48
 966 0252 09       		.byte	0x9
 967 0253 89       		.byte	0x89
 968 0254 30020000 		.4byte	0x230
 969 0258 00       		.byte	0
 970 0259 00       		.byte	0
ARM GAS  /tmp/cc2L2Wn2.s 			page 44


 971 025a 03       		.uleb128 0x3
 972 025b 22030000 		.4byte	.LASF49
 973 025f 08       		.byte	0x8
 974 0260 50       		.byte	0x50
 975 0261 65020000 		.4byte	0x265
 976 0265 05       		.uleb128 0x5
 977 0266 9A010000 		.4byte	.LASF50
 978 026a 08       		.byte	0x8
 979 026b 09       		.byte	0x9
 980 026c 8F       		.byte	0x8f
 981 026d 8A020000 		.4byte	0x28a
 982 0271 06       		.uleb128 0x6
 983 0272 EA000000 		.4byte	.LASF48
 984 0276 09       		.byte	0x9
 985 0277 90       		.byte	0x90
 986 0278 30020000 		.4byte	0x230
 987 027c 00       		.byte	0
 988 027d 06       		.uleb128 0x6
 989 027e 95010000 		.4byte	.LASF51
 990 0282 09       		.byte	0x9
 991 0283 91       		.byte	0x91
 992 0284 30020000 		.4byte	0x230
 993 0288 04       		.byte	0x4
 994 0289 00       		.byte	0
 995 028a 03       		.uleb128 0x3
 996 028b BC050000 		.4byte	.LASF52
 997 028f 08       		.byte	0x8
 998 0290 57       		.byte	0x57
 999 0291 95020000 		.4byte	0x295
 1000 0295 0B       		.uleb128 0xb
 1001 0296 7B010000 		.4byte	.LASF53
 1002 029a 1C       		.byte	0x1c
 1003 029b 09       		.byte	0x9
 1004 029c 6A01     		.2byte	0x16a
 1005 029e F1020000 		.4byte	0x2f1
 1006 02a2 09       		.uleb128 0x9
 1007 02a3 D1050000 		.4byte	.LASF29
 1008 02a7 09       		.byte	0x9
 1009 02a8 6B01     		.2byte	0x16b
 1010 02aa 5A020000 		.4byte	0x25a
 1011 02ae 00       		.byte	0
 1012 02af 09       		.uleb128 0x9
 1013 02b0 CB030000 		.4byte	.LASF30
 1014 02b4 09       		.byte	0x9
 1015 02b5 6C01     		.2byte	0x16c
 1016 02b7 05010000 		.4byte	0x105
 1017 02bb 08       		.byte	0x8
 1018 02bc 08       		.uleb128 0x8
 1019 02bd 63747800 		.ascii	"ctx\000"
 1020 02c1 09       		.byte	0x9
 1021 02c2 6E01     		.2byte	0x16e
 1022 02c4 6B040000 		.4byte	0x46b
 1023 02c8 0C       		.byte	0xc
 1024 02c9 09       		.uleb128 0x9
 1025 02ca E7050000 		.4byte	.LASF31
 1026 02ce 09       		.byte	0x9
 1027 02cf 7101     		.2byte	0x171
ARM GAS  /tmp/cc2L2Wn2.s 			page 45


 1028 02d1 30020000 		.4byte	0x230
 1029 02d5 10       		.byte	0x10
 1030 02d6 09       		.uleb128 0x9
 1031 02d7 98060000 		.4byte	.LASF32
 1032 02db 09       		.byte	0x9
 1033 02dc 7201     		.2byte	0x172
 1034 02de 30020000 		.4byte	0x230
 1035 02e2 14       		.byte	0x14
 1036 02e3 09       		.uleb128 0x9
 1037 02e4 84060000 		.4byte	.LASF54
 1038 02e8 09       		.byte	0x9
 1039 02e9 7501     		.2byte	0x175
 1040 02eb 30020000 		.4byte	0x230
 1041 02ef 18       		.byte	0x18
 1042 02f0 00       		.byte	0
 1043 02f1 03       		.uleb128 0x3
 1044 02f2 B0010000 		.4byte	.LASF55
 1045 02f6 08       		.byte	0x8
 1046 02f7 5C       		.byte	0x5c
 1047 02f8 FC020000 		.4byte	0x2fc
 1048 02fc 0A       		.uleb128 0xa
 1049 02fd 04       		.byte	0x4
 1050 02fe 02030000 		.4byte	0x302
 1051 0302 0C       		.uleb128 0xc
 1052 0303 0D030000 		.4byte	0x30d
 1053 0307 0D       		.uleb128 0xd
 1054 0308 0D030000 		.4byte	0x30d
 1055 030c 00       		.byte	0
 1056 030d 0E       		.uleb128 0xe
 1057 030e 04       		.byte	0x4
 1058 030f 03       		.uleb128 0x3
 1059 0310 A6040000 		.4byte	.LASF56
 1060 0314 08       		.byte	0x8
 1061 0315 61       		.byte	0x61
 1062 0316 1A030000 		.4byte	0x31a
 1063 031a 0B       		.uleb128 0xb
 1064 031b A3020000 		.4byte	.LASF57
 1065 031f 14       		.byte	0x14
 1066 0320 09       		.byte	0x9
 1067 0321 4501     		.2byte	0x145
 1068 0323 69030000 		.4byte	0x369
 1069 0327 09       		.uleb128 0x9
 1070 0328 EA000000 		.4byte	.LASF48
 1071 032c 09       		.byte	0x9
 1072 032d 4601     		.2byte	0x146
 1073 032f 00070000 		.4byte	0x700
 1074 0333 00       		.byte	0
 1075 0334 09       		.uleb128 0x9
 1076 0335 95010000 		.4byte	.LASF51
 1077 0339 09       		.byte	0x9
 1078 033a 4701     		.2byte	0x147
 1079 033c 00070000 		.4byte	0x700
 1080 0340 04       		.byte	0x4
 1081 0341 09       		.uleb128 0x9
 1082 0342 60060000 		.4byte	.LASF58
 1083 0346 09       		.byte	0x9
 1084 0347 4801     		.2byte	0x148
ARM GAS  /tmp/cc2L2Wn2.s 			page 46


 1085 0349 31010000 		.4byte	0x131
 1086 034d 08       		.byte	0x8
 1087 034e 09       		.uleb128 0x9
 1088 034f 89010000 		.4byte	.LASF59
 1089 0353 09       		.byte	0x9
 1090 0354 4901     		.2byte	0x149
 1091 0356 F1020000 		.4byte	0x2f1
 1092 035a 0C       		.byte	0xc
 1093 035b 08       		.uleb128 0x8
 1094 035c 70617200 		.ascii	"par\000"
 1095 0360 09       		.byte	0x9
 1096 0361 4B01     		.2byte	0x14b
 1097 0363 0D030000 		.4byte	0x30d
 1098 0367 10       		.byte	0x10
 1099 0368 00       		.byte	0
 1100 0369 03       		.uleb128 0x3
 1101 036a 14060000 		.4byte	.LASF60
 1102 036e 08       		.byte	0x8
 1103 036f 66       		.byte	0x66
 1104 0370 74030000 		.4byte	0x374
 1105 0374 0B       		.uleb128 0xb
 1106 0375 3A030000 		.4byte	.LASF61
 1107 0379 0C       		.byte	0xc
 1108 037a 09       		.byte	0x9
 1109 037b 5501     		.2byte	0x155
 1110 037d B6030000 		.4byte	0x3b6
 1111 0381 09       		.uleb128 0x9
 1112 0382 EA000000 		.4byte	.LASF48
 1113 0386 09       		.byte	0x9
 1114 0387 5601     		.2byte	0x156
 1115 0389 00070000 		.4byte	0x700
 1116 038d 00       		.byte	0
 1117 038e 09       		.uleb128 0x9
 1118 038f 95010000 		.4byte	.LASF51
 1119 0393 09       		.byte	0x9
 1120 0394 5801     		.2byte	0x158
 1121 0396 00070000 		.4byte	0x700
 1122 039a 04       		.byte	0x4
 1123 039b 09       		.uleb128 0x9
 1124 039c 60060000 		.4byte	.LASF58
 1125 03a0 09       		.byte	0x9
 1126 03a1 5A01     		.2byte	0x15a
 1127 03a3 31010000 		.4byte	0x131
 1128 03a7 08       		.byte	0x8
 1129 03a8 09       		.uleb128 0x9
 1130 03a9 40050000 		.4byte	.LASF62
 1131 03ad 09       		.byte	0x9
 1132 03ae 6201     		.2byte	0x162
 1133 03b0 31010000 		.4byte	0x131
 1134 03b4 0A       		.byte	0xa
 1135 03b5 00       		.byte	0
 1136 03b6 03       		.uleb128 0x3
 1137 03b7 30040000 		.4byte	.LASF63
 1138 03bb 08       		.byte	0x8
 1139 03bc 6B       		.byte	0x6b
 1140 03bd C1030000 		.4byte	0x3c1
 1141 03c1 0B       		.uleb128 0xb
ARM GAS  /tmp/cc2L2Wn2.s 			page 47


 1142 03c2 B9010000 		.4byte	.LASF64
 1143 03c6 04       		.byte	0x4
 1144 03c7 09       		.byte	0x9
 1145 03c8 7C01     		.2byte	0x17c
 1146 03ca DC030000 		.4byte	0x3dc
 1147 03ce 09       		.uleb128 0x9
 1148 03cf B6040000 		.4byte	.LASF65
 1149 03d3 09       		.byte	0x9
 1150 03d4 8401     		.2byte	0x184
 1151 03d6 06070000 		.4byte	0x706
 1152 03da 00       		.byte	0
 1153 03db 00       		.byte	0
 1154 03dc 03       		.uleb128 0x3
 1155 03dd 3B060000 		.4byte	.LASF66
 1156 03e1 08       		.byte	0x8
 1157 03e2 70       		.byte	0x70
 1158 03e3 E7030000 		.4byte	0x3e7
 1159 03e7 0B       		.uleb128 0xb
 1160 03e8 36050000 		.4byte	.LASF67
 1161 03ec 70       		.byte	0x70
 1162 03ed 09       		.byte	0x9
 1163 03ee 9C01     		.2byte	0x19c
 1164 03f0 29040000 		.4byte	0x429
 1165 03f4 09       		.uleb128 0x9
 1166 03f5 52050000 		.4byte	.LASF68
 1167 03f9 09       		.byte	0x9
 1168 03fa A001     		.2byte	0x1a0
 1169 03fc 8A020000 		.4byte	0x28a
 1170 0400 00       		.byte	0
 1171 0401 09       		.uleb128 0x9
 1172 0402 31010000 		.4byte	.LASF69
 1173 0406 09       		.byte	0x9
 1174 0407 A401     		.2byte	0x1a4
 1175 0409 69030000 		.4byte	0x369
 1176 040d 1C       		.byte	0x1c
 1177 040e 08       		.uleb128 0x8
 1178 040f 64626700 		.ascii	"dbg\000"
 1179 0413 09       		.byte	0x9
 1180 0414 A801     		.2byte	0x1a8
 1181 0416 B6030000 		.4byte	0x3b6
 1182 041a 28       		.byte	0x28
 1183 041b 09       		.uleb128 0x9
 1184 041c D0040000 		.4byte	.LASF70
 1185 0420 09       		.byte	0x9
 1186 0421 AC01     		.2byte	0x1ac
 1187 0423 3C010000 		.4byte	0x13c
 1188 0427 2C       		.byte	0x2c
 1189 0428 00       		.byte	0
 1190 0429 04       		.uleb128 0x4
 1191 042a 04       		.byte	0x4
 1192 042b 07       		.byte	0x7
 1193 042c 99050000 		.4byte	.LASF71
 1194 0430 0F       		.uleb128 0xf
 1195 0431 CE000000 		.4byte	0xce
 1196 0435 10       		.uleb128 0x10
 1197 0436 CE000000 		.4byte	0xce
 1198 043a 45040000 		.4byte	0x445
ARM GAS  /tmp/cc2L2Wn2.s 			page 48


 1199 043e 11       		.uleb128 0x11
 1200 043f 29040000 		.4byte	0x429
 1201 0443 01       		.byte	0x1
 1202 0444 00       		.byte	0
 1203 0445 10       		.uleb128 0x10
 1204 0446 CE000000 		.4byte	0xce
 1205 044a 55040000 		.4byte	0x455
 1206 044e 11       		.uleb128 0x11
 1207 044f 29040000 		.4byte	0x429
 1208 0453 03       		.byte	0x3
 1209 0454 00       		.byte	0
 1210 0455 03       		.uleb128 0x3
 1211 0456 29000000 		.4byte	.LASF72
 1212 045a 0A       		.byte	0xa
 1213 045b 65       		.byte	0x65
 1214 045c 0D030000 		.4byte	0x30d
 1215 0460 03       		.uleb128 0x3
 1216 0461 79060000 		.4byte	.LASF73
 1217 0465 0A       		.byte	0xa
 1218 0466 6D       		.byte	0x6d
 1219 0467 D9000000 		.4byte	0xd9
 1220 046b 05       		.uleb128 0x5
 1221 046c 38010000 		.4byte	.LASF74
 1222 0470 04       		.byte	0x4
 1223 0471 0A       		.byte	0xa
 1224 0472 89       		.byte	0x89
 1225 0473 83040000 		.4byte	0x483
 1226 0477 07       		.uleb128 0x7
 1227 0478 737000   		.ascii	"sp\000"
 1228 047b 0A       		.byte	0xa
 1229 047c 8A       		.byte	0x8a
 1230 047d F5040000 		.4byte	0x4f5
 1231 0481 00       		.byte	0
 1232 0482 00       		.byte	0
 1233 0483 05       		.uleb128 0x5
 1234 0484 1D050000 		.4byte	.LASF75
 1235 0488 24       		.byte	0x24
 1236 0489 0B       		.byte	0xb
 1237 048a C3       		.byte	0xc3
 1238 048b F5040000 		.4byte	0x4f5
 1239 048f 07       		.uleb128 0x7
 1240 0490 723800   		.ascii	"r8\000"
 1241 0493 0B       		.byte	0xb
 1242 0494 C4       		.byte	0xc4
 1243 0495 55040000 		.4byte	0x455
 1244 0499 00       		.byte	0
 1245 049a 07       		.uleb128 0x7
 1246 049b 723900   		.ascii	"r9\000"
 1247 049e 0B       		.byte	0xb
 1248 049f C5       		.byte	0xc5
 1249 04a0 55040000 		.4byte	0x455
 1250 04a4 04       		.byte	0x4
 1251 04a5 07       		.uleb128 0x7
 1252 04a6 72313000 		.ascii	"r10\000"
 1253 04aa 0B       		.byte	0xb
 1254 04ab C6       		.byte	0xc6
 1255 04ac 55040000 		.4byte	0x455
ARM GAS  /tmp/cc2L2Wn2.s 			page 49


 1256 04b0 08       		.byte	0x8
 1257 04b1 07       		.uleb128 0x7
 1258 04b2 72313100 		.ascii	"r11\000"
 1259 04b6 0B       		.byte	0xb
 1260 04b7 C7       		.byte	0xc7
 1261 04b8 55040000 		.4byte	0x455
 1262 04bc 0C       		.byte	0xc
 1263 04bd 07       		.uleb128 0x7
 1264 04be 723400   		.ascii	"r4\000"
 1265 04c1 0B       		.byte	0xb
 1266 04c2 C8       		.byte	0xc8
 1267 04c3 55040000 		.4byte	0x455
 1268 04c7 10       		.byte	0x10
 1269 04c8 07       		.uleb128 0x7
 1270 04c9 723500   		.ascii	"r5\000"
 1271 04cc 0B       		.byte	0xb
 1272 04cd C9       		.byte	0xc9
 1273 04ce 55040000 		.4byte	0x455
 1274 04d2 14       		.byte	0x14
 1275 04d3 07       		.uleb128 0x7
 1276 04d4 723600   		.ascii	"r6\000"
 1277 04d7 0B       		.byte	0xb
 1278 04d8 CA       		.byte	0xca
 1279 04d9 55040000 		.4byte	0x455
 1280 04dd 18       		.byte	0x18
 1281 04de 07       		.uleb128 0x7
 1282 04df 723700   		.ascii	"r7\000"
 1283 04e2 0B       		.byte	0xb
 1284 04e3 CB       		.byte	0xcb
 1285 04e4 55040000 		.4byte	0x455
 1286 04e8 1C       		.byte	0x1c
 1287 04e9 07       		.uleb128 0x7
 1288 04ea 6C7200   		.ascii	"lr\000"
 1289 04ed 0B       		.byte	0xb
 1290 04ee CC       		.byte	0xcc
 1291 04ef 55040000 		.4byte	0x455
 1292 04f3 20       		.byte	0x20
 1293 04f4 00       		.byte	0
 1294 04f5 0A       		.uleb128 0xa
 1295 04f6 04       		.byte	0x4
 1296 04f7 83040000 		.4byte	0x483
 1297 04fb 12       		.uleb128 0x12
 1298 04fc 60       		.byte	0x60
 1299 04fd 0C       		.byte	0xc
 1300 04fe A101     		.2byte	0x1a1
 1301 0500 07060000 		.4byte	0x607
 1302 0504 08       		.uleb128 0x8
 1303 0505 43523100 		.ascii	"CR1\000"
 1304 0509 0C       		.byte	0xc
 1305 050a A201     		.2byte	0x1a2
 1306 050c 30040000 		.4byte	0x430
 1307 0510 00       		.byte	0
 1308 0511 08       		.uleb128 0x8
 1309 0512 43523200 		.ascii	"CR2\000"
 1310 0516 0C       		.byte	0xc
 1311 0517 A301     		.2byte	0x1a3
 1312 0519 30040000 		.4byte	0x430
ARM GAS  /tmp/cc2L2Wn2.s 			page 50


 1313 051d 04       		.byte	0x4
 1314 051e 09       		.uleb128 0x9
 1315 051f 19040000 		.4byte	.LASF76
 1316 0523 0C       		.byte	0xc
 1317 0524 A401     		.2byte	0x1a4
 1318 0526 30040000 		.4byte	0x430
 1319 052a 08       		.byte	0x8
 1320 052b 09       		.uleb128 0x9
 1321 052c A8030000 		.4byte	.LASF77
 1322 0530 0C       		.byte	0xc
 1323 0531 A501     		.2byte	0x1a5
 1324 0533 30040000 		.4byte	0x430
 1325 0537 0C       		.byte	0xc
 1326 0538 08       		.uleb128 0x8
 1327 0539 535200   		.ascii	"SR\000"
 1328 053c 0C       		.byte	0xc
 1329 053d A601     		.2byte	0x1a6
 1330 053f 30040000 		.4byte	0x430
 1331 0543 10       		.byte	0x10
 1332 0544 08       		.uleb128 0x8
 1333 0545 45475200 		.ascii	"EGR\000"
 1334 0549 0C       		.byte	0xc
 1335 054a A701     		.2byte	0x1a7
 1336 054c 30040000 		.4byte	0x430
 1337 0550 14       		.byte	0x14
 1338 0551 09       		.uleb128 0x9
 1339 0552 B4020000 		.4byte	.LASF78
 1340 0556 0C       		.byte	0xc
 1341 0557 A801     		.2byte	0x1a8
 1342 0559 30040000 		.4byte	0x430
 1343 055d 18       		.byte	0x18
 1344 055e 09       		.uleb128 0x9
 1345 055f BA020000 		.4byte	.LASF79
 1346 0563 0C       		.byte	0xc
 1347 0564 A901     		.2byte	0x1a9
 1348 0566 30040000 		.4byte	0x430
 1349 056a 1C       		.byte	0x1c
 1350 056b 09       		.uleb128 0x9
 1351 056c D0030000 		.4byte	.LASF80
 1352 0570 0C       		.byte	0xc
 1353 0571 AA01     		.2byte	0x1aa
 1354 0573 30040000 		.4byte	0x430
 1355 0577 20       		.byte	0x20
 1356 0578 08       		.uleb128 0x8
 1357 0579 434E5400 		.ascii	"CNT\000"
 1358 057d 0C       		.byte	0xc
 1359 057e AB01     		.2byte	0x1ab
 1360 0580 30040000 		.4byte	0x430
 1361 0584 24       		.byte	0x24
 1362 0585 08       		.uleb128 0x8
 1363 0586 50534300 		.ascii	"PSC\000"
 1364 058a 0C       		.byte	0xc
 1365 058b AC01     		.2byte	0x1ac
 1366 058d 30040000 		.4byte	0x430
 1367 0591 28       		.byte	0x28
 1368 0592 08       		.uleb128 0x8
 1369 0593 41525200 		.ascii	"ARR\000"
ARM GAS  /tmp/cc2L2Wn2.s 			page 51


 1370 0597 0C       		.byte	0xc
 1371 0598 AD01     		.2byte	0x1ad
 1372 059a 30040000 		.4byte	0x430
 1373 059e 2C       		.byte	0x2c
 1374 059f 08       		.uleb128 0x8
 1375 05a0 52435200 		.ascii	"RCR\000"
 1376 05a4 0C       		.byte	0xc
 1377 05a5 AE01     		.2byte	0x1ae
 1378 05a7 30040000 		.4byte	0x430
 1379 05ab 30       		.byte	0x30
 1380 05ac 08       		.uleb128 0x8
 1381 05ad 43435200 		.ascii	"CCR\000"
 1382 05b1 0C       		.byte	0xc
 1383 05b2 AF01     		.2byte	0x1af
 1384 05b4 07060000 		.4byte	0x607
 1385 05b8 34       		.byte	0x34
 1386 05b9 09       		.uleb128 0x9
 1387 05ba 89020000 		.4byte	.LASF81
 1388 05be 0C       		.byte	0xc
 1389 05bf B001     		.2byte	0x1b0
 1390 05c1 30040000 		.4byte	0x430
 1391 05c5 44       		.byte	0x44
 1392 05c6 08       		.uleb128 0x8
 1393 05c7 44435200 		.ascii	"DCR\000"
 1394 05cb 0C       		.byte	0xc
 1395 05cc B101     		.2byte	0x1b1
 1396 05ce 30040000 		.4byte	0x430
 1397 05d2 48       		.byte	0x48
 1398 05d3 09       		.uleb128 0x9
 1399 05d4 AB010000 		.4byte	.LASF82
 1400 05d8 0C       		.byte	0xc
 1401 05d9 B201     		.2byte	0x1b2
 1402 05db 30040000 		.4byte	0x430
 1403 05df 4C       		.byte	0x4c
 1404 05e0 08       		.uleb128 0x8
 1405 05e1 4F5200   		.ascii	"OR\000"
 1406 05e4 0C       		.byte	0xc
 1407 05e5 B301     		.2byte	0x1b3
 1408 05e7 30040000 		.4byte	0x430
 1409 05eb 50       		.byte	0x50
 1410 05ec 09       		.uleb128 0x9
 1411 05ed C0020000 		.4byte	.LASF83
 1412 05f1 0C       		.byte	0xc
 1413 05f2 B401     		.2byte	0x1b4
 1414 05f4 30040000 		.4byte	0x430
 1415 05f8 54       		.byte	0x54
 1416 05f9 09       		.uleb128 0x9
 1417 05fa FB040000 		.4byte	.LASF84
 1418 05fe 0C       		.byte	0xc
 1419 05ff B501     		.2byte	0x1b5
 1420 0601 0C060000 		.4byte	0x60c
 1421 0605 58       		.byte	0x58
 1422 0606 00       		.byte	0
 1423 0607 0F       		.uleb128 0xf
 1424 0608 45040000 		.4byte	0x445
 1425 060c 0F       		.uleb128 0xf
 1426 060d 35040000 		.4byte	0x435
ARM GAS  /tmp/cc2L2Wn2.s 			page 52


 1427 0611 13       		.uleb128 0x13
 1428 0612 76030000 		.4byte	.LASF85
 1429 0616 0C       		.byte	0xc
 1430 0617 B601     		.2byte	0x1b6
 1431 0619 FB040000 		.4byte	0x4fb
 1432 061d 14       		.uleb128 0x14
 1433 061e 04       		.byte	0x4
 1434 061f 09       		.byte	0x9
 1435 0620 D2       		.byte	0xd2
 1436 0621 80060000 		.4byte	0x680
 1437 0625 15       		.uleb128 0x15
 1438 0626 61030000 		.4byte	.LASF86
 1439 062a 09       		.byte	0x9
 1440 062b D9       		.byte	0xd9
 1441 062c 10010000 		.4byte	0x110
 1442 0630 15       		.uleb128 0x15
 1443 0631 DA060000 		.4byte	.LASF87
 1444 0635 09       		.byte	0x9
 1445 0636 E0       		.byte	0xe0
 1446 0637 10010000 		.4byte	0x110
 1447 063b 15       		.uleb128 0x15
 1448 063c 20010000 		.4byte	.LASF88
 1449 0640 09       		.byte	0x9
 1450 0641 E7       		.byte	0xe7
 1451 0642 0D030000 		.4byte	0x30d
 1452 0646 15       		.uleb128 0x15
 1453 0647 4E060000 		.4byte	.LASF89
 1454 064b 09       		.byte	0x9
 1455 064c EE       		.byte	0xee
 1456 064d 80060000 		.4byte	0x680
 1457 0651 15       		.uleb128 0x15
 1458 0652 75020000 		.4byte	.LASF90
 1459 0656 09       		.byte	0x9
 1460 0657 F3       		.byte	0xf3
 1461 0658 10010000 		.4byte	0x110
 1462 065c 15       		.uleb128 0x15
 1463 065d 47060000 		.4byte	.LASF91
 1464 0661 09       		.byte	0x9
 1465 0662 FC       		.byte	0xfc
 1466 0663 AB060000 		.4byte	0x6ab
 1467 0667 16       		.uleb128 0x16
 1468 0668 22000000 		.4byte	.LASF92
 1469 066c 09       		.byte	0x9
 1470 066d 0501     		.2byte	0x105
 1471 066f E2060000 		.4byte	0x6e2
 1472 0673 16       		.uleb128 0x16
 1473 0674 8E010000 		.4byte	.LASF93
 1474 0678 09       		.byte	0x9
 1475 0679 0D01     		.2byte	0x10d
 1476 067b 1B010000 		.4byte	0x11b
 1477 067f 00       		.byte	0
 1478 0680 0A       		.uleb128 0xa
 1479 0681 04       		.byte	0x4
 1480 0682 25020000 		.4byte	0x225
 1481 0686 05       		.uleb128 0x5
 1482 0687 8E020000 		.4byte	.LASF94
 1483 068b 0C       		.byte	0xc
ARM GAS  /tmp/cc2L2Wn2.s 			page 53


 1484 068c 0D       		.byte	0xd
 1485 068d 34       		.byte	0x34
 1486 068e AB060000 		.4byte	0x6ab
 1487 0692 06       		.uleb128 0x6
 1488 0693 D1050000 		.4byte	.LASF29
 1489 0697 0D       		.byte	0xd
 1490 0698 35       		.byte	0x35
 1491 0699 5A020000 		.4byte	0x25a
 1492 069d 00       		.byte	0
 1493 069e 07       		.uleb128 0x7
 1494 069f 636E7400 		.ascii	"cnt\000"
 1495 06a3 0D       		.byte	0xd
 1496 06a4 37       		.byte	0x37
 1497 06a5 26010000 		.4byte	0x126
 1498 06a9 08       		.byte	0x8
 1499 06aa 00       		.byte	0
 1500 06ab 0A       		.uleb128 0xa
 1501 06ac 04       		.byte	0x4
 1502 06ad 86060000 		.4byte	0x686
 1503 06b1 05       		.uleb128 0x5
 1504 06b2 94030000 		.4byte	.LASF95
 1505 06b6 10       		.byte	0x10
 1506 06b7 0E       		.byte	0xe
 1507 06b8 39       		.byte	0x39
 1508 06b9 E2060000 		.4byte	0x6e2
 1509 06bd 06       		.uleb128 0x6
 1510 06be D1050000 		.4byte	.LASF29
 1511 06c2 0E       		.byte	0xe
 1512 06c3 3A       		.byte	0x3a
 1513 06c4 5A020000 		.4byte	0x25a
 1514 06c8 00       		.byte	0
 1515 06c9 06       		.uleb128 0x6
 1516 06ca 1C030000 		.4byte	.LASF96
 1517 06ce 0E       		.byte	0xe
 1518 06cf 3C       		.byte	0x3c
 1519 06d0 30020000 		.4byte	0x230
 1520 06d4 08       		.byte	0x8
 1521 06d5 06       		.uleb128 0x6
 1522 06d6 EA000000 		.4byte	.LASF48
 1523 06da 0E       		.byte	0xe
 1524 06db 3E       		.byte	0x3e
 1525 06dc 16070000 		.4byte	0x716
 1526 06e0 0C       		.byte	0xc
 1527 06e1 00       		.byte	0
 1528 06e2 0A       		.uleb128 0xa
 1529 06e3 04       		.byte	0x4
 1530 06e4 B1060000 		.4byte	0x6b1
 1531 06e8 0A       		.uleb128 0xa
 1532 06e9 04       		.byte	0x4
 1533 06ea EE060000 		.4byte	0x6ee
 1534 06ee 17       		.uleb128 0x17
 1535 06ef F3060000 		.4byte	0x6f3
 1536 06f3 04       		.uleb128 0x4
 1537 06f4 01       		.byte	0x1
 1538 06f5 08       		.byte	0x8
 1539 06f6 D5030000 		.4byte	.LASF97
 1540 06fa 0A       		.uleb128 0xa
ARM GAS  /tmp/cc2L2Wn2.s 			page 54


 1541 06fb 04       		.byte	0x4
 1542 06fc 60040000 		.4byte	0x460
 1543 0700 0A       		.uleb128 0xa
 1544 0701 04       		.byte	0x4
 1545 0702 0F030000 		.4byte	0x30f
 1546 0706 0F       		.uleb128 0xf
 1547 0707 E8060000 		.4byte	0x6e8
 1548 070b 03       		.uleb128 0x3
 1549 070c DF050000 		.4byte	.LASF98
 1550 0710 0E       		.byte	0xe
 1551 0711 34       		.byte	0x34
 1552 0712 B1060000 		.4byte	0x6b1
 1553 0716 0A       		.uleb128 0xa
 1554 0717 04       		.byte	0x4
 1555 0718 0B070000 		.4byte	0x70b
 1556 071c 04       		.uleb128 0x4
 1557 071d 01       		.byte	0x1
 1558 071e 02       		.byte	0x2
 1559 071f 82030000 		.4byte	.LASF99
 1560 0723 18       		.uleb128 0x18
 1561 0724 10       		.byte	0x10
 1562 0725 0F       		.byte	0xf
 1563 0726 3D       		.byte	0x3d
 1564 0727 5C070000 		.4byte	0x75c
 1565 072b 06       		.uleb128 0x6
 1566 072c 70050000 		.4byte	.LASF33
 1567 0730 0F       		.byte	0xf
 1568 0731 3E       		.byte	0x3e
 1569 0732 E8060000 		.4byte	0x6e8
 1570 0736 00       		.byte	0
 1571 0737 06       		.uleb128 0x6
 1572 0738 FB050000 		.4byte	.LASF100
 1573 073c 0F       		.byte	0xf
 1574 073d 3F       		.byte	0x3f
 1575 073e 5D070000 		.4byte	0x75d
 1576 0742 04       		.byte	0x4
 1577 0743 06       		.uleb128 0x6
 1578 0744 9D040000 		.4byte	.LASF101
 1579 0748 0F       		.byte	0xf
 1580 0749 40       		.byte	0x40
 1581 074a 5D070000 		.4byte	0x75d
 1582 074e 08       		.byte	0x8
 1583 074f 06       		.uleb128 0x6
 1584 0750 28040000 		.4byte	.LASF102
 1585 0754 0F       		.byte	0xf
 1586 0755 41       		.byte	0x41
 1587 0756 5D070000 		.4byte	0x75d
 1588 075a 0C       		.byte	0xc
 1589 075b 00       		.byte	0
 1590 075c 19       		.uleb128 0x19
 1591 075d 0A       		.uleb128 0xa
 1592 075e 04       		.byte	0x4
 1593 075f 5C070000 		.4byte	0x75c
 1594 0763 03       		.uleb128 0x3
 1595 0764 A5000000 		.4byte	.LASF103
 1596 0768 0F       		.byte	0xf
 1597 0769 42       		.byte	0x42
ARM GAS  /tmp/cc2L2Wn2.s 			page 55


 1598 076a 23070000 		.4byte	0x723
 1599 076e 1A       		.uleb128 0x1a
 1600 076f 68030000 		.4byte	.LASF104
 1601 0773 02       		.byte	0x2
 1602 0774 45       		.byte	0x45
 1603 0775 03       		.byte	0x3
 1604 0776 1A       		.uleb128 0x1a
 1605 0777 29050000 		.4byte	.LASF105
 1606 077b 02       		.byte	0x2
 1607 077c 3A       		.byte	0x3a
 1608 077d 03       		.byte	0x3
 1609 077e 1B       		.uleb128 0x1b
 1610 077f EC020000 		.4byte	.LASF108
 1611 0783 03       		.byte	0x3
 1612 0784 8B       		.byte	0x8b
 1613 0785 31010000 		.4byte	0x131
 1614 0789 03       		.byte	0x3
 1615 078a 1C       		.uleb128 0x1c
 1616 078b 27010000 		.4byte	.LASF106
 1617 078f 0B       		.byte	0xb
 1618 0790 7301     		.2byte	0x173
 1619 0792 03       		.byte	0x3
 1620 0793 1C       		.uleb128 0x1c
 1621 0794 8C060000 		.4byte	.LASF107
 1622 0798 0B       		.byte	0xb
 1623 0799 7C01     		.2byte	0x17c
 1624 079b 03       		.byte	0x3
 1625 079c 1B       		.uleb128 0x1b
 1626 079d AD030000 		.4byte	.LASF109
 1627 07a1 10       		.byte	0x10
 1628 07a2 69       		.byte	0x69
 1629 07a3 31010000 		.4byte	0x131
 1630 07a7 03       		.byte	0x3
 1631 07a8 1C       		.uleb128 0x1c
 1632 07a9 C1030000 		.4byte	.LASF110
 1633 07ad 11       		.byte	0x11
 1634 07ae 7601     		.2byte	0x176
 1635 07b0 03       		.byte	0x3
 1636 07b1 1B       		.uleb128 0x1b
 1637 07b2 EF000000 		.4byte	.LASF111
 1638 07b6 12       		.byte	0x12
 1639 07b7 E4       		.byte	0xe4
 1640 07b8 31010000 		.4byte	0x131
 1641 07bc 03       		.byte	0x3
 1642 07bd 1D       		.uleb128 0x1d
 1643 07be 10030000 		.4byte	.LASF134
 1644 07c2 11       		.byte	0x11
 1645 07c3 8201     		.2byte	0x182
 1646 07c5 03       		.byte	0x3
 1647 07c6 D8070000 		.4byte	0x7d8
 1648 07ca 1E       		.uleb128 0x1e
 1649 07cb 62050000 		.4byte	.LASF112
 1650 07cf E8070000 		.4byte	0x7e8
 1651 07d3 10030000 		.4byte	.LASF134
 1652 07d7 00       		.byte	0
 1653 07d8 10       		.uleb128 0x10
 1654 07d9 F3060000 		.4byte	0x6f3
ARM GAS  /tmp/cc2L2Wn2.s 			page 56


 1655 07dd E8070000 		.4byte	0x7e8
 1656 07e1 11       		.uleb128 0x11
 1657 07e2 29040000 		.4byte	0x429
 1658 07e6 0B       		.byte	0xb
 1659 07e7 00       		.byte	0
 1660 07e8 17       		.uleb128 0x17
 1661 07e9 D8070000 		.4byte	0x7d8
 1662 07ed 1F       		.uleb128 0x1f
 1663 07ee 85040000 		.4byte	.LASF135
 1664 07f2 12       		.byte	0x12
 1665 07f3 F7       		.byte	0xf7
 1666 07f4 31010000 		.4byte	0x131
 1667 07f8 03       		.byte	0x3
 1668 07f9 09080000 		.4byte	0x809
 1669 07fd 20       		.uleb128 0x20
 1670 07fe C8040000 		.4byte	.LASF113
 1671 0802 12       		.byte	0x12
 1672 0803 F8       		.byte	0xf8
 1673 0804 31010000 		.4byte	0x131
 1674 0808 00       		.byte	0
 1675 0809 21       		.uleb128 0x21
 1676 080a DB040000 		.4byte	.LASF114
 1677 080e 01       		.byte	0x1
 1678 080f 73       		.byte	0x73
 1679 0810 00000000 		.4byte	.LFB179
 1680 0814 20000000 		.4byte	.LFE179-.LFB179
 1681 0818 01       		.uleb128 0x1
 1682 0819 9C       		.byte	0x9c
 1683 081a 35080000 		.4byte	0x835
 1684 081e 22       		.uleb128 0x22
 1685 081f 6900     		.ascii	"i\000"
 1686 0821 01       		.byte	0x1
 1687 0822 74       		.byte	0x74
 1688 0823 37000000 		.4byte	0x37
 1689 0827 00000000 		.4byte	.LLST0
 1690 082b 23       		.uleb128 0x23
 1691 082c 12000000 		.4byte	.LVL2
 1692 0830 CA0A0000 		.4byte	0xaca
 1693 0834 00       		.byte	0
 1694 0835 21       		.uleb128 0x21
 1695 0836 10000000 		.4byte	.LASF115
 1696 083a 01       		.byte	0x1
 1697 083b 7E       		.byte	0x7e
 1698 083c 00000000 		.4byte	.LFB180
 1699 0840 24000000 		.4byte	.LFE180-.LFB180
 1700 0844 01       		.uleb128 0x1
 1701 0845 9C       		.byte	0x9c
 1702 0846 61080000 		.4byte	0x861
 1703 084a 22       		.uleb128 0x22
 1704 084b 6900     		.ascii	"i\000"
 1705 084d 01       		.byte	0x1
 1706 084e 7F       		.byte	0x7f
 1707 084f 37000000 		.4byte	0x37
 1708 0853 14000000 		.4byte	.LLST1
 1709 0857 23       		.uleb128 0x23
 1710 0858 14000000 		.4byte	.LVL5
 1711 085c DB0A0000 		.4byte	0xadb
ARM GAS  /tmp/cc2L2Wn2.s 			page 57


 1712 0860 00       		.byte	0
 1713 0861 24       		.uleb128 0x24
 1714 0862 C6020000 		.4byte	.LASF136
 1715 0866 01       		.byte	0x1
 1716 0867 8B       		.byte	0x8b
 1717 0868 31010000 		.4byte	0x131
 1718 086c 00000000 		.4byte	.LFB181
 1719 0870 18000000 		.4byte	.LFE181-.LFB181
 1720 0874 01       		.uleb128 0x1
 1721 0875 9C       		.byte	0x9c
 1722 0876 55090000 		.4byte	0x955
 1723 087a 25       		.uleb128 0x25
 1724 087b ED070000 		.4byte	0x7ed
 1725 087f 08000000 		.4byte	.LBB50
 1726 0883 08000000 		.4byte	.LBE50-.LBB50
 1727 0887 01       		.byte	0x1
 1728 0888 8E       		.byte	0x8e
 1729 0889 45090000 		.4byte	0x945
 1730 088d 26       		.uleb128 0x26
 1731 088e 08000000 		.4byte	.LBB51
 1732 0892 08000000 		.4byte	.LBE51-.LBB51
 1733 0896 27       		.uleb128 0x27
 1734 0897 FD070000 		.4byte	0x7fd
 1735 089b 25       		.uleb128 0x25
 1736 089c A8070000 		.4byte	0x7a8
 1737 08a0 08000000 		.4byte	.LBB52
 1738 08a4 02000000 		.4byte	.LBE52-.LBB52
 1739 08a8 12       		.byte	0x12
 1740 08a9 FA       		.byte	0xfa
 1741 08aa D0080000 		.4byte	0x8d0
 1742 08ae 28       		.uleb128 0x28
 1743 08af 8A070000 		.4byte	0x78a
 1744 08b3 08000000 		.4byte	.LBB53
 1745 08b7 02000000 		.4byte	.LBE53-.LBB53
 1746 08bb 11       		.byte	0x11
 1747 08bc 7801     		.2byte	0x178
 1748 08be 29       		.uleb128 0x29
 1749 08bf 6E070000 		.4byte	0x76e
 1750 08c3 08000000 		.4byte	.LBB54
 1751 08c7 02000000 		.4byte	.LBE54-.LBB54
 1752 08cb 0B       		.byte	0xb
 1753 08cc 7501     		.2byte	0x175
 1754 08ce 00       		.byte	0
 1755 08cf 00       		.byte	0
 1756 08d0 25       		.uleb128 0x25
 1757 08d1 B1070000 		.4byte	0x7b1
 1758 08d5 0A000000 		.4byte	.LBB56
 1759 08d9 04000000 		.4byte	.LBE56-.LBB56
 1760 08dd 12       		.byte	0x12
 1761 08de FB       		.byte	0xfb
 1762 08df 03090000 		.4byte	0x903
 1763 08e3 2A       		.uleb128 0x2a
 1764 08e4 9C070000 		.4byte	0x79c
 1765 08e8 0A000000 		.4byte	.LBB57
 1766 08ec 04000000 		.4byte	.LBE57-.LBB57
 1767 08f0 12       		.byte	0x12
 1768 08f1 E9       		.byte	0xe9
ARM GAS  /tmp/cc2L2Wn2.s 			page 58


 1769 08f2 2B       		.uleb128 0x2b
 1770 08f3 7E070000 		.4byte	0x77e
 1771 08f7 0A000000 		.4byte	.LBB58
 1772 08fb 04000000 		.4byte	.LBE58-.LBB58
 1773 08ff 10       		.byte	0x10
 1774 0900 6B       		.byte	0x6b
 1775 0901 00       		.byte	0
 1776 0902 00       		.byte	0
 1777 0903 2A       		.uleb128 0x2a
 1778 0904 BD070000 		.4byte	0x7bd
 1779 0908 0E000000 		.4byte	.LBB60
 1780 090c 02000000 		.4byte	.LBE60-.LBB60
 1781 0910 12       		.byte	0x12
 1782 0911 FC       		.byte	0xfc
 1783 0912 26       		.uleb128 0x26
 1784 0913 0E000000 		.4byte	.LBB61
 1785 0917 02000000 		.4byte	.LBE61-.LBB61
 1786 091b 27       		.uleb128 0x27
 1787 091c CA070000 		.4byte	0x7ca
 1788 0920 28       		.uleb128 0x28
 1789 0921 93070000 		.4byte	0x793
 1790 0925 0E000000 		.4byte	.LBB62
 1791 0929 02000000 		.4byte	.LBE62-.LBB62
 1792 092d 11       		.byte	0x11
 1793 092e 8F01     		.2byte	0x18f
 1794 0930 29       		.uleb128 0x29
 1795 0931 76070000 		.4byte	0x776
 1796 0935 0E000000 		.4byte	.LBB63
 1797 0939 02000000 		.4byte	.LBE63-.LBB63
 1798 093d 0B       		.byte	0xb
 1799 093e 7E01     		.2byte	0x17e
 1800 0940 00       		.byte	0
 1801 0941 00       		.byte	0
 1802 0942 00       		.byte	0
 1803 0943 00       		.byte	0
 1804 0944 00       		.byte	0
 1805 0945 2C       		.uleb128 0x2c
 1806 0946 08000000 		.4byte	.LVL6
 1807 094a F00A0000 		.4byte	0xaf0
 1808 094e 2D       		.uleb128 0x2d
 1809 094f 01       		.uleb128 0x1
 1810 0950 50       		.byte	0x50
 1811 0951 01       		.uleb128 0x1
 1812 0952 31       		.byte	0x31
 1813 0953 00       		.byte	0
 1814 0954 00       		.byte	0
 1815 0955 2E       		.uleb128 0x2e
 1816 0956 636800   		.ascii	"ch\000"
 1817 0959 09       		.byte	0x9
 1818 095a D201     		.2byte	0x1d2
 1819 095c DC030000 		.4byte	0x3dc
 1820 0960 10       		.uleb128 0x10
 1821 0961 6B090000 		.4byte	0x96b
 1822 0965 6B090000 		.4byte	0x96b
 1823 0969 2F       		.uleb128 0x2f
 1824 096a 00       		.byte	0
 1825 096b 0A       		.uleb128 0xa
ARM GAS  /tmp/cc2L2Wn2.s 			page 59


 1826 096c 04       		.byte	0x4
 1827 096d 71090000 		.4byte	0x971
 1828 0971 17       		.uleb128 0x17
 1829 0972 63070000 		.4byte	0x763
 1830 0976 30       		.uleb128 0x30
 1831 0977 42000000 		.4byte	.LASF116
 1832 097b 13       		.byte	0x13
 1833 097c 19       		.byte	0x19
 1834 097d 81090000 		.4byte	0x981
 1835 0981 17       		.uleb128 0x17
 1836 0982 60090000 		.4byte	0x960
 1837 0986 30       		.uleb128 0x30
 1838 0987 75050000 		.4byte	.LASF117
 1839 098b 14       		.byte	0x14
 1840 098c 19       		.byte	0x19
 1841 098d 91090000 		.4byte	0x991
 1842 0991 17       		.uleb128 0x17
 1843 0992 60090000 		.4byte	0x960
 1844 0996 30       		.uleb128 0x30
 1845 0997 5D000000 		.4byte	.LASF118
 1846 099b 15       		.byte	0x15
 1847 099c 19       		.byte	0x19
 1848 099d A1090000 		.4byte	0x9a1
 1849 09a1 17       		.uleb128 0x17
 1850 09a2 60090000 		.4byte	0x960
 1851 09a6 30       		.uleb128 0x30
 1852 09a7 6F000000 		.4byte	.LASF119
 1853 09ab 16       		.byte	0x16
 1854 09ac 19       		.byte	0x19
 1855 09ad B1090000 		.4byte	0x9b1
 1856 09b1 17       		.uleb128 0x17
 1857 09b2 60090000 		.4byte	0x960
 1858 09b6 30       		.uleb128 0x30
 1859 09b7 81000000 		.4byte	.LASF120
 1860 09bb 17       		.byte	0x17
 1861 09bc 19       		.byte	0x19
 1862 09bd C1090000 		.4byte	0x9c1
 1863 09c1 17       		.uleb128 0x17
 1864 09c2 60090000 		.4byte	0x960
 1865 09c6 30       		.uleb128 0x30
 1866 09c7 93000000 		.4byte	.LASF121
 1867 09cb 18       		.byte	0x18
 1868 09cc 19       		.byte	0x19
 1869 09cd D1090000 		.4byte	0x9d1
 1870 09d1 17       		.uleb128 0x17
 1871 09d2 60090000 		.4byte	0x960
 1872 09d6 30       		.uleb128 0x30
 1873 09d7 87050000 		.4byte	.LASF122
 1874 09db 19       		.byte	0x19
 1875 09dc 19       		.byte	0x19
 1876 09dd E1090000 		.4byte	0x9e1
 1877 09e1 17       		.uleb128 0x17
 1878 09e2 60090000 		.4byte	0x960
 1879 09e6 30       		.uleb128 0x30
 1880 09e7 B0000000 		.4byte	.LASF123
 1881 09eb 1A       		.byte	0x1a
 1882 09ec 19       		.byte	0x19
ARM GAS  /tmp/cc2L2Wn2.s 			page 60


 1883 09ed F1090000 		.4byte	0x9f1
 1884 09f1 17       		.uleb128 0x17
 1885 09f2 60090000 		.4byte	0x960
 1886 09f6 30       		.uleb128 0x30
 1887 09f7 C2000000 		.4byte	.LASF124
 1888 09fb 1B       		.byte	0x1b
 1889 09fc 19       		.byte	0x19
 1890 09fd 010A0000 		.4byte	0xa01
 1891 0a01 17       		.uleb128 0x17
 1892 0a02 60090000 		.4byte	0x960
 1893 0a06 30       		.uleb128 0x30
 1894 0a07 45010000 		.4byte	.LASF125
 1895 0a0b 1C       		.byte	0x1c
 1896 0a0c 19       		.byte	0x19
 1897 0a0d 110A0000 		.4byte	0xa11
 1898 0a11 17       		.uleb128 0x17
 1899 0a12 60090000 		.4byte	0x960
 1900 0a16 30       		.uleb128 0x30
 1901 0a17 57010000 		.4byte	.LASF126
 1902 0a1b 1D       		.byte	0x1d
 1903 0a1c 19       		.byte	0x19
 1904 0a1d 210A0000 		.4byte	0xa21
 1905 0a21 17       		.uleb128 0x17
 1906 0a22 60090000 		.4byte	0x960
 1907 0a26 30       		.uleb128 0x30
 1908 0a27 69010000 		.4byte	.LASF127
 1909 0a2b 1E       		.byte	0x1e
 1910 0a2c 19       		.byte	0x19
 1911 0a2d 310A0000 		.4byte	0xa31
 1912 0a31 17       		.uleb128 0x17
 1913 0a32 60090000 		.4byte	0x960
 1914 0a36 10       		.uleb128 0x10
 1915 0a37 460A0000 		.4byte	0xa46
 1916 0a3b 460A0000 		.4byte	0xa46
 1917 0a3f 11       		.uleb128 0x11
 1918 0a40 29040000 		.4byte	0x429
 1919 0a44 0C       		.byte	0xc
 1920 0a45 00       		.byte	0
 1921 0a46 0A       		.uleb128 0xa
 1922 0a47 04       		.byte	0x4
 1923 0a48 4C0A0000 		.4byte	0xa4c
 1924 0a4c 17       		.uleb128 0x17
 1925 0a4d 6B090000 		.4byte	0x96b
 1926 0a51 31       		.uleb128 0x31
 1927 0a52 FD030000 		.4byte	.LASF128
 1928 0a56 01       		.byte	0x1
 1929 0a57 39       		.byte	0x39
 1930 0a58 360A0000 		.4byte	0xa36
 1931 0a5c 05       		.uleb128 0x5
 1932 0a5d 03       		.byte	0x3
 1933 0a5e 00000000 		.4byte	test_suite
 1934 0a62 10       		.uleb128 0x10
 1935 0a63 AD000000 		.4byte	0xad
 1936 0a67 730A0000 		.4byte	0xa73
 1937 0a6b 32       		.uleb128 0x32
 1938 0a6c 29040000 		.4byte	0x429
 1939 0a70 6706     		.2byte	0x667
ARM GAS  /tmp/cc2L2Wn2.s 			page 61


 1940 0a72 00       		.byte	0
 1941 0a73 31       		.uleb128 0x31
 1942 0a74 88030000 		.4byte	.LASF129
 1943 0a78 01       		.byte	0x1
 1944 0a79 60       		.byte	0x60
 1945 0a7a 620A0000 		.4byte	0xa62
 1946 0a7e 05       		.uleb128 0x5
 1947 0a7f 03       		.byte	0x3
 1948 0a80 00000000 		.4byte	test_buffer
 1949 0a84 10       		.uleb128 0x10
 1950 0a85 30020000 		.4byte	0x230
 1951 0a89 940A0000 		.4byte	0xa94
 1952 0a8d 11       		.uleb128 0x11
 1953 0a8e 29040000 		.4byte	0x429
 1954 0a92 04       		.byte	0x4
 1955 0a93 00       		.byte	0
 1956 0a94 31       		.uleb128 0x31
 1957 0a95 C9050000 		.4byte	.LASF130
 1958 0a99 01       		.byte	0x1
 1959 0a9a 65       		.byte	0x65
 1960 0a9b 840A0000 		.4byte	0xa84
 1961 0a9f 05       		.uleb128 0x5
 1962 0aa0 03       		.byte	0x3
 1963 0aa1 00000000 		.4byte	threads
 1964 0aa5 10       		.uleb128 0x10
 1965 0aa6 0D030000 		.4byte	0x30d
 1966 0aaa B50A0000 		.4byte	0xab5
 1967 0aae 11       		.uleb128 0x11
 1968 0aaf 29040000 		.4byte	0x429
 1969 0ab3 04       		.byte	0x4
 1970 0ab4 00       		.byte	0
 1971 0ab5 33       		.uleb128 0x33
 1972 0ab6 776100   		.ascii	"wa\000"
 1973 0ab9 01       		.byte	0x1
 1974 0aba 6A       		.byte	0x6a
 1975 0abb C50A0000 		.4byte	0xac5
 1976 0abf 05       		.uleb128 0x5
 1977 0ac0 03       		.byte	0x3
 1978 0ac1 00000000 		.4byte	wa
 1979 0ac5 17       		.uleb128 0x17
 1980 0ac6 A50A0000 		.4byte	0xaa5
 1981 0aca 34       		.uleb128 0x34
 1982 0acb 76040000 		.4byte	.LASF137
 1983 0acf 1F       		.byte	0x1f
 1984 0ad0 F7       		.byte	0xf7
 1985 0ad1 DB0A0000 		.4byte	0xadb
 1986 0ad5 0D       		.uleb128 0xd
 1987 0ad6 30020000 		.4byte	0x230
 1988 0ada 00       		.byte	0
 1989 0adb 35       		.uleb128 0x35
 1990 0adc 00050000 		.4byte	.LASF138
 1991 0ae0 1F       		.byte	0x1f
 1992 0ae1 F4       		.byte	0xf4
 1993 0ae2 10010000 		.4byte	0x110
 1994 0ae6 F00A0000 		.4byte	0xaf0
 1995 0aea 0D       		.uleb128 0xd
 1996 0aeb 30020000 		.4byte	0x230
ARM GAS  /tmp/cc2L2Wn2.s 			page 62


 1997 0aef 00       		.byte	0
 1998 0af0 36       		.uleb128 0x36
 1999 0af1 2A060000 		.4byte	.LASF139
 2000 0af5 1F       		.byte	0x1f
 2001 0af6 0001     		.2byte	0x100
 2002 0af8 0D       		.uleb128 0xd
 2003 0af9 31010000 		.4byte	0x131
 2004 0afd 00       		.byte	0
 2005 0afe 00       		.byte	0
 2006              		.section	.debug_abbrev,"",%progbits
 2007              	.Ldebug_abbrev0:
 2008 0000 01       		.uleb128 0x1
 2009 0001 11       		.uleb128 0x11
 2010 0002 01       		.byte	0x1
 2011 0003 25       		.uleb128 0x25
 2012 0004 0E       		.uleb128 0xe
 2013 0005 13       		.uleb128 0x13
 2014 0006 0B       		.uleb128 0xb
 2015 0007 03       		.uleb128 0x3
 2016 0008 0E       		.uleb128 0xe
 2017 0009 1B       		.uleb128 0x1b
 2018 000a 0E       		.uleb128 0xe
 2019 000b 55       		.uleb128 0x55
 2020 000c 17       		.uleb128 0x17
 2021 000d 11       		.uleb128 0x11
 2022 000e 01       		.uleb128 0x1
 2023 000f 10       		.uleb128 0x10
 2024 0010 17       		.uleb128 0x17
 2025 0011 00       		.byte	0
 2026 0012 00       		.byte	0
 2027 0013 02       		.uleb128 0x2
 2028 0014 24       		.uleb128 0x24
 2029 0015 00       		.byte	0
 2030 0016 0B       		.uleb128 0xb
 2031 0017 0B       		.uleb128 0xb
 2032 0018 3E       		.uleb128 0x3e
 2033 0019 0B       		.uleb128 0xb
 2034 001a 03       		.uleb128 0x3
 2035 001b 08       		.uleb128 0x8
 2036 001c 00       		.byte	0
 2037 001d 00       		.byte	0
 2038 001e 03       		.uleb128 0x3
 2039 001f 16       		.uleb128 0x16
 2040 0020 00       		.byte	0
 2041 0021 03       		.uleb128 0x3
 2042 0022 0E       		.uleb128 0xe
 2043 0023 3A       		.uleb128 0x3a
 2044 0024 0B       		.uleb128 0xb
 2045 0025 3B       		.uleb128 0x3b
 2046 0026 0B       		.uleb128 0xb
 2047 0027 49       		.uleb128 0x49
 2048 0028 13       		.uleb128 0x13
 2049 0029 00       		.byte	0
 2050 002a 00       		.byte	0
 2051 002b 04       		.uleb128 0x4
 2052 002c 24       		.uleb128 0x24
 2053 002d 00       		.byte	0
ARM GAS  /tmp/cc2L2Wn2.s 			page 63


 2054 002e 0B       		.uleb128 0xb
 2055 002f 0B       		.uleb128 0xb
 2056 0030 3E       		.uleb128 0x3e
 2057 0031 0B       		.uleb128 0xb
 2058 0032 03       		.uleb128 0x3
 2059 0033 0E       		.uleb128 0xe
 2060 0034 00       		.byte	0
 2061 0035 00       		.byte	0
 2062 0036 05       		.uleb128 0x5
 2063 0037 13       		.uleb128 0x13
 2064 0038 01       		.byte	0x1
 2065 0039 03       		.uleb128 0x3
 2066 003a 0E       		.uleb128 0xe
 2067 003b 0B       		.uleb128 0xb
 2068 003c 0B       		.uleb128 0xb
 2069 003d 3A       		.uleb128 0x3a
 2070 003e 0B       		.uleb128 0xb
 2071 003f 3B       		.uleb128 0x3b
 2072 0040 0B       		.uleb128 0xb
 2073 0041 01       		.uleb128 0x1
 2074 0042 13       		.uleb128 0x13
 2075 0043 00       		.byte	0
 2076 0044 00       		.byte	0
 2077 0045 06       		.uleb128 0x6
 2078 0046 0D       		.uleb128 0xd
 2079 0047 00       		.byte	0
 2080 0048 03       		.uleb128 0x3
 2081 0049 0E       		.uleb128 0xe
 2082 004a 3A       		.uleb128 0x3a
 2083 004b 0B       		.uleb128 0xb
 2084 004c 3B       		.uleb128 0x3b
 2085 004d 0B       		.uleb128 0xb
 2086 004e 49       		.uleb128 0x49
 2087 004f 13       		.uleb128 0x13
 2088 0050 38       		.uleb128 0x38
 2089 0051 0B       		.uleb128 0xb
 2090 0052 00       		.byte	0
 2091 0053 00       		.byte	0
 2092 0054 07       		.uleb128 0x7
 2093 0055 0D       		.uleb128 0xd
 2094 0056 00       		.byte	0
 2095 0057 03       		.uleb128 0x3
 2096 0058 08       		.uleb128 0x8
 2097 0059 3A       		.uleb128 0x3a
 2098 005a 0B       		.uleb128 0xb
 2099 005b 3B       		.uleb128 0x3b
 2100 005c 0B       		.uleb128 0xb
 2101 005d 49       		.uleb128 0x49
 2102 005e 13       		.uleb128 0x13
 2103 005f 38       		.uleb128 0x38
 2104 0060 0B       		.uleb128 0xb
 2105 0061 00       		.byte	0
 2106 0062 00       		.byte	0
 2107 0063 08       		.uleb128 0x8
 2108 0064 0D       		.uleb128 0xd
 2109 0065 00       		.byte	0
 2110 0066 03       		.uleb128 0x3
ARM GAS  /tmp/cc2L2Wn2.s 			page 64


 2111 0067 08       		.uleb128 0x8
 2112 0068 3A       		.uleb128 0x3a
 2113 0069 0B       		.uleb128 0xb
 2114 006a 3B       		.uleb128 0x3b
 2115 006b 05       		.uleb128 0x5
 2116 006c 49       		.uleb128 0x49
 2117 006d 13       		.uleb128 0x13
 2118 006e 38       		.uleb128 0x38
 2119 006f 0B       		.uleb128 0xb
 2120 0070 00       		.byte	0
 2121 0071 00       		.byte	0
 2122 0072 09       		.uleb128 0x9
 2123 0073 0D       		.uleb128 0xd
 2124 0074 00       		.byte	0
 2125 0075 03       		.uleb128 0x3
 2126 0076 0E       		.uleb128 0xe
 2127 0077 3A       		.uleb128 0x3a
 2128 0078 0B       		.uleb128 0xb
 2129 0079 3B       		.uleb128 0x3b
 2130 007a 05       		.uleb128 0x5
 2131 007b 49       		.uleb128 0x49
 2132 007c 13       		.uleb128 0x13
 2133 007d 38       		.uleb128 0x38
 2134 007e 0B       		.uleb128 0xb
 2135 007f 00       		.byte	0
 2136 0080 00       		.byte	0
 2137 0081 0A       		.uleb128 0xa
 2138 0082 0F       		.uleb128 0xf
 2139 0083 00       		.byte	0
 2140 0084 0B       		.uleb128 0xb
 2141 0085 0B       		.uleb128 0xb
 2142 0086 49       		.uleb128 0x49
 2143 0087 13       		.uleb128 0x13
 2144 0088 00       		.byte	0
 2145 0089 00       		.byte	0
 2146 008a 0B       		.uleb128 0xb
 2147 008b 13       		.uleb128 0x13
 2148 008c 01       		.byte	0x1
 2149 008d 03       		.uleb128 0x3
 2150 008e 0E       		.uleb128 0xe
 2151 008f 0B       		.uleb128 0xb
 2152 0090 0B       		.uleb128 0xb
 2153 0091 3A       		.uleb128 0x3a
 2154 0092 0B       		.uleb128 0xb
 2155 0093 3B       		.uleb128 0x3b
 2156 0094 05       		.uleb128 0x5
 2157 0095 01       		.uleb128 0x1
 2158 0096 13       		.uleb128 0x13
 2159 0097 00       		.byte	0
 2160 0098 00       		.byte	0
 2161 0099 0C       		.uleb128 0xc
 2162 009a 15       		.uleb128 0x15
 2163 009b 01       		.byte	0x1
 2164 009c 27       		.uleb128 0x27
 2165 009d 19       		.uleb128 0x19
 2166 009e 01       		.uleb128 0x1
 2167 009f 13       		.uleb128 0x13
ARM GAS  /tmp/cc2L2Wn2.s 			page 65


 2168 00a0 00       		.byte	0
 2169 00a1 00       		.byte	0
 2170 00a2 0D       		.uleb128 0xd
 2171 00a3 05       		.uleb128 0x5
 2172 00a4 00       		.byte	0
 2173 00a5 49       		.uleb128 0x49
 2174 00a6 13       		.uleb128 0x13
 2175 00a7 00       		.byte	0
 2176 00a8 00       		.byte	0
 2177 00a9 0E       		.uleb128 0xe
 2178 00aa 0F       		.uleb128 0xf
 2179 00ab 00       		.byte	0
 2180 00ac 0B       		.uleb128 0xb
 2181 00ad 0B       		.uleb128 0xb
 2182 00ae 00       		.byte	0
 2183 00af 00       		.byte	0
 2184 00b0 0F       		.uleb128 0xf
 2185 00b1 35       		.uleb128 0x35
 2186 00b2 00       		.byte	0
 2187 00b3 49       		.uleb128 0x49
 2188 00b4 13       		.uleb128 0x13
 2189 00b5 00       		.byte	0
 2190 00b6 00       		.byte	0
 2191 00b7 10       		.uleb128 0x10
 2192 00b8 01       		.uleb128 0x1
 2193 00b9 01       		.byte	0x1
 2194 00ba 49       		.uleb128 0x49
 2195 00bb 13       		.uleb128 0x13
 2196 00bc 01       		.uleb128 0x1
 2197 00bd 13       		.uleb128 0x13
 2198 00be 00       		.byte	0
 2199 00bf 00       		.byte	0
 2200 00c0 11       		.uleb128 0x11
 2201 00c1 21       		.uleb128 0x21
 2202 00c2 00       		.byte	0
 2203 00c3 49       		.uleb128 0x49
 2204 00c4 13       		.uleb128 0x13
 2205 00c5 2F       		.uleb128 0x2f
 2206 00c6 0B       		.uleb128 0xb
 2207 00c7 00       		.byte	0
 2208 00c8 00       		.byte	0
 2209 00c9 12       		.uleb128 0x12
 2210 00ca 13       		.uleb128 0x13
 2211 00cb 01       		.byte	0x1
 2212 00cc 0B       		.uleb128 0xb
 2213 00cd 0B       		.uleb128 0xb
 2214 00ce 3A       		.uleb128 0x3a
 2215 00cf 0B       		.uleb128 0xb
 2216 00d0 3B       		.uleb128 0x3b
 2217 00d1 05       		.uleb128 0x5
 2218 00d2 01       		.uleb128 0x1
 2219 00d3 13       		.uleb128 0x13
 2220 00d4 00       		.byte	0
 2221 00d5 00       		.byte	0
 2222 00d6 13       		.uleb128 0x13
 2223 00d7 16       		.uleb128 0x16
 2224 00d8 00       		.byte	0
ARM GAS  /tmp/cc2L2Wn2.s 			page 66


 2225 00d9 03       		.uleb128 0x3
 2226 00da 0E       		.uleb128 0xe
 2227 00db 3A       		.uleb128 0x3a
 2228 00dc 0B       		.uleb128 0xb
 2229 00dd 3B       		.uleb128 0x3b
 2230 00de 05       		.uleb128 0x5
 2231 00df 49       		.uleb128 0x49
 2232 00e0 13       		.uleb128 0x13
 2233 00e1 00       		.byte	0
 2234 00e2 00       		.byte	0
 2235 00e3 14       		.uleb128 0x14
 2236 00e4 17       		.uleb128 0x17
 2237 00e5 01       		.byte	0x1
 2238 00e6 0B       		.uleb128 0xb
 2239 00e7 0B       		.uleb128 0xb
 2240 00e8 3A       		.uleb128 0x3a
 2241 00e9 0B       		.uleb128 0xb
 2242 00ea 3B       		.uleb128 0x3b
 2243 00eb 0B       		.uleb128 0xb
 2244 00ec 01       		.uleb128 0x1
 2245 00ed 13       		.uleb128 0x13
 2246 00ee 00       		.byte	0
 2247 00ef 00       		.byte	0
 2248 00f0 15       		.uleb128 0x15
 2249 00f1 0D       		.uleb128 0xd
 2250 00f2 00       		.byte	0
 2251 00f3 03       		.uleb128 0x3
 2252 00f4 0E       		.uleb128 0xe
 2253 00f5 3A       		.uleb128 0x3a
 2254 00f6 0B       		.uleb128 0xb
 2255 00f7 3B       		.uleb128 0x3b
 2256 00f8 0B       		.uleb128 0xb
 2257 00f9 49       		.uleb128 0x49
 2258 00fa 13       		.uleb128 0x13
 2259 00fb 00       		.byte	0
 2260 00fc 00       		.byte	0
 2261 00fd 16       		.uleb128 0x16
 2262 00fe 0D       		.uleb128 0xd
 2263 00ff 00       		.byte	0
 2264 0100 03       		.uleb128 0x3
 2265 0101 0E       		.uleb128 0xe
 2266 0102 3A       		.uleb128 0x3a
 2267 0103 0B       		.uleb128 0xb
 2268 0104 3B       		.uleb128 0x3b
 2269 0105 05       		.uleb128 0x5
 2270 0106 49       		.uleb128 0x49
 2271 0107 13       		.uleb128 0x13
 2272 0108 00       		.byte	0
 2273 0109 00       		.byte	0
 2274 010a 17       		.uleb128 0x17
 2275 010b 26       		.uleb128 0x26
 2276 010c 00       		.byte	0
 2277 010d 49       		.uleb128 0x49
 2278 010e 13       		.uleb128 0x13
 2279 010f 00       		.byte	0
 2280 0110 00       		.byte	0
 2281 0111 18       		.uleb128 0x18
ARM GAS  /tmp/cc2L2Wn2.s 			page 67


 2282 0112 13       		.uleb128 0x13
 2283 0113 01       		.byte	0x1
 2284 0114 0B       		.uleb128 0xb
 2285 0115 0B       		.uleb128 0xb
 2286 0116 3A       		.uleb128 0x3a
 2287 0117 0B       		.uleb128 0xb
 2288 0118 3B       		.uleb128 0x3b
 2289 0119 0B       		.uleb128 0xb
 2290 011a 01       		.uleb128 0x1
 2291 011b 13       		.uleb128 0x13
 2292 011c 00       		.byte	0
 2293 011d 00       		.byte	0
 2294 011e 19       		.uleb128 0x19
 2295 011f 15       		.uleb128 0x15
 2296 0120 00       		.byte	0
 2297 0121 27       		.uleb128 0x27
 2298 0122 19       		.uleb128 0x19
 2299 0123 00       		.byte	0
 2300 0124 00       		.byte	0
 2301 0125 1A       		.uleb128 0x1a
 2302 0126 2E       		.uleb128 0x2e
 2303 0127 00       		.byte	0
 2304 0128 03       		.uleb128 0x3
 2305 0129 0E       		.uleb128 0xe
 2306 012a 3A       		.uleb128 0x3a
 2307 012b 0B       		.uleb128 0xb
 2308 012c 3B       		.uleb128 0x3b
 2309 012d 0B       		.uleb128 0xb
 2310 012e 27       		.uleb128 0x27
 2311 012f 19       		.uleb128 0x19
 2312 0130 20       		.uleb128 0x20
 2313 0131 0B       		.uleb128 0xb
 2314 0132 00       		.byte	0
 2315 0133 00       		.byte	0
 2316 0134 1B       		.uleb128 0x1b
 2317 0135 2E       		.uleb128 0x2e
 2318 0136 00       		.byte	0
 2319 0137 03       		.uleb128 0x3
 2320 0138 0E       		.uleb128 0xe
 2321 0139 3A       		.uleb128 0x3a
 2322 013a 0B       		.uleb128 0xb
 2323 013b 3B       		.uleb128 0x3b
 2324 013c 0B       		.uleb128 0xb
 2325 013d 27       		.uleb128 0x27
 2326 013e 19       		.uleb128 0x19
 2327 013f 49       		.uleb128 0x49
 2328 0140 13       		.uleb128 0x13
 2329 0141 20       		.uleb128 0x20
 2330 0142 0B       		.uleb128 0xb
 2331 0143 00       		.byte	0
 2332 0144 00       		.byte	0
 2333 0145 1C       		.uleb128 0x1c
 2334 0146 2E       		.uleb128 0x2e
 2335 0147 00       		.byte	0
 2336 0148 03       		.uleb128 0x3
 2337 0149 0E       		.uleb128 0xe
 2338 014a 3A       		.uleb128 0x3a
ARM GAS  /tmp/cc2L2Wn2.s 			page 68


 2339 014b 0B       		.uleb128 0xb
 2340 014c 3B       		.uleb128 0x3b
 2341 014d 05       		.uleb128 0x5
 2342 014e 27       		.uleb128 0x27
 2343 014f 19       		.uleb128 0x19
 2344 0150 20       		.uleb128 0x20
 2345 0151 0B       		.uleb128 0xb
 2346 0152 00       		.byte	0
 2347 0153 00       		.byte	0
 2348 0154 1D       		.uleb128 0x1d
 2349 0155 2E       		.uleb128 0x2e
 2350 0156 01       		.byte	0x1
 2351 0157 03       		.uleb128 0x3
 2352 0158 0E       		.uleb128 0xe
 2353 0159 3A       		.uleb128 0x3a
 2354 015a 0B       		.uleb128 0xb
 2355 015b 3B       		.uleb128 0x3b
 2356 015c 05       		.uleb128 0x5
 2357 015d 27       		.uleb128 0x27
 2358 015e 19       		.uleb128 0x19
 2359 015f 20       		.uleb128 0x20
 2360 0160 0B       		.uleb128 0xb
 2361 0161 01       		.uleb128 0x1
 2362 0162 13       		.uleb128 0x13
 2363 0163 00       		.byte	0
 2364 0164 00       		.byte	0
 2365 0165 1E       		.uleb128 0x1e
 2366 0166 34       		.uleb128 0x34
 2367 0167 00       		.byte	0
 2368 0168 03       		.uleb128 0x3
 2369 0169 0E       		.uleb128 0xe
 2370 016a 49       		.uleb128 0x49
 2371 016b 13       		.uleb128 0x13
 2372 016c 34       		.uleb128 0x34
 2373 016d 19       		.uleb128 0x19
 2374 016e 1C       		.uleb128 0x1c
 2375 016f 0E       		.uleb128 0xe
 2376 0170 00       		.byte	0
 2377 0171 00       		.byte	0
 2378 0172 1F       		.uleb128 0x1f
 2379 0173 2E       		.uleb128 0x2e
 2380 0174 01       		.byte	0x1
 2381 0175 03       		.uleb128 0x3
 2382 0176 0E       		.uleb128 0xe
 2383 0177 3A       		.uleb128 0x3a
 2384 0178 0B       		.uleb128 0xb
 2385 0179 3B       		.uleb128 0x3b
 2386 017a 0B       		.uleb128 0xb
 2387 017b 27       		.uleb128 0x27
 2388 017c 19       		.uleb128 0x19
 2389 017d 49       		.uleb128 0x49
 2390 017e 13       		.uleb128 0x13
 2391 017f 20       		.uleb128 0x20
 2392 0180 0B       		.uleb128 0xb
 2393 0181 01       		.uleb128 0x1
 2394 0182 13       		.uleb128 0x13
 2395 0183 00       		.byte	0
ARM GAS  /tmp/cc2L2Wn2.s 			page 69


 2396 0184 00       		.byte	0
 2397 0185 20       		.uleb128 0x20
 2398 0186 34       		.uleb128 0x34
 2399 0187 00       		.byte	0
 2400 0188 03       		.uleb128 0x3
 2401 0189 0E       		.uleb128 0xe
 2402 018a 3A       		.uleb128 0x3a
 2403 018b 0B       		.uleb128 0xb
 2404 018c 3B       		.uleb128 0x3b
 2405 018d 0B       		.uleb128 0xb
 2406 018e 49       		.uleb128 0x49
 2407 018f 13       		.uleb128 0x13
 2408 0190 00       		.byte	0
 2409 0191 00       		.byte	0
 2410 0192 21       		.uleb128 0x21
 2411 0193 2E       		.uleb128 0x2e
 2412 0194 01       		.byte	0x1
 2413 0195 3F       		.uleb128 0x3f
 2414 0196 19       		.uleb128 0x19
 2415 0197 03       		.uleb128 0x3
 2416 0198 0E       		.uleb128 0xe
 2417 0199 3A       		.uleb128 0x3a
 2418 019a 0B       		.uleb128 0xb
 2419 019b 3B       		.uleb128 0x3b
 2420 019c 0B       		.uleb128 0xb
 2421 019d 27       		.uleb128 0x27
 2422 019e 19       		.uleb128 0x19
 2423 019f 11       		.uleb128 0x11
 2424 01a0 01       		.uleb128 0x1
 2425 01a1 12       		.uleb128 0x12
 2426 01a2 06       		.uleb128 0x6
 2427 01a3 40       		.uleb128 0x40
 2428 01a4 18       		.uleb128 0x18
 2429 01a5 9742     		.uleb128 0x2117
 2430 01a7 19       		.uleb128 0x19
 2431 01a8 01       		.uleb128 0x1
 2432 01a9 13       		.uleb128 0x13
 2433 01aa 00       		.byte	0
 2434 01ab 00       		.byte	0
 2435 01ac 22       		.uleb128 0x22
 2436 01ad 34       		.uleb128 0x34
 2437 01ae 00       		.byte	0
 2438 01af 03       		.uleb128 0x3
 2439 01b0 08       		.uleb128 0x8
 2440 01b1 3A       		.uleb128 0x3a
 2441 01b2 0B       		.uleb128 0xb
 2442 01b3 3B       		.uleb128 0x3b
 2443 01b4 0B       		.uleb128 0xb
 2444 01b5 49       		.uleb128 0x49
 2445 01b6 13       		.uleb128 0x13
 2446 01b7 02       		.uleb128 0x2
 2447 01b8 17       		.uleb128 0x17
 2448 01b9 00       		.byte	0
 2449 01ba 00       		.byte	0
 2450 01bb 23       		.uleb128 0x23
 2451 01bc 898201   		.uleb128 0x4109
 2452 01bf 00       		.byte	0
ARM GAS  /tmp/cc2L2Wn2.s 			page 70


 2453 01c0 11       		.uleb128 0x11
 2454 01c1 01       		.uleb128 0x1
 2455 01c2 31       		.uleb128 0x31
 2456 01c3 13       		.uleb128 0x13
 2457 01c4 00       		.byte	0
 2458 01c5 00       		.byte	0
 2459 01c6 24       		.uleb128 0x24
 2460 01c7 2E       		.uleb128 0x2e
 2461 01c8 01       		.byte	0x1
 2462 01c9 3F       		.uleb128 0x3f
 2463 01ca 19       		.uleb128 0x19
 2464 01cb 03       		.uleb128 0x3
 2465 01cc 0E       		.uleb128 0xe
 2466 01cd 3A       		.uleb128 0x3a
 2467 01ce 0B       		.uleb128 0xb
 2468 01cf 3B       		.uleb128 0x3b
 2469 01d0 0B       		.uleb128 0xb
 2470 01d1 27       		.uleb128 0x27
 2471 01d2 19       		.uleb128 0x19
 2472 01d3 49       		.uleb128 0x49
 2473 01d4 13       		.uleb128 0x13
 2474 01d5 11       		.uleb128 0x11
 2475 01d6 01       		.uleb128 0x1
 2476 01d7 12       		.uleb128 0x12
 2477 01d8 06       		.uleb128 0x6
 2478 01d9 40       		.uleb128 0x40
 2479 01da 18       		.uleb128 0x18
 2480 01db 9742     		.uleb128 0x2117
 2481 01dd 19       		.uleb128 0x19
 2482 01de 01       		.uleb128 0x1
 2483 01df 13       		.uleb128 0x13
 2484 01e0 00       		.byte	0
 2485 01e1 00       		.byte	0
 2486 01e2 25       		.uleb128 0x25
 2487 01e3 1D       		.uleb128 0x1d
 2488 01e4 01       		.byte	0x1
 2489 01e5 31       		.uleb128 0x31
 2490 01e6 13       		.uleb128 0x13
 2491 01e7 11       		.uleb128 0x11
 2492 01e8 01       		.uleb128 0x1
 2493 01e9 12       		.uleb128 0x12
 2494 01ea 06       		.uleb128 0x6
 2495 01eb 58       		.uleb128 0x58
 2496 01ec 0B       		.uleb128 0xb
 2497 01ed 59       		.uleb128 0x59
 2498 01ee 0B       		.uleb128 0xb
 2499 01ef 01       		.uleb128 0x1
 2500 01f0 13       		.uleb128 0x13
 2501 01f1 00       		.byte	0
 2502 01f2 00       		.byte	0
 2503 01f3 26       		.uleb128 0x26
 2504 01f4 0B       		.uleb128 0xb
 2505 01f5 01       		.byte	0x1
 2506 01f6 11       		.uleb128 0x11
 2507 01f7 01       		.uleb128 0x1
 2508 01f8 12       		.uleb128 0x12
 2509 01f9 06       		.uleb128 0x6
ARM GAS  /tmp/cc2L2Wn2.s 			page 71


 2510 01fa 00       		.byte	0
 2511 01fb 00       		.byte	0
 2512 01fc 27       		.uleb128 0x27
 2513 01fd 34       		.uleb128 0x34
 2514 01fe 00       		.byte	0
 2515 01ff 31       		.uleb128 0x31
 2516 0200 13       		.uleb128 0x13
 2517 0201 00       		.byte	0
 2518 0202 00       		.byte	0
 2519 0203 28       		.uleb128 0x28
 2520 0204 1D       		.uleb128 0x1d
 2521 0205 01       		.byte	0x1
 2522 0206 31       		.uleb128 0x31
 2523 0207 13       		.uleb128 0x13
 2524 0208 11       		.uleb128 0x11
 2525 0209 01       		.uleb128 0x1
 2526 020a 12       		.uleb128 0x12
 2527 020b 06       		.uleb128 0x6
 2528 020c 58       		.uleb128 0x58
 2529 020d 0B       		.uleb128 0xb
 2530 020e 59       		.uleb128 0x59
 2531 020f 05       		.uleb128 0x5
 2532 0210 00       		.byte	0
 2533 0211 00       		.byte	0
 2534 0212 29       		.uleb128 0x29
 2535 0213 1D       		.uleb128 0x1d
 2536 0214 00       		.byte	0
 2537 0215 31       		.uleb128 0x31
 2538 0216 13       		.uleb128 0x13
 2539 0217 11       		.uleb128 0x11
 2540 0218 01       		.uleb128 0x1
 2541 0219 12       		.uleb128 0x12
 2542 021a 06       		.uleb128 0x6
 2543 021b 58       		.uleb128 0x58
 2544 021c 0B       		.uleb128 0xb
 2545 021d 59       		.uleb128 0x59
 2546 021e 05       		.uleb128 0x5
 2547 021f 00       		.byte	0
 2548 0220 00       		.byte	0
 2549 0221 2A       		.uleb128 0x2a
 2550 0222 1D       		.uleb128 0x1d
 2551 0223 01       		.byte	0x1
 2552 0224 31       		.uleb128 0x31
 2553 0225 13       		.uleb128 0x13
 2554 0226 11       		.uleb128 0x11
 2555 0227 01       		.uleb128 0x1
 2556 0228 12       		.uleb128 0x12
 2557 0229 06       		.uleb128 0x6
 2558 022a 58       		.uleb128 0x58
 2559 022b 0B       		.uleb128 0xb
 2560 022c 59       		.uleb128 0x59
 2561 022d 0B       		.uleb128 0xb
 2562 022e 00       		.byte	0
 2563 022f 00       		.byte	0
 2564 0230 2B       		.uleb128 0x2b
 2565 0231 1D       		.uleb128 0x1d
 2566 0232 00       		.byte	0
ARM GAS  /tmp/cc2L2Wn2.s 			page 72


 2567 0233 31       		.uleb128 0x31
 2568 0234 13       		.uleb128 0x13
 2569 0235 11       		.uleb128 0x11
 2570 0236 01       		.uleb128 0x1
 2571 0237 12       		.uleb128 0x12
 2572 0238 06       		.uleb128 0x6
 2573 0239 58       		.uleb128 0x58
 2574 023a 0B       		.uleb128 0xb
 2575 023b 59       		.uleb128 0x59
 2576 023c 0B       		.uleb128 0xb
 2577 023d 00       		.byte	0
 2578 023e 00       		.byte	0
 2579 023f 2C       		.uleb128 0x2c
 2580 0240 898201   		.uleb128 0x4109
 2581 0243 01       		.byte	0x1
 2582 0244 11       		.uleb128 0x11
 2583 0245 01       		.uleb128 0x1
 2584 0246 31       		.uleb128 0x31
 2585 0247 13       		.uleb128 0x13
 2586 0248 00       		.byte	0
 2587 0249 00       		.byte	0
 2588 024a 2D       		.uleb128 0x2d
 2589 024b 8A8201   		.uleb128 0x410a
 2590 024e 00       		.byte	0
 2591 024f 02       		.uleb128 0x2
 2592 0250 18       		.uleb128 0x18
 2593 0251 9142     		.uleb128 0x2111
 2594 0253 18       		.uleb128 0x18
 2595 0254 00       		.byte	0
 2596 0255 00       		.byte	0
 2597 0256 2E       		.uleb128 0x2e
 2598 0257 34       		.uleb128 0x34
 2599 0258 00       		.byte	0
 2600 0259 03       		.uleb128 0x3
 2601 025a 08       		.uleb128 0x8
 2602 025b 3A       		.uleb128 0x3a
 2603 025c 0B       		.uleb128 0xb
 2604 025d 3B       		.uleb128 0x3b
 2605 025e 05       		.uleb128 0x5
 2606 025f 49       		.uleb128 0x49
 2607 0260 13       		.uleb128 0x13
 2608 0261 3F       		.uleb128 0x3f
 2609 0262 19       		.uleb128 0x19
 2610 0263 3C       		.uleb128 0x3c
 2611 0264 19       		.uleb128 0x19
 2612 0265 00       		.byte	0
 2613 0266 00       		.byte	0
 2614 0267 2F       		.uleb128 0x2f
 2615 0268 21       		.uleb128 0x21
 2616 0269 00       		.byte	0
 2617 026a 00       		.byte	0
 2618 026b 00       		.byte	0
 2619 026c 30       		.uleb128 0x30
 2620 026d 34       		.uleb128 0x34
 2621 026e 00       		.byte	0
 2622 026f 03       		.uleb128 0x3
 2623 0270 0E       		.uleb128 0xe
ARM GAS  /tmp/cc2L2Wn2.s 			page 73


 2624 0271 3A       		.uleb128 0x3a
 2625 0272 0B       		.uleb128 0xb
 2626 0273 3B       		.uleb128 0x3b
 2627 0274 0B       		.uleb128 0xb
 2628 0275 49       		.uleb128 0x49
 2629 0276 13       		.uleb128 0x13
 2630 0277 3F       		.uleb128 0x3f
 2631 0278 19       		.uleb128 0x19
 2632 0279 3C       		.uleb128 0x3c
 2633 027a 19       		.uleb128 0x19
 2634 027b 00       		.byte	0
 2635 027c 00       		.byte	0
 2636 027d 31       		.uleb128 0x31
 2637 027e 34       		.uleb128 0x34
 2638 027f 00       		.byte	0
 2639 0280 03       		.uleb128 0x3
 2640 0281 0E       		.uleb128 0xe
 2641 0282 3A       		.uleb128 0x3a
 2642 0283 0B       		.uleb128 0xb
 2643 0284 3B       		.uleb128 0x3b
 2644 0285 0B       		.uleb128 0xb
 2645 0286 49       		.uleb128 0x49
 2646 0287 13       		.uleb128 0x13
 2647 0288 3F       		.uleb128 0x3f
 2648 0289 19       		.uleb128 0x19
 2649 028a 02       		.uleb128 0x2
 2650 028b 18       		.uleb128 0x18
 2651 028c 00       		.byte	0
 2652 028d 00       		.byte	0
 2653 028e 32       		.uleb128 0x32
 2654 028f 21       		.uleb128 0x21
 2655 0290 00       		.byte	0
 2656 0291 49       		.uleb128 0x49
 2657 0292 13       		.uleb128 0x13
 2658 0293 2F       		.uleb128 0x2f
 2659 0294 05       		.uleb128 0x5
 2660 0295 00       		.byte	0
 2661 0296 00       		.byte	0
 2662 0297 33       		.uleb128 0x33
 2663 0298 34       		.uleb128 0x34
 2664 0299 00       		.byte	0
 2665 029a 03       		.uleb128 0x3
 2666 029b 08       		.uleb128 0x8
 2667 029c 3A       		.uleb128 0x3a
 2668 029d 0B       		.uleb128 0xb
 2669 029e 3B       		.uleb128 0x3b
 2670 029f 0B       		.uleb128 0xb
 2671 02a0 49       		.uleb128 0x49
 2672 02a1 13       		.uleb128 0x13
 2673 02a2 3F       		.uleb128 0x3f
 2674 02a3 19       		.uleb128 0x19
 2675 02a4 02       		.uleb128 0x2
 2676 02a5 18       		.uleb128 0x18
 2677 02a6 00       		.byte	0
 2678 02a7 00       		.byte	0
 2679 02a8 34       		.uleb128 0x34
 2680 02a9 2E       		.uleb128 0x2e
ARM GAS  /tmp/cc2L2Wn2.s 			page 74


 2681 02aa 01       		.byte	0x1
 2682 02ab 3F       		.uleb128 0x3f
 2683 02ac 19       		.uleb128 0x19
 2684 02ad 03       		.uleb128 0x3
 2685 02ae 0E       		.uleb128 0xe
 2686 02af 3A       		.uleb128 0x3a
 2687 02b0 0B       		.uleb128 0xb
 2688 02b1 3B       		.uleb128 0x3b
 2689 02b2 0B       		.uleb128 0xb
 2690 02b3 27       		.uleb128 0x27
 2691 02b4 19       		.uleb128 0x19
 2692 02b5 3C       		.uleb128 0x3c
 2693 02b6 19       		.uleb128 0x19
 2694 02b7 01       		.uleb128 0x1
 2695 02b8 13       		.uleb128 0x13
 2696 02b9 00       		.byte	0
 2697 02ba 00       		.byte	0
 2698 02bb 35       		.uleb128 0x35
 2699 02bc 2E       		.uleb128 0x2e
 2700 02bd 01       		.byte	0x1
 2701 02be 3F       		.uleb128 0x3f
 2702 02bf 19       		.uleb128 0x19
 2703 02c0 03       		.uleb128 0x3
 2704 02c1 0E       		.uleb128 0xe
 2705 02c2 3A       		.uleb128 0x3a
 2706 02c3 0B       		.uleb128 0xb
 2707 02c4 3B       		.uleb128 0x3b
 2708 02c5 0B       		.uleb128 0xb
 2709 02c6 27       		.uleb128 0x27
 2710 02c7 19       		.uleb128 0x19
 2711 02c8 49       		.uleb128 0x49
 2712 02c9 13       		.uleb128 0x13
 2713 02ca 3C       		.uleb128 0x3c
 2714 02cb 19       		.uleb128 0x19
 2715 02cc 01       		.uleb128 0x1
 2716 02cd 13       		.uleb128 0x13
 2717 02ce 00       		.byte	0
 2718 02cf 00       		.byte	0
 2719 02d0 36       		.uleb128 0x36
 2720 02d1 2E       		.uleb128 0x2e
 2721 02d2 01       		.byte	0x1
 2722 02d3 3F       		.uleb128 0x3f
 2723 02d4 19       		.uleb128 0x19
 2724 02d5 03       		.uleb128 0x3
 2725 02d6 0E       		.uleb128 0xe
 2726 02d7 3A       		.uleb128 0x3a
 2727 02d8 0B       		.uleb128 0xb
 2728 02d9 3B       		.uleb128 0x3b
 2729 02da 05       		.uleb128 0x5
 2730 02db 27       		.uleb128 0x27
 2731 02dc 19       		.uleb128 0x19
 2732 02dd 3C       		.uleb128 0x3c
 2733 02de 19       		.uleb128 0x19
 2734 02df 00       		.byte	0
 2735 02e0 00       		.byte	0
 2736 02e1 00       		.byte	0
 2737              		.section	.debug_loc,"",%progbits
ARM GAS  /tmp/cc2L2Wn2.s 			page 75


 2738              	.Ldebug_loc0:
 2739              	.LLST0:
 2740 0000 00000000 		.4byte	.LVL0
 2741 0004 08000000 		.4byte	.LVL1
 2742 0008 0200     		.2byte	0x2
 2743 000a 30       		.byte	0x30
 2744 000b 9F       		.byte	0x9f
 2745 000c 00000000 		.4byte	0
 2746 0010 00000000 		.4byte	0
 2747              	.LLST1:
 2748 0014 00000000 		.4byte	.LVL3
 2749 0018 0A000000 		.4byte	.LVL4
 2750 001c 0200     		.2byte	0x2
 2751 001e 30       		.byte	0x30
 2752 001f 9F       		.byte	0x9f
 2753 0020 00000000 		.4byte	0
 2754 0024 00000000 		.4byte	0
 2755              		.section	.debug_aranges,"",%progbits
 2756 0000 2C000000 		.4byte	0x2c
 2757 0004 0200     		.2byte	0x2
 2758 0006 00000000 		.4byte	.Ldebug_info0
 2759 000a 04       		.byte	0x4
 2760 000b 00       		.byte	0
 2761 000c 0000     		.2byte	0
 2762 000e 0000     		.2byte	0
 2763 0010 00000000 		.4byte	.LFB179
 2764 0014 20000000 		.4byte	.LFE179-.LFB179
 2765 0018 00000000 		.4byte	.LFB180
 2766 001c 24000000 		.4byte	.LFE180-.LFB180
 2767 0020 00000000 		.4byte	.LFB181
 2768 0024 18000000 		.4byte	.LFE181-.LFB181
 2769 0028 00000000 		.4byte	0
 2770 002c 00000000 		.4byte	0
 2771              		.section	.debug_ranges,"",%progbits
 2772              	.Ldebug_ranges0:
 2773 0000 00000000 		.4byte	.LFB179
 2774 0004 20000000 		.4byte	.LFE179
 2775 0008 00000000 		.4byte	.LFB180
 2776 000c 24000000 		.4byte	.LFE180
 2777 0010 00000000 		.4byte	.LFB181
 2778 0014 18000000 		.4byte	.LFE181
 2779 0018 00000000 		.4byte	0
 2780 001c 00000000 		.4byte	0
 2781              		.section	.debug_line,"",%progbits
 2782              	.Ldebug_line0:
 2783 0000 BE030000 		.section	.debug_str,"MS",%progbits,1
 2783      02006403 
 2783      00000201 
 2783      FB0E0D00 
 2783      01010101 
 2784              	.LASF47:
 2785 0000 63685F74 		.ascii	"ch_threads_list\000"
 2785      68726561 
 2785      64735F6C 
 2785      69737400 
 2786              	.LASF115:
 2787 0010 74657374 		.ascii	"test_wait_threads\000"
ARM GAS  /tmp/cc2L2Wn2.s 			page 76


 2787      5F776169 
 2787      745F7468 
 2787      72656164 
 2787      7300
 2788              	.LASF92:
 2789 0022 77746D74 		.ascii	"wtmtxp\000"
 2789      787000
 2790              	.LASF72:
 2791 0029 72656761 		.ascii	"regarm_t\000"
 2791      726D5F74 
 2791      00
 2792              	.LASF36:
 2793 0032 666C6167 		.ascii	"flags\000"
 2793      7300
 2794              	.LASF27:
 2795 0038 73797374 		.ascii	"systime_t\000"
 2795      696D655F 
 2795      7400
 2796              	.LASF116:
 2797 0042 74657374 		.ascii	"test_sequence_001\000"
 2797      5F736571 
 2797      75656E63 
 2797      655F3030 
 2797      3100
 2798              	.LASF42:
 2799 0054 7265616C 		.ascii	"realprio\000"
 2799      7072696F 
 2799      00
 2800              	.LASF118:
 2801 005d 74657374 		.ascii	"test_sequence_003\000"
 2801      5F736571 
 2801      75656E63 
 2801      655F3030 
 2801      3300
 2802              	.LASF119:
 2803 006f 74657374 		.ascii	"test_sequence_004\000"
 2803      5F736571 
 2803      75656E63 
 2803      655F3030 
 2803      3400
 2804              	.LASF120:
 2805 0081 74657374 		.ascii	"test_sequence_005\000"
 2805      5F736571 
 2805      75656E63 
 2805      655F3030 
 2805      3500
 2806              	.LASF121:
 2807 0093 74657374 		.ascii	"test_sequence_006\000"
 2807      5F736571 
 2807      75656E63 
 2807      655F3030 
 2807      3600
 2808              	.LASF103:
 2809 00a5 74657374 		.ascii	"testcase_t\000"
 2809      63617365 
 2809      5F7400
 2810              	.LASF123:
ARM GAS  /tmp/cc2L2Wn2.s 			page 77


 2811 00b0 74657374 		.ascii	"test_sequence_008\000"
 2811      5F736571 
 2811      75656E63 
 2811      655F3030 
 2811      3800
 2812              	.LASF124:
 2813 00c2 74657374 		.ascii	"test_sequence_009\000"
 2813      5F736571 
 2813      75656E63 
 2813      655F3030 
 2813      3900
 2814              	.LASF40:
 2815 00d4 6570656E 		.ascii	"epending\000"
 2815      64696E67 
 2815      00
 2816              	.LASF0:
 2817 00dd 756E7369 		.ascii	"unsigned int\000"
 2817      676E6564 
 2817      20696E74 
 2817      00
 2818              	.LASF48:
 2819 00ea 6E657874 		.ascii	"next\000"
 2819      00
 2820              	.LASF111:
 2821 00ef 63685654 		.ascii	"chVTGetSystemTimeX\000"
 2821      47657453 
 2821      79737465 
 2821      6D54696D 
 2821      655800
 2822              	.LASF45:
 2823 0102 74687265 		.ascii	"threads_list_t\000"
 2823      6164735F 
 2823      6C697374 
 2823      5F7400
 2824              	.LASF8:
 2825 0111 5F5F696E 		.ascii	"__int32_t\000"
 2825      7433325F 
 2825      7400
 2826              	.LASF37:
 2827 011b 72656673 		.ascii	"refs\000"
 2827      00
 2828              	.LASF88:
 2829 0120 77746F62 		.ascii	"wtobjp\000"
 2829      6A7000
 2830              	.LASF106:
 2831 0127 706F7274 		.ascii	"port_lock\000"
 2831      5F6C6F63 
 2831      6B00
 2832              	.LASF69:
 2833 0131 76746C69 		.ascii	"vtlist\000"
 2833      737400
 2834              	.LASF74:
 2835 0138 706F7274 		.ascii	"port_context\000"
 2835      5F636F6E 
 2835      74657874 
 2835      00
 2836              	.LASF125:
ARM GAS  /tmp/cc2L2Wn2.s 			page 78


 2837 0145 74657374 		.ascii	"test_sequence_010\000"
 2837      5F736571 
 2837      75656E63 
 2837      655F3031 
 2837      3000
 2838              	.LASF126:
 2839 0157 74657374 		.ascii	"test_sequence_011\000"
 2839      5F736571 
 2839      75656E63 
 2839      655F3031 
 2839      3100
 2840              	.LASF127:
 2841 0169 74657374 		.ascii	"test_sequence_012\000"
 2841      5F736571 
 2841      75656E63 
 2841      655F3031 
 2841      3200
 2842              	.LASF53:
 2843 017b 63685F72 		.ascii	"ch_ready_list\000"
 2843      65616479 
 2843      5F6C6973 
 2843      7400
 2844              	.LASF59:
 2845 0189 66756E63 		.ascii	"func\000"
 2845      00
 2846              	.LASF93:
 2847 018e 65776D61 		.ascii	"ewmask\000"
 2847      736B00
 2848              	.LASF51:
 2849 0195 70726576 		.ascii	"prev\000"
 2849      00
 2850              	.LASF50:
 2851 019a 63685F74 		.ascii	"ch_threads_queue\000"
 2851      68726561 
 2851      64735F71 
 2851      75657565 
 2851      00
 2852              	.LASF82:
 2853 01ab 444D4152 		.ascii	"DMAR\000"
 2853      00
 2854              	.LASF55:
 2855 01b0 76746675 		.ascii	"vtfunc_t\000"
 2855      6E635F74 
 2855      00
 2856              	.LASF64:
 2857 01b9 63685F73 		.ascii	"ch_system_debug\000"
 2857      79737465 
 2857      6D5F6465 
 2857      62756700 
 2858              	.LASF131:
 2859 01c9 474E5520 		.ascii	"GNU C 4.8.3 -mcpu=cortex-m0 -mno-thumb-interwork -m"
 2859      4320342E 
 2859      382E3320 
 2859      2D6D6370 
 2859      753D636F 
 2860 01fc 7468756D 		.ascii	"thumb -ggdb -O2 -fomit-frame-pointer -falign-functi"
 2860      62202D67 
ARM GAS  /tmp/cc2L2Wn2.s 			page 79


 2860      67646220 
 2860      2D4F3220 
 2860      2D666F6D 
 2861 022f 6F6E733D 		.ascii	"ons=16 -ffunction-sections -fdata-sections -fno-com"
 2861      3136202D 
 2861      6666756E 
 2861      6374696F 
 2861      6E2D7365 
 2862 0262 6D6F6E20 		.ascii	"mon -flto\000"
 2862      2D666C74 
 2862      6F00
 2863              	.LASF18:
 2864 026c 75696E74 		.ascii	"uint32_t\000"
 2864      33325F74 
 2864      00
 2865              	.LASF90:
 2866 0275 73656E74 		.ascii	"sentmsg\000"
 2866      6D736700 
 2867              	.LASF25:
 2868 027d 6576656E 		.ascii	"eventmask_t\000"
 2868      746D6173 
 2868      6B5F7400 
 2869              	.LASF81:
 2870 0289 42445452 		.ascii	"BDTR\000"
 2870      00
 2871              	.LASF94:
 2872 028e 63685F73 		.ascii	"ch_semaphore\000"
 2872      656D6170 
 2872      686F7265 
 2872      00
 2873              	.LASF23:
 2874 029b 74707269 		.ascii	"tprio_t\000"
 2874      6F5F7400 
 2875              	.LASF57:
 2876 02a3 63685F76 		.ascii	"ch_virtual_timer\000"
 2876      69727475 
 2876      616C5F74 
 2876      696D6572 
 2876      00
 2877              	.LASF78:
 2878 02b4 43434D52 		.ascii	"CCMR1\000"
 2878      3100
 2879              	.LASF79:
 2880 02ba 43434D52 		.ascii	"CCMR2\000"
 2880      3200
 2881              	.LASF83:
 2882 02c0 43434D52 		.ascii	"CCMR3\000"
 2882      3300
 2883              	.LASF136:
 2884 02c6 74657374 		.ascii	"test_wait_tick\000"
 2884      5F776169 
 2884      745F7469 
 2884      636B00
 2885              	.LASF14:
 2886 02d5 6C6F6E67 		.ascii	"long long unsigned int\000"
 2886      206C6F6E 
 2886      6720756E 
ARM GAS  /tmp/cc2L2Wn2.s 			page 80


 2886      7369676E 
 2886      65642069 
 2887              	.LASF108:
 2888 02ec 73745F6C 		.ascii	"st_lld_get_counter\000"
 2888      6C645F67 
 2888      65745F63 
 2888      6F756E74 
 2888      657200
 2889              	.LASF6:
 2890 02ff 5F5F7569 		.ascii	"__uint16_t\000"
 2890      6E743136 
 2890      5F7400
 2891              	.LASF26:
 2892 030a 636E745F 		.ascii	"cnt_t\000"
 2892      7400
 2893              	.LASF134:
 2894 0310 63685379 		.ascii	"chSysUnlock\000"
 2894      73556E6C 
 2894      6F636B00 
 2895              	.LASF96:
 2896 031c 6F776E65 		.ascii	"owner\000"
 2896      7200
 2897              	.LASF49:
 2898 0322 74687265 		.ascii	"threads_queue_t\000"
 2898      6164735F 
 2898      71756575 
 2898      655F7400 
 2899              	.LASF41:
 2900 0332 6D74786C 		.ascii	"mtxlist\000"
 2900      69737400 
 2901              	.LASF61:
 2902 033a 63685F76 		.ascii	"ch_virtual_timers_list\000"
 2902      69727475 
 2902      616C5F74 
 2902      696D6572 
 2902      735F6C69 
 2903              	.LASF28:
 2904 0351 74687265 		.ascii	"thread_t\000"
 2904      61645F74 
 2904      00
 2905              	.LASF2:
 2906 035a 73697A65 		.ascii	"size_t\000"
 2906      5F7400
 2907              	.LASF86:
 2908 0361 7264796D 		.ascii	"rdymsg\000"
 2908      736700
 2909              	.LASF104:
 2910 0368 5F5F6469 		.ascii	"__disable_irq\000"
 2910      7361626C 
 2910      655F6972 
 2910      7100
 2911              	.LASF85:
 2912 0376 73746D33 		.ascii	"stm32_tim_t\000"
 2912      325F7469 
 2912      6D5F7400 
 2913              	.LASF99:
 2914 0382 5F426F6F 		.ascii	"_Bool\000"
ARM GAS  /tmp/cc2L2Wn2.s 			page 81


 2914      6C00
 2915              	.LASF129:
 2916 0388 74657374 		.ascii	"test_buffer\000"
 2916      5F627566 
 2916      66657200 
 2917              	.LASF95:
 2918 0394 63685F6D 		.ascii	"ch_mutex\000"
 2918      75746578 
 2918      00
 2919              	.LASF13:
 2920 039d 5F5F7569 		.ascii	"__uint64_t\000"
 2920      6E743634 
 2920      5F7400
 2921              	.LASF77:
 2922 03a8 44494552 		.ascii	"DIER\000"
 2922      00
 2923              	.LASF109:
 2924 03ad 706F7274 		.ascii	"port_timer_get_time\000"
 2924      5F74696D 
 2924      65725F67 
 2924      65745F74 
 2924      696D6500 
 2925              	.LASF110:
 2926 03c1 63685379 		.ascii	"chSysLock\000"
 2926      734C6F63 
 2926      6B00
 2927              	.LASF30:
 2928 03cb 7072696F 		.ascii	"prio\000"
 2928      00
 2929              	.LASF80:
 2930 03d0 43434552 		.ascii	"CCER\000"
 2930      00
 2931              	.LASF97:
 2932 03d5 63686172 		.ascii	"char\000"
 2932      00
 2933              	.LASF44:
 2934 03da 74687265 		.ascii	"thread_reference_t\000"
 2934      61645F72 
 2934      65666572 
 2934      656E6365 
 2934      5F7400
 2935              	.LASF34:
 2936 03ed 77616261 		.ascii	"wabase\000"
 2936      736500
 2937              	.LASF21:
 2938 03f4 74737461 		.ascii	"tstate_t\000"
 2938      74655F74 
 2938      00
 2939              	.LASF128:
 2940 03fd 74657374 		.ascii	"test_suite\000"
 2940      5F737569 
 2940      746500
 2941              	.LASF15:
 2942 0408 75696E74 		.ascii	"uint8_t\000"
 2942      385F7400 
 2943              	.LASF39:
 2944 0410 6D736771 		.ascii	"msgqueue\000"
ARM GAS  /tmp/cc2L2Wn2.s 			page 82


 2944      75657565 
 2944      00
 2945              	.LASF76:
 2946 0419 534D4352 		.ascii	"SMCR\000"
 2946      00
 2947              	.LASF46:
 2948 041e 63685F74 		.ascii	"ch_thread\000"
 2948      68726561 
 2948      6400
 2949              	.LASF102:
 2950 0428 65786563 		.ascii	"execute\000"
 2950      75746500 
 2951              	.LASF63:
 2952 0430 73797374 		.ascii	"system_debug_t\000"
 2952      656D5F64 
 2952      65627567 
 2952      5F7400
 2953              	.LASF132:
 2954 043f 2E2E2F2E 		.ascii	"../../../test/rt/source/test/test_root.c\000"
 2954      2E2F2E2E 
 2954      2F746573 
 2954      742F7274 
 2954      2F736F75 
 2955              	.LASF12:
 2956 0468 6C6F6E67 		.ascii	"long long int\000"
 2956      206C6F6E 
 2956      6720696E 
 2956      7400
 2957              	.LASF137:
 2958 0476 63685468 		.ascii	"chThdTerminate\000"
 2958      64546572 
 2958      6D696E61 
 2958      746500
 2959              	.LASF135:
 2960 0485 63685654 		.ascii	"chVTGetSystemTime\000"
 2960      47657453 
 2960      79737465 
 2960      6D54696D 
 2960      6500
 2961              	.LASF24:
 2962 0497 6D73675F 		.ascii	"msg_t\000"
 2962      7400
 2963              	.LASF101:
 2964 049d 74656172 		.ascii	"teardown\000"
 2964      646F776E 
 2964      00
 2965              	.LASF56:
 2966 04a6 76697274 		.ascii	"virtual_timer_t\000"
 2966      75616C5F 
 2966      74696D65 
 2966      725F7400 
 2967              	.LASF65:
 2968 04b6 70616E69 		.ascii	"panic_msg\000"
 2968      635F6D73 
 2968      6700
 2969              	.LASF20:
 2970 04c0 746D6F64 		.ascii	"tmode_t\000"
ARM GAS  /tmp/cc2L2Wn2.s 			page 83


 2970      655F7400 
 2971              	.LASF113:
 2972 04c8 73797374 		.ascii	"systime\000"
 2972      696D6500 
 2973              	.LASF70:
 2974 04d0 6D61696E 		.ascii	"mainthread\000"
 2974      74687265 
 2974      616400
 2975              	.LASF114:
 2976 04db 74657374 		.ascii	"test_terminate_threads\000"
 2976      5F746572 
 2976      6D696E61 
 2976      74655F74 
 2976      68726561 
 2977              	.LASF16:
 2978 04f2 75696E74 		.ascii	"uint16_t\000"
 2978      31365F74 
 2978      00
 2979              	.LASF84:
 2980 04fb 43435852 		.ascii	"CCXR\000"
 2980      00
 2981              	.LASF138:
 2982 0500 63685468 		.ascii	"chThdWait\000"
 2982      64576169 
 2982      7400
 2983              	.LASF5:
 2984 050a 73686F72 		.ascii	"short int\000"
 2984      7420696E 
 2984      7400
 2985              	.LASF9:
 2986 0514 6C6F6E67 		.ascii	"long int\000"
 2986      20696E74 
 2986      00
 2987              	.LASF75:
 2988 051d 706F7274 		.ascii	"port_intctx\000"
 2988      5F696E74 
 2988      63747800 
 2989              	.LASF105:
 2990 0529 5F5F656E 		.ascii	"__enable_irq\000"
 2990      61626C65 
 2990      5F697271 
 2990      00
 2991              	.LASF67:
 2992 0536 63685F73 		.ascii	"ch_system\000"
 2992      79737465 
 2992      6D00
 2993              	.LASF62:
 2994 0540 6C617374 		.ascii	"lasttime\000"
 2994      74696D65 
 2994      00
 2995              	.LASF19:
 2996 0549 75696E74 		.ascii	"uint64_t\000"
 2996      36345F74 
 2996      00
 2997              	.LASF68:
 2998 0552 726C6973 		.ascii	"rlist\000"
 2998      7400
ARM GAS  /tmp/cc2L2Wn2.s 			page 84


 2999              	.LASF3:
 3000 0558 5F5F7569 		.ascii	"__uint8_t\000"
 3000      6E74385F 
 3000      7400
 3001              	.LASF112:
 3002 0562 5F5F6675 		.ascii	"__func__.4890\000"
 3002      6E635F5F 
 3002      2E343839 
 3002      3000
 3003              	.LASF33:
 3004 0570 6E616D65 		.ascii	"name\000"
 3004      00
 3005              	.LASF117:
 3006 0575 74657374 		.ascii	"test_sequence_002\000"
 3006      5F736571 
 3006      75656E63 
 3006      655F3030 
 3006      3200
 3007              	.LASF122:
 3008 0587 74657374 		.ascii	"test_sequence_007\000"
 3008      5F736571 
 3008      75656E63 
 3008      655F3030 
 3008      3700
 3009              	.LASF71:
 3010 0599 73697A65 		.ascii	"sizetype\000"
 3010      74797065 
 3010      00
 3011              	.LASF22:
 3012 05a2 74726566 		.ascii	"trefs_t\000"
 3012      735F7400 
 3013              	.LASF11:
 3014 05aa 6C6F6E67 		.ascii	"long unsigned int\000"
 3014      20756E73 
 3014      69676E65 
 3014      6420696E 
 3014      7400
 3015              	.LASF52:
 3016 05bc 72656164 		.ascii	"ready_list_t\000"
 3016      795F6C69 
 3016      73745F74 
 3016      00
 3017              	.LASF130:
 3018 05c9 74687265 		.ascii	"threads\000"
 3018      61647300 
 3019              	.LASF29:
 3020 05d1 71756575 		.ascii	"queue\000"
 3020      6500
 3021              	.LASF17:
 3022 05d7 696E7433 		.ascii	"int32_t\000"
 3022      325F7400 
 3023              	.LASF98:
 3024 05df 6D757465 		.ascii	"mutex_t\000"
 3024      785F7400 
 3025              	.LASF31:
 3026 05e7 6E657765 		.ascii	"newer\000"
 3026      7200
ARM GAS  /tmp/cc2L2Wn2.s 			page 85


 3027              	.LASF4:
 3028 05ed 756E7369 		.ascii	"unsigned char\000"
 3028      676E6564 
 3028      20636861 
 3028      7200
 3029              	.LASF100:
 3030 05fb 73657475 		.ascii	"setup\000"
 3030      7000
 3031              	.LASF10:
 3032 0601 5F5F7569 		.ascii	"__uint32_t\000"
 3032      6E743332 
 3032      5F7400
 3033              	.LASF38:
 3034 060c 77616974 		.ascii	"waiting\000"
 3034      696E6700 
 3035              	.LASF60:
 3036 0614 76697274 		.ascii	"virtual_timers_list_t\000"
 3036      75616C5F 
 3036      74696D65 
 3036      72735F6C 
 3036      6973745F 
 3037              	.LASF139:
 3038 062a 63685468 		.ascii	"chThdSleep\000"
 3038      64536C65 
 3038      657000
 3039              	.LASF35:
 3040 0635 73746174 		.ascii	"state\000"
 3040      6500
 3041              	.LASF66:
 3042 063b 63685F73 		.ascii	"ch_system_t\000"
 3042      79737465 
 3042      6D5F7400 
 3043              	.LASF91:
 3044 0647 77747365 		.ascii	"wtsemp\000"
 3044      6D7000
 3045              	.LASF89:
 3046 064e 77747472 		.ascii	"wttrp\000"
 3046      7000
 3047              	.LASF1:
 3048 0654 7369676E 		.ascii	"signed char\000"
 3048      65642063 
 3048      68617200 
 3049              	.LASF58:
 3050 0660 64656C74 		.ascii	"delta\000"
 3050      6100
 3051              	.LASF7:
 3052 0666 73686F72 		.ascii	"short unsigned int\000"
 3052      7420756E 
 3052      7369676E 
 3052      65642069 
 3052      6E7400
 3053              	.LASF73:
 3054 0679 73746B61 		.ascii	"stkalign_t\000"
 3054      6C69676E 
 3054      5F7400
 3055              	.LASF54:
 3056 0684 63757272 		.ascii	"current\000"
ARM GAS  /tmp/cc2L2Wn2.s 			page 86


 3056      656E7400 
 3057              	.LASF107:
 3058 068c 706F7274 		.ascii	"port_unlock\000"
 3058      5F756E6C 
 3058      6F636B00 
 3059              	.LASF32:
 3060 0698 6F6C6465 		.ascii	"older\000"
 3060      7200
 3061              	.LASF133:
 3062 069e 2F686F6D 		.ascii	"/home/awygle/ChibiOS-RT/demos/STM32/RT-STM32F030R8-"
 3062      652F6177 
 3062      79676C65 
 3062      2F436869 
 3062      62694F53 
 3063 06d1 4E55434C 		.ascii	"NUCLEO64\000"
 3063      454F3634 
 3063      00
 3064              	.LASF87:
 3065 06da 65786974 		.ascii	"exitcode\000"
 3065      636F6465 
 3065      00
 3066              	.LASF43:
 3067 06e3 6D706F6F 		.ascii	"mpool\000"
 3067      6C00
 3068              		.comm	__gnu_lto_v1,1,1
 3069              		.ident	"GCC: (4.8.3-18ubuntu2+12) 4.8.3"
ARM GAS  /tmp/cc2L2Wn2.s 			page 87


DEFINED SYMBOLS
                            *ABS*:0000000000000000 test_root.c
     /tmp/cc2L2Wn2.s:437    .text.test_terminate_threads:0000000000000000 $t
     /tmp/cc2L2Wn2.s:443    .text.test_terminate_threads:0000000000000000 test_terminate_threads
     /tmp/cc2L2Wn2.s:478    .text.test_terminate_threads:000000000000001c $d
     /tmp/cc2L2Wn2.s:483    .text.test_wait_threads:0000000000000000 $t
     /tmp/cc2L2Wn2.s:489    .text.test_wait_threads:0000000000000000 test_wait_threads
     /tmp/cc2L2Wn2.s:527    .text.test_wait_threads:0000000000000020 $d
     /tmp/cc2L2Wn2.s:532    .text.test_wait_tick:0000000000000000 $t
     /tmp/cc2L2Wn2.s:538    .text.test_wait_tick:0000000000000000 test_wait_tick
     /tmp/cc2L2Wn2.s:603    .text.test_wait_tick:0000000000000014 $d
     /tmp/cc2L2Wn2.s:639    .rodata.wa:0000000000000000 wa
     /tmp/cc2L2Wn2.s:650    .bss.threads:0000000000000000 threads
     /tmp/cc2L2Wn2.s:615    .bss.test_buffer:0000000000000000 test_buffer
     /tmp/cc2L2Wn2.s:621    .data.test_suite:0000000000000000 test_suite
     /tmp/cc2L2Wn2.s:612    .bss.test_buffer:0000000000000000 $d
     /tmp/cc2L2Wn2.s:618    .data.test_suite:0000000000000000 $d
     /tmp/cc2L2Wn2.s:636    .rodata.wa:0000000000000000 $d
     /tmp/cc2L2Wn2.s:646    .bss.threads:0000000000000000 $d
                            *COM*:0000000000000001 __gnu_lto_v1
                     .debug_frame:0000000000000010 $d
     /tmp/cc2L2Wn2.s:531    .text.test_wait_threads:0000000000000024 $t
     /tmp/cc2L2Wn2.s:611    .text.test_wait_tick:0000000000000018 $t

UNDEFINED SYMBOLS
chThdTerminate
chThdWait
chThdSleep
test_sequence_001
test_sequence_002
test_sequence_003
test_sequence_004
test_sequence_005
test_sequence_006
test_sequence_007
test_sequence_008
test_sequence_009
test_sequence_010
test_sequence_011
test_sequence_012
