ARM GAS  /tmp/cc0h7QKQ.s 			page 1


   1              		.cpu cortex-m0
   2              		.fpu softvfp
   3              		.eabi_attribute 20, 1
   4              		.eabi_attribute 21, 1
   5              		.eabi_attribute 23, 3
   6              		.eabi_attribute 24, 1
   7              		.eabi_attribute 25, 1
   8              		.eabi_attribute 26, 1
   9              		.eabi_attribute 30, 2
  10              		.eabi_attribute 34, 0
  11              		.eabi_attribute 18, 4
  12              		.code	16
  13              		.file	"test_sequence_008.c"
  14              		.text
  15              	.Ltext0:
  16              		.section	.gnu.lto_.jmpfuncs.a8ca9c04ac466a28,"",%progbits
  17 0000 789CED54 		.ascii	"x\234\355T\273R\302@\024=\233\000\022@E\021\304fg\265"
  17      BB52C240 
  17      143D9B00 
  17      12404511 
  17      C46667B5 
  18 0014 77ECAD44 		.ascii	"w\354\255D\375\010\032\213(kf\307<0\011\303\210\015"
  18      FD081A8B 
  18      286B66C7 
  18      3C3009C3 
  18      880D
  19 0026 A595358D 		.ascii	"\245\2255\215\235\265?`\357G\331 \311\"\240\01181\016"
  19      9DB53F60 
  19      EF47D920 
  19      C922A009 
  19      38310E
  20 0039 A333A6D9 		.ascii	"\2433\246\331\311=\367\234\373\310\311*P\020\367\034"
  20      C93DF79C 
  20      FBC8C92A 
  20      5010F71C 
  21 0049 E48197D1 		.ascii	"\344\201\227\321\251\001D\271\305k\377\256_\026\004"
  21      A90144B9 
  21      C56BFFAE 
  21      5F1604
  22 0058 16095125 		.ascii	"\026\011Q%.\250\306\0053\201~\030\036\004aBA\036\372"
  22      2EA8C605 
  22      33817E18 
  22      1E046142 
  22      411EFA
  23 006b 83234164 		.ascii	"\203#AdY%\312\300b\206\032\313h\022AT2\247\327d\365"
  23      5925CAC0 
  23      62861ACB 
  23      68124154 
  23      32A7D764 
  24 0080 43AD4C33 		.ascii	"C\255L3y\033S\342{7\277\265\364\374\035f\207C\025\310"
  24      791B53E2 
  24      7B37BFB5 
  24      F4FC1D66 
  24      874315C8 
  25 0094 C5D69844 		.ascii	"\305\326\230Dr\026!\023\306J\006\310'\314\327\022\346"
  25      72162113 
  25      C64A06C8 
ARM GAS  /tmp/cc0h7QKQ.s 			page 2


  25      27CCD712 
  25      E6
  26 00a5 173E8E93 		.ascii	"\027>\216\223\247\250\313q\264\350\027.P\034J\260\030"
  26      A7A8CB71 
  26      B4E8172E 
  26      501C4AB0 
  26      18
  27 00b6 054B1467 		.ascii	"\005K\024g\022\\\215\202k\024B\202\353il(W\230\216<"
  27      125C8D82 
  27      6B144282 
  27      EB696C28 
  27      57988E3C 
  28 00ca A596297C 		.ascii	"\245\226)|I\335\230n)D6)z\022\251\204\3107\374\366\211"
  28      49DD986E 
  28      29443629 
  28      7A12A984 
  28      C837FCF6 
  29 00df B145713F 		.ascii	"\261Eq?\246T\243h\215\342q\214nG\321:\305\323\030\335"
  29      A654A368 
  29      8DE2718C 
  29      6E47D13A 
  29      C5D318DD 
  30 00f3 49F1DB35 		.ascii	"I\361\3335R\017\261$s|u\321\214\304\236\311\254Z\361"
  30      520FB124 
  30      737C75D1 
  30      8CC49EC9 
  30      AC5AF1
  31 0106 DFC3E93D 		.ascii	"\337\303\351=\234\250\343\345\331y\356\215\334\370\301"
  31      9CA8E3E5 
  31      D979EE8D 
  31      DCF8C1
  32 0115 7DFE0593 		.ascii	"}\376\005\223\243\326u\035\333`]\375\212\357w\332\314"
  32      A3D6751D 
  32      DB605DFD 
  32      8AEF77DA 
  32      CC
  33 0126 E29EA71B 		.ascii	"\342\236\247\033\034\273.\327[\254\355\010\333\347."
  33      1CBB2ED7 
  33      5BACED08 
  33      DBE72E
  34 0135 B31D9FE9 		.ascii	"\263\035\237\351\2460l\336b\276\303\316u\217c\257\353"
  34      A6306CDE 
  34      62BEC3CE 
  34      758F63AF 
  34      EB
  35 0146 0A9F2F4C 		.ascii	"\012\237/L)z\2760Mv\3311M\024\202\004n\265\375\033d"
  35      297ABE30 
  35      4D76D931 
  35      4D148204 
  35      6EB5FD1B 
  36 015b 1BC727A7 		.ascii	"\033\307'\247\250\310\302\006\367\231\307\257;\334\276"
  36      A8C8C206 
  36      F799C7AF 
  36      3BDCBE
  37 016a E0A88ED5 		.ascii	"\340\250\216\325\274Y9h\301K(R\222\202R\246(\005<\321"
  37      BC593968 
  37      C14B2852 
ARM GAS  /tmp/cc0h7QKQ.s 			page 3


  37      928252A6 
  37      28053CD1 
  38 017e E37803D0 		.ascii	"\343x\003\320\316\367#"
  38      CEF723
  39              		.text
  40              		.section	.gnu.lto_.inline.a8ca9c04ac466a28,"",%progbits
  41 0000 789C6362 		.ascii	"x\234cb`b\300\006\256C\2059\031\030Xy\031\301\212\330"
  41      6062C006 
  41      AE438539 
  41      19185879 
  41      19C18AD8 
  42 0014 16C88305 		.ascii	"\026\310\203\005\231\270\031\030@\"\330\305\231q\210"
  42      99B81918 
  42      4022D8C5 
  42      997188
  43 0023 B3B03C61 		.ascii	"\263\260<a\230\313\010\224q{\367\234\031.\307\302\013"
  43      98CB0894 
  43      717BF79C 
  43      192EC7C2 
  43      0B
  44 0034 949FE007 		.ascii	"\224\237\340\007\241\021\\V>\006\240Ap\255\370\025\021"
  44      A1115C56 
  44      3E06A041 
  44      70ADF815 
  44      11
  45 0045 946684F2 		.ascii	"\224f\204\362A\216\0032\330\030\330\371Q]\010\322\002"
  45      418E0332 
  45      D818D8F9 
  45      515D08D2 
  45      02
  46 0056 52CA8153 		.ascii	"R\312\201S\206\023\247\014\027\313CF%\240\324\017\306"
  46      8613A70C 
  46      17CB4346 
  46      25A0D40F 
  46      C6
  47 0067 86C58CD8 		.ascii	"\206\305\214\330\375\205\207F\367\003\204\217\360\014"
  47      FD858746 
  47      F703848F 
  47      F00C
  48 0075 13372303 		.ascii	"\0237#\003\343\004?\230\037X AK\224\351\010\237Ct\201"
  48      E3043F98 
  48      1F582041 
  48      4B94E908 
  48      9F437481 
  49 0089 4CC1AF0D 		.ascii	"L\301\257\0155\264\271Y\356\200=\366\202\361\304L\232"
  49      35B4B959 
  49      EE803DF6 
  49      82F1C44C 
  49      9A
  50 009a 7B0C1239 		.ascii	"{\014\0229\204\215\307\031\251\244\371\215\001\0006"
  50      848DC719 
  50      A9A4F98D 
  50      010036
  51 00a9 5B41B2   		.ascii	"[A\262"
  52              		.text
  53              		.section	.gnu.lto_.pureconst.a8ca9c04ac466a28,"",%progbits
  54 0000 789C6362 		.ascii	"x\234cb`b\020f\200\000N\006\011&\011f\011\026+6\011"
ARM GAS  /tmp/cc0h7QKQ.s 			page 4


  54      60621066 
  54      80004E06 
  54      09260966 
  54      09162B36 
  55 0015 0E094E09 		.ascii	"\016\011N\011.+n+\000\016C\001\224"
  55      2E2B6E2B 
  55      000E4301 
  55      94
  56              		.text
  57              		.section	.gnu.lto_test_008_003_teardown.a8ca9c04ac466a28,"",%progbits
  58 0000 789C6362 		.ascii	"x\234cb`b@\007\222@\334\007\304\306@\314\310\314\300"
  58      60624007 
  58      9240DC07 
  58      C4C640CC 
  58      C8CCC0
  59 0013 C834E11C 		.ascii	"\3104\341\034\003C#\007\023##\210\301\300\310P\317\304"
  59      03432307 
  59      13232388 
  59      C1C0C850 
  59      CFC4
  60 0025 581FC908 		.ascii	"X\037\311\010V\273\236\351\300\203\377\377\327\375\270"
  60      56BB9EE9 
  60      C083FFFF 
  60      D7FDB8
  61 0034 BCE60DE3 		.ascii	"\274\346\015\343y&f\240\010+CKC\303\004\005\006\206"
  61      792666A0 
  61      082B434B 
  61      43C30405 
  61      0686
  62 0046 64B08A10 		.ascii	"d\260\212\020 \011\322\026\312\310\004\242\231\3173"
  62      2009D216 
  62      CAC804A2 
  62      99CF33
  63 0055 B43CF8DB 		.ascii	"\264<\370\333\311\236\310\270\220\221\025(]\315\360"
  63      C99EC8B8 
  63      90911528 
  63      5DCDF0
  64 0064 ABA1A341 		.ascii	"\253\241\243A \223\021\250\034b\"H\204#\223\2211\227"
  64      209311A8 
  64      1C622248 
  64      84239391 
  64      3197
  65 0076 9101AA28 		.ascii	"\221\001\252(\023\250\225\341\"C\343\203\177\2320m\020"
  65      13A895E1 
  65      2243E383 
  65      7F9A306D 
  65      10
  66 0087 1002D402 		.ascii	"\020\002\324\0024\023\344\003C==}\010*I-.\321/*\321"
  66      3413E403 
  66      433D3D7D 
  66      082A492D 
  66      2ED12F2A 
  67 009c 2FCE2F2D 		.ascii	"/\316/-JN\205pAD|qjaij^rj\274\201\201\205^2\003\000"
  67      4A4E8570 
  67      41447C71 
  67      6A61696A 
  67      5E726ABC 
ARM GAS  /tmp/cc0h7QKQ.s 			page 5


  68 00b7 C3573856 		.ascii	"\303W8V"
  69              		.text
  70              		.section	.gnu.lto_test_008_002_teardown.a8ca9c04ac466a28,"",%progbits
  71 0000 789C6362 		.ascii	"x\234cb`b@\007\222@\334\007\304\306@\314\310\314\300"
  71      60624007 
  71      9240DC07 
  71      C4C640CC 
  71      C8CCC0
  72 0013 C834E11C 		.ascii	"\3104\341\034\003C#\007\023##\210\301\300\310P\317\304"
  72      03432307 
  72      13232388 
  72      C1C0C850 
  72      CFC4
  73 0025 581FC908 		.ascii	"X\037\311\010V\273\236\351\300\203\377\377\327m;\267"
  73      56BB9EE9 
  73      C083FFFF 
  73      D76D3BB7 
  74 0035 E60EE34E 		.ascii	"\346\016\343N&f\240\010+CKC\303\004\005\006\206d\260"
  74      2666A008 
  74      2B434B43 
  74      C3040506 
  74      8664B0
  75 0048 8A102009 		.ascii	"\212\020 \011\322\026\312\310\004\242\231\3173\264<"
  75      D216CAC8 
  75      04A299CF 
  75      33B43C
  76 0057 98D3CE9E 		.ascii	"\230\323\316\236\310\270\220\221\025(]\315\360\253\241"
  76      C8B89091 
  76      15285DCD 
  76      F0ABA1
  77 0066 A3412093 		.ascii	"\243A \223\021\250\034b\"H\204#\223\2211\227\221\001"
  77      11A81C62 
  77      22488423 
  77      93913197 
  77      9101
  78 0078 AA2813A8 		.ascii	"\252(\023\250\225\341\"C\343\203\271\3520m\020\020\002"
  78      95E12243 
  78      E383B9EA 
  78      306D1010 
  78      02
  79 0089 D4023413 		.ascii	"\324\0024\023\344\003C==}\010*I-.\321/*\321/\316/-J"
  79      E403433D 
  79      3D7D082A 
  79      492D2ED1 
  79      2F2AD12F 
  80 00a1 4E857041 		.ascii	"N\205pAD|qjaij^rj\274\201\201\205^2\003\000&\2217#"
  80      447C716A 
  80      61696A5E 
  80      726ABC81 
  80      81855E32 
  81              		.text
  82              		.section	.gnu.lto_test_008_001_teardown.a8ca9c04ac466a28,"",%progbits
  83 0000 789C6362 		.ascii	"x\234cb`b@\007\222@\334\007\304\306@\314\310\314\300"
  83      60624007 
  83      9240DC07 
  83      C4C640CC 
  83      C8CCC0
ARM GAS  /tmp/cc0h7QKQ.s 			page 6


  84 0013 C834E11C 		.ascii	"\3104\341\034\003C#\007\023##\210\301\300\310P\317\304"
  84      03432307 
  84      13232388 
  84      C1C0C850 
  84      CFC4
  85 0025 581FC908 		.ascii	"X\037\311\010V\273\236\351\300\203\377\377\327}:\266"
  85      56BB9EE9 
  85      C083FFFF 
  85      D77D3AB6 
  86 0035 660FE36C 		.ascii	"f\017\343l&f\240\010+CKC\303\004\005\006\206d\260\212"
  86      2666A008 
  86      2B434B43 
  86      C3040506 
  86      8664B08A 
  87 0049 102009D2 		.ascii	"\020 \011\322\026\312\310\004\242\231\3173\264<\330"
  87      16CAC804 
  87      A299CF33 
  87      B43CD8
  88 0058 D5CC9EC8 		.ascii	"\325\314\236\310\270\220\221\025(]\315\360\253\241\243"
  88      B8909115 
  88      285DCDF0 
  88      ABA1A3
  89 0067 41209311 		.ascii	"A \223\021\250\034b\"H\204#\223\2211\227\221\001\252"
  89      A81C6222 
  89      48842393 
  89      91319791 
  89      01AA
  90 0079 2813A895 		.ascii	"(\023\250\225\341\"C\343\203\335\3120m\020\020\002\324"
  90      E12243E3 
  90      83DDCA30 
  90      6D101002 
  90      D4
  91 008a 023413E4 		.ascii	"\0024\023\344\003C==}\010*I-.\321/*\321/\316/-JN\205"
  91      03433D3D 
  91      7D082A49 
  91      2D2ED12F 
  91      2AD12FCE 
  92 00a3 7041447C 		.ascii	"pAD|qjaij^rj\274\201\201\205^2\003\0005\3557M"
  92      716A6169 
  92      6A5E726A 
  92      BC818185 
  92      5E320300 
  93              		.text
  94              		.section	.gnu.lto_test_008_003_execute.a8ca9c04ac466a28,"",%progbits
  95 0000 789CA557 		.ascii	"x\234\245Wkl\024U\024>gf\037\263\317\322\265PJ\351\262"
  95      6B6C1455 
  95      143E6766 
  95      1FB3CFD2 
  95      B5504AE9 
  96 0015 8190FA83 		.ascii	"\201\220\372\203vh\323\324W\322\242\374\342G\377\010"
  96      7668D3D4 
  96      57D2A2FC 
  96      E247FF08 
  97 0025 4D20C634 		.ascii	"M \3064\233a\262\235\350vq\247\025\220\037Li!M0\332"
  97      9B61B29D 
  97      E87671A7 
  97      15901F4C 
ARM GAS  /tmp/cc0h7QKQ.s 			page 7


  97      69214D30 
  98 003a 181FA831 		.ascii	"\030\037\2501B\010Qc\2651&fSHX\011?j\211\024\023T\214"
  98      42085163 
  98      B5312666 
  98      53485809 
  98      3F6A8914 
  99 0051 1A561AC1 		.ascii	"\032V\032\301D!*16\306\260\236{\347\265\325\241v\313"
  99      44212A31 
  99      36C6B09E 
  99      7BE7B5D5 
  99      A176CB
 100 0064 A47BE69E 		.ascii	"\244{\346\236s\357y~\347\336\271\025@\200\177?S\364"
 100      73EF797E 
 100      E7DEB915 
 100      40807F3F 
 100      53F4
 101 0076 FB230AF0 		.ascii	"\373#\012\360+\275\261\006P\030\277\0100,\011\3507\007"
 101      2BBDB106 
 101      5018BF08 
 101      302C09E8 
 101      3707
 102 0088 A2103B27 		.ascii	"\242\020;'\202\021\366]\234\0010\242>S\376\251\344\027"
 102      8211F65D 
 102      9C0130A2 
 102      3E53FEA9 
 102      E417
 103 009a C46217C9 		.ascii	"\304b\027\311\003\227jH\034\020bg\036 .xy\025qA\213"
 103      03976A48 
 103      1C106267 
 103      1E202E78 
 103      79157141 
 104 00af 93382759 		.ascii	"\2238'Y\\\210s!\213\013s.lq\021\316E\204\330e\231\270"
 104      5C887321 
 104      8B0B732E 
 104      6C7111CE 
 104      4584D865 
 105 00c5 E8992471 		.ascii	"\350\231$qQ\214\233!\304\354A\034\221\015\000\341\240"
 105      518C9B21 
 105      C4EC411C 
 105      910D00E1 
 105      A0
 106 00d6 20FAFC81 		.ascii	" \372\374\201\240\024\012G\242\2618\036\334\205,\027"
 106      A0140A47 
 106      A2B1381E 
 106      DC852C17 
 107 00e6 713D9C30 		.ascii	"q=\2340\214\361\322\251k3\370\272Q\034=n\374].#jHyw"
 107      8CF1D2A9 
 107      6B33F8BA 
 107      511C3D6E 
 107      FC5D2E23 
 108 00fe 2028083B 		.ascii	" (\010;\211\301\024\177\011\276\205\205`\272\305q\343"
 108      89C1147F 
 108      09BE8585 
 108      60BAC571 
 108      E3
 109 010f ECEE6963 		.ascii	"\354\356ic\264X.ws\255\207\226\242e\274T|\345\325\027"
 109      B4582E77 
ARM GAS  /tmp/cc0h7QKQ.s 			page 8


 109      73AD8796 
 109      A265BC54 
 109      7CE5D517 
 110 0123 1A8CE387 		.ascii	"\032\214\343\207\306\215;\344PCQ\200\256\377\323\234"
 110      C68D3BE4 
 110      50435180 
 110      AEFFD39C 
 111 0133 148AA572 		.ascii	"\024\212\245r\371\371\217~\270v\025Wv#\244\361\024\256"
 111      F9F98F7E 
 111      B8761557 
 111      7623A4F1 
 111      14AE
 112 0145 872090B6 		.ascii	"\207 \220\266D\304\027&\311\011\222D\210\361\307\030"
 112      44C41726 
 112      C9099244 
 112      88F1C718 
 113 0155 895B6B6A 		.ascii	"\211[kj\255\231\004\023\3261RoI\032\030\323\310H\223"
 113      AD990413 
 113      D631526F 
 113      491A18D3 
 113      C84893
 114 0168 25493226 		.ascii	"%I2&\305\310\006K\262\2211\315\214l\262$-\214\221\031"
 114      C5C8064B 
 114      B29131CD 
 114      8C6CB224 
 114      2D8C9119 
 115 017c 69B7241D 		.ascii	"i\267$\035\214\351d\204\002\365\303(\0255e\316\244\361"
 115      8CE96484 
 115      02F5C328 
 115      153565CE 
 115      A4F1
 116 018e 24A72C0E 		.ascii	"$\247,\016`\031\322\263\203h!\001\275(\320K\374\034"
 116      6019D2B3 
 116      83682101 
 116      BD28D04B 
 116      FC1C
 117 01a0 0E150A73 		.ascii	"\016\025\012sk\322\370\016i\277\011o\014\033\306\012"
 117      6BD2F80E 
 117      69BF096F 
 117      0C1BC60A 
 118 01b0 CAE900FC 		.ascii	"\312\351\000\374e\214\261Q \313\225XI\002`\217D&\373"
 118      658CB151 
 118      20CB9558 
 118      4902608F 
 118      4426FB
 119 01c3 0C0E955E 		.ascii	"\014\016\225^<\03245M\027|\316\256X/\015\213]\344`d"
 119      3C1A3435 
 119      4D177CCE 
 119      AE582F0D 
 119      8B5DE460 
 120 01d8 6C646E62 		.ascii	"ldnb\233\271.\203\301\014\"_\367\030\255!\357\267F\246"
 120      9BB92E83 
 120      C10C225F 
 120      F718AD21 
 120      EFB746A6 
 121 01ec D09E9368 		.ascii	"\320\236\223h\032`\026\216\024\327\332\242\260\023I"
 121      1A60168E 
ARM GAS  /tmp/cc0h7QKQ.s 			page 9


 121      14D7DAA2 
 121      B01349
 122 01fb 50411E0A 		.ascii	"PA\036\012\230\022\343I\015\245,Z\272L\231Y\015\225"
 122      9812E349 
 122      0DA52C5A 
 122      BA4C9959 
 122      0D95
 123 020d CB221522 		.ascii	"\313\"\025\"\314\303\263\255\230\265\3100)E3;rc\"h\233"
 123      CCC3B3AD 
 123      98B5C830 
 123      2945333B 
 123      72632268 
 124 0222 8F9094E9 		.ascii	"\217\220\224\351q\264g\301o\313c\216\333\210\202\346"
 124      71B467C1 
 124      6FCB638E 
 124      DB8882E6 
 125 0232 36A4C54C 		.ascii	"6\244\305L\270Z\303h\022\266\274e\034\333\242a\014,"
 125      B85AC368 
 125      12B6BC65 
 125      1CDBA261 
 125      0C2C
 126 0244 F71AC601 		.ascii	"\367\032\306\001\246a\364\027'\227\0303\353\257l\241"
 126      A661F417 
 126      27971833 
 126      EBAF6CA1 
 127 0254 5EF272E5 		.ascii	"^\362r\345\021\263 g'\272\355\205q\273 fQ\205\312\202"
 127      11B32067 
 127      27BAED85 
 127      71BB2066 
 127      5185CA82 
 128 0268 66985953 		.ascii	"f\230YS\327\017\264\231D\312J\002g\022\271\317\353\303"
 128      D70FB499 
 128      44CA4A02 
 128      6712B9CF 
 128      EBC3
 129 027a 11DB9669 		.ascii	"\021\333\226i\310\201\000\276\001\2640\021\246E2\346"
 129      C88100BE 
 129      01B43011 
 129      A64532E6 
 130 028a 9B0F325B 		.ascii	"\233\0172[\001\270T\303\221\237\277Q-\362\002\257\323"
 130      01B854C3 
 130      919FBF51 
 130      2DF202AF 
 130      D3
 131 029b 91D27B17 		.ascii	"\221\322{\027\002\266\323\332\273B\264k\001DL\037v\362"
 131      02B6D3DA 
 131      BB42B46B 
 131      01444C1F 
 131      76F2
 132 02ad 570DBA20 		.ascii	"W\015\272 \255Y\010R\255\005\322\373\0378`$H\312A*\333"
 132      AD590852 
 132      AD05D2FB 
 132      1F386024 
 132      48CA412A 
 133 02c2 0F1E5C80 		.ascii	"\017\036\\\200V\235\027Z\211j\320\252\363@+\010\347"
 133      569D175A 
 133      896AD0AA 
ARM GAS  /tmp/cc0h7QKQ.s 			page 10


 133      F3402B08 
 133      E7
 134 02d3 7DE24518 		.ascii	"}\342E\030\376mrnn\265\265\255\354\375U\274\361\362"
 134      FE6D726E 
 134      6EB5B5AD 
 134      ECFD55BC 
 134      F1F2
 135 02e5 CDC8FD0E 		.ascii	"\315\310\375\016w\366\265\371\310Z\207\273\360\345\217"
 135      77F6B5F9 
 135      C85A87BB 
 135      F0E58F
 136 02f4 2258BE14 		.ascii	"\"X\276\024*\276B\300+\266u\204\257I\304\203LB\011\315"
 136      2ABE42C0 
 136      2BB67584 
 136      AF49C483 
 136      4C4209CD 
 137 0308 C8569873 		.ascii	"\310V\230s\263p\2704\341\026\266\336I\253V\2610\260"
 137      B370B834 
 137      E116B6DE 
 137      49AB56B1 
 137      30B0
 138 031a 0AFB8457 		.ascii	"\012\373\204Wa5LxV\264\036\200g1r\025\377\233\305\235"
 138      61354C78 
 138      56B41E80 
 138      67317215 
 138      FF9BC59D 
 139 032e C8BA8A2C 		.ascii	"\310\272\212,\336\216%\235\023\304M\347\253\303~7\235"
 139      DE8E259D 
 139      13C44DE7 
 139      ABC37E37 
 139      9D
 140 033f 20F09344 		.ascii	" \360\223D\242_\310\316\350\247\273f\304\241<\355B\331"
 140      A25FC8CE 
 140      E8A7BB66 
 140      C4A13CED 
 140      42D9
 141 0351 40E12C0A 		.ascii	"@\341,\012e\243\027\224\015\325@\331\350\001\245\004"
 141      65A31794 
 141      0DD540D9 
 141      E801A504 
 142 0361 EFA2C8DA 		.ascii	"\357\242\310\332v\322\255nSe\333\206+\253\253/\243m"
 142      76D2AD6E 
 142      5365DB86 
 142      2BABAB2F 
 142      A36D
 143 0373 9BAC5CE7 		.ascii	"\233\254\\\347\334\\\223$]4\327\224W\256\311jrMy\344"
 143      DC5C9324 
 143      5D34D794 
 143      57AEC96A 
 143      724D79E4 
 144 0387 1A82B6E5 		.ascii	"\032\202\266\345u\355wK\353\3324\236\306\244\333\257"
 144      75ED774B 
 144      EBDA349E 
 144      C6A4DBAF 
 145 0397 536E4537 		.ascii	"SnE7T\366k\244\262\242C\325\364\353\206{\355\327\357"
 145      54F66BA4 
 145      B2A243D5 
ARM GAS  /tmp/cc0h7QKQ.s 			page 11


 145      F4EB867B 
 145      EDD7EF
 146 03aa 97DCAF69 		.ascii	"\227\334\257i<o\347\302\321\273\355\242\267\221\002"
 146      3C6FE7C2 
 146      D1BBEDA2 
 146      B79102
 147 03b9 5914BD66 		.ascii	"Y\024\275f/\3646V\203^\263\007za\210\363\223\371\330"
 147      2FF43656 
 147      835EB307 
 147      7A6188F3 
 147      93F9D8
 148 03cc EFD59ECC 		.ascii	"\357\325\236\314\"\007d\2644s\301\372\272\331\325'\215"
 148      220764B4 
 148      3473C1FA 
 148      BAD9D527 
 148      8D
 149 03dd FB148C3A 		.ascii	"\373\024\214:xH\013\300\320\260\216\177\207\013WnW\353"
 149      78480BC0 
 149      D0B08E7F 
 149      870B576E 
 149      57EB
 150 03ef D107E6B7 		.ascii	"\321\007\346\267\340\212\333\002\233\034\225\225\012"
 150      E08ADB02 
 150      9B1C9595 
 150      0A
 151 03fc A57ED723 		.ascii	"\245~\327#\353\000<\247\341*\373z\342t\005\337`\365"
 151      EB003CA7 
 151      E12AFB7A 
 151      E27405DF 
 151      60F5
 152 040e 9E5DB1C9 		.ascii	"\236]\261\311\376x\177\350 \320B\322E!\222\275 j\251"
 152      FE787FE8 
 152      20D042D2 
 152      452192BD 
 152      206AA9
 153 0421 0622D903 		.ascii	"\006\"\331\003\242\010,\357\263p\364\346\2626\330\267"
 153      A2082CEF 
 153      B370F4E6 
 153      B236D8B7 
 154 0431 6E75DB9D 		.ascii	"nu\333\235|V+\326\315\300\3632\344Q]\015\033<\313\332"
 154      7C562BD6 
 154      CDC0F332 
 154      E4515D0D 
 154      1B3CCBDA 
 155 0445 7E8F9BED 		.ascii	"~\217\233\355\350\255eo\266?]$;(\220E\221\354\364B\262"
 155      E8AD656F 
 155      B63F5D24 
 155      3B289045 
 155      91ECF442 
 156 045a A31A243B 		.ascii	"\243\032$;=\220\214\202@\233\355\334\317\316\235\353"
 156      3D908C82 
 156      409BEDDC 
 156      CFCE9DEB 
 157 046a 24BF4D7F 		.ascii	"$\277M\177l\214\261\023\312Y\026\203O\022|]\341\372"
 157      6C8CB113 
 157      CA591683 
 157      4F127C5D 
ARM GAS  /tmp/cc0h7QKQ.s 			page 12


 157      E1FA
 158 047c C38BAF8C 		.ascii	"\303\213\257\214\263+\365\027\364\277\217\353e\007]"
 158      B32BF517 
 158      F4BF8FEB 
 158      65075D
 159 048b 890A0916 		.ascii	"\211\012\011\026r[k\253l\376\015\252\372\240\234\037"
 159      725B6BAB 
 159      6CFE0DAA 
 159      FAA09C1F 
 160 049b 94F5DC50 		.ascii	"\224\365\334P^QM\226\221>]}fH\035P\324\276\315\233\037"
 160      5E514D96 
 160      913E5D7D 
 160      66481D50 
 160      D4BECD9B 
 161 04b0 6C55C097 		.ascii	"lU\300\227\3253m\214\264\243\266jo>7\220I\355M?\245"
 161      D5336D8C 
 161      B4A3B66A 
 161      6F3E3790 
 161      49ED4D3F 
 162 04c5 B60CED49 		.ascii	"\266\014\355IeU]Og\324\012\2439]Vr\331ln@V\367\015\312"
 162      65555D4F 
 162      67D40AA3 
 162      395D5672 
 162      D96C6E40 
 163 04dd 5B7BB66F 		.ascii	"[{\266o\333.k\003\312\323C\273UY\311\352\232\336\227"
 163      DB2E6B03 
 163      CAD343BB 
 163      5559C9EA 
 163      9ADE97
 164 04f0 5194D67E 		.ascii	"Q\224\326~h\361\320\330\223\313\017\352\362\243\217"
 164      68F1D0D8 
 164      93CB0FEA 
 164      F2A38F
 165 04ff F76CEDD9 		.ascii	"\367l\355\331'+\375J.\257\366=\333\231\245\325\353*"
 165      272BFD4A 
 165      2EAFF63D 
 165      DB99A5D5 
 165      EB2A
 166 0511 5753C88E 		.ascii	"WS\310\216\305~}\277N\363\222\262G\327v\2474\010f\325"
 166      C57E7DBF 
 166      4EF392B2 
 166      47D776A7 
 166      340866D5 
 167 0525 6C2EBFDF 		.ascii	"l.\277\337\024\250$\370\007\340=\203u"
 167      14A824F8 
 167      07E03D83 
 167      75
 168              		.text
 169              		.section	.gnu.lto_test_008_003_setup.a8ca9c04ac466a28,"",%progbits
 170 0000 789C6362 		.ascii	"x\234cb`b@\007\222@\274\012\210\215\201\230\221\231"
 170      60624007 
 170      9240BC0A 
 170      888D8198 
 170      9199
 171 0012 819169C2 		.ascii	"\201\221i\3029\006\206F\016&FF\020\203\201\221\241\236"
 171      39068646 
 171      0E264646 
ARM GAS  /tmp/cc0h7QKQ.s 			page 13


 171      10838191 
 171      A19E
 172 0024 89B13E92 		.ascii	"\211\261>\222\021\254v=\323\201\007\377\377\257\373"
 172      11AC763D 
 172      D38107FF 
 172      FFAFFB
 173 0033 3079F91A 		.ascii	"0y\371\032\306\363L\314@\021V\206\226\206\206\011\012"
 173      C6F34CCC 
 173      40115686 
 173      96868609 
 173      0A
 174 0044 0C0CC960 		.ascii	"\014\014\311`\025!@\022\244-\224\221\011D3\237gh{\360"
 174      15214012 
 174      A42D9491 
 174      0944339F 
 174      67687BF0 
 175 0058 73255722 		.ascii	"s%W\"\343BFV\240t5\303\257\206\216\006\201LF\240r\210"
 175      E3424656 
 175      A07435C3 
 175      AF868E06 
 175      814C46A0 
 176 006e 8920118E 		.ascii	"\211 \021\216LF\306\\F\006\250\"\210\232\206\302LF\246"
 176      4C46C65C 
 176      4606A822 
 176      889A86C2 
 176      4C46A6
 177 0081 5C4646A8 		.ascii	"\\FF\250`\004c&#3\013C&#\013\003\303E\206\306\007\277"
 177      60046326 
 177      23330B43 
 177      26230B03 
 177      C34586C6 
 178 0097 34614642 		.ascii	"4aFB@\010\3208\240} \337\031\352\351\351CPIjq\211~Q"
 178      4008D038 
 178      A07D20DF 
 178      19EAE9E9 
 178      4350496A 
 179 00af 897E717E 		.ascii	"\211~q~iQr*\204\013\"\342\213S\013KS\363\222S\343\015"
 179      6951722A 
 179      840B22E2 
 179      8B530B4B 
 179      53F39253 
 180 00c5 0C2CF492 		.ascii	"\014,\364\222\031\000\340\277>\240"
 180      1900E0BF 
 180      3EA0
 181              		.text
 182              		.section	.gnu.lto_test_008_002_setup.a8ca9c04ac466a28,"",%progbits
 183 0000 789C6362 		.ascii	"x\234cb`b@\007\222@\274\012\210\215\201\230\221\231"
 183      60624007 
 183      9240BC0A 
 183      888D8198 
 183      9199
 184 0012 819169C2 		.ascii	"\201\221i\3029\006\206F\016&FF\020\203\201\221\241\236"
 184      39068646 
 184      0E264646 
 184      10838191 
 184      A19E
 185 0024 89B13E92 		.ascii	"\211\261>\222\021\254v=\323\201\007\377\377\257\233"
ARM GAS  /tmp/cc0h7QKQ.s 			page 14


 185      11AC763D 
 185      D38107FF 
 185      FFAF9B
 186 0033 D7B77C0E 		.ascii	"\327\267|\016\343N&f\240\010+CKC\303\004\005\006\206"
 186      E34E2666 
 186      A0082B43 
 186      4B43C304 
 186      050686
 187 0046 64B08A10 		.ascii	"d\260\212\020 \011\322\026\312\310\004\242\231\3173"
 187      2009D216 
 187      CAC804A2 
 187      99CF33
 188 0055 B43D98B1 		.ascii	"\264=\230\261\234+\221q!#+P\272\232\341WCG\203@&#P9"
 188      9C2B9171 
 188      21232B50 
 188      BA9AE157 
 188      43478340 
 189 006d C4449008 		.ascii	"\304D\220\010G&#c.#\003T\021DMCa&#S.##T0\2021\223\221"
 189      47262363 
 189      2E230354 
 189      11444D43 
 189      61262353 
 190 008a 99852193 		.ascii	"\231\205!\223\221\205\201\341\"C\343\203\231\3520#!"
 190      918581E1 
 190      2243E383 
 190      99EA3023 
 190      21
 191 009b 2004681C 		.ascii	" \004h\034\320>\220\357\014\365\364\364!\250$\265\270"
 191      D03E90EF 
 191      0CF5F4F4 
 191      21A824B5 
 191      B8
 192 00ac 44BFA844 		.ascii	"D\277\250D\2778\277\264(9\025\302\005\021\361\305\251"
 192      BF38BFB4 
 192      283915C2 
 192      0511F1C5 
 192      A9
 193 00bd 85A5A979 		.ascii	"\205\245\251y\311\251\361\006\006\026z\311\014\000 "
 193      C9A9F106 
 193      06167AC9 
 193      0C0020
 194 00cc 493D5D   		.ascii	"I=]"
 195              		.text
 196              		.section	.gnu.lto_test_008_001_setup.a8ca9c04ac466a28,"",%progbits
 197 0000 789C6362 		.ascii	"x\234cb`b@\007\222@\274\012\210\215\201\230\221\231"
 197      60624007 
 197      9240BC0A 
 197      888D8198 
 197      9199
 198 0012 819169C2 		.ascii	"\201\221i\3029\006\206F\016&FF\020\203\201\221\241\236"
 198      39068646 
 198      0E264646 
 198      10838191 
 198      A19E
 199 0024 89B13E92 		.ascii	"\211\261>\222\021\254v=\323\201\007\377\377\257\273"
 199      11AC763D 
 199      D38107FF 
ARM GAS  /tmp/cc0h7QKQ.s 			page 15


 199      FFAFBB
 200 0033 D5B6FC0F 		.ascii	"\325\266\374\017\343,&f\240\010+CKC\303\004\005\006"
 200      E32C2666 
 200      A0082B43 
 200      4B43C304 
 200      0506
 201 0045 8664B08A 		.ascii	"\206d\260\212\020 \011\322\026\312\310\004\242\231\317"
 201      102009D2 
 201      16CAC804 
 201      A299CF
 202 0054 33B43D58 		.ascii	"3\264=X\267\230+\221q!#+P\272\232\341WCG\203@&#P9\304"
 202      B7982B91 
 202      7121232B 
 202      50BA9AE1 
 202      57434783 
 203 006e 44900847 		.ascii	"D\220\010G&#c.#\003T\021DMCa&#S.##T0\2021\223\221\231"
 203      2623632E 
 203      23035411 
 203      444D4361 
 203      2623532E 
 204 008b 85219391 		.ascii	"\205!\223\221\205\201\341\"C\343\203\365\3120#! \004"
 204      8581E122 
 204      43E383F5 
 204      CA302321 
 204      2004
 205 009d 681CD03E 		.ascii	"h\034\320>\220\357\014\365\364\364!\250$\265\270D\277"
 205      90EF0CF5 
 205      F4F421A8 
 205      24B5B844 
 205      BF
 206 00ae A844BF38 		.ascii	"\250D\2778\277\264(9\025\302\005\021\361\305\251\205"
 206      BFB42839 
 206      15C20511 
 206      F1C5A985 
 207 00be A5A979C9 		.ascii	"\245\251y\311\251\361\006\006\026z\311\014\000\217+"
 207      A9F10606 
 207      167AC90C 
 207      008F2B
 208 00cd 3DF6     		.ascii	"=\366"
 209              		.text
 210              		.section	.gnu.lto_test_008_002_execute.a8ca9c04ac466a28,"",%progbits
 211 0000 789CCD9A 		.ascii	"x\234\315\232}lS\327\025\300\317}\266\023'v> \337!8"
 211      7D6C53D7 
 211      15C0CF7D 
 211      B6132776 
 211      3E20DF21 
 212 0015 CE171F01 		.ascii	"\316\027\037\001\022`\210\322\015Qh\306\037\014\241"
 212      126088D2 
 212      0D5168C6 
 212      1F0CA1
 213 0024 96854A63 		.ascii	"\226\205Jc\210F\316\343\221X\304q\032;\203\024\2518"
 213      8846CEE3 
 213      9158C471 
 213      1A3B8314 
 213      A938
 214 0036 5F409B02 		.ascii	"_@\233\002Y7M\254\335h\273BYW\255h0i\250\320\222\262"
 214      59374DAC 
ARM GAS  /tmp/cc0h7QKQ.s 			page 16


 214      DD68BB42 
 214      5957AD68 
 214      3069A8D0 
 215 004c AD84A50B 		.ascii	"\255\204\245\013\243e\037 A\323A\207\266\264\250\243"
 215      A3651F20 
 215      41D34187 
 215      B6B4A8A3 
 216 005c ED966D90 		.ascii	"\355\226m\220\354\234\373>l\223\033\022\307\226\222"
 216      EC9CFB3E 
 216      6C931B12 
 216      C79692
 217 006b 2772EC7B 		.ascii	"'r\354{\356\275\347\236{\336\357\336w\3173\022Hp\357"
 217      EEBDE79E 
 217      7BDEEFDE 
 217      77CF3312 
 217      4870EF
 218 007e 75930164 		.ascii	"u\223\001d\226\001\344b\025\233\015L\352\352\003h\261"
 218      9601E462 
 218      159B0D4C 
 218      EAEA0368 
 218      B1
 219 008f 4A92E9F4 		.ascii	"J\222\351\364\003\020H4_\312\204\200\335\304JT\265Y"
 219      03104834 
 219      5FCA8480 
 219      DDC44A54 
 219      B559
 220 00a1 B270751C 		.ascii	"\262pu\034W[tu\234\024\317\325V\256\216\327\325V)\201"
 220      575B7475 
 220      9C14CFD5 
 220      56AE8ED7 
 220      D5562981 
 221 00b5 AB13B93A 		.ascii	"\253\023\271:AW'J\266\275\263Qm'i\267\351j;KQ\277$I"
 221      4157274A 
 221      B6BDB351 
 221      6D2769B7 
 221      E96A3B4B 
 222 00cd 25674D58 		.ascii	"%gMX\237\334\367;\300\006\311\252\376\035k\212\224\364"
 222      9FDCF73B 
 222      C006C9AA 
 222      FE1D6B8A 
 222      94F4
 223 00df DE57519F 		.ascii	"\336WQ\237\372\2334T\247J%\334\3704n|\2324\235\227\322"
 223      FA9B3454 
 223      A74A25DC 
 223      F8346E7C 
 223      9A349D97 
 224 00f4 7869BA6E 		.ascii	"xi\272n3MJ\347\352\014\256N\327\325\031R&\367 \213{"
 224      334D4AE7 
 224      EA0CAE4E 
 224      D7D51952 
 224      26F7208B 
 225 0109 90A9ABB3 		.ascii	"\220\251\253\263X\256\372%[\363 G\365 G\325\277c\315"
 225      58AEFA25 
 225      5BF32047 
 225      F52047D5 
 225      BF63CD
 226 011c 95B2BB57 		.ascii	"\225\262\273W\240~\306\037RP=C\363 \217\033\317\323"
ARM GAS  /tmp/cc0h7QKQ.s 			page 17


 226      A07EC61F 
 226      52503D43 
 226      F3208F1B 
 226      CFD3
 227 012e 4A337969 		.ascii	"J3yi\246Vr\360\222C\312\347%'/\345\353\3439\245\002"
 227      A65672F0 
 227      9243CAE7 
 227      25272FE5 
 227      EBE339A5 
 228 0143 AE2EE4EA 		.ascii	"\256.\344\352\002]]\250\365-\342\352\"\251\344R9\226"
 228      025D5DA8 
 228      F52DE2EA 
 228      22A9E452 
 228      3996
 229 0155 8A4F3BB0 		.ascii	"\212O;\260T\314f\251\215J\364/\263\030\243/\300`\227"
 229      54CC66A9 
 229      8D4AF42F 
 229      B318A32F 
 229      C06097
 230 0168 64325BE2 		.ascii	"d2[\342\342\255\011\2116{RrJ\352\264\351i\351\031\231"
 230      E2AD0989 
 230      367B5272 
 230      4AEAB4E9 
 230      69E91999 
 231 017c 59D939B9 		.ascii	"Y\3319\2713\362f:\362\235\005\205E\305%\263\330\256"
 231      33F2663A 
 231      F29D0585 
 231      45C525B3 
 231      D8AE
 232 018e 8D8C6EBC 		.ascii	"\215\214n\274\271\020^\016\004\272\372;^\275-\375\360"
 232      B9105E0E 
 232      04BAFA3B 
 232      5EBD2DFD 
 232      F0
 233 019f FBDDED2F 		.ascii	"\373\335\355/\005\356\014\0173\346f\010\311\022\006"
 233      05EE0C0F 
 233      33E66608 
 233      C91206
 234 01ae 32836F61 		.ascii	"2\203oa\2019\371\207d\016\247F\355\333}\261\357\331"
 234      8139F987 
 234      640EA746 
 234      EDDB7DB1 
 234      EFD9
 235 01c0 9CC04BAD 		.ascii	"\234\300K\255]\201!\354\352f&\011\2766\236\236\335]"
 235      5D8121EC 
 235      EA662609 
 235      BE369E9E 
 235      DD5D
 236 01d2 81335B7A 		.ascii	"\2013[z\002\355\335\303\303\017\361^+\3075\336s\335"
 236      02EDDDC3 
 236      C30FF15E 
 236      2BC735DE 
 236      73DD
 237 01e4 1FECDF1F 		.ascii	"\037\354\337\037:\236Y\202\325c\365<&u\367\017\017\337"
 237      3A9E5982 
 237      D563F53C 
 237      2675F70F 
ARM GAS  /tmp/cc0h7QKQ.s 			page 18


 237      0FDF
 238 01f6 F9BCFFAF 		.ascii	"\371\274\377\257=,\375W\214\201\213\035e\2058G\3653"
 238      3D2CFD57 
 238      8C818B1D 
 238      65853847 
 238      F533
 239 0208 11DCCC62 		.ascii	"\021\334\314b'\221N\"\223D.\211<\022N\024q\005$\012"
 239      27914E22 
 239      93442E89 
 239      3C124E14 
 239      7105240A 
 240 021c A9584C62 		.ascii	"\251XLb\016\025\347\222(\245\342|\022\213P\230\027\243"
 240      0E15E792 
 240      28A5E27C 
 240      128B5098 
 240      17A3
 241 022e 802568F7 		.ascii	"\200%h\367\025\264\273\224\324\313H<\250\215\264\\\253"
 241      15B4BB94 
 241      D4CB483C 
 241      A88DB45C 
 241      AB
 242 023f 5941CA95 		.ascii	"YA\312\225$*H\254&\261\206\304Z\022\217\220\341GI\254"
 242      242A48AC 
 242      26B186C4 
 242      5A128F90 
 242      E14749AC 
 243 0253 A7622589 		.ascii	"\247b%\211\215Z\317MT\330L\342q\324\274\214\232*,\304"
 243      8D5ACF4D 
 243      54D84CE2 
 243      71D4BC8C 
 243      9A2A2CC4 
 244 0267 BBB40164 		.ascii	"\273\264\001d\252Q\310\223\255\344I\255\326\313M\352"
 244      AA51C893 
 244      ADE449AD 
 244      D6CB4DEA 
 245 0277 6D243C9A 		.ascii	"m$<\232\246\236\012\015$|$\232H4\223\330I\342)\032|"
 245      A69E0A0D 
 245      247C249A 
 245      483493D8 
 245      49E2291A 
 246 028c 178900A3 		.ascii	"\027\211\000\243r+\227m$\343\332\271\354\340\232=\\"
 246      722B976D 
 246      24E3DAB9 
 246      ECE09A3D 
 246      5C
 247 029d 3E43123A 		.ascii	">C\022:\271|\226\313}\\\356\347\362\000\227]\\\342e"
 247      B97C96CB 
 247      7D5CEEE7 
 247      F200975D 
 247      5CE265
 248 02b0 8176A4C6 		.ascii	"\201v\244\306\251z\341bG\270$\327\201n\"^\033P\022\314"
 248      A97AE162 
 248      47B824D7 
 248      816E225E 
 248      1B5012CC 
 249 02c4 8F31893E 		.ascii	"\2171\211>M\277\207\326\223\007\007r\\\3545f\201\027"
 249      4DBF87D6 
ARM GAS  /tmp/cc0h7QKQ.s 			page 19


 249      93070772 
 249      5CEC3566 
 249      8117
 250 02d6 E0F99640 		.ascii	"\340\371\226@ \025\347\267\023\376\033\330K\337\254"
 250      2015E7B7 
 250      13FE1BD8 
 250      4BDFAC
 251 02e5 1EDE8DEE 		.ascii	"\036\336\215\356\273\025\364of\322\365A\313/\016\\\227"
 251      BB15F46F 
 251      66D2F541 
 251      CB2F0E5C 
 251      97
 252 02f6 B511F5A1 		.ascii	"\265\021\365\241\273o\036\370\3246\307(\235\371\301"
 252      BB6F1EF8 
 252      D436C728 
 252      9DF9C1
 253 0305 A02DCF28 		.ascii	"\240-\317(\275\365\243\253)F\241\363\317\225\000\352"
 253      BDF5A3AB 
 253      2946A1F3 
 253      CF9500EA 
 254 0315 B83223C6 		.ascii	"\2702#\306$\3743\341\237\206\027\303\215\323\244n\247"
 254      24FC33E1 
 254      9F8617C3 
 254      8DD3A46E 
 254      A7
 255 0326 0EF88CFD 		.ascii	"\016\370\214\3758pp\245\233%\250u\347\241\325j {\246"
 255      387070A5 
 255      9B25A875 
 255      E7A1D56A 
 255      207BA6
 256 0339 2F0CD944 		.ascii	"/\014\331D\011\006\331X\314\252\363\353\276\332'a\007"
 256      0906D958 
 256      CCAAF3EB 
 256      BEDA2761 
 256      07
 257 034a 0F63AA1F 		.ascii	"\017c\252\037\252\345\317\356\234;~\321\004\340a\222"
 257      AAE5CFEE 
 257      9C3B7ED1 
 257      04E06192 
 258 035a 1106DB3C 		.ascii	"\021\006\333<\370Y\000\257]nf\307\346\325,\304\026\206"
 258      F85900AF 
 258      5D6E66C7 
 258      E6D52CC4 
 258      1686
 259 036c F0CD8E7F 		.ascii	"\360\315\216\177\240\246\206=\303\214\020&\251}\373"
 259      A0A6863D 
 259      C38C1026 
 259      A97DFB
 260 037b 7F3B3037 		.ascii	"\177;07l\010\362\306VlL\203\006\313\241\261L8\\\370"
 260      6C08F2C6 
 260      566C4C83 
 260      06CBA1B1 
 260      4C385CF8 
 261 038f C4FA4F7C 		.ascii	"\304\372O|\360\247\367\331sm\001u\035\263|\354(\301"
 261      F0A7F7D9 
 261      736D0175 
 261      1DB37CEC 
ARM GAS  /tmp/cc0h7QKQ.s 			page 20


 261      28C1
 262 03a1 7989E666 		.ascii	"y\211\346f\271\317\334\320\0269\325v\341\327\030bu\324"
 262      B9CFDCD0 
 262      1639D576 
 262      E1D71862 
 262      75D4
 263 03b3 1A9648CE 		.ascii	"\032\226H\316Qk\240\326\027\300\242W\330\2159&\313,"
 263      516BA0D6 
 263      17C0A257 
 263      D88D3926 
 263      CB2C
 264 03c5 8E1BC0D6 		.ascii	"\216\033\300\326\244\314v\263\024\007\274'\251\221O"
 264      A4CC76B3 
 264      1407BC27 
 264      A9914F
 265 03d4 D5EE1582 		.ascii	"\325\356\025\2026\015\240\007\332?a\206\011\262k\011"
 265      360DA007 
 265      DA3F6186 
 265      09B26B09 
 266 03e4 75E13174 		.ascii	"u\3411t\341\364\003&D\344\237\007\332>d#\031\031\262"
 266      E1F40326 
 266      44E49F07 
 266      DA3E6423 
 266      1919B2
 267 03f7 E58730F2 		.ascii	"\345\2070\362b\222\303@7\004\226\301Q`\211\307?\016"
 267      6292C340 
 267      370496C1 
 267      516089C7 
 267      3F0E
 268 0409 A38C3CC8 		.ascii	"\243\214<\310,Q\347\345/\322h\274\250>\231\341R\346"
 268      2C51E7E5 
 268      2FD268BC 
 268      A83E99E1 
 268      52E6
 269 041b A4F9E462 		.ascii	"\244\371\344b\3572\207\001\314\311\301[\221\2569ibk"
 269      EF328701 
 269      CCC9C15B 
 269      91AE3969 
 269      626B
 270 042d AEF7DA75 		.ascii	"\256\367\332uS\320\315\321\327\230\213\035\327\375\273"
 270      53D0CDD1 
 270      D7988B1D 
 270      D7FDBB
 271 043c 00EDFD6F 		.ascii	"\000\355\375o\337\214\327\327\204\341\327t\231\331\214"
 271      DF8CD7D7 
 271      84E1D774 
 271      99D98C
 272 044b D5630DA3 		.ascii	"\325c\015\243\332\315\322\270w\023\017m\357\207m\226"
 272      DACDD2B8 
 272      77130F6D 
 272      EF876D96 
 273 045b A09FE30D 		.ascii	"\240\237\343\015%\037\362\372\365\354\211\357B7\306"
 273      251FF2FA 
 273      F5EC89EF 
 273      4237C6
 274 046a BD0B8544 		.ascii	"\275\013\205D\350\276\373\217\213\375\222[\031\307\376"
 274      E8BEFB8F 
ARM GAS  /tmp/cc0h7QKQ.s 			page 21


 274      8BFD925B 
 274      19C7FE
 275 0479 F3DD0BB1 		.ascii	"\363\335\013\261\335\177:G\356?\035\267#\337\177\\\354"
 275      DD7F3A47 
 275      EE3F1DB7 
 275      23DF7F5C 
 275      EC
 276 048a 4D7C6484 		.ascii	"M|d\204\354#7\214}$\235\006\021\355#\231\242}$]\333"
 276      EC23378C 
 276      7D249D06 
 276      11ED2399 
 276      A27D245D 
 277 049f 47D21DF0 		.ascii	"G\322\035\360\221\266\217d\214\276\217d\012\366\021"
 277      91B68F64 
 277      8CBE8F64 
 277      0AF611
 278 04ae 0B74A6C6 		.ascii	"\013t\246\306r\315\336\230\340\232U\275\211\203\363"
 278      72CDDE98 
 278      E09A55BD 
 278      8983F3
 279 04bd 7153C19B 		.ascii	"qS\301\233\250\261\357\235T\354\277'\306\376\350)\025"
 279      A8B1EF9D 
 279      54ECBF27 
 279      C6FEE829 
 279      15
 280 04ce 7BF3E8D8 		.ascii	"{\363\350\330\207p\037\202\375\263#\261?\"\302>;\004"
 280      87701F82 
 280      FDB323B1 
 280      3F22C23E 
 280      3B04
 281 04e0 FBA3A774 		.ascii	"\373\243\247t\354\315c?v]\354\024\237\233}\\\217\335"
 281      ECCD633F 
 281      765DEC14 
 281      9F9B7D5C 
 281      8FDD
 282 04f2 DEE072C9 		.ascii	"\336\340r\311%\347\370r\201\360\345\222'Z.\271\301\307"
 282      25E7F872 
 282      81F0E592 
 282      275A2EB9 
 282      C1C7
 283 0504 EE27633F 		.ascii	"\356'c?v\363\004\313%\036\376h\216!\240\275\321-\027"
 283      76F304CB 
 283      251EFE68 
 283      8E21A0BD 
 283      D12D17
 284 0517 2B7CC1A6 		.ascii	"+|\301\246\2027\321?%>\236\310rAB\277\255\337,\347<"
 284      8237D13F 
 284      253E9EC8 
 284      724142BF 
 284      ADDF2CE7 
 285 052c 28C583BD 		.ascii	"(\305\203\275\301ip\273$HA\005T\235D5\323\337!\204\032"
 285      C16970BB 
 285      24484105 
 285      549D4435 
 285      D3DF2184 
 286 0541 2888C480 		.ascii	"(\210\304\200\3110\320v\301\244[(D/\320N\030\206\305"
 286      C930D076 
ARM GAS  /tmp/cc0h7QKQ.s 			page 22


 286      C1A45B28 
 286      442FD04E 
 286      1886C5
 287 0554 220C0B35 		.ascii	"\"\014\0135\014\263\0340\250a\230=:\206\305\002\014"
 287      0CB31C30 
 287      A861983D 
 287      3A86C502 
 287      0C
 288 0565 13E0E7B1 		.ascii	"\023\340\347\261\274\361a\341\217\034\303D8\007S\301"
 288      BCF161E1 
 288      8F1CC344 
 288      380753C1 
 289 0575 9BE877ED 		.ascii	"\233\350w\355\2501\234\023-\206s#1`6\014\204`X\212^"
 289      A8319C13 
 289      2D867323 
 289      3160360C 
 289      8460588A 
 290 058a A09D300C 		.ascii	"\240\2350\014\347\2130,\3250\314q\300\013&\025\303\334"
 290      E78B302C 
 290      D530CC71 
 290      C00B2615 
 290      C3DC
 291 059c D1319C2F 		.ascii	"\3211\234/\300\320\006E\261\334~\242\243\320>5\234\341"
 291      C0D00645 
 291      B1DC7EA2 
 291      A3D03E35 
 291      9CE1
 292 05ae 09FFBF22 		.ascii	"\011\377\277\"M>hC\301\207d\377\225=ZZ\240\276U\340"
 292      4D3E6843 
 292      C18764FF 
 292      953D5A5A 
 292      A0BE55E0 
 293 05c2 75C12926 		.ascii	"u\301)&\301Um\241EHy\357\247\241\207\377qR\335\266\267"
 293      C1556DA1 
 293      454879EF 
 293      A7A187FF 
 293      7152DDB6 
 294 05d7 EDF343DF 		.ascii	"\355\363C\337\320\357\377\242\032\306\037\264\346\207"
 294      D0EFFFA2 
 294      1AC61FB4 
 294      E687
 295 05e5 D549DE6A 		.ascii	"\325I\336j{\333`c1V\023o\035\335y\272j\2111\341\031"
 295      7BDB6063 
 295      3156136F 
 295      1DDD79BA 
 295      6A8931E1 
 296 05fa 32FA4D97 		.ascii	"2\372M\227\252\011T\205\235\033\260\263\233\345\361"
 296      AA095485 
 296      9D1BB0B3 
 296      9BE5F1
 297 0609 C9EB9DD5 		.ascii	"\311\353\235\325\227+h\"\332\214\347\326+\023\310xh"
 297      972B6822 
 297      DA8CE7D6 
 297      2B13C878 
 297      68
 298 061a 2DB5FDEF 		.ascii	"-\265\375\357P\274>\221\245\350\210\350\200\261L\264"
 298      50BC3E91 
ARM GAS  /tmp/cc0h7QKQ.s 			page 23


 298      A5E888E8 
 298      80B14CB4 
 299 062a A4966A4B 		.ascii	"\244\226jKj\246\003\336\322\226\224c\364%\265L\260\244"
 299      6AA603DE 
 299      D2969463 
 299      F425B54C 
 299      B0A4
 300 063c 92E132BD 		.ascii	"\222\3412\2754\302\330\017\034Z\2537|P\217=\343\230"
 300      34C2D80F 
 300      1C5AAB37 
 300      7C508F3D 
 300      E398
 301 064e 48A18860 		.ascii	"H\241\210`\255\3367\005\356\202I\3170\324:\306\207\374"
 301      ADDE3705 
 301      EE8249CF 
 301      30D43AC6 
 301      87FC
 302 0660 5B8B4D37 		.ascii	"[\213M7\305\214\\W\275.\003\323 \263\367\230\320V\362"
 302      C58C5C57 
 302      BD2E03D3 
 302      20B3F798 
 302      D056F2
 303 0673 C9043295 		.ascii	"\311\0042\225\012\371\023\002\255\363\213\011d\303\035"
 303      0AF91302 
 303      ADF38B09 
 303      64C31D
 304 0682 FD7F3F17 		.ascii	"\375\177?\027\247;\270<\024\234\344Pp\232F\0348M\253"
 304      A73BB83C 
 304      149CE450 
 304      709A461C 
 304      384DAB
 305 0695 C0802737 		.ascii	"\300\200'7\034\236\345Q\302\323\371\345D\322e\016\317"
 305      1C9EE551 
 305      C2D3F9E5 
 305      44D2650E 
 305      CF
 306 06a6 B1170D48 		.ascii	"\261\027\015HV\240#\"xV\212\340Y\021\021<+\005\360L"
 306      56A02322 
 306      78568AE0 
 306      5911113C 
 306      2B05F04C 
 307 06ba 8304F585 		.ascii	"\203\004\365\205\343P\244\373\017\335\241\250_8\336"
 307      E350A4FB 
 307      0FDDA1A8 
 307      5F38DE
 308 06c9 9DCC9CE7 		.ascii	"\235\314\234\347\313\030\247\372\373\004\257\032\207"
 308      CB18A7FA 
 308      FB04AF1A 
 308      87
 309 06d6 6290EADF 		.ascii	"b\220\352\3375r\227\012\032DD\307j\021\035\025\032\035"
 309      3572970A 
 309      1A4444C7 
 309      6A111D15 
 309      1A1D
 310 06e8 F90EB8A4 		.ascii	"\371\016\270\244\321\341\034\235\216\325\002:\246CL"
 310      D1E11C9D 
 310      8ED5023A 
ARM GAS  /tmp/cc0h7QKQ.s 			page 24


 310      A6434C
 311 06f7 73EBBB51 		.ascii	"s\353\273Q=\255\323\3004\025\234\211\376\3108\251\320"
 311      3DADD3C0 
 311      34159C89 
 311      FEC838A9 
 311      D0
 312 0708 FF3BC689 		.ascii	"\377;\306\211\376\376\221\320\177,\202~\214D\337\305"
 312      FEFE91D0 
 312      7F2C827E 
 312      8C44DFC5 
 313 0718 764BA1D0 		.ascii	"vK\241\320\367\006\241_C\203\210\336o\255\025A\277F"
 313      F706A15F 
 313      438388DE 
 313      6FAD1541 
 313      BF46
 314 072a 83BEC001 		.ascii	"\203\276\300\001\037i\320\027\216\016\375Z\001\364\351"
 314      1F69D017 
 314      8E0EFD5A 
 314      01F4E9
 315 0739 20C5F254 		.ascii	" \305\362T\030\035\364\031\020\323t}\322\240\357\034"
 315      181DF419 
 315      10D3747D 
 315      D2A0EF1C 
 316 0749 8A364F7A 		.ascii	"\2126OzdbiN\320\300\243Q\247\353\353\321\013\264\023"
 316      6462694E 
 316      D0C0A351 
 316      A7EBEBD1 
 316      0BB413
 317 075c 0661A508 		.ascii	"\006a\245\010\302\365\032\204E\016\030\320 ,\036\035"
 317      C2F51A84 
 317      450E18D0 
 317      202C1E1D 
 318 076c C24A0184 		.ascii	"\302J\001\204\231\020\323\374x(*\010\263\246\2063tN"
 318      9910D3FC 
 318      78282A08 
 318      B3A68633 
 318      744E
 319 077e 39F993DC 		.ascii	"9\371\223\334\010\317)\026u\327\351\357|\372~yR\266"
 319      08CF2916 
 319      75D7E9EF 
 319      7CFA7E79 
 319      52B6
 320 0790 BECE223D 		.ascii	"\276\316\"=\275\276\333\036i\232D\247\327}O\033\331"
 320      BDBEDB1E 
 320      699A44A7 
 320      D77D4F1B 
 320      D9
 321 07a1 C246C3FF 		.ascii	"\302F\303\377\022\031\317\343ti\247\327'\302v\321\235"
 321      1219CFE3 
 321      7469A7D7 
 321      27C276D1 
 321      9D
 322 07b2 F024D2AB 		.ascii	"\360$\322\253\377\200\254\2414K\230\006m\214\366${\356"
 322      FF80ACA1 
 322      344B9806 
 322      6D8CF624 
 322      7BEE
ARM GAS  /tmp/cc0h7QKQ.s 			page 25


 323 07c4 F0444FB2 		.ascii	"\360DO\262g\016\033\023\333\204\216\210"
 323      670E1B13 
 323      DB848E88 
 324 07d0 CE2A9B45 		.ascii	"\316*\233E+fSD'\331\315\202\025\223\203w\020\0119\177"
 324      2B665344 
 324      27D9CD82 
 324      15938377 
 324      1009397F 
 325 07e4 F0D5DB92 		.ascii	"\360\325\333\222\336\356q5\\\034\235\001c\031Wa\005"
 325      DEEE7135 
 325      5C1C9D01 
 325      63195761 
 325      05
 326 07f5 79641EF1 		.ascii	"yd\036\361s\332l\031\323\030\325!\3149\347h)\355\261"
 326      73DA6C19 
 326      D318D521 
 326      CC39E768 
 326      29EDB1
 327 0808 C30FE95D 		.ascii	"\303\017\351]]5L\032=\255r\351\276\344\342#$<\253\222"
 327      5D354C1A 
 327      3DAD72E9 
 327      BEE4E223 
 327      243CAB92 
 328 081c EECDAA24 		.ascii	"\356\315\252$#\211W\257\313 iHfQV\345\312\031\214'K"
 328      238957AF 
 328      CB206948 
 328      665156E5 
 328      CA198C27 
 329 0831 3370E911 		.ascii	"3p\351\0210\317\277fL^6\334\235+Sd\264\011`\360J\035"
 329      30CFBF66 
 329      4C5E36DC 
 329      9D2B5364 
 329      B40960F0 
 330 0847 D0625683 		.ascii	"\320bV\2037\017\014lx\325|\007\354\321\252\026\004\343"
 330      370F0C6C 
 330      78D57C07 
 330      ECD1AA16 
 330      04E3
 331 0859 5A764F5C 		.ascii	"ZvO\\eA\\\221u\236!\014\036\215t\345\305\201\026\300"
 331      65415C91 
 331      759E210C 
 331      1E8D74E5 
 331      C58116C0 
 332 086d A3478C00 		.ascii	"\243G\214\000*\372\314\215w\002\307\215\321\267b5\335"
 332      2AFACC8D 
 332      7702C78D 
 332      D1B76235 
 332      DD
 333 087e 97DD7A66 		.ascii	"\227\335zfV\303j\215!\312e<\215\206,\216\215\367\274"
 333      56C36A8D 
 333      21CA653C 
 333      8D862C8E 
 333      8DF7BC
 334 0891 13D84A56 		.ascii	"\023\330JV\027\016\017\233pZ\213\204\371]\255\206\350"
 334      170E0F9B 
 334      705A8B84 
 334      F95DAD86 
ARM GAS  /tmp/cc0h7QKQ.s 			page 26


 334      E8
 335 08a2 EB470C14 		.ascii	"\353G\014\024\335\250\025!\272M\204\250;\"D\267\011"
 335      DDA81521 
 335      BA4D84A8 
 335      3B2244B7 
 335      09
 336 08b3 423993DF 		.ascii	"B9\223\337\314\335\375\257\2377rW\2171\322b\231~\260"
 336      CCDDFDAF 
 336      9F377257 
 336      8F31D262 
 336      997EB0
 337 08c6 0D4E70D3 		.ascii	"\015Np\323X\253?d\302_\021N\330\243M\370Dp\302\365\250"
 337      58AB3F64 
 337      C25F114E 
 337      D8A34DF8 
 337      4470C2F5 
 338 08db 154DB841 		.ascii	"\025M\270A4\341\372\210&\334 \230\260Cc\347\344\033"
 338      34E1FA88 
 338      26DC2098 
 338      B04363E7 
 338      E41B
 339 08ed 91B283F0 		.ascii	"\221\262\203\360G\235]\366^\3350\231\007\355\367c\233"
 339      479D5DF6 
 339      5EDD3099 
 339      07EDF763 
 339      9B
 340 08fe 5D1E101C 		.ascii	"]\036\020\034\264\337(\215:\273\304 \351w\320G\203\210"
 340      B4DF288D 
 340      3ABBC420 
 340      E977D047 
 340      8388
 341 0910 0EDA4D22 		.ascii	"\016\332M\":|\021\375\220\334$\240#?\246\307\212\260"
 341      3A7C11FD 
 341      90DC24A0 
 341      233FA6C7 
 341      8AB0
 342 0922 BB1DF919 		.ascii	"\273\035\371\031\30795\234\211\376\240}m2\241\377\217"
 342      C739359C 
 342      89FEA07D 
 342      6D32A1FF 
 342      8F
 343 0933 18FA0967 		.ascii	"\030\372\011g\227]\202\377=qL\000}\204\331%\006I\007"
 343      975D82FF 
 343      3D714C00 
 343      7D84D925 
 343      064907
 344 0946 B3990611 		.ascii	"\263\231\006\021m\211;E\3207G\364s\360N\001\364\005"
 344      6D893B45 
 344      D03747F4 
 344      73F04E01 
 344      F405
 345 0958 B13D4B5F 		.ascii	"\261=K_\213\012\372\302\251\341\014\336\360+?=f\234"
 345      8B0AFAC2 
 345      A9E10CDE 
 345      F02B3F3D 
 345      669C
 346 096a DA9E8AF6 		.ascii	"\332\236\212\366\027\261]Qgz\001\206n\240\2410\"Z\231"
ARM GAS  /tmp/cc0h7QKQ.s 			page 27


 346      17B15D51 
 346      677A0186 
 346      6EA0A130 
 346      225A99
 347 097d 0889008B 		.ascii	"\010\211\000\213\350\267\331V&\200\242H}N^\351\011\006"
 347      E8B7D956 
 347      2680A248 
 347      7D4E5EE9 
 347      0906
 348 098f A18D451B 		.ascii	"\241\215E\033\205\366\210,\230Ea\350`\344\010\231\012"
 348      85F6882C 
 348      984561E8 
 348      60E40899 
 348      0A
 349 09a0 0BC41E61 		.ascii	"\013\304\036a :\364@\214\357\327\301=\242@\024\363@"
 349      203AF440 
 349      8CEFD7C1 
 349      3DA24014 
 349      F340
 350 09b2 9C1D300E 		.ascii	"\234\0350\016\326t\336Y\002'\002{\351\335\275\321\254"
 350      D674DE59 
 350      0227027B 
 350      E9DDBDD1 
 350      AC
 351 09c3 44FB8FB2 		.ascii	"D\373\217\262g\007z\006\330\375\233\316\342M/B\2135"
 351      67077A06 
 351      D8FD9BCE 
 351      E24D2F42 
 351      8B35
 352 09d5 38CE069C 		.ascii	"8\316\006\234=j)h\213\312\312\312\325\177~\305\347/"
 352      3D6A2968 
 352      8BCACACA 
 352      D57F7EC5 
 352      E72F
 353 09e7 6FF497FB 		.ascii	"o\364\227\373\274M\215\262\242\026IT\371\224'\232\224"
 353      BC4D8DB2 
 353      A2164954 
 353      F994279A 
 353      94
 354 09f8 7A59A95A 		.ascii	"zY\251Z\270pY\231\014q\036_\315\342\262\205f\374XDb"
 354      B8705999 
 354      0C711E5F 
 354      CDE2B285 
 354      66FC5844 
 355 0a0d 3173078D 		.ascii	"1s\007\215x}\345\262\327\343\361\326\227+;\374\345\025"
 355      787DE5B2 
 355      D7E3F1D6 
 355      972B3BFC 
 355      E515
 356 0a1f EB2AD754 		.ascii	"\353*\327T\226\273\353\345\272\246-J\271\354\361\271"
 356      96BBEBE5 
 356      BAA62D4A 
 356      B9ECF1B9 
 357 0a2f 7D5535B2 		.ascii	"}U5\262\\V\013\013\004=\032\274\215~_\371\252o\256\253"
 357      5C560B0B 
 357      043D1ABC 
 357      8D7E5FF9 
ARM GAS  /tmp/cc0h7QKQ.s 			page 28


 357      AA6FAEAB 
 358 0a43 58B7A35C 		.ascii	"X\267\243\\\256\225\275\215J\325w\226z\260u~hkt\321"
 358      AE95BD8D 
 358      4AD57796 
 358      7AB0757E 
 358      686B74D1 
 359 0a57 B058EB6B 		.ascii	"\260X\353k\366\335[_\353\252\303\017\024\330\220>\261"
 359      F6DD5B5F 
 359      EBAAC30F 
 359      14D8903E 
 359      B1
 360 0a68 DE2A37F8 		.ascii	"\336*7\370\334[\234n\210\367(\036oc3\230<\325\015\363"
 360      DC5B9C6E 
 360      88F7281E 
 360      6F633398 
 360      3CD50DF3 
 361 0a7c 052E787D 		.ascii	"\005.x}u\356\352\020\363\236j\357\016e\304\010\341\036"
 361      75EEEA10 
 361      F39E6AEF 
 361      0E65C408 
 361      E11E
 362 0a8e 28E4A1E4 		.ascii	"(\344\241\344k\260mo\364\326\3278}\356'\025u@\005\007"
 362      6BB06D6F 
 362      F4D6D738 
 362      7DEE2715 
 362      75400507 
 363 0aa2 4CACF7FA 		.ascii	"L\254\367\372\235\212\247\301\337\0146\237\337]W\347"
 363      9D8AA7C1 
 363      DF0C369F 
 363      DF5D57E7 
 364 0ab2 DCDA5457 		.ascii	"\334\332TW\007\205\333\033\335~\305\331\340u\327\373"
 364      0785DB1B 
 364      DD7EC5D9 
 364      E075D7FB 
 365 0ac2 95462735 		.ascii	"\225F'5r\325\271k\352\225-N\277\327Y\355\362)P\320\250"
 365      72D5B96B 
 365      EA952D4E 
 365      BFD759ED 
 365      F22950D0 
 366 0ad7 B8B6DCB7 		.ascii	"\270\266\334\267E\246:\340v\3276eAS\203\323\243\370"
 366      45A63AE0 
 366      76D73665 
 366      415383D3 
 366      A3F8
 367 0ae9 7CAE1A05 		.ascii	"|\256\032\005\354\3528\352\240\011\324\221\017\231\241"
 367      ECEA38EA 
 367      A009D491 
 367      0F99A1
 368 0af8 99F285DA 		.ascii	"\231\362\205\332\002\313\252\207+\276\016i\252\245\032"
 368      02CBAA87 
 368      2BBE0E69 
 368      AAA51A
 369 0b07 C5EFD46F 		.ascii	"\305\357\324o6\374\037\201\375\023n"
 369      36FC1F81 
 369      FD136E
 370              		.text
 371              		.section	.gnu.lto_test_008_001_execute.a8ca9c04ac466a28,"",%progbits
ARM GAS  /tmp/cc0h7QKQ.s 			page 29


 372 0000 789CCD9A 		.ascii	"x\234\315\232}lS\327\025\300\317}\266\023'v>\310\247"
 372      7D6C53D7 
 372      15C0CF7D 
 372      B6132776 
 372      3EC8A7
 373 0013 1382E37C 		.ascii	"\023\202\343|\222\206\022\027D\007bb\264\315\370\203"
 373      92861217 
 373      44076262 
 373      B4CDF883 
 374 0023 A2FCB150 		.ascii	"\242\374\261P\3122\304\207\363x$\026q\034\342\000\001"
 374      CA32C487 
 374      F3782416 
 374      711CE200 
 374      01
 375 0034 8AE29004 		.ascii	"\212\342\220\004\"1-\250\203\215\216N\243\235X\366\241"
 375      22312DA8 
 375      838D8E4E 
 375      A39D58F6 
 375      A1
 376 0045 A91A4C1B 		.ascii	"\251\032L\033\005*R\030_M\007\353\306&\350V-\035\243"
 376      052A5218 
 376      5F4D07EB 
 376      C626E856 
 376      2D1DA3
 377 0058 9D460765 		.ascii	"\235F\007e\233\326\250\264\315\316\271\357#vrMpl)\261"
 377      9BD6A8B4 
 377      CDCEB9EF 
 377      2376724D 
 377      706C29B1 
 378 006c C8B1EFB9 		.ascii	"\310\261\357\271\367\236{\356\271\277\373\336\271\357"
 378      F79E7BEE 
 378      B9BFFBDE 
 378      B9EF
 379 007a 21810463 		.ascii	"!\201\004c?\0372\200_U\002\344c\025\233\015L:p\025\240"
 379      3F1F3280 
 379      5F5502E4 
 379      63159B0D 
 379      4C3A7015 
 380 008f D32A49A6 		.ascii	"\323*I\2463\013!\230l\276\236\003A\273\211\225\251j"
 380      330B2198 
 380      6CBE9E03 
 380      41BB8995 
 380      A96A
 381 00a1 B364E1EA 		.ascii	"\263d\341\352\004\256\266\350\352\004)\221\253\255\\"
 381      04AEB6E8 
 381      EA042991 
 381      ABAD5C
 382 00b0 9DA8ABAD 		.ascii	"\235\250\253\255R\022W'su\222\256N\226l\275\263Qm'i"
 382      52125727 
 382      737592AE 
 382      4E966CBD 
 382      B3516D27 
 383 00c5 B7E96A3B 		.ascii	"\267\351j;KS\177\244He\347LX\237z\365-\300\006\251\252"
 383      4B537FA4 
 383      4865E74C 
 383      589F7AF5 
 383      2DC006A9 
ARM GAS  /tmp/cc0h7QKQ.s 			page 30


 384 00da FE4D6B9A 		.ascii	"\376Mk\232\224\362\366b\324\247\377&\023\325\351R\031"
 384      94F2F662 
 384      D4A7FF26 
 384      13D5E952 
 384      19
 385 00eb 373E831B 		.ascii	"7>\203\033\237!e\360R&/e\35063\245,\256\316\346\352"
 385      9F2165F0 
 385      52262F65 
 385      E83633A5 
 385      2CAECEE6 
 386 0100 2C5D9D2D 		.ascii	",]\235-\345p\017r\271\0079\272:\227\345\253?\034\232"
 386      E5700F72 
 386      B90739BA 
 386      3A97E5AB 
 386      3F1C9A
 387 0113 0779AA07 		.ascii	"\007y\252\007y\252\376Mk\276\344\030\370\012\352g\376"
 387      79AAFE4D 
 387      6BBEE418 
 387      F80AEA67 
 387      FE
 388 0124 2E0DD533 		.ascii	".\015\32535\017\012\270\361\002\2554\213\227fi%'/9\245"
 388      350F0AB8 
 388      F102AD34 
 388      8B976669 
 388      25272F39 
 389 0139 425E72F1 		.ascii	"B^r\361R\241>\236K*\342\352b\256.\322\325\305Z\337\022"
 389      52A13E9E 
 389      4B2AE2EA 
 389      62AE2ED2 
 389      D5C55ADF 
 390 014e AE2E91CA 		.ascii	"\256.\221\312\256\273\261Tz\306\211\245RV\2566*\323"
 390      AEBBB154 
 390      7AC689A5 
 390      5256AE36 
 390      2AD3
 391 0160 7F943346 		.ascii	"\177\2243F?\200A\207d2[\022\022\255I\3116{JjZ\372\214"
 391      3F804187 
 391      64325B12 
 391      12AD49C9 
 391      367B4A6A 
 392 0177 8CCCACEC 		.ascii	"\214\314\254\354\234\\G^\376\314\202Y\316BWQqIiY9\353"
 392      9C5C475E 
 392      FECC8259 
 392      CE425751 
 392      71496959 
 393 018d A863B4F0 		.ascii	"\250c\264\360\346bx%\030<0t\241\377\276\364\322\301"
 393      E6627825 
 393      183C3074 
 393      A1FFBEF4 
 393      D2C1
 394 019f 81EEA3C1 		.ascii	"\201\356\243\301\317FF\030\3632\204d\001\003\231\301"
 394      CF464618 
 394      F3328464 
 394      010399C1 
 395 01af D7B1C05C 		.ascii	"\327\261\300\\\374K2\207S\243\366\035\370\374\3427\363"
 395      FC4B3287 
 395      53A3F61D 
ARM GAS  /tmp/cc0h7QKQ.s 			page 31


 395      F8FCE237 
 395      F3
 396 01c0 8247F71C 		.ascii	"\202G\367\034\010~\201]\275\314$\301\227\037\245\347"
 396      087E815D 
 396      BDCC24C1 
 396      971FA5E7 
 397 01d0 C081E0D9 		.ascii	"\300\201\340\331\215\227\203\335\003##Ky\257\247\036"
 397      8D9783DD 
 397      0323234B 
 397      79AFA71E 
 398 01e0 69BC1707 		.ascii	"i\274\027\007F\366~+t<\263\004\313&\352\371\2324042"
 398      46F67E2B 
 398      743CB304 
 398      CB26EAF9 
 398      9A343034 
 399 01f5 F2975F0F 		.ascii	"\362\227_\017\375\355*\313\350g\014<\254\237\025\343"
 399      FDED2ACB 
 399      E8670C3C 
 399      AC9F15E3 
 400 0205 1CD5EF64 		.ascii	"\034\325\357d\3602\213\235D\006\211,\022\016\022\371"
 400      F0328B9D 
 400      4406892C 
 400      120E12F9 
 401 0215 249C2812 		.ascii	"$\234(\022\012I\270\250XL\242\234\212\263ITP\261\222"
 401      0A49B8A8 
 401      584CA29C 
 401      8AB34954 
 401      50B192
 402 0228 44150AB3 		.ascii	"D\025\012\263\033\005\314C\273?D\273\363I\275\200\304"
 402      1B05CC43 
 402      BB3F44BB 
 402      F349BD80 
 402      C4
 403 0239 93DA480B 		.ascii	"\223\332H\013\265\232E\244\\Lb\011\211\245$\252I,#\261"
 403      B59A45A4 
 403      5C4C6209 
 403      89A524AA 
 403      492C23B1 
 404 024d 9C0C3F4B 		.ascii	"\234\014?Kb\005\025kH\324j=WRa\025\211\347Q\363\012"
 404      6205156B 
 404      48D46A3D 
 404      57526115 
 404      89E751F3 
 405 0262 6A566321 		.ascii	"jVc!\261N\033`\015\325\254%O\326\221'\033\264^\036R"
 405      B14E1B60 
 405      0DD5AC25 
 405      4FD69127 
 405      1BB45E1E 
 406 0277 CB24144D 		.ascii	"\313$\024M\263\211\012\215$6\223\360\221\330B\"@b\033"
 406      B3890A8D 
 406      243693F0 
 406      91D84222 
 406      40621B
 407 028a 0DBE9D44 		.ascii	"\015\276\235D;\025w\222\330E\305\027H\354\246b\007\211"
 407      3B157792 
 407      D845C517 
 407      48ECA662 
ARM GAS  /tmp/cc0h7QKQ.s 			page 32


 407      0789
 408 029c 3D8C46E9 		.ascii	"=\214F\351\342\262\233\313\036.\367r\271\217\313^.\361"
 408      E2B29BCB 
 408      1E2EF772 
 408      B98FCB5E 
 408      2EF1
 409 02ae 63816EE4 		.ascii	"c\201n\344\305\245y\304\216qIN\003-\037~\236CI\030\257"
 409      C5A579C4 
 409      8E71494E 
 409      032D1F7E 
 409      9E434918 
 410 02c3 62127D9B 		.ascii	"b\022}\233~\013{N\336\370\267\303\303~\302,p\004\276"
 410      7E0B7B4E 
 410      DEF8B7C3 
 410      C37EC22C 
 410      7004BE
 411 02d6 D7190CA6 		.ascii	"\327\031\014\246\343\314v\301\247\301^\372e\365\361"
 411      E3CC76C1 
 411      A7C15EFA 
 411      65F5F1
 412 02e5 6EB4E256 		.ascii	"n\264\342V\320\177\231Iw\025:\177\321wK\326F\324\207"
 412      D07F9949 
 412      77153A7F 
 412      D1774BD6 
 412      46D487
 413 02f8 1EF8B0EF 		.ascii	"\036\370\260\357_\266\012\243t\366;\303\266\002\243"
 413      5FB60AA3 
 413      74F63BC3 
 413      B602A3
 414 0307 F4C6CBEF 		.ascii	"\364\306\313\357\245\031\205\375\037|\015@\035WfD\227"
 414      A51985FD 
 414      1F7C0D40 
 414      1D576644 
 414      97
 415 0318 847F26FC 		.ascii	"\204\177&\374\323\300bx\3114\251\027R'|\314\276\037"
 415      D3C06278 
 415      C934A917 
 415      52277CCC 
 415      BE1F
 416 032a 3CFC9497 		.ascii	"<\374\224\227%\251uW`\217\325\200\365\301\3050X\223"
 416      25A97557 
 416      608FD580 
 416      F5C1C530 
 416      5893
 417 033c 25186613 		.ascii	"%\030f\023\321\252\316o\340\245K\022v\3601\246\372\241"
 417      D1AACE6F 
 417      E0A54B12 
 417      76F031A6 
 417      FAA1
 418 034e 5AFEF8B3 		.ascii	"Z\376\370\263K\307\3371\001\370\230d\204\3016\007~\032"
 418      4BC7DF31 
 418      01F89864 
 418      84C13607 
 418      7E1A
 419 0360 C44F8797 		.ascii	"\304O\207\227\331\261y=\013\261\205!<\325\363O\3244"
 419      D9B1793D 
 419      0BB18521 
ARM GAS  /tmp/cc0h7QKQ.s 			page 33


 419      3CD5F34F 
 419      D434
 420 0372 B03DCC08 		.ascii	"\260=\314\010a\212\332w\250\347?\025aC\2207\266Rc\032"
 420      618ADA77 
 420      A8E73F15 
 420      61439037 
 420      B652631A 
 421 0386 34581E8D 		.ascii	"4X\036\215e\302\341\302'6t\342\017\177\372={\261+\250"
 421      65C2E1C2 
 421      273674E2 
 421      0F7FFA3D 
 421      7BB12BA8 
 422 039a EE605688 		.ascii	"\356`V\210\035%\270\"\321\334,\017\231\033\332\"\247"
 422      1D25B822 
 422      D1DC2C0F 
 422      991BDA22 
 422      A7
 423 03ab BAAE9DC7 		.ascii	"\272\256\235\307\020\253\2436\260dr\216Z\003\265\276"
 423      10ABA336 
 423      B064728E 
 423      5A03B5BE 
 424 03bb 0616BDC2 		.ascii	"\006\026\275\302n\3141Uf\011\334\000\266&\245\303\313"
 424      6ECC3155 
 424      6609DC00 
 424      B626A5C3 
 424      CB
 425 03cc D29CF0B6 		.ascii	"\322\234\360\266\244F>][+\004m\006\300e\350\376\210"
 425      A4463E5D 
 425      5B2B046D 
 425      06C065E8 
 425      FE88
 426 03de 1926C8AE 		.ascii	"\031&\310\256%\324\205U\350\302\231\205&D\344~_\327"
 426      25D48555 
 426      E8C29985 
 426      2644E47E 
 426      5FD7
 427 03f0 5FD97846 		.ascii	"_\331xF\276\260\025\2060\362\203\024\247\201n\010,\303"
 427      BEB01586 
 427      30F28314 
 427      A7816E08 
 427      2CC3
 428 0402 116049C4 		.ascii	"\021`I\304?\016\243\214<\310,Y\347\345\206\024\211\027"
 428      3F0EA38C 
 428      3CC82C59 
 428      E7E58614 
 428      8917
 429 0414 D527335C 		.ascii	"\325'3\\\317\2312\237<\354\"s\032\300\234<\371\277h"
 429      CF99329F 
 429      3CEC2273 
 429      1AC09C3C 
 429      F9BF68
 430 0427 F79CC4D7 		.ascii	"\367\234\304\327\255{\350\317\347\023uZ\215\036\031"
 430      AD7BE8CF 
 430      E713755A 
 430      8D1E19
 431 0436 32B3195C 		.ascii	"2\263\031\\[\303x\363\262L\276W\357\367\335\272\345"
 431      5BC378F3 
ARM GAS  /tmp/cc0h7QKQ.s 			page 34


 431      B24CBE57 
 431      EFF7DDBA 
 431      E5
 432 0447 98FC66BD 		.ascii	"\230\374f\275\373\310\233\325\303\216\353\023}\3506"
 432      FBC89BD5 
 432      C38EEB13 
 432      7DE836
 433 0456 F5B05F72 		.ascii	"\365\260_r+\217\260M_\217\3636\355\022l\323O\242\337"
 433      2B8FB04D 
 433      5F8FF336 
 433      ED126CD3 
 433      4FA2DF
 434 0469 A61E760A 		.ascii	"\246\036v\012\257\254!\333\355\256\261\3352h\020\321"
 434      AFAC21DB 
 434      EDAEB1DD 
 434      326810D1 
 435 0479 76CB126D 		.ascii	"v\313\022m\267\014m\273e9\341}m\273eG\336nY\202\355"
 435      B70C6DBB 
 435      6539E17D 
 435      6DBB6547 
 435      DE6E5982 
 436 048e 6681FDE9 		.ascii	"f\201\375\351\361D\373\356$\321V\275I\200+\011\323\301"
 436      F144FBEE 
 436      24D156BD 
 436      49802B09 
 436      D3C1
 437 04a0 9B98B11F 		.ascii	"\233\230\261\037\234R\354O\213\261\357?\255bo\216\214"
 437      9C52EC4F 
 437      8BB1EF3F 
 437      AD626F8E 
 437      8C
 438 04b1 7D08F721 		.ascii	"}\010\367!\330w\217\307\376\230\010{G\010\366\375\247"
 438      D8778FC7 
 438      FE98087B 
 438      4708F6FD 
 438      A7
 439 04c2 75ECCD13 		.ascii	"u\354\315\023\337\235<\3544\237\233\375\221\356N\203"
 439      DF9D3CEC 
 439      349F9BFD 
 439      91EE4E83 
 440 04d2 A3DBC541 		.ascii	"\243\333\305A\316\361\355\002\341\333%_\264]\034\243"
 440      CEF1ED02 
 440      E1DB255F 
 440      B45D1CA3 
 441 04e2 77A78F26 		.ascii	"w\247\217&\276;\345\013\266K\"\374\321\034G@\007c\333"
 441      BE3BE50B 
 441      B64B22FC 
 441      D11C4740 
 441      0763DB
 442 04f5 2E56F82F 		.ascii	".V\370/\233\016\336\304~\227\2707\231\355\202\204~C"
 442      9B0EDEC4 
 442      7E97B837 
 442      99ED8284 
 442      7E43
 443 0507 5F2CE71C 		.ascii	"_,\347\034\250\304\354\327\3404\307X\177\202\024T@\325"
 443      A8C4ECD7 
 443      E034C758 
ARM GAS  /tmp/cc0h7QKQ.s 			page 35


 443      7F821454 
 443      40D5
 444 0519 49D433FD 		.ascii	"I\3243\375\220\035j\2400\032\003&\303@\3275\223n\301"
 444      901D6AA0 
 444      301A0326 
 444      C340D735 
 444      936EC1
 445 052c 855EA09D 		.ascii	"\205^\240\2350\014\213E\030\2724\014s\2350\254a\350"
 445      300C8B45 
 445      18BA340C 
 445      739D30AC 
 445      61E8
 446 053e 888C61B1 		.ascii	"\210\214a\261\000\303$\370y<\027>,\374\321c\230\014"
 446      00C324F8 
 446      793C173E 
 446      2CFCD163 
 446      980C
 447 0550 97603A78 		.ascii	"\227`:x\023\373U;f\014\313c\305pv4\006\314\206\201\020"
 447      13FB553B 
 447      660CCB63 
 447      C5707634 
 447      06CC8681 
 448 0565 0C2BD00B 		.ascii	"\014+\320\013\264\023\206a\245\010\303\012\015\303<"
 448      B4138661 
 448      A508C30A 
 448      0DC33C
 449 0574 271C31A9 		.ascii	"'\0341\251\030\346G\306\260R\200\241\015J\342y\371\211"
 449      18E647C6 
 449      B05280A1 
 449      0D4AE279 
 449      F989
 450 0586 8D42FBF4 		.ascii	"\215B\373\364p\206r\364\303\017\242\315\321\351\202"
 450      708672F4 
 450      C30FA2CD 
 450      D1E982
 451 0595 8237C9A1 		.ascii	"\2027\311\241\273]Z\216\256\036\276y\335\350\024S\340"
 451      BB5D5A8E 
 451      AE1EBE79 
 451      DDE81453 
 451      E0
 452 05a6 3D3A7877 		.ascii	"=:xw\365v\235\355[\256/LU\003\343w@\3633\352\350w\273"
 452      F5769DED 
 452      5BAE2F4C 
 452      5503E377 
 452      40F333EA 
 453 05bd 4E198BE6 		.ascii	"N\031\213\346\306j\002a\357@\201\256\232gx2SF\203\364"
 453      C66A0261 
 453      EF4081AE 
 453      9A677832 
 453      534683F4 
 454 05d1 5135C1B5 		.ascii	"Q5\301\265a7t\354LV\013FFLH\303,\356\236nE}J\200\266"
 454      613774EC 
 454      4C560B46 
 454      464C48C3 
 454      2CEE9E6E 
 455 05ea 54F4BA6E 		.ascii	"T\364\272n\365%\352\346\347\243Vt?^ \"p\276F\240\323"
 455      F525EAE6 
ARM GAS  /tmp/cc0h7QKQ.s 			page 36


 455      E7A35674 
 455      3F5E2022 
 455      70BE46A0 
 456 05ff 096F6804 		.ascii	"\011oh\004\026F&p\201\200\300T\270\251E\344t\337\012"
 456      16462670 
 456      8180C054 
 456      B8A945E4 
 456      74DF0A
 457 0612 BDE1937A 		.ascii	"\275\341\223zD\030\217\252\024\032Q\254\325\373\246"
 457      44188FAA 
 457      141A51AC 
 457      D5FBA6
 458 0621 C1E760D2 		.ascii	"\301\347`\322\023r\265\216\361!?\350\264\351\246\230"
 458      1372B58E 
 458      F1213FE8 
 458      B4E9A698 
 459 0631 7182523F 		.ascii	"q\202R?7\201ikb\277lB[\251'\223\310T:\024\2320\312C"
 459      3781696B 
 459      62BF6C42 
 459      5BA92793 
 459      C8543A14 
 460 0649 9F9E4FD0 		.ascii	"\237\236O\320{.\014\215sjh\234\003\343\022'\323\323"
 460      7B2E0C8D 
 460      736A689C 
 460      03E31227 
 460      D3D3
 461 065b 303ED6F9 		.ascii	"0>\326\371\341\261^\250\305\372^\237\021\323E\250\025"
 461      E1B15EA8 
 461      C5FA5E9F 
 461      11D345A8 
 461      15
 462 066c C57AB128 		.ascii	"\305z\261(\326\213\242\212\365bA\254g@\022\177\352s"
 462      D68BA28A 
 462      F56241AC 
 462      6740127F 
 462      EA73
 463 067e F8D5BC28 		.ascii	"\370\325\274(\351&\204c~\352s\241v\0123\352Co\305\367"
 463      E9268463 
 463      7EEA73A1 
 463      760A33EA 
 463      436FC5F7 
 464 0692 20D9333E 		.ascii	" \3313>\243\276\360\352c\261\037$/\324\352+\270\204"
 464      A3BEF0EA 
 464      63B11F24 
 464      2FD4EA2B 
 464      B884
 465 06a4 0611D1B1 		.ascii	"\006\021\321\261TD\307\022\215\016\227\023\256kt\024"
 465      5444C712 
 465      8D0E9713 
 465      AE6B7414 
 466 06b4 45A663A9 		.ascii	"E\246c\251\200\216\014\210\353\311-t\265\243\277\027"
 466      808E0C88 
 466      EBC92D74 
 466      B5A3BF17 
 467 06c4 6482693A 		.ascii	"d\202i:8\023{B2\245\320\177W\014\375\244\217\221{\307"
 467      38137B42 
 467      32A5D07F 
ARM GAS  /tmp/cc0h7QKQ.s 			page 37


 467      570CFDA4 
 467      8F917BC7 
 468 06d8 437F5B04 		.ascii	"C\177[\004\375\004\307H\017{\020\006\375\340(\364\325"
 468      FD04C748 
 468      0F7B1006 
 468      FDE028F4 
 468      D5
 469 06e9 3488E8E9 		.ascii	"4\210\350\351\3112\021\364\325\032\364\305Nx_\203\276"
 469      C93211F4 
 469      D51AF4C5 
 469      4E785F83 
 469      BE
 470 06fa 2432F4CB 		.ascii	"$2\364\313\004\320g\201\024\317\234#6\350\263!\256\207"
 470      04D06781 
 470      14CF9C23 
 470      36E8B321 
 470      AE87
 471 070c C129837E 		.ascii	"\301)\203~\377\305\311@\037\232D/\237\\\022=j\340\331"
 471      FFC5C940 
 471      1F9A442F 
 471      9F5C123D 
 471      6AE0D9
 472 071f 980F832B 		.ascii	"\230\017\203+\320\013\264\023\006a\215\010\302\025\032"
 472      D00BB413 
 472      06618D08 
 472      C2151A
 473 072e 84A54EB8 		.ascii	"\204\245N\270\243AX\026\031\302\032\001\2049\020\327"
 473      A3415816 
 473      19C21A01 
 473      843910D7 
 474 073e D3D7C598 		.ascii	"\323\327\305\230 \314\235\036\316\360'\345?\2126O\261"
 474      20CC9D1E 
 474      CEF027E5 
 474      3F8A364F 
 474      B1
 475 074f A8579DA1 		.ascii	"\250W\235\241#=\017\313\302\035\270\3170\331;\372\262"
 475      233D0FCB 
 475      C21DB8CF 
 475      30D93BFA 
 475      B2
 476 0760 B1B0B586 		.ascii	"\261\260\265\206\335r\031\323J\372h\271\336\372\260"
 476      DD7219D3 
 476      4AFA68B9 
 476      DEFAB0
 477 076f ABDB2ED8 		.ascii	"\253\333.\330\211T\351o\327\214\013\236\226\367\315"
 477      8954E96F 
 477      D78C0B9E 
 477      96F7CD
 478 077e 16E6D8B5 		.ascii	"\026\346\330\265Z\336\367\311A#\307^\211Z\321\235}\225"
 478      5ADEF7C9 
 478      4123C75E 
 478      895AD19D 
 478      7D95
 479 0790 88AF9551 		.ascii	"\210\257\225Q\345}\253\004|\345\341|1\236Wn\364\337"
 479      E57DAB04 
 479      7CE5E17C 
 479      319E576E 
ARM GAS  /tmp/cc0h7QKQ.s 			page 38


 479      F4DF
 480 07a2 97F476CF 		.ascii	"\227\364v\317\253\223\340\201\276c@\277\032+\310#\363"
 480      AB93E081 
 480      BE6340BF 
 480      1A2BC823 
 480      F3
 481 07b3 B8F70C15 		.ascii	"\270\367\014\0252\346\310\252C\253\275\3541>\247\336"
 481      32E6C8AA 
 481      43ABBDEC 
 481      313EA7DE 
 482 07c3 AE7B0797 		.ascii	"\256{\007\227\352]\353\032\230\0249g\257"
 482      EA5DEB1A 
 482      98143967 
 482      AF
 483 07d0 D37DC9C7 		.ascii	"\323}\311\307\013nx\312.\215M\331%\343@\245~n\202\244"
 483      0B6E78CA 
 483      2E8D4DD9 
 483      25E340A5 
 483      7E6E82A4 
 484 07e4 2D602EA5 		.ascii	"-`.\245\354uy\303\211di&\202z\015z\206~|\314\230\374"
 484      EC7579C3 
 484      89646926 
 484      827A0D7A 
 484      867E7CCC 
 485 07fa 1AC3DD4A 		.ascii	"\032\303\335J\231\"\243M\000\2037\307\011\235f5x\217"
 485      9922A34D 
 485      008337C7 
 485      099D6635 
 485      788F
 486 080c 83B198BC 		.ascii	"\203\261\230\274j\256\023\366iUU\243qu\217\211\353\032"
 486      6AAE13F6 
 486      695555A3 
 486      71758F89 
 486      EB1A
 487 081e 415CF1F2 		.ascii	"A\\\361\362\307\363\351\223?\213\226\323\004\320\002"
 487      C7F3E993 
 487      3F8B96D3 
 487      04D002
 488 082d 78F69011 		.ascii	"x\366\220\021\300\265\372\314\215c\340qc\364uX\255\036"
 488      C0B5FACC 
 488      8D63E071 
 488      63F47558 
 488      AD1E
 489 083f 03F375D5 		.ascii	"\003\363u\325\206\210\307\300\2721\307\300u\023\036"
 489      8688C7C0 
 489      BA31C7C0 
 489      75131E
 490 084e 4D36E8C7 		.ascii	"M6\350\307\300C\006\212\036\324\212\020\225E\210z\242"
 490      C043068A 
 490      1ED48A10 
 490      9545887A 
 490      A2
 491 085f 42541684 		.ascii	"BT\026\204r\026_\314\275C\257_0\316_J\304=\271&\372"
 491      72165FCC 
 491      BD43AF5F 
 491      30CE5F4A 
 491      C43DB926 
ARM GAS  /tmp/cc0h7QKQ.s 			page 39


 492 0874 3D3966C2 		.ascii	"=9f\302\2126\341;\243\023\336\204Z\321\204\033E\023"
 492      8A36E13B 
 492      A313DE84 
 492      5AD1841B 
 492      4513
 493 0886 DE14D584 		.ascii	"\336\024\325\204\033\005\023vj\354\014\277\026-;\010"
 493      1B051376 
 493      6AEC0CBF 
 493      162D3B08 
 494 0896 7FCC67B1 		.ascii	"\177\314g\261\301\277OeZ\372\355\301\370\236\305\366"
 494      C1BF4F65 
 494      5AFAEDC1 
 494      F89EC5F6 
 495 08a6 09DE6E1C 		.ascii	"\011\336n\034\217\375,\206A\322Wp3\015\"JK}\":6G\365"
 495      8FFD2C86 
 495      41D25770 
 495      330D224A 
 495      4B7D223A 
 496 08bd 52CF27A0 		.ascii	"R\317'\240\2430\2567\341\260\325\216>#pM\017gbOKoO\351"
 496      A330AE37 
 496      E1B0D58E 
 496      3E23704D 
 496      0F67624F 
 497 08d5 030831F4 		.ascii	"\003\0101\364\223>\213\365\012\036@\210\240\217\362"
 497      933E8BF5 
 497      0A1E4088 
 497      A08FF2
 498 08e4 2C8641D2 		.ascii	",\206A\322\301\334B\203\210.\211\001\021\364[\242z5"
 498      C1DC4283 
 498      882E8901 
 498      11F45BA2 
 498      7A35
 499 08f6 1710405F 		.ascii	"\027\020@_\024\337\314\363vL\320\027O\017gp\301\337"
 499      14DFCCF3 
 499      764CD017 
 499      4F0F6770 
 499      C1DF
 500 0908 FDC7681E 		.ascii	"\375\307h\036\260-\326\267\023\333c>\027\265\243\027"
 500      B02DD6B7 
 500      13DB633E 
 500      17B5A317 
 501 0918 68270C88 		.ascii	"h'\014\210\235\" \332\243zI\266S\000D\211z\217|\267"
 501      9D2220DA 
 501      A37A49B6 
 501      53004489 
 501      7A8F7CB7 
 502 092c F784D16C 		.ascii	"\367\204\321lW\254\001x!\346\3273\273\321\013\264\023"
 502      57AC0178 
 502      21E6D733 
 502      BBD10BB4 
 502      13
 503 093d 16800E51 		.ascii	"\026\200\016Q\000vG\365z\246C\020\200R\036\200sw\214"
 503      007647F5 
 503      7AA64310 
 503      80521E80 
 503      73778C
 504 0950 649A729C 		.ascii	"d\232r\234\005p\"\330K\317\234\215fe\332\377\347;w\247"
ARM GAS  /tmp/cc0h7QKQ.s 			page 40


 504      057022D8 
 504      4BCF9C8D 
 504      6665DAFF 
 504      E73B77A7 
 505 0964 37F0F096 		.ascii	"7\360\360\226\345\274\345;\320i\035\035\3469\2346j)"
 505      E5BCE53B 
 505      D0691D1D 
 505      E6399C36 
 505      6A29
 506 0976 58F3AAAA 		.ascii	"X\363\252\252\334\352\2776%\320\346nms\007\374[[eE-"
 506      DCEABF36 
 506      25D0E66E 
 506      6D7307FC 
 506      5B5B6545 
 507 098b 92581F50 		.ascii	"\222X\037P\266lU\232ee\375\023O,\252\222!\301\027h\230"
 507      B66C559A 
 507      6565FD13 
 507      4F2CAA92 
 507      21C11768 
 508 09a0 5F35CF8C 		.ascii	"_5\317\214_\\\314g\336Q#\376\200[\366\373|\376f\267"
 508      5F5CCC67 
 508      DE5123FE 
 508      805BF6FB 
 508      7CFE66B7 
 509 09b4 D2DEE6AE 		.ascii	"\322\336\346\256\256Y\271|\245\333\333,7m\335\250\270"
 509      AE59B97C 
 509      A5DBDB2C 
 509      376DDDA8 
 509      B8
 510 09c5 655FC01B 		.ascii	"e_\300\033X\337 \313U\2150W\320\243\305\337\332\026"
 510      58DF20CB 
 510      558D3057 
 510      D0A3C5DF 
 510      DA16
 511 09d7 703F5D5B 		.ascii	"p?][S]\323\356\226\033e\177\253\262~\333\227|\330\272"
 511      535DD3EE 
 511      961B657F 
 511      ABB27EDB 
 511      977CD8BA 
 512 09eb 30B435BA 		.ascii	"0\2645\272hXl\014\354\010\214\255o\3644\341\027\012"
 512      68586C0C 
 512      EC088CAD 
 512      6FF434E1 
 512      170A
 513 09fd 6C48DF58 		.ascii	"lH\337Xo\225[\002\336\215./$\372\024\237\277u\007\230"
 513      6F955B02 
 513      DE8D2E2F 
 513      24FA149F 
 513      BF750798 
 514 0a11 7CF52D8F 		.ascii	"|\365-\217\013\\\360\007\232\274\365!\346}\365\376v"
 514      0B5CF007 
 514      9ABCF521 
 514      E67DF5FE 
 514      76
 515 0a22 65DC08E1 		.ascii	"e\334\010\341\036(\344\241\024h\261mo\36577\270\002"
 515      1E28E4A1 
 515      1468B16D 
ARM GAS  /tmp/cc0h7QKQ.s 			page 41


 515      6FF53737 
 515      B802
 516 0a34 DE9D8A3A 		.ascii	"\336\235\212:\240\202\003&7\373\333\\\212\257\245m\007"
 516      A0820326 
 516      37FBDB5C 
 516      8AAFA56D 
 516      07
 517 0a45 D8026DDE 		.ascii	"\330\002m\336\246&\327\246\255MMP\274\275\325\333\246"
 517      A626D7A6 
 517      AD4D4D50 
 517      BCBDD5DB 
 517      A6
 518 0a56 B85AFCDE 		.ascii	"\270Z\374\336\3466\245\325E\215<M\336\206fe\243\253"
 518      E636A5D5 
 518      458D3C4D 
 518      DE866665 
 518      A3AB
 519 0a68 CDEFAAF7 		.ascii	"\315\357\252\367\004\024(jU<\033\037\332\"G\035p\273"
 519      0414286A 
 519      553C1B1F 
 519      DA22471D 
 519      70BB
 520 0a7a 67B33277 		.ascii	"g\2632wk\213\313\247\004\002\236\006\005\354\3528\352"
 520      6B8BCBA7 
 520      04029E06 
 520      05ECEA38 
 520      EA
 521 0a8b A049D491 		.ascii	"\240I\324\221\017\231\255\231\012\204\332\002\313\323"
 521      0F99AD99 
 521      0A84DA02 
 521      CBD3
 522 0a99 CF547F15 		.ascii	"\317T\177\0252UK\015J\233K_l\370?\330\0046\261"
 522      32554B0D 
 522      4A9B4B5F 
 522      6CF83FD8 
 522      0436B1
 523              		.text
 524              		.section	.gnu.lto_.symbol_nodes.a8ca9c04ac466a28,"",%progbits
 525 0000 789C4D8F 		.ascii	"x\234M\217Mk\024A\020\206\353\355\232Y\223\231\250\233"
 525      4D6B1441 
 525      1086EBED 
 525      9A599399 
 525      A89B
 526 0012 DDCD668D 		.ascii	"\335\315f\215\212\377J!7O\036\004\005\005\205\010[\201"
 526      8AFF4A21 
 526      374F1E04 
 526      05058508 
 526      5B81
 527 0024 01457291 		.ascii	"\001Er\221\010\236<e \007=\004\214&~\177\265\272\032"
 527      089E3C65 
 527      20073D04 
 527      8C267E7F 
 527      B5BA1A
 528 0037 75F72044 		.ascii	"u\367 D\360\240\342\240^\274\352Q\354\256\036\354\231"
 528      F0A0E2A0 
 528      5EBCEA51 
 528      ECAE1EEC 
ARM GAS  /tmp/cc0h7QKQ.s 			page 42


 528      99
 529 0048 433F3C55 		.ascii	"C?<U\335U\357\0302t\224)|\3461\204\350\312\230H\344"
 529      DD55EF18 
 529      32749429 
 529      7CE63184 
 529      E8CA9848 
 530 005d FAE5E3E9 		.ascii	"\372\345\343\351mP\"l\356C\020\253f\013b\032\372\004"
 530      6D50226C 
 530      EE4310AB 
 530      660B621A 
 530      FA04
 531 006f C28D37CF 		.ascii	"\302\2157\317aH\310<\202$\215\352&\340'\335\203\244"
 531      6148C83C 
 531      82248DEA 
 531      26E027DD 
 531      83A4
 532 0081 8DA77720 		.ascii	"\215\247w \255\206>\200\354i\3506d\2521\342\0318\025"
 532      AD863E80 
 532      EC69E836 
 532      64AA31E2 
 532      193815
 533 0094 4AEF2271 		.ascii	"J\357\"q\223\322\207H=\236\242\345\200\327\220\351p"
 533      93D28748 
 533      3D9EA2E5 
 533      80D790E9 
 533      70
 534 00a5 75791978 		.ascii	"uy\031x\001\311\242\355@\362ho 3\321F\220\275\321^A"
 534      01C9A2ED 
 534      40F2686F 
 534      2033D146 
 534      90BDD15E 
 535 00ba F6457B09 		.ascii	"\366E{\011\331\037\315B\332\321\336Af\243M \235hcH7"
 535      D91FCD42 
 535      DAD1DE41 
 535      66A34D20 
 535      9D686348 
 536 00cf DA7B48EF 		.ascii	"\332{H\357\2771\265\251\370\372\027ljr\315d\236\212"
 536      BF31B5A9 
 536      F8FA176C 
 536      6A72CD64 
 536      9E8A
 537 00e1 DF3F5B9C 		.ascii	"\337?[\234\314R\245\234';\232\034\366^\356x\366\251"
 537      CC52A59C 
 537      273B9A1C 
 537      F65EEE78 
 537      F6A9
 538 00f3 78FB87BD 		.ascii	"x\373\207\275\027c\3179\262\343\021\264?\361\354Q\261"
 538      1763CF39 
 538      B2E311B4 
 538      3FF1EC51 
 538      B1
 539 0104 DAD7F655 		.ascii	"\332\327\366U\2076U\037\014']*w\215\026?:t\250:\246"
 539      8736551F 
 539      0C275D2A 
 539      778D163F 
 539      3A74A83A 
 540 0119 0B16B935 		.ascii	"\013\026\2715\010k\247jN\327\314\334\325\213\277\216"
ARM GAS  /tmp/cc0h7QKQ.s 			page 43


 540      086BA76A 
 540      4ED7CCDC 
 540      D58BBF8E 
 541 0129 707690EC 		.ascii	"pv\220\354\245\357\211\367j%\320\256\356j\337^;\244"
 541      A5EF89F7 
 541      6A25D0AE 
 541      EE6ADF5E 
 541      3BA4
 542 013b F8C49CF5 		.ascii	"\370\304\234\365\251\372<\243\227\2768\364\310V\003"
 542      A9FA3CA3 
 542      97BE38F4 
 542      C85603
 543 014a EDFD5014 		.ascii	"\355\375P\024'\265uZ\317\263\234u\310\236\327\366\022"
 543      27B5755A 
 543      CFB39C75 
 543      C89ED7F6 
 543      12
 544 015b 670B642F 		.ascii	"g\013d/pv\200\252!g\356\327\327tt\345\3412\227!\310"
 544      707680AA 
 544      2167EED7 
 544      D77474E5 
 544      E1329721 
 545 0170 7AD87743 		.ascii	"z\330wCQn\204\342f\260-p^g\315\333T\372\254\316\313"
 545      516E84E2 
 545      66B02D70 
 545      5E67CDDB 
 545      54FAACCE 
 546 0185 95C0C267 		.ascii	"\225\300\302g\365tY=\\\326\334mqY\235\371\310\371\034"
 546      F574593D 
 546      5CD6DC6D 
 546      71599DF9 
 546      C8F91C
 547 0198 95DF06DA 		.ascii	"\225\337\006\332\253\024\366\204\276?\245\347\031\316"
 547      AB14F684 
 547      BE3FA5E7 
 547      19CE
 548 01a6 BB3EB1AF 		.ascii	"\273>\261\257\237\343|\301\347\316]\326%\2352\324!C"
 548      9FE37CC1 
 548      E7CE5DD6 
 548      259D32D4 
 548      2143
 549 01b8 7FA7141D 		.ascii	"\177\247\024\035\261\246\313\354\272\242\274\031Vo\004"
 549      B1A6CBEC 
 549      BAA2BC19 
 549      566F04
 550 01c7 BB05FA07 		.ascii	"\273\005\372\007z\263\346\327"
 550      7AB3E6D7 
 551              		.text
 552              		.section	.gnu.lto_.refs.a8ca9c04ac466a28,"",%progbits
 553 0000 789CA54E 		.ascii	"x\234\245N[\016\2000\010\203\262\351\334\363\006\273"
 553      5B0E8030 
 553      0883B2E9 
 553      DCF306BB 
 554 0010 FFCDBC86 		.ascii	"\377\315\274\206\260\031g\374\225\006B[H\012\002\235"
 554      B01967FC 
 554      9506425B 
 554      480A029D 
ARM GAS  /tmp/cc0h7QKQ.s 			page 44


 555 0020 348B091C 		.ascii	"4\213\011\034\030\373\015\236`h\0138;\366\272\371G_"
 555      18FB0D9E 
 555      60680B38 
 555      3BF6BAF9 
 555      475F
 556 0032 6C837D85 		.ascii	"l\203}\2051\017\233=\262\247\341\322\013\363\332\234"
 556      310F9B3D 
 556      B2A7E1D2 
 556      0BF3DA9C 
 557 0042 C5BF9AA1 		.ascii	"\305\277\232\241\247?\337\222QP\321\244h\026A\222\252"
 557      A73FDF92 
 557      5150D1A4 
 557      68164192 
 557      AA
 558 0053 C980284D 		.ascii	"\311\200(Ms\022\034]\345$\003["
 558      73121C5D 
 558      E524035B 
 559              		.text
 560              		.section	.gnu.lto_.decls.a8ca9c04ac466a28,"",%progbits
 561 0000 789CBD5B 		.ascii	"x\234\275[{t\024U\232\277U\335Iw\223\360Tfq\316\254"
 561      7B741455 
 561      9ABF55DD 
 561      497793F0 
 561      546671CE 
 562 0015 86393AB2 		.ascii	"\2069:\262>x\250\353\342\037;\352\340\012\354\016;\234"
 562      3E78A8EB 
 562      E21F3BEA 
 562      E00AEC0E 
 562      3B9C
 563 0027 F1788EE7 		.ascii	"\361x\216\347\3549\266\225NA2v\272cwE\340\314\331\261"
 563      EC39B695 
 563      4E413276 
 563      BA637745 
 563      E0CCD9B1 
 564 003b 129EA268 		.ascii	"\022\236\242h\010h\202\020\014(\217\260\260  \"8\261"
 564      08688210 
 564      0C288FB0 
 564      B0202022 
 564      38B1
 565 004d 410381F0 		.ascii	"A\003\201\360J2\006\3023F\020\030\224%\370@T\350\375"
 565      4A3206C2 
 565      33461018 
 565      9425F840 
 565      54E8FD
 566 0060 EEABBAAA 		.ascii	"\356\253\272\252\272\252\273*\214S'\267\372v\325\275"
 566      BAAABB2A 
 566      8C5327B7 
 566      FA76D5BD 
 567 0070 BFEFF73D 		.ascii	"\277\357\367=\356\255{\277\352\210HD_\347 \224\204\343"
 567      EEAD7BBF 
 567      EA884844 
 567      5FE72094 
 567      84E3
 568 0082 93B108AD 		.ascii	"\223\261\010\255\365!\324\007!\364k(?\207\262\014JT"
 568      F521D407 
 568      21F46B28 
 568      3F87B20C 
ARM GAS  /tmp/cc0h7QKQ.s 			page 45


 568      4A54
 569 0094 40A80C4A 		.ascii	"@\250\014J\014\312\032\370\356\201\362G\250\027C\371"
 569      0CCA1AF8 
 569      EE81F247 
 569      A81743F9 
 570 00a4 139417A0 		.ascii	"\023\224\027\240T@\251\2042\003\312L(\263\241\314\201"
 570      5440A984 
 570      3203CA4C 
 570      28B3A1CC 
 570      81
 571 00b5 3217CA4B 		.ascii	"2\027\312KP\346Ay\005J\025\224\371P\026@Y\010\345u("
 571      50E64179 
 571      054A1594 
 571      F9501640 
 571      5908E575 
 572 00ca 3550F031 		.ascii	"5P\3601\030\312\"\250\327A\251\207\362\026\224\225P"
 572      18CA22A8 
 572      D741A987 
 572      F2169495 
 572      50
 573 00db 1AA0AC85 		.ascii	"\032\240\254\205\262\036\312F(\357By\037\312\016(\273"
 573      B21ECA46 
 573      28EF4279 
 573      1FCA0E28 
 573      BB
 574 00ec A0EC83D2 		.ascii	"\240\354\203\322\012\3450\224N(\307\240|\012\345,\224"
 574      0AE53094 
 574      4E28C7A0 
 574      7C0AE52C 
 574      94
 575 00fd 0B504025 		.ascii	"\013P@%\364%|\366@\361\213\240\037\224\241P\356\205"
 575      F4257CF6 
 575      40F18BA0 
 575      1F94A150 
 575      EE85
 576 010f F290880C 		.ascii	"\362\220\210\014\007\226\217\365{L\244\272oa\334Dv\017"
 576      07968FF5 
 576      7B4CA4BA 
 576      6F61DC44 
 576      760F
 577 0121 CB16189E 		.ascii	"\313\026\030\236\376\250\313\320\257.C\277\372\014\375"
 577      FEA8CBD0 
 577      AF2E43BF 
 577      FA0CFD
 578 0130 EA33F4C3 		.ascii	"\3523\364\303\266\301\376\301\376\350\007%\037\012\270"
 578      B6C1FEC1 
 578      FEE80725 
 578      1F0AB8
 579 013f 11E542D9 		.ascii	"\021\345B\331\016\367\376\015\000\036g\230\030\277\015"
 579      0EF7FE0D 
 579      001E6798 
 579      18BF0D
 580 014e AE8D1553 		.ascii	"\256\215\025S\276\334\306\3749\016\256\375;\224\375"
 580      BEDCC6FC 
 580      390EAEFD 
 580      3B94FD
 581 015d 02E580E5 		.ascii	"\002\345\200\345\377\007|6@\237\335P\377-\324w2\331"
ARM GAS  /tmp/cc0h7QKQ.s 			page 46


 581      FF077C36 
 581      409FDD50 
 581      FF2DD477 
 581      32D9
 582 016f FD99DC4E 		.ascii	"\375\231\334Nf\377\011po\"\224'Dj\373\247\340\363\277"
 582      66FF0970 
 582      6F229427 
 582      446AFBA7 
 582      E0F3BF
 583 0182 A03C2D52 		.ascii	"\240<-R\177\354c\374w1_a\235\260\375\315\272`\037c\356"
 583      7FEC63FC 
 583      77315F61 
 583      9DB0FDCD 
 583      BA601F63 
 584 0197 858C2F8F 		.ascii	"\205\214/\217\255\343:[\254d~\025u\276\324\037\015\016"
 584      ADE33A5B 
 584      AC647E15 
 584      75BED41F 
 584      0D0E
 585 01a9 301AB260 		.ascii	"0\032\262`\254u\200\2616\013\006\216\321\007\230\037"
 585      AC7580B1 
 585      360B068E 
 585      D107981F 
 586 01b9 B85FD630 		.ascii	"\270_\3260\337`\277`\273\3460\377\214crB\360\271\035"
 586      DF60BF60 
 586      BBE630FF 
 586      8C637242 
 586      F0B91D
 587 01cc 5159D847 		.ascii	"QY\330G|\014m\323\371\204\217\247\345(5\326\370\330"
 587      7C0C6DD3 
 587      F9848FA7 
 587      E52835D6 
 587      F8D8
 588 01de E3FEE3BE 		.ascii	"\343\376\343\276\345c\212\2171>\346\270/\213\340\363"
 588      E5638A8F 
 588      313EE6B8 
 588      2F8BE0F3 
 589 01ee 1C7CCA62 		.ascii	"\034|\312b\372\370\354\026h\334\360\230\301\261\260"
 589      FAF8EC16 
 589      68DCF098 
 589      C1B1B0
 590 01fd 9BD9A514 		.ascii	"\233\331\245\024s\202\317\3258N\241l\205r3\323y\222"
 590      7382CFD5 
 590      384EA16C 
 590      857233D3 
 590      7992
 591 020f 688C8712 		.ascii	"h\214\207\022\221\306H\231h\214\013<\036\343,^\366\261"
 591      91C64899 
 591      688C0B3C 
 591      1EE32C5E 
 591      F6B1
 592 0221 B838CBC6 		.ascii	"\2708\313\306k'\213\225\034]\234L\201\317\251P\246\231"
 592      6B278B95 
 592      1C5D9C4C 
 592      81CFA950 
 592      A699
 593 0233 C6299E07 		.ascii	"\306)\236\007F\376\235\355\254\267K6[s\273e\263\265"
ARM GAS  /tmp/cc0h7QKQ.s 			page 47


 593      46FE9DED 
 593      ACB74B36 
 593      5B73BB65 
 593      B3B5
 594 0245 9D5D0731 		.ascii	"\235]\0071\035\235\332\365]fWl\303VfGnW'\366\314CsU"
 594      1D9DDAF5 
 594      5D66576C 
 594      C3566647 
 594      6E5727F6 
 595 025d B552AD9F 		.ascii	"\265R\255\237\245\216k\3567\010\315W\341(h\006\313>"
 595      A58E6BEE 
 595      3708CD57 
 595      E1286806 
 595      CB3E
 596 026f 254842BF 		.ascii	"%HB\277\000J\210\244\226\037@\303\240\365\035\350mU"
 596      004A88A4 
 596      961F40C3 
 596      A0F51DE8 
 596      6D55
 597 0281 ADEA3AD3 		.ascii	"\255\352:\323=D\365J\302ra\020\214\207\021\002\272\013"
 597      3D44F54A 
 597      C2726110 
 597      8C871102 
 597      BA0B
 598 0293 3540B72A 		.ascii	"5@\267*U]~+J?\262\242\"$\011+\001K\022V\010wQ\031j\242"
 598      555D7E2B 
 598      4A3FB2A2 
 598      2224092B 
 598      014B1256 
 599 02ad 472EA057 		.ascii	"G.\240W\021\273nq\014E\365@>\361\325\371=\202Z\235o"
 599      11BB6E71 
 599      0C45F540 
 599      3EF1D5F9 
 599      3D825A9D 
 600 02c2 502580E6 		.ascii	"P%\200\346`\241\364\213&\267\200\213\365\246\224\231"
 600      60A1F48B 
 600      26B7808B 
 600      F5A69499 
 601 02d2 BFEBE356 		.ascii	"\277\353\343Va\272\252\302\2155B\000\024\232&\030$:"
 601      61BAAAC2 
 601      8D354200 
 601      149A2618 
 601      243A
 602 02e4 46AA4FEE 		.ascii	"F\252O\356\036\214\315\262\216\240\324\011\275\204\351"
 602      1E8CCDB2 
 602      8EA0D409 
 602      BD84E9
 603 02f3 5ADCF2E1 		.ascii	"Z\334\362\341hU\365K\302\006\002\324n\002\222\204\334"
 603      6855F54B 
 603      C20602D4 
 603      6E029284 
 603      DC
 604 0304 80DE08E4 		.ascii	"\200\336\010\344;o\200\321\340+\226\364\035~\264\013"
 604      3B6F80D1 
 604      E02B96F4 
 604      1D7EB40B 
 605 0314 2FB02BF8 		.ascii	"/\260+\370\213\017\375\335\373Y\251\211!\032\204<\216"
ARM GAS  /tmp/cc0h7QKQ.s 			page 48


 605      8B0FFDDD 
 605      FB59A989 
 605      211A843C 
 605      8E
 606 0325 27A21344 		.ascii	"'\242\023DC\354k\253\346\254J\017\326\300\340\377\256"
 606      43EC6BAB 
 606      E6AC4A0F 
 606      D6C0E0FF 
 606      AE
 607 0336 334BEB6E 		.ascii	"3K\353nQ\353w\012\024VD\247]\343\025\030\342\351{\271"
 607      51EB770A 
 607      145644A7 
 607      5DE31518 
 607      E2E97BB9 
 608 034a 7924C73A 		.ascii	"y$\307:\347\004\313o\313-\361\243\016\353\242k,=/5\221"
 608      E704CB6F 
 608      CB2DF1A3 
 608      0EEBA26B 
 608      2C3D2F35 
 609 035f 3C138030 		.ascii	"<\023\2000\267\030N\317\360\316\371\251(\352|\365\003"
 609      B7184ECF 
 609      F0CEF9A9 
 609      28EA7CF5 
 609      03
 610 0370 0F89A2ED 		.ascii	"\017\211\242\355d\224.\024\215Q\224\015ED\365\244G\243"
 610      64942E14 
 610      8D51940D 
 610      4544F5A4 
 610      47A3
 611 0382 795C762E 		.ascii	"y\\v.\023\012\350\345l\003SM\034\263#\374\210^[Fx\373"
 611      130AE8E5 
 611      6C03534D 
 611      1CB323FC 
 611      885E5B46 
 612 0398 82BFCC17 		.ascii	"\202\277\314\027f\220q\270\223Pn\263\246\\\377\210\035"
 612      669071B8 
 612      93506EB3 
 612      A65CFF88 
 612      1D
 613 03a9 9088BA49 		.ascii	"\220\210\272I\227&\023\347\256\303\207\017V\012\025"
 613      972613E7 
 613      AEC3870F 
 613      560A15
 614 03b8 04BAC9D1 		.ascii	"\004\272\311\321\214\322:\227FT\266\331\261\336\313"
 614      8CD23A97 
 614      4654B6D9 
 614      B1DECB
 615 03c7 E53F9652 		.ascii	"\345?\226Rd[\373\303x\032\330K\355\356\311jw#\010\314"
 615      645BFBC3 
 615      781AD84B 
 615      EDEEC96A 
 615      772308CC 
 616 03db 1CA4CBFE 		.ascii	"\034\244\313\3764%jNp%\366;\262\376\225\275K\004:,\250"
 616      34256A4E 
 616      7025F63B 
 616      B2FE95BD 
 616      4B043A2C 
ARM GAS  /tmp/cc0h7QKQ.s 			page 49


 617 03f0 3D5769B8 		.ascii	"=Wi\270V\306\313:\314\022\337\355\315\257\222\3104V"
 617      56C6CB3A 
 617      CC12DFED 
 617      CDAF92C8 
 617      3456
 618 0402 E9685E9D 		.ascii	"\351h^\235\245\315\253\355d\"[\347\261\230\021\035A"
 618      A5CDABED 
 618      64225BE7 
 618      B198111D 
 618      41
 619 0413 256737ED 		.ascii	"%g7\355\020*\011T\007\201z\267\327P\213[>\236\317Xu"
 619      102A0954 
 619      07817AB7 
 619      D7508B5B 
 619      3E9ECF58 
 620 0428 12A8468F 		.ascii	"\022\250F\217yz\365\231\246W\237q\272#\267Y\005\317"
 620      797AF599 
 620      A6579F71 
 620      BA23B759 
 620      05CF
 621 043a 72FDD14F 		.ascii	"r\375\321O\334\\D{\314\236s5\011\251]\035\207O\212\213"
 621      DC5C447B 
 621      CC9E7335 
 621      09A95D1D 
 621      874F8A8B 
 622 044e D4C40C0F 		.ascii	"\324\304\014\017\037B\271vV\022\321\001\"\353\2449\372"
 622      1F42B976 
 622      5612D101 
 622      22EBA439 
 622      FA
 623 045f AE9CDCC7 		.ascii	"\256\234\334\307\243\357\244\243!\364\356\336\032gC"
 623      A3EFA4A3 
 623      21F4EEDE 
 623      1A6743
 624 046e 485B0ADC 		.ascii	"H[\012\334N\344\317\364b\371\237\231\345\267w\037\031"
 624      4EE4CFF4 
 624      62F99F99 
 624      E5B7771F 
 624      19
 625 047f 5DABAA03 		.ascii	"]\253\252\003\350\255\354\342\027\035X\230.^\022~=8"
 625      E8ADECE2 
 625      171D5898 
 625      2E5E127E 
 625      3D38
 626 0491 53705C39 		.ascii	"Sp\\9\371y\017S\362,\231\261?\364\232\203\343\341<\275"
 626      F9790F53 
 626      F22C99B1 
 626      3FF49A83 
 626      E3E13CBD 
 627 04a5 30F25DD7 		.ascii	"0\362]\327@D\315\032\375\336=\313\332\273\317\215n\330"
 627      4044CD1A 
 627      FDDE3DCB 
 627      DABBCF8D 
 627      6ED8
 628 04b7 A8AA2FE6 		.ascii	"\250\252/\346r\016-\256\021\013\014\226Xr\000\206-\007"
 628      720E2DAE 
 628      110B0C96 
ARM GAS  /tmp/cc0h7QKQ.s 			page 50


 628      58720086 
 628      2D07
 629 04c9 3BE0042C 		.ascii	";\340\004,\303\343l\251\036\254\3155\230\221\331\006"
 629      C3E36CA9 
 629      1EACCD35 
 629      9891D906 
 630 04d9 3D588713 		.ascii	"=X\207\023\260\001\366\3146\352\301:]\203\031\231m\326"
 630      B001F6CC 
 630      36EAC13A 
 630      5D831999 
 630      6DD6
 631 04eb 831D7702 		.ascii	"\203\035w\0026\304\236\331\026=\330)\327`Ff[\365`\335"
 631      36C49ED9 
 631      163DD829 
 631      D7604666 
 631      5BF560DD 
 632 04ff 4EC00A2C 		.ascii	"N\300\012,\230i\207\335\372\254[\277>;\343\345S\202"
 632      986987DD 
 632      FAAC5BBF 
 632      3E3BE3E5 
 632      5382
 633 0511 CB984629 		.ascii	"\313\230F)\214s^\267S\230Aox\204\237Z.,\230\256\342"
 633      8C735EB7 
 633      5398416F 
 633      78849F5A 
 633      2E2C98AE 
 634 0526 D5D41EA2 		.ascii	"\325\324\036\242\374\027N\0203\004LU\013\261$\005\273"
 634      FC174E10 
 634      33044C55 
 634      0BB12405 
 634      BB
 635 0537 EC1ACCE8 		.ascii	"\354\032\314\350\226\245\030,}\003R\251v\255H\014\251"
 635      96A5182C 
 635      7D0352A9 
 635      76AD480C 
 635      A9
 636 0548 4DCD767E 		.ascii	"M\315v~\216\205\323\007tj\203m\223\2505V\207\014\261"
 636      8E85D307 
 636      746A836D 
 636      93A83556 
 636      870CB1
 637 055b 6E2B0933 		.ascii	"n+\0113\304;\340<S\014h,h\235\327\222\002\266\363w^"
 637      C43BE03C 
 637      530C682C 
 637      689DD792 
 637      02B6F377 
 638 0570 5362821F 		.ascii	"Sb\202\037\331\272\332EB\245\250\213\204kN\314\224a"
 638      D9BADA45 
 638      42A5A88B 
 638      846B4ECC 
 638      9461
 639 0582 281CB233 		.ascii	"(\034\2623Sb\226:G\250x\347\027\031W\210WN^\\\306\226"
 639      5362963A 
 639      47A878E7 
 639      17195788 
 639      574E5E5C 
 640 0598 017345FC 		.ascii	"\001sE\374\354\256\314\261\\\0068\002K\316>\310\327"
ARM GAS  /tmp/cc0h7QKQ.s 			page 51


 640      ECAECCB1 
 640      5C063802 
 640      4BCE3EC8 
 640      D7
 641 05a9 14F308D8 		.ascii	"\024\363\010\330\274\033\000[\334r\202\257*\252\010"
 641      BC1B005B 
 641      DC7282AF 
 641      2AAA08
 642 05b8 D8EB39E6 		.ascii	"\330\3539\346\007G\300\264\252\010\030\237\373\201@"
 642      0747C0B4 
 642      AA08189F 
 642      FB8140
 643 05c7 AA92E487 		.ascii	"\252\222\344\207\321\225?i\037;\367\277\250w\377\262"
 643      D1953F69 
 643      1F3BF7BF 
 643      A877FFB2 
 644 05d7 1CB7EE37 		.ascii	"\034\267\3567\214\022X\207|+\326\250\211\012\217.\336"
 644      8C125887 
 644      7C2BD6A8 
 644      890A8F2E 
 644      DE
 645 05e8 330E0EBC 		.ascii	"3\016\016\274;o\374W\262\215y\215\330u\265\265\223\034"
 645      3B6FFC57 
 645      B28D798D 
 645      D875B5B5 
 645      931C
 646 05fa 002567AF 		.ascii	"\000%g\257\273\233\000\325\022\240wz\015\264\270e)\335"
 646      BB9B00D5 
 646      12A0777A 
 646      0DB4B865 
 646      29DD
 647 060c 9E2F2640 		.ascii	"\236/&@\357\247yZ0yZ0z@\010\244*i\336\372\033\266\025"
 647      EFA7795A 
 647      30795A30 
 647      7A4008A4 
 647      2A69DEFA 
 648 0623 D1476677 		.ascii	"\321Gfw\031\324\311\360x\320\346\334\037\253\205\257"
 648      19D4C9F0 
 648      78D0E6DC 
 648      1FAB85AF 
 649 0633 2AD5DA91 		.ascii	"*\325\332\221.\3745\213\371\253\236XgO\232ujEw\346\021"
 649      2EFC358B 
 649      F9AB9E58 
 649      674F9A75 
 649      6A4577E6 
 650 0648 51AB6B35 		.ascii	"Q\253k5\374F5j\222\275P\343C\252\306\012\242\306\341"
 650      FC46356A 
 650      92BD50E3 
 650      43AAC60A 
 650      A2C6E1
 651 065b BF811AA7 		.ascii	"\277\201\032\247\\\2531@\247\006\331\304.\244O\300\233"
 651      5CAB3140 
 651      A706D9C4 
 651      2EA44FC0 
 651      9B
 652 066c 5075E655 		.ascii	"Pu\346U<\346\263F\274\311\270q\377\344\000\336\270\343"
 652      3CE6B346 
ARM GAS  /tmp/cc0h7QKQ.s 			page 52


 652      BCC9B871 
 652      FFE400DE 
 652      B8E3
 653 067e CBD9B78E 		.ascii	"\313\331\267\216_\035X\3022*4%v\232p\307}{\263\252U"
 653      5F1D58C2 
 653      322A3425 
 653      769A70C7 
 653      7D7BB3AA 
 654 0693 135507C9 		.ascii	"\023U\007\311\263\226\202]\270!\260\312\304\233\257"
 654      B396825D 
 654      B821B0CA 
 654      C49BAF
 655 06a2 F274CFC3 		.ascii	"\362t\317\303y\344-\326\215\301}p\320\374L2\355\031"
 655      79E42DD6 
 655      8DC17D70 
 655      D0FC4C32 
 655      ED19
 656 06b4 F6DACC77 		.ascii	"\366\332\314wZ\336b\027\177\220l\0261\241\037\322\202"
 656      5ADE6217 
 656      7F906C16 
 656      31A11FD2 
 656      82
 657 06c5 658F60DA 		.ascii	"e\217`\3325\340\013\272&v>\334\244\237|_\311\275!\037"
 657      35E00BBA 
 657      26763EDC 
 657      A49F7C5F 
 657      C9BD211F 
 658 06d9 40FC7CB3 		.ascii	"@\374|\263\200\257\240\250#\026\336\020be\342\352\253"
 658      80AFA0A8 
 658      2316DE10 
 658      6265E2EA 
 658      AB
 659 06ea 1659129A 		.ascii	"\026Y\022\232\033\262\323h\273^\243%7(\377\2156\263"
 659      1BB2D368 
 659      BB5EA325 
 659      3728FF8D 
 659      36B3
 660 06fc E72CF697 		.ascii	"\347,\366\227\252\240_\276\211\350-\"\364C\321\264\277"
 660      AAA05FBE 
 660      89E82D22 
 660      F443D1B4 
 660      BF
 661 070d 7CFFABE6 		.ascii	"|\377\253\346\331l\353\207\357e\037\"\337\220\334\026"
 661      D96CEB87 
 661      EF651F22 
 661      DF90DC16 
 662 071d CDAD4842 		.ascii	"\315\255HB\253 2T\253U\202\003S\322\0246_\216\356\323"
 662      AB203254 
 662      AB558203 
 662      53D21436 
 662      5F8EEED3 
 663 0731 483A5D2D 		.ascii	"H:]-\033\341p\326\321\235ah0':\317\340Ib\267H\362o\271"
 663      1BE170D6 
 663      D19D6168 
 663      30273ACF 
 663      E04962B7 
 664 0749 E638A696 		.ascii	"\3468\246\226\321\305q\312\214\222\260\203\254Ow\212"
ARM GAS  /tmp/cc0h7QKQ.s 			page 53


 664      D1C571CA 
 664      8C92B083 
 664      AC4F778A 
 665 0759 43E1FC11 		.ascii	"C\341\374\02197\301Y;\354\"b\227>\"\216\272\326\273"
 665      3937C159 
 665      3BEC2262 
 665      973E228E 
 665      BAD6BB
 666 076c C0E41D3B 		.ascii	"\300\344\035;1\215z1\247n,\360`\035s\300K\362).\262"
 666      318D7A31 
 666      A76E2CF0 
 666      601D73C0 
 666      4BF2292E 
 667 0781 61BB9A78 		.ascii	"a\273\232x6l?y\244|\236f\335\016\363\302\301Ij\350r"
 667      366C3F79 
 667      A47C9E66 
 667      DD0EF3C2 
 667      C1496AE8 
 668 0796 6F55D10E 		.ascii	"oU\321\016\021]\315u\260\254+\260\260:\237Yj:\330\223"
 668      115DCD75 
 668      B0AC2BB0 
 668      B03A9F59 
 668      6A3AD893 
 669 07aa 296B7E89 		.ascii	")k~\211\317\231\355\373*X\256\267\235\304\332\017&k"
 669      CF99EDFB 
 669      2A58AEB7 
 669      9DC4DA0F 
 669      266B
 670 07bc 384854CD 		.ascii	"8HT\315\365\341.\035\346\201|\270FKTu8\030\310\225"
 670      F5E12E1D 
 670      E6817CB8 
 670      464B5475 
 670      3818C895 
 671 07d0 894D73F9 		.ascii	"\211Ms\371\343\204\316\312{E\221\341\366\326\242\006"
 671      E384CECA 
 671      7B4591E1 
 671      F6D6A206 
 672 07e0 2776E886 		.ascii	"'v\350\206\310\0212D:\365\303BDo\370\034X\177\230]0"
 672      C8113244 
 672      3AF5C342 
 672      446FF81C 
 672      587F985D 
 673 07f5 C244D466 		.ascii	"\302D\324fL\363.7\343YME\006<\2757a_\334N\236\3254J"
 673      4CF32E37 
 673      E3594D45 
 673      063CBD37 
 673      615FDC4E 
 674 080d FFC709B9 		.ascii	"\377\307\011\271\221\366`o.\340\306m$\317\306\315N\360"
 674      91F6606F 
 674      2EE0C66D 
 674      24CFC6CD 
 674      4EF0
 675 081f 46DB295B 		.ascii	"F\333)[\231x\257\235/LhN\371\003\327xF~\237,0\254%\232"
 675      9978AF9D 
 675      2F4C684E 
 675      F903D778 
 675      467E9F2C 
ARM GAS  /tmp/cc0h7QKQ.s 			page 54


 676 0837 9CC03DE2 		.ascii	"\234\300=\342\330\367\251\034\276$\034\024\260\357\017"
 676      D8F7A91C 
 676      BE241C14 
 676      B0EF0F
 677 0846 0978626C 		.ascii	"\011xbl#\347\023\344|\215\234\223\344\\A\246\3159\344"
 677      23E713E4 
 677      7C8D9C93 
 677      E45C41A6 
 677      CD39E4
 678 0859 BC909CDF 		.ascii	"\274\220\234\337$\347\267\311\271\201\234\333\310\371"
 678      24E7B7C9 
 678      B9819CDB 
 678      C8F9
 679 0867 18399F20 		.ascii	"\0309\237 \347S\344\374)9\177\346d\3125\255>x\3107\365"
 679      E753E4FC 
 679      29397FE6 
 679      64CA35AD 
 679      3E78C837 
 680 087c 36699968 		.ascii	"6i\231h\333\253K\245\264\370\004\227`\005\231l\330\244"
 680      DBAB4BA5 
 680      B4F80497 
 680      6005996C 
 680      D8A4
 681 088e B3E16E62 		.ascii	"\263\341nb\303fb\2533zM\371\003\2701s\324\333\252\240"
 681      C36662AB 
 681      337A4DF9 
 681      03B83173 
 681      D4DBAAA0 
 682 08a2 76751E7C 		.ascii	"vu\036|\357\241\324\224\356\360\305\361.>\245\237#\203"
 682      EFA1D494 
 682      EEF0C5F1 
 682      2E3EA59F 
 682      2383
 683 08b4 E590CF3C 		.ascii	"\345\220\317<\245\2573O\351.^\235\212\250\303' \373"
 683      A5AF334F 
 683      E92E5E9D 
 683      8AA8C327 
 683      20FB
 684 08c6 E5548655 		.ascii	"\345T\206U\200\265%\033u\226L\020K\356 \226<k\234\217"
 684      80B5251B 
 684      75964C10 
 684      4BEE2096 
 684      3C6B9C8F 
 685 08da 8EFA4C6F 		.ascii	"\216\372Lo)\237\341\242\362SRm\363j\260\271\352n\366"
 685      299FE1A2 
 685      F253526D 
 685      F36AB0B9 
 685      EA6EF6
 686 08ed 54604BF2 		.ascii	"T`K\362W\217\335N\000\255\262\006\326j\254\324\251\261"
 686      578FDD4E 
 686      00ADB206 
 686      D66AACD4 
 686      A9B1
 687 08ff 8AA8B19A 		.ascii	"\212\250\261\232\250\261\231\234\267\220\363Vr\336F"
 687      A8B1999C 
 687      B790F356 
 687      72DE46
ARM GAS  /tmp/cc0h7QKQ.s 			page 55


 688 090e CE5F3A19 		.ascii	"\316_:\031\022\313R+t\303\272i \252\"\353\246\332~4"
 688      12CB522B 
 688      74C3BA69 
 688      20AA22EB 
 688      A6DA7E34 
 689 0922 53C6FA6F 		.ascii	"S\306\372o\320\326N?c\000\227\304\201\244f\010\037\322"
 689      D0D64E3F 
 689      630097C4 
 689      81A46608 
 689      1FD2
 690 0934 C24E648F 		.ascii	"\302Nd\217.\035\227\037HU\006g\241\372\177\251\225\014"
 690      2E1D971F 
 690      48550667 
 690      A1FA7FA9 
 690      950C
 691 0946 5B7EA8B3 		.ascii	"[~\250\263\324a\253S\261:\200\367\300?\365\320\036\270"
 691      D461AB53 
 691      B13A80F7 
 691      C03FF5D0 
 691      1EB8
 692 0958 5BEE22FB 		.ascii	"[\356\"\373\331\313$R/\230\"\3259Pr\366{\367\020\240"
 692      D9CB2452 
 692      2F9822D5 
 692      395072F6 
 692      7BF710A0 
 693 096c 6F08D037 		.ascii	"o\010\3207\275\006Z\334\262\356!\002\364\035\001\272"
 693      BD065ADC 
 693      B2EE2102 
 693      F41D01BA 
 694 097c 9E36763C 		.ascii	"\2366v<\246\241\3431\016\035O UI&=\350'll\031\021\330"
 694      A6A1E331 
 694      0E1D4F20 
 694      5549263D 
 694      E8276C6C 
 695 0993 BB781B65 		.ascii	"\273x\033e\271\232\306\250?\272\216\210k6\021\301\371"
 695      B99AC6A8 
 695      3FBA8E88 
 695      6B3611C1 
 695      F9
 696 09a4 DAF5FB41 		.ascii	"\332\365\373At\025\274s\2647nC\031@\3225U\325cM\265"
 696      7415BC73 
 696      B4376E43 
 696      1940D235 
 696      55D5634D 
 697 09b9 200BD5EB 		.ascii	" \013\325\353\356\250ViT\177\311\000*=n\251N\267\241"
 697      EEA85669 
 697      547FC900 
 697      2A3D6EA9 
 697      4EB7A1
 698 09cc 3A340BD5 		.ascii	":4\013\325\012\217+\252O\361\376y\254\377L\327Lg\331"
 698      0A8F2BAA 
 698      4FF1FE79 
 698      ACFF4CD7 
 698      4C67D9
 699 09df 30ED9385 		.ascii	"0\355\223\205\351\014wL'\032qa\301\341\232\351\2136"
 699      E90C774C 
 699      271A7161 
ARM GAS  /tmp/cc0h7QKQ.s 			page 56


 699      C1E19AE9 
 699      8B36
 700 09f1 4CD31EEC 		.ascii	"L\323\036\354\246~\263\3351\035\306\373\347\260\376"
 700      A67EB3DD 
 700      311DC6FB 
 700      E7B0FE
 701 0a00 2FB966FA 		.ascii	"/\271f\372\262\015So\026\246s\3351\255\325\206\377M"
 701      B20D536F 
 701      16A673DD 
 701      31ADD586 
 701      FF4D
 702 0a12 0CE015D7 		.ascii	"\014\340\025\327T_\265\241:(\013\325y\356\250\256\326"
 702      545FB5A1 
 702      3A280BD5 
 702      79EEA8AE 
 702      D6
 703 0a23 A80E6600 		.ascii	"\250\016f\000\363]S\255\266\241zs\026\252U\356\250\216"
 703      F35D53AD 
 703      B6A17A73 
 703      16AA55EE 
 703      A88E
 704 0a35 33C6152C 		.ascii	"3\306\025,\212]3}\315\206\251?\013\323\005\356\230\032"
 704      8A5D337D 
 704      CD86A93F 
 704      0BD305EE 
 704      981A
 705 0a47 9634B87F 		.ascii	"\2264\270\177\215k\246\2656L\363\2620}=\305\3646\264"
 705      8D6BA6B5 
 705      364CF3B2 
 705      307D3DC5 
 705      F436B4
 706 0a5a 544D5CEA 		.ascii	"TM\\\352\332\264\374\323\337\325\341\337\020\250\327"
 706      DAB4FCD3 
 706      DFD5E1DF 
 706      10A8D7
 707 0a69 932F083F 		.ascii	"\223/\010?C\2571\006\252\240\330\376\002\002#\275\341"
 707      43AF3106 
 707      AAA0D8FE 
 707      020223BD 
 707      E1
 708 0a7a E1AB9927 		.ascii	"\341\253\231'\331#GD\333\375\306\3472B\277B+0\236\272"
 708      D9234744 
 708      DBFDC6E7 
 708      3242BF42 
 708      2B309EBA 
 709 0a8e 5AF51034 		.ascii	"Z\365\0204\334~\221\3476\244;$a\261\307\360;SJ\214\274"
 709      DC7E91E7 
 709      36A43B24 
 709      61B1C7F0 
 709      3B534A8C 
 710 0aa3 09AFE84A 		.ascii	"\011\257\350J&o\243\262D\324\352\010\275\316\214\276"
 710      266FA3B2 
 710      44D4EA08 
 710      BDCE8CBE 
 711 0ab3 D412FDF2 		.ascii	"\324\022\375\362.\023\372YG\350\365f\364e\226\350U\035"
 711      2E13FA59 
 711      47E8F566 
ARM GAS  /tmp/cc0h7QKQ.s 			page 57


 711      F46596E8 
 711      551D
 712 0ac5 26F46B8E 		.ascii	"&\364k\216\320\3372\243\277m\211~\251\335\204^\035p"
 712      D0DF32A3 
 712      BF6D897E 
 712      A9DD845E 
 712      1D70
 713 0ad7 82BED28C 		.ascii	"\202\276\322\214\276\312\022}\251\331\356+\034\2417"
 713      BECA127D 
 713      A9D9EE2B 
 713      1CA137
 714 0ae6 98D1D758 		.ascii	"\230\321\327X\242\0375\333}\253#\364\265f\364u\226\350"
 714      A21F35DB 
 714      7DAB23F4 
 714      B566F475 
 714      96E8
 715 0af8 8D66EE2D 		.ascii	"\215f\356-\216\320\327\233\3217X\242\177o\346\336\345"
 715      8ED0D79B 
 715      D13758A2 
 715      7F6FE6DE 
 715      E5
 716 0b09 087DA319 		.ascii	"\010}\243\031}S:zWU\327\231+\011a\221\272s\206\232L"
 716      7D533A7A 
 716      5755D799 
 716      2B096191 
 716      BA73869A 
 717 0b1e BE809C8F 		.ascii	"\276\200\234\217\303-l\034z\310z\231\355NR\203\022\341"
 717      C32D6C1C 
 717      7AC87A99 
 717      ED4E5283 
 717      12E1
 718 0b30 71F94D1A 		.ascii	"q\371M\032O\332t\253%\221\353\353{\356\261&\342G\263"
 718      4FDA74AB 
 718      2591EBEB 
 718      7BEEB126 
 718      E247B3
 719 0b43 C92BB199 		.ascii	"\311+\261\231j\205\360\2346\311\330\374L\001vt\036?"
 719      6A85F09C 
 719      36C9D8FC 
 719      4C017674 
 719      1E3F
 720 0b55 4EDCF7B1 		.ascii	"N\334\367\261\375\221\001n\200\017\334\237\326y-\303"
 720      FD91016E 
 720      800FDC9F 
 720      D6792DC3 
 721 0b65 4BE66D66 		.ascii	"K\346mf\205q{\355\013\373\005\202\311\000\313\373X\033"
 721      85717BED 
 721      0BFB0582 
 721      C900CBFB 
 721      581B
 722 0b77 20616980 		.ascii	" ai\200\025\327\233m=\241[\305\2471\333i\345\012\355"
 722      15D79B6D 
 722      3DA15BC5 
 722      A731DB69 
 722      E50AED
 723 0b8a 0BFB15B3 		.ascii	"\013\373\025\263\211\331z\033fMV\314\022'w\277\254\012"
 723      89D97A1B 
ARM GAS  /tmp/cc0h7QKQ.s 			page 58


 723      664D56CC 
 723      122777BF 
 723      AC0A
 724 0b9c 34065DF0 		.ascii	"4\006]\360\332\355\204\227\366\3752\335X\230xn\263\341"
 724      DAED8497 
 724      F6FD32DD 
 724      5898786E 
 724      B3E1
 725 0bae D962C9F3 		.ascii	"\331b\311\363x\257x\356\317\310s\215`\305\353c\033^"
 725      78AF78EE 
 725      CFC8738D 
 725      60C5EB63 
 725      1B5E
 726 0bc0 872C791D 		.ascii	"\207,y\035\351\025\2576'\274\262\330\257\335\206g\207"
 726      E915AF36 
 726      27BCB2D8 
 726      AFDD8667 
 726      87
 727 0bd1 25CF8E14 		.ascii	"%\317\216\024Oj\026\021}j\003p\304\022\240M\017\320"
 727      4F6A1611 
 727      7D6A0370 
 727      C412A04D 
 727      0FD0
 728 0be3 46002ED8 		.ascii	"F\000.\330\000\034\265\004\370\363\354\227oQ\227U&\222"
 728      001CB504 
 728      F8F3EC97 
 728      6F519755 
 728      2692
 729 0bf5 C9875D4C 		.ascii	"\311\207]LF\307]E\3329KK}m\303\263\313f\262\272j3Y\321"
 729      46C75D45 
 729      DA394B4B 
 729      7D6DC3B3 
 729      CB66B2BA 
 730 0c0d 89C18E69 		.ascii	"\211\301\216i\267\221\251\351\255\244n\261\226\326\363"
 730      B791A9E9 
 730      ADA46EB1 
 730      96D6F3
 731 0c1c 746A0995 		.ascii	"tj\011\225e\326\231\236g\255\311\347\226\026\377\240"
 731      65D6999E 
 731      67ADC9E7 
 731      9616FFA0 
 732 0c2c C52E3633 		.ascii	"\305.63\030\374\234\331\340\230\271\211\306\"\033\032"
 732      18FC9CD9 
 732      E098B989 
 732      C6221B1A 
 733 0c3c 7FB534E8 		.ascii	"\177\2654\350\214\357\233\2059\325\352\2178\231A\237"
 733      8CEF9B85 
 733      39D5EA8F 
 733      3899419F 
 734 0c4c 2E226AB0 		.ascii	".\"j\260A\370\302\210\360K\264LM\034\352\332\270\374"
 734      41F8C288 
 734      F04BB44C 
 734      4D1CEADA 
 734      B8FC
 735 0c5e 6A2ECEE9 		.ascii	"j.\316\351\251\030D\020\370\277\376l\326@\2302\351\377"
 735      A9184410 
 735      F8BFFE6C 
ARM GAS  /tmp/cc0h7QKQ.s 			page 59


 735      D6409832 
 735      E9FF
 736 0c70 D77391E1 		.ascii	"\327s\221\341=\2006\251s\022\317\320\2364e\367G\364"
 736      3D8036A9 
 736      7312CFD0 
 736      9E3465F7 
 736      47F4
 737 0c82 3DCEFFE0 		.ascii	"=\316\377\340\354\005\025\2238q\325\257V\253\352\245"
 737      EC051593 
 737      3871D5AF 
 737      56ABEAA5 
 738 0c92 64B23FCD 		.ascii	"d\262?\315\237\300Z\302,\"=\321r\331@\231&\002\037C"
 738      9FC05AC2 
 738      2C223DD1 
 738      72D94099 
 738      26021F43 
 739 0ca6 1FA973D4 		.ascii	"\037\251s\324\304)\211\206\250N\224$\364xH2A\217B\363"
 739      C4298986 
 739      A84E9424 
 739      F4784832 
 739      418F42F3 
 740 0cba 8656AD68 		.ascii	"\206V\255h.\321\372\016\316/R\275\012h\256\223fT\265"
 740      2ED1FA0E 
 740      CE2F52BD 
 740      0A68AE93 
 740      6654B5
 741 0ccd 4BF4D570 		.ascii	"K\364\325p3\357o\012\310\235\031^\223\177\237\012\310"
 741      33EF6F0A 
 741      C89D195E 
 741      937F9F0A 
 741      C8
 742 0cde BBD15DB4 		.ascii	"\273\321]\264-\251P)_\002\003*\236\265\337\301\253\344"
 742      2DA95029 
 742      5F02032A 
 742      9EB5DFC1 
 742      ABE4
 743 0cf0 1B4E8D33 		.ascii	"\033N\2153\306\030\3105\002\2429a\314)\227\015g\234"
 743      C618C835 
 743      02A23961 
 743      CC29970D 
 743      679C
 744 0d02 4475A16A 		.ascii	"Du\241j6\301ZN\266\327\324m\020\214\324\275<\204\353"
 744      36C15A4E 
 744      B6D7D46D 
 744      108CD4BD 
 744      3C84EB
 745 0d15 ABBB92EB 		.ascii	"\253\273\222\353{\356n\330\250\316x\021\247\333\205"
 745      7BEE6ED8 
 745      A8CE7811 
 745      A7DB85
 746 0d24 24ACE572 		.ascii	"$\254\345rp\336q\2479\276\322s\035^-\2740\324\206\004"
 746      70DE71A7 
 746      39BED273 
 746      1D5E2DBC 
 746      30D48604 
 747 0d38 ECAFAE06 		.ascii	"\354\257\256\006\267U\342\375\025\205J\245\0045\027"
 747      B755E2FD 
ARM GAS  /tmp/cc0h7QKQ.s 			page 60


 747      15854AA5 
 747      043517
 748 0d47 2752EFDC 		.ascii	"'R\357\334\353a\304gy\355\016\344Z\207\3407\011Y_\323"
 748      EB61C467 
 748      79ED0EE4 
 748      5A87E037 
 748      09595FD3 
 749 0d5b 4BC22BDE 		.ascii	"K\302+\336;\254\376\211$}XTyM\377\271\363\003\376\217"
 749      3BACFE89 
 749      247D5854 
 749      794DFFB9 
 749      F303FE8F 
 750 0d6f 3A7C1559 		.ascii	":|\025Y\214|v\260\027:\327\2565\323\237#T\222\210\237"
 750      8C7C76B0 
 750      173AD7AE 
 750      35D39F23 
 750      5492889F 
 751 0d83 4DDE0FE1 		.ascii	"M\336\017\341\256VF\3226\254|T\245\275\037J\236oN\373"
 751      AE5646D2 
 751      36AC7C54 
 751      A5BD1F4A 
 751      9E6F4EFB 
 752 0d97 073DBAE0 		.ascii	"\007=\272\340\2663\372B\257\356u\375>\342#7\342\013"
 752      B633FA42 
 752      AFEE75FD 
 752      3EE22337 
 752      E20B
 753 0da9 0CE2AB76 		.ascii	"\014\342\253v\221\327S\030SDmN\3002\374\264\242Z\017"
 753      91D75318 
 753      53446D4E 
 753      C032FCB4 
 753      A25A0F
 754 0dbc 76CC3558 		.ascii	"v\3145X\201\311\340\374M\306|/~\223Q\355\305o,\026\220"
 754      81C9E0FC 
 754      4DC67C2F 
 754      7E9351ED 
 754      C56F2C16 
 755 0dd1 F3EBE45C 		.ascii	"\363\353\344\\\3535\274\234\371\3144ms\207\352\360R"
 755      EB35BC9C 
 755      F9CC346D 
 755      7387EAF0 
 755      52
 756 0de2 7E47D911 		.ascii	"~G\331\021\255\355or\324<\033\375\310F\337k\370i\023"
 756      ADED6F72 
 756      D43C1BFD 
 756      C846DF6B 
 756      F86913
 757 0df5 B20D487D 		.ascii	"\262\015H}\336\034w\262\215\333%\336\201\254vM\377\033"
 757      DE1C77B2 
 757      8DDB25DE 
 757      81AC764D 
 757      FF1B
 758 0e07 3BDD5711 		.ascii	";\335W\021]\314\376T\250\203a{+R\363\353Tj\177:U=\""
 758      5DCCFE54 
 758      A883617B 
 758      2B52F3EB 
 758      546A7F3A 
ARM GAS  /tmp/cc0h7QKQ.s 			page 61


 759 0e1e 092F01BE 		.ascii	"\011/\001\276\346Y<\327\324\2520\242w\024{(/<\306\017"
 759      E6593CD7 
 759      D4AA30A2 
 759      77147B28 
 759      2F3CC60F 
 760 0e32 1D4ABCD3 		.ascii	"\035J\274\323\202\337\252\303 \277\016\017<j\002\021"
 760      82DFAAC3 
 760      20BF0E0F 
 760      3C6A0211 
 761 0e42 BD919F55 		.ascii	"\275\221\237U\354r\257h\0247\217\270\003\273\201\312"
 761      EC72AF68 
 761      14378FB8 
 761      03BB81CA 
 762 0e52 4A6C6A11 		.ascii	"Jlj\021\234d\224\266j\217\322;\031\364J\257\333\224"
 762      9C6494B6 
 762      6A8FD23B 
 762      19F44AAF 
 762      DB94
 763 0e64 D22AAF75 		.ascii	"\322*\257uJ\351W\031\275\017\032\246\234z+Z\005&\254"
 763      4AE95719 
 763      BD0F1AA6 
 763      9C7A2B5A 
 763      0526AC
 764 0e77 7D24259E 		.ascii	"}$%\236F\023V\006\036\260\233\363\350P\320\266\3634"
 764      46135606 
 764      1EB09BF3 
 764      E850D0B6 
 764      F334
 765 0e89 CAD8DD2D 		.ascii	"\312\330\335-\332\335z~\2676uw\253vW\277\235f\234\004"
 765      DADD7A7E 
 765      B7367577 
 765      AB7657BF 
 765      9D669C04 
 766 0e9d 6EAEEA9F 		.ascii	"n\256\352\237\033\374\362Z\273\205_\016f\367\313\377"
 766      1BFCF25A 
 766      BB855F0E 
 766      66F7CBFF 
 767 0ead 66F54B4D 		.ascii	"f\365KM\273#\277\244/q6\272\366\313&\033\277\334\231"
 767      BB23BFA4 
 767      2F7136BA 
 767      F6CB261B 
 767      BFDC99
 768 0ec0 C52FEFE8 		.ascii	"\305/\357\350\375r\234\371e\243\225_jo\342\266m\260"
 768      FD729CF9 
 768      65A3955F 
 768      6A6FE2B6 
 768      6DB0
 769 0ed2 F0CB1BDA 		.ascii	"\360\313\033\332\335:\013\277,\321\356\256O\367\213"
 769      DD3A0BBF 
 769      2CD1EEAE 
 769      4FF78B
 770 0ee1 C8CDB5D0 		.ascii	"\310\315\265\320\350\227\366\303\026~\231\3317\253_"
 770      E897F6C3 
 770      167E99D9 
 770      37AB5F
 771 0ef0 B665F5CB 		.ascii	"\266e\365\313'\207\035\371e\216\006\315\315\321\350"
 771      27871DF9 
ARM GAS  /tmp/cc0h7QKQ.s 			page 62


 771      658E06CD 
 771      CDD1E8
 772 0eff DA2F1FDA 		.ascii	"\332/\037\332\370e@\026\277\374Y\357\227\352\276\324"
 772      F8654016 
 772      BFFC59EF 
 772      97EABED4 
 773 0f0f 2F8D567E 		.ascii	"/\215V~\351\370\007n\333\225\026~9\242\335]d\341\227"
 773      E9F8076E 
 773      DB95167E 
 773      39A2DD5D 
 773      64E197
 774 0f22 A3DADDB7 		.ascii	"\243\332\335\267\322\375\342!\025>\033\233&\360-\031"
 774      D2FDE221 
 774      153E1B9B 
 774      26F02D19 
 775 0f32 9EB41F7B 		.ascii	"\236\264\037{\255\023\335d}d\327\251\311\266S[\006Q"
 775      AD13DD64 
 775      7D64D7A9 
 775      C9B6535B 
 775      0651
 776 0f44 BB6C7B6D 		.ascii	"\273l{m\313\320kw\252\227\215\353G\363.>\326\245\331"
 776      CBD06B77 
 776      AA978DEB 
 776      47F32E3E 
 776      D6A5D9
 777 0f57 B5E7F7D8 		.ascii	"\265\347\367\330x>\327\232\357\376\014|\367\332j\271"
 777      783ED79A 
 777      EFFE0C7C 
 777      F7DA6AB9 
 778 0f67 3B43AF16 		.ascii	";C\257\026\333^;3\364\332\3475\347\376\027]\350yz-\317"
 778      DB5E3B33 
 778      F4DAE735 
 778      E7FE175D 
 778      E8797A2D 
 779 0f7c FD57CC10 		.ascii	"\375W\314\020x^\363\343\276\346\375\236U^s\277\327\224"
 779      785EF3E3 
 779      BEE6FD9E 
 779      555E73BF 
 779      D794
 780 0f8e D73CE04D 		.ascii	"\327<\340M\333P\202\220\266\356#O\343\037\313\340\035"
 780      DB508290 
 780      B6EE234F 
 780      E31FCBE0 
 780      1D
 781 0f9f FA       		.ascii	"\372"
 782 0fa0 502EE180 		.ascii	"P.\341\200#\011\207\314\022Z-%\364\\<?\344jJ\015M\310"
 782      230987CC 
 782      125A2D25 
 782      F45C3C3F 
 782      E46A4A0D 
 783 0fb6 DC7E7A21 		.ascii	"\334~z!d\213,\242\332~B&\221\355f\221\177\261\024\271"
 783      648B2CA2 
 783      DA7E4226 
 783      91ED6691 
 783      7FB114B9 
 784 0fca E8426BB1 		.ascii	"\350Bk\261\225\345V\366s\242\327\021\263\220N\033\313"
 784      95E556F6 
ARM GAS  /tmp/cc0h7QKQ.s 			page 63


 784      73A2D711 
 784      B3904E1B 
 784      CB
 785 0fdb 7505D32C 		.ascii	"u\005\323,\267\321\221\204cf\011\307m,\327Z#\324LW\233"
 785      B7D19184 
 785      636609C7 
 785      6D2CD75A 
 785      23D44C57 
 786 0ff0 C936BA7E 		.ascii	"\3116\272~\216\310\2454\246\233N\022:R\030V"
 786      8EC8A534 
 786      A69B4E12 
 786      3A521856 
 787 1000 324F9A65 		.ascii	"2O\232e\2362\3124\205\352\361\014\241\332m\033\340\333"
 787      9E32CA34 
 787      85EAF10C 
 787      A1DA6D1B 
 787      E0DB
 788 1012 336C843F 		.ascii	"3l\204?\263\355u.\203\254\323\266\275\2723\364:\223"
 788      B3ED752E 
 788      83ACD3B6 
 788      BDBA33F4 
 788      3A93
 789 1024 3698DEFB 		.ascii	"6\230\336\373\266\363\277\255B\342\202#\207}n6\336Y"
 789      B6F3BFAD 
 789      42E28223 
 789      877D6E36 
 789      DE59
 790 1036 4B8735AD 		.ascii	"K\2075\255?/\362\220X6\300\224':\227!k\365Wo\366\327"
 790      3F2FF290 
 790      5836C094 
 790      273A9721 
 790      6BF5576F 
 791 104c 04574C4C 		.ascii	"\004WLLoGo\251j\265\372\211<\2166\027\321\213\375q\213"
 791      6F476FA9 
 791      6AB5FA89 
 791      3C8E3617 
 791      D18BFD71 
 792 1061 F3C0D54A 		.ascii	"\363\300\325J\216\366\313(\246\340\261\323\023\307\361"
 792      8EF6CB28 
 792      A6E0B1D3 
 792      13C7F1
 793 1070 2C9F7D2F 		.ascii	",\237}/F\360\013K}\337\373\266\347OVF\235\327\337\211"
 793      46F00B4B 
 793      7DDFFBB6 
 793      E74F5646 
 793      9DD7DF89 
 794 1084 512F998D 		.ascii	"Q/\231\215\332c)d\3056\275Q\251\255D\264\270\177fkH"
 794      DA632964 
 794      C536BD51 
 794      A9AD44B4 
 794      B87F666B 
 795 1099 C2452FDE 		.ascii	"\302E/\336\351~\325+k\330\365bD\2776\022\275\023\255"
 795      E97ED52B 
 795      6BD8F562 
 795      44BF3612 
 795      BD13AD
 796 10ac 0404FCAE 		.ascii	"\004\004\374\256\266x\376\364J\301\020\352\372\026\352"
ARM GAS  /tmp/cc0h7QKQ.s 			page 64


 796      B678FEF4 
 796      4AC110EA 
 796      FA16EA
 797 10bb C6FA016E 		.ascii	"\306\372\001no\242{\206\017\037A\377\242\361\021\241"
 797      6FA27B86 
 797      0F1F41FF 
 797      A2F111A1 
 798 10cb 68696934 		.ascii	"hii4\002\265pI\341\210\222H(\\^$\217\010\025\227\026"
 798      02B57049 
 798      E1889248 
 798      285C5E24 
 798      8F081597 
 799 10e0 46A7CAF1 		.ascii	"F\247\312\361\341\305(P*\225\204\341KP\311\035\373\237"
 799      E1C52850 
 799      2A9584E1 
 799      4B50C91D 
 799      FB9F
 800 10f2 4F168C41 		.ascii	"O\026\214A\243-z\227EcJ|\304\243\277\2370f\302T|\255"
 800      A32D7A97 
 800      45634A7C 
 800      C4A3BF9F 
 800      3066C254 
 801 1108 AC242CC7 		.ascii	"\254$,\307\342#\306\216\031\003P\312\2642\202\224S\032"
 801      E223C68E 
 801      190350CA 
 801      B4328294 
 801      531A
 802 111a 9F1C54FE 		.ascii	"\237\034T\376qDy<\246\011\212\310S\260\334\270RT\022"
 802      7144793C 
 802      A6098AC8 
 802      53B0DCB8 
 802      525412
 803 112d 51A08D0F 		.ascii	"Q\240\215\017>\356\277/\250\334k\325\252T\012\025\227"
 803      3EEEBF2F 
 803      A8DC6BD5 
 803      AA540A15 
 803      97
 804 113e 44E411C1 		.ascii	"D\344\021\301\"y\222T\036V\202\0349\020\014\262~\271"
 804      22799254 
 804      1E56821C 
 804      39100CB2 
 804      7EB9
 805 1150 85E59326 		.ascii	"\205\345\223&\3111\217\022-\313\231\022+Sb9\261\"8\337"
 805      C9318F12 
 805      2DCB9912 
 805      2B536239 
 805      B12238DF 
 806 1164 A6E71C53 		.ascii	"\246\347\034Stz\306\345R\000\310\203\017\251\2548\032"
 806      747AC6E5 
 806      5200C883 
 806      0FA9AC38 
 806      1A
 807 1175 93834A7E 		.ascii	"\223\203J~\2508\250}\275\335\276\343\2648\027\337_)"
 807      A838A87D 
 807      BDDDBEE3 
 807      B43817DF 
 807      5F29
ARM GAS  /tmp/cc0h7QKQ.s 			page 65


 808 1187 8EC95251 		.ascii	"\216\311RQ<\370\\\271\\\016\010\003\000\301p\251\300"
 808      3CF85CB9 
 808      5C0E0803 
 808      00C170A9 
 808      C0
 809 1198 1E25545C 		.ascii	"\036%T\\\004\010~\332<\250\004\264\2569\244\247O)\213"
 809      04087EDA 
 809      3CA804B4 
 809      AE39A4A7 
 809      4F298B
 810 11ab 9544838A 		.ascii	"\225D\203\212\277\234)\330'\030\344U/\276\225\217M\037"
 810      BF9C29D8 
 810      2718E455 
 810      2FBE958F 
 810      4D1F
 811 11bd 0C45238A 		.ascii	"\014E#\212<U\371\247\254\256)\016\201RXa\322\015\200"
 811      3C55F9A7 
 811      ACAE290E 
 811      81525861 
 811      D20D80
 812 11d0 42CAD47B 		.ascii	"B\312\324{\235\365\012>\377 6\225?&O\226b\245AE\214"
 812      9DF50A3E 
 812      FF203695 
 812      3F264F96 
 812      62A54145 
 813 11e5 8D16630F 		.ascii	"\215\026c\017yb\243FB\031%\306\036\020c\377,\306\036"
 813      7962A346 
 813      421925C6 
 813      1E1063FF 
 813      2CC61E
 814 11f8 1463FF22 		.ascii	"\024c\377\"\206cb\274\314\003\3209\34099\226\023\015"
 814      866362BC 
 814      CC03D039 
 814      E0393996 
 814      130D
 815 120a 17C9316F 		.ascii	"\027\3111o\250X\212y#R\251\334'\256<+\205K&G\230^\017"
 815      A8588A79 
 815      2352A9DC 
 815      27AE3C2B 
 815      854B2647 
 816 1221 3EA0E985 		.ascii	">\240\351\205\253\271S\244B).\373\225\270\")`N\037\276"
 816      ABB953A4 
 816      42292EFB 
 816      95B82229 
 816      604E1FBE 
 817 1235 311A6C43 		.ascii	"1\032lC\233@-\207\334\361)\245\321\"\270\2373),M\216"
 817      9B402D87 
 817      DCF129A5 
 817      D122B89F 
 817      33292C4D 
 818 124a FB94983C 		.ascii	"\373\224\230<)\016V\301\037\271\261\242i\020m~yj\211"
 818      290E56C1 
 818      1FB9B1A2 
 818      69106D7E 
 818      796A89
 819 125d 128246B9 		.ascii	"\022\202F\271S\224h\341\037\312\00613C\0239&GB\270\363"
 819      539468E1 
ARM GAS  /tmp/cc0h7QKQ.s 			page 66


 819      1FCA0631 
 819      33431339 
 819      264742B8 
 820 1272 14458995 		.ascii	"\024E\211\225\371\342rD\201\016\320\016\\_\346\007/"
 820      F9E27244 
 820      810ED00E 
 820      5C5FE607 
 820      2F
 821 1283 94968345 		.ascii	"\224\226\203E\355\343\246T\231\212C::%\"\307|\244-\210"
 821      EDE3A654 
 821      998A433A 
 821      3A2522C7 
 821      7CA42D88 
 822 1297 8E800F00 		.ascii	"\216\200\017\000\002\356\225\345\311\317cH)\376,($O"
 822      02EE95E5 
 822      C9CF6348 
 822      29FE2C28 
 822      244F
 823 12a9 C115A1BC 		.ascii	"\301\025\241\274\037\217\212pI\034\242\267\277.N\360"
 823      1F8F8A70 
 823      491CA2B7 
 823      BF2E4EF0 
 824 12b9 15DF14A9 		.ascii	"\025\337\024\251D)\211L\366\003\023\342}\277\\&G`dL"
 824      4429894C 
 824      F60313E2 
 824      7DBF5C26 
 824      4760644C 
 825 12cd F601246E 		.ascii	"\366\001$n\001\306\227\302\330\3559\245e\321h\030\""
 825      01C697C2 
 825      D8ED39A5 
 825      65D16818 
 825      22
 826 12de 407E3E27 		.ascii	"@~>'\024\001,\017\234}\223\312\303a\340\357\007\025"
 826      14012C0F 
 826      9C7D93CA 
 826      C361E0EF 
 826      0715
 827 12f0 94695009 		.ascii	"\224iP\011\340 -)\225\231\235G=\250\331\031WGi\312)"
 827      E0202D29 
 827      95999D47 
 827      3DA8D919 
 827      574769CA 
 828 1305 725CC1EA 		.ascii	"r\\\301\352\305\243\345\261\220L\277\342\023\214\003"
 828      C5A3E5B1 
 828      904CBFE2 
 828      138C03
 829 1314 E081ED34 		.ascii	"\340\201\3554r\344\350\341!4\230\\\204:\224\373\203"
 829      72E4E8E1 
 829      2134985C 
 829      843A94FB 
 829      83
 830 1325 8A2CC58A 		.ascii	"\212,\305\212\300\000\372\253\367Y^\035\245]\275\331"
 830      C000FAAB 
 830      F7595E1D 
 830      A55DBDD9 
 831 1335 80204F95 		.ascii	"\200 O\225C`\272A\206\213qY)/\033d\300L\2734\212^\272"
 831      4360BA41 
ARM GAS  /tmp/cc0h7QKQ.s 			page 67


 831      868B7159 
 831      292F1B64 
 831      C04CBB34 
 832 134c D9D08AA1 		.ascii	"\331\320\212\241\335lh\307.\302\270\232\360\233\337"
 832      DD6C68C7 
 832      2EC2B89A 
 832      F09BDF
 833 135b CBD0EB17 		.ascii	"\313\320\353\027F\255\361\274\202\335\000u\354\317\340"
 833      46ADF1BC 
 833      82DD0075 
 833      ECCFE0
 834 136a 6FC0ACF9 		.ascii	"o\300\254\371\344kP\212\307\345\230\322\007\367|\\V"
 834      E46B508A 
 834      C7E598D2 
 834      07F77C5C 
 834      56
 835 137b 42C5E303 		.ascii	"B\305\343\003Z\265\037\256M\214\306\225G\213\301{\343"
 835      5AB51FAE 
 835      4D8CC695 
 835      478BC17B 
 835      E3
 836 138c FB1ABE06 		.ascii	"\373\032\276\006\370\267\361~^#\355\177W\370\0079\244"
 836      F8B7F17E 
 836      5E23ED7F 
 836      57F80739 
 836      A4
 837 139d 8C8F9428 		.ascii	"\214\217\224(\203\365\0024#\367'\027\345\322\022pg\364"
 837      83F50234 
 837      23F72717 
 837      E5D21270 
 837      67F4
 838 13af 5939D247 		.ascii	"Y9\322G\343<\336SZ8*PZ\030\244\263[\200\372F\221\313"
 838      E33CDE53 
 838      5A382A50 
 838      5A18A4B3 
 838      5B80FA46 
 839 13c5 728819FC 		.ascii	"r\210\031\374\334\272>\246m\037\334 \004c(\250\014L"
 839      DCBA3EA6 
 839      6D1FDC20 
 839      046328A8 
 839      0C4C
 840 13d7 F3E32DC3 		.ascii	"\363\343-\303c\321\"I\221\206\247\335\311\327[\356\316"
 840      63D12249 
 840      9186A7DD 
 840      C9D75BEE 
 840      CE
 841 13e8 0974DE2F 		.ascii	"\011t\336/\210Dc\245R\270\340\321\211\343\357\201z\344"
 841      884463A5 
 841      52B8E0D1 
 841      89E3EF81 
 841      7AE4
 842 13fa DEC27034 		.ascii	"\336\302p4\364,\304d\001n\035G\372N\367\015\343\235"
 842      F42CC464 
 842      016E1D47 
 842      FA4EF70D 
 842      E39D
 843 140c C6DF3B26 		.ascii	"\306\337;&\014\3529\352u\377@\336\013\307j\264\034n"
ARM GAS  /tmp/cc0h7QKQ.s 			page 68


 843      0CEA39EA 
 843      75FF40DE 
 843      0BC76AB4 
 843      1C6E
 844 141e 6798AFA7 		.ascii	"g\230\257\247\221\011?T\374\304\264\370o\0012@&2\014"
 844      91093F54 
 844      FCC4B4F8 
 844      6F013240 
 844      26320C
 845 1431 3ECA621A 		.ascii	">\312b\032\203\3618b\314\204'\306?\221B(\215\227\304"
 845      83F13862 
 845      CC8427C6 
 845      3F914228 
 845      8D97C4
 846 1444 83934321 		.ascii	"\203\223C!@\351\033\014\026\225\304\245\302\260\034"
 846      40E91B0C 
 846      1695C4A5 
 846      C2B01C
 847 1453 2C893DD7 		.ascii	",\211=\327W\012O\221\246\305aR\014\303C&\217Hx2\202"
 847      570A4F91 
 847      A6C56152 
 847      0CC34326 
 847      8F487832 
 848 1468 91E96459 		.ascii	"\221\351dYN\352\371\301\240\034\341]\0144\213\2450|"
 848      4EEAF9C1 
 848      A01CE15D 
 848      0C348BA5 
 848      307C
 849 147a C009F8E2 		.ascii	"\300\011\370\342O<\313\342OFt \366\346XYy<&\313c\242"
 849      4F3CCBE2 
 849      4F467420 
 849      F6E65859 
 849      793C26CB 
 850 1490 E511E2D4 		.ascii	"\345\021\342\324\262\276\254\005\025\304\333<\031\227"
 850      B2BEAC05 
 850      15C4DB3C 
 850      1997
 851 149e 8B689BFF 		.ascii	"\213h\233\377\007\224\353\275,"
 851      0794EBBD 
 851      2C
 852              		.text
 853              		.section	.gnu.lto_.symtab.a8ca9c04ac466a28,"",%progbits
 854 0000 74657374 		.ascii	"test_sequence_008\000\000\000\000\000\000\000\000\000"
 854      5F736571 
 854      75656E63 
 854      655F3030 
 854      38000000 
 855 001a 0000000A 		.ascii	"\000\000\000\012\002\000\000test_step\000\000\002\000"
 855      02000074 
 855      6573745F 
 855      73746570 
 855      00000200 
 856 002e 00000000 		.ascii	"\000\000\000\000\000\000\000\000\010\002\000\000chM"
 856      00000000 
 856      08020000 
 856      63684D
 857 003d 42526573 		.ascii	"BReset\000\000\002\000\000\000\000\000\000\000\000\000"
ARM GAS  /tmp/cc0h7QKQ.s 			page 69


 857      65740000 
 857      02000000 
 857      00000000 
 857      0000
 858 004f B5010000 		.ascii	"\265\001\000\000_test_assert\000\000\002\000\000\000"
 858      5F746573 
 858      745F6173 
 858      73657274 
 858      00000200 
 859 0065 00000000 		.ascii	"\000\000\000\000\000\000\271\001\000\000chMBFetchI\000"
 859      0000B901 
 859      00006368 
 859      4D424665 
 859      74636849 
 860 007a 00020000 		.ascii	"\000\002\000\000\000\000\000\000\000\000\000\301\001"
 860      00000000 
 860      000000C1 
 860      01
 861 0087 00006368 		.ascii	"\000\000chMBFetch\000\000\002\000\000\000\000\000\000"
 861      4D424665 
 861      74636800 
 861      00020000 
 861      00000000 
 862 009b 000000C6 		.ascii	"\000\000\000\306\001\000\000chMBPostAheadI\000\000\002"
 862      01000063 
 862      684D4250 
 862      6F737441 
 862      68656164 
 863 00b3 00000000 		.ascii	"\000\000\000\000\000\000\000\000\000\314\001\000\000"
 863      00000000 
 863      00CC0100 
 863      00
 864 00c0 63684D42 		.ascii	"chMBPostAhead\000\000\002\000\000\000\000\000\000\000"
 864      506F7374 
 864      41686561 
 864      64000002 
 864      00000000 
 865 00d7 0000D101 		.ascii	"\000\000\321\001\000\000chMBPostI\000\000\002\000\000"
 865      00006368 
 865      4D42506F 
 865      73744900 
 865      00020000 
 866 00eb 00000000 		.ascii	"\000\000\000\000\000\000\000\327\001\000\000chMBPos"
 866      000000D7 
 866      01000063 
 866      684D4250 
 866      6F73
 867 00fd 74000002 		.ascii	"t\000\000\002\000\000\000\000\000\000\000\000\000\331"
 867      00000000 
 867      00000000 
 867      00D9
 868 010b 01000063 		.ascii	"\001\000\000chMBObjectInit\000\000\002\000\000\000\000"
 868      684D424F 
 868      626A6563 
 868      74496E69 
 868      74000002 
 869 0123 00000000 		.ascii	"\000\000\000\000\000\333\001\000\000_test_assert_se"
ARM GAS  /tmp/cc0h7QKQ.s 			page 70


 869      00DB0100 
 869      005F7465 
 869      73745F61 
 869      73736572 
 870 013b 7175656E 		.ascii	"quence\000\000\002\000\000\000\000\000\000\000\000\000"
 870      63650000 
 870      02000000 
 870      00000000 
 870      0000
 871 014d E1010000 		.ascii	"\341\001\000\000test_emit_token\000\000\002\000\000"
 871      74657374 
 871      5F656D69 
 871      745F746F 
 871      6B656E00 
 872 0165 00000000 		.ascii	"\000\000\000\000\000\000\000\347\001\000\000chMBRes"
 872      000000E7 
 872      01000063 
 872      684D4252 
 872      6573
 873 0177 65744900 		.ascii	"etI\000\000\002\000\000\000\000\000\000\000\000\000"
 873      00020000 
 873      00000000 
 873      000000
 874 0186 EB010000 		.ascii	"\353\001\000\000"
 875              		.text
 876              		.section	.gnu.lto_.opts,"",%progbits
 877 0000 272D6D63 		.ascii	"'-mcpu=cortex-m0' '-mno-thumb-interwork' '-mthumb' "
 877      70753D63 
 877      6F727465 
 877      782D6D30 
 877      2720272D 
 878 0033 272D6767 		.ascii	"'-ggdb' '-O2' '-fomit-frame-pointer' '-falign-funct"
 878      64622720 
 878      272D4F32 
 878      2720272D 
 878      666F6D69 
 879 0066 696F6E73 		.ascii	"ions=16' '-ffunction-sections' '-fdata-sections' '-"
 879      3D313627 
 879      20272D66 
 879      66756E63 
 879      74696F6E 
 880 0099 666E6F2D 		.ascii	"fno-common' '-flto'\000"
 880      636F6D6D 
 880      6F6E2720 
 880      272D666C 
 880      746F2700 
 881              		.text
 882              		.cfi_sections	.debug_frame
 883              		.section	.text.test_008_003_teardown,"ax",%progbits
 884              		.align	2
 885              		.p2align 4,,15
 886              		.code	16
 887              		.thumb_func
 888              		.type	test_008_003_teardown, %function
 889              	test_008_003_teardown:
 890              	.LFB186:
 891              		.file 1 "../../../test/rt/source/test/test_sequence_008.c"
ARM GAS  /tmp/cc0h7QKQ.s 			page 71


 892              		.loc 1 316 0
 893              		.cfi_startproc
 894 0000 08B5     		push	{r3, lr}
 895              		.cfi_def_cfa_offset 8
 896              		.cfi_offset 3, -8
 897              		.cfi_offset 14, -4
 898              		.loc 1 317 0
 899 0002 0248     		ldr	r0, .L2
 900 0004 FFF7FEFF 		bl	chMBReset
 901              	.LVL0:
 902              		.loc 1 318 0
 903              		@ sp needed
 904 0008 08BD     		pop	{r3, pc}
 905              	.L3:
 906 000a C046     		.align	2
 907              	.L2:
 908 000c 00000000 		.word	.LANCHOR0
 909              		.cfi_endproc
 910              	.LFE186:
 911              		.size	test_008_003_teardown, .-test_008_003_teardown
 912              		.section	.text.test_008_002_teardown,"ax",%progbits
 913              		.align	2
 914              		.p2align 4,,15
 915              		.code	16
 916              		.thumb_func
 917              		.type	test_008_002_teardown, %function
 918              	test_008_002_teardown:
 919              	.LFB183:
 920              		.loc 1 203 0
 921              		.cfi_startproc
 922 0000 08B5     		push	{r3, lr}
 923              		.cfi_def_cfa_offset 8
 924              		.cfi_offset 3, -8
 925              		.cfi_offset 14, -4
 926              		.loc 1 204 0
 927 0002 0248     		ldr	r0, .L5
 928 0004 FFF7FEFF 		bl	chMBReset
 929              	.LVL1:
 930              		.loc 1 205 0
 931              		@ sp needed
 932 0008 08BD     		pop	{r3, pc}
 933              	.L6:
 934 000a C046     		.align	2
 935              	.L5:
 936 000c 00000000 		.word	.LANCHOR0
 937              		.cfi_endproc
 938              	.LFE183:
 939              		.size	test_008_002_teardown, .-test_008_002_teardown
 940              		.section	.text.test_008_001_teardown,"ax",%progbits
 941              		.align	2
 942              		.p2align 4,,15
 943              		.code	16
 944              		.thumb_func
 945              		.type	test_008_001_teardown, %function
 946              	test_008_001_teardown:
 947              	.LFB180:
 948              		.loc 1 89 0
ARM GAS  /tmp/cc0h7QKQ.s 			page 72


 949              		.cfi_startproc
 950 0000 08B5     		push	{r3, lr}
 951              		.cfi_def_cfa_offset 8
 952              		.cfi_offset 3, -8
 953              		.cfi_offset 14, -4
 954              		.loc 1 90 0
 955 0002 0248     		ldr	r0, .L8
 956 0004 FFF7FEFF 		bl	chMBReset
 957              	.LVL2:
 958              		.loc 1 91 0
 959              		@ sp needed
 960 0008 08BD     		pop	{r3, pc}
 961              	.L9:
 962 000a C046     		.align	2
 963              	.L8:
 964 000c 00000000 		.word	.LANCHOR0
 965              		.cfi_endproc
 966              	.LFE180:
 967              		.size	test_008_001_teardown, .-test_008_001_teardown
 968              		.section	.text.test_008_003_execute,"ax",%progbits
 969              		.align	2
 970              		.p2align 4,,15
 971              		.code	16
 972              		.thumb_func
 973              		.type	test_008_003_execute, %function
 974              	test_008_003_execute:
 975              	.LFB187:
 976              		.loc 1 320 0
 977              		.cfi_startproc
 978 0000 F0B5     		push	{r4, r5, r6, r7, lr}
 979              		.cfi_def_cfa_offset 20
 980              		.cfi_offset 4, -20
 981              		.cfi_offset 5, -16
 982              		.cfi_offset 6, -12
 983              		.cfi_offset 7, -8
 984              		.cfi_offset 14, -4
 985              		.loc 1 325 0
 986 0002 3C4F     		ldr	r7, .L17
 987 0004 0123     		mov	r3, #1
 988 0006 3C4D     		ldr	r5, .L17+4
 989 0008 3C4E     		ldr	r6, .L17+8
 990              		.loc 1 320 0
 991 000a 83B0     		sub	sp, sp, #12
 992              		.cfi_def_cfa_offset 32
 993              		.loc 1 325 0
 994 000c 3B60     		str	r3, [r7]
 995              	.LVL3:
 996 000e 4224     		mov	r4, #66
 997              	.LVL4:
 998              	.L13:
 999              		.loc 1 328 0
 1000 0010 211C     		mov	r1, r4
 1001 0012 281C     		mov	r0, r5
 1002 0014 3A4A     		ldr	r2, .L17+12
 1003 0016 FFF7FEFF 		bl	chMBPost
 1004              	.LVL5:
 1005              		.loc 1 329 0
ARM GAS  /tmp/cc0h7QKQ.s 			page 73


 1006 001a 4342     		neg	r3, r0
 1007 001c 4341     		adc	r3, r3, r0
 1008              	.LVL6:
 1009 001e D8B2     		uxtb	r0, r3
 1010 0020 311C     		mov	r1, r6
 1011 0022 FFF7FEFF 		bl	_test_assert
 1012              	.LVL7:
 1013 0026 0028     		cmp	r0, #0
 1014 0028 12D1     		bne	.L10
 1015              	.LVL8:
 1016 002a 0134     		add	r4, r4, #1
 1017              	.LVL9:
 1018              		.loc 1 327 0
 1019 002c 462C     		cmp	r4, #70
 1020 002e EFD1     		bne	.L13
 1021              		.loc 1 335 0
 1022 0030 0223     		mov	r3, #2
 1023              		.loc 1 337 0
 1024 0032 5821     		mov	r1, #88
 1025 0034 281C     		mov	r0, r5
 1026 0036 0122     		mov	r2, #1
 1027              		.loc 1 335 0
 1028 0038 3B60     		str	r3, [r7]
 1029              		.loc 1 337 0
 1030 003a FFF7FEFF 		bl	chMBPost
 1031              	.LVL10:
 1032              		.loc 1 338 0
 1033 003e 0130     		add	r0, r0, #1
 1034              	.LVL11:
 1035 0040 4342     		neg	r3, r0
 1036 0042 5841     		adc	r0, r0, r3
 1037              	.LVL12:
 1038 0044 C0B2     		uxtb	r0, r0
 1039 0046 311C     		mov	r1, r6
 1040 0048 FFF7FEFF 		bl	_test_assert
 1041              	.LVL13:
 1042 004c 0028     		cmp	r0, #0
 1043 004e 01D0     		beq	.L16
 1044              	.LVL14:
 1045              	.L10:
 1046              		.loc 1 367 0
 1047 0050 03B0     		add	sp, sp, #12
 1048              		@ sp needed
 1049 0052 F0BD     		pop	{r4, r5, r6, r7, pc}
 1050              	.LVL15:
 1051              	.L16:
 1052              	.LBB526:
 1053              	.LBB527:
 1054              	.LBB528:
 1055              	.LBB529:
 1056              		.file 2 "../../../os/common/ext/CMSIS/include/cmsis_gcc.h"
 1057              		.loc 2 71 0
 1058              	@ 71 "../../../os/common/ext/CMSIS/include/cmsis_gcc.h" 1
 1059 0054 72B6     		cpsid i
 1060              	@ 0 "" 2
 1061              		.code	16
 1062              	.LBE529:
ARM GAS  /tmp/cc0h7QKQ.s 			page 74


 1063              	.LBE528:
 1064              	.LBE527:
 1065              	.LBE526:
 1066              		.loc 1 340 0
 1067 0056 5821     		mov	r1, #88
 1068 0058 281C     		mov	r0, r5
 1069 005a FFF7FEFF 		bl	chMBPostI
 1070              	.LVL16:
 1071              	.LBB530:
 1072              	.LBB531:
 1073              	.LBB532:
 1074              	.LBB533:
 1075              	.LBB534:
 1076              		.loc 2 60 0
 1077              	@ 60 "../../../os/common/ext/CMSIS/include/cmsis_gcc.h" 1
 1078 005e 62B6     		cpsie i
 1079              	@ 0 "" 2
 1080              		.code	16
 1081              	.LBE534:
 1082              	.LBE533:
 1083              	.LBE532:
 1084              	.LBE531:
 1085              	.LBE530:
 1086              		.loc 1 342 0
 1087 0060 0130     		add	r0, r0, #1
 1088              	.LVL17:
 1089 0062 4342     		neg	r3, r0
 1090 0064 5841     		adc	r0, r0, r3
 1091              	.LVL18:
 1092 0066 C0B2     		uxtb	r0, r0
 1093 0068 311C     		mov	r1, r6
 1094 006a FFF7FEFF 		bl	_test_assert
 1095              	.LVL19:
 1096 006e 0028     		cmp	r0, #0
 1097 0070 EED1     		bne	.L10
 1098              		.loc 1 343 0
 1099 0072 5821     		mov	r1, #88
 1100 0074 281C     		mov	r0, r5
 1101 0076 0122     		mov	r2, #1
 1102 0078 FFF7FEFF 		bl	chMBPostAhead
 1103              	.LVL20:
 1104              		.loc 1 344 0
 1105 007c 0130     		add	r0, r0, #1
 1106              	.LVL21:
 1107 007e 4342     		neg	r3, r0
 1108 0080 5841     		adc	r0, r0, r3
 1109              	.LVL22:
 1110 0082 C0B2     		uxtb	r0, r0
 1111 0084 311C     		mov	r1, r6
 1112 0086 FFF7FEFF 		bl	_test_assert
 1113              	.LVL23:
 1114 008a 0028     		cmp	r0, #0
 1115 008c E0D1     		bne	.L10
 1116              	.LBB535:
 1117              	.LBB536:
 1118              	.LBB537:
 1119              	.LBB538:
ARM GAS  /tmp/cc0h7QKQ.s 			page 75


 1120              		.loc 2 71 0
 1121              	@ 71 "../../../os/common/ext/CMSIS/include/cmsis_gcc.h" 1
 1122 008e 72B6     		cpsid i
 1123              	@ 0 "" 2
 1124              		.code	16
 1125              	.LBE538:
 1126              	.LBE537:
 1127              	.LBE536:
 1128              	.LBE535:
 1129              		.loc 1 346 0
 1130 0090 5821     		mov	r1, #88
 1131 0092 281C     		mov	r0, r5
 1132 0094 FFF7FEFF 		bl	chMBPostAheadI
 1133              	.LVL24:
 1134              	.LBB539:
 1135              	.LBB540:
 1136              	.LBB541:
 1137              	.LBB542:
 1138              	.LBB543:
 1139              		.loc 2 60 0
 1140              	@ 60 "../../../os/common/ext/CMSIS/include/cmsis_gcc.h" 1
 1141 0098 62B6     		cpsie i
 1142              	@ 0 "" 2
 1143              		.code	16
 1144              	.LBE543:
 1145              	.LBE542:
 1146              	.LBE541:
 1147              	.LBE540:
 1148              	.LBE539:
 1149              		.loc 1 348 0
 1150 009a 0130     		add	r0, r0, #1
 1151              	.LVL25:
 1152 009c 4342     		neg	r3, r0
 1153 009e 5841     		adc	r0, r0, r3
 1154              	.LVL26:
 1155 00a0 C0B2     		uxtb	r0, r0
 1156 00a2 311C     		mov	r1, r6
 1157 00a4 FFF7FEFF 		bl	_test_assert
 1158              	.LVL27:
 1159 00a8 0028     		cmp	r0, #0
 1160 00aa D1D1     		bne	.L10
 1161              		.loc 1 352 0
 1162 00ac 0323     		mov	r3, #3
 1163              		.loc 1 354 0
 1164 00ae 281C     		mov	r0, r5
 1165              		.loc 1 352 0
 1166 00b0 3B60     		str	r3, [r7]
 1167              		.loc 1 354 0
 1168 00b2 FFF7FEFF 		bl	chMBReset
 1169              	.LVL28:
 1170              		.loc 1 358 0
 1171 00b6 0423     		mov	r3, #4
 1172              		.loc 1 360 0
 1173 00b8 01A9     		add	r1, sp, #4
 1174 00ba 281C     		mov	r0, r5
 1175 00bc 0122     		mov	r2, #1
 1176              		.loc 1 358 0
ARM GAS  /tmp/cc0h7QKQ.s 			page 76


 1177 00be 3B60     		str	r3, [r7]
 1178              		.loc 1 360 0
 1179 00c0 FFF7FEFF 		bl	chMBFetch
 1180              	.LVL29:
 1181              		.loc 1 361 0
 1182 00c4 0130     		add	r0, r0, #1
 1183              	.LVL30:
 1184 00c6 4342     		neg	r3, r0
 1185 00c8 5841     		adc	r0, r0, r3
 1186              	.LVL31:
 1187 00ca C0B2     		uxtb	r0, r0
 1188 00cc 311C     		mov	r1, r6
 1189 00ce FFF7FEFF 		bl	_test_assert
 1190              	.LVL32:
 1191 00d2 0028     		cmp	r0, #0
 1192 00d4 BCD1     		bne	.L10
 1193              	.LBB544:
 1194              	.LBB545:
 1195              	.LBB546:
 1196              	.LBB547:
 1197              		.loc 2 71 0
 1198              	@ 71 "../../../os/common/ext/CMSIS/include/cmsis_gcc.h" 1
 1199 00d6 72B6     		cpsid i
 1200              	@ 0 "" 2
 1201              		.code	16
 1202              	.LBE547:
 1203              	.LBE546:
 1204              	.LBE545:
 1205              	.LBE544:
 1206              		.loc 1 363 0
 1207 00d8 281C     		mov	r0, r5
 1208 00da 01A9     		add	r1, sp, #4
 1209 00dc FFF7FEFF 		bl	chMBFetchI
 1210              	.LVL33:
 1211              	.LBB548:
 1212              	.LBB549:
 1213              	.LBB550:
 1214              	.LBB551:
 1215              	.LBB552:
 1216              		.loc 2 60 0
 1217              	@ 60 "../../../os/common/ext/CMSIS/include/cmsis_gcc.h" 1
 1218 00e0 62B6     		cpsie i
 1219              	@ 0 "" 2
 1220              		.code	16
 1221              	.LBE552:
 1222              	.LBE551:
 1223              	.LBE550:
 1224              	.LBE549:
 1225              	.LBE548:
 1226              		.loc 1 365 0
 1227 00e2 0130     		add	r0, r0, #1
 1228              	.LVL34:
 1229 00e4 4342     		neg	r3, r0
 1230 00e6 5841     		adc	r0, r0, r3
 1231              	.LVL35:
 1232 00e8 311C     		mov	r1, r6
 1233 00ea C0B2     		uxtb	r0, r0
ARM GAS  /tmp/cc0h7QKQ.s 			page 77


 1234 00ec FFF7FEFF 		bl	_test_assert
 1235              	.LVL36:
 1236 00f0 AEE7     		b	.L10
 1237              	.L18:
 1238 00f2 C046     		.align	2
 1239              	.L17:
 1240 00f4 00000000 		.word	test_step
 1241 00f8 00000000 		.word	.LANCHOR0
 1242 00fc 00000000 		.word	.LC5
 1243 0100 FFFF0000 		.word	65535
 1244              		.cfi_endproc
 1245              	.LFE187:
 1246              		.size	test_008_003_execute, .-test_008_003_execute
 1247 0104 C046C046 		.section	.text.test_008_003_setup,"ax",%progbits
 1247      C046C046 
 1247      C046C046 
 1248              		.align	2
 1249              		.p2align 4,,15
 1250              		.code	16
 1251              		.thumb_func
 1252              		.type	test_008_003_setup, %function
 1253              	test_008_003_setup:
 1254              	.LFB185:
 1255              		.loc 1 312 0
 1256              		.cfi_startproc
 1257 0000 08B5     		push	{r3, lr}
 1258              		.cfi_def_cfa_offset 8
 1259              		.cfi_offset 3, -8
 1260              		.cfi_offset 14, -4
 1261              		.loc 1 313 0
 1262 0002 0348     		ldr	r0, .L20
 1263 0004 0349     		ldr	r1, .L20+4
 1264 0006 0422     		mov	r2, #4
 1265 0008 FFF7FEFF 		bl	chMBObjectInit
 1266              	.LVL37:
 1267              		.loc 1 314 0
 1268              		@ sp needed
 1269 000c 08BD     		pop	{r3, pc}
 1270              	.L21:
 1271 000e C046     		.align	2
 1272              	.L20:
 1273 0010 00000000 		.word	.LANCHOR0
 1274 0014 00000000 		.word	.LANCHOR1
 1275              		.cfi_endproc
 1276              	.LFE185:
 1277              		.size	test_008_003_setup, .-test_008_003_setup
 1278 0018 C046C046 		.section	.text.test_008_002_setup,"ax",%progbits
 1278      C046C046 
 1279              		.align	2
 1280              		.p2align 4,,15
 1281              		.code	16
 1282              		.thumb_func
 1283              		.type	test_008_002_setup, %function
 1284              	test_008_002_setup:
 1285              	.LFB182:
 1286              		.loc 1 199 0
 1287              		.cfi_startproc
ARM GAS  /tmp/cc0h7QKQ.s 			page 78


 1288 0000 08B5     		push	{r3, lr}
 1289              		.cfi_def_cfa_offset 8
 1290              		.cfi_offset 3, -8
 1291              		.cfi_offset 14, -4
 1292              		.loc 1 200 0
 1293 0002 0348     		ldr	r0, .L23
 1294 0004 0349     		ldr	r1, .L23+4
 1295 0006 0422     		mov	r2, #4
 1296 0008 FFF7FEFF 		bl	chMBObjectInit
 1297              	.LVL38:
 1298              		.loc 1 201 0
 1299              		@ sp needed
 1300 000c 08BD     		pop	{r3, pc}
 1301              	.L24:
 1302 000e C046     		.align	2
 1303              	.L23:
 1304 0010 00000000 		.word	.LANCHOR0
 1305 0014 00000000 		.word	.LANCHOR1
 1306              		.cfi_endproc
 1307              	.LFE182:
 1308              		.size	test_008_002_setup, .-test_008_002_setup
 1309 0018 C046C046 		.section	.text.test_008_001_setup,"ax",%progbits
 1309      C046C046 
 1310              		.align	2
 1311              		.p2align 4,,15
 1312              		.code	16
 1313              		.thumb_func
 1314              		.type	test_008_001_setup, %function
 1315              	test_008_001_setup:
 1316              	.LFB179:
 1317              		.loc 1 85 0
 1318              		.cfi_startproc
 1319 0000 08B5     		push	{r3, lr}
 1320              		.cfi_def_cfa_offset 8
 1321              		.cfi_offset 3, -8
 1322              		.cfi_offset 14, -4
 1323              		.loc 1 86 0
 1324 0002 0348     		ldr	r0, .L26
 1325 0004 0349     		ldr	r1, .L26+4
 1326 0006 0422     		mov	r2, #4
 1327 0008 FFF7FEFF 		bl	chMBObjectInit
 1328              	.LVL39:
 1329              		.loc 1 87 0
 1330              		@ sp needed
 1331 000c 08BD     		pop	{r3, pc}
 1332              	.L27:
 1333 000e C046     		.align	2
 1334              	.L26:
 1335 0010 00000000 		.word	.LANCHOR0
 1336 0014 00000000 		.word	.LANCHOR1
 1337              		.cfi_endproc
 1338              	.LFE179:
 1339              		.size	test_008_001_setup, .-test_008_001_setup
 1340 0018 C046C046 		.section	.text.test_008_002_execute,"ax",%progbits
 1340      C046C046 
 1341              		.align	2
 1342              		.p2align 4,,15
ARM GAS  /tmp/cc0h7QKQ.s 			page 79


 1343              		.code	16
 1344              		.thumb_func
 1345              		.type	test_008_002_execute, %function
 1346              	test_008_002_execute:
 1347              	.LFB184:
 1348              		.loc 1 207 0
 1349              		.cfi_startproc
 1350 0000 F0B5     		push	{r4, r5, r6, r7, lr}
 1351              		.cfi_def_cfa_offset 20
 1352              		.cfi_offset 4, -20
 1353              		.cfi_offset 5, -16
 1354              		.cfi_offset 6, -12
 1355              		.cfi_offset 7, -8
 1356              		.cfi_offset 14, -4
 1357 0002 4D46     		mov	r5, r9
 1358 0004 5F46     		mov	r7, fp
 1359 0006 5646     		mov	r6, r10
 1360 0008 4446     		mov	r4, r8
 1361 000a F0B4     		push	{r4, r5, r6, r7}
 1362              		.cfi_def_cfa_offset 36
 1363              		.cfi_offset 8, -36
 1364              		.cfi_offset 9, -32
 1365              		.cfi_offset 10, -28
 1366              		.cfi_offset 11, -24
 1367              		.loc 1 212 0
 1368 000c 8C4D     		ldr	r5, .L48
 1369 000e 0123     		mov	r3, #1
 1370              		.loc 1 207 0
 1371 0010 83B0     		sub	sp, sp, #12
 1372              		.cfi_def_cfa_offset 48
 1373              		.loc 1 212 0
 1374 0012 2B60     		str	r3, [r5]
 1375              	.LBB553:
 1376              	.LBB554:
 1377              	.LBB555:
 1378              	.LBB556:
 1379              	.LBB557:
 1380              		.loc 2 71 0
 1381              	@ 71 "../../../os/common/ext/CMSIS/include/cmsis_gcc.h" 1
 1382 0014 72B6     		cpsid i
 1383              	@ 0 "" 2
 1384              	.LVL40:
 1385              		.code	16
 1386              	.LBE557:
 1387              	.LBE556:
 1388              	.LBE555:
 1389              	.LBE554:
 1390              	.LBE553:
 1391              		.file 3 "../../../os/common/oslib/include/chmboxes.h"
 1392              		.loc 3 162 0
 1393 0016 8B4C     		ldr	r4, .L48+4
 1394              		.loc 1 214 0
 1395 0018 8B49     		ldr	r1, .L48+8
 1396 001a 606A     		ldr	r0, [r4, #36]
 1397 001c 0438     		sub	r0, r0, #4
 1398 001e 4342     		neg	r3, r0
 1399 0020 5841     		adc	r0, r0, r3
ARM GAS  /tmp/cc0h7QKQ.s 			page 80


 1400 0022 C0B2     		uxtb	r0, r0
 1401 0024 FFF7FEFF 		bl	_test_assert
 1402              	.LVL41:
 1403 0028 0028     		cmp	r0, #0
 1404 002a 07D0     		beq	.L29
 1405              	.LVL42:
 1406              	.L47:
 1407              	.LBB558:
 1408              	.LBB559:
 1409              	.LBB560:
 1410              	.LBB561:
 1411              	.LBB562:
 1412              	.LBB563:
 1413              		.loc 2 60 0
 1414              	@ 60 "../../../os/common/ext/CMSIS/include/cmsis_gcc.h" 1
 1415 002c 62B6     		cpsie i
 1416              	@ 0 "" 2
 1417              		.code	16
 1418              	.L28:
 1419              	.LBE563:
 1420              	.LBE562:
 1421              	.LBE561:
 1422              	.LBE560:
 1423              	.LBE559:
 1424              	.LBE558:
 1425              		.loc 1 288 0
 1426 002e 03B0     		add	sp, sp, #12
 1427              		@ sp needed
 1428 0030 3CBC     		pop	{r2, r3, r4, r5}
 1429 0032 9046     		mov	r8, r2
 1430 0034 9946     		mov	r9, r3
 1431 0036 A246     		mov	r10, r4
 1432 0038 AB46     		mov	fp, r5
 1433 003a F0BD     		pop	{r4, r5, r6, r7, pc}
 1434              	.LVL43:
 1435              	.L29:
 1436              	.LBB564:
 1437              	.LBB565:
 1438              	.LBB566:
 1439              	.LBB567:
 1440              	.LBB568:
 1441              	.LBB569:
 1442              		.loc 2 60 0
 1443              	@ 60 "../../../os/common/ext/CMSIS/include/cmsis_gcc.h" 1
 1444 003c 62B6     		cpsie i
 1445              	@ 0 "" 2
 1446              		.code	16
 1447              	.LBE569:
 1448              	.LBE568:
 1449              	.LBE567:
 1450              	.LBE566:
 1451              	.LBE565:
 1452              	.LBE564:
 1453              		.loc 1 219 0
 1454 003e 0223     		mov	r3, #2
 1455 0040 2B60     		str	r3, [r5]
 1456              	.LBB570:
ARM GAS  /tmp/cc0h7QKQ.s 			page 81


 1457              	.LBB571:
 1458              	.LBB572:
 1459              	.LBB573:
 1460              		.loc 2 71 0
 1461              	@ 71 "../../../os/common/ext/CMSIS/include/cmsis_gcc.h" 1
 1462 0042 72B6     		cpsid i
 1463              	@ 0 "" 2
 1464              		.code	16
 1465              	.LBE573:
 1466              	.LBE572:
 1467              	.LBE571:
 1468              	.LBE570:
 1469              		.loc 1 222 0
 1470 0044 201C     		mov	r0, r4
 1471 0046 FFF7FEFF 		bl	chMBResetI
 1472              	.LVL44:
 1473              	.LBB574:
 1474              	.LBB575:
 1475              	.LBB576:
 1476              	.LBB577:
 1477              	.LBB578:
 1478              		.loc 2 60 0
 1479              	@ 60 "../../../os/common/ext/CMSIS/include/cmsis_gcc.h" 1
 1480 004a 62B6     		cpsie i
 1481              	@ 0 "" 2
 1482              		.code	16
 1483              	.LBE578:
 1484              	.LBE577:
 1485              	.LBE576:
 1486              	.LBE575:
 1487              	.LBE574:
 1488              	.LBB579:
 1489              	.LBB580:
 1490              	.LBB581:
 1491              	.LBB582:
 1492              	.LBB583:
 1493              		.loc 2 71 0
 1494              	@ 71 "../../../os/common/ext/CMSIS/include/cmsis_gcc.h" 1
 1495 004c 72B6     		cpsid i
 1496              	@ 0 "" 2
 1497              	.LVL45:
 1498              		.code	16
 1499              	.LBE583:
 1500              	.LBE582:
 1501              	.LBE581:
 1502              	.LBE580:
 1503              	.LBE579:
 1504              		.loc 1 224 0
 1505 004e 606A     		ldr	r0, [r4, #36]
 1506 0050 7E4E     		ldr	r6, .L48+12
 1507 0052 0438     		sub	r0, r0, #4
 1508 0054 4342     		neg	r3, r0
 1509 0056 5841     		adc	r0, r0, r3
 1510 0058 C0B2     		uxtb	r0, r0
 1511 005a 311C     		mov	r1, r6
 1512 005c FFF7FEFF 		bl	_test_assert
 1513              	.LVL46:
ARM GAS  /tmp/cc0h7QKQ.s 			page 82


 1514 0060 0028     		cmp	r0, #0
 1515 0062 E3D1     		bne	.L47
 1516              	.LBB584:
 1517              	.LBB585:
 1518              	.LBB586:
 1519              	.LBB587:
 1520              	.LBB588:
 1521              	.LBB589:
 1522              		.loc 2 60 0
 1523              	@ 60 "../../../os/common/ext/CMSIS/include/cmsis_gcc.h" 1
 1524 0064 62B6     		cpsie i
 1525              	@ 0 "" 2
 1526              		.code	16
 1527              	.LBE589:
 1528              	.LBE588:
 1529              	.LBE587:
 1530              	.LBE586:
 1531              	.LBE585:
 1532              	.LBE584:
 1533              	.LBB590:
 1534              	.LBB591:
 1535              	.LBB592:
 1536              	.LBB593:
 1537              	.LBB594:
 1538              		.loc 2 71 0
 1539              	@ 71 "../../../os/common/ext/CMSIS/include/cmsis_gcc.h" 1
 1540 0066 72B6     		cpsid i
 1541              	@ 0 "" 2
 1542              	.LVL47:
 1543              		.code	16
 1544              	.LBE594:
 1545              	.LBE593:
 1546              	.LBE592:
 1547              	.LBE591:
 1548              	.LBE590:
 1549              		.loc 1 225 0
 1550 0068 A269     		ldr	r2, [r4, #24]
 1551 006a 794F     		ldr	r7, .L48+16
 1552 006c 5042     		neg	r0, r2
 1553 006e 5041     		adc	r0, r0, r2
 1554 0070 C0B2     		uxtb	r0, r0
 1555 0072 391C     		mov	r1, r7
 1556 0074 FFF7FEFF 		bl	_test_assert
 1557              	.LVL48:
 1558 0078 0028     		cmp	r0, #0
 1559 007a D7D1     		bne	.L47
 1560              	.LBB595:
 1561              	.LBB596:
 1562              	.LBB597:
 1563              	.LBB598:
 1564              	.LBB599:
 1565              	.LBB600:
 1566              		.loc 2 60 0
 1567              	@ 60 "../../../os/common/ext/CMSIS/include/cmsis_gcc.h" 1
 1568 007c 62B6     		cpsie i
 1569              	@ 0 "" 2
 1570              		.code	16
ARM GAS  /tmp/cc0h7QKQ.s 			page 83


 1571              	.LBE600:
 1572              	.LBE599:
 1573              	.LBE598:
 1574              	.LBE597:
 1575              	.LBE596:
 1576              	.LBE595:
 1577              	.LBB601:
 1578              	.LBB602:
 1579              	.LBB603:
 1580              	.LBB604:
 1581              	.LBB605:
 1582              		.loc 2 71 0
 1583              	@ 71 "../../../os/common/ext/CMSIS/include/cmsis_gcc.h" 1
 1584 007e 72B6     		cpsid i
 1585              	@ 0 "" 2
 1586              		.code	16
 1587              	.LBE605:
 1588              	.LBE604:
 1589              	.LBE603:
 1590              	.LBE602:
 1591              	.LBE601:
 1592              		.loc 1 226 0
 1593 0080 2368     		ldr	r3, [r4]
 1594 0082 A268     		ldr	r2, [r4, #8]
 1595 0084 981A     		sub	r0, r3, r2
 1596 0086 4342     		neg	r3, r0
 1597 0088 5841     		adc	r0, r0, r3
 1598 008a 724B     		ldr	r3, .L48+20
 1599 008c C0B2     		uxtb	r0, r0
 1600 008e 191C     		mov	r1, r3
 1601 0090 9846     		mov	r8, r3
 1602 0092 FFF7FEFF 		bl	_test_assert
 1603              	.LVL49:
 1604 0096 0028     		cmp	r0, #0
 1605 0098 C8D1     		bne	.L47
 1606              	.LBB606:
 1607              	.LBB607:
 1608              	.LBB608:
 1609              	.LBB609:
 1610              	.LBB610:
 1611              	.LBB611:
 1612              		.loc 2 60 0
 1613              	@ 60 "../../../os/common/ext/CMSIS/include/cmsis_gcc.h" 1
 1614 009a 62B6     		cpsie i
 1615              	@ 0 "" 2
 1616              		.code	16
 1617              	.LBE611:
 1618              	.LBE610:
 1619              	.LBE609:
 1620              	.LBE608:
 1621              	.LBE607:
 1622              	.LBE606:
 1623              	.LBB612:
 1624              	.LBB613:
 1625              	.LBB614:
 1626              	.LBB615:
 1627              	.LBB616:
ARM GAS  /tmp/cc0h7QKQ.s 			page 84


 1628              		.loc 2 71 0
 1629              	@ 71 "../../../os/common/ext/CMSIS/include/cmsis_gcc.h" 1
 1630 009c 72B6     		cpsid i
 1631              	@ 0 "" 2
 1632              		.code	16
 1633              	.LBE616:
 1634              	.LBE615:
 1635              	.LBE614:
 1636              	.LBE613:
 1637              	.LBE612:
 1638              		.loc 1 227 0
 1639 009e 2268     		ldr	r2, [r4]
 1640 00a0 E368     		ldr	r3, [r4, #12]
 1641 00a2 D01A     		sub	r0, r2, r3
 1642 00a4 6C4A     		ldr	r2, .L48+24
 1643 00a6 4342     		neg	r3, r0
 1644 00a8 5841     		adc	r0, r0, r3
 1645 00aa C0B2     		uxtb	r0, r0
 1646 00ac 111C     		mov	r1, r2
 1647 00ae 9346     		mov	fp, r2
 1648 00b0 FFF7FEFF 		bl	_test_assert
 1649              	.LVL50:
 1650 00b4 0028     		cmp	r0, #0
 1651 00b6 B9D1     		bne	.L47
 1652              	.LBB617:
 1653              	.LBB618:
 1654              	.LBB619:
 1655              	.LBB620:
 1656              	.LBB621:
 1657              	.LBB622:
 1658              		.loc 2 60 0
 1659              	@ 60 "../../../os/common/ext/CMSIS/include/cmsis_gcc.h" 1
 1660 00b8 62B6     		cpsie i
 1661              	@ 0 "" 2
 1662              		.code	16
 1663              	.LBE622:
 1664              	.LBE621:
 1665              	.LBE620:
 1666              	.LBE619:
 1667              	.LBE618:
 1668              	.LBE617:
 1669              		.loc 1 232 0
 1670 00ba 0323     		mov	r3, #3
 1671 00bc 674A     		ldr	r2, .L48+28
 1672 00be 2B60     		str	r3, [r5]
 1673              	.LVL51:
 1674 00c0 4223     		mov	r3, #66
 1675 00c2 9946     		mov	r9, r3
 1676 00c4 9246     		mov	r10, r2
 1677              	.LVL52:
 1678              	.L37:
 1679              	.LBB623:
 1680              	.LBB624:
 1681              	.LBB625:
 1682              	.LBB626:
 1683              		.loc 2 71 0
 1684              	@ 71 "../../../os/common/ext/CMSIS/include/cmsis_gcc.h" 1
ARM GAS  /tmp/cc0h7QKQ.s 			page 85


 1685 00c6 72B6     		cpsid i
 1686              	@ 0 "" 2
 1687              		.code	16
 1688              	.LBE626:
 1689              	.LBE625:
 1690              	.LBE624:
 1691              	.LBE623:
 1692              		.loc 1 236 0
 1693 00c8 201C     		mov	r0, r4
 1694 00ca 4946     		mov	r1, r9
 1695 00cc FFF7FEFF 		bl	chMBPostI
 1696              	.LVL53:
 1697              	.LBB627:
 1698              	.LBB628:
 1699              	.LBB629:
 1700              	.LBB630:
 1701              	.LBB631:
 1702              		.loc 2 60 0
 1703              	@ 60 "../../../os/common/ext/CMSIS/include/cmsis_gcc.h" 1
 1704 00d0 62B6     		cpsie i
 1705              	@ 0 "" 2
 1706              		.code	16
 1707              	.LBE631:
 1708              	.LBE630:
 1709              	.LBE629:
 1710              	.LBE628:
 1711              	.LBE627:
 1712              		.loc 1 238 0
 1713 00d2 4342     		neg	r3, r0
 1714 00d4 5841     		adc	r0, r0, r3
 1715              	.LVL54:
 1716 00d6 C0B2     		uxtb	r0, r0
 1717 00d8 5146     		mov	r1, r10
 1718 00da FFF7FEFF 		bl	_test_assert
 1719              	.LVL55:
 1720 00de 0028     		cmp	r0, #0
 1721 00e0 A5D1     		bne	.L28
 1722              	.LVL56:
 1723 00e2 0123     		mov	r3, #1
 1724 00e4 9944     		add	r9, r9, r3
 1725              	.LVL57:
 1726              		.loc 1 234 0
 1727 00e6 4A46     		mov	r2, r9
 1728 00e8 452A     		cmp	r2, #69
 1729 00ea ECD1     		bne	.L37
 1730              	.LBB632:
 1731              	.LBB633:
 1732              	.LBB634:
 1733              	.LBB635:
 1734              		.loc 2 71 0
 1735              	@ 71 "../../../os/common/ext/CMSIS/include/cmsis_gcc.h" 1
 1736 00ec 72B6     		cpsid i
 1737              	@ 0 "" 2
 1738              		.code	16
 1739              	.LBE635:
 1740              	.LBE634:
 1741              	.LBE633:
ARM GAS  /tmp/cc0h7QKQ.s 			page 86


 1742              	.LBE632:
 1743              		.loc 1 241 0
 1744 00ee 4121     		mov	r1, #65
 1745 00f0 201C     		mov	r0, r4
 1746 00f2 FFF7FEFF 		bl	chMBPostAheadI
 1747              	.LVL58:
 1748              	.LBB636:
 1749              	.LBB637:
 1750              	.LBB638:
 1751              	.LBB639:
 1752              	.LBB640:
 1753              		.loc 2 60 0
 1754              	@ 60 "../../../os/common/ext/CMSIS/include/cmsis_gcc.h" 1
 1755 00f6 62B6     		cpsie i
 1756              	@ 0 "" 2
 1757              		.code	16
 1758              	.LBE640:
 1759              	.LBE639:
 1760              	.LBE638:
 1761              	.LBE637:
 1762              	.LBE636:
 1763              		.loc 1 243 0
 1764 00f8 4342     		neg	r3, r0
 1765 00fa 5841     		adc	r0, r0, r3
 1766              	.LVL59:
 1767 00fc C0B2     		uxtb	r0, r0
 1768 00fe 5146     		mov	r1, r10
 1769 0100 FFF7FEFF 		bl	_test_assert
 1770              	.LVL60:
 1771 0104 0028     		cmp	r0, #0
 1772 0106 00D0     		beq	.LCB731
 1773 0108 91E7     		b	.L28	@long jump
 1774              	.LCB731:
 1775              		.loc 1 248 0
 1776 010a 0423     		mov	r3, #4
 1777 010c 9946     		mov	r9, r3
 1778              	.LVL61:
 1779 010e 2B60     		str	r3, [r5]
 1780              	.LBB641:
 1781              	.LBB642:
 1782              	.LBB643:
 1783              	.LBB644:
 1784              	.LBB645:
 1785              		.loc 2 71 0
 1786              	@ 71 "../../../os/common/ext/CMSIS/include/cmsis_gcc.h" 1
 1787 0110 72B6     		cpsid i
 1788              	@ 0 "" 2
 1789              	.LVL62:
 1790              		.code	16
 1791              	.LBE645:
 1792              	.LBE644:
 1793              	.LBE643:
 1794              	.LBE642:
 1795              	.LBE641:
 1796              		.loc 1 250 0
 1797 0112 626A     		ldr	r2, [r4, #36]
 1798 0114 5249     		ldr	r1, .L48+32
ARM GAS  /tmp/cc0h7QKQ.s 			page 87


 1799 0116 5042     		neg	r0, r2
 1800 0118 5041     		adc	r0, r0, r2
 1801 011a C0B2     		uxtb	r0, r0
 1802 011c FFF7FEFF 		bl	_test_assert
 1803              	.LVL63:
 1804 0120 0028     		cmp	r0, #0
 1805 0122 00D0     		beq	.LCB759
 1806 0124 82E7     		b	.L47	@long jump
 1807              	.LCB759:
 1808              	.LBB646:
 1809              	.LBB647:
 1810              	.LBB648:
 1811              	.LBB649:
 1812              	.LBB650:
 1813              	.LBB651:
 1814              		.loc 2 60 0
 1815              	@ 60 "../../../os/common/ext/CMSIS/include/cmsis_gcc.h" 1
 1816 0126 62B6     		cpsie i
 1817              	@ 0 "" 2
 1818              		.code	16
 1819              	.LBE651:
 1820              	.LBE650:
 1821              	.LBE649:
 1822              	.LBE648:
 1823              	.LBE647:
 1824              	.LBE646:
 1825              	.LBB652:
 1826              	.LBB653:
 1827              	.LBB654:
 1828              	.LBB655:
 1829              	.LBB656:
 1830              		.loc 2 71 0
 1831              	@ 71 "../../../os/common/ext/CMSIS/include/cmsis_gcc.h" 1
 1832 0128 72B6     		cpsid i
 1833              	@ 0 "" 2
 1834              	.LVL64:
 1835              		.code	16
 1836              	.LBE656:
 1837              	.LBE655:
 1838              	.LBE654:
 1839              	.LBE653:
 1840              	.LBE652:
 1841              		.loc 1 251 0
 1842 012a A069     		ldr	r0, [r4, #24]
 1843 012c 4D49     		ldr	r1, .L48+36
 1844 012e 0438     		sub	r0, r0, #4
 1845 0130 4342     		neg	r3, r0
 1846 0132 5841     		adc	r0, r0, r3
 1847 0134 C0B2     		uxtb	r0, r0
 1848 0136 FFF7FEFF 		bl	_test_assert
 1849              	.LVL65:
 1850 013a 0028     		cmp	r0, #0
 1851 013c 00D0     		beq	.LCB797
 1852 013e 75E7     		b	.L47	@long jump
 1853              	.LCB797:
 1854              	.LBB657:
 1855              	.LBB658:
ARM GAS  /tmp/cc0h7QKQ.s 			page 88


 1856              	.LBB659:
 1857              	.LBB660:
 1858              	.LBB661:
 1859              	.LBB662:
 1860              		.loc 2 60 0
 1861              	@ 60 "../../../os/common/ext/CMSIS/include/cmsis_gcc.h" 1
 1862 0140 62B6     		cpsie i
 1863              	@ 0 "" 2
 1864              		.code	16
 1865              	.LBE662:
 1866              	.LBE661:
 1867              	.LBE660:
 1868              	.LBE659:
 1869              	.LBE658:
 1870              	.LBE657:
 1871              	.LBB663:
 1872              	.LBB664:
 1873              	.LBB665:
 1874              	.LBB666:
 1875              	.LBB667:
 1876              		.loc 2 71 0
 1877              	@ 71 "../../../os/common/ext/CMSIS/include/cmsis_gcc.h" 1
 1878 0142 72B6     		cpsid i
 1879              	@ 0 "" 2
 1880              		.code	16
 1881              	.LBE667:
 1882              	.LBE666:
 1883              	.LBE665:
 1884              	.LBE664:
 1885              	.LBE663:
 1886              		.loc 1 252 0
 1887 0144 E368     		ldr	r3, [r4, #12]
 1888 0146 A268     		ldr	r2, [r4, #8]
 1889 0148 4749     		ldr	r1, .L48+40
 1890 014a 981A     		sub	r0, r3, r2
 1891 014c 4342     		neg	r3, r0
 1892 014e 5841     		adc	r0, r0, r3
 1893 0150 C0B2     		uxtb	r0, r0
 1894 0152 FFF7FEFF 		bl	_test_assert
 1895              	.LVL66:
 1896 0156 0028     		cmp	r0, #0
 1897 0158 00D0     		beq	.LCB833
 1898 015a 67E7     		b	.L47	@long jump
 1899              	.LCB833:
 1900              	.LBB668:
 1901              	.LBB669:
 1902              	.LBB670:
 1903              	.LBB671:
 1904              	.LBB672:
 1905              	.LBB673:
 1906              		.loc 2 60 0
 1907              	@ 60 "../../../os/common/ext/CMSIS/include/cmsis_gcc.h" 1
 1908 015c 62B6     		cpsie i
 1909              	@ 0 "" 2
 1910              		.code	16
 1911              	.LBE673:
 1912              	.LBE672:
ARM GAS  /tmp/cc0h7QKQ.s 			page 89


 1913              	.LBE671:
 1914              	.LBE670:
 1915              	.LBE669:
 1916              	.LBE668:
 1917              		.loc 1 257 0
 1918 015e 0523     		mov	r3, #5
 1919 0160 2B60     		str	r3, [r5]
 1920              	.LVL67:
 1921              	.L42:
 1922              	.LBB674:
 1923              	.LBB675:
 1924              	.LBB676:
 1925              	.LBB677:
 1926              		.loc 2 71 0
 1927              	@ 71 "../../../os/common/ext/CMSIS/include/cmsis_gcc.h" 1
 1928 0162 72B6     		cpsid i
 1929              	@ 0 "" 2
 1930              		.code	16
 1931              	.LBE677:
 1932              	.LBE676:
 1933              	.LBE675:
 1934              	.LBE674:
 1935              		.loc 1 261 0
 1936 0164 201C     		mov	r0, r4
 1937 0166 01A9     		add	r1, sp, #4
 1938 0168 FFF7FEFF 		bl	chMBFetchI
 1939              	.LVL68:
 1940              	.LBB678:
 1941              	.LBB679:
 1942              	.LBB680:
 1943              	.LBB681:
 1944              	.LBB682:
 1945              		.loc 2 60 0
 1946              	@ 60 "../../../os/common/ext/CMSIS/include/cmsis_gcc.h" 1
 1947 016c 62B6     		cpsie i
 1948              	@ 0 "" 2
 1949              		.code	16
 1950              	.LBE682:
 1951              	.LBE681:
 1952              	.LBE680:
 1953              	.LBE679:
 1954              	.LBE678:
 1955              		.loc 1 263 0
 1956 016e 4342     		neg	r3, r0
 1957 0170 5841     		adc	r0, r0, r3
 1958              	.LVL69:
 1959 0172 C0B2     		uxtb	r0, r0
 1960 0174 5146     		mov	r1, r10
 1961 0176 FFF7FEFF 		bl	_test_assert
 1962              	.LVL70:
 1963 017a 0028     		cmp	r0, #0
 1964 017c 00D0     		beq	.LCB888
 1965 017e 56E7     		b	.L28	@long jump
 1966              	.LCB888:
 1967              		.loc 1 264 0
 1968 0180 019B     		ldr	r3, [sp, #4]
 1969 0182 D8B2     		uxtb	r0, r3
ARM GAS  /tmp/cc0h7QKQ.s 			page 90


 1970 0184 FFF7FEFF 		bl	test_emit_token
 1971              	.LVL71:
 1972 0188 0122     		mov	r2, #1
 1973 018a 5242     		neg	r2, r2
 1974 018c 9144     		add	r9, r9, r2
 1975              	.LVL72:
 1976              		.loc 1 259 0
 1977 018e 4B46     		mov	r3, r9
 1978 0190 002B     		cmp	r3, #0
 1979 0192 E6D1     		bne	.L42
 1980              		.loc 1 266 0
 1981 0194 3548     		ldr	r0, .L48+44
 1982 0196 3649     		ldr	r1, .L48+48
 1983 0198 FFF7FEFF 		bl	_test_assert_sequence
 1984              	.LVL73:
 1985 019c 0028     		cmp	r0, #0
 1986 019e 00D0     		beq	.LCB907
 1987 01a0 45E7     		b	.L28	@long jump
 1988              	.LCB907:
 1989              		.loc 1 271 0
 1990 01a2 0623     		mov	r3, #6
 1991              		.loc 1 273 0
 1992 01a4 4621     		mov	r1, #70
 1993 01a6 201C     		mov	r0, r4
 1994 01a8 324A     		ldr	r2, .L48+52
 1995              		.loc 1 271 0
 1996 01aa 2B60     		str	r3, [r5]
 1997              		.loc 1 273 0
 1998 01ac FFF7FEFF 		bl	chMBPost
 1999              	.LVL74:
 2000              		.loc 1 274 0
 2001 01b0 4342     		neg	r3, r0
 2002 01b2 5841     		adc	r0, r0, r3
 2003              	.LVL75:
 2004 01b4 C0B2     		uxtb	r0, r0
 2005 01b6 5146     		mov	r1, r10
 2006 01b8 FFF7FEFF 		bl	_test_assert
 2007              	.LVL76:
 2008 01bc 0028     		cmp	r0, #0
 2009 01be 00D0     		beq	.LCB923
 2010 01c0 35E7     		b	.L28	@long jump
 2011              	.LCB923:
 2012              		.loc 1 275 0
 2013 01c2 01A9     		add	r1, sp, #4
 2014 01c4 201C     		mov	r0, r4
 2015 01c6 2B4A     		ldr	r2, .L48+52
 2016 01c8 FFF7FEFF 		bl	chMBFetch
 2017              	.LVL77:
 2018              		.loc 1 276 0
 2019 01cc 4342     		neg	r3, r0
 2020 01ce 5841     		adc	r0, r0, r3
 2021              	.LVL78:
 2022 01d0 C0B2     		uxtb	r0, r0
 2023 01d2 5146     		mov	r1, r10
 2024 01d4 FFF7FEFF 		bl	_test_assert
 2025              	.LVL79:
 2026 01d8 0028     		cmp	r0, #0
ARM GAS  /tmp/cc0h7QKQ.s 			page 91


 2027 01da 00D0     		beq	.LCB937
 2028 01dc 27E7     		b	.L28	@long jump
 2029              	.LCB937:
 2030              		.loc 1 281 0
 2031 01de 0723     		mov	r3, #7
 2032 01e0 2B60     		str	r3, [r5]
 2033              	.LBB683:
 2034              	.LBB684:
 2035              	.LBB685:
 2036              	.LBB686:
 2037              	.LBB687:
 2038              		.loc 2 71 0
 2039              	@ 71 "../../../os/common/ext/CMSIS/include/cmsis_gcc.h" 1
 2040 01e2 72B6     		cpsid i
 2041              	@ 0 "" 2
 2042              	.LVL80:
 2043              		.code	16
 2044              	.LBE687:
 2045              	.LBE686:
 2046              	.LBE685:
 2047              	.LBE684:
 2048              	.LBE683:
 2049              		.loc 1 283 0
 2050 01e4 606A     		ldr	r0, [r4, #36]
 2051 01e6 311C     		mov	r1, r6
 2052 01e8 0438     		sub	r0, r0, #4
 2053 01ea 4342     		neg	r3, r0
 2054 01ec 5841     		adc	r0, r0, r3
 2055 01ee C0B2     		uxtb	r0, r0
 2056 01f0 FFF7FEFF 		bl	_test_assert
 2057              	.LVL81:
 2058 01f4 0028     		cmp	r0, #0
 2059 01f6 00D0     		beq	.LCB964
 2060 01f8 18E7     		b	.L47	@long jump
 2061              	.LCB964:
 2062              	.LBB688:
 2063              	.LBB689:
 2064              	.LBB690:
 2065              	.LBB691:
 2066              	.LBB692:
 2067              	.LBB693:
 2068              		.loc 2 60 0
 2069              	@ 60 "../../../os/common/ext/CMSIS/include/cmsis_gcc.h" 1
 2070 01fa 62B6     		cpsie i
 2071              	@ 0 "" 2
 2072              		.code	16
 2073              	.LBE693:
 2074              	.LBE692:
 2075              	.LBE691:
 2076              	.LBE690:
 2077              	.LBE689:
 2078              	.LBE688:
 2079              	.LBB694:
 2080              	.LBB695:
 2081              	.LBB696:
 2082              	.LBB697:
 2083              	.LBB698:
ARM GAS  /tmp/cc0h7QKQ.s 			page 92


 2084              		.loc 2 71 0
 2085              	@ 71 "../../../os/common/ext/CMSIS/include/cmsis_gcc.h" 1
 2086 01fc 72B6     		cpsid i
 2087              	@ 0 "" 2
 2088              	.LVL82:
 2089              		.code	16
 2090              	.LBE698:
 2091              	.LBE697:
 2092              	.LBE696:
 2093              	.LBE695:
 2094              	.LBE694:
 2095              		.loc 1 284 0
 2096 01fe A269     		ldr	r2, [r4, #24]
 2097 0200 391C     		mov	r1, r7
 2098 0202 5042     		neg	r0, r2
 2099 0204 5041     		adc	r0, r0, r2
 2100 0206 C0B2     		uxtb	r0, r0
 2101 0208 FFF7FEFF 		bl	_test_assert
 2102              	.LVL83:
 2103 020c 0028     		cmp	r0, #0
 2104 020e 00D0     		beq	.LCB1001
 2105 0210 0CE7     		b	.L47	@long jump
 2106              	.LCB1001:
 2107              	.LBB699:
 2108              	.LBB700:
 2109              	.LBB701:
 2110              	.LBB702:
 2111              	.LBB703:
 2112              	.LBB704:
 2113              		.loc 2 60 0
 2114              	@ 60 "../../../os/common/ext/CMSIS/include/cmsis_gcc.h" 1
 2115 0212 62B6     		cpsie i
 2116              	@ 0 "" 2
 2117              		.code	16
 2118              	.LBE704:
 2119              	.LBE703:
 2120              	.LBE702:
 2121              	.LBE701:
 2122              	.LBE700:
 2123              	.LBE699:
 2124              		.loc 1 285 0
 2125 0214 2368     		ldr	r3, [r4]
 2126 0216 A268     		ldr	r2, [r4, #8]
 2127 0218 4146     		mov	r1, r8
 2128 021a 981A     		sub	r0, r3, r2
 2129 021c 4342     		neg	r3, r0
 2130 021e 5841     		adc	r0, r0, r3
 2131 0220 C0B2     		uxtb	r0, r0
 2132 0222 FFF7FEFF 		bl	_test_assert
 2133              	.LVL84:
 2134 0226 0028     		cmp	r0, #0
 2135 0228 00D0     		beq	.LCB1026
 2136 022a 00E7     		b	.L28	@long jump
 2137              	.LCB1026:
 2138              		.loc 1 286 0
 2139 022c E368     		ldr	r3, [r4, #12]
 2140 022e 2068     		ldr	r0, [r4]
ARM GAS  /tmp/cc0h7QKQ.s 			page 93


 2141 0230 5946     		mov	r1, fp
 2142 0232 C01A     		sub	r0, r0, r3
 2143 0234 4342     		neg	r3, r0
 2144 0236 5841     		adc	r0, r0, r3
 2145 0238 C0B2     		uxtb	r0, r0
 2146 023a FFF7FEFF 		bl	_test_assert
 2147              	.LVL85:
 2148 023e F6E6     		b	.L28
 2149              	.L49:
 2150              		.align	2
 2151              	.L48:
 2152 0240 00000000 		.word	test_step
 2153 0244 00000000 		.word	.LANCHOR0
 2154 0248 18000000 		.word	.LC15
 2155 024c 24000000 		.word	.LC17
 2156 0250 30000000 		.word	.LC19
 2157 0254 3C000000 		.word	.LC21
 2158 0258 60000000 		.word	.LC23
 2159 025c 00000000 		.word	.LC5
 2160 0260 84000000 		.word	.LC26
 2161 0264 90000000 		.word	.LC28
 2162 0268 9C000000 		.word	.LC30
 2163 026c B4000000 		.word	.LC32
 2164 0270 BC000000 		.word	.LC34
 2165 0274 FFFF0000 		.word	65535
 2166              		.cfi_endproc
 2167              	.LFE184:
 2168              		.size	test_008_002_execute, .-test_008_002_execute
 2169 0278 C046C046 		.section	.text.test_008_001_execute,"ax",%progbits
 2169      C046C046 
 2170              		.align	2
 2171              		.p2align 4,,15
 2172              		.code	16
 2173              		.thumb_func
 2174              		.type	test_008_001_execute, %function
 2175              	test_008_001_execute:
 2176              	.LFB181:
 2177              		.loc 1 93 0
 2178              		.cfi_startproc
 2179 0000 F0B5     		push	{r4, r5, r6, r7, lr}
 2180              		.cfi_def_cfa_offset 20
 2181              		.cfi_offset 4, -20
 2182              		.cfi_offset 5, -16
 2183              		.cfi_offset 6, -12
 2184              		.cfi_offset 7, -8
 2185              		.cfi_offset 14, -4
 2186 0002 4D46     		mov	r5, r9
 2187 0004 5F46     		mov	r7, fp
 2188 0006 5646     		mov	r6, r10
 2189 0008 4446     		mov	r4, r8
 2190 000a F0B4     		push	{r4, r5, r6, r7}
 2191              		.cfi_def_cfa_offset 36
 2192              		.cfi_offset 8, -36
 2193              		.cfi_offset 9, -32
 2194              		.cfi_offset 10, -28
 2195              		.cfi_offset 11, -24
 2196              		.loc 1 98 0
ARM GAS  /tmp/cc0h7QKQ.s 			page 94


 2197 000c 8A4D     		ldr	r5, .L70
 2198 000e 0123     		mov	r3, #1
 2199              		.loc 1 93 0
 2200 0010 83B0     		sub	sp, sp, #12
 2201              		.cfi_def_cfa_offset 48
 2202              		.loc 1 98 0
 2203 0012 2B60     		str	r3, [r5]
 2204              	.LBB705:
 2205              	.LBB706:
 2206              	.LBB707:
 2207              	.LBB708:
 2208              	.LBB709:
 2209              		.loc 2 71 0
 2210              	@ 71 "../../../os/common/ext/CMSIS/include/cmsis_gcc.h" 1
 2211 0014 72B6     		cpsid i
 2212              	@ 0 "" 2
 2213              	.LVL86:
 2214              		.code	16
 2215              	.LBE709:
 2216              	.LBE708:
 2217              	.LBE707:
 2218              	.LBE706:
 2219              	.LBE705:
 2220              		.loc 3 162 0
 2221 0016 894C     		ldr	r4, .L70+4
 2222              		.loc 1 100 0
 2223 0018 8949     		ldr	r1, .L70+8
 2224 001a 606A     		ldr	r0, [r4, #36]
 2225 001c 0438     		sub	r0, r0, #4
 2226 001e 4342     		neg	r3, r0
 2227 0020 5841     		adc	r0, r0, r3
 2228 0022 C0B2     		uxtb	r0, r0
 2229 0024 FFF7FEFF 		bl	_test_assert
 2230              	.LVL87:
 2231 0028 0028     		cmp	r0, #0
 2232 002a 07D0     		beq	.L51
 2233              	.LVL88:
 2234              	.L69:
 2235              	.LBB710:
 2236              	.LBB711:
 2237              	.LBB712:
 2238              	.LBB713:
 2239              	.LBB714:
 2240              	.LBB715:
 2241              		.loc 2 60 0
 2242              	@ 60 "../../../os/common/ext/CMSIS/include/cmsis_gcc.h" 1
 2243 002c 62B6     		cpsie i
 2244              	@ 0 "" 2
 2245              		.code	16
 2246              	.L50:
 2247              	.LBE715:
 2248              	.LBE714:
 2249              	.LBE713:
 2250              	.LBE712:
 2251              	.LBE711:
 2252              	.LBE710:
 2253              		.loc 1 166 0
ARM GAS  /tmp/cc0h7QKQ.s 			page 95


 2254 002e 03B0     		add	sp, sp, #12
 2255              		@ sp needed
 2256 0030 3CBC     		pop	{r2, r3, r4, r5}
 2257 0032 9046     		mov	r8, r2
 2258 0034 9946     		mov	r9, r3
 2259 0036 A246     		mov	r10, r4
 2260 0038 AB46     		mov	fp, r5
 2261 003a F0BD     		pop	{r4, r5, r6, r7, pc}
 2262              	.LVL89:
 2263              	.L51:
 2264              	.LBB716:
 2265              	.LBB717:
 2266              	.LBB718:
 2267              	.LBB719:
 2268              	.LBB720:
 2269              	.LBB721:
 2270              		.loc 2 60 0
 2271              	@ 60 "../../../os/common/ext/CMSIS/include/cmsis_gcc.h" 1
 2272 003c 62B6     		cpsie i
 2273              	@ 0 "" 2
 2274              		.code	16
 2275              	.LBE721:
 2276              	.LBE720:
 2277              	.LBE719:
 2278              	.LBE718:
 2279              	.LBE717:
 2280              	.LBE716:
 2281              		.loc 1 105 0
 2282 003e 0223     		mov	r3, #2
 2283              		.loc 1 107 0
 2284 0040 201C     		mov	r0, r4
 2285              		.loc 1 105 0
 2286 0042 2B60     		str	r3, [r5]
 2287              		.loc 1 107 0
 2288 0044 FFF7FEFF 		bl	chMBReset
 2289              	.LVL90:
 2290              	.LBB722:
 2291              	.LBB723:
 2292              	.LBB724:
 2293              	.LBB725:
 2294              	.LBB726:
 2295              		.loc 2 71 0
 2296              	@ 71 "../../../os/common/ext/CMSIS/include/cmsis_gcc.h" 1
 2297 0048 72B6     		cpsid i
 2298              	@ 0 "" 2
 2299              	.LVL91:
 2300              		.code	16
 2301              	.LBE726:
 2302              	.LBE725:
 2303              	.LBE724:
 2304              	.LBE723:
 2305              	.LBE722:
 2306              		.loc 1 108 0
 2307 004a 606A     		ldr	r0, [r4, #36]
 2308 004c 7D4E     		ldr	r6, .L70+12
 2309 004e 0438     		sub	r0, r0, #4
 2310 0050 4342     		neg	r3, r0
ARM GAS  /tmp/cc0h7QKQ.s 			page 96


 2311 0052 5841     		adc	r0, r0, r3
 2312 0054 C0B2     		uxtb	r0, r0
 2313 0056 311C     		mov	r1, r6
 2314 0058 FFF7FEFF 		bl	_test_assert
 2315              	.LVL92:
 2316 005c 0028     		cmp	r0, #0
 2317 005e E5D1     		bne	.L69
 2318              	.LBB727:
 2319              	.LBB728:
 2320              	.LBB729:
 2321              	.LBB730:
 2322              	.LBB731:
 2323              	.LBB732:
 2324              		.loc 2 60 0
 2325              	@ 60 "../../../os/common/ext/CMSIS/include/cmsis_gcc.h" 1
 2326 0060 62B6     		cpsie i
 2327              	@ 0 "" 2
 2328              		.code	16
 2329              	.LBE732:
 2330              	.LBE731:
 2331              	.LBE730:
 2332              	.LBE729:
 2333              	.LBE728:
 2334              	.LBE727:
 2335              	.LBB733:
 2336              	.LBB734:
 2337              	.LBB735:
 2338              	.LBB736:
 2339              	.LBB737:
 2340              		.loc 2 71 0
 2341              	@ 71 "../../../os/common/ext/CMSIS/include/cmsis_gcc.h" 1
 2342 0062 72B6     		cpsid i
 2343              	@ 0 "" 2
 2344              	.LVL93:
 2345              		.code	16
 2346              	.LBE737:
 2347              	.LBE736:
 2348              	.LBE735:
 2349              	.LBE734:
 2350              	.LBE733:
 2351              		.loc 1 109 0
 2352 0064 A269     		ldr	r2, [r4, #24]
 2353 0066 784F     		ldr	r7, .L70+16
 2354 0068 5042     		neg	r0, r2
 2355 006a 5041     		adc	r0, r0, r2
 2356 006c C0B2     		uxtb	r0, r0
 2357 006e 391C     		mov	r1, r7
 2358 0070 FFF7FEFF 		bl	_test_assert
 2359              	.LVL94:
 2360 0074 0028     		cmp	r0, #0
 2361 0076 D9D1     		bne	.L69
 2362              	.LBB738:
 2363              	.LBB739:
 2364              	.LBB740:
 2365              	.LBB741:
 2366              	.LBB742:
 2367              	.LBB743:
ARM GAS  /tmp/cc0h7QKQ.s 			page 97


 2368              		.loc 2 60 0
 2369              	@ 60 "../../../os/common/ext/CMSIS/include/cmsis_gcc.h" 1
 2370 0078 62B6     		cpsie i
 2371              	@ 0 "" 2
 2372              		.code	16
 2373              	.LBE743:
 2374              	.LBE742:
 2375              	.LBE741:
 2376              	.LBE740:
 2377              	.LBE739:
 2378              	.LBE738:
 2379              	.LBB744:
 2380              	.LBB745:
 2381              	.LBB746:
 2382              	.LBB747:
 2383              	.LBB748:
 2384              		.loc 2 71 0
 2385              	@ 71 "../../../os/common/ext/CMSIS/include/cmsis_gcc.h" 1
 2386 007a 72B6     		cpsid i
 2387              	@ 0 "" 2
 2388              		.code	16
 2389              	.LBE748:
 2390              	.LBE747:
 2391              	.LBE746:
 2392              	.LBE745:
 2393              	.LBE744:
 2394              		.loc 1 110 0
 2395 007c 2368     		ldr	r3, [r4]
 2396 007e A268     		ldr	r2, [r4, #8]
 2397 0080 981A     		sub	r0, r3, r2
 2398 0082 4342     		neg	r3, r0
 2399 0084 5841     		adc	r0, r0, r3
 2400 0086 714B     		ldr	r3, .L70+20
 2401 0088 C0B2     		uxtb	r0, r0
 2402 008a 191C     		mov	r1, r3
 2403 008c 9846     		mov	r8, r3
 2404 008e FFF7FEFF 		bl	_test_assert
 2405              	.LVL95:
 2406 0092 0028     		cmp	r0, #0
 2407 0094 CAD1     		bne	.L69
 2408              	.LBB749:
 2409              	.LBB750:
 2410              	.LBB751:
 2411              	.LBB752:
 2412              	.LBB753:
 2413              	.LBB754:
 2414              		.loc 2 60 0
 2415              	@ 60 "../../../os/common/ext/CMSIS/include/cmsis_gcc.h" 1
 2416 0096 62B6     		cpsie i
 2417              	@ 0 "" 2
 2418              		.code	16
 2419              	.LBE754:
 2420              	.LBE753:
 2421              	.LBE752:
 2422              	.LBE751:
 2423              	.LBE750:
 2424              	.LBE749:
ARM GAS  /tmp/cc0h7QKQ.s 			page 98


 2425              	.LBB755:
 2426              	.LBB756:
 2427              	.LBB757:
 2428              	.LBB758:
 2429              	.LBB759:
 2430              		.loc 2 71 0
 2431              	@ 71 "../../../os/common/ext/CMSIS/include/cmsis_gcc.h" 1
 2432 0098 72B6     		cpsid i
 2433              	@ 0 "" 2
 2434              		.code	16
 2435              	.LBE759:
 2436              	.LBE758:
 2437              	.LBE757:
 2438              	.LBE756:
 2439              	.LBE755:
 2440              		.loc 1 111 0
 2441 009a 2268     		ldr	r2, [r4]
 2442 009c E368     		ldr	r3, [r4, #12]
 2443 009e D01A     		sub	r0, r2, r3
 2444 00a0 6B4A     		ldr	r2, .L70+24
 2445 00a2 4342     		neg	r3, r0
 2446 00a4 5841     		adc	r0, r0, r3
 2447 00a6 C0B2     		uxtb	r0, r0
 2448 00a8 111C     		mov	r1, r2
 2449 00aa 9346     		mov	fp, r2
 2450 00ac FFF7FEFF 		bl	_test_assert
 2451              	.LVL96:
 2452 00b0 0028     		cmp	r0, #0
 2453 00b2 BBD1     		bne	.L69
 2454              	.LBB760:
 2455              	.LBB761:
 2456              	.LBB762:
 2457              	.LBB763:
 2458              	.LBB764:
 2459              	.LBB765:
 2460              		.loc 2 60 0
 2461              	@ 60 "../../../os/common/ext/CMSIS/include/cmsis_gcc.h" 1
 2462 00b4 62B6     		cpsie i
 2463              	@ 0 "" 2
 2464              		.code	16
 2465              	.LBE765:
 2466              	.LBE764:
 2467              	.LBE763:
 2468              	.LBE762:
 2469              	.LBE761:
 2470              	.LBE760:
 2471              		.loc 1 116 0
 2472 00b6 0323     		mov	r3, #3
 2473 00b8 664A     		ldr	r2, .L70+28
 2474 00ba 2B60     		str	r3, [r5]
 2475              	.LVL97:
 2476 00bc 4223     		mov	r3, #66
 2477 00be 9946     		mov	r9, r3
 2478 00c0 9246     		mov	r10, r2
 2479              	.LVL98:
 2480              	.L59:
 2481              		.loc 1 119 0
ARM GAS  /tmp/cc0h7QKQ.s 			page 99


 2482 00c2 4946     		mov	r1, r9
 2483 00c4 201C     		mov	r0, r4
 2484 00c6 644A     		ldr	r2, .L70+32
 2485 00c8 FFF7FEFF 		bl	chMBPost
 2486              	.LVL99:
 2487              		.loc 1 120 0
 2488 00cc 4342     		neg	r3, r0
 2489 00ce 5841     		adc	r0, r0, r3
 2490              	.LVL100:
 2491 00d0 C0B2     		uxtb	r0, r0
 2492 00d2 5146     		mov	r1, r10
 2493 00d4 FFF7FEFF 		bl	_test_assert
 2494              	.LVL101:
 2495 00d8 0028     		cmp	r0, #0
 2496 00da A8D1     		bne	.L50
 2497              	.LVL102:
 2498 00dc 0123     		mov	r3, #1
 2499 00de 9944     		add	r9, r9, r3
 2500              	.LVL103:
 2501              		.loc 1 118 0
 2502 00e0 4A46     		mov	r2, r9
 2503 00e2 452A     		cmp	r2, #69
 2504 00e4 EDD1     		bne	.L59
 2505              		.loc 1 122 0
 2506 00e6 4121     		mov	r1, #65
 2507 00e8 201C     		mov	r0, r4
 2508 00ea 5B4A     		ldr	r2, .L70+32
 2509 00ec FFF7FEFF 		bl	chMBPostAhead
 2510              	.LVL104:
 2511              		.loc 1 123 0
 2512 00f0 4342     		neg	r3, r0
 2513 00f2 5841     		adc	r0, r0, r3
 2514              	.LVL105:
 2515 00f4 C0B2     		uxtb	r0, r0
 2516 00f6 5146     		mov	r1, r10
 2517 00f8 FFF7FEFF 		bl	_test_assert
 2518              	.LVL106:
 2519 00fc 0028     		cmp	r0, #0
 2520 00fe 00D0     		beq	.LCB1356
 2521 0100 95E7     		b	.L50	@long jump
 2522              	.LCB1356:
 2523              		.loc 1 128 0
 2524 0102 0423     		mov	r3, #4
 2525 0104 9946     		mov	r9, r3
 2526              	.LVL107:
 2527 0106 2B60     		str	r3, [r5]
 2528              	.LBB766:
 2529              	.LBB767:
 2530              	.LBB768:
 2531              	.LBB769:
 2532              	.LBB770:
 2533              		.loc 2 71 0
 2534              	@ 71 "../../../os/common/ext/CMSIS/include/cmsis_gcc.h" 1
 2535 0108 72B6     		cpsid i
 2536              	@ 0 "" 2
 2537              	.LVL108:
 2538              		.code	16
ARM GAS  /tmp/cc0h7QKQ.s 			page 100


 2539              	.LBE770:
 2540              	.LBE769:
 2541              	.LBE768:
 2542              	.LBE767:
 2543              	.LBE766:
 2544              		.loc 1 130 0
 2545 010a 626A     		ldr	r2, [r4, #36]
 2546 010c 5349     		ldr	r1, .L70+36
 2547 010e 5042     		neg	r0, r2
 2548 0110 5041     		adc	r0, r0, r2
 2549 0112 C0B2     		uxtb	r0, r0
 2550 0114 FFF7FEFF 		bl	_test_assert
 2551              	.LVL109:
 2552 0118 0028     		cmp	r0, #0
 2553 011a 00D0     		beq	.LCB1384
 2554 011c 86E7     		b	.L69	@long jump
 2555              	.LCB1384:
 2556              	.LBB771:
 2557              	.LBB772:
 2558              	.LBB773:
 2559              	.LBB774:
 2560              	.LBB775:
 2561              	.LBB776:
 2562              		.loc 2 60 0
 2563              	@ 60 "../../../os/common/ext/CMSIS/include/cmsis_gcc.h" 1
 2564 011e 62B6     		cpsie i
 2565              	@ 0 "" 2
 2566              		.code	16
 2567              	.LBE776:
 2568              	.LBE775:
 2569              	.LBE774:
 2570              	.LBE773:
 2571              	.LBE772:
 2572              	.LBE771:
 2573              	.LBB777:
 2574              	.LBB778:
 2575              	.LBB779:
 2576              	.LBB780:
 2577              	.LBB781:
 2578              		.loc 2 71 0
 2579              	@ 71 "../../../os/common/ext/CMSIS/include/cmsis_gcc.h" 1
 2580 0120 72B6     		cpsid i
 2581              	@ 0 "" 2
 2582              	.LVL110:
 2583              		.code	16
 2584              	.LBE781:
 2585              	.LBE780:
 2586              	.LBE779:
 2587              	.LBE778:
 2588              	.LBE777:
 2589              		.loc 1 131 0
 2590 0122 A069     		ldr	r0, [r4, #24]
 2591 0124 4E49     		ldr	r1, .L70+40
 2592 0126 0438     		sub	r0, r0, #4
 2593 0128 4342     		neg	r3, r0
 2594 012a 5841     		adc	r0, r0, r3
 2595 012c C0B2     		uxtb	r0, r0
ARM GAS  /tmp/cc0h7QKQ.s 			page 101


 2596 012e FFF7FEFF 		bl	_test_assert
 2597              	.LVL111:
 2598 0132 0028     		cmp	r0, #0
 2599 0134 00D0     		beq	.LCB1422
 2600 0136 79E7     		b	.L69	@long jump
 2601              	.LCB1422:
 2602              	.LBB782:
 2603              	.LBB783:
 2604              	.LBB784:
 2605              	.LBB785:
 2606              	.LBB786:
 2607              	.LBB787:
 2608              		.loc 2 60 0
 2609              	@ 60 "../../../os/common/ext/CMSIS/include/cmsis_gcc.h" 1
 2610 0138 62B6     		cpsie i
 2611              	@ 0 "" 2
 2612              		.code	16
 2613              	.LBE787:
 2614              	.LBE786:
 2615              	.LBE785:
 2616              	.LBE784:
 2617              	.LBE783:
 2618              	.LBE782:
 2619              	.LBB788:
 2620              	.LBB789:
 2621              	.LBB790:
 2622              	.LBB791:
 2623              	.LBB792:
 2624              		.loc 2 71 0
 2625              	@ 71 "../../../os/common/ext/CMSIS/include/cmsis_gcc.h" 1
 2626 013a 72B6     		cpsid i
 2627              	@ 0 "" 2
 2628              		.code	16
 2629              	.LBE792:
 2630              	.LBE791:
 2631              	.LBE790:
 2632              	.LBE789:
 2633              	.LBE788:
 2634              		.loc 1 132 0
 2635 013c E368     		ldr	r3, [r4, #12]
 2636 013e A268     		ldr	r2, [r4, #8]
 2637 0140 4849     		ldr	r1, .L70+44
 2638 0142 981A     		sub	r0, r3, r2
 2639 0144 4342     		neg	r3, r0
 2640 0146 5841     		adc	r0, r0, r3
 2641 0148 C0B2     		uxtb	r0, r0
 2642 014a FFF7FEFF 		bl	_test_assert
 2643              	.LVL112:
 2644 014e 0028     		cmp	r0, #0
 2645 0150 00D0     		beq	.LCB1458
 2646 0152 6BE7     		b	.L69	@long jump
 2647              	.LCB1458:
 2648              	.LBB793:
 2649              	.LBB794:
 2650              	.LBB795:
 2651              	.LBB796:
 2652              	.LBB797:
ARM GAS  /tmp/cc0h7QKQ.s 			page 102


 2653              	.LBB798:
 2654              		.loc 2 60 0
 2655              	@ 60 "../../../os/common/ext/CMSIS/include/cmsis_gcc.h" 1
 2656 0154 62B6     		cpsie i
 2657              	@ 0 "" 2
 2658              		.code	16
 2659              	.LBE798:
 2660              	.LBE797:
 2661              	.LBE796:
 2662              	.LBE795:
 2663              	.LBE794:
 2664              	.LBE793:
 2665              		.loc 1 137 0
 2666 0156 0523     		mov	r3, #5
 2667 0158 2B60     		str	r3, [r5]
 2668              	.LVL113:
 2669              	.L64:
 2670              		.loc 1 140 0
 2671 015a 01A9     		add	r1, sp, #4
 2672 015c 201C     		mov	r0, r4
 2673 015e 3E4A     		ldr	r2, .L70+32
 2674 0160 FFF7FEFF 		bl	chMBFetch
 2675              	.LVL114:
 2676              		.loc 1 141 0
 2677 0164 4342     		neg	r3, r0
 2678 0166 5841     		adc	r0, r0, r3
 2679              	.LVL115:
 2680 0168 C0B2     		uxtb	r0, r0
 2681 016a 5146     		mov	r1, r10
 2682 016c FFF7FEFF 		bl	_test_assert
 2683              	.LVL116:
 2684 0170 0028     		cmp	r0, #0
 2685 0172 00D0     		beq	.LCB1494
 2686 0174 5BE7     		b	.L50	@long jump
 2687              	.LCB1494:
 2688              		.loc 1 142 0
 2689 0176 019B     		ldr	r3, [sp, #4]
 2690 0178 D8B2     		uxtb	r0, r3
 2691 017a FFF7FEFF 		bl	test_emit_token
 2692              	.LVL117:
 2693 017e 0122     		mov	r2, #1
 2694 0180 5242     		neg	r2, r2
 2695 0182 9144     		add	r9, r9, r2
 2696              	.LVL118:
 2697              		.loc 1 139 0
 2698 0184 4B46     		mov	r3, r9
 2699 0186 002B     		cmp	r3, #0
 2700 0188 E7D1     		bne	.L64
 2701              		.loc 1 144 0
 2702 018a 3748     		ldr	r0, .L70+48
 2703 018c 3749     		ldr	r1, .L70+52
 2704 018e FFF7FEFF 		bl	_test_assert_sequence
 2705              	.LVL119:
 2706 0192 0028     		cmp	r0, #0
 2707 0194 00D0     		beq	.LCB1513
 2708 0196 4AE7     		b	.L50	@long jump
 2709              	.LCB1513:
ARM GAS  /tmp/cc0h7QKQ.s 			page 103


 2710              		.loc 1 149 0
 2711 0198 0623     		mov	r3, #6
 2712              		.loc 1 151 0
 2713 019a 4621     		mov	r1, #70
 2714 019c 201C     		mov	r0, r4
 2715 019e 2E4A     		ldr	r2, .L70+32
 2716              		.loc 1 149 0
 2717 01a0 2B60     		str	r3, [r5]
 2718              		.loc 1 151 0
 2719 01a2 FFF7FEFF 		bl	chMBPost
 2720              	.LVL120:
 2721              		.loc 1 152 0
 2722 01a6 4342     		neg	r3, r0
 2723 01a8 5841     		adc	r0, r0, r3
 2724              	.LVL121:
 2725 01aa C0B2     		uxtb	r0, r0
 2726 01ac 5146     		mov	r1, r10
 2727 01ae FFF7FEFF 		bl	_test_assert
 2728              	.LVL122:
 2729 01b2 0028     		cmp	r0, #0
 2730 01b4 00D0     		beq	.LCB1529
 2731 01b6 3AE7     		b	.L50	@long jump
 2732              	.LCB1529:
 2733              		.loc 1 153 0
 2734 01b8 01A9     		add	r1, sp, #4
 2735 01ba 201C     		mov	r0, r4
 2736 01bc 264A     		ldr	r2, .L70+32
 2737 01be FFF7FEFF 		bl	chMBFetch
 2738              	.LVL123:
 2739              		.loc 1 154 0
 2740 01c2 4342     		neg	r3, r0
 2741 01c4 5841     		adc	r0, r0, r3
 2742              	.LVL124:
 2743 01c6 C0B2     		uxtb	r0, r0
 2744 01c8 5146     		mov	r1, r10
 2745 01ca FFF7FEFF 		bl	_test_assert
 2746              	.LVL125:
 2747 01ce 0028     		cmp	r0, #0
 2748 01d0 00D0     		beq	.LCB1543
 2749 01d2 2CE7     		b	.L50	@long jump
 2750              	.LCB1543:
 2751              		.loc 1 159 0
 2752 01d4 0723     		mov	r3, #7
 2753 01d6 2B60     		str	r3, [r5]
 2754              	.LBB799:
 2755              	.LBB800:
 2756              	.LBB801:
 2757              	.LBB802:
 2758              	.LBB803:
 2759              		.loc 2 71 0
 2760              	@ 71 "../../../os/common/ext/CMSIS/include/cmsis_gcc.h" 1
 2761 01d8 72B6     		cpsid i
 2762              	@ 0 "" 2
 2763              	.LVL126:
 2764              		.code	16
 2765              	.LBE803:
 2766              	.LBE802:
ARM GAS  /tmp/cc0h7QKQ.s 			page 104


 2767              	.LBE801:
 2768              	.LBE800:
 2769              	.LBE799:
 2770              		.loc 1 161 0
 2771 01da 606A     		ldr	r0, [r4, #36]
 2772 01dc 311C     		mov	r1, r6
 2773 01de 0438     		sub	r0, r0, #4
 2774 01e0 4342     		neg	r3, r0
 2775 01e2 5841     		adc	r0, r0, r3
 2776 01e4 C0B2     		uxtb	r0, r0
 2777 01e6 FFF7FEFF 		bl	_test_assert
 2778              	.LVL127:
 2779 01ea 0028     		cmp	r0, #0
 2780 01ec 00D0     		beq	.LCB1570
 2781 01ee 1DE7     		b	.L69	@long jump
 2782              	.LCB1570:
 2783              	.LBB804:
 2784              	.LBB805:
 2785              	.LBB806:
 2786              	.LBB807:
 2787              	.LBB808:
 2788              	.LBB809:
 2789              		.loc 2 60 0
 2790              	@ 60 "../../../os/common/ext/CMSIS/include/cmsis_gcc.h" 1
 2791 01f0 62B6     		cpsie i
 2792              	@ 0 "" 2
 2793              		.code	16
 2794              	.LBE809:
 2795              	.LBE808:
 2796              	.LBE807:
 2797              	.LBE806:
 2798              	.LBE805:
 2799              	.LBE804:
 2800              	.LBB810:
 2801              	.LBB811:
 2802              	.LBB812:
 2803              	.LBB813:
 2804              	.LBB814:
 2805              		.loc 2 71 0
 2806              	@ 71 "../../../os/common/ext/CMSIS/include/cmsis_gcc.h" 1
 2807 01f2 72B6     		cpsid i
 2808              	@ 0 "" 2
 2809              	.LVL128:
 2810              		.code	16
 2811              	.LBE814:
 2812              	.LBE813:
 2813              	.LBE812:
 2814              	.LBE811:
 2815              	.LBE810:
 2816              		.loc 1 162 0
 2817 01f4 A269     		ldr	r2, [r4, #24]
 2818 01f6 391C     		mov	r1, r7
 2819 01f8 5042     		neg	r0, r2
 2820 01fa 5041     		adc	r0, r0, r2
 2821 01fc C0B2     		uxtb	r0, r0
 2822 01fe FFF7FEFF 		bl	_test_assert
 2823              	.LVL129:
ARM GAS  /tmp/cc0h7QKQ.s 			page 105


 2824 0202 0028     		cmp	r0, #0
 2825 0204 00D0     		beq	.LCB1607
 2826 0206 11E7     		b	.L69	@long jump
 2827              	.LCB1607:
 2828              	.LBB815:
 2829              	.LBB816:
 2830              	.LBB817:
 2831              	.LBB818:
 2832              	.LBB819:
 2833              	.LBB820:
 2834              		.loc 2 60 0
 2835              	@ 60 "../../../os/common/ext/CMSIS/include/cmsis_gcc.h" 1
 2836 0208 62B6     		cpsie i
 2837              	@ 0 "" 2
 2838              		.code	16
 2839              	.LBE820:
 2840              	.LBE819:
 2841              	.LBE818:
 2842              	.LBE817:
 2843              	.LBE816:
 2844              	.LBE815:
 2845              		.loc 1 163 0
 2846 020a 2368     		ldr	r3, [r4]
 2847 020c A268     		ldr	r2, [r4, #8]
 2848 020e 4146     		mov	r1, r8
 2849 0210 981A     		sub	r0, r3, r2
 2850 0212 4342     		neg	r3, r0
 2851 0214 5841     		adc	r0, r0, r3
 2852 0216 C0B2     		uxtb	r0, r0
 2853 0218 FFF7FEFF 		bl	_test_assert
 2854              	.LVL130:
 2855 021c 0028     		cmp	r0, #0
 2856 021e 00D0     		beq	.LCB1632
 2857 0220 05E7     		b	.L50	@long jump
 2858              	.LCB1632:
 2859              		.loc 1 164 0
 2860 0222 E368     		ldr	r3, [r4, #12]
 2861 0224 2068     		ldr	r0, [r4]
 2862 0226 5946     		mov	r1, fp
 2863 0228 C01A     		sub	r0, r0, r3
 2864 022a 4342     		neg	r3, r0
 2865 022c 5841     		adc	r0, r0, r3
 2866 022e C0B2     		uxtb	r0, r0
 2867 0230 FFF7FEFF 		bl	_test_assert
 2868              	.LVL131:
 2869 0234 FBE6     		b	.L50
 2870              	.L71:
 2871 0236 C046     		.align	2
 2872              	.L70:
 2873 0238 00000000 		.word	test_step
 2874 023c 00000000 		.word	.LANCHOR0
 2875 0240 18000000 		.word	.LC15
 2876 0244 24000000 		.word	.LC17
 2877 0248 30000000 		.word	.LC19
 2878 024c 3C000000 		.word	.LC21
 2879 0250 60000000 		.word	.LC23
 2880 0254 00000000 		.word	.LC5
ARM GAS  /tmp/cc0h7QKQ.s 			page 106


 2881 0258 FFFF0000 		.word	65535
 2882 025c 84000000 		.word	.LC26
 2883 0260 90000000 		.word	.LC28
 2884 0264 9C000000 		.word	.LC30
 2885 0268 B4000000 		.word	.LC32
 2886 026c BC000000 		.word	.LC34
 2887              		.cfi_endproc
 2888              	.LFE181:
 2889              		.size	test_008_001_execute, .-test_008_001_execute
 2890              		.global	test_sequence_008
 2891              		.section	.rodata.test_008_001,"a",%progbits
 2892              		.align	2
 2893              		.type	test_008_001, %object
 2894              		.size	test_008_001, 16
 2895              	test_008_001:
 2896 0000 0C010000 		.word	.LC51
 2897 0004 00000000 		.word	test_008_001_setup
 2898 0008 00000000 		.word	test_008_001_teardown
 2899 000c 00000000 		.word	test_008_001_execute
 2900              		.section	.rodata.test_sequence_008,"a",%progbits
 2901              		.align	2
 2902              		.type	test_sequence_008, %object
 2903              		.size	test_sequence_008, 16
 2904              	test_sequence_008:
 2905 0000 00000000 		.word	test_008_001
 2906 0004 00000000 		.word	test_008_002
 2907 0008 00000000 		.word	test_008_003
 2908 000c 00000000 		.word	0
 2909              		.section	.bss.mb_buffer,"aw",%nobits
 2910              		.align	2
 2911              		.set	.LANCHOR1,. + 0
 2912              		.type	mb_buffer, %object
 2913              		.size	mb_buffer, 16
 2914              	mb_buffer:
 2915 0000 00000000 		.space	16
 2915      00000000 
 2915      00000000 
 2915      00000000 
 2916              		.section	.data.mb1,"aw",%progbits
 2917              		.align	2
 2918              		.set	.LANCHOR0,. + 0
 2919              		.type	mb1, %object
 2920              		.size	mb1, 40
 2921              	mb1:
 2922 0000 00000000 		.word	mb_buffer
 2923 0004 10000000 		.word	mb_buffer+16
 2924 0008 00000000 		.word	mb_buffer
 2925 000c 00000000 		.word	mb_buffer
 2926 0010 10000000 		.word	mb1+16
 2927 0014 10000000 		.word	mb1+16
 2928 0018 00000000 		.word	0
 2929 001c 1C000000 		.word	mb1+28
 2930 0020 1C000000 		.word	mb1+28
 2931 0024 04000000 		.word	4
 2932              		.section	.rodata.test_008_002,"a",%progbits
 2933              		.align	2
 2934              		.type	test_008_002, %object
ARM GAS  /tmp/cc0h7QKQ.s 			page 107


 2935              		.size	test_008_002, 16
 2936              	test_008_002:
 2937 0000 E4000000 		.word	.LC50
 2938 0004 00000000 		.word	test_008_002_setup
 2939 0008 00000000 		.word	test_008_002_teardown
 2940 000c 00000000 		.word	test_008_002_execute
 2941              		.section	.rodata.test_008_003,"a",%progbits
 2942              		.align	2
 2943              		.type	test_008_003, %object
 2944              		.size	test_008_003, 16
 2945              	test_008_003:
 2946 0000 D0000000 		.word	.LC49
 2947 0004 00000000 		.word	test_008_003_setup
 2948 0008 00000000 		.word	test_008_003_teardown
 2949 000c 00000000 		.word	test_008_003_execute
 2950              		.section	.rodata.str1.4,"aMS",%progbits,1
 2951              		.align	2
 2952              	.LC5:
 2953 0000 77726F6E 		.ascii	"wrong wake-up message\000"
 2953      67207761 
 2953      6B652D75 
 2953      70206D65 
 2953      73736167 
 2954 0016 0000     		.space	2
 2955              	.LC15:
 2956 0018 77726F6E 		.ascii	"wrong size\000"
 2956      67207369 
 2956      7A6500
 2957 0023 00       		.space	1
 2958              	.LC17:
 2959 0024 6E6F7420 		.ascii	"not empty\000"
 2959      656D7074 
 2959      7900
 2960 002e 0000     		.space	2
 2961              	.LC19:
 2962 0030 7374696C 		.ascii	"still full\000"
 2962      6C206675 
 2962      6C6C00
 2963 003b 00       		.space	1
 2964              	.LC21:
 2965 003c 77726974 		.ascii	"write pointer not aligned to base\000"
 2965      6520706F 
 2965      696E7465 
 2965      72206E6F 
 2965      7420616C 
 2966 005e 0000     		.space	2
 2967              	.LC23:
 2968 0060 72656164 		.ascii	"read pointer not aligned to base\000"
 2968      20706F69 
 2968      6E746572 
 2968      206E6F74 
 2968      20616C69 
 2969 0081 000000   		.space	3
 2970              	.LC26:
 2971 0084 7374696C 		.ascii	"still empty\000"
 2971      6C20656D 
 2971      70747900 
ARM GAS  /tmp/cc0h7QKQ.s 			page 108


 2972              	.LC28:
 2973 0090 6E6F7420 		.ascii	"not full\000"
 2973      66756C6C 
 2973      00
 2974 0099 000000   		.space	3
 2975              	.LC30:
 2976 009c 706F696E 		.ascii	"pointers not aligned\000"
 2976      74657273 
 2976      206E6F74 
 2976      20616C69 
 2976      676E6564 
 2977 00b1 000000   		.space	3
 2978              	.LC32:
 2979 00b4 41424344 		.ascii	"ABCD\000"
 2979      00
 2980 00b9 000000   		.space	3
 2981              	.LC34:
 2982 00bc 77726F6E 		.ascii	"wrong get sequence\000"
 2982      67206765 
 2982      74207365 
 2982      7175656E 
 2982      636500
 2983 00cf 00       		.space	1
 2984              	.LC49:
 2985 00d0 4D61696C 		.ascii	"Mailbox timeouts\000"
 2985      626F7820 
 2985      74696D65 
 2985      6F757473 
 2985      00
 2986 00e1 000000   		.space	3
 2987              	.LC50:
 2988 00e4 4D61696C 		.ascii	"Mailbox I-Class API, non-blocking tests\000"
 2988      626F7820 
 2988      492D436C 
 2988      61737320 
 2988      4150492C 
 2989              	.LC51:
 2990 010c 4D61696C 		.ascii	"Mailbox normal API, non-blocking tests\000"
 2990      626F7820 
 2990      6E6F726D 
 2990      616C2041 
 2990      50492C20 
 2991 0133 00       		.text
 2992              	.Letext0:
 2993              		.file 4 "/usr/lib/gcc/arm-none-eabi/4.8/include/stddef.h"
 2994              		.file 5 "/usr/include/newlib/machine/_default_types.h"
 2995              		.file 6 "/usr/include/newlib/stdint.h"
 2996              		.file 7 "../../../os/common/ports/ARMCMx/compilers/GCC/chtypes.h"
 2997              		.file 8 "../../../os/rt/include/chsystypes.h"
 2998              		.file 9 "../../../os/rt/include/chschd.h"
 2999              		.file 10 "../../../os/common/ports/ARMCMx/chcore.h"
 3000              		.file 11 "../../../os/common/ports/ARMCMx/chcore_v6m.h"
 3001              		.file 12 "../../../os/rt/include/chsem.h"
 3002              		.file 13 "../../../os/rt/include/chmtx.h"
 3003              		.file 14 "../../../test/lib/ch_test.h"
 3004              		.file 15 "../../../os/rt/include/chsys.h"
 3005              		.file 16 "../../../os/hal/osal/rt/osal.h"
ARM GAS  /tmp/cc0h7QKQ.s 			page 109


 3006              		.section	.debug_info,"",%progbits
 3007              	.Ldebug_info0:
 3008 0000 0E210000 		.4byte	0x210e
 3009 0004 0400     		.2byte	0x4
 3010 0006 00000000 		.4byte	.Ldebug_abbrev0
 3011 000a 04       		.byte	0x4
 3012 000b 01       		.uleb128 0x1
 3013 000c A2010000 		.4byte	.LASF140
 3014 0010 01       		.byte	0x1
 3015 0011 1B010000 		.4byte	.LASF141
 3016 0015 F9060000 		.4byte	.LASF142
 3017 0019 00000000 		.4byte	.Ldebug_ranges0+0
 3018 001d 00000000 		.4byte	0
 3019 0021 00000000 		.4byte	.Ldebug_line0
 3020 0025 02       		.uleb128 0x2
 3021 0026 04       		.byte	0x4
 3022 0027 05       		.byte	0x5
 3023 0028 696E7400 		.ascii	"int\000"
 3024 002c 03       		.uleb128 0x3
 3025 002d 3D030000 		.4byte	.LASF2
 3026 0031 04       		.byte	0x4
 3027 0032 D4       		.byte	0xd4
 3028 0033 37000000 		.4byte	0x37
 3029 0037 04       		.uleb128 0x4
 3030 0038 04       		.byte	0x4
 3031 0039 07       		.byte	0x7
 3032 003a 66000000 		.4byte	.LASF0
 3033 003e 04       		.uleb128 0x4
 3034 003f 01       		.byte	0x1
 3035 0040 06       		.byte	0x6
 3036 0041 58060000 		.4byte	.LASF1
 3037 0045 03       		.uleb128 0x3
 3038 0046 2D050000 		.4byte	.LASF3
 3039 004a 05       		.byte	0x5
 3040 004b 1D       		.byte	0x1d
 3041 004c 50000000 		.4byte	0x50
 3042 0050 04       		.uleb128 0x4
 3043 0051 01       		.byte	0x1
 3044 0052 08       		.byte	0x8
 3045 0053 D0050000 		.4byte	.LASF4
 3046 0057 04       		.uleb128 0x4
 3047 0058 02       		.byte	0x2
 3048 0059 05       		.byte	0x5
 3049 005a DF040000 		.4byte	.LASF5
 3050 005e 03       		.uleb128 0x3
 3051 005f B1020000 		.4byte	.LASF6
 3052 0063 05       		.byte	0x5
 3053 0064 2B       		.byte	0x2b
 3054 0065 69000000 		.4byte	0x69
 3055 0069 04       		.uleb128 0x4
 3056 006a 02       		.byte	0x2
 3057 006b 07       		.byte	0x7
 3058 006c 6A060000 		.4byte	.LASF7
 3059 0070 03       		.uleb128 0x3
 3060 0071 AA000000 		.4byte	.LASF8
 3061 0075 05       		.byte	0x5
 3062 0076 3F       		.byte	0x3f
ARM GAS  /tmp/cc0h7QKQ.s 			page 110


 3063 0077 7B000000 		.4byte	0x7b
 3064 007b 04       		.uleb128 0x4
 3065 007c 04       		.byte	0x4
 3066 007d 05       		.byte	0x5
 3067 007e E9040000 		.4byte	.LASF9
 3068 0082 03       		.uleb128 0x3
 3069 0083 E4050000 		.4byte	.LASF10
 3070 0087 05       		.byte	0x5
 3071 0088 41       		.byte	0x41
 3072 0089 8D000000 		.4byte	0x8d
 3073 008d 04       		.uleb128 0x4
 3074 008e 04       		.byte	0x4
 3075 008f 07       		.byte	0x7
 3076 0090 68050000 		.4byte	.LASF11
 3077 0094 04       		.uleb128 0x4
 3078 0095 08       		.byte	0x8
 3079 0096 05       		.byte	0x5
 3080 0097 28040000 		.4byte	.LASF12
 3081 009b 03       		.uleb128 0x3
 3082 009c 8B030000 		.4byte	.LASF13
 3083 00a0 05       		.byte	0x5
 3084 00a1 5B       		.byte	0x5b
 3085 00a2 A6000000 		.4byte	0xa6
 3086 00a6 04       		.uleb128 0x4
 3087 00a7 08       		.byte	0x8
 3088 00a8 07       		.byte	0x7
 3089 00a9 9A020000 		.4byte	.LASF14
 3090 00ad 03       		.uleb128 0x3
 3091 00ae F6030000 		.4byte	.LASF15
 3092 00b2 06       		.byte	0x6
 3093 00b3 2A       		.byte	0x2a
 3094 00b4 45000000 		.4byte	0x45
 3095 00b8 03       		.uleb128 0x3
 3096 00b9 D6040000 		.4byte	.LASF16
 3097 00bd 06       		.byte	0x6
 3098 00be 36       		.byte	0x36
 3099 00bf 5E000000 		.4byte	0x5e
 3100 00c3 03       		.uleb128 0x3
 3101 00c4 99050000 		.4byte	.LASF17
 3102 00c8 06       		.byte	0x6
 3103 00c9 41       		.byte	0x41
 3104 00ca 70000000 		.4byte	0x70
 3105 00ce 03       		.uleb128 0x3
 3106 00cf 4F020000 		.4byte	.LASF18
 3107 00d3 06       		.byte	0x6
 3108 00d4 42       		.byte	0x42
 3109 00d5 82000000 		.4byte	0x82
 3110 00d9 03       		.uleb128 0x3
 3111 00da 1E050000 		.4byte	.LASF19
 3112 00de 06       		.byte	0x6
 3113 00df 4E       		.byte	0x4e
 3114 00e0 9B000000 		.4byte	0x9b
 3115 00e4 03       		.uleb128 0x3
 3116 00e5 AB040000 		.4byte	.LASF20
 3117 00e9 07       		.byte	0x7
 3118 00ea 3C       		.byte	0x3c
 3119 00eb AD000000 		.4byte	0xad
ARM GAS  /tmp/cc0h7QKQ.s 			page 111


 3120 00ef 03       		.uleb128 0x3
 3121 00f0 E3030000 		.4byte	.LASF21
 3122 00f4 07       		.byte	0x7
 3123 00f5 3D       		.byte	0x3d
 3124 00f6 AD000000 		.4byte	0xad
 3125 00fa 03       		.uleb128 0x3
 3126 00fb 60050000 		.4byte	.LASF22
 3127 00ff 07       		.byte	0x7
 3128 0100 3E       		.byte	0x3e
 3129 0101 AD000000 		.4byte	0xad
 3130 0105 03       		.uleb128 0x3
 3131 0106 81020000 		.4byte	.LASF23
 3132 010a 07       		.byte	0x7
 3133 010b 40       		.byte	0x40
 3134 010c CE000000 		.4byte	0xce
 3135 0110 03       		.uleb128 0x3
 3136 0111 45040000 		.4byte	.LASF24
 3137 0115 07       		.byte	0x7
 3138 0116 41       		.byte	0x41
 3139 0117 C3000000 		.4byte	0xc3
 3140 011b 03       		.uleb128 0x3
 3141 011c 60020000 		.4byte	.LASF25
 3142 0120 07       		.byte	0x7
 3143 0121 43       		.byte	0x43
 3144 0122 CE000000 		.4byte	0xce
 3145 0126 03       		.uleb128 0x3
 3146 0127 BC020000 		.4byte	.LASF26
 3147 012b 07       		.byte	0x7
 3148 012c 45       		.byte	0x45
 3149 012d C3000000 		.4byte	0xc3
 3150 0131 03       		.uleb128 0x3
 3151 0132 26000000 		.4byte	.LASF27
 3152 0136 08       		.byte	0x8
 3153 0137 35       		.byte	0x35
 3154 0138 B8000000 		.4byte	0xb8
 3155 013c 03       		.uleb128 0x3
 3156 013d 34030000 		.4byte	.LASF28
 3157 0141 08       		.byte	0x8
 3158 0142 3F       		.byte	0x3f
 3159 0143 47010000 		.4byte	0x147
 3160 0147 05       		.uleb128 0x5
 3161 0148 07040000 		.4byte	.LASF46
 3162 014c 44       		.byte	0x44
 3163 014d 09       		.byte	0x9
 3164 014e 9A       		.byte	0x9a
 3165 014f 25020000 		.4byte	0x225
 3166 0153 06       		.uleb128 0x6
 3167 0154 87050000 		.4byte	.LASF29
 3168 0158 09       		.byte	0x9
 3169 0159 9B       		.byte	0x9b
 3170 015a 5A020000 		.4byte	0x25a
 3171 015e 00       		.byte	0
 3172 015f 06       		.uleb128 0x6
 3173 0160 A9030000 		.4byte	.LASF30
 3174 0164 09       		.byte	0x9
 3175 0165 9C       		.byte	0x9c
 3176 0166 05010000 		.4byte	0x105
ARM GAS  /tmp/cc0h7QKQ.s 			page 112


 3177 016a 08       		.byte	0x8
 3178 016b 07       		.uleb128 0x7
 3179 016c 63747800 		.ascii	"ctx\000"
 3180 0170 09       		.byte	0x9
 3181 0171 9D       		.byte	0x9d
 3182 0172 46040000 		.4byte	0x446
 3183 0176 0C       		.byte	0xc
 3184 0177 06       		.uleb128 0x6
 3185 0178 B0050000 		.4byte	.LASF31
 3186 017c 09       		.byte	0x9
 3187 017d 9F       		.byte	0x9f
 3188 017e 30020000 		.4byte	0x230
 3189 0182 10       		.byte	0x10
 3190 0183 06       		.uleb128 0x6
 3191 0184 F3060000 		.4byte	.LASF32
 3192 0188 09       		.byte	0x9
 3193 0189 A0       		.byte	0xa0
 3194 018a 30020000 		.4byte	0x230
 3195 018e 14       		.byte	0x14
 3196 018f 06       		.uleb128 0x6
 3197 0190 45050000 		.4byte	.LASF33
 3198 0194 09       		.byte	0x9
 3199 0195 A7       		.byte	0xa7
 3200 0196 A1050000 		.4byte	0x5a1
 3201 019a 18       		.byte	0x18
 3202 019b 06       		.uleb128 0x6
 3203 019c DC030000 		.4byte	.LASF34
 3204 01a0 09       		.byte	0x9
 3205 01a1 B0       		.byte	0xb0
 3206 01a2 B3050000 		.4byte	0x5b3
 3207 01a6 1C       		.byte	0x1c
 3208 01a7 06       		.uleb128 0x6
 3209 01a8 21060000 		.4byte	.LASF35
 3210 01ac 09       		.byte	0x9
 3211 01ad B5       		.byte	0xb5
 3212 01ae EF000000 		.4byte	0xef
 3213 01b2 20       		.byte	0x20
 3214 01b3 06       		.uleb128 0x6
 3215 01b4 20000000 		.4byte	.LASF36
 3216 01b8 09       		.byte	0x9
 3217 01b9 B9       		.byte	0xb9
 3218 01ba E4000000 		.4byte	0xe4
 3219 01be 21       		.byte	0x21
 3220 01bf 06       		.uleb128 0x6
 3221 01c0 B4000000 		.4byte	.LASF37
 3222 01c4 09       		.byte	0x9
 3223 01c5 BE       		.byte	0xbe
 3224 01c6 FA000000 		.4byte	0xfa
 3225 01ca 22       		.byte	0x22
 3226 01cb 08       		.uleb128 0x8
 3227 01cc 7500     		.ascii	"u\000"
 3228 01ce 09       		.byte	0x9
 3229 01cf 0F01     		.2byte	0x10f
 3230 01d1 D6040000 		.4byte	0x4d6
 3231 01d5 24       		.byte	0x24
 3232 01d6 09       		.uleb128 0x9
 3233 01d7 EF050000 		.4byte	.LASF38
ARM GAS  /tmp/cc0h7QKQ.s 			page 113


 3234 01db 09       		.byte	0x9
 3235 01dc 1401     		.2byte	0x114
 3236 01de 36020000 		.4byte	0x236
 3237 01e2 28       		.byte	0x28
 3238 01e3 09       		.uleb128 0x9
 3239 01e4 FE030000 		.4byte	.LASF39
 3240 01e8 09       		.byte	0x9
 3241 01e9 1A01     		.2byte	0x11a
 3242 01eb 5A020000 		.4byte	0x25a
 3243 01ef 2C       		.byte	0x2c
 3244 01f0 09       		.uleb128 0x9
 3245 01f1 5D000000 		.4byte	.LASF40
 3246 01f5 09       		.byte	0x9
 3247 01f6 2001     		.2byte	0x120
 3248 01f8 1B010000 		.4byte	0x11b
 3249 01fc 34       		.byte	0x34
 3250 01fd 09       		.uleb128 0x9
 3251 01fe 15030000 		.4byte	.LASF41
 3252 0202 09       		.byte	0x9
 3253 0203 2701     		.2byte	0x127
 3254 0205 9B050000 		.4byte	0x59b
 3255 0209 38       		.byte	0x38
 3256 020a 09       		.uleb128 0x9
 3257 020b 30000000 		.4byte	.LASF42
 3258 020f 09       		.byte	0x9
 3259 0210 2B01     		.2byte	0x12b
 3260 0212 05010000 		.4byte	0x105
 3261 0216 3C       		.byte	0x3c
 3262 0217 09       		.uleb128 0x9
 3263 0218 3E070000 		.4byte	.LASF43
 3264 021c 09       		.byte	0x9
 3265 021d 3201     		.2byte	0x132
 3266 021f 0D030000 		.4byte	0x30d
 3267 0223 40       		.byte	0x40
 3268 0224 00       		.byte	0
 3269 0225 03       		.uleb128 0x3
 3270 0226 C9030000 		.4byte	.LASF44
 3271 022a 08       		.byte	0x8
 3272 022b 44       		.byte	0x44
 3273 022c 30020000 		.4byte	0x230
 3274 0230 0A       		.uleb128 0xa
 3275 0231 04       		.byte	0x4
 3276 0232 3C010000 		.4byte	0x13c
 3277 0236 03       		.uleb128 0x3
 3278 0237 88000000 		.4byte	.LASF45
 3279 023b 08       		.byte	0x8
 3280 023c 49       		.byte	0x49
 3281 023d 41020000 		.4byte	0x241
 3282 0241 05       		.uleb128 0x5
 3283 0242 00000000 		.4byte	.LASF47
 3284 0246 04       		.byte	0x4
 3285 0247 09       		.byte	0x9
 3286 0248 88       		.byte	0x88
 3287 0249 5A020000 		.4byte	0x25a
 3288 024d 06       		.uleb128 0x6
 3289 024e 73000000 		.4byte	.LASF48
 3290 0252 09       		.byte	0x9
ARM GAS  /tmp/cc0h7QKQ.s 			page 114


 3291 0253 89       		.byte	0x89
 3292 0254 30020000 		.4byte	0x230
 3293 0258 00       		.byte	0
 3294 0259 00       		.byte	0
 3295 025a 03       		.uleb128 0x3
 3296 025b F4020000 		.4byte	.LASF49
 3297 025f 08       		.byte	0x8
 3298 0260 50       		.byte	0x50
 3299 0261 65020000 		.4byte	0x265
 3300 0265 05       		.uleb128 0x5
 3301 0266 0A010000 		.4byte	.LASF50
 3302 026a 08       		.byte	0x8
 3303 026b 09       		.byte	0x9
 3304 026c 8F       		.byte	0x8f
 3305 026d 8A020000 		.4byte	0x28a
 3306 0271 06       		.uleb128 0x6
 3307 0272 73000000 		.4byte	.LASF48
 3308 0276 09       		.byte	0x9
 3309 0277 90       		.byte	0x90
 3310 0278 30020000 		.4byte	0x230
 3311 027c 00       		.byte	0
 3312 027d 06       		.uleb128 0x6
 3313 027e 05010000 		.4byte	.LASF51
 3314 0282 09       		.byte	0x9
 3315 0283 91       		.byte	0x91
 3316 0284 30020000 		.4byte	0x230
 3317 0288 04       		.byte	0x4
 3318 0289 00       		.byte	0
 3319 028a 03       		.uleb128 0x3
 3320 028b 7A050000 		.4byte	.LASF52
 3321 028f 08       		.byte	0x8
 3322 0290 57       		.byte	0x57
 3323 0291 95020000 		.4byte	0x295
 3324 0295 0B       		.uleb128 0xb
 3325 0296 EB000000 		.4byte	.LASF53
 3326 029a 1C       		.byte	0x1c
 3327 029b 09       		.byte	0x9
 3328 029c 6A01     		.2byte	0x16a
 3329 029e F1020000 		.4byte	0x2f1
 3330 02a2 09       		.uleb128 0x9
 3331 02a3 87050000 		.4byte	.LASF29
 3332 02a7 09       		.byte	0x9
 3333 02a8 6B01     		.2byte	0x16b
 3334 02aa 5A020000 		.4byte	0x25a
 3335 02ae 00       		.byte	0
 3336 02af 09       		.uleb128 0x9
 3337 02b0 A9030000 		.4byte	.LASF30
 3338 02b4 09       		.byte	0x9
 3339 02b5 6C01     		.2byte	0x16c
 3340 02b7 05010000 		.4byte	0x105
 3341 02bb 08       		.byte	0x8
 3342 02bc 08       		.uleb128 0x8
 3343 02bd 63747800 		.ascii	"ctx\000"
 3344 02c1 09       		.byte	0x9
 3345 02c2 6E01     		.2byte	0x16e
 3346 02c4 46040000 		.4byte	0x446
 3347 02c8 0C       		.byte	0xc
ARM GAS  /tmp/cc0h7QKQ.s 			page 115


 3348 02c9 09       		.uleb128 0x9
 3349 02ca B0050000 		.4byte	.LASF31
 3350 02ce 09       		.byte	0x9
 3351 02cf 7101     		.2byte	0x171
 3352 02d1 30020000 		.4byte	0x230
 3353 02d5 10       		.byte	0x10
 3354 02d6 09       		.uleb128 0x9
 3355 02d7 F3060000 		.4byte	.LASF32
 3356 02db 09       		.byte	0x9
 3357 02dc 7201     		.2byte	0x172
 3358 02de 30020000 		.4byte	0x230
 3359 02e2 14       		.byte	0x14
 3360 02e3 09       		.uleb128 0x9
 3361 02e4 9A060000 		.4byte	.LASF54
 3362 02e8 09       		.byte	0x9
 3363 02e9 7501     		.2byte	0x175
 3364 02eb 30020000 		.4byte	0x230
 3365 02ef 18       		.byte	0x18
 3366 02f0 00       		.byte	0
 3367 02f1 03       		.uleb128 0x3
 3368 02f2 5E010000 		.4byte	.LASF55
 3369 02f6 08       		.byte	0x8
 3370 02f7 5C       		.byte	0x5c
 3371 02f8 FC020000 		.4byte	0x2fc
 3372 02fc 0A       		.uleb128 0xa
 3373 02fd 04       		.byte	0x4
 3374 02fe 02030000 		.4byte	0x302
 3375 0302 0C       		.uleb128 0xc
 3376 0303 0D030000 		.4byte	0x30d
 3377 0307 0D       		.uleb128 0xd
 3378 0308 0D030000 		.4byte	0x30d
 3379 030c 00       		.byte	0
 3380 030d 0E       		.uleb128 0xe
 3381 030e 04       		.byte	0x4
 3382 030f 03       		.uleb128 0x3
 3383 0310 67040000 		.4byte	.LASF56
 3384 0314 08       		.byte	0x8
 3385 0315 61       		.byte	0x61
 3386 0316 1A030000 		.4byte	0x31a
 3387 031a 0B       		.uleb128 0xb
 3388 031b 89020000 		.4byte	.LASF57
 3389 031f 14       		.byte	0x14
 3390 0320 09       		.byte	0x9
 3391 0321 4501     		.2byte	0x145
 3392 0323 69030000 		.4byte	0x369
 3393 0327 09       		.uleb128 0x9
 3394 0328 73000000 		.4byte	.LASF48
 3395 032c 09       		.byte	0x9
 3396 032d 4601     		.2byte	0x146
 3397 032f B9050000 		.4byte	0x5b9
 3398 0333 00       		.byte	0
 3399 0334 09       		.uleb128 0x9
 3400 0335 05010000 		.4byte	.LASF51
 3401 0339 09       		.byte	0x9
 3402 033a 4701     		.2byte	0x147
 3403 033c B9050000 		.4byte	0x5b9
 3404 0340 04       		.byte	0x4
ARM GAS  /tmp/cc0h7QKQ.s 			page 116


 3405 0341 09       		.uleb128 0x9
 3406 0342 64060000 		.4byte	.LASF58
 3407 0346 09       		.byte	0x9
 3408 0347 4801     		.2byte	0x148
 3409 0349 31010000 		.4byte	0x131
 3410 034d 08       		.byte	0x8
 3411 034e 09       		.uleb128 0x9
 3412 034f F9000000 		.4byte	.LASF59
 3413 0353 09       		.byte	0x9
 3414 0354 4901     		.2byte	0x149
 3415 0356 F1020000 		.4byte	0x2f1
 3416 035a 0C       		.byte	0xc
 3417 035b 08       		.uleb128 0x8
 3418 035c 70617200 		.ascii	"par\000"
 3419 0360 09       		.byte	0x9
 3420 0361 4B01     		.2byte	0x14b
 3421 0363 0D030000 		.4byte	0x30d
 3422 0367 10       		.byte	0x10
 3423 0368 00       		.byte	0
 3424 0369 03       		.uleb128 0x3
 3425 036a F7050000 		.4byte	.LASF60
 3426 036e 08       		.byte	0x8
 3427 036f 66       		.byte	0x66
 3428 0370 74030000 		.4byte	0x374
 3429 0374 0B       		.uleb128 0xb
 3430 0375 1D030000 		.4byte	.LASF61
 3431 0379 0C       		.byte	0xc
 3432 037a 09       		.byte	0x9
 3433 037b 5501     		.2byte	0x155
 3434 037d B6030000 		.4byte	0x3b6
 3435 0381 09       		.uleb128 0x9
 3436 0382 73000000 		.4byte	.LASF48
 3437 0386 09       		.byte	0x9
 3438 0387 5601     		.2byte	0x156
 3439 0389 B9050000 		.4byte	0x5b9
 3440 038d 00       		.byte	0
 3441 038e 09       		.uleb128 0x9
 3442 038f 05010000 		.4byte	.LASF51
 3443 0393 09       		.byte	0x9
 3444 0394 5801     		.2byte	0x158
 3445 0396 B9050000 		.4byte	0x5b9
 3446 039a 04       		.byte	0x4
 3447 039b 09       		.uleb128 0x9
 3448 039c 64060000 		.4byte	.LASF58
 3449 03a0 09       		.byte	0x9
 3450 03a1 5A01     		.2byte	0x15a
 3451 03a3 31010000 		.4byte	0x131
 3452 03a7 08       		.byte	0x8
 3453 03a8 09       		.uleb128 0x9
 3454 03a9 15050000 		.4byte	.LASF62
 3455 03ad 09       		.byte	0x9
 3456 03ae 6201     		.2byte	0x162
 3457 03b0 31010000 		.4byte	0x131
 3458 03b4 0A       		.byte	0xa
 3459 03b5 00       		.byte	0
 3460 03b6 03       		.uleb128 0x3
 3461 03b7 19040000 		.4byte	.LASF63
ARM GAS  /tmp/cc0h7QKQ.s 			page 117


 3462 03bb 08       		.byte	0x8
 3463 03bc 6B       		.byte	0x6b
 3464 03bd C1030000 		.4byte	0x3c1
 3465 03c1 0B       		.uleb128 0xb
 3466 03c2 7C010000 		.4byte	.LASF64
 3467 03c6 04       		.byte	0x4
 3468 03c7 09       		.byte	0x9
 3469 03c8 7C01     		.2byte	0x17c
 3470 03ca DC030000 		.4byte	0x3dc
 3471 03ce 09       		.uleb128 0x9
 3472 03cf 8C040000 		.4byte	.LASF65
 3473 03d3 09       		.byte	0x9
 3474 03d4 8401     		.2byte	0x184
 3475 03d6 BF050000 		.4byte	0x5bf
 3476 03da 00       		.byte	0
 3477 03db 00       		.byte	0
 3478 03dc 03       		.uleb128 0x3
 3479 03dd 46060000 		.4byte	.LASF66
 3480 03e1 08       		.byte	0x8
 3481 03e2 70       		.byte	0x70
 3482 03e3 E7030000 		.4byte	0x3e7
 3483 03e7 0B       		.uleb128 0xb
 3484 03e8 0B050000 		.4byte	.LASF67
 3485 03ec 70       		.byte	0x70
 3486 03ed 09       		.byte	0x9
 3487 03ee 9C01     		.2byte	0x19c
 3488 03f0 29040000 		.4byte	0x429
 3489 03f4 09       		.uleb128 0x9
 3490 03f5 27050000 		.4byte	.LASF68
 3491 03f9 09       		.byte	0x9
 3492 03fa A001     		.2byte	0x1a0
 3493 03fc 8A020000 		.4byte	0x28a
 3494 0400 00       		.byte	0
 3495 0401 09       		.uleb128 0x9
 3496 0402 CA000000 		.4byte	.LASF69
 3497 0406 09       		.byte	0x9
 3498 0407 A401     		.2byte	0x1a4
 3499 0409 69030000 		.4byte	0x369
 3500 040d 1C       		.byte	0x1c
 3501 040e 08       		.uleb128 0x8
 3502 040f 64626700 		.ascii	"dbg\000"
 3503 0413 09       		.byte	0x9
 3504 0414 A801     		.2byte	0x1a8
 3505 0416 B6030000 		.4byte	0x3b6
 3506 041a 28       		.byte	0x28
 3507 041b 09       		.uleb128 0x9
 3508 041c B3040000 		.4byte	.LASF70
 3509 0420 09       		.byte	0x9
 3510 0421 AC01     		.2byte	0x1ac
 3511 0423 3C010000 		.4byte	0x13c
 3512 0427 2C       		.byte	0x2c
 3513 0428 00       		.byte	0
 3514 0429 04       		.uleb128 0x4
 3515 042a 04       		.byte	0x4
 3516 042b 07       		.byte	0x7
 3517 042c 57050000 		.4byte	.LASF71
 3518 0430 03       		.uleb128 0x3
ARM GAS  /tmp/cc0h7QKQ.s 			page 118


 3519 0431 17000000 		.4byte	.LASF72
 3520 0435 0A       		.byte	0xa
 3521 0436 65       		.byte	0x65
 3522 0437 0D030000 		.4byte	0x30d
 3523 043b 03       		.uleb128 0x3
 3524 043c 7D060000 		.4byte	.LASF73
 3525 0440 0A       		.byte	0xa
 3526 0441 6D       		.byte	0x6d
 3527 0442 D9000000 		.4byte	0xd9
 3528 0446 05       		.uleb128 0x5
 3529 0447 D1000000 		.4byte	.LASF74
 3530 044b 04       		.byte	0x4
 3531 044c 0A       		.byte	0xa
 3532 044d 89       		.byte	0x89
 3533 044e 5E040000 		.4byte	0x45e
 3534 0452 07       		.uleb128 0x7
 3535 0453 737000   		.ascii	"sp\000"
 3536 0456 0A       		.byte	0xa
 3537 0457 8A       		.byte	0x8a
 3538 0458 D0040000 		.4byte	0x4d0
 3539 045c 00       		.byte	0
 3540 045d 00       		.byte	0
 3541 045e 05       		.uleb128 0x5
 3542 045f F2040000 		.4byte	.LASF75
 3543 0463 24       		.byte	0x24
 3544 0464 0B       		.byte	0xb
 3545 0465 C3       		.byte	0xc3
 3546 0466 D0040000 		.4byte	0x4d0
 3547 046a 07       		.uleb128 0x7
 3548 046b 723800   		.ascii	"r8\000"
 3549 046e 0B       		.byte	0xb
 3550 046f C4       		.byte	0xc4
 3551 0470 30040000 		.4byte	0x430
 3552 0474 00       		.byte	0
 3553 0475 07       		.uleb128 0x7
 3554 0476 723900   		.ascii	"r9\000"
 3555 0479 0B       		.byte	0xb
 3556 047a C5       		.byte	0xc5
 3557 047b 30040000 		.4byte	0x430
 3558 047f 04       		.byte	0x4
 3559 0480 07       		.uleb128 0x7
 3560 0481 72313000 		.ascii	"r10\000"
 3561 0485 0B       		.byte	0xb
 3562 0486 C6       		.byte	0xc6
 3563 0487 30040000 		.4byte	0x430
 3564 048b 08       		.byte	0x8
 3565 048c 07       		.uleb128 0x7
 3566 048d 72313100 		.ascii	"r11\000"
 3567 0491 0B       		.byte	0xb
 3568 0492 C7       		.byte	0xc7
 3569 0493 30040000 		.4byte	0x430
 3570 0497 0C       		.byte	0xc
 3571 0498 07       		.uleb128 0x7
 3572 0499 723400   		.ascii	"r4\000"
 3573 049c 0B       		.byte	0xb
 3574 049d C8       		.byte	0xc8
 3575 049e 30040000 		.4byte	0x430
ARM GAS  /tmp/cc0h7QKQ.s 			page 119


 3576 04a2 10       		.byte	0x10
 3577 04a3 07       		.uleb128 0x7
 3578 04a4 723500   		.ascii	"r5\000"
 3579 04a7 0B       		.byte	0xb
 3580 04a8 C9       		.byte	0xc9
 3581 04a9 30040000 		.4byte	0x430
 3582 04ad 14       		.byte	0x14
 3583 04ae 07       		.uleb128 0x7
 3584 04af 723600   		.ascii	"r6\000"
 3585 04b2 0B       		.byte	0xb
 3586 04b3 CA       		.byte	0xca
 3587 04b4 30040000 		.4byte	0x430
 3588 04b8 18       		.byte	0x18
 3589 04b9 07       		.uleb128 0x7
 3590 04ba 723700   		.ascii	"r7\000"
 3591 04bd 0B       		.byte	0xb
 3592 04be CB       		.byte	0xcb
 3593 04bf 30040000 		.4byte	0x430
 3594 04c3 1C       		.byte	0x1c
 3595 04c4 07       		.uleb128 0x7
 3596 04c5 6C7200   		.ascii	"lr\000"
 3597 04c8 0B       		.byte	0xb
 3598 04c9 CC       		.byte	0xcc
 3599 04ca 30040000 		.4byte	0x430
 3600 04ce 20       		.byte	0x20
 3601 04cf 00       		.byte	0
 3602 04d0 0A       		.uleb128 0xa
 3603 04d1 04       		.byte	0x4
 3604 04d2 5E040000 		.4byte	0x45e
 3605 04d6 0F       		.uleb128 0xf
 3606 04d7 04       		.byte	0x4
 3607 04d8 09       		.byte	0x9
 3608 04d9 D2       		.byte	0xd2
 3609 04da 39050000 		.4byte	0x539
 3610 04de 10       		.uleb128 0x10
 3611 04df 44030000 		.4byte	.LASF76
 3612 04e3 09       		.byte	0x9
 3613 04e4 D9       		.byte	0xd9
 3614 04e5 10010000 		.4byte	0x110
 3615 04e9 10       		.uleb128 0x10
 3616 04ea 35070000 		.4byte	.LASF77
 3617 04ee 09       		.byte	0x9
 3618 04ef E0       		.byte	0xe0
 3619 04f0 10010000 		.4byte	0x110
 3620 04f4 10       		.uleb128 0x10
 3621 04f5 B9000000 		.4byte	.LASF78
 3622 04f9 09       		.byte	0x9
 3623 04fa E7       		.byte	0xe7
 3624 04fb 0D030000 		.4byte	0x30d
 3625 04ff 10       		.uleb128 0x10
 3626 0500 52060000 		.4byte	.LASF79
 3627 0504 09       		.byte	0x9
 3628 0505 EE       		.byte	0xee
 3629 0506 39050000 		.4byte	0x539
 3630 050a 10       		.uleb128 0x10
 3631 050b 58020000 		.4byte	.LASF80
 3632 050f 09       		.byte	0x9
ARM GAS  /tmp/cc0h7QKQ.s 			page 120


 3633 0510 F3       		.byte	0xf3
 3634 0511 10010000 		.4byte	0x110
 3635 0515 10       		.uleb128 0x10
 3636 0516 A1050000 		.4byte	.LASF81
 3637 051a 09       		.byte	0x9
 3638 051b FC       		.byte	0xfc
 3639 051c 64050000 		.4byte	0x564
 3640 0520 11       		.uleb128 0x11
 3641 0521 10000000 		.4byte	.LASF82
 3642 0525 09       		.byte	0x9
 3643 0526 0501     		.2byte	0x105
 3644 0528 9B050000 		.4byte	0x59b
 3645 052c 11       		.uleb128 0x11
 3646 052d FE000000 		.4byte	.LASF83
 3647 0531 09       		.byte	0x9
 3648 0532 0D01     		.2byte	0x10d
 3649 0534 1B010000 		.4byte	0x11b
 3650 0538 00       		.byte	0
 3651 0539 0A       		.uleb128 0xa
 3652 053a 04       		.byte	0x4
 3653 053b 25020000 		.4byte	0x225
 3654 053f 05       		.uleb128 0x5
 3655 0540 74020000 		.4byte	.LASF84
 3656 0544 0C       		.byte	0xc
 3657 0545 0C       		.byte	0xc
 3658 0546 34       		.byte	0x34
 3659 0547 64050000 		.4byte	0x564
 3660 054b 06       		.uleb128 0x6
 3661 054c 87050000 		.4byte	.LASF29
 3662 0550 0C       		.byte	0xc
 3663 0551 35       		.byte	0x35
 3664 0552 5A020000 		.4byte	0x25a
 3665 0556 00       		.byte	0
 3666 0557 07       		.uleb128 0x7
 3667 0558 636E7400 		.ascii	"cnt\000"
 3668 055c 0C       		.byte	0xc
 3669 055d 37       		.byte	0x37
 3670 055e 26010000 		.4byte	0x126
 3671 0562 08       		.byte	0x8
 3672 0563 00       		.byte	0
 3673 0564 0A       		.uleb128 0xa
 3674 0565 04       		.byte	0x4
 3675 0566 3F050000 		.4byte	0x53f
 3676 056a 05       		.uleb128 0x5
 3677 056b 82030000 		.4byte	.LASF85
 3678 056f 10       		.byte	0x10
 3679 0570 0D       		.byte	0xd
 3680 0571 39       		.byte	0x39
 3681 0572 9B050000 		.4byte	0x59b
 3682 0576 06       		.uleb128 0x6
 3683 0577 87050000 		.4byte	.LASF29
 3684 057b 0D       		.byte	0xd
 3685 057c 3A       		.byte	0x3a
 3686 057d 5A020000 		.4byte	0x25a
 3687 0581 00       		.byte	0
 3688 0582 06       		.uleb128 0x6
 3689 0583 E2020000 		.4byte	.LASF86
ARM GAS  /tmp/cc0h7QKQ.s 			page 121


 3690 0587 0D       		.byte	0xd
 3691 0588 3C       		.byte	0x3c
 3692 0589 30020000 		.4byte	0x230
 3693 058d 08       		.byte	0x8
 3694 058e 06       		.uleb128 0x6
 3695 058f 73000000 		.4byte	.LASF48
 3696 0593 0D       		.byte	0xd
 3697 0594 3E       		.byte	0x3e
 3698 0595 DA050000 		.4byte	0x5da
 3699 0599 0C       		.byte	0xc
 3700 059a 00       		.byte	0
 3701 059b 0A       		.uleb128 0xa
 3702 059c 04       		.byte	0x4
 3703 059d 6A050000 		.4byte	0x56a
 3704 05a1 0A       		.uleb128 0xa
 3705 05a2 04       		.byte	0x4
 3706 05a3 A7050000 		.4byte	0x5a7
 3707 05a7 12       		.uleb128 0x12
 3708 05a8 AC050000 		.4byte	0x5ac
 3709 05ac 04       		.uleb128 0x4
 3710 05ad 01       		.byte	0x1
 3711 05ae 08       		.byte	0x8
 3712 05af C4030000 		.4byte	.LASF87
 3713 05b3 0A       		.uleb128 0xa
 3714 05b4 04       		.byte	0x4
 3715 05b5 3B040000 		.4byte	0x43b
 3716 05b9 0A       		.uleb128 0xa
 3717 05ba 04       		.byte	0x4
 3718 05bb 0F030000 		.4byte	0x30f
 3719 05bf 13       		.uleb128 0x13
 3720 05c0 A1050000 		.4byte	0x5a1
 3721 05c4 03       		.uleb128 0x3
 3722 05c5 E8020000 		.4byte	.LASF88
 3723 05c9 0C       		.byte	0xc
 3724 05ca 38       		.byte	0x38
 3725 05cb 3F050000 		.4byte	0x53f
 3726 05cf 03       		.uleb128 0x3
 3727 05d0 A8050000 		.4byte	.LASF89
 3728 05d4 0D       		.byte	0xd
 3729 05d5 34       		.byte	0x34
 3730 05d6 6A050000 		.4byte	0x56a
 3731 05da 0A       		.uleb128 0xa
 3732 05db 04       		.byte	0x4
 3733 05dc CF050000 		.4byte	0x5cf
 3734 05e0 14       		.uleb128 0x14
 3735 05e1 28       		.byte	0x28
 3736 05e2 03       		.byte	0x3
 3737 05e3 38       		.byte	0x38
 3738 05e4 31060000 		.4byte	0x631
 3739 05e8 06       		.uleb128 0x6
 3740 05e9 39000000 		.4byte	.LASF90
 3741 05ed 03       		.byte	0x3
 3742 05ee 39       		.byte	0x39
 3743 05ef 31060000 		.4byte	0x631
 3744 05f3 00       		.byte	0
 3745 05f4 07       		.uleb128 0x7
 3746 05f5 746F7000 		.ascii	"top\000"
ARM GAS  /tmp/cc0h7QKQ.s 			page 122


 3747 05f9 03       		.byte	0x3
 3748 05fa 3B       		.byte	0x3b
 3749 05fb 31060000 		.4byte	0x631
 3750 05ff 04       		.byte	0x4
 3751 0600 06       		.uleb128 0x6
 3752 0601 DC020000 		.4byte	.LASF91
 3753 0605 03       		.byte	0x3
 3754 0606 3D       		.byte	0x3d
 3755 0607 31060000 		.4byte	0x631
 3756 060b 08       		.byte	0x8
 3757 060c 06       		.uleb128 0x6
 3758 060d C4060000 		.4byte	.LASF92
 3759 0611 03       		.byte	0x3
 3760 0612 3E       		.byte	0x3e
 3761 0613 31060000 		.4byte	0x631
 3762 0617 0C       		.byte	0xc
 3763 0618 06       		.uleb128 0x6
 3764 0619 6C020000 		.4byte	.LASF93
 3765 061d 03       		.byte	0x3
 3766 061e 3F       		.byte	0x3f
 3767 061f C4050000 		.4byte	0x5c4
 3768 0623 10       		.byte	0x10
 3769 0624 06       		.uleb128 0x6
 3770 0625 A0030000 		.4byte	.LASF94
 3771 0629 03       		.byte	0x3
 3772 062a 41       		.byte	0x41
 3773 062b C4050000 		.4byte	0x5c4
 3774 062f 1C       		.byte	0x1c
 3775 0630 00       		.byte	0
 3776 0631 0A       		.uleb128 0xa
 3777 0632 04       		.byte	0x4
 3778 0633 10010000 		.4byte	0x110
 3779 0637 03       		.uleb128 0x3
 3780 0638 78030000 		.4byte	.LASF95
 3781 063c 03       		.byte	0x3
 3782 063d 43       		.byte	0x43
 3783 063e E0050000 		.4byte	0x5e0
 3784 0642 04       		.uleb128 0x4
 3785 0643 01       		.byte	0x1
 3786 0644 02       		.byte	0x2
 3787 0645 59030000 		.4byte	.LASF96
 3788 0649 14       		.uleb128 0x14
 3789 064a 10       		.byte	0x10
 3790 064b 0E       		.byte	0xe
 3791 064c 3D       		.byte	0x3d
 3792 064d 82060000 		.4byte	0x682
 3793 0651 06       		.uleb128 0x6
 3794 0652 45050000 		.4byte	.LASF33
 3795 0656 0E       		.byte	0xe
 3796 0657 3E       		.byte	0x3e
 3797 0658 A1050000 		.4byte	0x5a1
 3798 065c 00       		.byte	0
 3799 065d 06       		.uleb128 0x6
 3800 065e DE050000 		.4byte	.LASF97
 3801 0662 0E       		.byte	0xe
 3802 0663 3F       		.byte	0x3f
 3803 0664 83060000 		.4byte	0x683
ARM GAS  /tmp/cc0h7QKQ.s 			page 123


 3804 0668 04       		.byte	0x4
 3805 0669 06       		.uleb128 0x6
 3806 066a 4B040000 		.4byte	.LASF98
 3807 066e 0E       		.byte	0xe
 3808 066f 40       		.byte	0x40
 3809 0670 83060000 		.4byte	0x683
 3810 0674 08       		.byte	0x8
 3811 0675 06       		.uleb128 0x6
 3812 0676 11040000 		.4byte	.LASF99
 3813 067a 0E       		.byte	0xe
 3814 067b 41       		.byte	0x41
 3815 067c 83060000 		.4byte	0x683
 3816 0680 0C       		.byte	0xc
 3817 0681 00       		.byte	0
 3818 0682 15       		.uleb128 0x15
 3819 0683 0A       		.uleb128 0xa
 3820 0684 04       		.byte	0x4
 3821 0685 82060000 		.4byte	0x682
 3822 0689 03       		.uleb128 0x3
 3823 068a 40000000 		.4byte	.LASF100
 3824 068e 0E       		.byte	0xe
 3825 068f 42       		.byte	0x42
 3826 0690 49060000 		.4byte	0x649
 3827 0694 16       		.uleb128 0x16
 3828 0695 4B030000 		.4byte	.LASF101
 3829 0699 02       		.byte	0x2
 3830 069a 45       		.byte	0x45
 3831 069b 03       		.byte	0x3
 3832 069c 16       		.uleb128 0x16
 3833 069d FE040000 		.4byte	.LASF102
 3834 06a1 02       		.byte	0x2
 3835 06a2 3A       		.byte	0x3a
 3836 06a3 03       		.byte	0x3
 3837 06a4 17       		.uleb128 0x17
 3838 06a5 C0000000 		.4byte	.LASF103
 3839 06a9 0B       		.byte	0xb
 3840 06aa 7301     		.2byte	0x173
 3841 06ac 03       		.byte	0x3
 3842 06ad 17       		.uleb128 0x17
 3843 06ae A2060000 		.4byte	.LASF104
 3844 06b2 0B       		.byte	0xb
 3845 06b3 7C01     		.2byte	0x17c
 3846 06b5 03       		.byte	0x3
 3847 06b6 18       		.uleb128 0x18
 3848 06b7 04030000 		.4byte	.LASF107
 3849 06bb 0C       		.byte	0xc
 3850 06bc 95       		.byte	0x95
 3851 06bd 26010000 		.4byte	0x126
 3852 06c1 03       		.byte	0x3
 3853 06c2 D1060000 		.4byte	0x6d1
 3854 06c6 19       		.uleb128 0x19
 3855 06c7 737000   		.ascii	"sp\000"
 3856 06ca 0C       		.byte	0xc
 3857 06cb 95       		.byte	0x95
 3858 06cc D1060000 		.4byte	0x6d1
 3859 06d0 00       		.byte	0
 3860 06d1 0A       		.uleb128 0xa
ARM GAS  /tmp/cc0h7QKQ.s 			page 124


 3861 06d2 04       		.byte	0x4
 3862 06d3 C4050000 		.4byte	0x5c4
 3863 06d7 17       		.uleb128 0x17
 3864 06d8 96030000 		.4byte	.LASF105
 3865 06dc 0F       		.byte	0xf
 3866 06dd 7601     		.2byte	0x176
 3867 06df 03       		.byte	0x3
 3868 06e0 1A       		.uleb128 0x1a
 3869 06e1 C2020000 		.4byte	.LASF143
 3870 06e5 0F       		.byte	0xf
 3871 06e6 8201     		.2byte	0x182
 3872 06e8 03       		.byte	0x3
 3873 06e9 FB060000 		.4byte	0x6fb
 3874 06ed 1B       		.uleb128 0x1b
 3875 06ee 37050000 		.4byte	.LASF144
 3876 06f2 0B070000 		.4byte	0x70b
 3877 06f6 C2020000 		.4byte	.LASF143
 3878 06fa 00       		.byte	0
 3879 06fb 1C       		.uleb128 0x1c
 3880 06fc AC050000 		.4byte	0x5ac
 3881 0700 0B070000 		.4byte	0x70b
 3882 0704 1D       		.uleb128 0x1d
 3883 0705 29040000 		.4byte	0x429
 3884 0709 0B       		.byte	0xb
 3885 070a 00       		.byte	0
 3886 070b 12       		.uleb128 0x12
 3887 070c FB060000 		.4byte	0x6fb
 3888 0710 17       		.uleb128 0x17
 3889 0711 8D050000 		.4byte	.LASF106
 3890 0715 10       		.byte	0x10
 3891 0716 EB01     		.2byte	0x1eb
 3892 0718 03       		.byte	0x3
 3893 0719 18       		.uleb128 0x18
 3894 071a 88060000 		.4byte	.LASF108
 3895 071e 03       		.byte	0x3
 3896 071f 9E       		.byte	0x9e
 3897 0720 26010000 		.4byte	0x126
 3898 0724 03       		.byte	0x3
 3899 0725 35070000 		.4byte	0x735
 3900 0729 19       		.uleb128 0x19
 3901 072a 6D627000 		.ascii	"mbp\000"
 3902 072e 03       		.byte	0x3
 3903 072f 9E       		.byte	0x9e
 3904 0730 35070000 		.4byte	0x735
 3905 0734 00       		.byte	0
 3906 0735 0A       		.uleb128 0xa
 3907 0736 04       		.byte	0x4
 3908 0737 37060000 		.4byte	0x637
 3909 073b 17       		.uleb128 0x17
 3910 073c CE020000 		.4byte	.LASF109
 3911 0740 10       		.byte	0x10
 3912 0741 F601     		.2byte	0x1f6
 3913 0743 03       		.byte	0x3
 3914 0744 18       		.uleb128 0x18
 3915 0745 4C010000 		.4byte	.LASF110
 3916 0749 03       		.byte	0x3
 3917 074a B1       		.byte	0xb1
ARM GAS  /tmp/cc0h7QKQ.s 			page 125


 3918 074b 26010000 		.4byte	0x126
 3919 074f 03       		.byte	0x3
 3920 0750 60070000 		.4byte	0x760
 3921 0754 19       		.uleb128 0x19
 3922 0755 6D627000 		.ascii	"mbp\000"
 3923 0759 03       		.byte	0x3
 3924 075a B1       		.byte	0xb1
 3925 075b 35070000 		.4byte	0x735
 3926 075f 00       		.byte	0
 3927 0760 1E       		.uleb128 0x1e
 3928 0761 AE030000 		.4byte	.LASF111
 3929 0765 01       		.byte	0x1
 3930 0766 3C01     		.2byte	0x13c
 3931 0768 00000000 		.4byte	.LFB186
 3932 076c 10000000 		.4byte	.LFE186-.LFB186
 3933 0770 01       		.uleb128 0x1
 3934 0771 9C       		.byte	0x9c
 3935 0772 8A070000 		.4byte	0x78a
 3936 0776 1F       		.uleb128 0x1f
 3937 0777 08000000 		.4byte	.LVL0
 3938 077b DE1F0000 		.4byte	0x1fde
 3939 077f 20       		.uleb128 0x20
 3940 0780 01       		.uleb128 0x1
 3941 0781 50       		.byte	0x50
 3942 0782 05       		.uleb128 0x5
 3943 0783 03       		.byte	0x3
 3944 0784 00000000 		.4byte	.LANCHOR0
 3945 0788 00       		.byte	0
 3946 0789 00       		.byte	0
 3947 078a 21       		.uleb128 0x21
 3948 078b 8C010000 		.4byte	.LASF112
 3949 078f 01       		.byte	0x1
 3950 0790 CB       		.byte	0xcb
 3951 0791 00000000 		.4byte	.LFB183
 3952 0795 10000000 		.4byte	.LFE183-.LFB183
 3953 0799 01       		.uleb128 0x1
 3954 079a 9C       		.byte	0x9c
 3955 079b B3070000 		.4byte	0x7b3
 3956 079f 1F       		.uleb128 0x1f
 3957 07a0 08000000 		.4byte	.LVL1
 3958 07a4 DE1F0000 		.4byte	0x1fde
 3959 07a8 20       		.uleb128 0x20
 3960 07a9 01       		.uleb128 0x1
 3961 07aa 50       		.byte	0x50
 3962 07ab 05       		.uleb128 0x5
 3963 07ac 03       		.byte	0x3
 3964 07ad 00000000 		.4byte	.LANCHOR0
 3965 07b1 00       		.byte	0
 3966 07b2 00       		.byte	0
 3967 07b3 21       		.uleb128 0x21
 3968 07b4 AE060000 		.4byte	.LASF113
 3969 07b8 01       		.byte	0x1
 3970 07b9 59       		.byte	0x59
 3971 07ba 00000000 		.4byte	.LFB180
 3972 07be 10000000 		.4byte	.LFE180-.LFB180
 3973 07c2 01       		.uleb128 0x1
 3974 07c3 9C       		.byte	0x9c
ARM GAS  /tmp/cc0h7QKQ.s 			page 126


 3975 07c4 DC070000 		.4byte	0x7dc
 3976 07c8 1F       		.uleb128 0x1f
 3977 07c9 08000000 		.4byte	.LVL2
 3978 07cd DE1F0000 		.4byte	0x1fde
 3979 07d1 20       		.uleb128 0x20
 3980 07d2 01       		.uleb128 0x1
 3981 07d3 50       		.byte	0x50
 3982 07d4 05       		.uleb128 0x5
 3983 07d5 03       		.byte	0x3
 3984 07d6 00000000 		.4byte	.LANCHOR0
 3985 07da 00       		.byte	0
 3986 07db 00       		.byte	0
 3987 07dc 1E       		.uleb128 0x1e
 3988 07dd 67010000 		.4byte	.LASF114
 3989 07e1 01       		.byte	0x1
 3990 07e2 4001     		.2byte	0x140
 3991 07e4 00000000 		.4byte	.LFB187
 3992 07e8 04010000 		.4byte	.LFE187-.LFB187
 3993 07ec 01       		.uleb128 0x1
 3994 07ed 9C       		.byte	0x9c
 3995 07ee F80A0000 		.4byte	0xaf8
 3996 07f2 22       		.uleb128 0x22
 3997 07f3 27060000 		.4byte	.LASF115
 3998 07f7 01       		.byte	0x1
 3999 07f8 4101     		.2byte	0x141
 4000 07fa 10010000 		.4byte	0x110
 4001 07fe 00000000 		.4byte	.LLST0
 4002 0802 23       		.uleb128 0x23
 4003 0803 2C060000 		.4byte	.LASF116
 4004 0807 01       		.byte	0x1
 4005 0808 4101     		.2byte	0x141
 4006 080a 10010000 		.4byte	0x110
 4007 080e 02       		.uleb128 0x2
 4008 080f 91       		.byte	0x91
 4009 0810 64       		.sleb128 -28
 4010 0811 24       		.uleb128 0x24
 4011 0812 6900     		.ascii	"i\000"
 4012 0814 01       		.byte	0x1
 4013 0815 4201     		.2byte	0x142
 4014 0817 37000000 		.4byte	0x37
 4015 081b A3000000 		.4byte	.LLST1
 4016 081f 25       		.uleb128 0x25
 4017 0820 D7060000 		.4byte	0x6d7
 4018 0824 54000000 		.4byte	.LBB526
 4019 0828 02000000 		.4byte	.LBE526-.LBB526
 4020 082c 01       		.byte	0x1
 4021 082d 5301     		.2byte	0x153
 4022 082f 55080000 		.4byte	0x855
 4023 0833 26       		.uleb128 0x26
 4024 0834 A4060000 		.4byte	0x6a4
 4025 0838 54000000 		.4byte	.LBB527
 4026 083c 02000000 		.4byte	.LBE527-.LBB527
 4027 0840 0F       		.byte	0xf
 4028 0841 7801     		.2byte	0x178
 4029 0843 27       		.uleb128 0x27
 4030 0844 94060000 		.4byte	0x694
 4031 0848 54000000 		.4byte	.LBB528
ARM GAS  /tmp/cc0h7QKQ.s 			page 127


 4032 084c 02000000 		.4byte	.LBE528-.LBB528
 4033 0850 0B       		.byte	0xb
 4034 0851 7501     		.2byte	0x175
 4035 0853 00       		.byte	0
 4036 0854 00       		.byte	0
 4037 0855 25       		.uleb128 0x25
 4038 0856 E0060000 		.4byte	0x6e0
 4039 085a 5E000000 		.4byte	.LBB530
 4040 085e 02000000 		.4byte	.LBE530-.LBB530
 4041 0862 01       		.byte	0x1
 4042 0863 5501     		.2byte	0x155
 4043 0865 9A080000 		.4byte	0x89a
 4044 0869 28       		.uleb128 0x28
 4045 086a 5E000000 		.4byte	.LBB531
 4046 086e 02000000 		.4byte	.LBE531-.LBB531
 4047 0872 29       		.uleb128 0x29
 4048 0873 ED060000 		.4byte	0x6ed
 4049 0877 26       		.uleb128 0x26
 4050 0878 AD060000 		.4byte	0x6ad
 4051 087c 5E000000 		.4byte	.LBB532
 4052 0880 02000000 		.4byte	.LBE532-.LBB532
 4053 0884 0F       		.byte	0xf
 4054 0885 8F01     		.2byte	0x18f
 4055 0887 27       		.uleb128 0x27
 4056 0888 9C060000 		.4byte	0x69c
 4057 088c 5E000000 		.4byte	.LBB533
 4058 0890 02000000 		.4byte	.LBE533-.LBB533
 4059 0894 0B       		.byte	0xb
 4060 0895 7E01     		.2byte	0x17e
 4061 0897 00       		.byte	0
 4062 0898 00       		.byte	0
 4063 0899 00       		.byte	0
 4064 089a 25       		.uleb128 0x25
 4065 089b D7060000 		.4byte	0x6d7
 4066 089f 8E000000 		.4byte	.LBB535
 4067 08a3 02000000 		.4byte	.LBE535-.LBB535
 4068 08a7 01       		.byte	0x1
 4069 08a8 5901     		.2byte	0x159
 4070 08aa D0080000 		.4byte	0x8d0
 4071 08ae 26       		.uleb128 0x26
 4072 08af A4060000 		.4byte	0x6a4
 4073 08b3 8E000000 		.4byte	.LBB536
 4074 08b7 02000000 		.4byte	.LBE536-.LBB536
 4075 08bb 0F       		.byte	0xf
 4076 08bc 7801     		.2byte	0x178
 4077 08be 27       		.uleb128 0x27
 4078 08bf 94060000 		.4byte	0x694
 4079 08c3 8E000000 		.4byte	.LBB537
 4080 08c7 02000000 		.4byte	.LBE537-.LBB537
 4081 08cb 0B       		.byte	0xb
 4082 08cc 7501     		.2byte	0x175
 4083 08ce 00       		.byte	0
 4084 08cf 00       		.byte	0
 4085 08d0 25       		.uleb128 0x25
 4086 08d1 E0060000 		.4byte	0x6e0
 4087 08d5 98000000 		.4byte	.LBB539
 4088 08d9 02000000 		.4byte	.LBE539-.LBB539
ARM GAS  /tmp/cc0h7QKQ.s 			page 128


 4089 08dd 01       		.byte	0x1
 4090 08de 5B01     		.2byte	0x15b
 4091 08e0 15090000 		.4byte	0x915
 4092 08e4 28       		.uleb128 0x28
 4093 08e5 98000000 		.4byte	.LBB540
 4094 08e9 02000000 		.4byte	.LBE540-.LBB540
 4095 08ed 29       		.uleb128 0x29
 4096 08ee ED060000 		.4byte	0x6ed
 4097 08f2 26       		.uleb128 0x26
 4098 08f3 AD060000 		.4byte	0x6ad
 4099 08f7 98000000 		.4byte	.LBB541
 4100 08fb 02000000 		.4byte	.LBE541-.LBB541
 4101 08ff 0F       		.byte	0xf
 4102 0900 8F01     		.2byte	0x18f
 4103 0902 27       		.uleb128 0x27
 4104 0903 9C060000 		.4byte	0x69c
 4105 0907 98000000 		.4byte	.LBB542
 4106 090b 02000000 		.4byte	.LBE542-.LBB542
 4107 090f 0B       		.byte	0xb
 4108 0910 7E01     		.2byte	0x17e
 4109 0912 00       		.byte	0
 4110 0913 00       		.byte	0
 4111 0914 00       		.byte	0
 4112 0915 25       		.uleb128 0x25
 4113 0916 D7060000 		.4byte	0x6d7
 4114 091a D6000000 		.4byte	.LBB544
 4115 091e 02000000 		.4byte	.LBE544-.LBB544
 4116 0922 01       		.byte	0x1
 4117 0923 6A01     		.2byte	0x16a
 4118 0925 4B090000 		.4byte	0x94b
 4119 0929 26       		.uleb128 0x26
 4120 092a A4060000 		.4byte	0x6a4
 4121 092e D6000000 		.4byte	.LBB545
 4122 0932 02000000 		.4byte	.LBE545-.LBB545
 4123 0936 0F       		.byte	0xf
 4124 0937 7801     		.2byte	0x178
 4125 0939 27       		.uleb128 0x27
 4126 093a 94060000 		.4byte	0x694
 4127 093e D6000000 		.4byte	.LBB546
 4128 0942 02000000 		.4byte	.LBE546-.LBB546
 4129 0946 0B       		.byte	0xb
 4130 0947 7501     		.2byte	0x175
 4131 0949 00       		.byte	0
 4132 094a 00       		.byte	0
 4133 094b 25       		.uleb128 0x25
 4134 094c E0060000 		.4byte	0x6e0
 4135 0950 E0000000 		.4byte	.LBB548
 4136 0954 02000000 		.4byte	.LBE548-.LBB548
 4137 0958 01       		.byte	0x1
 4138 0959 6C01     		.2byte	0x16c
 4139 095b 90090000 		.4byte	0x990
 4140 095f 28       		.uleb128 0x28
 4141 0960 E0000000 		.4byte	.LBB549
 4142 0964 02000000 		.4byte	.LBE549-.LBB549
 4143 0968 29       		.uleb128 0x29
 4144 0969 ED060000 		.4byte	0x6ed
 4145 096d 26       		.uleb128 0x26
ARM GAS  /tmp/cc0h7QKQ.s 			page 129


 4146 096e AD060000 		.4byte	0x6ad
 4147 0972 E0000000 		.4byte	.LBB550
 4148 0976 02000000 		.4byte	.LBE550-.LBB550
 4149 097a 0F       		.byte	0xf
 4150 097b 8F01     		.2byte	0x18f
 4151 097d 27       		.uleb128 0x27
 4152 097e 9C060000 		.4byte	0x69c
 4153 0982 E0000000 		.4byte	.LBB551
 4154 0986 02000000 		.4byte	.LBE551-.LBB551
 4155 098a 0B       		.byte	0xb
 4156 098b 7E01     		.2byte	0x17e
 4157 098d 00       		.byte	0
 4158 098e 00       		.byte	0
 4159 098f 00       		.byte	0
 4160 0990 2A       		.uleb128 0x2a
 4161 0991 1A000000 		.4byte	.LVL5
 4162 0995 EF1F0000 		.4byte	0x1fef
 4163 0999 B0090000 		.4byte	0x9b0
 4164 099d 20       		.uleb128 0x20
 4165 099e 01       		.uleb128 0x1
 4166 099f 52       		.byte	0x52
 4167 09a0 02       		.uleb128 0x2
 4168 09a1 09       		.byte	0x9
 4169 09a2 FF       		.byte	0xff
 4170 09a3 20       		.uleb128 0x20
 4171 09a4 01       		.uleb128 0x1
 4172 09a5 51       		.byte	0x51
 4173 09a6 02       		.uleb128 0x2
 4174 09a7 74       		.byte	0x74
 4175 09a8 00       		.sleb128 0
 4176 09a9 20       		.uleb128 0x20
 4177 09aa 01       		.uleb128 0x1
 4178 09ab 50       		.byte	0x50
 4179 09ac 02       		.uleb128 0x2
 4180 09ad 75       		.byte	0x75
 4181 09ae 00       		.sleb128 0
 4182 09af 00       		.byte	0
 4183 09b0 2A       		.uleb128 0x2a
 4184 09b1 26000000 		.4byte	.LVL7
 4185 09b5 0E200000 		.4byte	0x200e
 4186 09b9 C4090000 		.4byte	0x9c4
 4187 09bd 20       		.uleb128 0x20
 4188 09be 01       		.uleb128 0x1
 4189 09bf 51       		.byte	0x51
 4190 09c0 02       		.uleb128 0x2
 4191 09c1 76       		.byte	0x76
 4192 09c2 00       		.sleb128 0
 4193 09c3 00       		.byte	0
 4194 09c4 2A       		.uleb128 0x2a
 4195 09c5 3E000000 		.4byte	.LVL10
 4196 09c9 EF1F0000 		.4byte	0x1fef
 4197 09cd E3090000 		.4byte	0x9e3
 4198 09d1 20       		.uleb128 0x20
 4199 09d2 01       		.uleb128 0x1
 4200 09d3 52       		.byte	0x52
 4201 09d4 01       		.uleb128 0x1
 4202 09d5 31       		.byte	0x31
ARM GAS  /tmp/cc0h7QKQ.s 			page 130


 4203 09d6 20       		.uleb128 0x20
 4204 09d7 01       		.uleb128 0x1
 4205 09d8 51       		.byte	0x51
 4206 09d9 02       		.uleb128 0x2
 4207 09da 08       		.byte	0x8
 4208 09db 58       		.byte	0x58
 4209 09dc 20       		.uleb128 0x20
 4210 09dd 01       		.uleb128 0x1
 4211 09de 50       		.byte	0x50
 4212 09df 02       		.uleb128 0x2
 4213 09e0 75       		.byte	0x75
 4214 09e1 00       		.sleb128 0
 4215 09e2 00       		.byte	0
 4216 09e3 2A       		.uleb128 0x2a
 4217 09e4 4C000000 		.4byte	.LVL13
 4218 09e8 0E200000 		.4byte	0x200e
 4219 09ec F7090000 		.4byte	0x9f7
 4220 09f0 20       		.uleb128 0x20
 4221 09f1 01       		.uleb128 0x1
 4222 09f2 51       		.byte	0x51
 4223 09f3 02       		.uleb128 0x2
 4224 09f4 76       		.byte	0x76
 4225 09f5 00       		.sleb128 0
 4226 09f6 00       		.byte	0
 4227 09f7 2A       		.uleb128 0x2a
 4228 09f8 5E000000 		.4byte	.LVL16
 4229 09fc 28200000 		.4byte	0x2028
 4230 0a00 110A0000 		.4byte	0xa11
 4231 0a04 20       		.uleb128 0x20
 4232 0a05 01       		.uleb128 0x1
 4233 0a06 51       		.byte	0x51
 4234 0a07 02       		.uleb128 0x2
 4235 0a08 08       		.byte	0x8
 4236 0a09 58       		.byte	0x58
 4237 0a0a 20       		.uleb128 0x20
 4238 0a0b 01       		.uleb128 0x1
 4239 0a0c 50       		.byte	0x50
 4240 0a0d 02       		.uleb128 0x2
 4241 0a0e 75       		.byte	0x75
 4242 0a0f 00       		.sleb128 0
 4243 0a10 00       		.byte	0
 4244 0a11 2A       		.uleb128 0x2a
 4245 0a12 6E000000 		.4byte	.LVL19
 4246 0a16 0E200000 		.4byte	0x200e
 4247 0a1a 250A0000 		.4byte	0xa25
 4248 0a1e 20       		.uleb128 0x20
 4249 0a1f 01       		.uleb128 0x1
 4250 0a20 51       		.byte	0x51
 4251 0a21 02       		.uleb128 0x2
 4252 0a22 76       		.byte	0x76
 4253 0a23 00       		.sleb128 0
 4254 0a24 00       		.byte	0
 4255 0a25 2A       		.uleb128 0x2a
 4256 0a26 7C000000 		.4byte	.LVL20
 4257 0a2a 42200000 		.4byte	0x2042
 4258 0a2e 440A0000 		.4byte	0xa44
 4259 0a32 20       		.uleb128 0x20
ARM GAS  /tmp/cc0h7QKQ.s 			page 131


 4260 0a33 01       		.uleb128 0x1
 4261 0a34 52       		.byte	0x52
 4262 0a35 01       		.uleb128 0x1
 4263 0a36 31       		.byte	0x31
 4264 0a37 20       		.uleb128 0x20
 4265 0a38 01       		.uleb128 0x1
 4266 0a39 51       		.byte	0x51
 4267 0a3a 02       		.uleb128 0x2
 4268 0a3b 08       		.byte	0x8
 4269 0a3c 58       		.byte	0x58
 4270 0a3d 20       		.uleb128 0x20
 4271 0a3e 01       		.uleb128 0x1
 4272 0a3f 50       		.byte	0x50
 4273 0a40 02       		.uleb128 0x2
 4274 0a41 75       		.byte	0x75
 4275 0a42 00       		.sleb128 0
 4276 0a43 00       		.byte	0
 4277 0a44 2A       		.uleb128 0x2a
 4278 0a45 8A000000 		.4byte	.LVL23
 4279 0a49 0E200000 		.4byte	0x200e
 4280 0a4d 580A0000 		.4byte	0xa58
 4281 0a51 20       		.uleb128 0x20
 4282 0a52 01       		.uleb128 0x1
 4283 0a53 51       		.byte	0x51
 4284 0a54 02       		.uleb128 0x2
 4285 0a55 76       		.byte	0x76
 4286 0a56 00       		.sleb128 0
 4287 0a57 00       		.byte	0
 4288 0a58 2A       		.uleb128 0x2a
 4289 0a59 98000000 		.4byte	.LVL24
 4290 0a5d 61200000 		.4byte	0x2061
 4291 0a61 720A0000 		.4byte	0xa72
 4292 0a65 20       		.uleb128 0x20
 4293 0a66 01       		.uleb128 0x1
 4294 0a67 51       		.byte	0x51
 4295 0a68 02       		.uleb128 0x2
 4296 0a69 08       		.byte	0x8
 4297 0a6a 58       		.byte	0x58
 4298 0a6b 20       		.uleb128 0x20
 4299 0a6c 01       		.uleb128 0x1
 4300 0a6d 50       		.byte	0x50
 4301 0a6e 02       		.uleb128 0x2
 4302 0a6f 75       		.byte	0x75
 4303 0a70 00       		.sleb128 0
 4304 0a71 00       		.byte	0
 4305 0a72 2A       		.uleb128 0x2a
 4306 0a73 A8000000 		.4byte	.LVL27
 4307 0a77 0E200000 		.4byte	0x200e
 4308 0a7b 860A0000 		.4byte	0xa86
 4309 0a7f 20       		.uleb128 0x20
 4310 0a80 01       		.uleb128 0x1
 4311 0a81 51       		.byte	0x51
 4312 0a82 02       		.uleb128 0x2
 4313 0a83 76       		.byte	0x76
 4314 0a84 00       		.sleb128 0
 4315 0a85 00       		.byte	0
 4316 0a86 2A       		.uleb128 0x2a
ARM GAS  /tmp/cc0h7QKQ.s 			page 132


 4317 0a87 B6000000 		.4byte	.LVL28
 4318 0a8b DE1F0000 		.4byte	0x1fde
 4319 0a8f 9A0A0000 		.4byte	0xa9a
 4320 0a93 20       		.uleb128 0x20
 4321 0a94 01       		.uleb128 0x1
 4322 0a95 50       		.byte	0x50
 4323 0a96 02       		.uleb128 0x2
 4324 0a97 75       		.byte	0x75
 4325 0a98 00       		.sleb128 0
 4326 0a99 00       		.byte	0
 4327 0a9a 2A       		.uleb128 0x2a
 4328 0a9b C4000000 		.4byte	.LVL29
 4329 0a9f 7B200000 		.4byte	0x207b
 4330 0aa3 B90A0000 		.4byte	0xab9
 4331 0aa7 20       		.uleb128 0x20
 4332 0aa8 01       		.uleb128 0x1
 4333 0aa9 52       		.byte	0x52
 4334 0aaa 01       		.uleb128 0x1
 4335 0aab 31       		.byte	0x31
 4336 0aac 20       		.uleb128 0x20
 4337 0aad 01       		.uleb128 0x1
 4338 0aae 51       		.byte	0x51
 4339 0aaf 02       		.uleb128 0x2
 4340 0ab0 91       		.byte	0x91
 4341 0ab1 64       		.sleb128 -28
 4342 0ab2 20       		.uleb128 0x20
 4343 0ab3 01       		.uleb128 0x1
 4344 0ab4 50       		.byte	0x50
 4345 0ab5 02       		.uleb128 0x2
 4346 0ab6 75       		.byte	0x75
 4347 0ab7 00       		.sleb128 0
 4348 0ab8 00       		.byte	0
 4349 0ab9 2A       		.uleb128 0x2a
 4350 0aba D2000000 		.4byte	.LVL32
 4351 0abe 0E200000 		.4byte	0x200e
 4352 0ac2 CD0A0000 		.4byte	0xacd
 4353 0ac6 20       		.uleb128 0x20
 4354 0ac7 01       		.uleb128 0x1
 4355 0ac8 51       		.byte	0x51
 4356 0ac9 02       		.uleb128 0x2
 4357 0aca 76       		.byte	0x76
 4358 0acb 00       		.sleb128 0
 4359 0acc 00       		.byte	0
 4360 0acd 2A       		.uleb128 0x2a
 4361 0ace E0000000 		.4byte	.LVL33
 4362 0ad2 9A200000 		.4byte	0x209a
 4363 0ad6 E70A0000 		.4byte	0xae7
 4364 0ada 20       		.uleb128 0x20
 4365 0adb 01       		.uleb128 0x1
 4366 0adc 51       		.byte	0x51
 4367 0add 02       		.uleb128 0x2
 4368 0ade 91       		.byte	0x91
 4369 0adf 64       		.sleb128 -28
 4370 0ae0 20       		.uleb128 0x20
 4371 0ae1 01       		.uleb128 0x1
 4372 0ae2 50       		.byte	0x50
 4373 0ae3 02       		.uleb128 0x2
ARM GAS  /tmp/cc0h7QKQ.s 			page 133


 4374 0ae4 75       		.byte	0x75
 4375 0ae5 00       		.sleb128 0
 4376 0ae6 00       		.byte	0
 4377 0ae7 1F       		.uleb128 0x1f
 4378 0ae8 F0000000 		.4byte	.LVL36
 4379 0aec 0E200000 		.4byte	0x200e
 4380 0af0 20       		.uleb128 0x20
 4381 0af1 01       		.uleb128 0x1
 4382 0af2 51       		.byte	0x51
 4383 0af3 02       		.uleb128 0x2
 4384 0af4 76       		.byte	0x76
 4385 0af5 00       		.sleb128 0
 4386 0af6 00       		.byte	0
 4387 0af7 00       		.byte	0
 4388 0af8 1E       		.uleb128 0x1e
 4389 0af9 97000000 		.4byte	.LASF117
 4390 0afd 01       		.byte	0x1
 4391 0afe 3801     		.2byte	0x138
 4392 0b00 00000000 		.4byte	.LFB185
 4393 0b04 18000000 		.4byte	.LFE185-.LFB185
 4394 0b08 01       		.uleb128 0x1
 4395 0b09 9C       		.byte	0x9c
 4396 0b0a 300B0000 		.4byte	0xb30
 4397 0b0e 1F       		.uleb128 0x1f
 4398 0b0f 0C000000 		.4byte	.LVL37
 4399 0b13 B4200000 		.4byte	0x20b4
 4400 0b17 20       		.uleb128 0x20
 4401 0b18 01       		.uleb128 0x1
 4402 0b19 52       		.byte	0x52
 4403 0b1a 01       		.uleb128 0x1
 4404 0b1b 34       		.byte	0x34
 4405 0b1c 20       		.uleb128 0x20
 4406 0b1d 01       		.uleb128 0x1
 4407 0b1e 51       		.byte	0x51
 4408 0b1f 05       		.uleb128 0x5
 4409 0b20 03       		.byte	0x3
 4410 0b21 00000000 		.4byte	.LANCHOR1
 4411 0b25 20       		.uleb128 0x20
 4412 0b26 01       		.uleb128 0x1
 4413 0b27 50       		.byte	0x50
 4414 0b28 05       		.uleb128 0x5
 4415 0b29 03       		.byte	0x3
 4416 0b2a 00000000 		.4byte	.LANCHOR0
 4417 0b2e 00       		.byte	0
 4418 0b2f 00       		.byte	0
 4419 0b30 21       		.uleb128 0x21
 4420 0b31 54040000 		.4byte	.LASF118
 4421 0b35 01       		.byte	0x1
 4422 0b36 C7       		.byte	0xc7
 4423 0b37 00000000 		.4byte	.LFB182
 4424 0b3b 18000000 		.4byte	.LFE182-.LFB182
 4425 0b3f 01       		.uleb128 0x1
 4426 0b40 9C       		.byte	0x9c
 4427 0b41 670B0000 		.4byte	0xb67
 4428 0b45 1F       		.uleb128 0x1f
 4429 0b46 0C000000 		.4byte	.LVL38
 4430 0b4a B4200000 		.4byte	0x20b4
ARM GAS  /tmp/cc0h7QKQ.s 			page 134


 4431 0b4e 20       		.uleb128 0x20
 4432 0b4f 01       		.uleb128 0x1
 4433 0b50 52       		.byte	0x52
 4434 0b51 01       		.uleb128 0x1
 4435 0b52 34       		.byte	0x34
 4436 0b53 20       		.uleb128 0x20
 4437 0b54 01       		.uleb128 0x1
 4438 0b55 51       		.byte	0x51
 4439 0b56 05       		.uleb128 0x5
 4440 0b57 03       		.byte	0x3
 4441 0b58 00000000 		.4byte	.LANCHOR1
 4442 0b5c 20       		.uleb128 0x20
 4443 0b5d 01       		.uleb128 0x1
 4444 0b5e 50       		.byte	0x50
 4445 0b5f 05       		.uleb128 0x5
 4446 0b60 03       		.byte	0x3
 4447 0b61 00000000 		.4byte	.LANCHOR0
 4448 0b65 00       		.byte	0
 4449 0b66 00       		.byte	0
 4450 0b67 21       		.uleb128 0x21
 4451 0b68 CA060000 		.4byte	.LASF119
 4452 0b6c 01       		.byte	0x1
 4453 0b6d 55       		.byte	0x55
 4454 0b6e 00000000 		.4byte	.LFB179
 4455 0b72 18000000 		.4byte	.LFE179-.LFB179
 4456 0b76 01       		.uleb128 0x1
 4457 0b77 9C       		.byte	0x9c
 4458 0b78 9E0B0000 		.4byte	0xb9e
 4459 0b7c 1F       		.uleb128 0x1f
 4460 0b7d 0C000000 		.4byte	.LVL39
 4461 0b81 B4200000 		.4byte	0x20b4
 4462 0b85 20       		.uleb128 0x20
 4463 0b86 01       		.uleb128 0x1
 4464 0b87 52       		.byte	0x52
 4465 0b88 01       		.uleb128 0x1
 4466 0b89 34       		.byte	0x34
 4467 0b8a 20       		.uleb128 0x20
 4468 0b8b 01       		.uleb128 0x1
 4469 0b8c 51       		.byte	0x51
 4470 0b8d 05       		.uleb128 0x5
 4471 0b8e 03       		.byte	0x3
 4472 0b8f 00000000 		.4byte	.LANCHOR1
 4473 0b93 20       		.uleb128 0x20
 4474 0b94 01       		.uleb128 0x1
 4475 0b95 50       		.byte	0x50
 4476 0b96 05       		.uleb128 0x5
 4477 0b97 03       		.byte	0x3
 4478 0b98 00000000 		.4byte	.LANCHOR0
 4479 0b9c 00       		.byte	0
 4480 0b9d 00       		.byte	0
 4481 0b9e 21       		.uleb128 0x21
 4482 0b9f 31060000 		.4byte	.LASF120
 4483 0ba3 01       		.byte	0x1
 4484 0ba4 CF       		.byte	0xcf
 4485 0ba5 00000000 		.4byte	.LFB184
 4486 0ba9 78020000 		.4byte	.LFE184-.LFB184
 4487 0bad 01       		.uleb128 0x1
ARM GAS  /tmp/cc0h7QKQ.s 			page 135


 4488 0bae 9C       		.byte	0x9c
 4489 0baf 53160000 		.4byte	0x1653
 4490 0bb3 2B       		.uleb128 0x2b
 4491 0bb4 27060000 		.4byte	.LASF115
 4492 0bb8 01       		.byte	0x1
 4493 0bb9 D0       		.byte	0xd0
 4494 0bba 10010000 		.4byte	0x110
 4495 0bbe EF000000 		.4byte	.LLST2
 4496 0bc2 2C       		.uleb128 0x2c
 4497 0bc3 2C060000 		.4byte	.LASF116
 4498 0bc7 01       		.byte	0x1
 4499 0bc8 D0       		.byte	0xd0
 4500 0bc9 10010000 		.4byte	0x110
 4501 0bcd 02       		.uleb128 0x2
 4502 0bce 91       		.byte	0x91
 4503 0bcf 54       		.sleb128 -44
 4504 0bd0 2D       		.uleb128 0x2d
 4505 0bd1 6900     		.ascii	"i\000"
 4506 0bd3 01       		.byte	0x1
 4507 0bd4 D1       		.byte	0xd1
 4508 0bd5 37000000 		.4byte	0x37
 4509 0bd9 2E010000 		.4byte	.LLST3
 4510 0bdd 2E       		.uleb128 0x2e
 4511 0bde 10070000 		.4byte	0x710
 4512 0be2 14000000 		.4byte	.LBB553
 4513 0be6 02000000 		.4byte	.LBE553-.LBB553
 4514 0bea 01       		.byte	0x1
 4515 0beb D6       		.byte	0xd6
 4516 0bec 230C0000 		.4byte	0xc23
 4517 0bf0 26       		.uleb128 0x26
 4518 0bf1 D7060000 		.4byte	0x6d7
 4519 0bf5 14000000 		.4byte	.LBB554
 4520 0bf9 02000000 		.4byte	.LBE554-.LBB554
 4521 0bfd 10       		.byte	0x10
 4522 0bfe ED01     		.2byte	0x1ed
 4523 0c00 26       		.uleb128 0x26
 4524 0c01 A4060000 		.4byte	0x6a4
 4525 0c05 14000000 		.4byte	.LBB555
 4526 0c09 02000000 		.4byte	.LBE555-.LBB555
 4527 0c0d 0F       		.byte	0xf
 4528 0c0e 7801     		.2byte	0x178
 4529 0c10 27       		.uleb128 0x27
 4530 0c11 94060000 		.4byte	0x694
 4531 0c15 14000000 		.4byte	.LBB556
 4532 0c19 02000000 		.4byte	.LBE556-.LBB556
 4533 0c1d 0B       		.byte	0xb
 4534 0c1e 7501     		.2byte	0x175
 4535 0c20 00       		.byte	0
 4536 0c21 00       		.byte	0
 4537 0c22 00       		.byte	0
 4538 0c23 25       		.uleb128 0x25
 4539 0c24 3B070000 		.4byte	0x73b
 4540 0c28 2C000000 		.4byte	.LBB558
 4541 0c2c 02000000 		.4byte	.LBE558-.LBB558
 4542 0c30 01       		.byte	0x1
 4543 0c31 1C01     		.2byte	0x11c
 4544 0c33 790C0000 		.4byte	0xc79
ARM GAS  /tmp/cc0h7QKQ.s 			page 136


 4545 0c37 26       		.uleb128 0x26
 4546 0c38 E0060000 		.4byte	0x6e0
 4547 0c3c 2C000000 		.4byte	.LBB559
 4548 0c40 02000000 		.4byte	.LBE559-.LBB559
 4549 0c44 10       		.byte	0x10
 4550 0c45 F801     		.2byte	0x1f8
 4551 0c47 28       		.uleb128 0x28
 4552 0c48 2C000000 		.4byte	.LBB560
 4553 0c4c 02000000 		.4byte	.LBE560-.LBB560
 4554 0c50 29       		.uleb128 0x29
 4555 0c51 ED060000 		.4byte	0x6ed
 4556 0c55 26       		.uleb128 0x26
 4557 0c56 AD060000 		.4byte	0x6ad
 4558 0c5a 2C000000 		.4byte	.LBB561
 4559 0c5e 02000000 		.4byte	.LBE561-.LBB561
 4560 0c62 0F       		.byte	0xf
 4561 0c63 8F01     		.2byte	0x18f
 4562 0c65 27       		.uleb128 0x27
 4563 0c66 9C060000 		.4byte	0x69c
 4564 0c6a 2C000000 		.4byte	.LBB562
 4565 0c6e 02000000 		.4byte	.LBE562-.LBB562
 4566 0c72 0B       		.byte	0xb
 4567 0c73 7E01     		.2byte	0x17e
 4568 0c75 00       		.byte	0
 4569 0c76 00       		.byte	0
 4570 0c77 00       		.byte	0
 4571 0c78 00       		.byte	0
 4572 0c79 2E       		.uleb128 0x2e
 4573 0c7a 3B070000 		.4byte	0x73b
 4574 0c7e 3C000000 		.4byte	.LBB564
 4575 0c82 02000000 		.4byte	.LBE564-.LBB564
 4576 0c86 01       		.byte	0x1
 4577 0c87 D6       		.byte	0xd6
 4578 0c88 CE0C0000 		.4byte	0xcce
 4579 0c8c 26       		.uleb128 0x26
 4580 0c8d E0060000 		.4byte	0x6e0
 4581 0c91 3C000000 		.4byte	.LBB565
 4582 0c95 02000000 		.4byte	.LBE565-.LBB565
 4583 0c99 10       		.byte	0x10
 4584 0c9a F801     		.2byte	0x1f8
 4585 0c9c 28       		.uleb128 0x28
 4586 0c9d 3C000000 		.4byte	.LBB566
 4587 0ca1 02000000 		.4byte	.LBE566-.LBB566
 4588 0ca5 29       		.uleb128 0x29
 4589 0ca6 ED060000 		.4byte	0x6ed
 4590 0caa 26       		.uleb128 0x26
 4591 0cab AD060000 		.4byte	0x6ad
 4592 0caf 3C000000 		.4byte	.LBB567
 4593 0cb3 02000000 		.4byte	.LBE567-.LBB567
 4594 0cb7 0F       		.byte	0xf
 4595 0cb8 8F01     		.2byte	0x18f
 4596 0cba 27       		.uleb128 0x27
 4597 0cbb 9C060000 		.4byte	0x69c
 4598 0cbf 3C000000 		.4byte	.LBB568
 4599 0cc3 02000000 		.4byte	.LBE568-.LBB568
 4600 0cc7 0B       		.byte	0xb
 4601 0cc8 7E01     		.2byte	0x17e
ARM GAS  /tmp/cc0h7QKQ.s 			page 137


 4602 0cca 00       		.byte	0
 4603 0ccb 00       		.byte	0
 4604 0ccc 00       		.byte	0
 4605 0ccd 00       		.byte	0
 4606 0cce 2E       		.uleb128 0x2e
 4607 0ccf D7060000 		.4byte	0x6d7
 4608 0cd3 42000000 		.4byte	.LBB570
 4609 0cd7 02000000 		.4byte	.LBE570-.LBB570
 4610 0cdb 01       		.byte	0x1
 4611 0cdc DD       		.byte	0xdd
 4612 0cdd 030D0000 		.4byte	0xd03
 4613 0ce1 26       		.uleb128 0x26
 4614 0ce2 A4060000 		.4byte	0x6a4
 4615 0ce6 42000000 		.4byte	.LBB571
 4616 0cea 02000000 		.4byte	.LBE571-.LBB571
 4617 0cee 0F       		.byte	0xf
 4618 0cef 7801     		.2byte	0x178
 4619 0cf1 27       		.uleb128 0x27
 4620 0cf2 94060000 		.4byte	0x694
 4621 0cf6 42000000 		.4byte	.LBB572
 4622 0cfa 02000000 		.4byte	.LBE572-.LBB572
 4623 0cfe 0B       		.byte	0xb
 4624 0cff 7501     		.2byte	0x175
 4625 0d01 00       		.byte	0
 4626 0d02 00       		.byte	0
 4627 0d03 2E       		.uleb128 0x2e
 4628 0d04 E0060000 		.4byte	0x6e0
 4629 0d08 4A000000 		.4byte	.LBB574
 4630 0d0c 02000000 		.4byte	.LBE574-.LBB574
 4631 0d10 01       		.byte	0x1
 4632 0d11 DF       		.byte	0xdf
 4633 0d12 470D0000 		.4byte	0xd47
 4634 0d16 28       		.uleb128 0x28
 4635 0d17 4A000000 		.4byte	.LBB575
 4636 0d1b 02000000 		.4byte	.LBE575-.LBB575
 4637 0d1f 29       		.uleb128 0x29
 4638 0d20 ED060000 		.4byte	0x6ed
 4639 0d24 26       		.uleb128 0x26
 4640 0d25 AD060000 		.4byte	0x6ad
 4641 0d29 4A000000 		.4byte	.LBB576
 4642 0d2d 02000000 		.4byte	.LBE576-.LBB576
 4643 0d31 0F       		.byte	0xf
 4644 0d32 8F01     		.2byte	0x18f
 4645 0d34 27       		.uleb128 0x27
 4646 0d35 9C060000 		.4byte	0x69c
 4647 0d39 4A000000 		.4byte	.LBB577
 4648 0d3d 02000000 		.4byte	.LBE577-.LBB577
 4649 0d41 0B       		.byte	0xb
 4650 0d42 7E01     		.2byte	0x17e
 4651 0d44 00       		.byte	0
 4652 0d45 00       		.byte	0
 4653 0d46 00       		.byte	0
 4654 0d47 2E       		.uleb128 0x2e
 4655 0d48 10070000 		.4byte	0x710
 4656 0d4c 4C000000 		.4byte	.LBB579
 4657 0d50 02000000 		.4byte	.LBE579-.LBB579
 4658 0d54 01       		.byte	0x1
ARM GAS  /tmp/cc0h7QKQ.s 			page 138


 4659 0d55 E0       		.byte	0xe0
 4660 0d56 8D0D0000 		.4byte	0xd8d
 4661 0d5a 26       		.uleb128 0x26
 4662 0d5b D7060000 		.4byte	0x6d7
 4663 0d5f 4C000000 		.4byte	.LBB580
 4664 0d63 02000000 		.4byte	.LBE580-.LBB580
 4665 0d67 10       		.byte	0x10
 4666 0d68 ED01     		.2byte	0x1ed
 4667 0d6a 26       		.uleb128 0x26
 4668 0d6b A4060000 		.4byte	0x6a4
 4669 0d6f 4C000000 		.4byte	.LBB581
 4670 0d73 02000000 		.4byte	.LBE581-.LBB581
 4671 0d77 0F       		.byte	0xf
 4672 0d78 7801     		.2byte	0x178
 4673 0d7a 27       		.uleb128 0x27
 4674 0d7b 94060000 		.4byte	0x694
 4675 0d7f 4C000000 		.4byte	.LBB582
 4676 0d83 02000000 		.4byte	.LBE582-.LBB582
 4677 0d87 0B       		.byte	0xb
 4678 0d88 7501     		.2byte	0x175
 4679 0d8a 00       		.byte	0
 4680 0d8b 00       		.byte	0
 4681 0d8c 00       		.byte	0
 4682 0d8d 2E       		.uleb128 0x2e
 4683 0d8e 3B070000 		.4byte	0x73b
 4684 0d92 64000000 		.4byte	.LBB584
 4685 0d96 02000000 		.4byte	.LBE584-.LBB584
 4686 0d9a 01       		.byte	0x1
 4687 0d9b E0       		.byte	0xe0
 4688 0d9c E20D0000 		.4byte	0xde2
 4689 0da0 26       		.uleb128 0x26
 4690 0da1 E0060000 		.4byte	0x6e0
 4691 0da5 64000000 		.4byte	.LBB585
 4692 0da9 02000000 		.4byte	.LBE585-.LBB585
 4693 0dad 10       		.byte	0x10
 4694 0dae F801     		.2byte	0x1f8
 4695 0db0 28       		.uleb128 0x28
 4696 0db1 64000000 		.4byte	.LBB586
 4697 0db5 02000000 		.4byte	.LBE586-.LBB586
 4698 0db9 29       		.uleb128 0x29
 4699 0dba ED060000 		.4byte	0x6ed
 4700 0dbe 26       		.uleb128 0x26
 4701 0dbf AD060000 		.4byte	0x6ad
 4702 0dc3 64000000 		.4byte	.LBB587
 4703 0dc7 02000000 		.4byte	.LBE587-.LBB587
 4704 0dcb 0F       		.byte	0xf
 4705 0dcc 8F01     		.2byte	0x18f
 4706 0dce 27       		.uleb128 0x27
 4707 0dcf 9C060000 		.4byte	0x69c
 4708 0dd3 64000000 		.4byte	.LBB588
 4709 0dd7 02000000 		.4byte	.LBE588-.LBB588
 4710 0ddb 0B       		.byte	0xb
 4711 0ddc 7E01     		.2byte	0x17e
 4712 0dde 00       		.byte	0
 4713 0ddf 00       		.byte	0
 4714 0de0 00       		.byte	0
 4715 0de1 00       		.byte	0
ARM GAS  /tmp/cc0h7QKQ.s 			page 139


 4716 0de2 2E       		.uleb128 0x2e
 4717 0de3 10070000 		.4byte	0x710
 4718 0de7 66000000 		.4byte	.LBB590
 4719 0deb 02000000 		.4byte	.LBE590-.LBB590
 4720 0def 01       		.byte	0x1
 4721 0df0 E1       		.byte	0xe1
 4722 0df1 280E0000 		.4byte	0xe28
 4723 0df5 26       		.uleb128 0x26
 4724 0df6 D7060000 		.4byte	0x6d7
 4725 0dfa 66000000 		.4byte	.LBB591
 4726 0dfe 02000000 		.4byte	.LBE591-.LBB591
 4727 0e02 10       		.byte	0x10
 4728 0e03 ED01     		.2byte	0x1ed
 4729 0e05 26       		.uleb128 0x26
 4730 0e06 A4060000 		.4byte	0x6a4
 4731 0e0a 66000000 		.4byte	.LBB592
 4732 0e0e 02000000 		.4byte	.LBE592-.LBB592
 4733 0e12 0F       		.byte	0xf
 4734 0e13 7801     		.2byte	0x178
 4735 0e15 27       		.uleb128 0x27
 4736 0e16 94060000 		.4byte	0x694
 4737 0e1a 66000000 		.4byte	.LBB593
 4738 0e1e 02000000 		.4byte	.LBE593-.LBB593
 4739 0e22 0B       		.byte	0xb
 4740 0e23 7501     		.2byte	0x175
 4741 0e25 00       		.byte	0
 4742 0e26 00       		.byte	0
 4743 0e27 00       		.byte	0
 4744 0e28 2E       		.uleb128 0x2e
 4745 0e29 3B070000 		.4byte	0x73b
 4746 0e2d 7C000000 		.4byte	.LBB595
 4747 0e31 02000000 		.4byte	.LBE595-.LBB595
 4748 0e35 01       		.byte	0x1
 4749 0e36 E1       		.byte	0xe1
 4750 0e37 7D0E0000 		.4byte	0xe7d
 4751 0e3b 26       		.uleb128 0x26
 4752 0e3c E0060000 		.4byte	0x6e0
 4753 0e40 7C000000 		.4byte	.LBB596
 4754 0e44 02000000 		.4byte	.LBE596-.LBB596
 4755 0e48 10       		.byte	0x10
 4756 0e49 F801     		.2byte	0x1f8
 4757 0e4b 28       		.uleb128 0x28
 4758 0e4c 7C000000 		.4byte	.LBB597
 4759 0e50 02000000 		.4byte	.LBE597-.LBB597
 4760 0e54 29       		.uleb128 0x29
 4761 0e55 ED060000 		.4byte	0x6ed
 4762 0e59 26       		.uleb128 0x26
 4763 0e5a AD060000 		.4byte	0x6ad
 4764 0e5e 7C000000 		.4byte	.LBB598
 4765 0e62 02000000 		.4byte	.LBE598-.LBB598
 4766 0e66 0F       		.byte	0xf
 4767 0e67 8F01     		.2byte	0x18f
 4768 0e69 27       		.uleb128 0x27
 4769 0e6a 9C060000 		.4byte	0x69c
 4770 0e6e 7C000000 		.4byte	.LBB599
 4771 0e72 02000000 		.4byte	.LBE599-.LBB599
 4772 0e76 0B       		.byte	0xb
ARM GAS  /tmp/cc0h7QKQ.s 			page 140


 4773 0e77 7E01     		.2byte	0x17e
 4774 0e79 00       		.byte	0
 4775 0e7a 00       		.byte	0
 4776 0e7b 00       		.byte	0
 4777 0e7c 00       		.byte	0
 4778 0e7d 2E       		.uleb128 0x2e
 4779 0e7e 10070000 		.4byte	0x710
 4780 0e82 7E000000 		.4byte	.LBB601
 4781 0e86 02000000 		.4byte	.LBE601-.LBB601
 4782 0e8a 01       		.byte	0x1
 4783 0e8b E2       		.byte	0xe2
 4784 0e8c C30E0000 		.4byte	0xec3
 4785 0e90 26       		.uleb128 0x26
 4786 0e91 D7060000 		.4byte	0x6d7
 4787 0e95 7E000000 		.4byte	.LBB602
 4788 0e99 02000000 		.4byte	.LBE602-.LBB602
 4789 0e9d 10       		.byte	0x10
 4790 0e9e ED01     		.2byte	0x1ed
 4791 0ea0 26       		.uleb128 0x26
 4792 0ea1 A4060000 		.4byte	0x6a4
 4793 0ea5 7E000000 		.4byte	.LBB603
 4794 0ea9 02000000 		.4byte	.LBE603-.LBB603
 4795 0ead 0F       		.byte	0xf
 4796 0eae 7801     		.2byte	0x178
 4797 0eb0 27       		.uleb128 0x27
 4798 0eb1 94060000 		.4byte	0x694
 4799 0eb5 7E000000 		.4byte	.LBB604
 4800 0eb9 02000000 		.4byte	.LBE604-.LBB604
 4801 0ebd 0B       		.byte	0xb
 4802 0ebe 7501     		.2byte	0x175
 4803 0ec0 00       		.byte	0
 4804 0ec1 00       		.byte	0
 4805 0ec2 00       		.byte	0
 4806 0ec3 2E       		.uleb128 0x2e
 4807 0ec4 3B070000 		.4byte	0x73b
 4808 0ec8 9A000000 		.4byte	.LBB606
 4809 0ecc 02000000 		.4byte	.LBE606-.LBB606
 4810 0ed0 01       		.byte	0x1
 4811 0ed1 E2       		.byte	0xe2
 4812 0ed2 180F0000 		.4byte	0xf18
 4813 0ed6 26       		.uleb128 0x26
 4814 0ed7 E0060000 		.4byte	0x6e0
 4815 0edb 9A000000 		.4byte	.LBB607
 4816 0edf 02000000 		.4byte	.LBE607-.LBB607
 4817 0ee3 10       		.byte	0x10
 4818 0ee4 F801     		.2byte	0x1f8
 4819 0ee6 28       		.uleb128 0x28
 4820 0ee7 9A000000 		.4byte	.LBB608
 4821 0eeb 02000000 		.4byte	.LBE608-.LBB608
 4822 0eef 29       		.uleb128 0x29
 4823 0ef0 ED060000 		.4byte	0x6ed
 4824 0ef4 26       		.uleb128 0x26
 4825 0ef5 AD060000 		.4byte	0x6ad
 4826 0ef9 9A000000 		.4byte	.LBB609
 4827 0efd 02000000 		.4byte	.LBE609-.LBB609
 4828 0f01 0F       		.byte	0xf
 4829 0f02 8F01     		.2byte	0x18f
ARM GAS  /tmp/cc0h7QKQ.s 			page 141


 4830 0f04 27       		.uleb128 0x27
 4831 0f05 9C060000 		.4byte	0x69c
 4832 0f09 9A000000 		.4byte	.LBB610
 4833 0f0d 02000000 		.4byte	.LBE610-.LBB610
 4834 0f11 0B       		.byte	0xb
 4835 0f12 7E01     		.2byte	0x17e
 4836 0f14 00       		.byte	0
 4837 0f15 00       		.byte	0
 4838 0f16 00       		.byte	0
 4839 0f17 00       		.byte	0
 4840 0f18 2E       		.uleb128 0x2e
 4841 0f19 10070000 		.4byte	0x710
 4842 0f1d 9C000000 		.4byte	.LBB612
 4843 0f21 02000000 		.4byte	.LBE612-.LBB612
 4844 0f25 01       		.byte	0x1
 4845 0f26 E3       		.byte	0xe3
 4846 0f27 5E0F0000 		.4byte	0xf5e
 4847 0f2b 26       		.uleb128 0x26
 4848 0f2c D7060000 		.4byte	0x6d7
 4849 0f30 9C000000 		.4byte	.LBB613
 4850 0f34 02000000 		.4byte	.LBE613-.LBB613
 4851 0f38 10       		.byte	0x10
 4852 0f39 ED01     		.2byte	0x1ed
 4853 0f3b 26       		.uleb128 0x26
 4854 0f3c A4060000 		.4byte	0x6a4
 4855 0f40 9C000000 		.4byte	.LBB614
 4856 0f44 02000000 		.4byte	.LBE614-.LBB614
 4857 0f48 0F       		.byte	0xf
 4858 0f49 7801     		.2byte	0x178
 4859 0f4b 27       		.uleb128 0x27
 4860 0f4c 94060000 		.4byte	0x694
 4861 0f50 9C000000 		.4byte	.LBB615
 4862 0f54 02000000 		.4byte	.LBE615-.LBB615
 4863 0f58 0B       		.byte	0xb
 4864 0f59 7501     		.2byte	0x175
 4865 0f5b 00       		.byte	0
 4866 0f5c 00       		.byte	0
 4867 0f5d 00       		.byte	0
 4868 0f5e 2E       		.uleb128 0x2e
 4869 0f5f 3B070000 		.4byte	0x73b
 4870 0f63 B8000000 		.4byte	.LBB617
 4871 0f67 02000000 		.4byte	.LBE617-.LBB617
 4872 0f6b 01       		.byte	0x1
 4873 0f6c E3       		.byte	0xe3
 4874 0f6d B30F0000 		.4byte	0xfb3
 4875 0f71 26       		.uleb128 0x26
 4876 0f72 E0060000 		.4byte	0x6e0
 4877 0f76 B8000000 		.4byte	.LBB618
 4878 0f7a 02000000 		.4byte	.LBE618-.LBB618
 4879 0f7e 10       		.byte	0x10
 4880 0f7f F801     		.2byte	0x1f8
 4881 0f81 28       		.uleb128 0x28
 4882 0f82 B8000000 		.4byte	.LBB619
 4883 0f86 02000000 		.4byte	.LBE619-.LBB619
 4884 0f8a 29       		.uleb128 0x29
 4885 0f8b ED060000 		.4byte	0x6ed
 4886 0f8f 26       		.uleb128 0x26
ARM GAS  /tmp/cc0h7QKQ.s 			page 142


 4887 0f90 AD060000 		.4byte	0x6ad
 4888 0f94 B8000000 		.4byte	.LBB620
 4889 0f98 02000000 		.4byte	.LBE620-.LBB620
 4890 0f9c 0F       		.byte	0xf
 4891 0f9d 8F01     		.2byte	0x18f
 4892 0f9f 27       		.uleb128 0x27
 4893 0fa0 9C060000 		.4byte	0x69c
 4894 0fa4 B8000000 		.4byte	.LBB621
 4895 0fa8 02000000 		.4byte	.LBE621-.LBB621
 4896 0fac 0B       		.byte	0xb
 4897 0fad 7E01     		.2byte	0x17e
 4898 0faf 00       		.byte	0
 4899 0fb0 00       		.byte	0
 4900 0fb1 00       		.byte	0
 4901 0fb2 00       		.byte	0
 4902 0fb3 2E       		.uleb128 0x2e
 4903 0fb4 D7060000 		.4byte	0x6d7
 4904 0fb8 C6000000 		.4byte	.LBB623
 4905 0fbc 02000000 		.4byte	.LBE623-.LBB623
 4906 0fc0 01       		.byte	0x1
 4907 0fc1 EB       		.byte	0xeb
 4908 0fc2 E80F0000 		.4byte	0xfe8
 4909 0fc6 26       		.uleb128 0x26
 4910 0fc7 A4060000 		.4byte	0x6a4
 4911 0fcb C6000000 		.4byte	.LBB624
 4912 0fcf 02000000 		.4byte	.LBE624-.LBB624
 4913 0fd3 0F       		.byte	0xf
 4914 0fd4 7801     		.2byte	0x178
 4915 0fd6 27       		.uleb128 0x27
 4916 0fd7 94060000 		.4byte	0x694
 4917 0fdb C6000000 		.4byte	.LBB625
 4918 0fdf 02000000 		.4byte	.LBE625-.LBB625
 4919 0fe3 0B       		.byte	0xb
 4920 0fe4 7501     		.2byte	0x175
 4921 0fe6 00       		.byte	0
 4922 0fe7 00       		.byte	0
 4923 0fe8 2E       		.uleb128 0x2e
 4924 0fe9 E0060000 		.4byte	0x6e0
 4925 0fed D0000000 		.4byte	.LBB627
 4926 0ff1 02000000 		.4byte	.LBE627-.LBB627
 4927 0ff5 01       		.byte	0x1
 4928 0ff6 ED       		.byte	0xed
 4929 0ff7 2C100000 		.4byte	0x102c
 4930 0ffb 28       		.uleb128 0x28
 4931 0ffc D0000000 		.4byte	.LBB628
 4932 1000 02000000 		.4byte	.LBE628-.LBB628
 4933 1004 29       		.uleb128 0x29
 4934 1005 ED060000 		.4byte	0x6ed
 4935 1009 26       		.uleb128 0x26
 4936 100a AD060000 		.4byte	0x6ad
 4937 100e D0000000 		.4byte	.LBB629
 4938 1012 02000000 		.4byte	.LBE629-.LBB629
 4939 1016 0F       		.byte	0xf
 4940 1017 8F01     		.2byte	0x18f
 4941 1019 27       		.uleb128 0x27
 4942 101a 9C060000 		.4byte	0x69c
 4943 101e D0000000 		.4byte	.LBB630
ARM GAS  /tmp/cc0h7QKQ.s 			page 143


 4944 1022 02000000 		.4byte	.LBE630-.LBB630
 4945 1026 0B       		.byte	0xb
 4946 1027 7E01     		.2byte	0x17e
 4947 1029 00       		.byte	0
 4948 102a 00       		.byte	0
 4949 102b 00       		.byte	0
 4950 102c 2E       		.uleb128 0x2e
 4951 102d D7060000 		.4byte	0x6d7
 4952 1031 EC000000 		.4byte	.LBB632
 4953 1035 02000000 		.4byte	.LBE632-.LBB632
 4954 1039 01       		.byte	0x1
 4955 103a F0       		.byte	0xf0
 4956 103b 61100000 		.4byte	0x1061
 4957 103f 26       		.uleb128 0x26
 4958 1040 A4060000 		.4byte	0x6a4
 4959 1044 EC000000 		.4byte	.LBB633
 4960 1048 02000000 		.4byte	.LBE633-.LBB633
 4961 104c 0F       		.byte	0xf
 4962 104d 7801     		.2byte	0x178
 4963 104f 27       		.uleb128 0x27
 4964 1050 94060000 		.4byte	0x694
 4965 1054 EC000000 		.4byte	.LBB634
 4966 1058 02000000 		.4byte	.LBE634-.LBB634
 4967 105c 0B       		.byte	0xb
 4968 105d 7501     		.2byte	0x175
 4969 105f 00       		.byte	0
 4970 1060 00       		.byte	0
 4971 1061 2E       		.uleb128 0x2e
 4972 1062 E0060000 		.4byte	0x6e0
 4973 1066 F6000000 		.4byte	.LBB636
 4974 106a 02000000 		.4byte	.LBE636-.LBB636
 4975 106e 01       		.byte	0x1
 4976 106f F2       		.byte	0xf2
 4977 1070 A5100000 		.4byte	0x10a5
 4978 1074 28       		.uleb128 0x28
 4979 1075 F6000000 		.4byte	.LBB637
 4980 1079 02000000 		.4byte	.LBE637-.LBB637
 4981 107d 29       		.uleb128 0x29
 4982 107e ED060000 		.4byte	0x6ed
 4983 1082 26       		.uleb128 0x26
 4984 1083 AD060000 		.4byte	0x6ad
 4985 1087 F6000000 		.4byte	.LBB638
 4986 108b 02000000 		.4byte	.LBE638-.LBB638
 4987 108f 0F       		.byte	0xf
 4988 1090 8F01     		.2byte	0x18f
 4989 1092 27       		.uleb128 0x27
 4990 1093 9C060000 		.4byte	0x69c
 4991 1097 F6000000 		.4byte	.LBB639
 4992 109b 02000000 		.4byte	.LBE639-.LBB639
 4993 109f 0B       		.byte	0xb
 4994 10a0 7E01     		.2byte	0x17e
 4995 10a2 00       		.byte	0
 4996 10a3 00       		.byte	0
 4997 10a4 00       		.byte	0
 4998 10a5 2E       		.uleb128 0x2e
 4999 10a6 10070000 		.4byte	0x710
 5000 10aa 10010000 		.4byte	.LBB641
ARM GAS  /tmp/cc0h7QKQ.s 			page 144


 5001 10ae 02000000 		.4byte	.LBE641-.LBB641
 5002 10b2 01       		.byte	0x1
 5003 10b3 FA       		.byte	0xfa
 5004 10b4 EB100000 		.4byte	0x10eb
 5005 10b8 26       		.uleb128 0x26
 5006 10b9 D7060000 		.4byte	0x6d7
 5007 10bd 10010000 		.4byte	.LBB642
 5008 10c1 02000000 		.4byte	.LBE642-.LBB642
 5009 10c5 10       		.byte	0x10
 5010 10c6 ED01     		.2byte	0x1ed
 5011 10c8 26       		.uleb128 0x26
 5012 10c9 A4060000 		.4byte	0x6a4
 5013 10cd 10010000 		.4byte	.LBB643
 5014 10d1 02000000 		.4byte	.LBE643-.LBB643
 5015 10d5 0F       		.byte	0xf
 5016 10d6 7801     		.2byte	0x178
 5017 10d8 27       		.uleb128 0x27
 5018 10d9 94060000 		.4byte	0x694
 5019 10dd 10010000 		.4byte	.LBB644
 5020 10e1 02000000 		.4byte	.LBE644-.LBB644
 5021 10e5 0B       		.byte	0xb
 5022 10e6 7501     		.2byte	0x175
 5023 10e8 00       		.byte	0
 5024 10e9 00       		.byte	0
 5025 10ea 00       		.byte	0
 5026 10eb 2E       		.uleb128 0x2e
 5027 10ec 3B070000 		.4byte	0x73b
 5028 10f0 26010000 		.4byte	.LBB646
 5029 10f4 02000000 		.4byte	.LBE646-.LBB646
 5030 10f8 01       		.byte	0x1
 5031 10f9 FA       		.byte	0xfa
 5032 10fa 40110000 		.4byte	0x1140
 5033 10fe 26       		.uleb128 0x26
 5034 10ff E0060000 		.4byte	0x6e0
 5035 1103 26010000 		.4byte	.LBB647
 5036 1107 02000000 		.4byte	.LBE647-.LBB647
 5037 110b 10       		.byte	0x10
 5038 110c F801     		.2byte	0x1f8
 5039 110e 28       		.uleb128 0x28
 5040 110f 26010000 		.4byte	.LBB648
 5041 1113 02000000 		.4byte	.LBE648-.LBB648
 5042 1117 29       		.uleb128 0x29
 5043 1118 ED060000 		.4byte	0x6ed
 5044 111c 26       		.uleb128 0x26
 5045 111d AD060000 		.4byte	0x6ad
 5046 1121 26010000 		.4byte	.LBB649
 5047 1125 02000000 		.4byte	.LBE649-.LBB649
 5048 1129 0F       		.byte	0xf
 5049 112a 8F01     		.2byte	0x18f
 5050 112c 27       		.uleb128 0x27
 5051 112d 9C060000 		.4byte	0x69c
 5052 1131 26010000 		.4byte	.LBB650
 5053 1135 02000000 		.4byte	.LBE650-.LBB650
 5054 1139 0B       		.byte	0xb
 5055 113a 7E01     		.2byte	0x17e
 5056 113c 00       		.byte	0
 5057 113d 00       		.byte	0
ARM GAS  /tmp/cc0h7QKQ.s 			page 145


 5058 113e 00       		.byte	0
 5059 113f 00       		.byte	0
 5060 1140 2E       		.uleb128 0x2e
 5061 1141 10070000 		.4byte	0x710
 5062 1145 28010000 		.4byte	.LBB652
 5063 1149 02000000 		.4byte	.LBE652-.LBB652
 5064 114d 01       		.byte	0x1
 5065 114e FB       		.byte	0xfb
 5066 114f 86110000 		.4byte	0x1186
 5067 1153 26       		.uleb128 0x26
 5068 1154 D7060000 		.4byte	0x6d7
 5069 1158 28010000 		.4byte	.LBB653
 5070 115c 02000000 		.4byte	.LBE653-.LBB653
 5071 1160 10       		.byte	0x10
 5072 1161 ED01     		.2byte	0x1ed
 5073 1163 26       		.uleb128 0x26
 5074 1164 A4060000 		.4byte	0x6a4
 5075 1168 28010000 		.4byte	.LBB654
 5076 116c 02000000 		.4byte	.LBE654-.LBB654
 5077 1170 0F       		.byte	0xf
 5078 1171 7801     		.2byte	0x178
 5079 1173 27       		.uleb128 0x27
 5080 1174 94060000 		.4byte	0x694
 5081 1178 28010000 		.4byte	.LBB655
 5082 117c 02000000 		.4byte	.LBE655-.LBB655
 5083 1180 0B       		.byte	0xb
 5084 1181 7501     		.2byte	0x175
 5085 1183 00       		.byte	0
 5086 1184 00       		.byte	0
 5087 1185 00       		.byte	0
 5088 1186 2E       		.uleb128 0x2e
 5089 1187 3B070000 		.4byte	0x73b
 5090 118b 40010000 		.4byte	.LBB657
 5091 118f 02000000 		.4byte	.LBE657-.LBB657
 5092 1193 01       		.byte	0x1
 5093 1194 FB       		.byte	0xfb
 5094 1195 DB110000 		.4byte	0x11db
 5095 1199 26       		.uleb128 0x26
 5096 119a E0060000 		.4byte	0x6e0
 5097 119e 40010000 		.4byte	.LBB658
 5098 11a2 02000000 		.4byte	.LBE658-.LBB658
 5099 11a6 10       		.byte	0x10
 5100 11a7 F801     		.2byte	0x1f8
 5101 11a9 28       		.uleb128 0x28
 5102 11aa 40010000 		.4byte	.LBB659
 5103 11ae 02000000 		.4byte	.LBE659-.LBB659
 5104 11b2 29       		.uleb128 0x29
 5105 11b3 ED060000 		.4byte	0x6ed
 5106 11b7 26       		.uleb128 0x26
 5107 11b8 AD060000 		.4byte	0x6ad
 5108 11bc 40010000 		.4byte	.LBB660
 5109 11c0 02000000 		.4byte	.LBE660-.LBB660
 5110 11c4 0F       		.byte	0xf
 5111 11c5 8F01     		.2byte	0x18f
 5112 11c7 27       		.uleb128 0x27
 5113 11c8 9C060000 		.4byte	0x69c
 5114 11cc 40010000 		.4byte	.LBB661
ARM GAS  /tmp/cc0h7QKQ.s 			page 146


 5115 11d0 02000000 		.4byte	.LBE661-.LBB661
 5116 11d4 0B       		.byte	0xb
 5117 11d5 7E01     		.2byte	0x17e
 5118 11d7 00       		.byte	0
 5119 11d8 00       		.byte	0
 5120 11d9 00       		.byte	0
 5121 11da 00       		.byte	0
 5122 11db 2E       		.uleb128 0x2e
 5123 11dc 10070000 		.4byte	0x710
 5124 11e0 42010000 		.4byte	.LBB663
 5125 11e4 02000000 		.4byte	.LBE663-.LBB663
 5126 11e8 01       		.byte	0x1
 5127 11e9 FC       		.byte	0xfc
 5128 11ea 21120000 		.4byte	0x1221
 5129 11ee 26       		.uleb128 0x26
 5130 11ef D7060000 		.4byte	0x6d7
 5131 11f3 42010000 		.4byte	.LBB664
 5132 11f7 02000000 		.4byte	.LBE664-.LBB664
 5133 11fb 10       		.byte	0x10
 5134 11fc ED01     		.2byte	0x1ed
 5135 11fe 26       		.uleb128 0x26
 5136 11ff A4060000 		.4byte	0x6a4
 5137 1203 42010000 		.4byte	.LBB665
 5138 1207 02000000 		.4byte	.LBE665-.LBB665
 5139 120b 0F       		.byte	0xf
 5140 120c 7801     		.2byte	0x178
 5141 120e 27       		.uleb128 0x27
 5142 120f 94060000 		.4byte	0x694
 5143 1213 42010000 		.4byte	.LBB666
 5144 1217 02000000 		.4byte	.LBE666-.LBB666
 5145 121b 0B       		.byte	0xb
 5146 121c 7501     		.2byte	0x175
 5147 121e 00       		.byte	0
 5148 121f 00       		.byte	0
 5149 1220 00       		.byte	0
 5150 1221 2E       		.uleb128 0x2e
 5151 1222 3B070000 		.4byte	0x73b
 5152 1226 5C010000 		.4byte	.LBB668
 5153 122a 02000000 		.4byte	.LBE668-.LBB668
 5154 122e 01       		.byte	0x1
 5155 122f FC       		.byte	0xfc
 5156 1230 76120000 		.4byte	0x1276
 5157 1234 26       		.uleb128 0x26
 5158 1235 E0060000 		.4byte	0x6e0
 5159 1239 5C010000 		.4byte	.LBB669
 5160 123d 02000000 		.4byte	.LBE669-.LBB669
 5161 1241 10       		.byte	0x10
 5162 1242 F801     		.2byte	0x1f8
 5163 1244 28       		.uleb128 0x28
 5164 1245 5C010000 		.4byte	.LBB670
 5165 1249 02000000 		.4byte	.LBE670-.LBB670
 5166 124d 29       		.uleb128 0x29
 5167 124e ED060000 		.4byte	0x6ed
 5168 1252 26       		.uleb128 0x26
 5169 1253 AD060000 		.4byte	0x6ad
 5170 1257 5C010000 		.4byte	.LBB671
 5171 125b 02000000 		.4byte	.LBE671-.LBB671
ARM GAS  /tmp/cc0h7QKQ.s 			page 147


 5172 125f 0F       		.byte	0xf
 5173 1260 8F01     		.2byte	0x18f
 5174 1262 27       		.uleb128 0x27
 5175 1263 9C060000 		.4byte	0x69c
 5176 1267 5C010000 		.4byte	.LBB672
 5177 126b 02000000 		.4byte	.LBE672-.LBB672
 5178 126f 0B       		.byte	0xb
 5179 1270 7E01     		.2byte	0x17e
 5180 1272 00       		.byte	0
 5181 1273 00       		.byte	0
 5182 1274 00       		.byte	0
 5183 1275 00       		.byte	0
 5184 1276 25       		.uleb128 0x25
 5185 1277 D7060000 		.4byte	0x6d7
 5186 127b 62010000 		.4byte	.LBB674
 5187 127f 02000000 		.4byte	.LBE674-.LBB674
 5188 1283 01       		.byte	0x1
 5189 1284 0401     		.2byte	0x104
 5190 1286 AC120000 		.4byte	0x12ac
 5191 128a 26       		.uleb128 0x26
 5192 128b A4060000 		.4byte	0x6a4
 5193 128f 62010000 		.4byte	.LBB675
 5194 1293 02000000 		.4byte	.LBE675-.LBB675
 5195 1297 0F       		.byte	0xf
 5196 1298 7801     		.2byte	0x178
 5197 129a 27       		.uleb128 0x27
 5198 129b 94060000 		.4byte	0x694
 5199 129f 62010000 		.4byte	.LBB676
 5200 12a3 02000000 		.4byte	.LBE676-.LBB676
 5201 12a7 0B       		.byte	0xb
 5202 12a8 7501     		.2byte	0x175
 5203 12aa 00       		.byte	0
 5204 12ab 00       		.byte	0
 5205 12ac 25       		.uleb128 0x25
 5206 12ad E0060000 		.4byte	0x6e0
 5207 12b1 6C010000 		.4byte	.LBB678
 5208 12b5 02000000 		.4byte	.LBE678-.LBB678
 5209 12b9 01       		.byte	0x1
 5210 12ba 0601     		.2byte	0x106
 5211 12bc F1120000 		.4byte	0x12f1
 5212 12c0 28       		.uleb128 0x28
 5213 12c1 6C010000 		.4byte	.LBB679
 5214 12c5 02000000 		.4byte	.LBE679-.LBB679
 5215 12c9 29       		.uleb128 0x29
 5216 12ca ED060000 		.4byte	0x6ed
 5217 12ce 26       		.uleb128 0x26
 5218 12cf AD060000 		.4byte	0x6ad
 5219 12d3 6C010000 		.4byte	.LBB680
 5220 12d7 02000000 		.4byte	.LBE680-.LBB680
 5221 12db 0F       		.byte	0xf
 5222 12dc 8F01     		.2byte	0x18f
 5223 12de 27       		.uleb128 0x27
 5224 12df 9C060000 		.4byte	0x69c
 5225 12e3 6C010000 		.4byte	.LBB681
 5226 12e7 02000000 		.4byte	.LBE681-.LBB681
 5227 12eb 0B       		.byte	0xb
 5228 12ec 7E01     		.2byte	0x17e
ARM GAS  /tmp/cc0h7QKQ.s 			page 148


 5229 12ee 00       		.byte	0
 5230 12ef 00       		.byte	0
 5231 12f0 00       		.byte	0
 5232 12f1 25       		.uleb128 0x25
 5233 12f2 10070000 		.4byte	0x710
 5234 12f6 E2010000 		.4byte	.LBB683
 5235 12fa 02000000 		.4byte	.LBE683-.LBB683
 5236 12fe 01       		.byte	0x1
 5237 12ff 1B01     		.2byte	0x11b
 5238 1301 38130000 		.4byte	0x1338
 5239 1305 26       		.uleb128 0x26
 5240 1306 D7060000 		.4byte	0x6d7
 5241 130a E2010000 		.4byte	.LBB684
 5242 130e 02000000 		.4byte	.LBE684-.LBB684
 5243 1312 10       		.byte	0x10
 5244 1313 ED01     		.2byte	0x1ed
 5245 1315 26       		.uleb128 0x26
 5246 1316 A4060000 		.4byte	0x6a4
 5247 131a E2010000 		.4byte	.LBB685
 5248 131e 02000000 		.4byte	.LBE685-.LBB685
 5249 1322 0F       		.byte	0xf
 5250 1323 7801     		.2byte	0x178
 5251 1325 27       		.uleb128 0x27
 5252 1326 94060000 		.4byte	0x694
 5253 132a E2010000 		.4byte	.LBB686
 5254 132e 02000000 		.4byte	.LBE686-.LBB686
 5255 1332 0B       		.byte	0xb
 5256 1333 7501     		.2byte	0x175
 5257 1335 00       		.byte	0
 5258 1336 00       		.byte	0
 5259 1337 00       		.byte	0
 5260 1338 25       		.uleb128 0x25
 5261 1339 3B070000 		.4byte	0x73b
 5262 133d FA010000 		.4byte	.LBB688
 5263 1341 02000000 		.4byte	.LBE688-.LBB688
 5264 1345 01       		.byte	0x1
 5265 1346 1B01     		.2byte	0x11b
 5266 1348 8E130000 		.4byte	0x138e
 5267 134c 26       		.uleb128 0x26
 5268 134d E0060000 		.4byte	0x6e0
 5269 1351 FA010000 		.4byte	.LBB689
 5270 1355 02000000 		.4byte	.LBE689-.LBB689
 5271 1359 10       		.byte	0x10
 5272 135a F801     		.2byte	0x1f8
 5273 135c 28       		.uleb128 0x28
 5274 135d FA010000 		.4byte	.LBB690
 5275 1361 02000000 		.4byte	.LBE690-.LBB690
 5276 1365 29       		.uleb128 0x29
 5277 1366 ED060000 		.4byte	0x6ed
 5278 136a 26       		.uleb128 0x26
 5279 136b AD060000 		.4byte	0x6ad
 5280 136f FA010000 		.4byte	.LBB691
 5281 1373 02000000 		.4byte	.LBE691-.LBB691
 5282 1377 0F       		.byte	0xf
 5283 1378 8F01     		.2byte	0x18f
 5284 137a 27       		.uleb128 0x27
 5285 137b 9C060000 		.4byte	0x69c
ARM GAS  /tmp/cc0h7QKQ.s 			page 149


 5286 137f FA010000 		.4byte	.LBB692
 5287 1383 02000000 		.4byte	.LBE692-.LBB692
 5288 1387 0B       		.byte	0xb
 5289 1388 7E01     		.2byte	0x17e
 5290 138a 00       		.byte	0
 5291 138b 00       		.byte	0
 5292 138c 00       		.byte	0
 5293 138d 00       		.byte	0
 5294 138e 25       		.uleb128 0x25
 5295 138f 10070000 		.4byte	0x710
 5296 1393 FC010000 		.4byte	.LBB694
 5297 1397 02000000 		.4byte	.LBE694-.LBB694
 5298 139b 01       		.byte	0x1
 5299 139c 1C01     		.2byte	0x11c
 5300 139e D5130000 		.4byte	0x13d5
 5301 13a2 26       		.uleb128 0x26
 5302 13a3 D7060000 		.4byte	0x6d7
 5303 13a7 FC010000 		.4byte	.LBB695
 5304 13ab 02000000 		.4byte	.LBE695-.LBB695
 5305 13af 10       		.byte	0x10
 5306 13b0 ED01     		.2byte	0x1ed
 5307 13b2 26       		.uleb128 0x26
 5308 13b3 A4060000 		.4byte	0x6a4
 5309 13b7 FC010000 		.4byte	.LBB696
 5310 13bb 02000000 		.4byte	.LBE696-.LBB696
 5311 13bf 0F       		.byte	0xf
 5312 13c0 7801     		.2byte	0x178
 5313 13c2 27       		.uleb128 0x27
 5314 13c3 94060000 		.4byte	0x694
 5315 13c7 FC010000 		.4byte	.LBB697
 5316 13cb 02000000 		.4byte	.LBE697-.LBB697
 5317 13cf 0B       		.byte	0xb
 5318 13d0 7501     		.2byte	0x175
 5319 13d2 00       		.byte	0
 5320 13d3 00       		.byte	0
 5321 13d4 00       		.byte	0
 5322 13d5 25       		.uleb128 0x25
 5323 13d6 3B070000 		.4byte	0x73b
 5324 13da 12020000 		.4byte	.LBB699
 5325 13de 02000000 		.4byte	.LBE699-.LBB699
 5326 13e2 01       		.byte	0x1
 5327 13e3 1C01     		.2byte	0x11c
 5328 13e5 2B140000 		.4byte	0x142b
 5329 13e9 26       		.uleb128 0x26
 5330 13ea E0060000 		.4byte	0x6e0
 5331 13ee 12020000 		.4byte	.LBB700
 5332 13f2 02000000 		.4byte	.LBE700-.LBB700
 5333 13f6 10       		.byte	0x10
 5334 13f7 F801     		.2byte	0x1f8
 5335 13f9 28       		.uleb128 0x28
 5336 13fa 12020000 		.4byte	.LBB701
 5337 13fe 02000000 		.4byte	.LBE701-.LBB701
 5338 1402 29       		.uleb128 0x29
 5339 1403 ED060000 		.4byte	0x6ed
 5340 1407 26       		.uleb128 0x26
 5341 1408 AD060000 		.4byte	0x6ad
 5342 140c 12020000 		.4byte	.LBB702
ARM GAS  /tmp/cc0h7QKQ.s 			page 150


 5343 1410 02000000 		.4byte	.LBE702-.LBB702
 5344 1414 0F       		.byte	0xf
 5345 1415 8F01     		.2byte	0x18f
 5346 1417 27       		.uleb128 0x27
 5347 1418 9C060000 		.4byte	0x69c
 5348 141c 12020000 		.4byte	.LBB703
 5349 1420 02000000 		.4byte	.LBE703-.LBB703
 5350 1424 0B       		.byte	0xb
 5351 1425 7E01     		.2byte	0x17e
 5352 1427 00       		.byte	0
 5353 1428 00       		.byte	0
 5354 1429 00       		.byte	0
 5355 142a 00       		.byte	0
 5356 142b 2A       		.uleb128 0x2a
 5357 142c 28000000 		.4byte	.LVL41
 5358 1430 0E200000 		.4byte	0x200e
 5359 1434 42140000 		.4byte	0x1442
 5360 1438 20       		.uleb128 0x20
 5361 1439 01       		.uleb128 0x1
 5362 143a 51       		.byte	0x51
 5363 143b 05       		.uleb128 0x5
 5364 143c 03       		.byte	0x3
 5365 143d 18000000 		.4byte	.LC15
 5366 1441 00       		.byte	0
 5367 1442 2A       		.uleb128 0x2a
 5368 1443 4A000000 		.4byte	.LVL44
 5369 1447 CF200000 		.4byte	0x20cf
 5370 144b 56140000 		.4byte	0x1456
 5371 144f 20       		.uleb128 0x20
 5372 1450 01       		.uleb128 0x1
 5373 1451 50       		.byte	0x50
 5374 1452 02       		.uleb128 0x2
 5375 1453 74       		.byte	0x74
 5376 1454 00       		.sleb128 0
 5377 1455 00       		.byte	0
 5378 1456 2A       		.uleb128 0x2a
 5379 1457 60000000 		.4byte	.LVL46
 5380 145b 0E200000 		.4byte	0x200e
 5381 145f 6A140000 		.4byte	0x146a
 5382 1463 20       		.uleb128 0x20
 5383 1464 01       		.uleb128 0x1
 5384 1465 51       		.byte	0x51
 5385 1466 02       		.uleb128 0x2
 5386 1467 76       		.byte	0x76
 5387 1468 00       		.sleb128 0
 5388 1469 00       		.byte	0
 5389 146a 2A       		.uleb128 0x2a
 5390 146b 78000000 		.4byte	.LVL48
 5391 146f 0E200000 		.4byte	0x200e
 5392 1473 7E140000 		.4byte	0x147e
 5393 1477 20       		.uleb128 0x20
 5394 1478 01       		.uleb128 0x1
 5395 1479 51       		.byte	0x51
 5396 147a 02       		.uleb128 0x2
 5397 147b 77       		.byte	0x77
 5398 147c 00       		.sleb128 0
 5399 147d 00       		.byte	0
ARM GAS  /tmp/cc0h7QKQ.s 			page 151


 5400 147e 2A       		.uleb128 0x2a
 5401 147f 96000000 		.4byte	.LVL49
 5402 1483 0E200000 		.4byte	0x200e
 5403 1487 92140000 		.4byte	0x1492
 5404 148b 20       		.uleb128 0x20
 5405 148c 01       		.uleb128 0x1
 5406 148d 51       		.byte	0x51
 5407 148e 02       		.uleb128 0x2
 5408 148f 78       		.byte	0x78
 5409 1490 00       		.sleb128 0
 5410 1491 00       		.byte	0
 5411 1492 2A       		.uleb128 0x2a
 5412 1493 B4000000 		.4byte	.LVL50
 5413 1497 0E200000 		.4byte	0x200e
 5414 149b A6140000 		.4byte	0x14a6
 5415 149f 20       		.uleb128 0x20
 5416 14a0 01       		.uleb128 0x1
 5417 14a1 51       		.byte	0x51
 5418 14a2 02       		.uleb128 0x2
 5419 14a3 7B       		.byte	0x7b
 5420 14a4 00       		.sleb128 0
 5421 14a5 00       		.byte	0
 5422 14a6 2A       		.uleb128 0x2a
 5423 14a7 D0000000 		.4byte	.LVL53
 5424 14ab 28200000 		.4byte	0x2028
 5425 14af C0140000 		.4byte	0x14c0
 5426 14b3 20       		.uleb128 0x20
 5427 14b4 01       		.uleb128 0x1
 5428 14b5 51       		.byte	0x51
 5429 14b6 02       		.uleb128 0x2
 5430 14b7 79       		.byte	0x79
 5431 14b8 00       		.sleb128 0
 5432 14b9 20       		.uleb128 0x20
 5433 14ba 01       		.uleb128 0x1
 5434 14bb 50       		.byte	0x50
 5435 14bc 02       		.uleb128 0x2
 5436 14bd 74       		.byte	0x74
 5437 14be 00       		.sleb128 0
 5438 14bf 00       		.byte	0
 5439 14c0 2A       		.uleb128 0x2a
 5440 14c1 DE000000 		.4byte	.LVL55
 5441 14c5 0E200000 		.4byte	0x200e
 5442 14c9 D4140000 		.4byte	0x14d4
 5443 14cd 20       		.uleb128 0x20
 5444 14ce 01       		.uleb128 0x1
 5445 14cf 51       		.byte	0x51
 5446 14d0 02       		.uleb128 0x2
 5447 14d1 7A       		.byte	0x7a
 5448 14d2 00       		.sleb128 0
 5449 14d3 00       		.byte	0
 5450 14d4 2A       		.uleb128 0x2a
 5451 14d5 F6000000 		.4byte	.LVL58
 5452 14d9 61200000 		.4byte	0x2061
 5453 14dd EE140000 		.4byte	0x14ee
 5454 14e1 20       		.uleb128 0x20
 5455 14e2 01       		.uleb128 0x1
 5456 14e3 51       		.byte	0x51
ARM GAS  /tmp/cc0h7QKQ.s 			page 152


 5457 14e4 02       		.uleb128 0x2
 5458 14e5 08       		.byte	0x8
 5459 14e6 41       		.byte	0x41
 5460 14e7 20       		.uleb128 0x20
 5461 14e8 01       		.uleb128 0x1
 5462 14e9 50       		.byte	0x50
 5463 14ea 02       		.uleb128 0x2
 5464 14eb 74       		.byte	0x74
 5465 14ec 00       		.sleb128 0
 5466 14ed 00       		.byte	0
 5467 14ee 2A       		.uleb128 0x2a
 5468 14ef 04010000 		.4byte	.LVL60
 5469 14f3 0E200000 		.4byte	0x200e
 5470 14f7 02150000 		.4byte	0x1502
 5471 14fb 20       		.uleb128 0x20
 5472 14fc 01       		.uleb128 0x1
 5473 14fd 51       		.byte	0x51
 5474 14fe 02       		.uleb128 0x2
 5475 14ff 7A       		.byte	0x7a
 5476 1500 00       		.sleb128 0
 5477 1501 00       		.byte	0
 5478 1502 2A       		.uleb128 0x2a
 5479 1503 20010000 		.4byte	.LVL63
 5480 1507 0E200000 		.4byte	0x200e
 5481 150b 19150000 		.4byte	0x1519
 5482 150f 20       		.uleb128 0x20
 5483 1510 01       		.uleb128 0x1
 5484 1511 51       		.byte	0x51
 5485 1512 05       		.uleb128 0x5
 5486 1513 03       		.byte	0x3
 5487 1514 84000000 		.4byte	.LC26
 5488 1518 00       		.byte	0
 5489 1519 2A       		.uleb128 0x2a
 5490 151a 3A010000 		.4byte	.LVL65
 5491 151e 0E200000 		.4byte	0x200e
 5492 1522 30150000 		.4byte	0x1530
 5493 1526 20       		.uleb128 0x20
 5494 1527 01       		.uleb128 0x1
 5495 1528 51       		.byte	0x51
 5496 1529 05       		.uleb128 0x5
 5497 152a 03       		.byte	0x3
 5498 152b 90000000 		.4byte	.LC28
 5499 152f 00       		.byte	0
 5500 1530 2A       		.uleb128 0x2a
 5501 1531 56010000 		.4byte	.LVL66
 5502 1535 0E200000 		.4byte	0x200e
 5503 1539 47150000 		.4byte	0x1547
 5504 153d 20       		.uleb128 0x20
 5505 153e 01       		.uleb128 0x1
 5506 153f 51       		.byte	0x51
 5507 1540 05       		.uleb128 0x5
 5508 1541 03       		.byte	0x3
 5509 1542 9C000000 		.4byte	.LC30
 5510 1546 00       		.byte	0
 5511 1547 2A       		.uleb128 0x2a
 5512 1548 6C010000 		.4byte	.LVL68
 5513 154c 9A200000 		.4byte	0x209a
ARM GAS  /tmp/cc0h7QKQ.s 			page 153


 5514 1550 61150000 		.4byte	0x1561
 5515 1554 20       		.uleb128 0x20
 5516 1555 01       		.uleb128 0x1
 5517 1556 51       		.byte	0x51
 5518 1557 02       		.uleb128 0x2
 5519 1558 91       		.byte	0x91
 5520 1559 54       		.sleb128 -44
 5521 155a 20       		.uleb128 0x20
 5522 155b 01       		.uleb128 0x1
 5523 155c 50       		.byte	0x50
 5524 155d 02       		.uleb128 0x2
 5525 155e 74       		.byte	0x74
 5526 155f 00       		.sleb128 0
 5527 1560 00       		.byte	0
 5528 1561 2A       		.uleb128 0x2a
 5529 1562 7A010000 		.4byte	.LVL70
 5530 1566 0E200000 		.4byte	0x200e
 5531 156a 75150000 		.4byte	0x1575
 5532 156e 20       		.uleb128 0x20
 5533 156f 01       		.uleb128 0x1
 5534 1570 51       		.byte	0x51
 5535 1571 02       		.uleb128 0x2
 5536 1572 7A       		.byte	0x7a
 5537 1573 00       		.sleb128 0
 5538 1574 00       		.byte	0
 5539 1575 2F       		.uleb128 0x2f
 5540 1576 88010000 		.4byte	.LVL71
 5541 157a E0200000 		.4byte	0x20e0
 5542 157e 2A       		.uleb128 0x2a
 5543 157f 9C010000 		.4byte	.LVL73
 5544 1583 F1200000 		.4byte	0x20f1
 5545 1587 9E150000 		.4byte	0x159e
 5546 158b 20       		.uleb128 0x20
 5547 158c 01       		.uleb128 0x1
 5548 158d 51       		.byte	0x51
 5549 158e 05       		.uleb128 0x5
 5550 158f 03       		.byte	0x3
 5551 1590 BC000000 		.4byte	.LC34
 5552 1594 20       		.uleb128 0x20
 5553 1595 01       		.uleb128 0x1
 5554 1596 50       		.byte	0x50
 5555 1597 05       		.uleb128 0x5
 5556 1598 03       		.byte	0x3
 5557 1599 B4000000 		.4byte	.LC32
 5558 159d 00       		.byte	0
 5559 159e 2A       		.uleb128 0x2a
 5560 159f B0010000 		.4byte	.LVL74
 5561 15a3 EF1F0000 		.4byte	0x1fef
 5562 15a7 BE150000 		.4byte	0x15be
 5563 15ab 20       		.uleb128 0x20
 5564 15ac 01       		.uleb128 0x1
 5565 15ad 52       		.byte	0x52
 5566 15ae 02       		.uleb128 0x2
 5567 15af 09       		.byte	0x9
 5568 15b0 FF       		.byte	0xff
 5569 15b1 20       		.uleb128 0x20
 5570 15b2 01       		.uleb128 0x1
ARM GAS  /tmp/cc0h7QKQ.s 			page 154


 5571 15b3 51       		.byte	0x51
 5572 15b4 02       		.uleb128 0x2
 5573 15b5 08       		.byte	0x8
 5574 15b6 46       		.byte	0x46
 5575 15b7 20       		.uleb128 0x20
 5576 15b8 01       		.uleb128 0x1
 5577 15b9 50       		.byte	0x50
 5578 15ba 02       		.uleb128 0x2
 5579 15bb 74       		.byte	0x74
 5580 15bc 00       		.sleb128 0
 5581 15bd 00       		.byte	0
 5582 15be 2A       		.uleb128 0x2a
 5583 15bf BC010000 		.4byte	.LVL76
 5584 15c3 0E200000 		.4byte	0x200e
 5585 15c7 D2150000 		.4byte	0x15d2
 5586 15cb 20       		.uleb128 0x20
 5587 15cc 01       		.uleb128 0x1
 5588 15cd 51       		.byte	0x51
 5589 15ce 02       		.uleb128 0x2
 5590 15cf 7A       		.byte	0x7a
 5591 15d0 00       		.sleb128 0
 5592 15d1 00       		.byte	0
 5593 15d2 2A       		.uleb128 0x2a
 5594 15d3 CC010000 		.4byte	.LVL77
 5595 15d7 7B200000 		.4byte	0x207b
 5596 15db F2150000 		.4byte	0x15f2
 5597 15df 20       		.uleb128 0x20
 5598 15e0 01       		.uleb128 0x1
 5599 15e1 52       		.byte	0x52
 5600 15e2 02       		.uleb128 0x2
 5601 15e3 09       		.byte	0x9
 5602 15e4 FF       		.byte	0xff
 5603 15e5 20       		.uleb128 0x20
 5604 15e6 01       		.uleb128 0x1
 5605 15e7 51       		.byte	0x51
 5606 15e8 02       		.uleb128 0x2
 5607 15e9 91       		.byte	0x91
 5608 15ea 54       		.sleb128 -44
 5609 15eb 20       		.uleb128 0x20
 5610 15ec 01       		.uleb128 0x1
 5611 15ed 50       		.byte	0x50
 5612 15ee 02       		.uleb128 0x2
 5613 15ef 74       		.byte	0x74
 5614 15f0 00       		.sleb128 0
 5615 15f1 00       		.byte	0
 5616 15f2 2A       		.uleb128 0x2a
 5617 15f3 D8010000 		.4byte	.LVL79
 5618 15f7 0E200000 		.4byte	0x200e
 5619 15fb 06160000 		.4byte	0x1606
 5620 15ff 20       		.uleb128 0x20
 5621 1600 01       		.uleb128 0x1
 5622 1601 51       		.byte	0x51
 5623 1602 02       		.uleb128 0x2
 5624 1603 7A       		.byte	0x7a
 5625 1604 00       		.sleb128 0
 5626 1605 00       		.byte	0
 5627 1606 2A       		.uleb128 0x2a
ARM GAS  /tmp/cc0h7QKQ.s 			page 155


 5628 1607 F4010000 		.4byte	.LVL81
 5629 160b 0E200000 		.4byte	0x200e
 5630 160f 1A160000 		.4byte	0x161a
 5631 1613 20       		.uleb128 0x20
 5632 1614 01       		.uleb128 0x1
 5633 1615 51       		.byte	0x51
 5634 1616 02       		.uleb128 0x2
 5635 1617 76       		.byte	0x76
 5636 1618 00       		.sleb128 0
 5637 1619 00       		.byte	0
 5638 161a 2A       		.uleb128 0x2a
 5639 161b 0C020000 		.4byte	.LVL83
 5640 161f 0E200000 		.4byte	0x200e
 5641 1623 2E160000 		.4byte	0x162e
 5642 1627 20       		.uleb128 0x20
 5643 1628 01       		.uleb128 0x1
 5644 1629 51       		.byte	0x51
 5645 162a 02       		.uleb128 0x2
 5646 162b 77       		.byte	0x77
 5647 162c 00       		.sleb128 0
 5648 162d 00       		.byte	0
 5649 162e 2A       		.uleb128 0x2a
 5650 162f 26020000 		.4byte	.LVL84
 5651 1633 0E200000 		.4byte	0x200e
 5652 1637 42160000 		.4byte	0x1642
 5653 163b 20       		.uleb128 0x20
 5654 163c 01       		.uleb128 0x1
 5655 163d 51       		.byte	0x51
 5656 163e 02       		.uleb128 0x2
 5657 163f 78       		.byte	0x78
 5658 1640 00       		.sleb128 0
 5659 1641 00       		.byte	0
 5660 1642 1F       		.uleb128 0x1f
 5661 1643 3E020000 		.4byte	.LVL85
 5662 1647 0E200000 		.4byte	0x200e
 5663 164b 20       		.uleb128 0x20
 5664 164c 01       		.uleb128 0x1
 5665 164d 51       		.byte	0x51
 5666 164e 02       		.uleb128 0x2
 5667 164f 7B       		.byte	0x7b
 5668 1650 00       		.sleb128 0
 5669 1651 00       		.byte	0
 5670 1652 00       		.byte	0
 5671 1653 21       		.uleb128 0x21
 5672 1654 77040000 		.4byte	.LASF121
 5673 1658 01       		.byte	0x1
 5674 1659 5D       		.byte	0x5d
 5675 165a 00000000 		.4byte	.LFB181
 5676 165e 70020000 		.4byte	.LFE181-.LFB181
 5677 1662 01       		.uleb128 0x1
 5678 1663 9C       		.byte	0x9c
 5679 1664 2F1F0000 		.4byte	0x1f2f
 5680 1668 2B       		.uleb128 0x2b
 5681 1669 27060000 		.4byte	.LASF115
 5682 166d 01       		.byte	0x1
 5683 166e 5E       		.byte	0x5e
 5684 166f 10010000 		.4byte	0x110
ARM GAS  /tmp/cc0h7QKQ.s 			page 156


 5685 1673 99010000 		.4byte	.LLST4
 5686 1677 2C       		.uleb128 0x2c
 5687 1678 2C060000 		.4byte	.LASF116
 5688 167c 01       		.byte	0x1
 5689 167d 5E       		.byte	0x5e
 5690 167e 10010000 		.4byte	0x110
 5691 1682 02       		.uleb128 0x2
 5692 1683 91       		.byte	0x91
 5693 1684 54       		.sleb128 -44
 5694 1685 2D       		.uleb128 0x2d
 5695 1686 6900     		.ascii	"i\000"
 5696 1688 01       		.byte	0x1
 5697 1689 5F       		.byte	0x5f
 5698 168a 37000000 		.4byte	0x37
 5699 168e D8010000 		.4byte	.LLST5
 5700 1692 2E       		.uleb128 0x2e
 5701 1693 10070000 		.4byte	0x710
 5702 1697 14000000 		.4byte	.LBB705
 5703 169b 02000000 		.4byte	.LBE705-.LBB705
 5704 169f 01       		.byte	0x1
 5705 16a0 64       		.byte	0x64
 5706 16a1 D8160000 		.4byte	0x16d8
 5707 16a5 26       		.uleb128 0x26
 5708 16a6 D7060000 		.4byte	0x6d7
 5709 16aa 14000000 		.4byte	.LBB706
 5710 16ae 02000000 		.4byte	.LBE706-.LBB706
 5711 16b2 10       		.byte	0x10
 5712 16b3 ED01     		.2byte	0x1ed
 5713 16b5 26       		.uleb128 0x26
 5714 16b6 A4060000 		.4byte	0x6a4
 5715 16ba 14000000 		.4byte	.LBB707
 5716 16be 02000000 		.4byte	.LBE707-.LBB707
 5717 16c2 0F       		.byte	0xf
 5718 16c3 7801     		.2byte	0x178
 5719 16c5 27       		.uleb128 0x27
 5720 16c6 94060000 		.4byte	0x694
 5721 16ca 14000000 		.4byte	.LBB708
 5722 16ce 02000000 		.4byte	.LBE708-.LBB708
 5723 16d2 0B       		.byte	0xb
 5724 16d3 7501     		.2byte	0x175
 5725 16d5 00       		.byte	0
 5726 16d6 00       		.byte	0
 5727 16d7 00       		.byte	0
 5728 16d8 2E       		.uleb128 0x2e
 5729 16d9 3B070000 		.4byte	0x73b
 5730 16dd 2C000000 		.4byte	.LBB710
 5731 16e1 02000000 		.4byte	.LBE710-.LBB710
 5732 16e5 01       		.byte	0x1
 5733 16e6 A2       		.byte	0xa2
 5734 16e7 2D170000 		.4byte	0x172d
 5735 16eb 26       		.uleb128 0x26
 5736 16ec E0060000 		.4byte	0x6e0
 5737 16f0 2C000000 		.4byte	.LBB711
 5738 16f4 02000000 		.4byte	.LBE711-.LBB711
 5739 16f8 10       		.byte	0x10
 5740 16f9 F801     		.2byte	0x1f8
 5741 16fb 28       		.uleb128 0x28
ARM GAS  /tmp/cc0h7QKQ.s 			page 157


 5742 16fc 2C000000 		.4byte	.LBB712
 5743 1700 02000000 		.4byte	.LBE712-.LBB712
 5744 1704 29       		.uleb128 0x29
 5745 1705 ED060000 		.4byte	0x6ed
 5746 1709 26       		.uleb128 0x26
 5747 170a AD060000 		.4byte	0x6ad
 5748 170e 2C000000 		.4byte	.LBB713
 5749 1712 02000000 		.4byte	.LBE713-.LBB713
 5750 1716 0F       		.byte	0xf
 5751 1717 8F01     		.2byte	0x18f
 5752 1719 27       		.uleb128 0x27
 5753 171a 9C060000 		.4byte	0x69c
 5754 171e 2C000000 		.4byte	.LBB714
 5755 1722 02000000 		.4byte	.LBE714-.LBB714
 5756 1726 0B       		.byte	0xb
 5757 1727 7E01     		.2byte	0x17e
 5758 1729 00       		.byte	0
 5759 172a 00       		.byte	0
 5760 172b 00       		.byte	0
 5761 172c 00       		.byte	0
 5762 172d 2E       		.uleb128 0x2e
 5763 172e 3B070000 		.4byte	0x73b
 5764 1732 3C000000 		.4byte	.LBB716
 5765 1736 02000000 		.4byte	.LBE716-.LBB716
 5766 173a 01       		.byte	0x1
 5767 173b 64       		.byte	0x64
 5768 173c 82170000 		.4byte	0x1782
 5769 1740 26       		.uleb128 0x26
 5770 1741 E0060000 		.4byte	0x6e0
 5771 1745 3C000000 		.4byte	.LBB717
 5772 1749 02000000 		.4byte	.LBE717-.LBB717
 5773 174d 10       		.byte	0x10
 5774 174e F801     		.2byte	0x1f8
 5775 1750 28       		.uleb128 0x28
 5776 1751 3C000000 		.4byte	.LBB718
 5777 1755 02000000 		.4byte	.LBE718-.LBB718
 5778 1759 29       		.uleb128 0x29
 5779 175a ED060000 		.4byte	0x6ed
 5780 175e 26       		.uleb128 0x26
 5781 175f AD060000 		.4byte	0x6ad
 5782 1763 3C000000 		.4byte	.LBB719
 5783 1767 02000000 		.4byte	.LBE719-.LBB719
 5784 176b 0F       		.byte	0xf
 5785 176c 8F01     		.2byte	0x18f
 5786 176e 27       		.uleb128 0x27
 5787 176f 9C060000 		.4byte	0x69c
 5788 1773 3C000000 		.4byte	.LBB720
 5789 1777 02000000 		.4byte	.LBE720-.LBB720
 5790 177b 0B       		.byte	0xb
 5791 177c 7E01     		.2byte	0x17e
 5792 177e 00       		.byte	0
 5793 177f 00       		.byte	0
 5794 1780 00       		.byte	0
 5795 1781 00       		.byte	0
 5796 1782 2E       		.uleb128 0x2e
 5797 1783 10070000 		.4byte	0x710
 5798 1787 48000000 		.4byte	.LBB722
ARM GAS  /tmp/cc0h7QKQ.s 			page 158


 5799 178b 02000000 		.4byte	.LBE722-.LBB722
 5800 178f 01       		.byte	0x1
 5801 1790 6C       		.byte	0x6c
 5802 1791 C8170000 		.4byte	0x17c8
 5803 1795 26       		.uleb128 0x26
 5804 1796 D7060000 		.4byte	0x6d7
 5805 179a 48000000 		.4byte	.LBB723
 5806 179e 02000000 		.4byte	.LBE723-.LBB723
 5807 17a2 10       		.byte	0x10
 5808 17a3 ED01     		.2byte	0x1ed
 5809 17a5 26       		.uleb128 0x26
 5810 17a6 A4060000 		.4byte	0x6a4
 5811 17aa 48000000 		.4byte	.LBB724
 5812 17ae 02000000 		.4byte	.LBE724-.LBB724
 5813 17b2 0F       		.byte	0xf
 5814 17b3 7801     		.2byte	0x178
 5815 17b5 27       		.uleb128 0x27
 5816 17b6 94060000 		.4byte	0x694
 5817 17ba 48000000 		.4byte	.LBB725
 5818 17be 02000000 		.4byte	.LBE725-.LBB725
 5819 17c2 0B       		.byte	0xb
 5820 17c3 7501     		.2byte	0x175
 5821 17c5 00       		.byte	0
 5822 17c6 00       		.byte	0
 5823 17c7 00       		.byte	0
 5824 17c8 2E       		.uleb128 0x2e
 5825 17c9 3B070000 		.4byte	0x73b
 5826 17cd 60000000 		.4byte	.LBB727
 5827 17d1 02000000 		.4byte	.LBE727-.LBB727
 5828 17d5 01       		.byte	0x1
 5829 17d6 6C       		.byte	0x6c
 5830 17d7 1D180000 		.4byte	0x181d
 5831 17db 26       		.uleb128 0x26
 5832 17dc E0060000 		.4byte	0x6e0
 5833 17e0 60000000 		.4byte	.LBB728
 5834 17e4 02000000 		.4byte	.LBE728-.LBB728
 5835 17e8 10       		.byte	0x10
 5836 17e9 F801     		.2byte	0x1f8
 5837 17eb 28       		.uleb128 0x28
 5838 17ec 60000000 		.4byte	.LBB729
 5839 17f0 02000000 		.4byte	.LBE729-.LBB729
 5840 17f4 29       		.uleb128 0x29
 5841 17f5 ED060000 		.4byte	0x6ed
 5842 17f9 26       		.uleb128 0x26
 5843 17fa AD060000 		.4byte	0x6ad
 5844 17fe 60000000 		.4byte	.LBB730
 5845 1802 02000000 		.4byte	.LBE730-.LBB730
 5846 1806 0F       		.byte	0xf
 5847 1807 8F01     		.2byte	0x18f
 5848 1809 27       		.uleb128 0x27
 5849 180a 9C060000 		.4byte	0x69c
 5850 180e 60000000 		.4byte	.LBB731
 5851 1812 02000000 		.4byte	.LBE731-.LBB731
 5852 1816 0B       		.byte	0xb
 5853 1817 7E01     		.2byte	0x17e
 5854 1819 00       		.byte	0
 5855 181a 00       		.byte	0
ARM GAS  /tmp/cc0h7QKQ.s 			page 159


 5856 181b 00       		.byte	0
 5857 181c 00       		.byte	0
 5858 181d 2E       		.uleb128 0x2e
 5859 181e 10070000 		.4byte	0x710
 5860 1822 62000000 		.4byte	.LBB733
 5861 1826 02000000 		.4byte	.LBE733-.LBB733
 5862 182a 01       		.byte	0x1
 5863 182b 6D       		.byte	0x6d
 5864 182c 63180000 		.4byte	0x1863
 5865 1830 26       		.uleb128 0x26
 5866 1831 D7060000 		.4byte	0x6d7
 5867 1835 62000000 		.4byte	.LBB734
 5868 1839 02000000 		.4byte	.LBE734-.LBB734
 5869 183d 10       		.byte	0x10
 5870 183e ED01     		.2byte	0x1ed
 5871 1840 26       		.uleb128 0x26
 5872 1841 A4060000 		.4byte	0x6a4
 5873 1845 62000000 		.4byte	.LBB735
 5874 1849 02000000 		.4byte	.LBE735-.LBB735
 5875 184d 0F       		.byte	0xf
 5876 184e 7801     		.2byte	0x178
 5877 1850 27       		.uleb128 0x27
 5878 1851 94060000 		.4byte	0x694
 5879 1855 62000000 		.4byte	.LBB736
 5880 1859 02000000 		.4byte	.LBE736-.LBB736
 5881 185d 0B       		.byte	0xb
 5882 185e 7501     		.2byte	0x175
 5883 1860 00       		.byte	0
 5884 1861 00       		.byte	0
 5885 1862 00       		.byte	0
 5886 1863 2E       		.uleb128 0x2e
 5887 1864 3B070000 		.4byte	0x73b
 5888 1868 78000000 		.4byte	.LBB738
 5889 186c 02000000 		.4byte	.LBE738-.LBB738
 5890 1870 01       		.byte	0x1
 5891 1871 6D       		.byte	0x6d
 5892 1872 B8180000 		.4byte	0x18b8
 5893 1876 26       		.uleb128 0x26
 5894 1877 E0060000 		.4byte	0x6e0
 5895 187b 78000000 		.4byte	.LBB739
 5896 187f 02000000 		.4byte	.LBE739-.LBB739
 5897 1883 10       		.byte	0x10
 5898 1884 F801     		.2byte	0x1f8
 5899 1886 28       		.uleb128 0x28
 5900 1887 78000000 		.4byte	.LBB740
 5901 188b 02000000 		.4byte	.LBE740-.LBB740
 5902 188f 29       		.uleb128 0x29
 5903 1890 ED060000 		.4byte	0x6ed
 5904 1894 26       		.uleb128 0x26
 5905 1895 AD060000 		.4byte	0x6ad
 5906 1899 78000000 		.4byte	.LBB741
 5907 189d 02000000 		.4byte	.LBE741-.LBB741
 5908 18a1 0F       		.byte	0xf
 5909 18a2 8F01     		.2byte	0x18f
 5910 18a4 27       		.uleb128 0x27
 5911 18a5 9C060000 		.4byte	0x69c
 5912 18a9 78000000 		.4byte	.LBB742
ARM GAS  /tmp/cc0h7QKQ.s 			page 160


 5913 18ad 02000000 		.4byte	.LBE742-.LBB742
 5914 18b1 0B       		.byte	0xb
 5915 18b2 7E01     		.2byte	0x17e
 5916 18b4 00       		.byte	0
 5917 18b5 00       		.byte	0
 5918 18b6 00       		.byte	0
 5919 18b7 00       		.byte	0
 5920 18b8 2E       		.uleb128 0x2e
 5921 18b9 10070000 		.4byte	0x710
 5922 18bd 7A000000 		.4byte	.LBB744
 5923 18c1 02000000 		.4byte	.LBE744-.LBB744
 5924 18c5 01       		.byte	0x1
 5925 18c6 6E       		.byte	0x6e
 5926 18c7 FE180000 		.4byte	0x18fe
 5927 18cb 26       		.uleb128 0x26
 5928 18cc D7060000 		.4byte	0x6d7
 5929 18d0 7A000000 		.4byte	.LBB745
 5930 18d4 02000000 		.4byte	.LBE745-.LBB745
 5931 18d8 10       		.byte	0x10
 5932 18d9 ED01     		.2byte	0x1ed
 5933 18db 26       		.uleb128 0x26
 5934 18dc A4060000 		.4byte	0x6a4
 5935 18e0 7A000000 		.4byte	.LBB746
 5936 18e4 02000000 		.4byte	.LBE746-.LBB746
 5937 18e8 0F       		.byte	0xf
 5938 18e9 7801     		.2byte	0x178
 5939 18eb 27       		.uleb128 0x27
 5940 18ec 94060000 		.4byte	0x694
 5941 18f0 7A000000 		.4byte	.LBB747
 5942 18f4 02000000 		.4byte	.LBE747-.LBB747
 5943 18f8 0B       		.byte	0xb
 5944 18f9 7501     		.2byte	0x175
 5945 18fb 00       		.byte	0
 5946 18fc 00       		.byte	0
 5947 18fd 00       		.byte	0
 5948 18fe 2E       		.uleb128 0x2e
 5949 18ff 3B070000 		.4byte	0x73b
 5950 1903 96000000 		.4byte	.LBB749
 5951 1907 02000000 		.4byte	.LBE749-.LBB749
 5952 190b 01       		.byte	0x1
 5953 190c 6E       		.byte	0x6e
 5954 190d 53190000 		.4byte	0x1953
 5955 1911 26       		.uleb128 0x26
 5956 1912 E0060000 		.4byte	0x6e0
 5957 1916 96000000 		.4byte	.LBB750
 5958 191a 02000000 		.4byte	.LBE750-.LBB750
 5959 191e 10       		.byte	0x10
 5960 191f F801     		.2byte	0x1f8
 5961 1921 28       		.uleb128 0x28
 5962 1922 96000000 		.4byte	.LBB751
 5963 1926 02000000 		.4byte	.LBE751-.LBB751
 5964 192a 29       		.uleb128 0x29
 5965 192b ED060000 		.4byte	0x6ed
 5966 192f 26       		.uleb128 0x26
 5967 1930 AD060000 		.4byte	0x6ad
 5968 1934 96000000 		.4byte	.LBB752
 5969 1938 02000000 		.4byte	.LBE752-.LBB752
ARM GAS  /tmp/cc0h7QKQ.s 			page 161


 5970 193c 0F       		.byte	0xf
 5971 193d 8F01     		.2byte	0x18f
 5972 193f 27       		.uleb128 0x27
 5973 1940 9C060000 		.4byte	0x69c
 5974 1944 96000000 		.4byte	.LBB753
 5975 1948 02000000 		.4byte	.LBE753-.LBB753
 5976 194c 0B       		.byte	0xb
 5977 194d 7E01     		.2byte	0x17e
 5978 194f 00       		.byte	0
 5979 1950 00       		.byte	0
 5980 1951 00       		.byte	0
 5981 1952 00       		.byte	0
 5982 1953 2E       		.uleb128 0x2e
 5983 1954 10070000 		.4byte	0x710
 5984 1958 98000000 		.4byte	.LBB755
 5985 195c 02000000 		.4byte	.LBE755-.LBB755
 5986 1960 01       		.byte	0x1
 5987 1961 6F       		.byte	0x6f
 5988 1962 99190000 		.4byte	0x1999
 5989 1966 26       		.uleb128 0x26
 5990 1967 D7060000 		.4byte	0x6d7
 5991 196b 98000000 		.4byte	.LBB756
 5992 196f 02000000 		.4byte	.LBE756-.LBB756
 5993 1973 10       		.byte	0x10
 5994 1974 ED01     		.2byte	0x1ed
 5995 1976 26       		.uleb128 0x26
 5996 1977 A4060000 		.4byte	0x6a4
 5997 197b 98000000 		.4byte	.LBB757
 5998 197f 02000000 		.4byte	.LBE757-.LBB757
 5999 1983 0F       		.byte	0xf
 6000 1984 7801     		.2byte	0x178
 6001 1986 27       		.uleb128 0x27
 6002 1987 94060000 		.4byte	0x694
 6003 198b 98000000 		.4byte	.LBB758
 6004 198f 02000000 		.4byte	.LBE758-.LBB758
 6005 1993 0B       		.byte	0xb
 6006 1994 7501     		.2byte	0x175
 6007 1996 00       		.byte	0
 6008 1997 00       		.byte	0
 6009 1998 00       		.byte	0
 6010 1999 2E       		.uleb128 0x2e
 6011 199a 3B070000 		.4byte	0x73b
 6012 199e B4000000 		.4byte	.LBB760
 6013 19a2 02000000 		.4byte	.LBE760-.LBB760
 6014 19a6 01       		.byte	0x1
 6015 19a7 6F       		.byte	0x6f
 6016 19a8 EE190000 		.4byte	0x19ee
 6017 19ac 26       		.uleb128 0x26
 6018 19ad E0060000 		.4byte	0x6e0
 6019 19b1 B4000000 		.4byte	.LBB761
 6020 19b5 02000000 		.4byte	.LBE761-.LBB761
 6021 19b9 10       		.byte	0x10
 6022 19ba F801     		.2byte	0x1f8
 6023 19bc 28       		.uleb128 0x28
 6024 19bd B4000000 		.4byte	.LBB762
 6025 19c1 02000000 		.4byte	.LBE762-.LBB762
 6026 19c5 29       		.uleb128 0x29
ARM GAS  /tmp/cc0h7QKQ.s 			page 162


 6027 19c6 ED060000 		.4byte	0x6ed
 6028 19ca 26       		.uleb128 0x26
 6029 19cb AD060000 		.4byte	0x6ad
 6030 19cf B4000000 		.4byte	.LBB763
 6031 19d3 02000000 		.4byte	.LBE763-.LBB763
 6032 19d7 0F       		.byte	0xf
 6033 19d8 8F01     		.2byte	0x18f
 6034 19da 27       		.uleb128 0x27
 6035 19db 9C060000 		.4byte	0x69c
 6036 19df B4000000 		.4byte	.LBB764
 6037 19e3 02000000 		.4byte	.LBE764-.LBB764
 6038 19e7 0B       		.byte	0xb
 6039 19e8 7E01     		.2byte	0x17e
 6040 19ea 00       		.byte	0
 6041 19eb 00       		.byte	0
 6042 19ec 00       		.byte	0
 6043 19ed 00       		.byte	0
 6044 19ee 2E       		.uleb128 0x2e
 6045 19ef 10070000 		.4byte	0x710
 6046 19f3 08010000 		.4byte	.LBB766
 6047 19f7 02000000 		.4byte	.LBE766-.LBB766
 6048 19fb 01       		.byte	0x1
 6049 19fc 82       		.byte	0x82
 6050 19fd 341A0000 		.4byte	0x1a34
 6051 1a01 26       		.uleb128 0x26
 6052 1a02 D7060000 		.4byte	0x6d7
 6053 1a06 08010000 		.4byte	.LBB767
 6054 1a0a 02000000 		.4byte	.LBE767-.LBB767
 6055 1a0e 10       		.byte	0x10
 6056 1a0f ED01     		.2byte	0x1ed
 6057 1a11 26       		.uleb128 0x26
 6058 1a12 A4060000 		.4byte	0x6a4
 6059 1a16 08010000 		.4byte	.LBB768
 6060 1a1a 02000000 		.4byte	.LBE768-.LBB768
 6061 1a1e 0F       		.byte	0xf
 6062 1a1f 7801     		.2byte	0x178
 6063 1a21 27       		.uleb128 0x27
 6064 1a22 94060000 		.4byte	0x694
 6065 1a26 08010000 		.4byte	.LBB769
 6066 1a2a 02000000 		.4byte	.LBE769-.LBB769
 6067 1a2e 0B       		.byte	0xb
 6068 1a2f 7501     		.2byte	0x175
 6069 1a31 00       		.byte	0
 6070 1a32 00       		.byte	0
 6071 1a33 00       		.byte	0
 6072 1a34 2E       		.uleb128 0x2e
 6073 1a35 3B070000 		.4byte	0x73b
 6074 1a39 1E010000 		.4byte	.LBB771
 6075 1a3d 02000000 		.4byte	.LBE771-.LBB771
 6076 1a41 01       		.byte	0x1
 6077 1a42 82       		.byte	0x82
 6078 1a43 891A0000 		.4byte	0x1a89
 6079 1a47 26       		.uleb128 0x26
 6080 1a48 E0060000 		.4byte	0x6e0
 6081 1a4c 1E010000 		.4byte	.LBB772
 6082 1a50 02000000 		.4byte	.LBE772-.LBB772
 6083 1a54 10       		.byte	0x10
ARM GAS  /tmp/cc0h7QKQ.s 			page 163


 6084 1a55 F801     		.2byte	0x1f8
 6085 1a57 28       		.uleb128 0x28
 6086 1a58 1E010000 		.4byte	.LBB773
 6087 1a5c 02000000 		.4byte	.LBE773-.LBB773
 6088 1a60 29       		.uleb128 0x29
 6089 1a61 ED060000 		.4byte	0x6ed
 6090 1a65 26       		.uleb128 0x26
 6091 1a66 AD060000 		.4byte	0x6ad
 6092 1a6a 1E010000 		.4byte	.LBB774
 6093 1a6e 02000000 		.4byte	.LBE774-.LBB774
 6094 1a72 0F       		.byte	0xf
 6095 1a73 8F01     		.2byte	0x18f
 6096 1a75 27       		.uleb128 0x27
 6097 1a76 9C060000 		.4byte	0x69c
 6098 1a7a 1E010000 		.4byte	.LBB775
 6099 1a7e 02000000 		.4byte	.LBE775-.LBB775
 6100 1a82 0B       		.byte	0xb
 6101 1a83 7E01     		.2byte	0x17e
 6102 1a85 00       		.byte	0
 6103 1a86 00       		.byte	0
 6104 1a87 00       		.byte	0
 6105 1a88 00       		.byte	0
 6106 1a89 2E       		.uleb128 0x2e
 6107 1a8a 10070000 		.4byte	0x710
 6108 1a8e 20010000 		.4byte	.LBB777
 6109 1a92 02000000 		.4byte	.LBE777-.LBB777
 6110 1a96 01       		.byte	0x1
 6111 1a97 83       		.byte	0x83
 6112 1a98 CF1A0000 		.4byte	0x1acf
 6113 1a9c 26       		.uleb128 0x26
 6114 1a9d D7060000 		.4byte	0x6d7
 6115 1aa1 20010000 		.4byte	.LBB778
 6116 1aa5 02000000 		.4byte	.LBE778-.LBB778
 6117 1aa9 10       		.byte	0x10
 6118 1aaa ED01     		.2byte	0x1ed
 6119 1aac 26       		.uleb128 0x26
 6120 1aad A4060000 		.4byte	0x6a4
 6121 1ab1 20010000 		.4byte	.LBB779
 6122 1ab5 02000000 		.4byte	.LBE779-.LBB779
 6123 1ab9 0F       		.byte	0xf
 6124 1aba 7801     		.2byte	0x178
 6125 1abc 27       		.uleb128 0x27
 6126 1abd 94060000 		.4byte	0x694
 6127 1ac1 20010000 		.4byte	.LBB780
 6128 1ac5 02000000 		.4byte	.LBE780-.LBB780
 6129 1ac9 0B       		.byte	0xb
 6130 1aca 7501     		.2byte	0x175
 6131 1acc 00       		.byte	0
 6132 1acd 00       		.byte	0
 6133 1ace 00       		.byte	0
 6134 1acf 2E       		.uleb128 0x2e
 6135 1ad0 3B070000 		.4byte	0x73b
 6136 1ad4 38010000 		.4byte	.LBB782
 6137 1ad8 02000000 		.4byte	.LBE782-.LBB782
 6138 1adc 01       		.byte	0x1
 6139 1add 83       		.byte	0x83
 6140 1ade 241B0000 		.4byte	0x1b24
ARM GAS  /tmp/cc0h7QKQ.s 			page 164


 6141 1ae2 26       		.uleb128 0x26
 6142 1ae3 E0060000 		.4byte	0x6e0
 6143 1ae7 38010000 		.4byte	.LBB783
 6144 1aeb 02000000 		.4byte	.LBE783-.LBB783
 6145 1aef 10       		.byte	0x10
 6146 1af0 F801     		.2byte	0x1f8
 6147 1af2 28       		.uleb128 0x28
 6148 1af3 38010000 		.4byte	.LBB784
 6149 1af7 02000000 		.4byte	.LBE784-.LBB784
 6150 1afb 29       		.uleb128 0x29
 6151 1afc ED060000 		.4byte	0x6ed
 6152 1b00 26       		.uleb128 0x26
 6153 1b01 AD060000 		.4byte	0x6ad
 6154 1b05 38010000 		.4byte	.LBB785
 6155 1b09 02000000 		.4byte	.LBE785-.LBB785
 6156 1b0d 0F       		.byte	0xf
 6157 1b0e 8F01     		.2byte	0x18f
 6158 1b10 27       		.uleb128 0x27
 6159 1b11 9C060000 		.4byte	0x69c
 6160 1b15 38010000 		.4byte	.LBB786
 6161 1b19 02000000 		.4byte	.LBE786-.LBB786
 6162 1b1d 0B       		.byte	0xb
 6163 1b1e 7E01     		.2byte	0x17e
 6164 1b20 00       		.byte	0
 6165 1b21 00       		.byte	0
 6166 1b22 00       		.byte	0
 6167 1b23 00       		.byte	0
 6168 1b24 2E       		.uleb128 0x2e
 6169 1b25 10070000 		.4byte	0x710
 6170 1b29 3A010000 		.4byte	.LBB788
 6171 1b2d 02000000 		.4byte	.LBE788-.LBB788
 6172 1b31 01       		.byte	0x1
 6173 1b32 84       		.byte	0x84
 6174 1b33 6A1B0000 		.4byte	0x1b6a
 6175 1b37 26       		.uleb128 0x26
 6176 1b38 D7060000 		.4byte	0x6d7
 6177 1b3c 3A010000 		.4byte	.LBB789
 6178 1b40 02000000 		.4byte	.LBE789-.LBB789
 6179 1b44 10       		.byte	0x10
 6180 1b45 ED01     		.2byte	0x1ed
 6181 1b47 26       		.uleb128 0x26
 6182 1b48 A4060000 		.4byte	0x6a4
 6183 1b4c 3A010000 		.4byte	.LBB790
 6184 1b50 02000000 		.4byte	.LBE790-.LBB790
 6185 1b54 0F       		.byte	0xf
 6186 1b55 7801     		.2byte	0x178
 6187 1b57 27       		.uleb128 0x27
 6188 1b58 94060000 		.4byte	0x694
 6189 1b5c 3A010000 		.4byte	.LBB791
 6190 1b60 02000000 		.4byte	.LBE791-.LBB791
 6191 1b64 0B       		.byte	0xb
 6192 1b65 7501     		.2byte	0x175
 6193 1b67 00       		.byte	0
 6194 1b68 00       		.byte	0
 6195 1b69 00       		.byte	0
 6196 1b6a 2E       		.uleb128 0x2e
 6197 1b6b 3B070000 		.4byte	0x73b
ARM GAS  /tmp/cc0h7QKQ.s 			page 165


 6198 1b6f 54010000 		.4byte	.LBB793
 6199 1b73 02000000 		.4byte	.LBE793-.LBB793
 6200 1b77 01       		.byte	0x1
 6201 1b78 84       		.byte	0x84
 6202 1b79 BF1B0000 		.4byte	0x1bbf
 6203 1b7d 26       		.uleb128 0x26
 6204 1b7e E0060000 		.4byte	0x6e0
 6205 1b82 54010000 		.4byte	.LBB794
 6206 1b86 02000000 		.4byte	.LBE794-.LBB794
 6207 1b8a 10       		.byte	0x10
 6208 1b8b F801     		.2byte	0x1f8
 6209 1b8d 28       		.uleb128 0x28
 6210 1b8e 54010000 		.4byte	.LBB795
 6211 1b92 02000000 		.4byte	.LBE795-.LBB795
 6212 1b96 29       		.uleb128 0x29
 6213 1b97 ED060000 		.4byte	0x6ed
 6214 1b9b 26       		.uleb128 0x26
 6215 1b9c AD060000 		.4byte	0x6ad
 6216 1ba0 54010000 		.4byte	.LBB796
 6217 1ba4 02000000 		.4byte	.LBE796-.LBB796
 6218 1ba8 0F       		.byte	0xf
 6219 1ba9 8F01     		.2byte	0x18f
 6220 1bab 27       		.uleb128 0x27
 6221 1bac 9C060000 		.4byte	0x69c
 6222 1bb0 54010000 		.4byte	.LBB797
 6223 1bb4 02000000 		.4byte	.LBE797-.LBB797
 6224 1bb8 0B       		.byte	0xb
 6225 1bb9 7E01     		.2byte	0x17e
 6226 1bbb 00       		.byte	0
 6227 1bbc 00       		.byte	0
 6228 1bbd 00       		.byte	0
 6229 1bbe 00       		.byte	0
 6230 1bbf 2E       		.uleb128 0x2e
 6231 1bc0 10070000 		.4byte	0x710
 6232 1bc4 D8010000 		.4byte	.LBB799
 6233 1bc8 02000000 		.4byte	.LBE799-.LBB799
 6234 1bcc 01       		.byte	0x1
 6235 1bcd A1       		.byte	0xa1
 6236 1bce 051C0000 		.4byte	0x1c05
 6237 1bd2 26       		.uleb128 0x26
 6238 1bd3 D7060000 		.4byte	0x6d7
 6239 1bd7 D8010000 		.4byte	.LBB800
 6240 1bdb 02000000 		.4byte	.LBE800-.LBB800
 6241 1bdf 10       		.byte	0x10
 6242 1be0 ED01     		.2byte	0x1ed
 6243 1be2 26       		.uleb128 0x26
 6244 1be3 A4060000 		.4byte	0x6a4
 6245 1be7 D8010000 		.4byte	.LBB801
 6246 1beb 02000000 		.4byte	.LBE801-.LBB801
 6247 1bef 0F       		.byte	0xf
 6248 1bf0 7801     		.2byte	0x178
 6249 1bf2 27       		.uleb128 0x27
 6250 1bf3 94060000 		.4byte	0x694
 6251 1bf7 D8010000 		.4byte	.LBB802
 6252 1bfb 02000000 		.4byte	.LBE802-.LBB802
 6253 1bff 0B       		.byte	0xb
 6254 1c00 7501     		.2byte	0x175
ARM GAS  /tmp/cc0h7QKQ.s 			page 166


 6255 1c02 00       		.byte	0
 6256 1c03 00       		.byte	0
 6257 1c04 00       		.byte	0
 6258 1c05 2E       		.uleb128 0x2e
 6259 1c06 3B070000 		.4byte	0x73b
 6260 1c0a F0010000 		.4byte	.LBB804
 6261 1c0e 02000000 		.4byte	.LBE804-.LBB804
 6262 1c12 01       		.byte	0x1
 6263 1c13 A1       		.byte	0xa1
 6264 1c14 5A1C0000 		.4byte	0x1c5a
 6265 1c18 26       		.uleb128 0x26
 6266 1c19 E0060000 		.4byte	0x6e0
 6267 1c1d F0010000 		.4byte	.LBB805
 6268 1c21 02000000 		.4byte	.LBE805-.LBB805
 6269 1c25 10       		.byte	0x10
 6270 1c26 F801     		.2byte	0x1f8
 6271 1c28 28       		.uleb128 0x28
 6272 1c29 F0010000 		.4byte	.LBB806
 6273 1c2d 02000000 		.4byte	.LBE806-.LBB806
 6274 1c31 29       		.uleb128 0x29
 6275 1c32 ED060000 		.4byte	0x6ed
 6276 1c36 26       		.uleb128 0x26
 6277 1c37 AD060000 		.4byte	0x6ad
 6278 1c3b F0010000 		.4byte	.LBB807
 6279 1c3f 02000000 		.4byte	.LBE807-.LBB807
 6280 1c43 0F       		.byte	0xf
 6281 1c44 8F01     		.2byte	0x18f
 6282 1c46 27       		.uleb128 0x27
 6283 1c47 9C060000 		.4byte	0x69c
 6284 1c4b F0010000 		.4byte	.LBB808
 6285 1c4f 02000000 		.4byte	.LBE808-.LBB808
 6286 1c53 0B       		.byte	0xb
 6287 1c54 7E01     		.2byte	0x17e
 6288 1c56 00       		.byte	0
 6289 1c57 00       		.byte	0
 6290 1c58 00       		.byte	0
 6291 1c59 00       		.byte	0
 6292 1c5a 2E       		.uleb128 0x2e
 6293 1c5b 10070000 		.4byte	0x710
 6294 1c5f F2010000 		.4byte	.LBB810
 6295 1c63 02000000 		.4byte	.LBE810-.LBB810
 6296 1c67 01       		.byte	0x1
 6297 1c68 A2       		.byte	0xa2
 6298 1c69 A01C0000 		.4byte	0x1ca0
 6299 1c6d 26       		.uleb128 0x26
 6300 1c6e D7060000 		.4byte	0x6d7
 6301 1c72 F2010000 		.4byte	.LBB811
 6302 1c76 02000000 		.4byte	.LBE811-.LBB811
 6303 1c7a 10       		.byte	0x10
 6304 1c7b ED01     		.2byte	0x1ed
 6305 1c7d 26       		.uleb128 0x26
 6306 1c7e A4060000 		.4byte	0x6a4
 6307 1c82 F2010000 		.4byte	.LBB812
 6308 1c86 02000000 		.4byte	.LBE812-.LBB812
 6309 1c8a 0F       		.byte	0xf
 6310 1c8b 7801     		.2byte	0x178
 6311 1c8d 27       		.uleb128 0x27
ARM GAS  /tmp/cc0h7QKQ.s 			page 167


 6312 1c8e 94060000 		.4byte	0x694
 6313 1c92 F2010000 		.4byte	.LBB813
 6314 1c96 02000000 		.4byte	.LBE813-.LBB813
 6315 1c9a 0B       		.byte	0xb
 6316 1c9b 7501     		.2byte	0x175
 6317 1c9d 00       		.byte	0
 6318 1c9e 00       		.byte	0
 6319 1c9f 00       		.byte	0
 6320 1ca0 2E       		.uleb128 0x2e
 6321 1ca1 3B070000 		.4byte	0x73b
 6322 1ca5 08020000 		.4byte	.LBB815
 6323 1ca9 02000000 		.4byte	.LBE815-.LBB815
 6324 1cad 01       		.byte	0x1
 6325 1cae A2       		.byte	0xa2
 6326 1caf F51C0000 		.4byte	0x1cf5
 6327 1cb3 26       		.uleb128 0x26
 6328 1cb4 E0060000 		.4byte	0x6e0
 6329 1cb8 08020000 		.4byte	.LBB816
 6330 1cbc 02000000 		.4byte	.LBE816-.LBB816
 6331 1cc0 10       		.byte	0x10
 6332 1cc1 F801     		.2byte	0x1f8
 6333 1cc3 28       		.uleb128 0x28
 6334 1cc4 08020000 		.4byte	.LBB817
 6335 1cc8 02000000 		.4byte	.LBE817-.LBB817
 6336 1ccc 29       		.uleb128 0x29
 6337 1ccd ED060000 		.4byte	0x6ed
 6338 1cd1 26       		.uleb128 0x26
 6339 1cd2 AD060000 		.4byte	0x6ad
 6340 1cd6 08020000 		.4byte	.LBB818
 6341 1cda 02000000 		.4byte	.LBE818-.LBB818
 6342 1cde 0F       		.byte	0xf
 6343 1cdf 8F01     		.2byte	0x18f
 6344 1ce1 27       		.uleb128 0x27
 6345 1ce2 9C060000 		.4byte	0x69c
 6346 1ce6 08020000 		.4byte	.LBB819
 6347 1cea 02000000 		.4byte	.LBE819-.LBB819
 6348 1cee 0B       		.byte	0xb
 6349 1cef 7E01     		.2byte	0x17e
 6350 1cf1 00       		.byte	0
 6351 1cf2 00       		.byte	0
 6352 1cf3 00       		.byte	0
 6353 1cf4 00       		.byte	0
 6354 1cf5 2A       		.uleb128 0x2a
 6355 1cf6 28000000 		.4byte	.LVL87
 6356 1cfa 0E200000 		.4byte	0x200e
 6357 1cfe 0C1D0000 		.4byte	0x1d0c
 6358 1d02 20       		.uleb128 0x20
 6359 1d03 01       		.uleb128 0x1
 6360 1d04 51       		.byte	0x51
 6361 1d05 05       		.uleb128 0x5
 6362 1d06 03       		.byte	0x3
 6363 1d07 18000000 		.4byte	.LC15
 6364 1d0b 00       		.byte	0
 6365 1d0c 2A       		.uleb128 0x2a
 6366 1d0d 48000000 		.4byte	.LVL90
 6367 1d11 DE1F0000 		.4byte	0x1fde
 6368 1d15 201D0000 		.4byte	0x1d20
ARM GAS  /tmp/cc0h7QKQ.s 			page 168


 6369 1d19 20       		.uleb128 0x20
 6370 1d1a 01       		.uleb128 0x1
 6371 1d1b 50       		.byte	0x50
 6372 1d1c 02       		.uleb128 0x2
 6373 1d1d 74       		.byte	0x74
 6374 1d1e 00       		.sleb128 0
 6375 1d1f 00       		.byte	0
 6376 1d20 2A       		.uleb128 0x2a
 6377 1d21 5C000000 		.4byte	.LVL92
 6378 1d25 0E200000 		.4byte	0x200e
 6379 1d29 341D0000 		.4byte	0x1d34
 6380 1d2d 20       		.uleb128 0x20
 6381 1d2e 01       		.uleb128 0x1
 6382 1d2f 51       		.byte	0x51
 6383 1d30 02       		.uleb128 0x2
 6384 1d31 76       		.byte	0x76
 6385 1d32 00       		.sleb128 0
 6386 1d33 00       		.byte	0
 6387 1d34 2A       		.uleb128 0x2a
 6388 1d35 74000000 		.4byte	.LVL94
 6389 1d39 0E200000 		.4byte	0x200e
 6390 1d3d 481D0000 		.4byte	0x1d48
 6391 1d41 20       		.uleb128 0x20
 6392 1d42 01       		.uleb128 0x1
 6393 1d43 51       		.byte	0x51
 6394 1d44 02       		.uleb128 0x2
 6395 1d45 77       		.byte	0x77
 6396 1d46 00       		.sleb128 0
 6397 1d47 00       		.byte	0
 6398 1d48 2A       		.uleb128 0x2a
 6399 1d49 92000000 		.4byte	.LVL95
 6400 1d4d 0E200000 		.4byte	0x200e
 6401 1d51 5C1D0000 		.4byte	0x1d5c
 6402 1d55 20       		.uleb128 0x20
 6403 1d56 01       		.uleb128 0x1
 6404 1d57 51       		.byte	0x51
 6405 1d58 02       		.uleb128 0x2
 6406 1d59 78       		.byte	0x78
 6407 1d5a 00       		.sleb128 0
 6408 1d5b 00       		.byte	0
 6409 1d5c 2A       		.uleb128 0x2a
 6410 1d5d B0000000 		.4byte	.LVL96
 6411 1d61 0E200000 		.4byte	0x200e
 6412 1d65 701D0000 		.4byte	0x1d70
 6413 1d69 20       		.uleb128 0x20
 6414 1d6a 01       		.uleb128 0x1
 6415 1d6b 51       		.byte	0x51
 6416 1d6c 02       		.uleb128 0x2
 6417 1d6d 7B       		.byte	0x7b
 6418 1d6e 00       		.sleb128 0
 6419 1d6f 00       		.byte	0
 6420 1d70 2A       		.uleb128 0x2a
 6421 1d71 CC000000 		.4byte	.LVL99
 6422 1d75 EF1F0000 		.4byte	0x1fef
 6423 1d79 901D0000 		.4byte	0x1d90
 6424 1d7d 20       		.uleb128 0x20
 6425 1d7e 01       		.uleb128 0x1
ARM GAS  /tmp/cc0h7QKQ.s 			page 169


 6426 1d7f 52       		.byte	0x52
 6427 1d80 02       		.uleb128 0x2
 6428 1d81 09       		.byte	0x9
 6429 1d82 FF       		.byte	0xff
 6430 1d83 20       		.uleb128 0x20
 6431 1d84 01       		.uleb128 0x1
 6432 1d85 51       		.byte	0x51
 6433 1d86 02       		.uleb128 0x2
 6434 1d87 79       		.byte	0x79
 6435 1d88 00       		.sleb128 0
 6436 1d89 20       		.uleb128 0x20
 6437 1d8a 01       		.uleb128 0x1
 6438 1d8b 50       		.byte	0x50
 6439 1d8c 02       		.uleb128 0x2
 6440 1d8d 74       		.byte	0x74
 6441 1d8e 00       		.sleb128 0
 6442 1d8f 00       		.byte	0
 6443 1d90 2A       		.uleb128 0x2a
 6444 1d91 D8000000 		.4byte	.LVL101
 6445 1d95 0E200000 		.4byte	0x200e
 6446 1d99 A41D0000 		.4byte	0x1da4
 6447 1d9d 20       		.uleb128 0x20
 6448 1d9e 01       		.uleb128 0x1
 6449 1d9f 51       		.byte	0x51
 6450 1da0 02       		.uleb128 0x2
 6451 1da1 7A       		.byte	0x7a
 6452 1da2 00       		.sleb128 0
 6453 1da3 00       		.byte	0
 6454 1da4 2A       		.uleb128 0x2a
 6455 1da5 F0000000 		.4byte	.LVL104
 6456 1da9 42200000 		.4byte	0x2042
 6457 1dad C41D0000 		.4byte	0x1dc4
 6458 1db1 20       		.uleb128 0x20
 6459 1db2 01       		.uleb128 0x1
 6460 1db3 52       		.byte	0x52
 6461 1db4 02       		.uleb128 0x2
 6462 1db5 09       		.byte	0x9
 6463 1db6 FF       		.byte	0xff
 6464 1db7 20       		.uleb128 0x20
 6465 1db8 01       		.uleb128 0x1
 6466 1db9 51       		.byte	0x51
 6467 1dba 02       		.uleb128 0x2
 6468 1dbb 08       		.byte	0x8
 6469 1dbc 41       		.byte	0x41
 6470 1dbd 20       		.uleb128 0x20
 6471 1dbe 01       		.uleb128 0x1
 6472 1dbf 50       		.byte	0x50
 6473 1dc0 02       		.uleb128 0x2
 6474 1dc1 74       		.byte	0x74
 6475 1dc2 00       		.sleb128 0
 6476 1dc3 00       		.byte	0
 6477 1dc4 2A       		.uleb128 0x2a
 6478 1dc5 FC000000 		.4byte	.LVL106
 6479 1dc9 0E200000 		.4byte	0x200e
 6480 1dcd D81D0000 		.4byte	0x1dd8
 6481 1dd1 20       		.uleb128 0x20
 6482 1dd2 01       		.uleb128 0x1
ARM GAS  /tmp/cc0h7QKQ.s 			page 170


 6483 1dd3 51       		.byte	0x51
 6484 1dd4 02       		.uleb128 0x2
 6485 1dd5 7A       		.byte	0x7a
 6486 1dd6 00       		.sleb128 0
 6487 1dd7 00       		.byte	0
 6488 1dd8 2A       		.uleb128 0x2a
 6489 1dd9 18010000 		.4byte	.LVL109
 6490 1ddd 0E200000 		.4byte	0x200e
 6491 1de1 EF1D0000 		.4byte	0x1def
 6492 1de5 20       		.uleb128 0x20
 6493 1de6 01       		.uleb128 0x1
 6494 1de7 51       		.byte	0x51
 6495 1de8 05       		.uleb128 0x5
 6496 1de9 03       		.byte	0x3
 6497 1dea 84000000 		.4byte	.LC26
 6498 1dee 00       		.byte	0
 6499 1def 2A       		.uleb128 0x2a
 6500 1df0 32010000 		.4byte	.LVL111
 6501 1df4 0E200000 		.4byte	0x200e
 6502 1df8 061E0000 		.4byte	0x1e06
 6503 1dfc 20       		.uleb128 0x20
 6504 1dfd 01       		.uleb128 0x1
 6505 1dfe 51       		.byte	0x51
 6506 1dff 05       		.uleb128 0x5
 6507 1e00 03       		.byte	0x3
 6508 1e01 90000000 		.4byte	.LC28
 6509 1e05 00       		.byte	0
 6510 1e06 2A       		.uleb128 0x2a
 6511 1e07 4E010000 		.4byte	.LVL112
 6512 1e0b 0E200000 		.4byte	0x200e
 6513 1e0f 1D1E0000 		.4byte	0x1e1d
 6514 1e13 20       		.uleb128 0x20
 6515 1e14 01       		.uleb128 0x1
 6516 1e15 51       		.byte	0x51
 6517 1e16 05       		.uleb128 0x5
 6518 1e17 03       		.byte	0x3
 6519 1e18 9C000000 		.4byte	.LC30
 6520 1e1c 00       		.byte	0
 6521 1e1d 2A       		.uleb128 0x2a
 6522 1e1e 64010000 		.4byte	.LVL114
 6523 1e22 7B200000 		.4byte	0x207b
 6524 1e26 3D1E0000 		.4byte	0x1e3d
 6525 1e2a 20       		.uleb128 0x20
 6526 1e2b 01       		.uleb128 0x1
 6527 1e2c 52       		.byte	0x52
 6528 1e2d 02       		.uleb128 0x2
 6529 1e2e 09       		.byte	0x9
 6530 1e2f FF       		.byte	0xff
 6531 1e30 20       		.uleb128 0x20
 6532 1e31 01       		.uleb128 0x1
 6533 1e32 51       		.byte	0x51
 6534 1e33 02       		.uleb128 0x2
 6535 1e34 91       		.byte	0x91
 6536 1e35 54       		.sleb128 -44
 6537 1e36 20       		.uleb128 0x20
 6538 1e37 01       		.uleb128 0x1
 6539 1e38 50       		.byte	0x50
ARM GAS  /tmp/cc0h7QKQ.s 			page 171


 6540 1e39 02       		.uleb128 0x2
 6541 1e3a 74       		.byte	0x74
 6542 1e3b 00       		.sleb128 0
 6543 1e3c 00       		.byte	0
 6544 1e3d 2A       		.uleb128 0x2a
 6545 1e3e 70010000 		.4byte	.LVL116
 6546 1e42 0E200000 		.4byte	0x200e
 6547 1e46 511E0000 		.4byte	0x1e51
 6548 1e4a 20       		.uleb128 0x20
 6549 1e4b 01       		.uleb128 0x1
 6550 1e4c 51       		.byte	0x51
 6551 1e4d 02       		.uleb128 0x2
 6552 1e4e 7A       		.byte	0x7a
 6553 1e4f 00       		.sleb128 0
 6554 1e50 00       		.byte	0
 6555 1e51 2F       		.uleb128 0x2f
 6556 1e52 7E010000 		.4byte	.LVL117
 6557 1e56 E0200000 		.4byte	0x20e0
 6558 1e5a 2A       		.uleb128 0x2a
 6559 1e5b 92010000 		.4byte	.LVL119
 6560 1e5f F1200000 		.4byte	0x20f1
 6561 1e63 7A1E0000 		.4byte	0x1e7a
 6562 1e67 20       		.uleb128 0x20
 6563 1e68 01       		.uleb128 0x1
 6564 1e69 51       		.byte	0x51
 6565 1e6a 05       		.uleb128 0x5
 6566 1e6b 03       		.byte	0x3
 6567 1e6c BC000000 		.4byte	.LC34
 6568 1e70 20       		.uleb128 0x20
 6569 1e71 01       		.uleb128 0x1
 6570 1e72 50       		.byte	0x50
 6571 1e73 05       		.uleb128 0x5
 6572 1e74 03       		.byte	0x3
 6573 1e75 B4000000 		.4byte	.LC32
 6574 1e79 00       		.byte	0
 6575 1e7a 2A       		.uleb128 0x2a
 6576 1e7b A6010000 		.4byte	.LVL120
 6577 1e7f EF1F0000 		.4byte	0x1fef
 6578 1e83 9A1E0000 		.4byte	0x1e9a
 6579 1e87 20       		.uleb128 0x20
 6580 1e88 01       		.uleb128 0x1
 6581 1e89 52       		.byte	0x52
 6582 1e8a 02       		.uleb128 0x2
 6583 1e8b 09       		.byte	0x9
 6584 1e8c FF       		.byte	0xff
 6585 1e8d 20       		.uleb128 0x20
 6586 1e8e 01       		.uleb128 0x1
 6587 1e8f 51       		.byte	0x51
 6588 1e90 02       		.uleb128 0x2
 6589 1e91 08       		.byte	0x8
 6590 1e92 46       		.byte	0x46
 6591 1e93 20       		.uleb128 0x20
 6592 1e94 01       		.uleb128 0x1
 6593 1e95 50       		.byte	0x50
 6594 1e96 02       		.uleb128 0x2
 6595 1e97 74       		.byte	0x74
 6596 1e98 00       		.sleb128 0
ARM GAS  /tmp/cc0h7QKQ.s 			page 172


 6597 1e99 00       		.byte	0
 6598 1e9a 2A       		.uleb128 0x2a
 6599 1e9b B2010000 		.4byte	.LVL122
 6600 1e9f 0E200000 		.4byte	0x200e
 6601 1ea3 AE1E0000 		.4byte	0x1eae
 6602 1ea7 20       		.uleb128 0x20
 6603 1ea8 01       		.uleb128 0x1
 6604 1ea9 51       		.byte	0x51
 6605 1eaa 02       		.uleb128 0x2
 6606 1eab 7A       		.byte	0x7a
 6607 1eac 00       		.sleb128 0
 6608 1ead 00       		.byte	0
 6609 1eae 2A       		.uleb128 0x2a
 6610 1eaf C2010000 		.4byte	.LVL123
 6611 1eb3 7B200000 		.4byte	0x207b
 6612 1eb7 CE1E0000 		.4byte	0x1ece
 6613 1ebb 20       		.uleb128 0x20
 6614 1ebc 01       		.uleb128 0x1
 6615 1ebd 52       		.byte	0x52
 6616 1ebe 02       		.uleb128 0x2
 6617 1ebf 09       		.byte	0x9
 6618 1ec0 FF       		.byte	0xff
 6619 1ec1 20       		.uleb128 0x20
 6620 1ec2 01       		.uleb128 0x1
 6621 1ec3 51       		.byte	0x51
 6622 1ec4 02       		.uleb128 0x2
 6623 1ec5 91       		.byte	0x91
 6624 1ec6 54       		.sleb128 -44
 6625 1ec7 20       		.uleb128 0x20
 6626 1ec8 01       		.uleb128 0x1
 6627 1ec9 50       		.byte	0x50
 6628 1eca 02       		.uleb128 0x2
 6629 1ecb 74       		.byte	0x74
 6630 1ecc 00       		.sleb128 0
 6631 1ecd 00       		.byte	0
 6632 1ece 2A       		.uleb128 0x2a
 6633 1ecf CE010000 		.4byte	.LVL125
 6634 1ed3 0E200000 		.4byte	0x200e
 6635 1ed7 E21E0000 		.4byte	0x1ee2
 6636 1edb 20       		.uleb128 0x20
 6637 1edc 01       		.uleb128 0x1
 6638 1edd 51       		.byte	0x51
 6639 1ede 02       		.uleb128 0x2
 6640 1edf 7A       		.byte	0x7a
 6641 1ee0 00       		.sleb128 0
 6642 1ee1 00       		.byte	0
 6643 1ee2 2A       		.uleb128 0x2a
 6644 1ee3 EA010000 		.4byte	.LVL127
 6645 1ee7 0E200000 		.4byte	0x200e
 6646 1eeb F61E0000 		.4byte	0x1ef6
 6647 1eef 20       		.uleb128 0x20
 6648 1ef0 01       		.uleb128 0x1
 6649 1ef1 51       		.byte	0x51
 6650 1ef2 02       		.uleb128 0x2
 6651 1ef3 76       		.byte	0x76
 6652 1ef4 00       		.sleb128 0
 6653 1ef5 00       		.byte	0
ARM GAS  /tmp/cc0h7QKQ.s 			page 173


 6654 1ef6 2A       		.uleb128 0x2a
 6655 1ef7 02020000 		.4byte	.LVL129
 6656 1efb 0E200000 		.4byte	0x200e
 6657 1eff 0A1F0000 		.4byte	0x1f0a
 6658 1f03 20       		.uleb128 0x20
 6659 1f04 01       		.uleb128 0x1
 6660 1f05 51       		.byte	0x51
 6661 1f06 02       		.uleb128 0x2
 6662 1f07 77       		.byte	0x77
 6663 1f08 00       		.sleb128 0
 6664 1f09 00       		.byte	0
 6665 1f0a 2A       		.uleb128 0x2a
 6666 1f0b 1C020000 		.4byte	.LVL130
 6667 1f0f 0E200000 		.4byte	0x200e
 6668 1f13 1E1F0000 		.4byte	0x1f1e
 6669 1f17 20       		.uleb128 0x20
 6670 1f18 01       		.uleb128 0x1
 6671 1f19 51       		.byte	0x51
 6672 1f1a 02       		.uleb128 0x2
 6673 1f1b 78       		.byte	0x78
 6674 1f1c 00       		.sleb128 0
 6675 1f1d 00       		.byte	0
 6676 1f1e 1F       		.uleb128 0x1f
 6677 1f1f 34020000 		.4byte	.LVL131
 6678 1f23 0E200000 		.4byte	0x200e
 6679 1f27 20       		.uleb128 0x20
 6680 1f28 01       		.uleb128 0x1
 6681 1f29 51       		.byte	0x51
 6682 1f2a 02       		.uleb128 0x2
 6683 1f2b 7B       		.byte	0x7b
 6684 1f2c 00       		.sleb128 0
 6685 1f2d 00       		.byte	0
 6686 1f2e 00       		.byte	0
 6687 1f2f 1C       		.uleb128 0x1c
 6688 1f30 10010000 		.4byte	0x110
 6689 1f34 3F1F0000 		.4byte	0x1f3f
 6690 1f38 1D       		.uleb128 0x1d
 6691 1f39 29040000 		.4byte	0x429
 6692 1f3d 03       		.byte	0x3
 6693 1f3e 00       		.byte	0
 6694 1f3f 2C       		.uleb128 0x2c
 6695 1f40 EC030000 		.4byte	.LASF122
 6696 1f44 01       		.byte	0x1
 6697 1f45 36       		.byte	0x36
 6698 1f46 2F1F0000 		.4byte	0x1f2f
 6699 1f4a 05       		.uleb128 0x5
 6700 1f4b 03       		.byte	0x3
 6701 1f4c 00000000 		.4byte	mb_buffer
 6702 1f50 30       		.uleb128 0x30
 6703 1f51 6D623100 		.ascii	"mb1\000"
 6704 1f55 01       		.byte	0x1
 6705 1f56 37       		.byte	0x37
 6706 1f57 37060000 		.4byte	0x637
 6707 1f5b 05       		.uleb128 0x5
 6708 1f5c 03       		.byte	0x3
 6709 1f5d 00000000 		.4byte	mb1
 6710 1f61 2C       		.uleb128 0x2c
ARM GAS  /tmp/cc0h7QKQ.s 			page 174


 6711 1f62 B6050000 		.4byte	.LASF123
 6712 1f66 01       		.byte	0x1
 6713 1f67 A8       		.byte	0xa8
 6714 1f68 721F0000 		.4byte	0x1f72
 6715 1f6c 05       		.uleb128 0x5
 6716 1f6d 03       		.byte	0x3
 6717 1f6e 00000000 		.4byte	test_008_001
 6718 1f72 12       		.uleb128 0x12
 6719 1f73 89060000 		.4byte	0x689
 6720 1f77 23       		.uleb128 0x23
 6721 1f78 C3050000 		.4byte	.LASF124
 6722 1f7c 01       		.byte	0x1
 6723 1f7d 2201     		.2byte	0x122
 6724 1f7f 721F0000 		.4byte	0x1f72
 6725 1f83 05       		.uleb128 0x5
 6726 1f84 03       		.byte	0x3
 6727 1f85 00000000 		.4byte	test_008_002
 6728 1f89 23       		.uleb128 0x23
 6729 1f8a 4A050000 		.4byte	.LASF125
 6730 1f8e 01       		.byte	0x1
 6731 1f8f 7101     		.2byte	0x171
 6732 1f91 721F0000 		.4byte	0x1f72
 6733 1f95 05       		.uleb128 0x5
 6734 1f96 03       		.byte	0x3
 6735 1f97 00000000 		.4byte	test_008_003
 6736 1f9b 31       		.uleb128 0x31
 6737 1f9c 636800   		.ascii	"ch\000"
 6738 1f9f 09       		.byte	0x9
 6739 1fa0 D201     		.2byte	0x1d2
 6740 1fa2 DC030000 		.4byte	0x3dc
 6741 1fa6 32       		.uleb128 0x32
 6742 1fa7 5F030000 		.4byte	.LASF126
 6743 1fab 0E       		.byte	0xe
 6744 1fac 9E       		.byte	0x9e
 6745 1fad 37000000 		.4byte	0x37
 6746 1fb1 1C       		.uleb128 0x1c
 6747 1fb2 C11F0000 		.4byte	0x1fc1
 6748 1fb6 C11F0000 		.4byte	0x1fc1
 6749 1fba 1D       		.uleb128 0x1d
 6750 1fbb 29040000 		.4byte	0x429
 6751 1fbf 03       		.byte	0x3
 6752 1fc0 00       		.byte	0
 6753 1fc1 0A       		.uleb128 0xa
 6754 1fc2 04       		.byte	0x4
 6755 1fc3 721F0000 		.4byte	0x1f72
 6756 1fc7 33       		.uleb128 0x33
 6757 1fc8 4B000000 		.4byte	.LASF127
 6758 1fcc 01       		.byte	0x1
 6759 1fcd 7F01     		.2byte	0x17f
 6760 1fcf D91F0000 		.4byte	0x1fd9
 6761 1fd3 05       		.uleb128 0x5
 6762 1fd4 03       		.byte	0x3
 6763 1fd5 00000000 		.4byte	test_sequence_008
 6764 1fd9 12       		.uleb128 0x12
 6765 1fda B11F0000 		.4byte	0x1fb1
 6766 1fde 34       		.uleb128 0x34
 6767 1fdf 45020000 		.4byte	.LASF135
ARM GAS  /tmp/cc0h7QKQ.s 			page 175


 6768 1fe3 03       		.byte	0x3
 6769 1fe4 6F       		.byte	0x6f
 6770 1fe5 EF1F0000 		.4byte	0x1fef
 6771 1fe9 0D       		.uleb128 0xd
 6772 1fea 35070000 		.4byte	0x735
 6773 1fee 00       		.byte	0
 6774 1fef 35       		.uleb128 0x35
 6775 1ff0 18060000 		.4byte	.LASF128
 6776 1ff4 03       		.byte	0x3
 6777 1ff5 71       		.byte	0x71
 6778 1ff6 10010000 		.4byte	0x110
 6779 1ffa 0E200000 		.4byte	0x200e
 6780 1ffe 0D       		.uleb128 0xd
 6781 1fff 35070000 		.4byte	0x735
 6782 2003 0D       		.uleb128 0xd
 6783 2004 10010000 		.4byte	0x110
 6784 2008 0D       		.uleb128 0xd
 6785 2009 31010000 		.4byte	0x131
 6786 200d 00       		.byte	0
 6787 200e 35       		.uleb128 0x35
 6788 200f DE000000 		.4byte	.LASF129
 6789 2013 0E       		.byte	0xe
 6790 2014 A6       		.byte	0xa6
 6791 2015 42060000 		.4byte	0x642
 6792 2019 28200000 		.4byte	0x2028
 6793 201d 0D       		.uleb128 0xd
 6794 201e 42060000 		.4byte	0x642
 6795 2022 0D       		.uleb128 0xd
 6796 2023 A1050000 		.4byte	0x5a1
 6797 2027 00       		.byte	0
 6798 2028 35       		.uleb128 0x35
 6799 2029 96040000 		.4byte	.LASF130
 6800 202d 03       		.byte	0x3
 6801 202e 73       		.byte	0x73
 6802 202f 10010000 		.4byte	0x110
 6803 2033 42200000 		.4byte	0x2042
 6804 2037 0D       		.uleb128 0xd
 6805 2038 35070000 		.4byte	0x735
 6806 203c 0D       		.uleb128 0xd
 6807 203d 10010000 		.4byte	0x110
 6808 2041 00       		.byte	0
 6809 2042 35       		.uleb128 0x35
 6810 2043 BE040000 		.4byte	.LASF131
 6811 2047 03       		.byte	0x3
 6812 2048 74       		.byte	0x74
 6813 2049 10010000 		.4byte	0x110
 6814 204d 61200000 		.4byte	0x2061
 6815 2051 0D       		.uleb128 0xd
 6816 2052 35070000 		.4byte	0x735
 6817 2056 0D       		.uleb128 0xd
 6818 2057 10010000 		.4byte	0x110
 6819 205b 0D       		.uleb128 0xd
 6820 205c 31010000 		.4byte	0x131
 6821 2060 00       		.byte	0
 6822 2061 35       		.uleb128 0x35
 6823 2062 69030000 		.4byte	.LASF132
 6824 2066 03       		.byte	0x3
ARM GAS  /tmp/cc0h7QKQ.s 			page 176


 6825 2067 76       		.byte	0x76
 6826 2068 10010000 		.4byte	0x110
 6827 206c 7B200000 		.4byte	0x207b
 6828 2070 0D       		.uleb128 0xd
 6829 2071 35070000 		.4byte	0x735
 6830 2075 0D       		.uleb128 0xd
 6831 2076 10010000 		.4byte	0x110
 6832 207a 00       		.byte	0
 6833 207b 35       		.uleb128 0x35
 6834 207c CC040000 		.4byte	.LASF133
 6835 2080 03       		.byte	0x3
 6836 2081 77       		.byte	0x77
 6837 2082 10010000 		.4byte	0x110
 6838 2086 9A200000 		.4byte	0x209a
 6839 208a 0D       		.uleb128 0xd
 6840 208b 35070000 		.4byte	0x735
 6841 208f 0D       		.uleb128 0xd
 6842 2090 31060000 		.4byte	0x631
 6843 2094 0D       		.uleb128 0xd
 6844 2095 31010000 		.4byte	0x131
 6845 2099 00       		.byte	0
 6846 209a 35       		.uleb128 0x35
 6847 209b A0040000 		.4byte	.LASF134
 6848 209f 03       		.byte	0x3
 6849 20a0 79       		.byte	0x79
 6850 20a1 10010000 		.4byte	0x110
 6851 20a5 B4200000 		.4byte	0x20b4
 6852 20a9 0D       		.uleb128 0xd
 6853 20aa 35070000 		.4byte	0x735
 6854 20ae 0D       		.uleb128 0xd
 6855 20af 31060000 		.4byte	0x631
 6856 20b3 00       		.byte	0
 6857 20b4 34       		.uleb128 0x34
 6858 20b5 36040000 		.4byte	.LASF136
 6859 20b9 03       		.byte	0x3
 6860 20ba 6E       		.byte	0x6e
 6861 20bb CF200000 		.4byte	0x20cf
 6862 20bf 0D       		.uleb128 0xd
 6863 20c0 35070000 		.4byte	0x735
 6864 20c4 0D       		.uleb128 0xd
 6865 20c5 31060000 		.4byte	0x631
 6866 20c9 0D       		.uleb128 0xd
 6867 20ca 26010000 		.4byte	0x126
 6868 20ce 00       		.byte	0
 6869 20cf 34       		.uleb128 0x34
 6870 20d0 0D060000 		.4byte	.LASF137
 6871 20d4 03       		.byte	0x3
 6872 20d5 70       		.byte	0x70
 6873 20d6 E0200000 		.4byte	0x20e0
 6874 20da 0D       		.uleb128 0xd
 6875 20db 35070000 		.4byte	0x735
 6876 20df 00       		.byte	0
 6877 20e0 34       		.uleb128 0x34
 6878 20e1 78000000 		.4byte	.LASF138
 6879 20e5 0E       		.byte	0xe
 6880 20e6 AE       		.byte	0xae
 6881 20e7 F1200000 		.4byte	0x20f1
ARM GAS  /tmp/cc0h7QKQ.s 			page 177


 6882 20eb 0D       		.uleb128 0xd
 6883 20ec AC050000 		.4byte	0x5ac
 6884 20f0 00       		.byte	0
 6885 20f1 35       		.uleb128 0x35
 6886 20f2 DD060000 		.4byte	.LASF139
 6887 20f6 0E       		.byte	0xe
 6888 20f7 A7       		.byte	0xa7
 6889 20f8 42060000 		.4byte	0x642
 6890 20fc 0B210000 		.4byte	0x210b
 6891 2100 0D       		.uleb128 0xd
 6892 2101 0B210000 		.4byte	0x210b
 6893 2105 0D       		.uleb128 0xd
 6894 2106 A1050000 		.4byte	0x5a1
 6895 210a 00       		.byte	0
 6896 210b 0A       		.uleb128 0xa
 6897 210c 04       		.byte	0x4
 6898 210d AC050000 		.4byte	0x5ac
 6899 2111 00       		.byte	0
 6900              		.section	.debug_abbrev,"",%progbits
 6901              	.Ldebug_abbrev0:
 6902 0000 01       		.uleb128 0x1
 6903 0001 11       		.uleb128 0x11
 6904 0002 01       		.byte	0x1
 6905 0003 25       		.uleb128 0x25
 6906 0004 0E       		.uleb128 0xe
 6907 0005 13       		.uleb128 0x13
 6908 0006 0B       		.uleb128 0xb
 6909 0007 03       		.uleb128 0x3
 6910 0008 0E       		.uleb128 0xe
 6911 0009 1B       		.uleb128 0x1b
 6912 000a 0E       		.uleb128 0xe
 6913 000b 55       		.uleb128 0x55
 6914 000c 17       		.uleb128 0x17
 6915 000d 11       		.uleb128 0x11
 6916 000e 01       		.uleb128 0x1
 6917 000f 10       		.uleb128 0x10
 6918 0010 17       		.uleb128 0x17
 6919 0011 00       		.byte	0
 6920 0012 00       		.byte	0
 6921 0013 02       		.uleb128 0x2
 6922 0014 24       		.uleb128 0x24
 6923 0015 00       		.byte	0
 6924 0016 0B       		.uleb128 0xb
 6925 0017 0B       		.uleb128 0xb
 6926 0018 3E       		.uleb128 0x3e
 6927 0019 0B       		.uleb128 0xb
 6928 001a 03       		.uleb128 0x3
 6929 001b 08       		.uleb128 0x8
 6930 001c 00       		.byte	0
 6931 001d 00       		.byte	0
 6932 001e 03       		.uleb128 0x3
 6933 001f 16       		.uleb128 0x16
 6934 0020 00       		.byte	0
 6935 0021 03       		.uleb128 0x3
 6936 0022 0E       		.uleb128 0xe
 6937 0023 3A       		.uleb128 0x3a
 6938 0024 0B       		.uleb128 0xb
ARM GAS  /tmp/cc0h7QKQ.s 			page 178


 6939 0025 3B       		.uleb128 0x3b
 6940 0026 0B       		.uleb128 0xb
 6941 0027 49       		.uleb128 0x49
 6942 0028 13       		.uleb128 0x13
 6943 0029 00       		.byte	0
 6944 002a 00       		.byte	0
 6945 002b 04       		.uleb128 0x4
 6946 002c 24       		.uleb128 0x24
 6947 002d 00       		.byte	0
 6948 002e 0B       		.uleb128 0xb
 6949 002f 0B       		.uleb128 0xb
 6950 0030 3E       		.uleb128 0x3e
 6951 0031 0B       		.uleb128 0xb
 6952 0032 03       		.uleb128 0x3
 6953 0033 0E       		.uleb128 0xe
 6954 0034 00       		.byte	0
 6955 0035 00       		.byte	0
 6956 0036 05       		.uleb128 0x5
 6957 0037 13       		.uleb128 0x13
 6958 0038 01       		.byte	0x1
 6959 0039 03       		.uleb128 0x3
 6960 003a 0E       		.uleb128 0xe
 6961 003b 0B       		.uleb128 0xb
 6962 003c 0B       		.uleb128 0xb
 6963 003d 3A       		.uleb128 0x3a
 6964 003e 0B       		.uleb128 0xb
 6965 003f 3B       		.uleb128 0x3b
 6966 0040 0B       		.uleb128 0xb
 6967 0041 01       		.uleb128 0x1
 6968 0042 13       		.uleb128 0x13
 6969 0043 00       		.byte	0
 6970 0044 00       		.byte	0
 6971 0045 06       		.uleb128 0x6
 6972 0046 0D       		.uleb128 0xd
 6973 0047 00       		.byte	0
 6974 0048 03       		.uleb128 0x3
 6975 0049 0E       		.uleb128 0xe
 6976 004a 3A       		.uleb128 0x3a
 6977 004b 0B       		.uleb128 0xb
 6978 004c 3B       		.uleb128 0x3b
 6979 004d 0B       		.uleb128 0xb
 6980 004e 49       		.uleb128 0x49
 6981 004f 13       		.uleb128 0x13
 6982 0050 38       		.uleb128 0x38
 6983 0051 0B       		.uleb128 0xb
 6984 0052 00       		.byte	0
 6985 0053 00       		.byte	0
 6986 0054 07       		.uleb128 0x7
 6987 0055 0D       		.uleb128 0xd
 6988 0056 00       		.byte	0
 6989 0057 03       		.uleb128 0x3
 6990 0058 08       		.uleb128 0x8
 6991 0059 3A       		.uleb128 0x3a
 6992 005a 0B       		.uleb128 0xb
 6993 005b 3B       		.uleb128 0x3b
 6994 005c 0B       		.uleb128 0xb
 6995 005d 49       		.uleb128 0x49
ARM GAS  /tmp/cc0h7QKQ.s 			page 179


 6996 005e 13       		.uleb128 0x13
 6997 005f 38       		.uleb128 0x38
 6998 0060 0B       		.uleb128 0xb
 6999 0061 00       		.byte	0
 7000 0062 00       		.byte	0
 7001 0063 08       		.uleb128 0x8
 7002 0064 0D       		.uleb128 0xd
 7003 0065 00       		.byte	0
 7004 0066 03       		.uleb128 0x3
 7005 0067 08       		.uleb128 0x8
 7006 0068 3A       		.uleb128 0x3a
 7007 0069 0B       		.uleb128 0xb
 7008 006a 3B       		.uleb128 0x3b
 7009 006b 05       		.uleb128 0x5
 7010 006c 49       		.uleb128 0x49
 7011 006d 13       		.uleb128 0x13
 7012 006e 38       		.uleb128 0x38
 7013 006f 0B       		.uleb128 0xb
 7014 0070 00       		.byte	0
 7015 0071 00       		.byte	0
 7016 0072 09       		.uleb128 0x9
 7017 0073 0D       		.uleb128 0xd
 7018 0074 00       		.byte	0
 7019 0075 03       		.uleb128 0x3
 7020 0076 0E       		.uleb128 0xe
 7021 0077 3A       		.uleb128 0x3a
 7022 0078 0B       		.uleb128 0xb
 7023 0079 3B       		.uleb128 0x3b
 7024 007a 05       		.uleb128 0x5
 7025 007b 49       		.uleb128 0x49
 7026 007c 13       		.uleb128 0x13
 7027 007d 38       		.uleb128 0x38
 7028 007e 0B       		.uleb128 0xb
 7029 007f 00       		.byte	0
 7030 0080 00       		.byte	0
 7031 0081 0A       		.uleb128 0xa
 7032 0082 0F       		.uleb128 0xf
 7033 0083 00       		.byte	0
 7034 0084 0B       		.uleb128 0xb
 7035 0085 0B       		.uleb128 0xb
 7036 0086 49       		.uleb128 0x49
 7037 0087 13       		.uleb128 0x13
 7038 0088 00       		.byte	0
 7039 0089 00       		.byte	0
 7040 008a 0B       		.uleb128 0xb
 7041 008b 13       		.uleb128 0x13
 7042 008c 01       		.byte	0x1
 7043 008d 03       		.uleb128 0x3
 7044 008e 0E       		.uleb128 0xe
 7045 008f 0B       		.uleb128 0xb
 7046 0090 0B       		.uleb128 0xb
 7047 0091 3A       		.uleb128 0x3a
 7048 0092 0B       		.uleb128 0xb
 7049 0093 3B       		.uleb128 0x3b
 7050 0094 05       		.uleb128 0x5
 7051 0095 01       		.uleb128 0x1
 7052 0096 13       		.uleb128 0x13
ARM GAS  /tmp/cc0h7QKQ.s 			page 180


 7053 0097 00       		.byte	0
 7054 0098 00       		.byte	0
 7055 0099 0C       		.uleb128 0xc
 7056 009a 15       		.uleb128 0x15
 7057 009b 01       		.byte	0x1
 7058 009c 27       		.uleb128 0x27
 7059 009d 19       		.uleb128 0x19
 7060 009e 01       		.uleb128 0x1
 7061 009f 13       		.uleb128 0x13
 7062 00a0 00       		.byte	0
 7063 00a1 00       		.byte	0
 7064 00a2 0D       		.uleb128 0xd
 7065 00a3 05       		.uleb128 0x5
 7066 00a4 00       		.byte	0
 7067 00a5 49       		.uleb128 0x49
 7068 00a6 13       		.uleb128 0x13
 7069 00a7 00       		.byte	0
 7070 00a8 00       		.byte	0
 7071 00a9 0E       		.uleb128 0xe
 7072 00aa 0F       		.uleb128 0xf
 7073 00ab 00       		.byte	0
 7074 00ac 0B       		.uleb128 0xb
 7075 00ad 0B       		.uleb128 0xb
 7076 00ae 00       		.byte	0
 7077 00af 00       		.byte	0
 7078 00b0 0F       		.uleb128 0xf
 7079 00b1 17       		.uleb128 0x17
 7080 00b2 01       		.byte	0x1
 7081 00b3 0B       		.uleb128 0xb
 7082 00b4 0B       		.uleb128 0xb
 7083 00b5 3A       		.uleb128 0x3a
 7084 00b6 0B       		.uleb128 0xb
 7085 00b7 3B       		.uleb128 0x3b
 7086 00b8 0B       		.uleb128 0xb
 7087 00b9 01       		.uleb128 0x1
 7088 00ba 13       		.uleb128 0x13
 7089 00bb 00       		.byte	0
 7090 00bc 00       		.byte	0
 7091 00bd 10       		.uleb128 0x10
 7092 00be 0D       		.uleb128 0xd
 7093 00bf 00       		.byte	0
 7094 00c0 03       		.uleb128 0x3
 7095 00c1 0E       		.uleb128 0xe
 7096 00c2 3A       		.uleb128 0x3a
 7097 00c3 0B       		.uleb128 0xb
 7098 00c4 3B       		.uleb128 0x3b
 7099 00c5 0B       		.uleb128 0xb
 7100 00c6 49       		.uleb128 0x49
 7101 00c7 13       		.uleb128 0x13
 7102 00c8 00       		.byte	0
 7103 00c9 00       		.byte	0
 7104 00ca 11       		.uleb128 0x11
 7105 00cb 0D       		.uleb128 0xd
 7106 00cc 00       		.byte	0
 7107 00cd 03       		.uleb128 0x3
 7108 00ce 0E       		.uleb128 0xe
 7109 00cf 3A       		.uleb128 0x3a
ARM GAS  /tmp/cc0h7QKQ.s 			page 181


 7110 00d0 0B       		.uleb128 0xb
 7111 00d1 3B       		.uleb128 0x3b
 7112 00d2 05       		.uleb128 0x5
 7113 00d3 49       		.uleb128 0x49
 7114 00d4 13       		.uleb128 0x13
 7115 00d5 00       		.byte	0
 7116 00d6 00       		.byte	0
 7117 00d7 12       		.uleb128 0x12
 7118 00d8 26       		.uleb128 0x26
 7119 00d9 00       		.byte	0
 7120 00da 49       		.uleb128 0x49
 7121 00db 13       		.uleb128 0x13
 7122 00dc 00       		.byte	0
 7123 00dd 00       		.byte	0
 7124 00de 13       		.uleb128 0x13
 7125 00df 35       		.uleb128 0x35
 7126 00e0 00       		.byte	0
 7127 00e1 49       		.uleb128 0x49
 7128 00e2 13       		.uleb128 0x13
 7129 00e3 00       		.byte	0
 7130 00e4 00       		.byte	0
 7131 00e5 14       		.uleb128 0x14
 7132 00e6 13       		.uleb128 0x13
 7133 00e7 01       		.byte	0x1
 7134 00e8 0B       		.uleb128 0xb
 7135 00e9 0B       		.uleb128 0xb
 7136 00ea 3A       		.uleb128 0x3a
 7137 00eb 0B       		.uleb128 0xb
 7138 00ec 3B       		.uleb128 0x3b
 7139 00ed 0B       		.uleb128 0xb
 7140 00ee 01       		.uleb128 0x1
 7141 00ef 13       		.uleb128 0x13
 7142 00f0 00       		.byte	0
 7143 00f1 00       		.byte	0
 7144 00f2 15       		.uleb128 0x15
 7145 00f3 15       		.uleb128 0x15
 7146 00f4 00       		.byte	0
 7147 00f5 27       		.uleb128 0x27
 7148 00f6 19       		.uleb128 0x19
 7149 00f7 00       		.byte	0
 7150 00f8 00       		.byte	0
 7151 00f9 16       		.uleb128 0x16
 7152 00fa 2E       		.uleb128 0x2e
 7153 00fb 00       		.byte	0
 7154 00fc 03       		.uleb128 0x3
 7155 00fd 0E       		.uleb128 0xe
 7156 00fe 3A       		.uleb128 0x3a
 7157 00ff 0B       		.uleb128 0xb
 7158 0100 3B       		.uleb128 0x3b
 7159 0101 0B       		.uleb128 0xb
 7160 0102 27       		.uleb128 0x27
 7161 0103 19       		.uleb128 0x19
 7162 0104 20       		.uleb128 0x20
 7163 0105 0B       		.uleb128 0xb
 7164 0106 00       		.byte	0
 7165 0107 00       		.byte	0
 7166 0108 17       		.uleb128 0x17
ARM GAS  /tmp/cc0h7QKQ.s 			page 182


 7167 0109 2E       		.uleb128 0x2e
 7168 010a 00       		.byte	0
 7169 010b 03       		.uleb128 0x3
 7170 010c 0E       		.uleb128 0xe
 7171 010d 3A       		.uleb128 0x3a
 7172 010e 0B       		.uleb128 0xb
 7173 010f 3B       		.uleb128 0x3b
 7174 0110 05       		.uleb128 0x5
 7175 0111 27       		.uleb128 0x27
 7176 0112 19       		.uleb128 0x19
 7177 0113 20       		.uleb128 0x20
 7178 0114 0B       		.uleb128 0xb
 7179 0115 00       		.byte	0
 7180 0116 00       		.byte	0
 7181 0117 18       		.uleb128 0x18
 7182 0118 2E       		.uleb128 0x2e
 7183 0119 01       		.byte	0x1
 7184 011a 03       		.uleb128 0x3
 7185 011b 0E       		.uleb128 0xe
 7186 011c 3A       		.uleb128 0x3a
 7187 011d 0B       		.uleb128 0xb
 7188 011e 3B       		.uleb128 0x3b
 7189 011f 0B       		.uleb128 0xb
 7190 0120 27       		.uleb128 0x27
 7191 0121 19       		.uleb128 0x19
 7192 0122 49       		.uleb128 0x49
 7193 0123 13       		.uleb128 0x13
 7194 0124 20       		.uleb128 0x20
 7195 0125 0B       		.uleb128 0xb
 7196 0126 01       		.uleb128 0x1
 7197 0127 13       		.uleb128 0x13
 7198 0128 00       		.byte	0
 7199 0129 00       		.byte	0
 7200 012a 19       		.uleb128 0x19
 7201 012b 05       		.uleb128 0x5
 7202 012c 00       		.byte	0
 7203 012d 03       		.uleb128 0x3
 7204 012e 08       		.uleb128 0x8
 7205 012f 3A       		.uleb128 0x3a
 7206 0130 0B       		.uleb128 0xb
 7207 0131 3B       		.uleb128 0x3b
 7208 0132 0B       		.uleb128 0xb
 7209 0133 49       		.uleb128 0x49
 7210 0134 13       		.uleb128 0x13
 7211 0135 00       		.byte	0
 7212 0136 00       		.byte	0
 7213 0137 1A       		.uleb128 0x1a
 7214 0138 2E       		.uleb128 0x2e
 7215 0139 01       		.byte	0x1
 7216 013a 03       		.uleb128 0x3
 7217 013b 0E       		.uleb128 0xe
 7218 013c 3A       		.uleb128 0x3a
 7219 013d 0B       		.uleb128 0xb
 7220 013e 3B       		.uleb128 0x3b
 7221 013f 05       		.uleb128 0x5
 7222 0140 27       		.uleb128 0x27
 7223 0141 19       		.uleb128 0x19
ARM GAS  /tmp/cc0h7QKQ.s 			page 183


 7224 0142 20       		.uleb128 0x20
 7225 0143 0B       		.uleb128 0xb
 7226 0144 01       		.uleb128 0x1
 7227 0145 13       		.uleb128 0x13
 7228 0146 00       		.byte	0
 7229 0147 00       		.byte	0
 7230 0148 1B       		.uleb128 0x1b
 7231 0149 34       		.uleb128 0x34
 7232 014a 00       		.byte	0
 7233 014b 03       		.uleb128 0x3
 7234 014c 0E       		.uleb128 0xe
 7235 014d 49       		.uleb128 0x49
 7236 014e 13       		.uleb128 0x13
 7237 014f 34       		.uleb128 0x34
 7238 0150 19       		.uleb128 0x19
 7239 0151 1C       		.uleb128 0x1c
 7240 0152 0E       		.uleb128 0xe
 7241 0153 00       		.byte	0
 7242 0154 00       		.byte	0
 7243 0155 1C       		.uleb128 0x1c
 7244 0156 01       		.uleb128 0x1
 7245 0157 01       		.byte	0x1
 7246 0158 49       		.uleb128 0x49
 7247 0159 13       		.uleb128 0x13
 7248 015a 01       		.uleb128 0x1
 7249 015b 13       		.uleb128 0x13
 7250 015c 00       		.byte	0
 7251 015d 00       		.byte	0
 7252 015e 1D       		.uleb128 0x1d
 7253 015f 21       		.uleb128 0x21
 7254 0160 00       		.byte	0
 7255 0161 49       		.uleb128 0x49
 7256 0162 13       		.uleb128 0x13
 7257 0163 2F       		.uleb128 0x2f
 7258 0164 0B       		.uleb128 0xb
 7259 0165 00       		.byte	0
 7260 0166 00       		.byte	0
 7261 0167 1E       		.uleb128 0x1e
 7262 0168 2E       		.uleb128 0x2e
 7263 0169 01       		.byte	0x1
 7264 016a 03       		.uleb128 0x3
 7265 016b 0E       		.uleb128 0xe
 7266 016c 3A       		.uleb128 0x3a
 7267 016d 0B       		.uleb128 0xb
 7268 016e 3B       		.uleb128 0x3b
 7269 016f 05       		.uleb128 0x5
 7270 0170 27       		.uleb128 0x27
 7271 0171 19       		.uleb128 0x19
 7272 0172 11       		.uleb128 0x11
 7273 0173 01       		.uleb128 0x1
 7274 0174 12       		.uleb128 0x12
 7275 0175 06       		.uleb128 0x6
 7276 0176 40       		.uleb128 0x40
 7277 0177 18       		.uleb128 0x18
 7278 0178 9742     		.uleb128 0x2117
 7279 017a 19       		.uleb128 0x19
 7280 017b 01       		.uleb128 0x1
ARM GAS  /tmp/cc0h7QKQ.s 			page 184


 7281 017c 13       		.uleb128 0x13
 7282 017d 00       		.byte	0
 7283 017e 00       		.byte	0
 7284 017f 1F       		.uleb128 0x1f
 7285 0180 898201   		.uleb128 0x4109
 7286 0183 01       		.byte	0x1
 7287 0184 11       		.uleb128 0x11
 7288 0185 01       		.uleb128 0x1
 7289 0186 31       		.uleb128 0x31
 7290 0187 13       		.uleb128 0x13
 7291 0188 00       		.byte	0
 7292 0189 00       		.byte	0
 7293 018a 20       		.uleb128 0x20
 7294 018b 8A8201   		.uleb128 0x410a
 7295 018e 00       		.byte	0
 7296 018f 02       		.uleb128 0x2
 7297 0190 18       		.uleb128 0x18
 7298 0191 9142     		.uleb128 0x2111
 7299 0193 18       		.uleb128 0x18
 7300 0194 00       		.byte	0
 7301 0195 00       		.byte	0
 7302 0196 21       		.uleb128 0x21
 7303 0197 2E       		.uleb128 0x2e
 7304 0198 01       		.byte	0x1
 7305 0199 03       		.uleb128 0x3
 7306 019a 0E       		.uleb128 0xe
 7307 019b 3A       		.uleb128 0x3a
 7308 019c 0B       		.uleb128 0xb
 7309 019d 3B       		.uleb128 0x3b
 7310 019e 0B       		.uleb128 0xb
 7311 019f 27       		.uleb128 0x27
 7312 01a0 19       		.uleb128 0x19
 7313 01a1 11       		.uleb128 0x11
 7314 01a2 01       		.uleb128 0x1
 7315 01a3 12       		.uleb128 0x12
 7316 01a4 06       		.uleb128 0x6
 7317 01a5 40       		.uleb128 0x40
 7318 01a6 18       		.uleb128 0x18
 7319 01a7 9742     		.uleb128 0x2117
 7320 01a9 19       		.uleb128 0x19
 7321 01aa 01       		.uleb128 0x1
 7322 01ab 13       		.uleb128 0x13
 7323 01ac 00       		.byte	0
 7324 01ad 00       		.byte	0
 7325 01ae 22       		.uleb128 0x22
 7326 01af 34       		.uleb128 0x34
 7327 01b0 00       		.byte	0
 7328 01b1 03       		.uleb128 0x3
 7329 01b2 0E       		.uleb128 0xe
 7330 01b3 3A       		.uleb128 0x3a
 7331 01b4 0B       		.uleb128 0xb
 7332 01b5 3B       		.uleb128 0x3b
 7333 01b6 05       		.uleb128 0x5
 7334 01b7 49       		.uleb128 0x49
 7335 01b8 13       		.uleb128 0x13
 7336 01b9 02       		.uleb128 0x2
 7337 01ba 17       		.uleb128 0x17
ARM GAS  /tmp/cc0h7QKQ.s 			page 185


 7338 01bb 00       		.byte	0
 7339 01bc 00       		.byte	0
 7340 01bd 23       		.uleb128 0x23
 7341 01be 34       		.uleb128 0x34
 7342 01bf 00       		.byte	0
 7343 01c0 03       		.uleb128 0x3
 7344 01c1 0E       		.uleb128 0xe
 7345 01c2 3A       		.uleb128 0x3a
 7346 01c3 0B       		.uleb128 0xb
 7347 01c4 3B       		.uleb128 0x3b
 7348 01c5 05       		.uleb128 0x5
 7349 01c6 49       		.uleb128 0x49
 7350 01c7 13       		.uleb128 0x13
 7351 01c8 02       		.uleb128 0x2
 7352 01c9 18       		.uleb128 0x18
 7353 01ca 00       		.byte	0
 7354 01cb 00       		.byte	0
 7355 01cc 24       		.uleb128 0x24
 7356 01cd 34       		.uleb128 0x34
 7357 01ce 00       		.byte	0
 7358 01cf 03       		.uleb128 0x3
 7359 01d0 08       		.uleb128 0x8
 7360 01d1 3A       		.uleb128 0x3a
 7361 01d2 0B       		.uleb128 0xb
 7362 01d3 3B       		.uleb128 0x3b
 7363 01d4 05       		.uleb128 0x5
 7364 01d5 49       		.uleb128 0x49
 7365 01d6 13       		.uleb128 0x13
 7366 01d7 02       		.uleb128 0x2
 7367 01d8 17       		.uleb128 0x17
 7368 01d9 00       		.byte	0
 7369 01da 00       		.byte	0
 7370 01db 25       		.uleb128 0x25
 7371 01dc 1D       		.uleb128 0x1d
 7372 01dd 01       		.byte	0x1
 7373 01de 31       		.uleb128 0x31
 7374 01df 13       		.uleb128 0x13
 7375 01e0 11       		.uleb128 0x11
 7376 01e1 01       		.uleb128 0x1
 7377 01e2 12       		.uleb128 0x12
 7378 01e3 06       		.uleb128 0x6
 7379 01e4 58       		.uleb128 0x58
 7380 01e5 0B       		.uleb128 0xb
 7381 01e6 59       		.uleb128 0x59
 7382 01e7 05       		.uleb128 0x5
 7383 01e8 01       		.uleb128 0x1
 7384 01e9 13       		.uleb128 0x13
 7385 01ea 00       		.byte	0
 7386 01eb 00       		.byte	0
 7387 01ec 26       		.uleb128 0x26
 7388 01ed 1D       		.uleb128 0x1d
 7389 01ee 01       		.byte	0x1
 7390 01ef 31       		.uleb128 0x31
 7391 01f0 13       		.uleb128 0x13
 7392 01f1 11       		.uleb128 0x11
 7393 01f2 01       		.uleb128 0x1
 7394 01f3 12       		.uleb128 0x12
ARM GAS  /tmp/cc0h7QKQ.s 			page 186


 7395 01f4 06       		.uleb128 0x6
 7396 01f5 58       		.uleb128 0x58
 7397 01f6 0B       		.uleb128 0xb
 7398 01f7 59       		.uleb128 0x59
 7399 01f8 05       		.uleb128 0x5
 7400 01f9 00       		.byte	0
 7401 01fa 00       		.byte	0
 7402 01fb 27       		.uleb128 0x27
 7403 01fc 1D       		.uleb128 0x1d
 7404 01fd 00       		.byte	0
 7405 01fe 31       		.uleb128 0x31
 7406 01ff 13       		.uleb128 0x13
 7407 0200 11       		.uleb128 0x11
 7408 0201 01       		.uleb128 0x1
 7409 0202 12       		.uleb128 0x12
 7410 0203 06       		.uleb128 0x6
 7411 0204 58       		.uleb128 0x58
 7412 0205 0B       		.uleb128 0xb
 7413 0206 59       		.uleb128 0x59
 7414 0207 05       		.uleb128 0x5
 7415 0208 00       		.byte	0
 7416 0209 00       		.byte	0
 7417 020a 28       		.uleb128 0x28
 7418 020b 0B       		.uleb128 0xb
 7419 020c 01       		.byte	0x1
 7420 020d 11       		.uleb128 0x11
 7421 020e 01       		.uleb128 0x1
 7422 020f 12       		.uleb128 0x12
 7423 0210 06       		.uleb128 0x6
 7424 0211 00       		.byte	0
 7425 0212 00       		.byte	0
 7426 0213 29       		.uleb128 0x29
 7427 0214 34       		.uleb128 0x34
 7428 0215 00       		.byte	0
 7429 0216 31       		.uleb128 0x31
 7430 0217 13       		.uleb128 0x13
 7431 0218 00       		.byte	0
 7432 0219 00       		.byte	0
 7433 021a 2A       		.uleb128 0x2a
 7434 021b 898201   		.uleb128 0x4109
 7435 021e 01       		.byte	0x1
 7436 021f 11       		.uleb128 0x11
 7437 0220 01       		.uleb128 0x1
 7438 0221 31       		.uleb128 0x31
 7439 0222 13       		.uleb128 0x13
 7440 0223 01       		.uleb128 0x1
 7441 0224 13       		.uleb128 0x13
 7442 0225 00       		.byte	0
 7443 0226 00       		.byte	0
 7444 0227 2B       		.uleb128 0x2b
 7445 0228 34       		.uleb128 0x34
 7446 0229 00       		.byte	0
 7447 022a 03       		.uleb128 0x3
 7448 022b 0E       		.uleb128 0xe
 7449 022c 3A       		.uleb128 0x3a
 7450 022d 0B       		.uleb128 0xb
 7451 022e 3B       		.uleb128 0x3b
ARM GAS  /tmp/cc0h7QKQ.s 			page 187


 7452 022f 0B       		.uleb128 0xb
 7453 0230 49       		.uleb128 0x49
 7454 0231 13       		.uleb128 0x13
 7455 0232 02       		.uleb128 0x2
 7456 0233 17       		.uleb128 0x17
 7457 0234 00       		.byte	0
 7458 0235 00       		.byte	0
 7459 0236 2C       		.uleb128 0x2c
 7460 0237 34       		.uleb128 0x34
 7461 0238 00       		.byte	0
 7462 0239 03       		.uleb128 0x3
 7463 023a 0E       		.uleb128 0xe
 7464 023b 3A       		.uleb128 0x3a
 7465 023c 0B       		.uleb128 0xb
 7466 023d 3B       		.uleb128 0x3b
 7467 023e 0B       		.uleb128 0xb
 7468 023f 49       		.uleb128 0x49
 7469 0240 13       		.uleb128 0x13
 7470 0241 02       		.uleb128 0x2
 7471 0242 18       		.uleb128 0x18
 7472 0243 00       		.byte	0
 7473 0244 00       		.byte	0
 7474 0245 2D       		.uleb128 0x2d
 7475 0246 34       		.uleb128 0x34
 7476 0247 00       		.byte	0
 7477 0248 03       		.uleb128 0x3
 7478 0249 08       		.uleb128 0x8
 7479 024a 3A       		.uleb128 0x3a
 7480 024b 0B       		.uleb128 0xb
 7481 024c 3B       		.uleb128 0x3b
 7482 024d 0B       		.uleb128 0xb
 7483 024e 49       		.uleb128 0x49
 7484 024f 13       		.uleb128 0x13
 7485 0250 02       		.uleb128 0x2
 7486 0251 17       		.uleb128 0x17
 7487 0252 00       		.byte	0
 7488 0253 00       		.byte	0
 7489 0254 2E       		.uleb128 0x2e
 7490 0255 1D       		.uleb128 0x1d
 7491 0256 01       		.byte	0x1
 7492 0257 31       		.uleb128 0x31
 7493 0258 13       		.uleb128 0x13
 7494 0259 11       		.uleb128 0x11
 7495 025a 01       		.uleb128 0x1
 7496 025b 12       		.uleb128 0x12
 7497 025c 06       		.uleb128 0x6
 7498 025d 58       		.uleb128 0x58
 7499 025e 0B       		.uleb128 0xb
 7500 025f 59       		.uleb128 0x59
 7501 0260 0B       		.uleb128 0xb
 7502 0261 01       		.uleb128 0x1
 7503 0262 13       		.uleb128 0x13
 7504 0263 00       		.byte	0
 7505 0264 00       		.byte	0
 7506 0265 2F       		.uleb128 0x2f
 7507 0266 898201   		.uleb128 0x4109
 7508 0269 00       		.byte	0
ARM GAS  /tmp/cc0h7QKQ.s 			page 188


 7509 026a 11       		.uleb128 0x11
 7510 026b 01       		.uleb128 0x1
 7511 026c 31       		.uleb128 0x31
 7512 026d 13       		.uleb128 0x13
 7513 026e 00       		.byte	0
 7514 026f 00       		.byte	0
 7515 0270 30       		.uleb128 0x30
 7516 0271 34       		.uleb128 0x34
 7517 0272 00       		.byte	0
 7518 0273 03       		.uleb128 0x3
 7519 0274 08       		.uleb128 0x8
 7520 0275 3A       		.uleb128 0x3a
 7521 0276 0B       		.uleb128 0xb
 7522 0277 3B       		.uleb128 0x3b
 7523 0278 0B       		.uleb128 0xb
 7524 0279 49       		.uleb128 0x49
 7525 027a 13       		.uleb128 0x13
 7526 027b 02       		.uleb128 0x2
 7527 027c 18       		.uleb128 0x18
 7528 027d 00       		.byte	0
 7529 027e 00       		.byte	0
 7530 027f 31       		.uleb128 0x31
 7531 0280 34       		.uleb128 0x34
 7532 0281 00       		.byte	0
 7533 0282 03       		.uleb128 0x3
 7534 0283 08       		.uleb128 0x8
 7535 0284 3A       		.uleb128 0x3a
 7536 0285 0B       		.uleb128 0xb
 7537 0286 3B       		.uleb128 0x3b
 7538 0287 05       		.uleb128 0x5
 7539 0288 49       		.uleb128 0x49
 7540 0289 13       		.uleb128 0x13
 7541 028a 3F       		.uleb128 0x3f
 7542 028b 19       		.uleb128 0x19
 7543 028c 3C       		.uleb128 0x3c
 7544 028d 19       		.uleb128 0x19
 7545 028e 00       		.byte	0
 7546 028f 00       		.byte	0
 7547 0290 32       		.uleb128 0x32
 7548 0291 34       		.uleb128 0x34
 7549 0292 00       		.byte	0
 7550 0293 03       		.uleb128 0x3
 7551 0294 0E       		.uleb128 0xe
 7552 0295 3A       		.uleb128 0x3a
 7553 0296 0B       		.uleb128 0xb
 7554 0297 3B       		.uleb128 0x3b
 7555 0298 0B       		.uleb128 0xb
 7556 0299 49       		.uleb128 0x49
 7557 029a 13       		.uleb128 0x13
 7558 029b 3F       		.uleb128 0x3f
 7559 029c 19       		.uleb128 0x19
 7560 029d 3C       		.uleb128 0x3c
 7561 029e 19       		.uleb128 0x19
 7562 029f 00       		.byte	0
 7563 02a0 00       		.byte	0
 7564 02a1 33       		.uleb128 0x33
 7565 02a2 34       		.uleb128 0x34
ARM GAS  /tmp/cc0h7QKQ.s 			page 189


 7566 02a3 00       		.byte	0
 7567 02a4 03       		.uleb128 0x3
 7568 02a5 0E       		.uleb128 0xe
 7569 02a6 3A       		.uleb128 0x3a
 7570 02a7 0B       		.uleb128 0xb
 7571 02a8 3B       		.uleb128 0x3b
 7572 02a9 05       		.uleb128 0x5
 7573 02aa 49       		.uleb128 0x49
 7574 02ab 13       		.uleb128 0x13
 7575 02ac 3F       		.uleb128 0x3f
 7576 02ad 19       		.uleb128 0x19
 7577 02ae 02       		.uleb128 0x2
 7578 02af 18       		.uleb128 0x18
 7579 02b0 00       		.byte	0
 7580 02b1 00       		.byte	0
 7581 02b2 34       		.uleb128 0x34
 7582 02b3 2E       		.uleb128 0x2e
 7583 02b4 01       		.byte	0x1
 7584 02b5 3F       		.uleb128 0x3f
 7585 02b6 19       		.uleb128 0x19
 7586 02b7 03       		.uleb128 0x3
 7587 02b8 0E       		.uleb128 0xe
 7588 02b9 3A       		.uleb128 0x3a
 7589 02ba 0B       		.uleb128 0xb
 7590 02bb 3B       		.uleb128 0x3b
 7591 02bc 0B       		.uleb128 0xb
 7592 02bd 27       		.uleb128 0x27
 7593 02be 19       		.uleb128 0x19
 7594 02bf 3C       		.uleb128 0x3c
 7595 02c0 19       		.uleb128 0x19
 7596 02c1 01       		.uleb128 0x1
 7597 02c2 13       		.uleb128 0x13
 7598 02c3 00       		.byte	0
 7599 02c4 00       		.byte	0
 7600 02c5 35       		.uleb128 0x35
 7601 02c6 2E       		.uleb128 0x2e
 7602 02c7 01       		.byte	0x1
 7603 02c8 3F       		.uleb128 0x3f
 7604 02c9 19       		.uleb128 0x19
 7605 02ca 03       		.uleb128 0x3
 7606 02cb 0E       		.uleb128 0xe
 7607 02cc 3A       		.uleb128 0x3a
 7608 02cd 0B       		.uleb128 0xb
 7609 02ce 3B       		.uleb128 0x3b
 7610 02cf 0B       		.uleb128 0xb
 7611 02d0 27       		.uleb128 0x27
 7612 02d1 19       		.uleb128 0x19
 7613 02d2 49       		.uleb128 0x49
 7614 02d3 13       		.uleb128 0x13
 7615 02d4 3C       		.uleb128 0x3c
 7616 02d5 19       		.uleb128 0x19
 7617 02d6 01       		.uleb128 0x1
 7618 02d7 13       		.uleb128 0x13
 7619 02d8 00       		.byte	0
 7620 02d9 00       		.byte	0
 7621 02da 00       		.byte	0
 7622              		.section	.debug_loc,"",%progbits
ARM GAS  /tmp/cc0h7QKQ.s 			page 190


 7623              	.Ldebug_loc0:
 7624              	.LLST0:
 7625 0000 1A000000 		.4byte	.LVL5
 7626 0004 1E000000 		.4byte	.LVL6
 7627 0008 0100     		.2byte	0x1
 7628 000a 50       		.byte	0x50
 7629 000b 3E000000 		.4byte	.LVL10
 7630 000f 40000000 		.4byte	.LVL11
 7631 0013 0100     		.2byte	0x1
 7632 0015 50       		.byte	0x50
 7633 0016 40000000 		.4byte	.LVL11
 7634 001a 44000000 		.4byte	.LVL12
 7635 001e 0300     		.2byte	0x3
 7636 0020 70       		.byte	0x70
 7637 0021 7F       		.sleb128 -1
 7638 0022 9F       		.byte	0x9f
 7639 0023 5E000000 		.4byte	.LVL16
 7640 0027 62000000 		.4byte	.LVL17
 7641 002b 0100     		.2byte	0x1
 7642 002d 50       		.byte	0x50
 7643 002e 62000000 		.4byte	.LVL17
 7644 0032 66000000 		.4byte	.LVL18
 7645 0036 0300     		.2byte	0x3
 7646 0038 70       		.byte	0x70
 7647 0039 7F       		.sleb128 -1
 7648 003a 9F       		.byte	0x9f
 7649 003b 7C000000 		.4byte	.LVL20
 7650 003f 7E000000 		.4byte	.LVL21
 7651 0043 0100     		.2byte	0x1
 7652 0045 50       		.byte	0x50
 7653 0046 7E000000 		.4byte	.LVL21
 7654 004a 82000000 		.4byte	.LVL22
 7655 004e 0300     		.2byte	0x3
 7656 0050 70       		.byte	0x70
 7657 0051 7F       		.sleb128 -1
 7658 0052 9F       		.byte	0x9f
 7659 0053 98000000 		.4byte	.LVL24
 7660 0057 9C000000 		.4byte	.LVL25
 7661 005b 0100     		.2byte	0x1
 7662 005d 50       		.byte	0x50
 7663 005e 9C000000 		.4byte	.LVL25
 7664 0062 A0000000 		.4byte	.LVL26
 7665 0066 0300     		.2byte	0x3
 7666 0068 70       		.byte	0x70
 7667 0069 7F       		.sleb128 -1
 7668 006a 9F       		.byte	0x9f
 7669 006b C4000000 		.4byte	.LVL29
 7670 006f C6000000 		.4byte	.LVL30
 7671 0073 0100     		.2byte	0x1
 7672 0075 50       		.byte	0x50
 7673 0076 C6000000 		.4byte	.LVL30
 7674 007a CA000000 		.4byte	.LVL31
 7675 007e 0300     		.2byte	0x3
 7676 0080 70       		.byte	0x70
 7677 0081 7F       		.sleb128 -1
 7678 0082 9F       		.byte	0x9f
 7679 0083 E0000000 		.4byte	.LVL33
ARM GAS  /tmp/cc0h7QKQ.s 			page 191


 7680 0087 E4000000 		.4byte	.LVL34
 7681 008b 0100     		.2byte	0x1
 7682 008d 50       		.byte	0x50
 7683 008e E4000000 		.4byte	.LVL34
 7684 0092 E8000000 		.4byte	.LVL35
 7685 0096 0300     		.2byte	0x3
 7686 0098 70       		.byte	0x70
 7687 0099 7F       		.sleb128 -1
 7688 009a 9F       		.byte	0x9f
 7689 009b 00000000 		.4byte	0
 7690 009f 00000000 		.4byte	0
 7691              	.LLST1:
 7692 00a3 0E000000 		.4byte	.LVL3
 7693 00a7 10000000 		.4byte	.LVL4
 7694 00ab 0200     		.2byte	0x2
 7695 00ad 30       		.byte	0x30
 7696 00ae 9F       		.byte	0x9f
 7697 00af 10000000 		.4byte	.LVL4
 7698 00b3 2A000000 		.4byte	.LVL8
 7699 00b7 0400     		.2byte	0x4
 7700 00b9 74       		.byte	0x74
 7701 00ba BE7F     		.sleb128 -66
 7702 00bc 9F       		.byte	0x9f
 7703 00bd 2A000000 		.4byte	.LVL8
 7704 00c1 2C000000 		.4byte	.LVL9
 7705 00c5 0400     		.2byte	0x4
 7706 00c7 74       		.byte	0x74
 7707 00c8 BF7F     		.sleb128 -65
 7708 00ca 9F       		.byte	0x9f
 7709 00cb 2C000000 		.4byte	.LVL9
 7710 00cf 50000000 		.4byte	.LVL14
 7711 00d3 0400     		.2byte	0x4
 7712 00d5 74       		.byte	0x74
 7713 00d6 BE7F     		.sleb128 -66
 7714 00d8 9F       		.byte	0x9f
 7715 00d9 54000000 		.4byte	.LVL15
 7716 00dd 04010000 		.4byte	.LFE187
 7717 00e1 0400     		.2byte	0x4
 7718 00e3 74       		.byte	0x74
 7719 00e4 BE7F     		.sleb128 -66
 7720 00e6 9F       		.byte	0x9f
 7721 00e7 00000000 		.4byte	0
 7722 00eb 00000000 		.4byte	0
 7723              	.LLST2:
 7724 00ef D0000000 		.4byte	.LVL53
 7725 00f3 D6000000 		.4byte	.LVL54
 7726 00f7 0100     		.2byte	0x1
 7727 00f9 50       		.byte	0x50
 7728 00fa F6000000 		.4byte	.LVL58
 7729 00fe FC000000 		.4byte	.LVL59
 7730 0102 0100     		.2byte	0x1
 7731 0104 50       		.byte	0x50
 7732 0105 6C010000 		.4byte	.LVL68
 7733 0109 72010000 		.4byte	.LVL69
 7734 010d 0100     		.2byte	0x1
 7735 010f 50       		.byte	0x50
 7736 0110 B0010000 		.4byte	.LVL74
ARM GAS  /tmp/cc0h7QKQ.s 			page 192


 7737 0114 B4010000 		.4byte	.LVL75
 7738 0118 0100     		.2byte	0x1
 7739 011a 50       		.byte	0x50
 7740 011b CC010000 		.4byte	.LVL77
 7741 011f D0010000 		.4byte	.LVL78
 7742 0123 0100     		.2byte	0x1
 7743 0125 50       		.byte	0x50
 7744 0126 00000000 		.4byte	0
 7745 012a 00000000 		.4byte	0
 7746              	.LLST3:
 7747 012e C0000000 		.4byte	.LVL51
 7748 0132 C6000000 		.4byte	.LVL52
 7749 0136 0200     		.2byte	0x2
 7750 0138 30       		.byte	0x30
 7751 0139 9F       		.byte	0x9f
 7752 013a C6000000 		.4byte	.LVL52
 7753 013e E2000000 		.4byte	.LVL56
 7754 0142 0400     		.2byte	0x4
 7755 0144 79       		.byte	0x79
 7756 0145 BE7F     		.sleb128 -66
 7757 0147 9F       		.byte	0x9f
 7758 0148 E2000000 		.4byte	.LVL56
 7759 014c E6000000 		.4byte	.LVL57
 7760 0150 0400     		.2byte	0x4
 7761 0152 79       		.byte	0x79
 7762 0153 BF7F     		.sleb128 -65
 7763 0155 9F       		.byte	0x9f
 7764 0156 E6000000 		.4byte	.LVL57
 7765 015a 0E010000 		.4byte	.LVL61
 7766 015e 0400     		.2byte	0x4
 7767 0160 79       		.byte	0x79
 7768 0161 BE7F     		.sleb128 -66
 7769 0163 9F       		.byte	0x9f
 7770 0164 62010000 		.4byte	.LVL67
 7771 0168 88010000 		.4byte	.LVL71
 7772 016c 0500     		.2byte	0x5
 7773 016e 34       		.byte	0x34
 7774 016f 79       		.byte	0x79
 7775 0170 00       		.sleb128 0
 7776 0171 1C       		.byte	0x1c
 7777 0172 9F       		.byte	0x9f
 7778 0173 88010000 		.4byte	.LVL71
 7779 0177 8E010000 		.4byte	.LVL72
 7780 017b 0500     		.2byte	0x5
 7781 017d 35       		.byte	0x35
 7782 017e 79       		.byte	0x79
 7783 017f 00       		.sleb128 0
 7784 0180 1C       		.byte	0x1c
 7785 0181 9F       		.byte	0x9f
 7786 0182 8E010000 		.4byte	.LVL72
 7787 0186 78020000 		.4byte	.LFE184
 7788 018a 0500     		.2byte	0x5
 7789 018c 34       		.byte	0x34
 7790 018d 79       		.byte	0x79
 7791 018e 00       		.sleb128 0
 7792 018f 1C       		.byte	0x1c
 7793 0190 9F       		.byte	0x9f
ARM GAS  /tmp/cc0h7QKQ.s 			page 193


 7794 0191 00000000 		.4byte	0
 7795 0195 00000000 		.4byte	0
 7796              	.LLST4:
 7797 0199 CC000000 		.4byte	.LVL99
 7798 019d D0000000 		.4byte	.LVL100
 7799 01a1 0100     		.2byte	0x1
 7800 01a3 50       		.byte	0x50
 7801 01a4 F0000000 		.4byte	.LVL104
 7802 01a8 F4000000 		.4byte	.LVL105
 7803 01ac 0100     		.2byte	0x1
 7804 01ae 50       		.byte	0x50
 7805 01af 64010000 		.4byte	.LVL114
 7806 01b3 68010000 		.4byte	.LVL115
 7807 01b7 0100     		.2byte	0x1
 7808 01b9 50       		.byte	0x50
 7809 01ba A6010000 		.4byte	.LVL120
 7810 01be AA010000 		.4byte	.LVL121
 7811 01c2 0100     		.2byte	0x1
 7812 01c4 50       		.byte	0x50
 7813 01c5 C2010000 		.4byte	.LVL123
 7814 01c9 C6010000 		.4byte	.LVL124
 7815 01cd 0100     		.2byte	0x1
 7816 01cf 50       		.byte	0x50
 7817 01d0 00000000 		.4byte	0
 7818 01d4 00000000 		.4byte	0
 7819              	.LLST5:
 7820 01d8 BC000000 		.4byte	.LVL97
 7821 01dc C2000000 		.4byte	.LVL98
 7822 01e0 0200     		.2byte	0x2
 7823 01e2 30       		.byte	0x30
 7824 01e3 9F       		.byte	0x9f
 7825 01e4 C2000000 		.4byte	.LVL98
 7826 01e8 DC000000 		.4byte	.LVL102
 7827 01ec 0400     		.2byte	0x4
 7828 01ee 79       		.byte	0x79
 7829 01ef BE7F     		.sleb128 -66
 7830 01f1 9F       		.byte	0x9f
 7831 01f2 DC000000 		.4byte	.LVL102
 7832 01f6 E0000000 		.4byte	.LVL103
 7833 01fa 0400     		.2byte	0x4
 7834 01fc 79       		.byte	0x79
 7835 01fd BF7F     		.sleb128 -65
 7836 01ff 9F       		.byte	0x9f
 7837 0200 E0000000 		.4byte	.LVL103
 7838 0204 06010000 		.4byte	.LVL107
 7839 0208 0400     		.2byte	0x4
 7840 020a 79       		.byte	0x79
 7841 020b BE7F     		.sleb128 -66
 7842 020d 9F       		.byte	0x9f
 7843 020e 5A010000 		.4byte	.LVL113
 7844 0212 7E010000 		.4byte	.LVL117
 7845 0216 0500     		.2byte	0x5
 7846 0218 34       		.byte	0x34
 7847 0219 79       		.byte	0x79
 7848 021a 00       		.sleb128 0
 7849 021b 1C       		.byte	0x1c
 7850 021c 9F       		.byte	0x9f
ARM GAS  /tmp/cc0h7QKQ.s 			page 194


 7851 021d 7E010000 		.4byte	.LVL117
 7852 0221 84010000 		.4byte	.LVL118
 7853 0225 0500     		.2byte	0x5
 7854 0227 35       		.byte	0x35
 7855 0228 79       		.byte	0x79
 7856 0229 00       		.sleb128 0
 7857 022a 1C       		.byte	0x1c
 7858 022b 9F       		.byte	0x9f
 7859 022c 84010000 		.4byte	.LVL118
 7860 0230 70020000 		.4byte	.LFE181
 7861 0234 0500     		.2byte	0x5
 7862 0236 34       		.byte	0x34
 7863 0237 79       		.byte	0x79
 7864 0238 00       		.sleb128 0
 7865 0239 1C       		.byte	0x1c
 7866 023a 9F       		.byte	0x9f
 7867 023b 00000000 		.4byte	0
 7868 023f 00000000 		.4byte	0
 7869              		.section	.debug_aranges,"",%progbits
 7870 0000 5C000000 		.4byte	0x5c
 7871 0004 0200     		.2byte	0x2
 7872 0006 00000000 		.4byte	.Ldebug_info0
 7873 000a 04       		.byte	0x4
 7874 000b 00       		.byte	0
 7875 000c 0000     		.2byte	0
 7876 000e 0000     		.2byte	0
 7877 0010 00000000 		.4byte	.LFB186
 7878 0014 10000000 		.4byte	.LFE186-.LFB186
 7879 0018 00000000 		.4byte	.LFB183
 7880 001c 10000000 		.4byte	.LFE183-.LFB183
 7881 0020 00000000 		.4byte	.LFB180
 7882 0024 10000000 		.4byte	.LFE180-.LFB180
 7883 0028 00000000 		.4byte	.LFB187
 7884 002c 04010000 		.4byte	.LFE187-.LFB187
 7885 0030 00000000 		.4byte	.LFB185
 7886 0034 18000000 		.4byte	.LFE185-.LFB185
 7887 0038 00000000 		.4byte	.LFB182
 7888 003c 18000000 		.4byte	.LFE182-.LFB182
 7889 0040 00000000 		.4byte	.LFB179
 7890 0044 18000000 		.4byte	.LFE179-.LFB179
 7891 0048 00000000 		.4byte	.LFB184
 7892 004c 78020000 		.4byte	.LFE184-.LFB184
 7893 0050 00000000 		.4byte	.LFB181
 7894 0054 70020000 		.4byte	.LFE181-.LFB181
 7895 0058 00000000 		.4byte	0
 7896 005c 00000000 		.4byte	0
 7897              		.section	.debug_ranges,"",%progbits
 7898              	.Ldebug_ranges0:
 7899 0000 00000000 		.4byte	.LFB186
 7900 0004 10000000 		.4byte	.LFE186
 7901 0008 00000000 		.4byte	.LFB183
 7902 000c 10000000 		.4byte	.LFE183
 7903 0010 00000000 		.4byte	.LFB180
 7904 0014 10000000 		.4byte	.LFE180
 7905 0018 00000000 		.4byte	.LFB187
 7906 001c 04010000 		.4byte	.LFE187
 7907 0020 00000000 		.4byte	.LFB185
ARM GAS  /tmp/cc0h7QKQ.s 			page 195


 7908 0024 18000000 		.4byte	.LFE185
 7909 0028 00000000 		.4byte	.LFB182
 7910 002c 18000000 		.4byte	.LFE182
 7911 0030 00000000 		.4byte	.LFB179
 7912 0034 18000000 		.4byte	.LFE179
 7913 0038 00000000 		.4byte	.LFB184
 7914 003c 78020000 		.4byte	.LFE184
 7915 0040 00000000 		.4byte	.LFB181
 7916 0044 70020000 		.4byte	.LFE181
 7917 0048 00000000 		.4byte	0
 7918 004c 00000000 		.4byte	0
 7919              		.section	.debug_line,"",%progbits
 7920              	.Ldebug_line0:
 7921 0000 42050000 		.section	.debug_str,"MS",%progbits,1
 7921      02003902 
 7921      00000201 
 7921      FB0E0D00 
 7921      01010101 
 7922              	.LASF47:
 7923 0000 63685F74 		.ascii	"ch_threads_list\000"
 7923      68726561 
 7923      64735F6C 
 7923      69737400 
 7924              	.LASF82:
 7925 0010 77746D74 		.ascii	"wtmtxp\000"
 7925      787000
 7926              	.LASF72:
 7927 0017 72656761 		.ascii	"regarm_t\000"
 7927      726D5F74 
 7927      00
 7928              	.LASF36:
 7929 0020 666C6167 		.ascii	"flags\000"
 7929      7300
 7930              	.LASF27:
 7931 0026 73797374 		.ascii	"systime_t\000"
 7931      696D655F 
 7931      7400
 7932              	.LASF42:
 7933 0030 7265616C 		.ascii	"realprio\000"
 7933      7072696F 
 7933      00
 7934              	.LASF90:
 7935 0039 62756666 		.ascii	"buffer\000"
 7935      657200
 7936              	.LASF100:
 7937 0040 74657374 		.ascii	"testcase_t\000"
 7937      63617365 
 7937      5F7400
 7938              	.LASF127:
 7939 004b 74657374 		.ascii	"test_sequence_008\000"
 7939      5F736571 
 7939      75656E63 
 7939      655F3030 
 7939      3800
 7940              	.LASF40:
 7941 005d 6570656E 		.ascii	"epending\000"
 7941      64696E67 
ARM GAS  /tmp/cc0h7QKQ.s 			page 196


 7941      00
 7942              	.LASF0:
 7943 0066 756E7369 		.ascii	"unsigned int\000"
 7943      676E6564 
 7943      20696E74 
 7943      00
 7944              	.LASF48:
 7945 0073 6E657874 		.ascii	"next\000"
 7945      00
 7946              	.LASF138:
 7947 0078 74657374 		.ascii	"test_emit_token\000"
 7947      5F656D69 
 7947      745F746F 
 7947      6B656E00 
 7948              	.LASF45:
 7949 0088 74687265 		.ascii	"threads_list_t\000"
 7949      6164735F 
 7949      6C697374 
 7949      5F7400
 7950              	.LASF117:
 7951 0097 74657374 		.ascii	"test_008_003_setup\000"
 7951      5F303038 
 7951      5F303033 
 7951      5F736574 
 7951      757000
 7952              	.LASF8:
 7953 00aa 5F5F696E 		.ascii	"__int32_t\000"
 7953      7433325F 
 7953      7400
 7954              	.LASF37:
 7955 00b4 72656673 		.ascii	"refs\000"
 7955      00
 7956              	.LASF78:
 7957 00b9 77746F62 		.ascii	"wtobjp\000"
 7957      6A7000
 7958              	.LASF103:
 7959 00c0 706F7274 		.ascii	"port_lock\000"
 7959      5F6C6F63 
 7959      6B00
 7960              	.LASF69:
 7961 00ca 76746C69 		.ascii	"vtlist\000"
 7961      737400
 7962              	.LASF74:
 7963 00d1 706F7274 		.ascii	"port_context\000"
 7963      5F636F6E 
 7963      74657874 
 7963      00
 7964              	.LASF129:
 7965 00de 5F746573 		.ascii	"_test_assert\000"
 7965      745F6173 
 7965      73657274 
 7965      00
 7966              	.LASF53:
 7967 00eb 63685F72 		.ascii	"ch_ready_list\000"
 7967      65616479 
 7967      5F6C6973 
 7967      7400
ARM GAS  /tmp/cc0h7QKQ.s 			page 197


 7968              	.LASF59:
 7969 00f9 66756E63 		.ascii	"func\000"
 7969      00
 7970              	.LASF83:
 7971 00fe 65776D61 		.ascii	"ewmask\000"
 7971      736B00
 7972              	.LASF51:
 7973 0105 70726576 		.ascii	"prev\000"
 7973      00
 7974              	.LASF50:
 7975 010a 63685F74 		.ascii	"ch_threads_queue\000"
 7975      68726561 
 7975      64735F71 
 7975      75657565 
 7975      00
 7976              	.LASF141:
 7977 011b 2E2E2F2E 		.ascii	"../../../test/rt/source/test/test_sequence_008.c\000"
 7977      2E2F2E2E 
 7977      2F746573 
 7977      742F7274 
 7977      2F736F75 
 7978              	.LASF110:
 7979 014c 63684D42 		.ascii	"chMBGetUsedCountI\000"
 7979      47657455 
 7979      73656443 
 7979      6F756E74 
 7979      4900
 7980              	.LASF55:
 7981 015e 76746675 		.ascii	"vtfunc_t\000"
 7981      6E635F74 
 7981      00
 7982              	.LASF114:
 7983 0167 74657374 		.ascii	"test_008_003_execute\000"
 7983      5F303038 
 7983      5F303033 
 7983      5F657865 
 7983      63757465 
 7984              	.LASF64:
 7985 017c 63685F73 		.ascii	"ch_system_debug\000"
 7985      79737465 
 7985      6D5F6465 
 7985      62756700 
 7986              	.LASF112:
 7987 018c 74657374 		.ascii	"test_008_002_teardown\000"
 7987      5F303038 
 7987      5F303032 
 7987      5F746561 
 7987      72646F77 
 7988              	.LASF140:
 7989 01a2 474E5520 		.ascii	"GNU C 4.8.3 -mcpu=cortex-m0 -mno-thumb-interwork -m"
 7989      4320342E 
 7989      382E3320 
 7989      2D6D6370 
 7989      753D636F 
 7990 01d5 7468756D 		.ascii	"thumb -ggdb -O2 -fomit-frame-pointer -falign-functi"
 7990      62202D67 
 7990      67646220 
ARM GAS  /tmp/cc0h7QKQ.s 			page 198


 7990      2D4F3220 
 7990      2D666F6D 
 7991 0208 6F6E733D 		.ascii	"ons=16 -ffunction-sections -fdata-sections -fno-com"
 7991      3136202D 
 7991      6666756E 
 7991      6374696F 
 7991      6E2D7365 
 7992 023b 6D6F6E20 		.ascii	"mon -flto\000"
 7992      2D666C74 
 7992      6F00
 7993              	.LASF135:
 7994 0245 63684D42 		.ascii	"chMBReset\000"
 7994      52657365 
 7994      7400
 7995              	.LASF18:
 7996 024f 75696E74 		.ascii	"uint32_t\000"
 7996      33325F74 
 7996      00
 7997              	.LASF80:
 7998 0258 73656E74 		.ascii	"sentmsg\000"
 7998      6D736700 
 7999              	.LASF25:
 8000 0260 6576656E 		.ascii	"eventmask_t\000"
 8000      746D6173 
 8000      6B5F7400 
 8001              	.LASF93:
 8002 026c 66756C6C 		.ascii	"fullsem\000"
 8002      73656D00 
 8003              	.LASF84:
 8004 0274 63685F73 		.ascii	"ch_semaphore\000"
 8004      656D6170 
 8004      686F7265 
 8004      00
 8005              	.LASF23:
 8006 0281 74707269 		.ascii	"tprio_t\000"
 8006      6F5F7400 
 8007              	.LASF57:
 8008 0289 63685F76 		.ascii	"ch_virtual_timer\000"
 8008      69727475 
 8008      616C5F74 
 8008      696D6572 
 8008      00
 8009              	.LASF14:
 8010 029a 6C6F6E67 		.ascii	"long long unsigned int\000"
 8010      206C6F6E 
 8010      6720756E 
 8010      7369676E 
 8010      65642069 
 8011              	.LASF6:
 8012 02b1 5F5F7569 		.ascii	"__uint16_t\000"
 8012      6E743136 
 8012      5F7400
 8013              	.LASF26:
 8014 02bc 636E745F 		.ascii	"cnt_t\000"
 8014      7400
 8015              	.LASF143:
 8016 02c2 63685379 		.ascii	"chSysUnlock\000"
ARM GAS  /tmp/cc0h7QKQ.s 			page 199


 8016      73556E6C 
 8016      6F636B00 
 8017              	.LASF109:
 8018 02ce 6F73616C 		.ascii	"osalSysUnlock\000"
 8018      53797355 
 8018      6E6C6F63 
 8018      6B00
 8019              	.LASF91:
 8020 02dc 77727074 		.ascii	"wrptr\000"
 8020      7200
 8021              	.LASF86:
 8022 02e2 6F776E65 		.ascii	"owner\000"
 8022      7200
 8023              	.LASF88:
 8024 02e8 73656D61 		.ascii	"semaphore_t\000"
 8024      70686F72 
 8024      655F7400 
 8025              	.LASF49:
 8026 02f4 74687265 		.ascii	"threads_queue_t\000"
 8026      6164735F 
 8026      71756575 
 8026      655F7400 
 8027              	.LASF107:
 8028 0304 63685365 		.ascii	"chSemGetCounterI\000"
 8028      6D476574 
 8028      436F756E 
 8028      74657249 
 8028      00
 8029              	.LASF41:
 8030 0315 6D74786C 		.ascii	"mtxlist\000"
 8030      69737400 
 8031              	.LASF61:
 8032 031d 63685F76 		.ascii	"ch_virtual_timers_list\000"
 8032      69727475 
 8032      616C5F74 
 8032      696D6572 
 8032      735F6C69 
 8033              	.LASF28:
 8034 0334 74687265 		.ascii	"thread_t\000"
 8034      61645F74 
 8034      00
 8035              	.LASF2:
 8036 033d 73697A65 		.ascii	"size_t\000"
 8036      5F7400
 8037              	.LASF76:
 8038 0344 7264796D 		.ascii	"rdymsg\000"
 8038      736700
 8039              	.LASF101:
 8040 034b 5F5F6469 		.ascii	"__disable_irq\000"
 8040      7361626C 
 8040      655F6972 
 8040      7100
 8041              	.LASF96:
 8042 0359 5F426F6F 		.ascii	"_Bool\000"
 8042      6C00
 8043              	.LASF126:
 8044 035f 74657374 		.ascii	"test_step\000"
ARM GAS  /tmp/cc0h7QKQ.s 			page 200


 8044      5F737465 
 8044      7000
 8045              	.LASF132:
 8046 0369 63684D42 		.ascii	"chMBPostAheadI\000"
 8046      506F7374 
 8046      41686561 
 8046      644900
 8047              	.LASF95:
 8048 0378 6D61696C 		.ascii	"mailbox_t\000"
 8048      626F785F 
 8048      7400
 8049              	.LASF85:
 8050 0382 63685F6D 		.ascii	"ch_mutex\000"
 8050      75746578 
 8050      00
 8051              	.LASF13:
 8052 038b 5F5F7569 		.ascii	"__uint64_t\000"
 8052      6E743634 
 8052      5F7400
 8053              	.LASF105:
 8054 0396 63685379 		.ascii	"chSysLock\000"
 8054      734C6F63 
 8054      6B00
 8055              	.LASF94:
 8056 03a0 656D7074 		.ascii	"emptysem\000"
 8056      7973656D 
 8056      00
 8057              	.LASF30:
 8058 03a9 7072696F 		.ascii	"prio\000"
 8058      00
 8059              	.LASF111:
 8060 03ae 74657374 		.ascii	"test_008_003_teardown\000"
 8060      5F303038 
 8060      5F303033 
 8060      5F746561 
 8060      72646F77 
 8061              	.LASF87:
 8062 03c4 63686172 		.ascii	"char\000"
 8062      00
 8063              	.LASF44:
 8064 03c9 74687265 		.ascii	"thread_reference_t\000"
 8064      61645F72 
 8064      65666572 
 8064      656E6365 
 8064      5F7400
 8065              	.LASF34:
 8066 03dc 77616261 		.ascii	"wabase\000"
 8066      736500
 8067              	.LASF21:
 8068 03e3 74737461 		.ascii	"tstate_t\000"
 8068      74655F74 
 8068      00
 8069              	.LASF122:
 8070 03ec 6D625F62 		.ascii	"mb_buffer\000"
 8070      75666665 
 8070      7200
 8071              	.LASF15:
ARM GAS  /tmp/cc0h7QKQ.s 			page 201


 8072 03f6 75696E74 		.ascii	"uint8_t\000"
 8072      385F7400 
 8073              	.LASF39:
 8074 03fe 6D736771 		.ascii	"msgqueue\000"
 8074      75657565 
 8074      00
 8075              	.LASF46:
 8076 0407 63685F74 		.ascii	"ch_thread\000"
 8076      68726561 
 8076      6400
 8077              	.LASF99:
 8078 0411 65786563 		.ascii	"execute\000"
 8078      75746500 
 8079              	.LASF63:
 8080 0419 73797374 		.ascii	"system_debug_t\000"
 8080      656D5F64 
 8080      65627567 
 8080      5F7400
 8081              	.LASF12:
 8082 0428 6C6F6E67 		.ascii	"long long int\000"
 8082      206C6F6E 
 8082      6720696E 
 8082      7400
 8083              	.LASF136:
 8084 0436 63684D42 		.ascii	"chMBObjectInit\000"
 8084      4F626A65 
 8084      6374496E 
 8084      697400
 8085              	.LASF24:
 8086 0445 6D73675F 		.ascii	"msg_t\000"
 8086      7400
 8087              	.LASF98:
 8088 044b 74656172 		.ascii	"teardown\000"
 8088      646F776E 
 8088      00
 8089              	.LASF118:
 8090 0454 74657374 		.ascii	"test_008_002_setup\000"
 8090      5F303038 
 8090      5F303032 
 8090      5F736574 
 8090      757000
 8091              	.LASF56:
 8092 0467 76697274 		.ascii	"virtual_timer_t\000"
 8092      75616C5F 
 8092      74696D65 
 8092      725F7400 
 8093              	.LASF121:
 8094 0477 74657374 		.ascii	"test_008_001_execute\000"
 8094      5F303038 
 8094      5F303031 
 8094      5F657865 
 8094      63757465 
 8095              	.LASF65:
 8096 048c 70616E69 		.ascii	"panic_msg\000"
 8096      635F6D73 
 8096      6700
 8097              	.LASF130:
ARM GAS  /tmp/cc0h7QKQ.s 			page 202


 8098 0496 63684D42 		.ascii	"chMBPostI\000"
 8098      506F7374 
 8098      4900
 8099              	.LASF134:
 8100 04a0 63684D42 		.ascii	"chMBFetchI\000"
 8100      46657463 
 8100      684900
 8101              	.LASF20:
 8102 04ab 746D6F64 		.ascii	"tmode_t\000"
 8102      655F7400 
 8103              	.LASF70:
 8104 04b3 6D61696E 		.ascii	"mainthread\000"
 8104      74687265 
 8104      616400
 8105              	.LASF131:
 8106 04be 63684D42 		.ascii	"chMBPostAhead\000"
 8106      506F7374 
 8106      41686561 
 8106      6400
 8107              	.LASF133:
 8108 04cc 63684D42 		.ascii	"chMBFetch\000"
 8108      46657463 
 8108      6800
 8109              	.LASF16:
 8110 04d6 75696E74 		.ascii	"uint16_t\000"
 8110      31365F74 
 8110      00
 8111              	.LASF5:
 8112 04df 73686F72 		.ascii	"short int\000"
 8112      7420696E 
 8112      7400
 8113              	.LASF9:
 8114 04e9 6C6F6E67 		.ascii	"long int\000"
 8114      20696E74 
 8114      00
 8115              	.LASF75:
 8116 04f2 706F7274 		.ascii	"port_intctx\000"
 8116      5F696E74 
 8116      63747800 
 8117              	.LASF102:
 8118 04fe 5F5F656E 		.ascii	"__enable_irq\000"
 8118      61626C65 
 8118      5F697271 
 8118      00
 8119              	.LASF67:
 8120 050b 63685F73 		.ascii	"ch_system\000"
 8120      79737465 
 8120      6D00
 8121              	.LASF62:
 8122 0515 6C617374 		.ascii	"lasttime\000"
 8122      74696D65 
 8122      00
 8123              	.LASF19:
 8124 051e 75696E74 		.ascii	"uint64_t\000"
 8124      36345F74 
 8124      00
 8125              	.LASF68:
ARM GAS  /tmp/cc0h7QKQ.s 			page 203


 8126 0527 726C6973 		.ascii	"rlist\000"
 8126      7400
 8127              	.LASF3:
 8128 052d 5F5F7569 		.ascii	"__uint8_t\000"
 8128      6E74385F 
 8128      7400
 8129              	.LASF144:
 8130 0537 5F5F6675 		.ascii	"__func__.4890\000"
 8130      6E635F5F 
 8130      2E343839 
 8130      3000
 8131              	.LASF33:
 8132 0545 6E616D65 		.ascii	"name\000"
 8132      00
 8133              	.LASF125:
 8134 054a 74657374 		.ascii	"test_008_003\000"
 8134      5F303038 
 8134      5F303033 
 8134      00
 8135              	.LASF71:
 8136 0557 73697A65 		.ascii	"sizetype\000"
 8136      74797065 
 8136      00
 8137              	.LASF22:
 8138 0560 74726566 		.ascii	"trefs_t\000"
 8138      735F7400 
 8139              	.LASF11:
 8140 0568 6C6F6E67 		.ascii	"long unsigned int\000"
 8140      20756E73 
 8140      69676E65 
 8140      6420696E 
 8140      7400
 8141              	.LASF52:
 8142 057a 72656164 		.ascii	"ready_list_t\000"
 8142      795F6C69 
 8142      73745F74 
 8142      00
 8143              	.LASF29:
 8144 0587 71756575 		.ascii	"queue\000"
 8144      6500
 8145              	.LASF106:
 8146 058d 6F73616C 		.ascii	"osalSysLock\000"
 8146      5379734C 
 8146      6F636B00 
 8147              	.LASF17:
 8148 0599 696E7433 		.ascii	"int32_t\000"
 8148      325F7400 
 8149              	.LASF81:
 8150 05a1 77747365 		.ascii	"wtsemp\000"
 8150      6D7000
 8151              	.LASF89:
 8152 05a8 6D757465 		.ascii	"mutex_t\000"
 8152      785F7400 
 8153              	.LASF31:
 8154 05b0 6E657765 		.ascii	"newer\000"
 8154      7200
 8155              	.LASF123:
ARM GAS  /tmp/cc0h7QKQ.s 			page 204


 8156 05b6 74657374 		.ascii	"test_008_001\000"
 8156      5F303038 
 8156      5F303031 
 8156      00
 8157              	.LASF124:
 8158 05c3 74657374 		.ascii	"test_008_002\000"
 8158      5F303038 
 8158      5F303032 
 8158      00
 8159              	.LASF4:
 8160 05d0 756E7369 		.ascii	"unsigned char\000"
 8160      676E6564 
 8160      20636861 
 8160      7200
 8161              	.LASF97:
 8162 05de 73657475 		.ascii	"setup\000"
 8162      7000
 8163              	.LASF10:
 8164 05e4 5F5F7569 		.ascii	"__uint32_t\000"
 8164      6E743332 
 8164      5F7400
 8165              	.LASF38:
 8166 05ef 77616974 		.ascii	"waiting\000"
 8166      696E6700 
 8167              	.LASF60:
 8168 05f7 76697274 		.ascii	"virtual_timers_list_t\000"
 8168      75616C5F 
 8168      74696D65 
 8168      72735F6C 
 8168      6973745F 
 8169              	.LASF137:
 8170 060d 63684D42 		.ascii	"chMBResetI\000"
 8170      52657365 
 8170      744900
 8171              	.LASF128:
 8172 0618 63684D42 		.ascii	"chMBPost\000"
 8172      506F7374 
 8172      00
 8173              	.LASF35:
 8174 0621 73746174 		.ascii	"state\000"
 8174      6500
 8175              	.LASF115:
 8176 0627 6D736731 		.ascii	"msg1\000"
 8176      00
 8177              	.LASF116:
 8178 062c 6D736732 		.ascii	"msg2\000"
 8178      00
 8179              	.LASF120:
 8180 0631 74657374 		.ascii	"test_008_002_execute\000"
 8180      5F303038 
 8180      5F303032 
 8180      5F657865 
 8180      63757465 
 8181              	.LASF66:
 8182 0646 63685F73 		.ascii	"ch_system_t\000"
 8182      79737465 
 8182      6D5F7400 
ARM GAS  /tmp/cc0h7QKQ.s 			page 205


 8183              	.LASF79:
 8184 0652 77747472 		.ascii	"wttrp\000"
 8184      7000
 8185              	.LASF1:
 8186 0658 7369676E 		.ascii	"signed char\000"
 8186      65642063 
 8186      68617200 
 8187              	.LASF58:
 8188 0664 64656C74 		.ascii	"delta\000"
 8188      6100
 8189              	.LASF7:
 8190 066a 73686F72 		.ascii	"short unsigned int\000"
 8190      7420756E 
 8190      7369676E 
 8190      65642069 
 8190      6E7400
 8191              	.LASF73:
 8192 067d 73746B61 		.ascii	"stkalign_t\000"
 8192      6C69676E 
 8192      5F7400
 8193              	.LASF108:
 8194 0688 63684D42 		.ascii	"chMBGetFreeCountI\000"
 8194      47657446 
 8194      72656543 
 8194      6F756E74 
 8194      4900
 8195              	.LASF54:
 8196 069a 63757272 		.ascii	"current\000"
 8196      656E7400 
 8197              	.LASF104:
 8198 06a2 706F7274 		.ascii	"port_unlock\000"
 8198      5F756E6C 
 8198      6F636B00 
 8199              	.LASF113:
 8200 06ae 74657374 		.ascii	"test_008_001_teardown\000"
 8200      5F303038 
 8200      5F303031 
 8200      5F746561 
 8200      72646F77 
 8201              	.LASF92:
 8202 06c4 72647074 		.ascii	"rdptr\000"
 8202      7200
 8203              	.LASF119:
 8204 06ca 74657374 		.ascii	"test_008_001_setup\000"
 8204      5F303038 
 8204      5F303031 
 8204      5F736574 
 8204      757000
 8205              	.LASF139:
 8206 06dd 5F746573 		.ascii	"_test_assert_sequence\000"
 8206      745F6173 
 8206      73657274 
 8206      5F736571 
 8206      75656E63 
 8207              	.LASF32:
 8208 06f3 6F6C6465 		.ascii	"older\000"
 8208      7200
ARM GAS  /tmp/cc0h7QKQ.s 			page 206


 8209              	.LASF142:
 8210 06f9 2F686F6D 		.ascii	"/home/awygle/ChibiOS-RT/demos/STM32/RT-STM32F030R8-"
 8210      652F6177 
 8210      79676C65 
 8210      2F436869 
 8210      62694F53 
 8211 072c 4E55434C 		.ascii	"NUCLEO64\000"
 8211      454F3634 
 8211      00
 8212              	.LASF77:
 8213 0735 65786974 		.ascii	"exitcode\000"
 8213      636F6465 
 8213      00
 8214              	.LASF43:
 8215 073e 6D706F6F 		.ascii	"mpool\000"
 8215      6C00
 8216              		.comm	__gnu_lto_v1,1,1
 8217              		.ident	"GCC: (4.8.3-18ubuntu2+12) 4.8.3"
ARM GAS  /tmp/cc0h7QKQ.s 			page 207


DEFINED SYMBOLS
                            *ABS*:0000000000000000 test_sequence_008.c
     /tmp/cc0h7QKQ.s:884    .text.test_008_003_teardown:0000000000000000 $t
     /tmp/cc0h7QKQ.s:889    .text.test_008_003_teardown:0000000000000000 test_008_003_teardown
     /tmp/cc0h7QKQ.s:908    .text.test_008_003_teardown:000000000000000c $d
     /tmp/cc0h7QKQ.s:913    .text.test_008_002_teardown:0000000000000000 $t
     /tmp/cc0h7QKQ.s:918    .text.test_008_002_teardown:0000000000000000 test_008_002_teardown
     /tmp/cc0h7QKQ.s:936    .text.test_008_002_teardown:000000000000000c $d
     /tmp/cc0h7QKQ.s:941    .text.test_008_001_teardown:0000000000000000 $t
     /tmp/cc0h7QKQ.s:946    .text.test_008_001_teardown:0000000000000000 test_008_001_teardown
     /tmp/cc0h7QKQ.s:964    .text.test_008_001_teardown:000000000000000c $d
     /tmp/cc0h7QKQ.s:969    .text.test_008_003_execute:0000000000000000 $t
     /tmp/cc0h7QKQ.s:974    .text.test_008_003_execute:0000000000000000 test_008_003_execute
     /tmp/cc0h7QKQ.s:1240   .text.test_008_003_execute:00000000000000f4 $d
     /tmp/cc0h7QKQ.s:1248   .text.test_008_003_setup:0000000000000000 $t
     /tmp/cc0h7QKQ.s:1253   .text.test_008_003_setup:0000000000000000 test_008_003_setup
     /tmp/cc0h7QKQ.s:1273   .text.test_008_003_setup:0000000000000010 $d
     /tmp/cc0h7QKQ.s:1279   .text.test_008_002_setup:0000000000000000 $t
     /tmp/cc0h7QKQ.s:1284   .text.test_008_002_setup:0000000000000000 test_008_002_setup
     /tmp/cc0h7QKQ.s:1304   .text.test_008_002_setup:0000000000000010 $d
     /tmp/cc0h7QKQ.s:1310   .text.test_008_001_setup:0000000000000000 $t
     /tmp/cc0h7QKQ.s:1315   .text.test_008_001_setup:0000000000000000 test_008_001_setup
     /tmp/cc0h7QKQ.s:1335   .text.test_008_001_setup:0000000000000010 $d
     /tmp/cc0h7QKQ.s:1341   .text.test_008_002_execute:0000000000000000 $t
     /tmp/cc0h7QKQ.s:1346   .text.test_008_002_execute:0000000000000000 test_008_002_execute
     /tmp/cc0h7QKQ.s:2152   .text.test_008_002_execute:0000000000000240 $d
     /tmp/cc0h7QKQ.s:2170   .text.test_008_001_execute:0000000000000000 $t
     /tmp/cc0h7QKQ.s:2175   .text.test_008_001_execute:0000000000000000 test_008_001_execute
     /tmp/cc0h7QKQ.s:2873   .text.test_008_001_execute:0000000000000238 $d
     /tmp/cc0h7QKQ.s:2904   .rodata.test_sequence_008:0000000000000000 test_sequence_008
     /tmp/cc0h7QKQ.s:2892   .rodata.test_008_001:0000000000000000 $d
     /tmp/cc0h7QKQ.s:2895   .rodata.test_008_001:0000000000000000 test_008_001
     /tmp/cc0h7QKQ.s:2901   .rodata.test_sequence_008:0000000000000000 $d
     /tmp/cc0h7QKQ.s:2936   .rodata.test_008_002:0000000000000000 test_008_002
     /tmp/cc0h7QKQ.s:2945   .rodata.test_008_003:0000000000000000 test_008_003
     /tmp/cc0h7QKQ.s:2910   .bss.mb_buffer:0000000000000000 $d
     /tmp/cc0h7QKQ.s:2914   .bss.mb_buffer:0000000000000000 mb_buffer
     /tmp/cc0h7QKQ.s:2917   .data.mb1:0000000000000000 $d
     /tmp/cc0h7QKQ.s:2921   .data.mb1:0000000000000000 mb1
     /tmp/cc0h7QKQ.s:2933   .rodata.test_008_002:0000000000000000 $d
     /tmp/cc0h7QKQ.s:2942   .rodata.test_008_003:0000000000000000 $d
     /tmp/cc0h7QKQ.s:2951   .rodata.str1.4:0000000000000000 $d
                            *COM*:0000000000000001 __gnu_lto_v1
                     .debug_frame:0000000000000010 $d
     /tmp/cc0h7QKQ.s:1247   .text.test_008_003_execute:0000000000000104 $t
     /tmp/cc0h7QKQ.s:1278   .text.test_008_003_setup:0000000000000018 $t
     /tmp/cc0h7QKQ.s:1309   .text.test_008_002_setup:0000000000000018 $t
     /tmp/cc0h7QKQ.s:1340   .text.test_008_001_setup:0000000000000018 $t
     /tmp/cc0h7QKQ.s:2169   .text.test_008_002_execute:0000000000000278 $t

UNDEFINED SYMBOLS
chMBReset
chMBPost
_test_assert
chMBPostI
chMBPostAhead
chMBPostAheadI
ARM GAS  /tmp/cc0h7QKQ.s 			page 208


chMBFetch
chMBFetchI
test_step
chMBObjectInit
chMBResetI
test_emit_token
_test_assert_sequence
