ARM GAS  /tmp/ccDcZFx1.s 			page 1


   1              		.cpu cortex-m0
   2              		.fpu softvfp
   3              		.eabi_attribute 20, 1
   4              		.eabi_attribute 21, 1
   5              		.eabi_attribute 23, 3
   6              		.eabi_attribute 24, 1
   7              		.eabi_attribute 25, 1
   8              		.eabi_attribute 26, 1
   9              		.eabi_attribute 30, 2
  10              		.eabi_attribute 34, 0
  11              		.eabi_attribute 18, 4
  12              		.code	16
  13              		.file	"test_sequence_009.c"
  14              		.text
  15              	.Ltext0:
  16              		.section	.gnu.lto_.jmpfuncs.1182702c4e968c80,"",%progbits
  17 0000 789CB591 		.ascii	"x\234\265\221=\016\202@\020\205\337,\210?h\324\322B"
  17      3D0E8240 
  17      1085DF2C 
  17      883F68D4 
  17      D242
  18 0012 C2218CB5 		.ascii	"\302!\214\265\307\260\227-6q\201\254hbl(=\202\215\027"
  18      C7B0972D 
  18      367181AC 
  18      68626C28 
  18      3D828D17 
  19 0026 B5121645 		.ascii	"\265\022\026EC\026\320Di\030\346{\314\316{\313\300`"
  19      4316D044 
  19      6918E67B 
  19      CCCE7BCB 
  19      C060
  20 0038 7A1616B0 		.ascii	"z\026\026\260\314\336}\200r\011;\341\226^\322\211 x"
  20      CCDE7D80 
  20      72093BE1 
  20      965ED289 
  20      2078
  21 004a A06B7A59 		.ascii	"\240kzY\011\"\255d\032\235s\304\344\243\265&AV\000\330"
  21      0922AD64 
  21      1A9D73C4 
  21      E4A3B526 
  21      415600D8 
  22 005e B5D4B681 		.ascii	"\265\324\266\201N#u`\275hG\026\247\225T\027N\326\351"
  22      4E237560 
  22      BD684716 
  22      A7955417 
  22      4ED6E9
  23 0071 9986346C 		.ascii	"\231\2064l\225\027\357v\272\036\246\205\235\336w?Vs"
  23      9517EF76 
  23      BA1EA685 
  23      9DDE773F 
  23      5673
  24 0083 18B4F0BF 		.ascii	"\030\264\360\277ld\031X\331\351Kb\245z\220\205\346\276"
  24      6C641958 
  24      D9E94B62 
  24      A57A9085 
  24      E6BE
  25 0095 CF7A469A 		.ascii	"\317zF\232]\260!\347\246\205\332\364U\347\215\367X\""
ARM GAS  /tmp/ccDcZFx1.s 			page 2


  25      5DB021E7 
  25      A685DAF4 
  25      55E78DF7 
  25      5822
  26 00a7 77431F4D 		.ascii	"wC\037M\037z\230\027\323GZ?l9\375\007\356L\006\352S"
  26      1F7A9817 
  26      D3475A3F 
  26      6C39FD07 
  26      EE4C06EA 
  27 00bc C6782B76 		.ascii	"\306x+v\211\037F\211\317e\234\034\341\352\357\242\236"
  27      891F4689 
  27      CF659C1C 
  27      E1EAEFA2 
  27      9E
  28 00cd C52A3A88 		.ascii	"\305*:\210\200+_\361d\257B\036\370\222\313H\035q\007"
  28      802B5FF1 
  28      64AF421E 
  28      F892CB48 
  28      1D7107
  29 00e0 8147AD91 		.ascii	"\201G\255\221"
  30              		.text
  31              		.section	.gnu.lto_.inline.1182702c4e968c80,"",%progbits
  32 0000 789C7D8F 		.ascii	"x\234}\217;\016\3020\020Dgm\307@p\240EH(\222E\317Mr"
  32      3B0EC230 
  32      1044676D 
  32      C74070A0 
  32      45482892 
  33 0018 2A2A1A22 		.ascii	"**\032\":\032\224:\005\327\240\347\030\234\002\257c"
  33      3A1A943A 
  33      05D7A0E7 
  33      189C02AF 
  33      63
  34 0029 3BB1F8B8 		.ascii	";\261\370\270Yiw\346\315X@\340\333;\3210\027\200\024"
  34      596977E6 
  34      CD5840E0 
  34      DB3BD130 
  34      178014
  35 003c E445BAAB 		.ascii	"\344E\272\253\275\226`vn\243\272:\255\244\001D\333@"
  35      BD966076 
  35      6EA3BA3A 
  35      ADA40144 
  35      DB40
  36 004e 5560A982 		.ascii	"U`\251\202^\345\036/\000\212_\007\215\331:?0J\2729\207"
  36      5EE51E2F 
  36      008A5F07 
  36      8DD93A3F 
  36      304ABA39 
  37 0063 7D903B6D 		.ascii	"}\220;m\357/5q\261\270mT\345M~\214\361\261M\211\375"
  37      EF2F3571 
  37      B1B86D54 
  37      E54D7E8C 
  37      F1B14D89 
  38 0078 8DAD9B63 		.ascii	"\215\255\233c/\307\366e\200O\373&\177\300\015\321K\034"
  38      2FC7F665 
  38      804FFB26 
  38      7FC00DD1 
  38      4B1C
ARM GAS  /tmp/ccDcZFx1.s 			page 3


  39 008a 9EECB797 		.ascii	"\236\354\267\227s\361\021\315\223\222\223#)\303\312"
  39      73F111CD 
  39      93929323 
  39      29C3CA
  40 0099 F0394A75 		.ascii	"\3609Ju\014\354\365\177\235H\211L\012Lf\341\015\371"
  40      0CECF57F 
  40      9D48894C 
  40      0A4C66E1 
  40      0DF9
  41 00ab B71E99   		.ascii	"\267\036\231"
  42              		.text
  43              		.section	.gnu.lto_.pureconst.1182702c4e968c80,"",%progbits
  44 0000 789C6362 		.ascii	"x\234cb`b\020f\200\000N\006\006F\011\026\011V\0116\011"
  44      60621066 
  44      80004E06 
  44      06460916 
  44      09560936 
  45 0015 0E092E09 		.ascii	"\016\011.\011n\011\036\011\000\012\303\001\032"
  45      6E091E09 
  45      000AC301 
  45      1A
  46              		.text
  47              		.section	.gnu.lto_null_provider.1182702c4e968c80,"",%progbits
  48 0000 789C6362 		.ascii	"x\234cb`b@\007\222@\034\005\304\306@\314\310\314\300"
  48      60624007 
  48      92401C05 
  48      C4C640CC 
  48      C8CCC0
  49 0013 C834E11C 		.ascii	"\3104\341\034\003C#\007\023##\210\301\300\310P\317\304"
  49      03432307 
  49      13232388 
  49      C1C0C850 
  49      CFC4
  50 0025 581FC908 		.ascii	"X\037\311\010V\273\236\351\300\203\377\377\327\375z"
  50      56BB9EE9 
  50      C083FFFF 
  50      D7FD7A
  51 0034 FAB89B51 		.ascii	"\372\270\233Q\020d\024+CKC\303\004\005\006\206d\260"
  51      1064142B 
  51      434B43C3 
  51      04050686 
  51      64B0
  52 0046 82102009 		.ascii	"\202\020 \011\322\025\312\310\004\242\231/24>\350JN"
  52      D215CAC8 
  52      04A2992F 
  52      32343EE8 
  52      4A4E
  53 0058 645CC8C8 		.ascii	"d\\\310\310\312\020\301\230\311\010\2674\204\221\021"
  53      CA10C198 
  53      C908B734 
  53      849111
  54 0067 A4006484 		.ascii	"\244\000d\204\241\236\236>\004\225\244\026\227\350\027"
  54      A19E9E3E 
  54      0495A416 
  54      97E817
  55 0076 95E817E7 		.ascii	"\225\350\027\347\227\026%\247B\270 \"\2768\265\2604"
  55      971625A7 
ARM GAS  /tmp/ccDcZFx1.s 			page 4


  55      42B82022 
  55      BE38B5B0 
  55      34
  56 0087 352F3935 		.ascii	"5/95\336\300\300R/\231\001\000[\377*\345"
  56      DEC0C052 
  56      2F990100 
  56      5BFF2AE5 
  57              		.text
  58              		.section	.gnu.lto_test_009_003_execute.1182702c4e968c80,"",%progbits
  59 0000 789C5D50 		.ascii	"x\234]P=K\003A\020}\263wkN-\264T\013\271_pw\202\215"
  59      3D4B0341 
  59      107DB377 
  59      6B4E2DB4 
  59      540BB95F 
  60 0018 9DE05F88 		.ascii	"\235\340_\210\240U\220\365\220\005/\321\334\246\020"
  60      A05590F5 
  60      90052FD1 
  60      DCA610
  61 0027 8B6CFC00 		.ascii	"\213l\374\000\313`uDR\330\010\202hki+\030\017\377A~"
  61      CB607544 
  61      52D80882 
  61      686B692B 
  61      180FFF41 
  62 003c 874DDCBD 		.ascii	"\207M\334\275\217\024\016\2733og\336\233\235]\006\206"
  62      8F140EBB 
  62      336F67DE 
  62      9B9D5D06 
  62      86
  63 004d FFB66E76 		.ascii	"\377\266nvD\300\236\211\344\200\330\360\033\030x\214"
  63      44C09E89 
  63      E480D8F0 
  63      1B18788C 
  64 005d C80210FA 		.ascii	"\310\002\020\372\214\372\207Tp\337\330\307t6{\315\356"
  64      8CFA8754 
  64      70DFD8C7 
  64      74367BCD 
  64      EE
  65 006e 5FBEE893 		.ascii	"_\276\350\2235\\H\0027\316V9n\264\036\372\200(\270M"
  65      355C4802 
  65      37CE5639 
  65      6EB41EFA 
  65      8028B84D 
  66 0082 E36D837D 		.ascii	"\343m\203}b6:\023\\\275gO\033G\364H\034\017\030\015"
  66      62363A13 
  66      5CBD674F 
  66      1B47F448 
  66      1C0F180D 
  67 0096 B45E95C4 		.ascii	"\264^\225\304.\361\253\357,r\222Bv@\006\242F\314\346"
  67      2EF1ABEF 
  67      2C729242 
  67      764006A2 
  67      46CCE6
  68 00a9 72DC4E47 		.ascii	"r\334NG\317T*O\310\235K\\A\345X6\343I\342\011U\254B"
  68      CF542A4F 
  68      C89D4B5C 
  68      41E55836 
  68      E349E209 
ARM GAS  /tmp/ccDcZFx1.s 			page 5


  69 00c0 BC706C26 		.ascii	"\274pl&k\000\023\\\347N\255\346\246\201-\026\272\034"
  69      6B00135C 
  69      E74EADE6 
  69      A6812D16 
  69      BA1C
  70 00d2 BCE263DE 		.ascii	"\274\342c\336\324\023T\376\221\341\332\344\232\244\305"
  70      D41354FE 
  70      91E1DAE4 
  70      9AA4C5
  71 00e1 4D6C8F75 		.ascii	"Ml\217u\266+i\011\025_\3222\360\203\372\272\312\232"
  71      B62B6909 
  71      155FD232 
  71      F083FABA 
  71      CA9A
  72 00f3 661EF356 		.ascii	"f\036\363V\253\337\012\202\260\\*NU\330Ua\332\351uE"
  72      ABDF0A82 
  72      B05C2A4E 
  72      55D85561 
  72      DAE97545 
  73 0107 5C1EAD6B 		.ascii	"\\\036\255k\245\361y/n\213\270\025E;\201\300\312\251"
  73      A5F1792F 
  73      6E8BB815 
  73      453B81C0 
  73      CAA9
  74 0119 4C95DFEE 		.ascii	"L\225\337\356(?N\316\324\005\376\0007K[E"
  74      283F4ECE 
  74      D405FE00 
  74      374B5B45 
  75              		.text
  76              		.section	.gnu.lto_test_009_003_setup.1182702c4e968c80,"",%progbits
  77 0000 789C6362 		.ascii	"x\234cb`b@\007\222@<\025\210\215\201\230\221\231\201"
  77      60624007 
  77      92403C15 
  77      888D8198 
  77      919981
  78 0013 9169C239 		.ascii	"\221i\3029\006\206F\016&FF\020\203\201\221\241\236\211"
  78      0686460E 
  78      26464610 
  78      838191A1 
  78      9E89
  79 0025 B13E9211 		.ascii	"\261>\222\021\254v=\323\201\007\377\377\257\2330i\371"
  79      AC763DD3 
  79      8107FFFF 
  79      AF9B3069 
  79      F9
  80 0036 1AC6134C 		.ascii	"\032\306\023L\314@\021V\206\226\206\206\011\012\014"
  80      CC401156 
  80      86968686 
  80      090A0C
  81 0045 0CC96015 		.ascii	"\014\311`\025!@\022\244-\224\221\011D3\237gh}\320y\222"
  81      214012A4 
  81      2D949109 
  81      44339F67 
  81      687DD079 
  82 005a 2F917121 		.ascii	"/\221q!#+P\272\232\341WCG\203@&#P9\304D\220\010G&#c"
  82      232B50BA 
  82      9AE15743 
ARM GAS  /tmp/ccDcZFx1.s 			page 6


  82      47834026 
  82      235039C4 
  83 0075 2E230354 		.ascii	".#\003TQ\004c&#\023\013C&\320-\014\027\031\032\037t"
  83      51046326 
  83      23130B43 
  83      26D02D0C 
  83      17191A1F 
  84 008a 69C27443 		.ascii	"i\302tC@\010P'\320h\220G\014\365\364\364!\250$\265\270"
  84      40085027 
  84      D0689047 
  84      0CF5F4F4 
  84      21A824B5 
  85 009f 44BFA844 		.ascii	"D\277\250D\2778\277\264(9\025\302\005\021\361\305\251"
  85      BF38BFB4 
  85      283915C2 
  85      0511F1C5 
  85      A9
  86 00b0 85A5A979 		.ascii	"\205\245\251y\311\251\361\006\006\226z\311\014\000\017"
  86      C9A9F106 
  86      06967AC9 
  86      0C000F
  87 00bf 373793   		.ascii	"77\223"
  88              		.text
  89              		.section	.gnu.lto_test_009_002_setup.1182702c4e968c80,"",%progbits
  90 0000 789C6362 		.ascii	"x\234cb`b@\007\222@<\025\210\215\201\230\221\231\201"
  90      60624007 
  90      92403C15 
  90      888D8198 
  90      919981
  91 0013 9169C239 		.ascii	"\221i\3029\006\206F\016&FF\020\203\201\221\241\236\211"
  91      0686460E 
  91      26464610 
  91      838191A1 
  91      9E89
  92 0025 B13E9211 		.ascii	"\261>\222\021\254v=\323\201\007\377\377\257\273\326"
  92      AC763DD3 
  92      8107FFFF 
  92      AFBBD6
  93 0034 BDFC0EE3 		.ascii	"\275\374\016\343:&f\240\010+CKC\303\004\005\006\206"
  93      3A2666A0 
  93      082B434B 
  93      43C30405 
  93      0686
  94 0046 64B08A10 		.ascii	"d\260\212\020 \011\322\026\312\310\004\242\231\3173"
  94      2009D216 
  94      CAC804A2 
  94      99CF33
  95 0055 B43E7873 		.ascii	"\264>xs\224/\221q!#+P\272\232\341WCG\203@&#P9\304D\220"
  95      942F9171 
  95      21232B50 
  95      BA9AE157 
  95      43478340 
  96 0070 08472623 		.ascii	"\010G&#c.#\003TQ\004c&#\023\013C&\320-\014\027\031\032"
  96      632E2303 
  96      54510463 
  96      2623130B 
  96      4326D02D 
ARM GAS  /tmp/ccDcZFx1.s 			page 7


  97 0088 1FBC5585 		.ascii	"\037\274U\205\351\206\200\020\240N\240\321 \217\030"
  97      E9868010 
  97      A04EA0D1 
  97      208F18
  98 0097 EAE9E943 		.ascii	"\352\351\351CPIjq\211~Q\211~q~iQr*\204\013\"\342\213"
  98      50496A71 
  98      897E5189 
  98      7E717E69 
  98      51722A84 
  99 00af 530B4B53 		.ascii	"S\013KS\363\222S\343\015\014,\365\222\031\000\235\201"
  99      F39253E3 
  99      0D0C2CF5 
  99      9219009D 
  99      81
 100 00c0 38A6     		.ascii	"8\246"
 101              		.text
 102              		.section	.gnu.lto_test_009_001_setup.1182702c4e968c80,"",%progbits
 103 0000 789C6362 		.ascii	"x\234cb`b@\007\222@<\007\210\215\201\230\221\231\201"
 103      60624007 
 103      92403C07 
 103      888D8198 
 103      919981
 104 0013 9169C239 		.ascii	"\221i\3029\006\206F\016&FF\020\203\201\221\241\236\211"
 104      0686460E 
 104      26464610 
 104      838191A1 
 104      9E89
 105 0025 B13E9211 		.ascii	"\261>\222\021\254v=\323\201\007\377\377\257\373\321"
 105      AC763DD3 
 105      8107FFFF 
 105      AFFBD1
 106 0034 B6FC0DE3 		.ascii	"\266\374\015\343l&f\240\010+CKC\303\004\005\006\206"
 106      6C2666A0 
 106      082B434B 
 106      43C30405 
 106      0686
 107 0046 64B08A10 		.ascii	"d\260\212\020 \011\322\026\312\310\004\242\231\3173"
 107      2009D216 
 107      CAC804A2 
 107      99CF33
 108 0055 B43DD8FB 		.ascii	"\264=\330\373\230+\221q!#+P\272\232\341WCG\203@&#P9"
 108      982B9171 
 108      21232B50 
 108      BA9AE157 
 108      43478340 
 109 006d C4449008 		.ascii	"\304D\220\010G&#c.#\003TQ\004c&#\023\013\230\002Z\220"
 109      47262363 
 109      2E230354 
 109      51046326 
 109      23130B98 
 110 0084 C9C8C2C0 		.ascii	"\311\310\302\300p\221\241\361\301>e\230!\020\020\002"
 110      7091A1F1 
 110      C13E6598 
 110      21101002 
 111 0094 34006803 		.ascii	"4\000h\003\310?\206zz\372\020T\222Z\\\242_T\242_\234"
 111      C83F867A 
 111      7AFA1054 
ARM GAS  /tmp/ccDcZFx1.s 			page 8


 111      925A5CA2 
 111      5F54A25F 
 112 00a9 5F5A949C 		.ascii	"_Z\224\234\012\341\202\210\370\342\324\302\322\324\274"
 112      0AE18288 
 112      F8E2D4C2 
 112      D2D4BC
 113 00b8 E4D47803 		.ascii	"\344\324x\003\003K\275d\006\000\320\3239I"
 113      034BBD64 
 113      0600D0D3 
 113      3949
 114              		.text
 115              		.section	.gnu.lto_test_009_002_execute.part.0.1182702c4e968c80,"",%progbits
 116 0000 789C9D54 		.ascii	"x\234\235TOHTA\030\377\276\231\367g\336{kku\250.\"\335"
 116      4F485441 
 116      18FFBE99 
 116      F767DE7B 
 116      6B6B75A8 
 117 0017 5B2D24EA 		.ascii	"[-$\352\"\321\251k\240`'\221\307\"\017Z-w=\224\007g"
 117      22D1A96B 
 117      A0602791 
 117      C7220F5A 
 117      2D773D94 
 118 002d 75A53D4A 		.ascii	"u\245=J'K\244\244C\320\037\244[\024\304\352I\013\377"
 118      274BA4A4 
 118      43D01FA4 
 118      5B14C4EA 
 118      490BFF
 119 0040 74ABDB76 		.ascii	"t\253\333v)\250(\350T\"l\337\314\274\367vU\014l\330"
 119      29A828E8 
 119      54226CDF 
 119      CCBCF776 
 119      550C6CD8 
 120 0054 9D6FE6FB 		.ascii	"\235o\346\3737\277\371\375\206\307\200\301\336Q\246"
 120      37BFF9FD 
 120      86C780C1 
 120      DE51A6
 121 0063 FF730BE0 		.ascii	"\377s\013\340*Y\314\000\006\263\033\264\010\220i\313"
 121      2A59CC00 
 121      06B31BB4 
 121      089069CB 
 122 0073 D052B62C 		.ascii	"\320R\266,\270Y,\013\213\361Z/H\337\336\312\202\314"
 122      B8592C0B 
 122      8BF15A2F 
 122      48DFDECA 
 122      82CC
 123 0085 D8284CDC 		.ascii	"\330(L\334a\376\012'\267\273\361\026\310\357\032\377"
 123      61FE0A27 
 123      B7BBF116 
 123      C8EF1AFF 
 124 0095 B210CCD1 		.ascii	"\262\020\314\321\351\236N\367\3207\351>\242Z\000\302"
 124      E99E4EF7 
 124      D037E93E 
 124      A25A00C2 
 125 00a5 64C0B865 		.ascii	"d\300\270e;\256\360|\234\274\206\012\022\236\206E)\357"
 125      3BAEF07C 
 125      9CBC860A 
 125      129E8645 
ARM GAS  /tmp/ccDcZFx1.s 			page 9


 125      29EF
 126 00b7 D667DE7C 		.ascii	"\326g\336|\302{\262Vy(w\032\015\304\010\011~\017B\210"
 126      C27BB256 
 126      7928771A 
 126      0DC40809 
 126      7E0F4288 
 127 00cb 30401BEC 		.ascii	"0@\033\354\324\206Y\273\357\263\304d\275\321\370\363"
 127      D48659BB 
 127      EFB3C464 
 127      BDD1F8F3 
 128 00db CB3B8130 		.ascii	"\313;\2010\204\213\324\213A\204\234\307\033\2136\226"
 128      848BD48B 
 128      41849CC7 
 128      1B8B3696 
 129 00eb 4D93EDA8 		.ascii	"M\223\355\250\311\215\335\"\266\236\012\373*B\255l\250"
 129      C98DDD22 
 129      B69E0AFB 
 129      2A42AD6C 
 129      A8
 130 00fc 4839DB69 		.ascii	"H9\333i\"\240\316\245\321G3\335\245\017\0032\274\037"
 130      22A0CEA5 
 130      D14733DD 
 130      A50F0332 
 130      BC1F
 131 010e 9932EB30 		.ascii	"\2312\3530\365r\356\353\251!|D\205\363p\277,e;\301\235"
 131      F572EEEB 
 131      A9217C44 
 131      85F370BF 
 131      2C653BC1 
 132 0123 806D5955 		.ascii	"\200mYU+\247\240k\025^\007\222\025(\344k0U\177r\307"
 132      2BA7A06B 
 132      155E0792 
 132      1528E46B 
 132      30557F72 
 133 0138 3595E624 		.ascii	"5\225\346$\035KF?r\250\365\252\003\266\247\227\026\256"
 133      1D4B463F 
 133      72A8F5AA 
 133      03B6A797 
 133      16AE
 134 014a 98BC6164 		.ascii	"\230\274ad\023p\233nu\006\236I\032/\250\302- \016#\266"
 134      13709B6E 
 134      75069E49 
 134      1A2FA8C2 
 134      2D200E23 
 135 015f 52B10933 		.ascii	"R\261\0113\265\013\246\002\232XD\030g)\217\210\320+"
 135      B50BA602 
 135      9A584418 
 135      67298F88 
 135      D02B
 136 0171 208B93A8 		.ascii	" \213\223\250o\204>\300:LW\247\237.\014$\247qj\254Q"
 136      6F843EC0 
 136      3A4C57A7 
 136      9F2E0C24 
 136      A7716AAC 
 137 0186 A146CC5A 		.ascii	"\241F\314Z\321R4Aj\001i\312\351F\002\322 U\254B\345"
 137      D1523441 
 137      6A0169CA 
ARM GAS  /tmp/ccDcZFx1.s 			page 10


 137      E94602D2 
 137      2055AC42 
 138 019b 7339487A 		.ascii	"s9Hz\231F<\005\371\0210\2760[\245s8\257\006\252\227"
 138      99463C05 
 138      F91130BE 
 138      305BA573 
 138      38AF06AA 
 139 01b0 9DD2FAE3 		.ascii	"\235\322\372\343\260\264\3321\255\257\376I\253\003;"
 139      B0B4DA31 
 139      ADAFFE49 
 139      AB033B
 140 01bf 3D9C18AA 		.ascii	"=\234\030\252\277\376\202\0116+\355\034\204\310\016"
 140      BFFE8209 
 140      362BED1C 
 140      84C80E
 141 01ce 2049F5C9 		.ascii	" I\365\311\000=\2216M\324\007\236T\333\324@\005-\303"
 141      003D9136 
 141      4DD4079E 
 141      54DBD440 
 141      052DC3
 142 01e1 BD9DF89D 		.ascii	"\275\235\370\235\264\353\2210&\213\222\225\363d\204"
 142      B4EB9130 
 142      268B9295 
 142      F36484
 143 01f0 D90E38BF 		.ascii	"\331\0168\277 \347.E\330\016\361\001\021\036\325\244"
 143      20E72E45 
 143      D80EF101 
 143      111ED5A4 
 144 0200 7D4F7139 		.ascii	"}Oq9\252\255\335*m?\272\360\356\034\327B}k\012%\206"
 144      AAADDD2A 
 144      6D3FBAF0 
 144      EE1CD742 
 144      7D6B0A25 
 145 0215 D13D5828 		.ascii	"\321=X(\221\324\012\230_\331+\224\273W(w\237PnL\241"
 145      91D40A98 
 145      5FD92B94 
 145      BB572877 
 145      9F506E4C 
 146 022a AD8412AE 		.ascii	"\255\204\022\256\021\312\203\007mZ\250\337?\017+\224"
 146      11CA8307 
 146      6D5AA8DF 
 146      3F0F2B94 
 147 023a 63DE687D 		.ascii	"c\336h}\355qzS\357?\024\330L\025\360\251\301~\005Z\336"
 147      ED717A53 
 147      EF3F14D8 
 147      4C15F0A9 
 147      C17E055A 
 148 024f 7E8B007E 		.ascii	"~\213\000~,\300\261\016\270l\0048\276K\000\303\224\257"
 148      2CC0B10E 
 148      B86C0438 
 148      BE4B00C3 
 148      94AF
 149 0261 9EE17BFA 		.ascii	"\236\341{\372`5\251\357\2437\275\225U\330\316\346r]"
 149      6035A9EF 
 149      A337BD95 
 149      55D8CEE6 
 149      725D
ARM GAS  /tmp/ccDcZFx1.s 			page 11


 150 0273 E657CA17 		.ascii	"\346W\312\027K]c\245\256\342\350\370X\2307[5\015\026"
 150      4B5D63A5 
 150      AEE2E8F8 
 150      5898375B 
 150      350D16
 151 0286 F337C7F3 		.ascii	"\3637\307\363#a~\260\273\373b.\004\214\202\353Q\261"
 151      23617EB0 
 151      BBFB622E 
 151      048C82EB 
 151      51B1
 152 0298 D4992FDC 		.ascii	"\324\231/\334(\335\202\254^\217\214&\373\277\346 $\342"
 152      28DD82AC 
 152      5E8F8C26 
 152      FBBFE620 
 152      24E2
 153              		.text
 154              		.section	.gnu.lto_test_009_002_execute.1182702c4e968c80,"",%progbits
 155 0000 789C9D54 		.ascii	"x\234\235TAk\023A\024~of7\231tc\023S\013\012\022\202"
 155      416B1341 
 155      147E6F66 
 155      37997463 
 155      13530B0A 
 156 0016 3F206941 		.ascii	"? iA\004\021\212\370\017\204\026\352\251\2245\224\005"
 156      04118AF8 
 156      0F8416EA 
 156      A9943594 
 156      05
 157 0027 D36A931E 		.ascii	"\323j\223\036\304C\247M\2529(\024/V\253`\361\340\321"
 157      C443A74D 
 157      AA392814 
 157      2F56AB60 
 157      F1E0D1
 158 003a 83971C44 		.ascii	"\203\227\034D\243xh\025\333\012\036\342AX\013\326\213"
 158      A3786815 
 158      DB0A1EE2 
 158      41580BD6 
 158      8B
 159 004b BF408AF1 		.ascii	"\277@\212\361\275\235\335\255\325\366P\207df\3367\357"
 159      BD9DDDAD 
 159      D5F65087 
 159      6466DE37 
 159      EF
 160 005c 7DF3CD7C 		.ascii	"}\363\315|\223\010\020\360w\273L\337\223\026\300E\032"
 160      930810F0 
 160      77BB4CDF 
 160      9316C045 
 160      1A
 161 006d 31052816 		.ascii	"1\005(\026\327\001\346\224@\333L\244Po$\350\036k\375"
 161      D701E694 
 161      40DB4CA4 
 161      506F24E8 
 161      1E6BFD
 162 0080 1D804E5B 		.ascii	"\035\200N[\006\177\255l!\333C\204'63\004'\204z\221\247"
 162      067FAD6C 
 162      21DB4384 
 162      27363304 
 162      27847A91 
ARM GAS  /tmp/ccDcZFx1.s 			page 12


 163 0095 28F9A944 		.ascii	"(\371\251DQ\022\025'\241B\344\021\020f\205\264\354D"
 163      51121527 
 163      A142E411 
 163      106685B4 
 163      EC44
 164 00a7 52E1EC25 		.ascii	"R\341\354%\344]\361\024\254h}\327_x\371\025\357\353"
 164      E45DF114 
 164      AC687DD7 
 164      5F78F915 
 164      EFEB
 165 00b9 76E3B1DE 		.ascii	"v\343\261\336\351v\021=$\205\247\021\\\204Q\012\260"
 165      E976113D 
 165      2485A711 
 165      5C84510A 
 165      B0
 166 00ca 100CC2DA 		.ascii	"\020\014\302\332+\371\231h\373\335\356\316\027\177\353"
 166      2BF99968 
 166      FBDDEECE 
 166      177FEB
 167 00d9 3DF6F523 		.ascii	"=\366\365#\214\343\012\361)\360P\246\250\263\034\356"
 167      8CE30AF1 
 167      29F050A6 
 167      A8B31CEE 
 168 00e9 D2219C61 		.ascii	"\322!\234a8\313H\216;*\267\241\241\365b\301,\003\357"
 168      38CB488E 
 168      3B2AB7A1 
 168      A1F562C1 
 168      2C03EF
 169 00fc 456D98FA 		.ascii	"Em\230\372V\016FP\320 ?\300|k\351\325\211q|\2026,\303"
 169      560E4650 
 169      D0203FC0 
 169      7C6BE9D5 
 169      89717C82 
 170 0113 8339ADB3 		.ascii	"\2039\255\263\244\355\006\374\324M\236\331\225\240\210"
 170      A4ED06FC 
 170      D44D9ED9 
 170      95A088
 171 0122 C5D910CD 		.ascii	"\305\331\020\315\200\261\015\270\351\377\372\326k*a"
 171      80B10DB8 
 171      E9FFFAD6 
 171      6B2A61
 172 0131 B722E162 		.ascii	"\267\"\341bP\022 \312\303d\0051L29\372\036Q\250\012"
 172      501220CA 
 172      C3640531 
 172      4C3239FA 
 172      1E51A80A 
 173 0145 8A1065C6 		.ascii	"\212\020e\306\224E\222{\000XNg\353\260r\330\3535\230"
 173      9445927B 
 173      00584E67 
 173      EBB072D8 
 173      EB3598
 174 0158 F76FDF4A 		.ascii	"\367o\337J\232Js\342`-j#(\241=$7`\301\277\363=\0244"
 174      9A4A73E2 
 174      602D6A23 
 174      28A13D24 
 174      3760C1BF 
 175 0170 812A6676 		.ascii	"\201*fv\\\024\007\310f\2364\220\300#,\260\336\221Qu"
ARM GAS  /tmp/ccDcZFx1.s 			page 13


 175      5C1407C8 
 175      669E3490 
 175      C0232CB0 
 175      DE915175 
 176 0184 8A087851 		.ascii	"\212\010xQBp\037v\204;1k\257k\0269\231\301\343\036f"
 176      42701F76 
 176      843B316B 
 176      AF6B1639 
 176      99C1E31E 
 177 0199 F270E691 		.ascii	"\362p\346\221^:\357a\026\302\015<<\012\260\012\215\037"
 177      5E3AEF61 
 177      16C20D3C 
 177      3C0AB00A 
 177      8D1F
 178 01ab B12E8769 		.ascii	"\261.\207i\367<\206\021\012;\347\310\257z\263\376\374"
 178      F73C8611 
 178      0A3BE7C8 
 178      AF7AB3FE 
 178      FC
 179 01bc E1689498 		.ascii	"\341h\224\230\236@\214-Y\003\361\347\371'X\265\251\265"
 179      9E408C2D 
 179      5903F1E7 
 179      F92758B5 
 179      A9B5
 180 01ce 819EA7A4 		.ascii	"\201\236\247\244;R\020/b\260\347\366\234\023q\031\""
 180      3B52102F 
 180      62B0E7F6 
 180      9C137119 
 180      22
 181 01df 196FF919 		.ascii	"\031o\371\0310\274B\261*\211\314j:\314\225\200\315L"
 181      30BC42B1 
 181      2A89CC6A 
 181      3ACC9580 
 181      CD4C
 182 01f1 F06E5ADB 		.ascii	"\360nZ\333\2075J\006\367\264\340/?\215O\232\371\017"
 182      87354A06 
 182      F7B4E02F 
 182      3F8D4F9A 
 182      F90F
 183 0203 07366207 		.ascii	"\0076b\007\262D\260\237\003\271\375\034\310\206\016"
 183      B244B09F 
 183      03B9FD1C 
 183      C8860E
 184 0212 E4F270C1 		.ascii	"\344\362p\3018\320w\260\003\271}\034H\302\333\024\275"
 184      38D077B0 
 184      03B97D1C 
 184      48C2DB14 
 184      BD
 185 0223 A0BAFAE7 		.ascii	"\240\272\372\347\321\037s\303\\\017\373\243l\305\277"
 185      D11F73C3 
 185      5C0FFBA3 
 185      6CC5BF
 186 0232 AF8FF4C7 		.ascii	"\257\217\364\307\262K1L\227\336\312\361)\007\213\305"
 186      B24B314C 
 186      97DECAF1 
 186      29078BC5 
 187 0242 92F9D4CA 		.ascii	"\222\371\324\312\325Zi\272V\252N\315L\273e\023r7V-_"
ARM GAS  /tmp/ccDcZFx1.s 			page 14


 187      D55A69BA 
 187      56AA4ECD 
 187      4CBB6513 
 187      7237562D 
 188 0257 9B294FBA 		.ascii	"\233)O\272\345\261\201\201\263E\027\320s\256x\325Z\241"
 188      E5B18181 
 188      B34517D0 
 188      73AE78D5 
 188      5AA1
 189 0269 5CB95ABB 		.ascii	"\\\271Z\273\016\231`>9\025\305\277\001\312\035\005\270"
 189      0E99603E 
 189      3915C5BF 
 189      01CA1D05 
 189      B8
 190              		.text
 191              		.section	.gnu.lto_test_009_001_execute.part.1.1182702c4e968c80,"",%progbits
 192 0000 789C9D94 		.ascii	"x\234\235\224\317O\023A\024\307\337\233\375\275\333"
 192      CF4F1341 
 192      14C7DF9B 
 192      FDBDDB
 193 000f 5AFC0D97 		.ascii	"Z\374\015\227\246\361\346A\212\206\030\275\020\343\237"
 193      A6F1E641 
 193      8A8618BD 
 193      10E39F
 194 001e 6020C113 		.ascii	"` \301\023!\313\206l\264\200m1A\016,\264\230z\002\215"
 194      21CB866C 
 194      B4806D31 
 194      410E2CB4 
 194      987A028D 
 195 0032 26285124 		.ascii	"&(Q$\204\230\030\023\257\350\251pB\015?\274\030\274"
 195      84981813 
 195      AFE8A970 
 195      420D3FBC 
 195      18BC
 196 0044 F5A21EF4 		.ascii	"\365\242\036\364\344I\221\244\276\331\331]\012\024\223"
 196      E44991A4 
 196      BED9D95D 
 196      0A1493
 197 0053 3A6967E6 		.ascii	":ig\346\315\314{\363}\237\227\035\006\014\366\267i\372"
 197      CDCC7BF3 
 197      7D9F971D 
 197      060CF6B7 
 197      69FA
 198 0065 FF54006E 		.ascii	"\377T\000n\320\210q\300\330\364:Mb\310\374\221\241\314"
 198      D08871C0 
 198      D8F43A4D 
 198      62C8FC91 
 198      A1CC
 199 0077 C7715D12 		.ascii	"\307q]\022\223e]fR\271\003<S\331L\200\027SP\027\373"
 199      93655D66 
 199      52B9033C 
 199      53D94C80 
 199      17535017 
 200 008c 2AB35624 		.ascii	"*\263V$Z\326\326\337\003\255kb}Y\327\231\352\0377\374"
 200      5AD6D6DF 
 200      03AD6B62 
 200      7D59D799 
ARM GAS  /tmp/ccDcZFx1.s 			page 15


 200      EA1F37FC 
 201 00a0 E306B33E 		.ascii	"\343\006\263>\245\3112\337&\3112\321\022\316\026\"\237"
 201      A5C932DF 
 201      26C932D1 
 201      12CE1622 
 201      9F
 202 00b1 00C2588C 		.ascii	"\000\302X\214I\262\242j\272aZ8v\035\271B<\003\363\236"
 202      49B2A26A 
 202      BA615A38 
 202      761DB942 
 202      3C03F39E 
 203 00c5 F7A0B2F8 		.ascii	"\367\240\262\370\263\202\217\275r\361\271\267S\255\""
 203      B3828FBD 
 203      72F1B9B7 
 203      53AD22
 204 00d4 BA48D9B4 		.ascii	"\272H\331\264#\330\010\335d`\312\037\230\2747\275\327"
 204      23D808DD 
 204      6460CA1F 
 204      98BC37BD 
 204      D7
 205 00e5 CCAB54AB 		.ascii	"\314\253T\253o^\032I\204^\234\247X\014\\\224\244\300"
 205      6F5E1A49 
 205      845E9CA7 
 205      580C5C94 
 205      A4C0
 206 00f7 90C99015 		.ascii	"\220\311\220\025\352\024\225wZ\260\254\007\243\301\267"
 206      EA149577 
 206      5AB0AC07 
 206      A3C1B7
 207 0106 4DBE63F1 		.ascii	"M\276c\361.\306\3158\237Qd\005\212\2367\235\022\007"
 207      2EC6CD38 
 207      9F516405 
 207      8A9E379D 
 207      1207
 208 0118 81CBA0D6 		.ascii	"\201\313\240\326I=e\332\2111\032\244.d|X\203\211\245"
 208      493D65DA 
 208      89311AA4 
 208      2E647C58 
 208      8389A5
 209 012b 5F7F9A7B 		.ascii	"_\177\232{q\201\034g\341\311\270\3475\221\372Q\330\366"
 209      71811C67 
 209      E1C9B8E7 
 209      3591FA51 
 209      D8F6
 210 013d 4A7CA666 		.ascii	"J|\246f|_._\205p\006<\221w0Q\371]\320\204\247\270\311"
 210      7C5F2E5F 
 210      8570063C 
 210      91773051 
 210      F95DD084 
 211 0154 DF0B5B17 		.ascii	"\337\013[\027JP\356\340\027l\027\276O]\022\347\372\221"
 211      4A50EEE0 
 211      176C17BE 
 211      4F5D12E7 
 211      FA91
 212 0166 8DC21D4A 		.ascii	"\215\302\035J\362\034\274\362\250\335'\017-\203\330"
 212      F21CBCF2 
 212      A8DD270F 
ARM GAS  /tmp/ccDcZFx1.s 			page 16


 212      2D83D8
 213 0175 8F584B66 		.ascii	"\217XKf\003&\313g\205\007\354j\321\355\340\024_\321"
 213      0326CB67 
 213      8507EC6A 
 213      D1EDE014 
 213      5FD1
 214 0187 5D3432C8 		.ascii	"]42\310\202C\024\327E\023`\015\012\245\302\267\251\356"
 214      824314D7 
 214      4513600D 
 214      0AA5C2B7 
 214      A9EE
 215 0199 F0368902 		.ascii	"\3606\211\002\373\252\320W\314j\325\322n\250T\006\252"
 215      FBAAD057 
 215      CC6AD5D2 
 215      6EA85406 
 215      AA
 216 01aa B14419E9 		.ascii	"\261D\031\351\020m\222\307*\024\277\216[a,\021H\212"
 216      106D92C7 
 216      2A14BF8E 
 216      5B612C11 
 216      488A
 217 01bc 447E060C 		.ascii	"D~\006\014\022f\253t\217$\225,\036K\011\261nU\033\305"
 217      1266AB74 
 217      8F24952C 
 217      1E4B09B1 
 217      6E551BC5 
 218 01d0 AA04584B 		.ascii	"\252\004XK\223\377\302\252\302N\273\264\001\305\312"
 218      93FFC2AA 
 218      C24EBBB4 
 218      01C5CA
 219 01df BD2F186A 		.ascii	"\275/\030j\223\243\310\226\215\354\020H.U\236\023\332"
 219      93A3C896 
 219      8DEC1048 
 219      2E559E13 
 219      DA
 220 01f0 92423785 		.ascii	"\222B7\205<ytY@W\302u5\012\027\267\003Jt\230/6\273x"
 220      3C797459 
 220      4057C275 
 220      350A17B7 
 220      034A7498 
 221 0208 2409179F 		.ascii	"$\011\027\237z3W\\L@\024\271\311\247\365#\022\244\362"
 221      7A33575C 
 221      4C4014B9 
 221      C9A7F523 
 221      12A4F2
 222 021b B04A6D4D 		.ascii	"\260JmM\273P\203\017\027$\277B\013\017\243\012\351\375"
 222      BB50830F 
 222      1724BF42 
 222      0B0FA30A 
 222      E9FD
 223 022d A81D5E21 		.ascii	"\250\035^!=\364\325ave\177\205\264\375\025\322\016T"
 223      3DF4D561 
 223      76657F85 
 223      B4FD15D2 
 223      0E54
 224 023f 480BD829 		.ascii	"H\013\330)\274B\272&*d\300\\\334\257\320\322BK\203\025"
 224      BC42BA26 
ARM GAS  /tmp/ccDcZFx1.s 			page 17


 224      2A64C05C 
 224      DCAFD0D2 
 224      424B8315 
 225 0253 527D4EC5 		.ascii	"R}N\305\312\324b\224\251\321\010\372\215\010\275I\236"
 225      CAD46294 
 225      A9D108FA 
 225      8D08BD49 
 225      9E
 226 0264 F5D05BF5 		.ascii	"\365\320[\365\320\233\001\372\243I\270*\320\037;\034"
 226      D09B01FA 
 226      A349B82A 
 226      D01F3B1C 
 227 0274 BD5507BD 		.ascii	"\275U\007\275\011\217\024?\345\231\027\215\246\254\371"
 227      098F143F 
 227      E599178D 
 227      A6ACF9
 228 0283 FAEE569E 		.ascii	"\372\356V\236-Z\007\276\310\343\266\320_'\343\340\235"
 228      2D5A07BE 
 228      C8E3B6D0 
 228      5F27E3E0 
 228      9D
 229 0294 08364ED8 		.ascii	"\0106N\330\250D\202O\012\206s\273\014c\377\3070N\236"
 229      A844824F 
 229      0A8673BB 
 229      0C63FFC7 
 229      304E9E
 230 02a7 0719D6E8 		.ascii	"\007\031\326\350\253A\030\017\020\236J\3025\201\360"
 230      AB41180F 
 230      109E4AC2 
 230      3581F0
 231 02b6 F41E8482 		.ascii	"\364\036\204\202\223\305?\336\217\364\354\357\302\353"
 231      93C53FDE 
 231      8FF4ECEF 
 231      C2EB
 232 02c4 A4976033 		.ascii	"\244\227`3\301E\235omM\213_\336\311\345\323\331|:78"
 232      C1459D6F 
 232      6D4D8B5F 
 232      DEC9E5D3 
 232      D97C3A37 
 233 02d9 9CB51D61 		.ascii	"\234\265\035a\362\256'\347\334\032v\006l\247\247\255"
 233      F2AE27E7 
 233      DC1A7606 
 233      6CA7A7AD 
 234 02e9 ED72AB0D 		.ascii	"\355r\253\015\350Z7\335\\>\345d\206\362#\220\360\347"
 234      E85A37DD 
 234      5C3EE564 
 234      86F22390 
 234      F0E7
 235 02fb 0383A1DD 		.ascii	"\003\203\241\3352\224\035\274\355\3669\331T\326\311"
 235      32941DBC 
 235      EDF639D9 
 235      54D6C9
 236 030a 0F67079C 		.ascii	"\017g\007\234\276T\306\311\014fG\340/\225\310uy"
 236      BE54C6C9 
 236      0C6647E0 
 236      2F95C875 
 236      79
ARM GAS  /tmp/ccDcZFx1.s 			page 18


 237              		.text
 238              		.section	.gnu.lto_test_009_001_execute.1182702c4e968c80,"",%progbits
 239 0000 789C9554 		.ascii	"x\234\225TAk\023A\024~of7\231tS7\256\012=\205\340\017"
 239      416B1341 
 239      147E6F66 
 239      37997453 
 239      37AE0A3D 
 240 0017 482A8820 		.ascii	"H*\210 B\021\377\201\320@=\225\262\206\260`ZmRD<t\322"
 240      4211FF81 
 240      D0403D95 
 240      B286B060 
 240      5A6D5244 
 241 002e 0D928348 		.ascii	"\015\222\203H\361T\025\301R<x\362\032\301C\024\017\255"
 241      F15415C1 
 241      523C78F2 
 241      1AC14314 
 241      0FAD
 242 0040 6052C143 		.ascii	"`R\301C\004\205E\301\213\236,x(B|\263\263\273\265\232"
 242      048545C1 
 242      8B9E2C78 
 242      28427CB3 
 242      B3BBB59A 
 243 0054 1E322433 		.ascii	"\0362$3\363\276y\357\233o\276\231\204\001\203\177\333"
 243      F3BE79EF 
 243      9B6FBE99 
 243      8401837F 
 243      DB
 244 0065 55FA4E1A 		.ascii	"U\372N\032\000\227i\304\014 [\357\0014\005CSO8\023\257"
 244      009769C4 
 244      0C205BEF 
 244      01340543 
 244      534F3813 
 245 007a 39C809A3 		.ascii	"9\310\011\243\367\026@f\015\215\277\022&\343\335\031"
 245      F7164066 
 245      0D8DBF12 
 245      26E3DD19 
 246 008a C253BB36 		.ascii	"\302S\2736\301)&^\346)J\177(Q\224F\241\222P \252\021"
 246      C129265E 
 246      E6294A7F 
 246      28519446 
 246      A1925020 
 247 00a0 10561937 		.ascii	"\020V\0317\314TZ\340\352\025T\273\342i\330\224\362~"
 247      CC545AE0 
 247      EA1554BB 
 247      E269D894 
 247      F27E
 248 00b2 F0F46780 		.ascii	"\360\364g\200\017d\267\365D\376\036\016\021=$\205g\021"
 248      0F64B7F5 
 248      44FE1E0E 
 248      113D2485 
 248      6711
 249 00c4 5C84390A 		.ascii	"\\\2049\012\260\020\016\3148,\3719\353\006\303\341\335"
 249      B0100ECC 
 249      382CF939 
 249      EB06C3E1 
 249      DD
 250 00d5 17C19767 		.ascii	"\027\301\227g\350\234BX\300M\342\023\340!\317PgX\252"
ARM GAS  /tmp/ccDcZFx1.s 			page 19


 250      E89C4258 
 250      C04DE213 
 250      E021CF50 
 250      6758AA
 251 00e8 CB46B0AD 		.ascii	"\313F\260\255\340\234B\034\325Q\271\011-)\327\013z\031"
 251      E09C421C 
 251      D551B909 
 251      2D29D70B 
 251      7A19
 252 00fa D45ED466 		.ascii	"\324^\324f\251\3578PFF\003\177\007k\235\215\275\251"
 252      A9EF3850 
 252      4646037F 
 252      076B9D8D 
 252      BDA9
 253 010c 05DC4213 		.ascii	"\005\334B\023\036\301\303\246\2249\322v\033\366e[\315"
 253      1EC1C3A6 
 253      9439D276 
 253      1BF6655B 
 253      CD
 254 011d CC5A58A4 		.ascii	"\314ZX\244\304\231\020\317@a}\270\023\364|KW\302AE\312"
 254      C49910CF 
 254      40617DB8 
 254      13F47C4B 
 254      57C24145 
 255 0132 C5B02444 		.ascii	"\305\260$D\204\207\351\032b\224\244s\344M\017E\015Y"
 255      8487E91A 
 255      6294A473 
 255      E44D0F45 
 255      0D59
 256 0144 042AC28C 		.ascii	"\004*\302\214A\212'\000\224\232\301\257q\325\250\253"
 256      418A2700 
 256      949AC1AF 
 256      71D5A8AB 
 257 0154 DE81B5E0 		.ascii	"\336\201\265\340\223\237\326\225\372\300\341Z\334\312"
 257      939FD695 
 257      FAC0E15A 
 257      DCCA
 258 0162 C8A13BC3 		.ascii	"\310\241;\303\373\320\012>\177\215\364TQ$\314\226\213"
 258      FBD00A3E 
 258      7F8DF454 
 258      5124CC96 
 258      8B
 259 0173 EC08D51E 		.ascii	"\354\010\325\036f\2252\177\300\343\262\014U*v\016\241"
 259      6695327F 
 259      C0E3B20C 
 259      552A760E 
 259      A1
 260 0184 0F668C5B 		.ascii	"\017f\214[\011\335\244\253\027U\262\002\247<<\226\207"
 260      09DDA4AB 
 260      1755B202 
 260      A73C3C96 
 260      87
 261 0195 738FE5C6 		.ascii	"s\217\345\306E\017mH\230s\000\333\320\372\221\010\262"
 261      450F6D48 
 261      987300DB 
 261      D0FA9108 
 261      B2
ARM GAS  /tmp/ccDcZFx1.s 			page 20


 262 01a6 14EDA147 		.ascii	"\024\355\241GP\246pp\201\356\311o\373{\367\346\342\304"
 262      50A67070 
 262      81EEC96F 
 262      FB7BF7E6 
 262      E2C4
 263 01b8 6C1531B9 		.ascii	"l\0251\271\212\035`\177\037\274\252\004\353Z\023\350"
 263      8A1D607F 
 263      1FBCAA04 
 263      EB5A13E8 
 264 01c8 59723247 		.ascii	"Yr2G@\262\210\341\236\337\232V\314\245\211x\262\345"
 264      40B288E1 
 264      9EDF9A56 
 264      CCA58978 
 264      B2E5
 265 01da 47C0C83B 		.ascii	"G\300\310;\266\315\211\314h[\212+\005\273v\370^:\373"
 265      B6CD89CC 
 265      685B8A2B 
 265      05BB76F8 
 265      5E3AFB
 266 01ed E3DE100F 		.ascii	"\343\336\020\017}j\005\337\267\222\223\332\343X\337"
 266      7D6A05DF 
 266      B79293DA 
 266      E358DF
 267 01fc 4FACCF51 		.ascii	"O\254\317Q\345(\353\235Q\326\347\"\353\217\347\341\222"
 267      E528EB9D 
 267      51D6E722 
 267      EB8FE7E1 
 267      92
 268 020d B6DE39DA 		.ascii	"\266\3369\332zg\204\365ix\223\2417\343\213\377^\371"
 268      7A6784F5 
 268      697893A1 
 268      37E38BFF 
 268      5EF9
 269 021f 0937CAF5 		.ascii	"\0117\312\365\360d\234-\324\017\352=\375\223\034P\314"
 269      F0649C2D 
 269      D40FEA3D 
 269      FD931C50 
 269      CC
 270 0230 92DB1D47 		.ascii	"\222\333\035G\035\357L\261X\322\237F\245\336(-7J\365"
 270      1DEF4CB1 
 270      58D29F46 
 270      A5DE282D 
 270      374AF5
 271 0243 A59565B7 		.ascii	"\245\225e\267\242C\325\315\327+7V*\213ne~z\372|\321"
 271      A243D5CD 
 271      D72B3756 
 271      2A8B6E65 
 271      7E7AFA7C 
 272 0258 05F4AC6B 		.ascii	"\005\364\254k^\275Q\250\324\2567n\201\035\316\027\227"
 272      5EBD51A8 
 272      D4AE376E 
 272      811DCE17 
 272      97
 273 0269 E2F80FDB 		.ascii	"\342\370\017\333i\004R"
 273      690452
 274              		.text
 275              		.section	.gnu.lto_.symbol_nodes.1182702c4e968c80,"",%progbits
ARM GAS  /tmp/ccDcZFx1.s 			page 21


 276 0000 789C4D8E 		.ascii	"x\234M\216GN\304@\020E\353w\273mc\233\340!\231\005g"
 276      474EC440 
 276      1045EB77 
 276      BB6D639B 
 276      E0219905 
 277 0015 E04CECB9 		.ascii	"\340L\354\271C\2154\022i\2018\000H\010\037\201\234\203"
 277      438D3412 
 277      69813800 
 277      48081F81 
 277      9C83
 278 0027 61066608 		.ascii	"a\006f\010W@\362\202\023\300\022\350`\321\366\346\351"
 278      5740F282 
 278      13C012E8 
 278      60D1F6E6 
 278      E9
 279 0038 95AAFA59 		.ascii	"\225\252\372Y\220\240%A\356\023\307`\242\3557\"\346"
 279      90A02541 
 279      EE13C760 
 279      A2ED3722 
 279      E6
 280 0049 9D8D6571 		.ascii	"\235\215eq\015\206Wu\007IL\352\010\024\260\024W`\321"
 280      0D865775 
 280      07494CEA 
 280      0814B014 
 280      5760D1
 281 005c DA3D07CB 		.ascii	"\332=\007\313\226\236\200\203\326\351!`nF`\325Lw\327"
 281      969E8083 
 281      D6E92160 
 281      6E4660D5 
 281      4C77D7
 282 006f A10E20CC 		.ascii	"\241\016 \314\364\002\034\266N_\300\221_\022\247\340"
 282      F4021CB6 
 282      4E5FC091 
 282      5F12A7E0 
 283 007f B8F5D22D 		.ascii	"\270\365\322-\002\245\177\342\014J\237\252K\204\006"
 283      02A57FE2 
 283      0C4A9FAA 
 283      4B8406
 284 008e 37883450 		.ascii	"7\2104P\201\307\334j\267\013\334\203\023o\017\340\324"
 284      81C7DC6A 
 284      B70BDC83 
 284      136F0FE0 
 284      D4
 285 009f DB109C79 		.ascii	"\333\020\234y\353\203\307\275=\202'\274=\203'\275=\201"
 285      EB83C7BD 
 285      3D8227BC 
 285      3D8327BD 
 285      3D81
 286 00b1 A7BC0DC0 		.ascii	"\247\274\015\300\371\277It\250\374\370\321\314\2516"
 286      F9BF4974 
 286      A8FCF8D1 
 286      CCA936
 287 00c0 0CA6A967 		.ascii	"\014\246\251g\250\032\2063\216qN\345\350}Q\306\035\252"
 287      A81A8633 
 287      8E714EE5 
 287      E87D51C6 
 287      1DAA
ARM GAS  /tmp/ccDcZFx1.s 			page 22


 288 00d2 878639F5 		.ascii	"\207\2069\365\326~W\214W\253\206\263T\357}G2\231s\357"
 288      D67E578C 
 288      57AB86B3 
 288      54EF7D47 
 288      329973EF 
 289 00e6 251DEA7D 		.ascii	"%\035\352}}\2062\311\251\262\324\235\201\276\323^[\306"
 289      7D8632C9 
 289      A9B2D49D 
 289      81BED35E 
 289      5BC6
 290 00f8 B4BFD92F 		.ascii	"\264\277\331/d\252}\353U\311\264\240\322R\367,\233\236"
 290      64AA7DEB 
 290      55C9B4A0 
 290      D252F72C 
 290      9B9E
 291 010a 9EDB5EDA 		.ascii	"\236\333^\332\364\264\333^:\357z\331\202\353e\205\353"
 291      F4B4DB5E 
 291      3AEF7AD9 
 291      82EB6585 
 291      EB
 292 011b 654D4FBB 		.ascii	"eMO\273\355eM/Km\217\376\000A\\\252F"
 292      ED654D2F 
 292      4B6D8FFE 
 292      00415CAA 
 292      46
 293              		.text
 294              		.section	.gnu.lto_.refs.1182702c4e968c80,"",%progbits
 295 0000 789C3D8B 		.ascii	"x\234=\213\007\016\300 \014\003\3031RF\307\177\373\371"
 295      070EC020 
 295      0C03C331 
 295      5246C77F 
 295      FBF9
 296 0012 5A209AE8 		.ascii	"Z \232\350,;\003\303^[E\010\020W\207$\262(\270\037\232"
 296      2C3B03C3 
 296      5E5B4508 
 296      10578724 
 296      B228B81F 
 297 0027 577916DE 		.ascii	"Wy\026\336\346]\335\271\367\271w\351\017\246\2771]\335"
 297      E65DDDB9 
 297      F7B977E9 
 297      0FA6BF31 
 297      5DDD
 298 0039 B3787271 		.ascii	"\263xrq\363H\013C.\323\224\022\301>\246\336\002k"
 298      F3480B43 
 298      2ED39412 
 298      C13EA6DE 
 298      026B
 299              		.text
 300              		.section	.gnu.lto_.decls.1182702c4e968c80,"",%progbits
 301 0000 789CBD5B 		.ascii	"x\234\275[{t\024U\232\277U\335\235\356\220\360\024\331"
 301      7B741455 
 301      9ABF55DD 
 301      9DEE90F0 
 301      14D9
 302 0012 7046871E 		.ascii	"pF\207\036GwgqL\2022\014\350\216\340\272gu\316\214\273"
 302      47776771 
 302      4C82320C 
ARM GAS  /tmp/ccDcZFx1.s 			page 23


 302      E88EE0BA 
 302      6775CE8C 
 303 0027 73F6EC9C 		.ascii	"s\366\354\2343\377\365\224\2352\311N\322\235\351\256"
 303      33FFF594 
 303      9D32C94E 
 303      D29DE9AE 
 304 0037 08ECFE41 		.ascii	"\010\354\376A%@x\310BH\004B\024&\341\261\301\303#\020"
 304      254078C8 
 304      42480442 
 304      1426E1B1 
 304      C1C32310 
 305 004b 2501C2A3 		.ascii	"%\001\302\243\021\022C\324\020\"!\223\211@Tf5\303\254"
 305      111243D4 
 305      10222193 
 305      89405466 
 305      35C3AC
 306 005e 88AC4814 		.ascii	"\210\254H\024\351\375\356\243\252\253\252\253\252\253"
 306      E9FDEEA3 
 306      AAABAAAB 
 306      AAAB
 307 006c C3B875B8 		.ascii	"\303\270u\270\225[\267\356\367\373\336\367U\015\217"
 307      955BB7EE 
 307      F7FBDEF7 
 307      550D8F
 308 007b 7854E046 		.ascii	"xT\340F(\016\327\364\005\010\211^\204\306!\204\236\204"
 308      280ED7F4 
 308      0508895E 
 308      84C62184 
 308      9E84
 309 008d 32014A23 		.ascii	"2\001J#\224mP\232\240\270\240x\240Tr\010-\206\262\024"
 309      946D509A 
 309      A0B8A078 
 309      A0547208 
 309      2D86B214 
 310 00a1 CA322855 		.ascii	"\3122(UP$(K\240\254\202\262\032\012\276\246@Y\003\365"
 310      5024284B 
 310      A0AC82B2 
 310      1A0ABEA6 
 310      405903F5 
 311 00b5 5A289BA0 		.ascii	"Z(\233\240\324C\331\002\245\001\312\016(MPvC\331\007"
 311      D443D902 
 311      A501CA0E 
 311      284D5076 
 311      43D907
 312 00c8 A515CA69 		.ascii	"\245\025\312i(g\240\234\205r\036\312\037\240\\\206\362"
 312      2867A09C 
 312      85721ECA 
 312      1FA05C86 
 312      F2
 313 00d9 11141F60 		.ascii	"\021\024\037`\215\300\337\233PF\241|\015\345\033(Sy"
 313      8DC0DF9B 
 313      5046A17C 
 313      0DE51B28 
 313      5379
 314 00eb 84664099 		.ascii	"\204f@\231\311#\335\205\371b1\346\263g\216\265\031/"
 314      C923DD85 
 314      F96231E6 
ARM GAS  /tmp/ccDcZFx1.s 			page 24


 314      B3678EB5 
 314      192F
 315 00fd 2C5B36EB 		.ascii	",[6\353\267\237\243\372\315\006\254\037\361\011\235"
 315      B79FA3FA 
 315      CD06AC1F 
 315      F1099D
 316 010c DBA07D0E 		.ascii	"\333\240}\016\237\260E3\303q1\372V\246\003\026\001\313"
 316      9FB04533 
 316      C37131FA 
 316      56A60316 
 316      01CB
 317 011e 3562E083 		.ascii	"5b\340\203u\007\023\243\0373L\314\243\203\365\341\331"
 317      750713A3 
 317      1F334CCC 
 317      A383F5E1 
 317      D9
 318 012f FBD34C5E 		.ascii	"\373\323L^#m}\012\332z\033\332-L\237\271<\365\031\256"
 318      236D7D0A 
 318      DA7A1BDA 
 318      2D4C9FB9 
 318      3CF519AE 
 319 0143 63BF756B 		.ascii	"c\277uk\350\2670\233\343\246\233\006z\354\247\251\214"
 319      E8B7309B 
 319      E3A69B06 
 319      7AECA7A9 
 319      8C
 320 0154 278E056C 		.ascii	"'\216\005l\247y|\302V\330N\335P\177\234\311\326\313"
 320      A7797CC2 
 320      56D84EDD 
 320      507F9CC9 
 320      D6CB
 321 0166 51BB696D 		.ascii	"Q\273im\246\304\010\266\231b?|\271\031\376Y\215\375"
 321      A6C408B6 
 321      99623F7C 
 321      B919FE59 
 321      8DFD
 322 0178 5CCC7EA3 		.ascii	"\\\314~\243&6\304\3612\315 \213V\216'\230\014J,\366"
 322      2636C4F1 
 322      32CD208B 
 322      568E2798 
 322      0C4A2CF6 
 323 018c 3B94E5EF 		.ascii	";\224\345\357\260_\031/\017\343s^#S\203F\256\021&\233"
 323      B05F192F 
 323      0FE3735E 
 323      23538346 
 323      AE11269B 
 324 01a0 F6C2319C 		.ascii	"\366\3021\234\343\300F?a>\030\202\362$\324\207md\302"
 324      E3C0463F 
 324      613E1882 
 324      F224D487 
 324      6D64C2
 325 01b3 FE5AC2FC 		.ascii	"\376Z\302\374\244\315\247\014\306O\311\213}\314wk\014"
 325      A4CDA70C 
 325      C64FC98B 
 325      7DCC776B 
 325      0C
 326 01c4 B633FA11 		.ascii	"\2663\372\021\347\330\2756\266\233\317dSlw\305\201\214"
ARM GAS  /tmp/ccDcZFx1.s 			page 25


 326      E7D8BD36 
 326      B69BCF64 
 326      536C77C5 
 326      818C
 327 01d6 0BA07D97 		.ascii	"\013\240}\227\306n\273Y\236*r5idRrV{e\241\325\262\\"
 327      C66EBB59 
 327      9E2A7235 
 327      69645272 
 327      567B65A1 
 328 01ed 293754C9 		.ascii	")7T\311\317vM\230\214\252e\270\374u\0232\321J\334<\274"
 328      CF764D98 
 328      8CAA65B8 
 328      FC751332 
 328      D14ADC3C 
 329 0202 53CE01AB 		.ascii	"S\316\001\253\376\212\0238h\362\221Jv&\011\322\207\320"
 329      FE8A1338 
 329      68F2914A 
 329      762609D2 
 329      87D0
 330 0214 0EE80AFD 		.ascii	"\016\350\012\375y\201\333\316eB\020\363&i\215/\372\036"
 330      7981DBCE 
 330      654210F3 
 330      26698D2F 
 330      FA1E
 331 0226 5F989CD6 		.ascii	"_\230\234\326\225Z\234S\321\027)\350\023\031\3256n2"
 331      955A9C53 
 331      D11729E8 
 331      1319D536 
 331      6E32
 332 0238 A9115964 		.ascii	"\251\021Yd&\"\351\301(\374\012\205\233Q\374\227\206"
 332      2622E9C1 
 332      28FC0A85 
 332      9B51FC97 
 332      86
 333 0249 4F7666A2 		.ascii	"Ovf\2422\201IbE\327\310e\231\332c\012ZO\354\3215A\245"
 333      32814962 
 333      45D7C865 
 333      99DA630A 
 333      5A4FECD1 
 334 0260 8D710A71 		.ascii	"\215q\012q\216b\204\352\341u\177\312\221\335\002\267"
 334      8E6284EA 
 334      E1757FCA 
 334      91DD02B7 
 335 0270 8B9B0266 		.ascii	"\213\233\002f\230\303\241\231\3505j\233\312\2771\263"
 335      98C3A199 
 335      E8356A9B 
 335      CABF31B3 
 336 0280 494A582C 		.ascii	"IJX,\323\036\000\023\270\335\334Lf\351\330\341\316l"
 336      D31E0013 
 336      B8DDDC4C 
 336      66E9D8E1 
 336      CE6C
 337 0292 CC04B723 		.ascii	"\314\004\267#\366\306\344\372\036j\300\235\333;_\345"
 337      F6C6E4FA 
 337      1E6AC09D 
 337      DB3B5FE5 
 338 02a2 E4863739 		.ascii	"\344\20679\023V\277V8e'\024\030\250:\352\222e\237\300"
ARM GAS  /tmp/ccDcZFx1.s 			page 26


 338      1356BF56 
 338      38652714 
 338      18A83AEA 
 338      92659FC0 
 339 02b6 351315A2 		.ascii	"5\023\025\242\234\216A*\020\036g\211\300\265\030%\036"
 339      9C8E412A 
 339      101E6789 
 339      C0B51825 
 339      1E
 340 02c7 6CE4FCB4 		.ascii	"l\344\374\2649\265\300C\177\314\224k\262M8-P8\371\022"
 340      39B5C043 
 340      7FCC946B 
 340      B24D382D 
 340      5038F912 
 341 02db E21E5E7D 		.ascii	"\342\036^}~=\267L\226\341E+\021\370\000g*q\303\002+"
 341      7E3DB74C 
 341      96E1452B 
 341      11F80067 
 341      2A71C302 
 342 02f0 201E9D24 		.ascii	" \036\235$$\207\0152\017\367\367\234\255\344*\010\364"
 342      24870D32 
 342      0FF7F79C 
 342      ADE42A08 
 342      F4
 343 0301 61078257 		.ascii	"a\007\202W\306\316\255\3362\035[:U\3404\270\025\376"
 343      C6CEADDE 
 343      321D5B3A 
 343      55E034B8 
 343      15FE
 344 0313 FF9050E4 		.ascii	"\377\220P\344P\367|\354\323\343D\211\033\346JX\203\360"
 344      50F77CEC 
 344      D3E34489 
 344      1BE64A58 
 344      83F0
 345 0325 E8362139 		.ascii	"\3506!9\231\244\304\332\213\212\022'\035Y\377\313n\032"
 345      99A4C4DA 
 345      8B8A1227 
 345      1D59FFCB 
 345      6E1A
 346 0337 2E8A3DAB 		.ascii	".\212=\253x\005\327\314xjz!\244J\2467\312\255\356\354"
 346      7805D7CC 
 346      786A7A21 
 346      A44AA637 
 346      CAADEEEC 
 347 034b 6A818D21 		.ascii	"j\201\215!\324\"\346\311\247\370\263\346\3649n)\221"
 347      D422E6C9 
 347      A7F8B3E6 
 347      F4396E29 
 347      91
 348 035c F72D3294 		.ascii	"\367-2\224t\360zS8\207j\337\330q\222\253$P\335\004\352"
 348      74F07A53 
 348      38876ADF 
 348      D87192AB 
 348      2450DD04 
 349 0371 EA98A106 		.ascii	"\352\230\241\006\007N\257gR\275K\240\266\271\364P\002"
 349      074EAF67 
 349      52BD4BA0 
ARM GAS  /tmp/ccDcZFx1.s 			page 27


 349      B6B9F450 
 349      02
 350 0382 E7551557 		.ascii	"\347U\025W\237\225\016\030\317\233\231\250\340\205\335"
 350      9F950E18 
 350      CF9B99A8 
 350      E085DD
 351 0391 44F42D77 		.ascii	"D\364-w\347\321^\227\301s:\3154N4\365\234<|\276\347"
 351      E7D15E97 
 351      C1733ACD 
 351      344E34F5 
 351      9C3C7CBE 
 352 03a6 12BF598E 		.ascii	"\022\277Y\216-s))\224ae%\036\265\020^}\306\350\213\017"
 352      2D732929 
 352      94616525 
 352      1EB5105E 
 352      7DC6E88B 
 353 03bb BDA3445F 		.ascii	"\275\243D_\237\243\024:\330\275\311Y\012\361\012\377"
 353      9FA3143A 
 353      D8BDC959 
 353      0AF10AFF 
 354 03cb 0709FF11 		.ascii	"\007\011\377\021\302\177\300\310\177\350r\307R\306\177"
 354      C27FC0C8 
 354      7FE872C7 
 354      52C67F
 355 03da C011FFCD 		.ascii	"\300\021\377\315=/'\363\027\270'\357\265\213\216\370"
 355      3D2F27F3 
 355      17B827EF 
 355      B58B8EF8 
 356 03ea D07F5F67 		.ascii	"\320\177_g\\\206\200\222G\333\335\306\350\230\237\245"
 356      5C868092 
 356      47DBDDC6 
 356      E8989FA5 
 357 03fa 65469E35 		.ascii	"eF\2365\035x\264\307\255\310o\343+d\345\253JP\264\263"
 357      1D78B4C7 
 357      ADC86FE3 
 357      2B64E5AB 
 357      4A50B4B3 
 358 040e 96AB592A 		.ascii	"\226\253Y*w\345+24\247\215\350\327Y\342\325\036\310"
 358      77E52B32 
 358      34A78DE8 
 358      D759E2D5 
 358      1EC8
 359 0420 5B05ACC5 		.ascii	"[\005\254\305\011\230e(U\306\266j\301Z\323\006\323K"
 359      09986528 
 359      55C6B66A 
 359      C15AD306 
 359      D34B
 360 0432 B65F0B76 		.ascii	"\266_\013v\304\011\330$k\311Z\264`\307\322\006\323K"
 360      C409D824 
 360      6BC95AB4 
 360      60C7D206 
 360      D34B
 361 0444 F686162C 		.ascii	"\366\206\026,\346\004,\307Z\262V-\330\251\264\301\364"
 361      E6042CC7 
 361      5AB2562D 
 361      D8A9B4C1 
 361      F4
ARM GAS  /tmp/ccDcZFx1.s 			page 28


 362 0455 921DD282 		.ascii	"\222\035\322\202u:\001\363\233H\246^V\253\247\013\211"
 362      753A01F3 
 362      9B48A65E 
 362      56ABA70B 
 362      89
 363 0466 D5138FCE 		.ascii	"\325\023\217\316\270\2251!\315\230F\011\214w\334\351"
 363      B8953121 
 363      CD984609 
 363      8C77DCE9 
 364 0476 8E613ABD 		.ascii	"\216a:\275a\016\277\274\215\253\245yq\214(\337\353\004"
 364      610EBFBC 
 364      8DABA579 
 364      718C28DF 
 364      EB04
 365 0488 D12660AA 		.ascii	"\321&`\252\337&\226\244`\027\322\006\323\273e+\006\323"
 365      DF2696A4 
 365      6017D206 
 365      D3BB652B 
 365      06D3
 366 049a 8D35EA6A 		.ascii	"\2155\352j;\226S\227\030\356t\313m\201\333\301=\344"
 366      3B965397 
 366      18EE74CB 
 366      6D81DBC1 
 366      3DE4
 367 04ac 74299DE4 		.ascii	"t)\235\344\242\233Z\027\275\357D~\233\030\355\265\222"
 367      A29B5A17 
 367      BDEF447E 
 367      9B18EDB5 
 367      92
 368 04bd 3F5625AF 		.ascii	"?V%\257\344*\016\334g\273v\213\017}\332\310&\350\257"
 368      E42A0EDC 
 368      67BB768B 
 368      0F7DDAC8 
 368      26E8AF
 369 04d0 C9ACFA81 		.ascii	"\311\254\372\201\333t\202v\004\326\276\361\2542\333"
 369      DB748276 
 369      04D6BEF1 
 369      AC32DB
 370 04df DF21607F 		.ascii	"\337!`\177\276\013\260\301\201\213\312|_\301c\260/\222"
 370      BE0BB0C1 
 370      818BCA7C 
 370      5FC163B0 
 370      2F92
 371 04f1 46F44CC3 		.ascii	"F\364L\303|\237\251\237\22133\023\225\270r\351w\000"
 371      7C9FA99F 
 371      91333313 
 371      95B872E9 
 371      7700
 372 0503 DF2A8D95 		.ascii	"\337*\215\225\373\277\322\272_\366\244\353~}v\235\357"
 372      FBBFD2BA 
 372      5FF6A4EB 
 372      7E7D769D 
 372      EF
 373 0514 B9C96F92 		.ascii	"\271\311o\222c\025.\315\036\321*j\225\365]\337\361\237"
 373      63152ECD 
 373      1ED12A6A 
 373      95F55DDF 
ARM GAS  /tmp/ccDcZFx1.s 			page 29


 373      F19F
 374 0526 90ED4515 		.ascii	"\220\355E\025\261\353\012\217\251\223\034\000\265o\334"
 374      B1EB0A8F 
 374      A9931C00 
 374      B56FDC
 375 0535 FB30015A 		.ascii	"\3730\001ZE\200\252\307\01448\260u.\001ZC\200\352<F"
 375      4580AAC7 
 375      0C3438B0 
 375      752E015A 
 375      4380EA3C 
 376 054a 4F73064F 		.ascii	"Os\006Osz\017\250\231\307\022\357\333\352\013\213N\243"
 376      737A0FA8 
 376      99C712EF 
 376      DBEA0B8B 
 376      4EA3
 377 055c BB74EAD8 		.ascii	"\273t\352\330\214\333\352`x\273\206\273Q)\327\345\247"
 377      8CDBEA60 
 377      78BB86BB 
 377      5129D7E5 
 377      A7
 378 056d E1AF1AE6 		.ascii	"\341\257\032\346\257\365\304:\273\222\254\203\315\237"
 378      AFF5C43A 
 378      BB92AC83 
 378      CD9F
 379 057b 9E1AFBD3 		.ascii	"\236\032\373\323V\303\247Wcm|\014j\234\240jl$j\264\376"
 379      56C3A757 
 379      636D7C0C 
 379      6A9CA06A 
 379      6C246AB4 
 380 0590 05D4389E 		.ascii	"\005\3248\236\266\032\2234j\220\355\345\313tj\272\007"
 380      B61A9334 
 380      6A90EDE5 
 380      CB746ABA 
 380      07
 381 05a1 D5D8AFAF 		.ascii	"\325\330\257\257\261<\257\360\367\350\267\324\375=x"
 381      B13CAFF0 
 381      F7E8B7D4 
 381      FD3D78
 382 05b0 4B8D9B53 		.ascii	"K\215\233So\352n\364\274J\226\265\272\363\023\373}X"
 382      6FEA6EF4 
 382      BC4A96B5 
 382      BAF313FB 
 382      7D58
 383 05c2 9FBA0FDB 		.ascii	"\237\272\017\333JLv\312,\301\234@5\264_\270\027\357"
 383      4A4C76CA 
 383      2CC19C40 
 383      35B45FB8 
 383      17EF
 384 05d4 6C1B09CC 		.ascii	"l\033\011\314\231\261\302@\236\236\240y\272\203\000"
 384      99B1C240 
 384      9E9EA079 
 384      BA8300
 385 05e3 9D4B7261 		.ascii	"\235Kra\206\301\203\031z\017\302#\346t\213\014\220K"
 385      86C18319 
 385      7A0FC223 
 385      E6748B0C 
 385      904B
ARM GAS  /tmp/ccDcZFx1.s 			page 30


 386 05f5 580B7EF0 		.ascii	"X\013~\360\242\377w:\036\015\021\361\261\367\306\262"
 386      A2FF773A 
 386      1E0D11F1 
 386      B1F7C6B2 
 387 0605 E0C7FBFA 		.ascii	"\340\307\373\372+\265\312\302\206:\350\303\273B\254"
 387      2BB5CAC2 
 387      863AE8C3 
 387      BB42AC
 388 0614 8CFD6E1D 		.ascii	"\214\375n\035=\275 \233\023\330,\337%\334\321\263\306"
 388      3DBD209B 
 388      13D82CDF 
 388      25DCD1B3 
 388      C6
 389 0625 A581614F 		.ascii	"\245\201aOu\334b\332Q\017v:\225\371|\037\217\005\372"
 389      75DC62DA 
 389      510F763A 
 389      95F97C1F 
 389      8F05FA
 390 0638 3CC9E1C7 		.ascii	"<\311\341\3078\303\256\0127h\272X\245\322^^3\007.\317"
 390      38C3AE0A 
 390      3768BA58 
 390      A5D25E5E 
 390      33072ECF 
 391 064c B84B47F4 		.ascii	"\270KG\364|ap\304Kw\205X\031\033]gr\214D\017\317\254"
 391      7C6170C4 
 391      4B778558 
 391      191B5D67 
 391      728C440F 
 392 0662 343AA8D5 		.ascii	"4:\250\325\250\366.\371\327\367\031=g\262\001\227\325"
 392      A8F62EF9 
 392      D7F7193D 
 392      67B20197 
 392      D5
 393 0673 53CA4984 		.ascii	"S\312I\204i=az\2307l\3007\335\350Z\241\234\241\361N"
 393      693D617A 
 393      98376CC0 
 393      37DDE85A 
 393      A19CA1F1 
 394 0688 8E9FBE20 		.ascii	"\216\237\276 \207\177\364\360I\340:8\236\241\232-\326"
 394      877FF4F0 
 394      49E03A38 
 394      9EA19A2D 
 394      D6
 395 0699 1C9872E4 		.ascii	"\034\230r\344\014G\340\350r\375\224*\244\323\335\204"
 395      0C47E0E8 
 395      72FD942A 
 395      A4D3DD84 
 396 06a9 1EEEB6D8 		.ascii	"\036\356\266\330\225\237\236ah0\307\006\377\210\307"
 396      959F9E61 
 396      6830C706 
 396      FF88C7
 397 06b8 EA933C3E 		.ascii	"\352\223<>P;\223a\214cj\031M\034'\314(p\355<^\353\037"
 397      503B9361 
 397      8C636A19 
 397      4D1C27CC 
 397      2870ED3C 
 398 06cf E5BF87E3 		.ascii	"\345\277\207\343\233\334O\300]\275\254\"\"\246\215\210"
ARM GAS  /tmp/ccDcZFx1.s 			page 31


 398      9BDC4FC0 
 398      5DBDAC22 
 398      22A68D88 
 399 06df 7369EBED 		.ascii	"si\353\3557x\307\212\315!-\233\013w\027x\260\234\354"
 399      3778C78A 
 399      CD212D9B 
 399      0B771778 
 399      B09CEC
 400 06f2 719303A7 		.ascii	"q\223\003\2474\216\013\373:\324\343B\222|\027\223\254"
 400      348E0BFB 
 400      3AD4E342 
 400      927C1793 
 400      AC
 401 0703 DB6D5CBF 		.ascii	"\333m\\\27799;\033\031\253*\352\305\243\3172\034\254"
 401      39393B1B 
 401      19AB2AEA 
 401      C5A3CF32 
 401      1CAC
 402 0715 AEFD2656 		.ascii	"\256\375&VW\207\370\013l\201\220\362\000N\261F\367;"
 402      5787F80B 
 402      6C8190F2 
 402      004EB146 
 402      F73B
 403 0727 15EC30FC 		.ascii	"\025\3540\374]\022k\237\033\254\341\340$\257\302\213"
 403      5D126B9F 
 403      1BACE1E0 
 403      24AFC28B 
 404 0737 497A8D89 		.ascii	"Iz\215\211\334\277V=\311\353u\220\310\225\261\327W+"
 404      DCBF563D 
 404      C9EB7590 
 404      C895B1D7 
 404      572B
 405 0749 D3091D95 		.ascii	"\323\011\035\225O\363<\303\035\253EuN\354\325\244H\037"
 405      4FF33CC3 
 405      1DAB4575 
 405      4EECD5A4 
 405      481F
 406 075b 4991F7B4 		.ascii	"I\221\367\264i\301\243\365^\007\326\377\201U0\302@\324"
 406      69C1A3F5 
 406      5E07D6FF 
 406      815530C2 
 406      40D4
 407 076d A73F07DF 		.ascii	"\247?\007\337l\3043\033\212txZoV\306\252\337#\347\006"
 407      6CC4331B 
 407      8A74785A 
 407      6F56C6AA 
 407      DF23E706 
 408 0781 344AB739 		.ascii	"4J\2679\021.\337\032\354w\265\212q\017\221\271q\267"
 408      112EDF1A 
 408      EC77B58A 
 408      710F91B9 
 408      71B7
 409 0793 13BCB956 		.ascii	"\023\274\271V\312V\306\332\336{\225\341\321C\367\327"
 409      CA56C6DA 
 409      DE7B95E1 
 409      D143F7D7 
 410 07a3 D3C6D3CB 		.ascii	"\323\306\323\313\327_\253[K\034u\002\267\300\261\357"
ARM GAS  /tmp/ccDcZFx1.s 			page 32


 410      D75FAB5B 
 410      4B1C7502 
 410      B7C0B1EF 
 411 07b3 131F3904 		.ascii	"\023\0379\004\356\0249\0129\315\341\201\261\223\334"
 411      EE14390A 
 411      39CDE181 
 411      B193DC
 412 07c2 CF91FB75 		.ascii	"\317\221\373ur\277A\356_\220\373(\271/"
 412      72BF41EE 
 412      5F90FB28 
 412      B92F
 413 07d0 27436835 		.ascii	"'Ch5\271o \367zr\177\207\334\373\311}\200\334\007\311"
 413      B96F20F7 
 413      7A727F87 
 413      DCFBC97D 
 413      80DC07C9 
 414 07e4 7D88DC2F 		.ascii	"}\210\334/:\031r\015\253\017%\344\017\217\365P7\326"
 414      3A19720D 
 414      AB0F25E4 
 414      0F8FF550 
 414      37D6
 415 07f6 D7AD396A 		.ascii	"\327\2559jz\323\313\245\011\346\267\263\341a\215\015"
 415      7AD3CBA5 
 415      09E6B7B3 
 415      E1618D0D 
 416 0806 DB890D8F 		.ascii	"\333\211\015\217\022\373\\\326j\252L\300-\366Qo\251"
 416      12FB5CD6 
 416      6AAA4CC0 
 416      2DF6516F 
 416      A9
 417 0817 823C3CD0 		.ascii	"\202<<\320\3316/1\244;\334yt*C\372\207$Y\336\362\032"
 417      D9362F31 
 417      A43BDC79 
 417      742A43FA 
 417      872459DE 
 418 082d 87F446E3 		.ascii	"\207\364F\343f-\255\245\367\273^\016Y/\247lV\001\346"
 418      662DADA5 
 418      F7BB5E0E 
 418      592FA76C 
 418      5601E6
 419 0840 966CD158 		.ascii	"\226l\321X\362\015b\311\203\304\222\037\350\307\243"
 419      F20D62C9 
 419      83C4921F 
 419      E8C7A3
 420 084f 7384EB9E 		.ascii	"s\204\353\236\004\327_+\254\262\035Y\362\332\307]\256"
 420      04D75F2B 
 420      ACB21D59 
 420      F2DAC75D 
 420      AE
 421 0860 0ACDD798 		.ascii	"\012\315\327\230\024\337qc[:\361\222\343\0232\015\364"
 421      14DF7163 
 421      5B3AF192 
 421      E313320D 
 421      F4
 422 0871 7B4DA701 		.ascii	"{M\247\001K\010\254\326U\303\014\020[O?:_u4\372\327"
 422      4B08ACD6 
 422      55C30C10 
ARM GAS  /tmp/ccDcZFx1.s 			page 33


 422      5B4F3F3A 
 422      5F7534FA 
 423 0886 56597F0A 		.ascii	"VY\177\012\265\233}>\"\222^3\362\276.\370ikj\3167\224"
 423      B59B7D3E 
 423      22925E33 
 423      F2BE2EF8 
 423      696B6ACE 
 424 089c 25DFA77C 		.ascii	"%\337\247|b\332\271v\027\323\216U\272\177\232X\372("
 424      62DAB976 
 424      17D38E55 
 424      BA7F9A58 
 424      FA28
 425 08ae 6CAEA6CF 		.ascii	"l\256\246\317\206I\275\241S\263Aw\264\3629\021\037~"
 425      8649BDA1 
 425      53B34177 
 425      B4F23911 
 425      1F7E
 426 08c0 BC599627 		.ascii	"\274Y\226'\011\334\377\222,i\360\031\263\304cH\022\217"
 426      09DCFF92 
 426      2C69F019 
 426      B3C46348 
 426      128F
 427 08d2 3E493C99 		.ascii	">I<\231\211\212\272\356i\"(\351\350\341\327\3521\274"
 427      898ABAEE 
 427      692228E9 
 427      E8E1D7EA 
 427      31BC
 428 08e4 EEA32E17 		.ascii	"\356\243.\027\311w\235\343\247\241\015,\371eN\"s\202"
 428      C9779DE3 
 428      A7A10D2C 
 428      F9654E22 
 428      7382
 429 08f6 9551BFE2 		.ascii	"\225Q\277\342\247\221\232\213\374\022\012Q\345\324\007"
 429      A7919A8B 
 429      FC120A51 
 429      E5D407
 430 0905 AA91C0FD 		.ascii	"\252\221\300\375\322e\353\035\345\227\014\333Gs^#\026"
 430      D265EB1D 
 430      E5970CDB 
 430      47735E23 
 430      16
 431 0916 1A2593E4 		.ascii	"\032%\223\344\007\006\013\031\366W\230\265\225Xq>\313"
 431      07060B19 
 431      F65798B5 
 431      9558713E 
 431      CB
 432 0927 22F092DE 		.ascii	"\"\360\222\336\361\350S'6t>\276\\\325\254t\376LV:\377"
 432      F1E85327 
 432      36743EBE 
 432      5CD5AC74 
 432      FE4C563A 
 433 093c 43E6A41B 		.ascii	"C\346\244\033\344~K?\312|\351s0\312\330\256\364u\274"
 433      E47E4B3F 
 433      CA7CE973 
 433      30CAD8AE 
 433      F475BC
 434 094f F768C6B6 		.ascii	"\367h\306\266\275dl\333G\306\266\217\235\314\207M\026"
ARM GAS  /tmp/ccDcZFx1.s 			page 34


 434      BD646CDB 
 434      47C6B68F 
 434      9DCC874D 
 434      16
 435 0960 3FA5A1A3 		.ascii	"?\245\241\243\222\025U\245\313\234*\361\203$\372\215"
 435      921555A5 
 435      CB9C2AF1 
 435      8324FA8D 
 436 0970 83D1FF4A 		.ascii	"\203\321\377J\241\317b\364\313\\\351\376Th\271\313\374"
 436      A1CF62F4 
 436      CB5CE9FE 
 436      5468B9CB 
 436      FC
 437 0981 A742E352 		.ascii	"\247B\343R\350\2674\205\244\230mwBR\375\306\020\003"
 437      E8B73485 
 437      A4986D77 
 437      4252FDC6 
 437      1003
 438 0993 AC485BD4 		.ascii	"\254H[\324\225\026\242\272R\210Z\225\236Q\273TQ\247"
 438      9516A2BA 
 438      52885A95 
 438      9E51BB54 
 438      51A7
 439 09a5 3380D569 		.ascii	"3\200\325i\213\372\222\205\2509)D]\225\020u\006\332"
 439      8BFA9285 
 439      A8392944 
 439      5D951075 
 439      06DA
 440 09b7 2AF77E36 		.ascii	"*\367~6<\3324\3621\267\036\366A\362gx\224\242\231\312"
 440      3CDA34F2 
 440      31B71EF6 
 440      41F26778 
 440      94A299CA 
 441 09cb A37D99FA 		.ascii	"\243}\231\372t~\020m\227\345\032y\223\370\2542$\036"
 441      747E106D 
 441      97E51A79 
 441      93F8AC32 
 441      241E
 442 09dd 253DD6B8 		.ascii	"%=\326\270f\2302\243\275\024\262~L\346\301T'SP\321A"
 442      669832A3 
 442      BD14B27E 
 442      4CE6C154 
 442      275350D1 
 443 09f2 E8AFD14E 		.ascii	"\350\257\321Nl\306cW~\361,\373\272oM\3034\373O\227\356"
 443      6CC66357 
 443      7EF12CFB 
 443      BA6F4DC3 
 443      34FB4F97 
 444 0a07 07B158BB 		.ascii	"\007\261X\273\330g\261\315}ka\344\257\214\305\343\363"
 444      D867B1CD 
 444      7D6B61E4 
 444      AF8CC5E3 
 444      F3
 445 0a18 91619CB4 		.ascii	"\221a\234\264\370\325\001\306z\3315\215\325\224\261"
 445      F8D501C6 
 445      7AD9358D 
 445      D594B1
ARM GAS  /tmp/ccDcZFx1.s 			page 35


 446 0a27 10D64906 		.ascii	"\020\326I\006\2030!\341\332%\273\010\032\356_\013Bj"
 446      833021E1 
 446      DA25BB08 
 446      1AEE5F0B 
 446      426A
 447 0a39 2E58059B 		.ascii	".X\005\233\212U\335\227]]1\034\217\317\240\274x\364"
 447      8A55DD97 
 447      5D5D311C 
 447      8FCFA0BC 
 447      78F4
 448 0a4b BE23F44D 		.ascii	"\276#\364MF\364:S\364\013o\033\320\2579B\2577\242\277"
 448      46F43A53 
 448      F40B6F1B 
 448      D0AF3942 
 448      AF37A2BF 
 449 0a5f 628A7EAB 		.ascii	"b\212~\253\323\200^9\316\011\372\026#\372VS\364Ko\257"
 449      D3805E39 
 449      CE09FA16 
 449      23FA5653 
 449      F44B6FAF 
 450 0a73 F15178E7 		.ascii	"\361Qx\347\356j4q\327\006s\241\252\365B5\030\205\332"
 450      EE6A3471 
 450      D70673A1 
 450      AAF54235 
 450      1885DA
 451 0a86 662694DC 		.ascii	"f&\224\334\"\313\2312L\342\370'\230T\347\003\216t\336"
 451      22CB9932 
 451      4CE2F827 
 451      9854E703 
 451      8E74DE
 452 0a99 6184DF69 		.ascii	"a\204\337i\036\015o\245\257\363.\023\235;\035\351\334"
 452      1E0D6FA5 
 452      AFF32E13 
 452      9D3B1DE9 
 452      DC
 453 0aaa 6414EA35 		.ascii	"d\024\3525\207:\177\350H\347\335F\370=\311\360\303\325"
 453      873A7FE8 
 453      48E7DD46 
 453      F83DC9F0 
 453      C3D5
 454 0abc C397DBAE 		.ascii	"\303\227\333\256\377\260\256E^\266J\276\023_\302\351"
 454      FFB0AE45 
 454      5EB64ABE 
 454      135FC2E9 
 455 0acc F4F6A115 		.ascii	"\364\366\241\025\344\273\323r\271\202\373\255:\224Y"
 455      E4BBD372 
 455      B982FBAD 
 455      3A9459
 456 0adb FE2676BF 		.ascii	"\376&v\277\313\007\302\275\234\245\377\340\247\021\000"
 456      CB07C2BD 
 456      9CA5FFE0 
 456      A71100
 457 0aea 77C017A6 		.ascii	"w\300\027\246\247u\245f\363%\267\331eX*\341\376\352"
 457      A775A566 
 457      F325B7D9 
 457      65582AE1 
 457      FEEA
ARM GAS  /tmp/ccDcZFx1.s 			page 36


 458 0afc 03FBCCAF 		.ascii	"\003\373\314\257[+\361\250>\313h \332\351\240\251\005"
 458      5B2BF1A8 
 458      3ECB6820 
 458      DAE9A0A9 
 458      05
 459 0b0d D6359FE1 		.ascii	"\3265\237\3416\313o.\003#/1\216M6k\2706\243`x!\300\036"
 459      36CB6F2E 
 459      03232F31 
 459      8E4D366B 
 459      B836A360 
 460 0b25 D8FA56AE 		.ascii	"\330\372V\256\222\177\260+\261\276\235\244@\360Hs\226"
 460      927FB02B 
 460      B1BE9DA4 
 460      40F04873 
 460      96
 461 0b36 D53A937C 		.ascii	"\325:\223|\3569\342\302\355M\006\311\235\003\265ol\373"
 461      EE39E2C2 
 461      ED4D06C9 
 461      9D03B56F 
 461      6CFB
 462 0b48 21013A46 		.ascii	"!\001:F\200\016\214\031hp`\357<\002\024#@G\262\214\013"
 462      800E8C19 
 462      687060EF 
 462      3C021423 
 462      4047B28C 
 463 0b5d 6E9761C1 		.ascii	"n\227a\301\355\322/\270]\231\211J<\356B\337ng\203\347"
 463      EDD22FB8 
 463      5D99894A 
 463      3CEE42DF 
 463      6E6783E7 
 464 0b71 3B2C3C7F 		.ascii	";,<\177\312\334\363\373NZz\336&\345;l<\317\246\333$"
 464      CADCF3FB 
 464      4E5A7ADE 
 464      26E53B6C 
 464      3CCFA6DB 
 465 0b86 C12E5B08 		.ascii	"\301.[\010\326e&X\254\257{\215\314\245;\022u\033\305"
 465      D6652658 
 465      ACAF7B8D 
 465      CCA53B12 
 465      751BC5
 466 0b99 C26B4CA3 		.ascii	"\302kL\243X\352\363(o\2269_Z\210\331c*\346\235\261\210"
 466      58EAF328 
 466      6F96395F 
 466      5A88D963 
 466      2AE69DB1 
 467 0bae D96B6BBD 		.ascii	"\331kk\275\371fR\255\3146\227\352=S\251>\037\213T\375"
 467      F96652AD 
 467      CC3697EA 
 467      3D53A93E 
 467      1F8B54FD 
 468 0bc2 0EA44AE1 		.ascii	"\016\244J\341\342z\013)\007M\245|\177,R\016\331\272"
 468      E27A0B29 
 468      074DA57C 
 468      7F2C520E 
 468      D9BA
 469 0bd4 D8D47607 		.ascii	"\330\324v\007,\244\272d*\325`\367\232\351r\243\3512"
 469      2CA4BA64 
ARM GAS  /tmp/ccDcZFx1.s 			page 37


 469      2AD560F7 
 469      9AE972A3 
 469      E932
 470 0be6 CD66281C 		.ascii	"\315f(\0346\023\313 \307Q\0139>4\225\243\177\265\245"
 470      3613CB20 
 470      C7510B39 
 470      3E3495A3 
 470      7FB5A5
 471 0bf9 1C36E6B9 		.ascii	"\0346\346\271\342\300<)\234\330e!\346'z1\037@\215r\254"
 471      E2C03C29 
 471      9CD86521 
 471      E6277A31 
 471      1F408D72 
 472 0c0e 77F856D3 		.ascii	"w\370V\3239/>\255\222\345\333\3618\307)\377!\342\367"
 472      392F3EAD 
 472      92E5DBF1 
 472      38C729FF 
 472      21E2F7
 473 0c21 2A089334 		.ascii	"*\010\2234\371?;\374\211\341\315F\257\313+c~JI\367\235"
 473      F93F3BFC 
 473      89E1CD46 
 473      AFCB2B63 
 473      7E4A49F7 
 474 0c36 6A533369 		.ascii	"jS3i:\250m\242\337\013\361\031\346\177\240\257d\237"
 474      3AA86DA2 
 474      DF0BF119 
 474      E67FA0AF 
 474      649F
 475 0c48 61C3D96A 		.ascii	"a\303\331j\363\355\364Zb\303\3610\232I\373\222\012\345"
 475      F3EDF45A 
 475      62C3F130 
 475      9A49FB92 
 475      0AE5
 476 0c5a 32E27A80 		.ascii	"2\342z\200\261g\375\017r\211\275/=/%\034)P\332\010\210"
 476      B167FD0F 
 476      7289BD2F 
 476      3D2F251C 
 476      2950DA08 
 477 0c6f 1E14B233 		.ascii	"\036\024\2623J\362\2147\327T\257|\272U\246;~\334\205"
 477      4AF28C37 
 477      D754AF7C 
 477      BA55A63B 
 477      7EDC85
 478 0c82 9E39D1BD 		.ascii	"\2369\321\275?;\272q#z\010\200\037\343\312\221\024\365"
 478      3F3BBA71 
 478      237A0880 
 478      1FE3CA91 
 478      14F5
 479 0c94 42EC92A7 		.ascii	"B\354\222\247K\226q\250(\007\201\027\215\366O:\366\373"
 479      4B9671A8 
 479      28078117 
 479      8DF64F3A 
 479      F6FB
 480 0ca6 5267FEB1 		.ascii	"Rg\376\261\012\300\370_\334\231\011[+\262m\243\273]"
 480      0AC0F85F 
 480      DC99095B 
 480      2BB26DA3 
ARM GAS  /tmp/ccDcZFx1.s 			page 38


 480      BB5D
 481 0cb8 1E7D6094 		.ascii	"\036}`\224 y[\374U\"\2420NC\315\360\245\266\353\017"
 481      20795BFC 
 481      5522A230 
 481      4E43CDF0 
 481      A5B6EB0F 
 482 0ccc 93E94889 		.ascii	"\223\351H\211&\262Q\0331B%\271\366\266\036i\177\014"
 482      26B2511B 
 482      314225B9 
 482      F6B61E69 
 482      7F0C
 483 0cde EF257F76 		.ascii	"\357%\177v\004f\373U\370t\230\213\273\022{u5bb\232\223"
 483      0466FB55 
 483      F874988B 
 483      BB127B75 
 483      3562629A 
 484 0cf3 4A48AC14 		.ascii	"JH\254\024\237va\231x.\007\237V\247\374\024,p\025\356"
 484      9F766199 
 484      782E079F 
 484      56A7FC14 
 484      2C7015EE 
 485 0d07 87CC8E5E 		.ascii	"\207\314\216^\223-\260\324m8\377\374Z\364\323\326\324"
 485      932DB0D4 
 485      6D38FFFC 
 485      5AF4D3D6 
 485      D4
 486 0d18 E79FDF7C 		.ascii	"\347\237\337|\323E\317?o\222\317\021\267\310\001>&\035"
 486      D345CF3F 
 486      6F92CF11 
 486      B7C8013E 
 486      261D
 487 0d2a DBC1647C 		.ascii	"\333\301d|\204\300\031\362\011/\267\255\214\276\302"
 487      84C019F2 
 487      092FB7AD 
 487      8CBEC2
 488 0d39 ADF9247C 		.ascii	"\255\371$|\203\370(\035\366~\035\373\352N\362\011\004"
 488      83F8281D 
 488      F67E1DFB 
 488      EA4EF209 
 488      04
 489 0d4a 63F268D4 		.ascii	"c\362h\324\011\230\315\347\373\032-X\345\370t\301\374"
 489      0998CDE7 
 489      FB1A2D58 
 489      E5F874C1 
 489      FC
 490 0d5b 06832B07 		.ascii	"\006\203+\007c\313\334\370`l\271\033\037\214U\221\373"
 490      63CBDCF8 
 490      606CB91B 
 490      1F8C5591 
 490      FB
 491 0d6c 2A727FC9 		.ascii	"*r\177\311\255;\232[=\336\270^\244\016\325\340%\374"
 491      AD3B9A5B 
 491      3DDEB85E 
 491      A40ED5E0 
 491      25FC
 492 0d7e 8E52239A 		.ascii	"\216R#\232\333\337\340(\331B?\214\277\326\255\373\371"
 492      DBDFE028 
ARM GAS  /tmp/ccDcZFx1.s 			page 39


 492      D9423F8C 
 492      BFD6ADFB 
 492      F9
 493 0d8f 0CB20C48 		.ascii	"\014\262\014H\355\201\026&\262\214\333u\356\311\254"
 493      ED811626 
 493      B28CDB75 
 493      EEC9AC
 494 0d9e B652BB16 		.ascii	"\266R\273\026\326<\302\266w|\312\001\240\332\315\243"
 494      D63CC2B6 
 494      777CCA01 
 494      A0DACDA3 
 495 0dae EFA2A6F1 		.ascii	"\357\242\246\361[dj\177:\026-\020\270;\220\257\252g"
 495      5B646A7F 
 495      3A162D10 
 495      B83B90AF 
 495      AA67
 496 0dc0 F1A85B27 		.ascii	"\361\250['CF_\377\231\213\312\205s\274\26776@\376\007"
 496      43465FFF 
 496      998BCA85 
 496      73BCB737 
 496      3640FE07 
 497 0dd4 1324F91D 		.ascii	"\023$\371\035\030,\250\011xt25\333\015n^\317N&\356\300"
 497      182CA809 
 497      78743235 
 497      DB0D6E5E 
 497      CF4E26EE 
 498 0de9 6EA0BC60 		.ascii	"n\240\274`\021\30099>\253S\377s\312\367\031\364fw\272"
 498      11C03939 
 498      3EAB53FF 
 498      73CAF719 
 498      F46677BA 
 499 0dfd C767F56E 		.ascii	"\307g\365n\363\343\263\007l\275/pu\011\247~\027\365"
 499      F3E3B307 
 499      6CBD2F70 
 499      7509A77E 
 499      17F5
 500 0e0f 8009EB16 		.ascii	"\200\011\353\026$\330\323h\302\312\254\224c\177\030"
 500      24D8D368 
 500      C2CAAC94 
 500      637F18
 501 0e1e 4753413D 		.ascii	"GSA=\370\240Q\206\361h\012\323xc\275/\251\275\265\333"
 501      F8A05186 
 501      F1680AD3 
 501      7863BD2F 
 501      A9BDB5DB 
 502 0e32 672605A7 		.ascii	"g&\005\247\030\250\372\036\235'^9k\342\211\317S{\242"
 502      18A8FA1E 
 502      9D275E39 
 502      6BE289CF 
 502      537BA2
 503 0e45 21A527B6 		.ascii	"!\245'\266\234u\344\211\337\273\024\350'\030\364\216"
 503      9C75E489 
 503      DFBB14E8 
 503      2718F48E 
 504 0e55 B43DB1D3 		.ascii	"\264=\261\323\302\023\217\247\360\304v\255'\342\314"
 504      C2138FA7 
 504      F0C476AD 
ARM GAS  /tmp/ccDcZFx1.s 			page 40


 504      27E2CC
 505 0e64 133BCC3C 		.ascii	"\023;\314<\261u\242b\333z\007\236hQ{\357H\366\004\257"
 505      B175A262 
 505      DB7A079E 
 505      68517BEF 
 505      48F604AF 
 506 0e78 1868A3DE 		.ascii	"\030h\243\336\023\307\372L<\321>!\245'v\247\364\304"
 506      13C7FA4C 
 506      3CD13E21 
 506      A52776A7 
 506      F4C4
 507 0e8a 893E479E 		.ascii	"\211>G\236\370D\205\276\237A7\247\355\211\375\026\236"
 507      F84485BE 
 507      9F4137A7 
 507      ED89FD16 
 507      9E
 508 0e9b B82F8527 		.ascii	"\270/\205'\366i=\3215\201z\242\331\314\023\275S\024"
 508      F6693DD1 
 508      35817AA2 
 508      D9CC13BD 
 508      5314
 509 0ead DB6E72E0 		.ascii	"\333nr\340\211\363j\357\332dO\320\310S\306X\303\260"
 509      89F36AEF 
 509      DA644FD0 
 509      C853C658 
 509      C3B0
 510 0ebf ECB156F2 		.ascii	"\354\261V\362\015\267\325W\2236\233I\367\240%U\263\015"
 510      0DB7D557 
 510      93369B49 
 510      F7A02555 
 510      B30D
 511 0ed1 55AB2555 		.ascii	"U\253%U\207\015U\233%U\267\015\325!k*\316\332\032\207"
 511      870D559B 
 511      2555B70D 
 511      D5216B2A 
 511      CEDA1A87 
 512 0ee5 2DA97A6D 		.ascii	"-\251zmx\035\261\244\352\267\241j\267\244j\264\241:"
 512      781DB1A4 
 512      EAB7A16A 
 512      B7A46AB4 
 512      A13A
 513 0ef7 6A493564 		.ascii	"jI5dCu\314\222j\330\206\352\270%\325\025\033\252\023"
 513      4375CC92 
 513      6AD886EA 
 513      B825D515 
 513      1BAA13
 514 0f0a 9654BB6C 		.ascii	"\226T\273l\250b\232\325\201;X$Drss\363\350\277p4/\030"
 514      A8629AD5 
 514      813B5824 
 514      44727373 
 514      F3E8BF70 
 515 0f21 2E2D0D87 		.ascii	".-\015\207\240VR\374|^q(XR^ \346\005\213J\305\322\262"
 515      A05652FC 
 515      7C5E7128 
 515      58525E20 
 515      E6058B4A 
 516 0f38 70B8249A 		.ascii	"p\270$\232[\204\356-,\027\"\005bA\000\332\302\221\305"
ARM GAS  /tmp/ccDcZFx1.s 			page 41


 516      5B84EE2D 
 516      2C172205 
 516      624100DA 
 516      C291C5
 517 0f4b 01DC1E90 		.ascii	"\001\334\036\2202\236\371\247_\372\237F3\264X\021I\203"
 517      329EF9A7 
 517      5FFA9F46 
 517      33B45811 
 517      4983
 518 0f5d 10154B81 		.ascii	"\020\025K\2018\013\376\010eE\341\210\030\220\262\203"
 518      380BFE08 
 518      6545E188 
 518      1890B283 
 519 0f6d 4501F5F1 		.ascii	"E\001\365\361Ak\302\305Qiq\231\210YO\224\212\"\242P"
 519      416BC2C5 
 519      51697199 
 519      88594F94 
 519      8A22A250 
 520 0f81 100DFCB6 		.ascii	"\020\015\374\266\\,\007\204I\200\240k\362[\243\004\213"
 520      5C2C0784 
 520      4980A06B 
 520      F25BA304 
 520      8B
 521 0f92 0A00C147 		.ascii	"\012\000\301G\273\007\244L\225\324C(\347\232"
 521      BB07A44C 
 521      95D44328 
 521      E79A
 522 0fa0 18A12C1C 		.ascii	"\030\241,\034\221\242yO\375\313sO?\267\010\267\225\025"
 522      91A2794F 
 522      FDCB734F 
 522      3FB708B7 
 522      9515
 523 0fb2 97889168 		.ascii	"\227\210\221h\3363O?\015\200\212L^\251,R\034\016H\367"
 523      DE334F3F 
 523      0D808A4C 
 523      5EA92C52 
 523      1C0E48F7 
 524 0fc6 E7954723 		.ascii	"\347\225G#*\303\220\270\020\0330*\025\024\207$\314\267"
 524      2AC390B8 
 524      101B302A 
 524      15148724 
 524      CCB7
 525 0fd8 1CFE3EF6 		.ascii	"\034\376>\366h@z\304\254[\251\020,*\016\211y\201\002"
 525      68407AC4 
 525      AC5BA910 
 525      2C2A0E89 
 525      798102
 526 0feb F105A1BC 		.ascii	"\361\005\241\274D\012(\340\343\002\001\205\320\215\331"
 526      440A28E0 
 526      E3020185 
 526      D08DD9
 527 0ffa 64639102 		.ascii	"dc\221\002\301p"
 527      C170
 528 1000 48121749 		.ascii	"H\022\027I\177\233R\344\242 X\026[\235\220\001PPZ\364"
 528      7F9B52E4 
 528      A2205816 
 528      5B9D9001 
ARM GAS  /tmp/ccDcZFx1.s 			page 42


 528      50505AF4 
 529 1014 8833AAC0 		.ascii	"\2103\252\300\213s\260\277|\021\261P\210\224\006$>2"
 529      8B73B0BF 
 529      7C11B150 
 529      88940624 
 529      3E32
 530 1026 978FCC73 		.ascii	"\227\217\314sEf\345C\231\305Gf\363\221\037\361\2219"
 530      4566E543 
 530      99C54766 
 530      F3911FF1 
 530      9139
 531 1038 7CE4C77C 		.ascii	"|\344\307|I\204\217\226\271\000\332\003\352\210\021"
 531      49848F96 
 531      B900DA03 
 531      EA8811
 532 1047 4FB8A440 		.ascii	"O\270\244@\214\270CB\2518.*\375F().\014\005$b\2009\263"
 532      8CB84342 
 532      A9382E2A 
 532      FD462829 
 532      2E0C0524 
 533 105f 03125309 		.ascii	"\003\022S\011W3\026\012\317\013Q\321'E%A\002wz\361\213"
 533      5733160A 
 533      CF0B51D1 
 533      27452541 
 533      02777AF1 
 534 1074 B9E01BDA 		.ascii	"\271\340\033\332\005j\036\362\306+\225\206\013\340\275"
 534      056A1EF2 
 534      C62B9586 
 534      0BE0BD
 535 1083 E78512A1 		.ascii	"\347\205\022\2410\352\225\"\342\013Q0\010\376\343)\215"
 535      30EA9522 
 535      E20B5130 
 535      08FEE329 
 535      8D
 536 1094 160221B3 		.ascii	"\026\002!\263\021\020\262ZF\244`1\274\362\211\213\212"
 536      1110B25A 
 536      46A46031 
 536      BCF2898B 
 536      8A
 537 10a5 A5201067 		.ascii	"\245 \020g,\224\302\317\377[\331\024\346~ \025#b(\210"
 537      2C94C2CF 
 537      FF5BD914 
 537      E67E2015 
 537      23622888 
 538 10b9 41174A52 		.ascii	"A\027JR\244\314\033\025C\022\020@?\010\3112\037DGi9"
 538      A4CC1B15 
 538      43121040 
 538      3F08C932 
 538      1F444769 
 539 10ce 18D93A9E 		.ascii	"\030\331:\236K\245E`\037OxaH\214xI_\020)\004n\001\010"
 539      4BA54560 
 539      1F4F7861 
 539      488C7849 
 539      5F102904 
 540 10e5 78579625 		.ascii	"xW\226%\276\210!\205\350o@\032q!\256p\345\023\224h-"
 540      BE882185 
 540      E86F401A 
ARM GAS  /tmp/ccDcZFx1.s 			page 43


 540      7121AE70 
 540      E5139468 
 541 10fa 298E8297 		.ascii	")\216\202\227'j\342\027\267x\027\012\305Rq\250\320\007"
 541      276AE217 
 541      B778170A 
 541      C55271A8 
 541      D007
 542 110c 9290A8F4 		.ascii	"\222\220\250\364\211eb\010B\250\320\013\220\270\007"
 542      89656208 
 542      42A8D00B 
 542      90B807
 543 111b F84328C1 		.ascii	"\370C(\301\221\340!\371\010A!\276\350\011\206\000\313"
 543      91E021F9 
 543      084121BE 
 543      E8098600 
 543      CB
 544 112c 057717C8 		.ascii	"\005w\027\310>^\227\226Y\344O\021p\020#\371$\364p\274"
 544      3E5E9796 
 544      59E44F11 
 544      701023F9 
 544      24F470BC 
 545 1140 15068379 		.ascii	"\025\006\203y\340\325GB\341\220\370\210(<_\2347;w\256"
 545      E0D54742 
 545      E190F888 
 545      283C5F9C 
 545      373B77AE 
 546 1154 AA1B042D 		.ascii	"\252\033\004-\304!(\227\021-\376w\260P\026XN\014J\001"
 546      C4212897 
 546      112DFE77 
 546      B0501658 
 546      4E0C4A01 
 547 1168 FC64163D 		.ascii	"\374d\026=&c\005\213\273l\250\026\212\322\013\345\241"
 547      2663058B 
 547      BB6CA816 
 547      8AD20BE5 
 547      A1
 548 1179 20444059 		.ascii	" D@Y$\374b1\016\015,\323,\025H\022\243\0226m4\\\036"
 548      24FC6231 
 548      0E0D2CD3 
 548      2C154812 
 548      A312366D 
 549 1190 098AF411 		.ascii	"\011\212\364\021\337`l\000\033`\037\345\347\317\313"
 549      DF606C00 
 549      1B601FE5 
 549      E7CFCB
 550 119f 0DA2F1A1 		.ascii	"\015\242\361\241\362\222\222\200\012\202\245\361\220"
 550      F2929280 
 550      0A82A5F1 
 550      90
 551 11ac E09A4A7A 		.ascii	"\340\232JzC'(\217\005\304Eb\020\2741E\327\030\025\245"
 551      4327288F 
 551      05C44562 
 551      10BC3145 
 551      D71815A5 
 552 11c0 F2326DD3 		.ascii	"\3622m\323\243\311M\263h\323wt\275\030Zn\231\020\221"
 552      A3C94DB3 
 552      68D37774 
ARM GAS  /tmp/ccDcZFx1.s 			page 44


 552      BD185A6E 
 552      991091
 553 11d3 72F3A79A 		.ascii	"r\363\247\232\275\373\216\016CG0k\252\331\273\373\364"
 553      BDFB8E0E 
 553      4347306B 
 553      AAD9BBFB 
 553      F4
 554 11e4 AA63E3E1 		.ascii	"\252c\343\3418\200:\016\250\300\337\203u\262\311c@\210"
 554      38803A0E 
 554      A8C0DF83 
 554      75B2C963 
 554      4088
 555 11f6 46C58894 		.ascii	"F\305\210\224\211G\300\342R\221%\321\2549j\022\341\352"
 555      8947C0E2 
 555      529125D1 
 555      AC396A12 
 555      E1EA
 556 1208 F460D133 		.ascii	"\364`\3213t@\376\005\020>UR\022\016\376+t\016\227K\177"
 556      7440FE05 
 556      103E5552 
 556      120EFE2B 
 556      740E974B 
 557 121d A57BF3CF 		.ascii	"\245{\363\317\304\211?\015\025\343QS\3370Y\327\361\037"
 557      C4893F0D 
 557      15E35153 
 557      DF3059D7 
 557      F11F
 558 122f 23A2384D 		.ascii	"#\2428M\327\362\363\260P\360T$\",\036G)q\217,Z%\374"
 558      D7F2F3B0 
 558      50F05424 
 558      222C1E47 
 558      29718F2C 
 559 1246 26D2BADA 		.ascii	"&\322\272\332\315]XZ6\313\005\305K#'\232I\375)\211e"
 559      CD5D585A 
 559      36CB05C5 
 559      4B23279A 
 559      49FD2989 
 560 125b 1E62639F 		.ascii	"\036bc\237$\0028\244\216\227\231d\034\356\020\204\261"
 560      240238A4 
 560      8E979964 
 560      1CEE1084 
 560      B1
 561 126c 20204D4E 		.ascii	"  MN\362\375\364\334H\270@\220\204\334\2447\331Z\363"
 561      F2FDF4DC 
 561      48B84090 
 561      84DCA437 
 561      D95AF3
 562 127f 7E1FF387 		.ascii	"~\037\363\207T\361\013\241\002?\344\260\264\230<\370"
 562      54F10BA1 
 562      023FE4B0 
 562      B4983CF8 
 563 128f 693EF871 		.ascii	"i>\370q\320!-\301\243OX\020\260\371MK\350_X,\025\201"
 563      D0212DC1 
 563      A34F5810 
 563      B0F94D4B 
 563      E85F582C 
 564 12a5 49FD2C41 		.ascii	"I\375,Au@\217\335\317l\345\177\216R`cD\375\022\365\002"
ARM GAS  /tmp/ccDcZFx1.s 			page 45


 564      75408FDD 
 564      CF6CE57F 
 564      8E526063 
 564      44FD12F5 
 565 12ba FA3F7188 		.ascii	"\372?q\210\326\037"
 565      D61F
 566              		.text
 567              		.section	.gnu.lto_.symtab.1182702c4e968c80,"",%progbits
 568 0000 74657374 		.ascii	"test_sequence_009\000\000\000\000\000\000\000\000\000"
 568      5F736571 
 568      75656E63 
 568      655F3030 
 568      39000000 
 569 001a 000000FD 		.ascii	"\000\000\000\375\001\000\000test_step\000\000\002\000"
 569      01000074 
 569      6573745F 
 569      73746570 
 569      00000200 
 570 002e 00000000 		.ascii	"\000\000\000\000\000\000\000\000\373\001\000\000_te"
 570      00000000 
 570      FB010000 
 570      5F7465
 571 003d 73745F61 		.ascii	"st_assert\000\000\002\000\000\000\000\000\000\000\000"
 571      73736572 
 571      74000002 
 571      00000000 
 571      00000000 
 572 0051 00AE0100 		.ascii	"\000\256\001\000\000chGuardedPoolAllocTimeout\000\000"
 572      00636847 
 572      75617264 
 572      6564506F 
 572      6F6C416C 
 573 0071 02000000 		.ascii	"\002\000\000\000\000\000\000\000\000\000\266\001\000"
 573      00000000 
 573      0000B601 
 573      00
 574 007e 00636847 		.ascii	"\000chGuardedPoolObjectInit\000\000\002\000\000\000"
 574      75617264 
 574      6564506F 
 574      6F6C4F62 
 574      6A656374 
 575 009c 00000000 		.ascii	"\000\000\000\000\000\000\304\001\000\000chPoolObjec"
 575      0000C401 
 575      00006368 
 575      506F6F6C 
 575      4F626A65 
 576 00b1 74496E69 		.ascii	"tInit\000\000\002\000\000\000\000\000\000\000\000\000"
 576      74000002 
 576      00000000 
 576      00000000 
 576      00
 577 00c2 C9010000 		.ascii	"\311\001\000\000chGuardedPoolFree\000\000\002\000\000"
 577      63684775 
 577      61726465 
 577      64506F6F 
 577      6C467265 
 578 00dc 00000000 		.ascii	"\000\000\000\000\000\000\000\317\001\000\000chGuard"
ARM GAS  /tmp/ccDcZFx1.s 			page 46


 578      000000CF 
 578      01000063 
 578      68477561 
 578      7264
 579 00ee 6564506F 		.ascii	"edPoolLoadArray\000\000\002\000\000\000\000\000\000"
 579      6F6C4C6F 
 579      61644172 
 579      72617900 
 579      00020000 
 580 0106 000000D4 		.ascii	"\000\000\000\324\001\000\000chPoolFree\000\000\002\000"
 580      01000063 
 580      68506F6F 
 580      6C467265 
 580      65000002 
 581 011b 00000000 		.ascii	"\000\000\000\000\000\000\000\000\332\001\000\000chP"
 581      00000000 
 581      DA010000 
 581      636850
 582 012a 6F6F6C41 		.ascii	"oolAlloc\000\000\002\000\000\000\000\000\000\000\000"
 582      6C6C6F63 
 582      00000200 
 582      00000000 
 582      000000
 583 013d 00DF0100 		.ascii	"\000\337\001\000\000chPoolLoadArray\000\000\002\000"
 583      00636850 
 583      6F6F6C4C 
 583      6F616441 
 583      72726179 
 584 0155 00000000 		.ascii	"\000\000\000\000\000\000\000\000\343\001\000\000"
 584      00000000 
 584      E3010000 
 585              		.text
 586              		.section	.gnu.lto_.opts,"",%progbits
 587 0000 272D6D63 		.ascii	"'-mcpu=cortex-m0' '-mno-thumb-interwork' '-mthumb' "
 587      70753D63 
 587      6F727465 
 587      782D6D30 
 587      2720272D 
 588 0033 272D6767 		.ascii	"'-ggdb' '-O2' '-fomit-frame-pointer' '-falign-funct"
 588      64622720 
 588      272D4F32 
 588      2720272D 
 588      666F6D69 
 589 0066 696F6E73 		.ascii	"ions=16' '-ffunction-sections' '-fdata-sections' '-"
 589      3D313627 
 589      20272D66 
 589      66756E63 
 589      74696F6E 
 590 0099 666E6F2D 		.ascii	"fno-common' '-flto'\000"
 590      636F6D6D 
 590      6F6E2720 
 590      272D666C 
 590      746F2700 
 591              		.text
 592              		.cfi_sections	.debug_frame
 593              		.section	.text.null_provider,"ax",%progbits
 594              		.align	2
ARM GAS  /tmp/ccDcZFx1.s 			page 47


 595              		.p2align 4,,15
 596              		.code	16
 597              		.thumb_func
 598              		.type	null_provider, %function
 599              	null_provider:
 600              	.LFB179:
 601              		.file 1 "../../../test/rt/source/test/test_sequence_009.c"
 602              		.loc 1 61 0
 603              		.cfi_startproc
 604              	.LVL0:
 605              		.loc 1 67 0
 606 0000 0020     		mov	r0, #0
 607              	.LVL1:
 608              		@ sp needed
 609 0002 7047     		bx	lr
 610              		.cfi_endproc
 611              	.LFE179:
 612              		.size	null_provider, .-null_provider
 613 0004 C046C046 		.section	.text.test_009_003_execute,"ax",%progbits
 613      C046C046 
 613      C046C046 
 614              		.align	2
 615              		.p2align 4,,15
 616              		.code	16
 617              		.thumb_func
 618              		.type	test_009_003_execute, %function
 619              	test_009_003_execute:
 620              	.LFB185:
 621              		.loc 1 260 0
 622              		.cfi_startproc
 623 0000 08B5     		push	{r3, lr}
 624              		.cfi_def_cfa_offset 8
 625              		.cfi_offset 3, -8
 626              		.cfi_offset 14, -4
 627              		.loc 1 264 0
 628 0002 074B     		ldr	r3, .L3
 629 0004 0122     		mov	r2, #1
 630              		.loc 1 266 0
 631 0006 6421     		mov	r1, #100
 632 0008 0648     		ldr	r0, .L3+4
 633              		.loc 1 264 0
 634 000a 1A60     		str	r2, [r3]
 635              		.loc 1 266 0
 636 000c FFF7FEFF 		bl	chGuardedPoolAllocTimeout
 637              	.LVL2:
 638 0010 4342     		neg	r3, r0
 639 0012 5841     		adc	r0, r0, r3
 640 0014 C0B2     		uxtb	r0, r0
 641 0016 0449     		ldr	r1, .L3+8
 642 0018 FFF7FEFF 		bl	_test_assert
 643              	.LVL3:
 644              		.loc 1 268 0
 645              		@ sp needed
 646 001c 08BD     		pop	{r3, pc}
 647              	.L4:
 648 001e C046     		.align	2
 649              	.L3:
ARM GAS  /tmp/ccDcZFx1.s 			page 48


 650 0020 00000000 		.word	test_step
 651 0024 00000000 		.word	.LANCHOR0
 652 0028 00000000 		.word	.LC2
 653              		.cfi_endproc
 654              	.LFE185:
 655              		.size	test_009_003_execute, .-test_009_003_execute
 656 002c C046C046 		.section	.text.test_009_003_setup,"ax",%progbits
 657              		.align	2
 658              		.p2align 4,,15
 659              		.code	16
 660              		.thumb_func
 661              		.type	test_009_003_setup, %function
 662              	test_009_003_setup:
 663              	.LFB184:
 664              		.loc 1 256 0
 665              		.cfi_startproc
 666 0000 08B5     		push	{r3, lr}
 667              		.cfi_def_cfa_offset 8
 668              		.cfi_offset 3, -8
 669              		.cfi_offset 14, -4
 670              		.loc 1 257 0
 671 0002 0248     		ldr	r0, .L6
 672 0004 0421     		mov	r1, #4
 673 0006 FFF7FEFF 		bl	chGuardedPoolObjectInit
 674              	.LVL4:
 675              		.loc 1 258 0
 676              		@ sp needed
 677 000a 08BD     		pop	{r3, pc}
 678              	.L7:
 679              		.align	2
 680              	.L6:
 681 000c 00000000 		.word	.LANCHOR0
 682              		.cfi_endproc
 683              	.LFE184:
 684              		.size	test_009_003_setup, .-test_009_003_setup
 685              		.section	.text.test_009_002_setup,"ax",%progbits
 686              		.align	2
 687              		.p2align 4,,15
 688              		.code	16
 689              		.thumb_func
 690              		.type	test_009_002_setup, %function
 691              	test_009_002_setup:
 692              	.LFB182:
 693              		.loc 1 179 0
 694              		.cfi_startproc
 695 0000 08B5     		push	{r3, lr}
 696              		.cfi_def_cfa_offset 8
 697              		.cfi_offset 3, -8
 698              		.cfi_offset 14, -4
 699              		.loc 1 180 0
 700 0002 0248     		ldr	r0, .L9
 701 0004 0421     		mov	r1, #4
 702 0006 FFF7FEFF 		bl	chGuardedPoolObjectInit
 703              	.LVL5:
 704              		.loc 1 181 0
 705              		@ sp needed
 706 000a 08BD     		pop	{r3, pc}
ARM GAS  /tmp/ccDcZFx1.s 			page 49


 707              	.L10:
 708              		.align	2
 709              	.L9:
 710 000c 00000000 		.word	.LANCHOR0
 711              		.cfi_endproc
 712              	.LFE182:
 713              		.size	test_009_002_setup, .-test_009_002_setup
 714              		.section	.text.test_009_001_setup,"ax",%progbits
 715              		.align	2
 716              		.p2align 4,,15
 717              		.code	16
 718              		.thumb_func
 719              		.type	test_009_001_setup, %function
 720              	test_009_001_setup:
 721              	.LFB180:
 722              		.loc 1 92 0
 723              		.cfi_startproc
 724 0000 08B5     		push	{r3, lr}
 725              		.cfi_def_cfa_offset 8
 726              		.cfi_offset 3, -8
 727              		.cfi_offset 14, -4
 728              		.loc 1 93 0
 729 0002 0348     		ldr	r0, .L12
 730 0004 0421     		mov	r1, #4
 731 0006 0022     		mov	r2, #0
 732 0008 FFF7FEFF 		bl	chPoolObjectInit
 733              	.LVL6:
 734              		.loc 1 94 0
 735              		@ sp needed
 736 000c 08BD     		pop	{r3, pc}
 737              	.L13:
 738 000e C046     		.align	2
 739              	.L12:
 740 0010 00000000 		.word	.LANCHOR1
 741              		.cfi_endproc
 742              	.LFE180:
 743              		.size	test_009_001_setup, .-test_009_001_setup
 744 0014 C046C046 		.section	.text.test_009_002_execute,"ax",%progbits
 744      C046C046 
 744      C046C046 
 745              		.align	2
 746              		.p2align 4,,15
 747              		.code	16
 748              		.thumb_func
 749              		.type	test_009_002_execute, %function
 750              	test_009_002_execute:
 751              	.LFB183:
 752              		.loc 1 183 0
 753              		.cfi_startproc
 754 0000 F8B5     		push	{r3, r4, r5, r6, r7, lr}
 755              		.cfi_def_cfa_offset 24
 756              		.cfi_offset 3, -24
 757              		.cfi_offset 4, -20
 758              		.cfi_offset 5, -16
 759              		.cfi_offset 6, -12
 760              		.cfi_offset 7, -8
 761              		.cfi_offset 14, -4
ARM GAS  /tmp/ccDcZFx1.s 			page 50


 762 0002 4646     		mov	r6, r8
 763 0004 4F46     		mov	r7, r9
 764 0006 C0B4     		push	{r6, r7}
 765              		.cfi_def_cfa_offset 32
 766              		.cfi_offset 8, -32
 767              		.cfi_offset 9, -28
 768              		.loc 1 188 0
 769 0008 2E4F     		ldr	r7, .L25
 770 000a 0123     		mov	r3, #1
 771 000c 3B60     		str	r3, [r7]
 772              		.loc 1 190 0
 773 000e 2E4D     		ldr	r5, .L25+4
 774 0010 2E4B     		ldr	r3, .L25+8
 775 0012 281C     		mov	r0, r5
 776 0014 191C     		mov	r1, r3
 777 0016 0422     		mov	r2, #4
 778 0018 9846     		mov	r8, r3
 779 001a FFF7FEFF 		bl	chGuardedPoolLoadArray
 780              	.LVL7:
 781              		.loc 1 194 0
 782 001e 0223     		mov	r3, #2
 783 0020 2B4E     		ldr	r6, .L25+12
 784 0022 3B60     		str	r3, [r7]
 785              	.LVL8:
 786 0024 0424     		mov	r4, #4
 787              	.LVL9:
 788              	.L18:
 789              		.loc 1 197 0
 790 0026 0021     		mov	r1, #0
 791 0028 281C     		mov	r0, r5
 792 002a FFF7FEFF 		bl	chGuardedPoolAllocTimeout
 793              	.LVL10:
 794 002e 431E     		sub	r3, r0, #1
 795 0030 9841     		sbc	r0, r0, r3
 796 0032 C0B2     		uxtb	r0, r0
 797 0034 311C     		mov	r1, r6
 798 0036 FFF7FEFF 		bl	_test_assert
 799              	.LVL11:
 800 003a 0028     		cmp	r0, #0
 801 003c 3DD1     		bne	.L14
 802              	.LVL12:
 803 003e 013C     		sub	r4, r4, #1
 804              	.LVL13:
 805              		.loc 1 196 0
 806 0040 002C     		cmp	r4, #0
 807 0042 F0D1     		bne	.L18
 808              		.loc 1 201 0
 809 0044 0323     		mov	r3, #3
 810              		.loc 1 203 0
 811 0046 0021     		mov	r1, #0
 812 0048 281C     		mov	r0, r5
 813              		.loc 1 201 0
 814 004a 3B60     		str	r3, [r7]
 815              		.loc 1 203 0
 816 004c FFF7FEFF 		bl	chGuardedPoolAllocTimeout
 817              	.LVL14:
 818 0050 4342     		neg	r3, r0
ARM GAS  /tmp/ccDcZFx1.s 			page 51


 819 0052 5841     		adc	r0, r0, r3
 820 0054 1F4B     		ldr	r3, .L25+16
 821 0056 C0B2     		uxtb	r0, r0
 822 0058 191C     		mov	r1, r3
 823 005a 9946     		mov	r9, r3
 824 005c FFF7FEFF 		bl	_test_assert
 825              	.LVL15:
 826 0060 0028     		cmp	r0, #0
 827 0062 2AD1     		bne	.L14
 828              	.LBB4:
 829              	.LBB5:
 830              		.loc 1 208 0
 831 0064 0423     		mov	r3, #4
 832 0066 4446     		mov	r4, r8
 833              	.LVL16:
 834 0068 3B60     		str	r3, [r7]
 835              	.LVL17:
 836 006a 1023     		mov	r3, #16
 837 006c 1B19     		add	r3, r3, r4
 838 006e 9846     		mov	r8, r3
 839              	.LVL18:
 840              	.L21:
 841              		.loc 1 211 0
 842 0070 211C     		mov	r1, r4
 843 0072 281C     		mov	r0, r5
 844 0074 0434     		add	r4, r4, #4
 845 0076 FFF7FEFF 		bl	chGuardedPoolFree
 846              	.LVL19:
 847              		.loc 1 210 0
 848 007a 4445     		cmp	r4, r8
 849 007c F8D1     		bne	.L21
 850              		.loc 1 216 0
 851 007e 0523     		mov	r3, #5
 852 0080 3B60     		str	r3, [r7]
 853              	.LVL20:
 854 0082 0424     		mov	r4, #4
 855              	.LVL21:
 856              	.L23:
 857              		.loc 1 219 0
 858 0084 0021     		mov	r1, #0
 859 0086 281C     		mov	r0, r5
 860 0088 FFF7FEFF 		bl	chGuardedPoolAllocTimeout
 861              	.LVL22:
 862 008c 431E     		sub	r3, r0, #1
 863 008e 9841     		sbc	r0, r0, r3
 864 0090 C0B2     		uxtb	r0, r0
 865 0092 311C     		mov	r1, r6
 866 0094 FFF7FEFF 		bl	_test_assert
 867              	.LVL23:
 868 0098 0028     		cmp	r0, #0
 869 009a 0ED1     		bne	.L14
 870              	.LVL24:
 871 009c 013C     		sub	r4, r4, #1
 872              	.LVL25:
 873              		.loc 1 218 0
 874 009e 002C     		cmp	r4, #0
 875 00a0 F0D1     		bne	.L23
ARM GAS  /tmp/ccDcZFx1.s 			page 52


 876              		.loc 1 223 0
 877 00a2 0623     		mov	r3, #6
 878              		.loc 1 225 0
 879 00a4 0021     		mov	r1, #0
 880 00a6 281C     		mov	r0, r5
 881              		.loc 1 223 0
 882 00a8 3B60     		str	r3, [r7]
 883              		.loc 1 225 0
 884 00aa FFF7FEFF 		bl	chGuardedPoolAllocTimeout
 885              	.LVL26:
 886 00ae 4342     		neg	r3, r0
 887 00b0 5841     		adc	r0, r0, r3
 888 00b2 C0B2     		uxtb	r0, r0
 889 00b4 4946     		mov	r1, r9
 890 00b6 FFF7FEFF 		bl	_test_assert
 891              	.LVL27:
 892              	.L14:
 893              	.LBE5:
 894              	.LBE4:
 895              		.loc 1 227 0
 896              		@ sp needed
 897 00ba 0CBC     		pop	{r2, r3}
 898 00bc 9046     		mov	r8, r2
 899 00be 9946     		mov	r9, r3
 900 00c0 F8BD     		pop	{r3, r4, r5, r6, r7, pc}
 901              	.L26:
 902 00c2 C046     		.align	2
 903              	.L25:
 904 00c4 00000000 		.word	test_step
 905 00c8 00000000 		.word	.LANCHOR0
 906 00cc 00000000 		.word	.LANCHOR2
 907 00d0 10000000 		.word	.LC10
 908 00d4 00000000 		.word	.LC2
 909              		.cfi_endproc
 910              	.LFE183:
 911              		.size	test_009_002_execute, .-test_009_002_execute
 912 00d8 C046C046 		.section	.text.test_009_001_execute,"ax",%progbits
 912      C046C046 
 913              		.align	2
 914              		.p2align 4,,15
 915              		.code	16
 916              		.thumb_func
 917              		.type	test_009_001_execute, %function
 918              	test_009_001_execute:
 919              	.LFB181:
 920              		.loc 1 96 0
 921              		.cfi_startproc
 922 0000 F8B5     		push	{r3, r4, r5, r6, r7, lr}
 923              		.cfi_def_cfa_offset 24
 924              		.cfi_offset 3, -24
 925              		.cfi_offset 4, -20
 926              		.cfi_offset 5, -16
 927              		.cfi_offset 6, -12
 928              		.cfi_offset 7, -8
 929              		.cfi_offset 14, -4
 930 0002 4646     		mov	r6, r8
 931 0004 4F46     		mov	r7, r9
ARM GAS  /tmp/ccDcZFx1.s 			page 53


 932 0006 C0B4     		push	{r6, r7}
 933              		.cfi_def_cfa_offset 32
 934              		.cfi_offset 8, -32
 935              		.cfi_offset 9, -28
 936              		.loc 1 100 0
 937 0008 354F     		ldr	r7, .L38
 938 000a 0123     		mov	r3, #1
 939 000c 3B60     		str	r3, [r7]
 940              		.loc 1 102 0
 941 000e 354C     		ldr	r4, .L38+4
 942 0010 354B     		ldr	r3, .L38+8
 943 0012 201C     		mov	r0, r4
 944 0014 191C     		mov	r1, r3
 945 0016 0422     		mov	r2, #4
 946 0018 9846     		mov	r8, r3
 947 001a FFF7FEFF 		bl	chPoolLoadArray
 948              	.LVL28:
 949              		.loc 1 106 0
 950 001e 0223     		mov	r3, #2
 951 0020 324E     		ldr	r6, .L38+12
 952 0022 3B60     		str	r3, [r7]
 953              	.LVL29:
 954 0024 0425     		mov	r5, #4
 955              	.LVL30:
 956              	.L31:
 957              		.loc 1 109 0
 958 0026 201C     		mov	r0, r4
 959 0028 FFF7FEFF 		bl	chPoolAlloc
 960              	.LVL31:
 961 002c 431E     		sub	r3, r0, #1
 962 002e 9841     		sbc	r0, r0, r3
 963 0030 C0B2     		uxtb	r0, r0
 964 0032 311C     		mov	r1, r6
 965 0034 FFF7FEFF 		bl	_test_assert
 966              	.LVL32:
 967 0038 0028     		cmp	r0, #0
 968 003a 3CD1     		bne	.L27
 969              	.LVL33:
 970 003c 013D     		sub	r5, r5, #1
 971              	.LVL34:
 972              		.loc 1 108 0
 973 003e 002D     		cmp	r5, #0
 974 0040 F1D1     		bne	.L31
 975              		.loc 1 113 0
 976 0042 0323     		mov	r3, #3
 977              		.loc 1 115 0
 978 0044 201C     		mov	r0, r4
 979              		.loc 1 113 0
 980 0046 3B60     		str	r3, [r7]
 981              		.loc 1 115 0
 982 0048 FFF7FEFF 		bl	chPoolAlloc
 983              	.LVL35:
 984 004c 4342     		neg	r3, r0
 985 004e 5841     		adc	r0, r0, r3
 986 0050 274B     		ldr	r3, .L38+16
 987 0052 C0B2     		uxtb	r0, r0
 988 0054 191C     		mov	r1, r3
ARM GAS  /tmp/ccDcZFx1.s 			page 54


 989 0056 9946     		mov	r9, r3
 990 0058 FFF7FEFF 		bl	_test_assert
 991              	.LVL36:
 992 005c 0028     		cmp	r0, #0
 993 005e 2AD1     		bne	.L27
 994              	.LBB8:
 995              	.LBB9:
 996              		.loc 1 119 0
 997 0060 0423     		mov	r3, #4
 998 0062 4546     		mov	r5, r8
 999              	.LVL37:
 1000 0064 3B60     		str	r3, [r7]
 1001              	.LVL38:
 1002 0066 1023     		mov	r3, #16
 1003 0068 5B19     		add	r3, r3, r5
 1004 006a 9846     		mov	r8, r3
 1005              	.LVL39:
 1006              	.L34:
 1007              		.loc 1 122 0
 1008 006c 291C     		mov	r1, r5
 1009 006e 201C     		mov	r0, r4
 1010 0070 0435     		add	r5, r5, #4
 1011 0072 FFF7FEFF 		bl	chPoolFree
 1012              	.LVL40:
 1013              		.loc 1 121 0
 1014 0076 4545     		cmp	r5, r8
 1015 0078 F8D1     		bne	.L34
 1016              		.loc 1 126 0
 1017 007a 0523     		mov	r3, #5
 1018 007c 3B60     		str	r3, [r7]
 1019              	.LVL41:
 1020 007e 0425     		mov	r5, #4
 1021              	.LVL42:
 1022              	.L36:
 1023              		.loc 1 129 0
 1024 0080 201C     		mov	r0, r4
 1025 0082 FFF7FEFF 		bl	chPoolAlloc
 1026              	.LVL43:
 1027 0086 431E     		sub	r3, r0, #1
 1028 0088 9841     		sbc	r0, r0, r3
 1029 008a C0B2     		uxtb	r0, r0
 1030 008c 311C     		mov	r1, r6
 1031 008e FFF7FEFF 		bl	_test_assert
 1032              	.LVL44:
 1033 0092 0028     		cmp	r0, #0
 1034 0094 0FD1     		bne	.L27
 1035              	.LVL45:
 1036 0096 013D     		sub	r5, r5, #1
 1037              	.LVL46:
 1038              		.loc 1 128 0
 1039 0098 002D     		cmp	r5, #0
 1040 009a F1D1     		bne	.L36
 1041              		.loc 1 133 0
 1042 009c 0623     		mov	r3, #6
 1043              		.loc 1 135 0
 1044 009e 201C     		mov	r0, r4
 1045              		.loc 1 133 0
ARM GAS  /tmp/ccDcZFx1.s 			page 55


 1046 00a0 3B60     		str	r3, [r7]
 1047              		.loc 1 135 0
 1048 00a2 FFF7FEFF 		bl	chPoolAlloc
 1049              	.LVL47:
 1050 00a6 4342     		neg	r3, r0
 1051 00a8 5841     		adc	r0, r0, r3
 1052 00aa C0B2     		uxtb	r0, r0
 1053 00ac 4946     		mov	r1, r9
 1054 00ae FFF7FEFF 		bl	_test_assert
 1055              	.LVL48:
 1056 00b2 0028     		cmp	r0, #0
 1057 00b4 03D0     		beq	.L37
 1058              	.LVL49:
 1059              	.L27:
 1060              	.LBE9:
 1061              	.LBE8:
 1062              		.loc 1 145 0
 1063              		@ sp needed
 1064 00b6 0CBC     		pop	{r2, r3}
 1065 00b8 9046     		mov	r8, r2
 1066 00ba 9946     		mov	r9, r3
 1067 00bc F8BD     		pop	{r3, r4, r5, r6, r7, pc}
 1068              	.LVL50:
 1069              	.L37:
 1070              	.LBB11:
 1071              	.LBB10:
 1072              		.loc 1 140 0
 1073 00be 0723     		mov	r3, #7
 1074              		.loc 1 142 0
 1075 00c0 201C     		mov	r0, r4
 1076 00c2 0421     		mov	r1, #4
 1077 00c4 0B4A     		ldr	r2, .L38+20
 1078              		.loc 1 140 0
 1079 00c6 3B60     		str	r3, [r7]
 1080              		.loc 1 142 0
 1081 00c8 FFF7FEFF 		bl	chPoolObjectInit
 1082              	.LVL51:
 1083              		.loc 1 143 0
 1084 00cc 201C     		mov	r0, r4
 1085 00ce FFF7FEFF 		bl	chPoolAlloc
 1086              	.LVL52:
 1087 00d2 4342     		neg	r3, r0
 1088 00d4 5841     		adc	r0, r0, r3
 1089 00d6 0849     		ldr	r1, .L38+24
 1090 00d8 C0B2     		uxtb	r0, r0
 1091 00da FFF7FEFF 		bl	_test_assert
 1092              	.LVL53:
 1093 00de EAE7     		b	.L27
 1094              	.L39:
 1095              		.align	2
 1096              	.L38:
 1097 00e0 00000000 		.word	test_step
 1098 00e4 00000000 		.word	.LANCHOR1
 1099 00e8 00000000 		.word	.LANCHOR2
 1100 00ec 10000000 		.word	.LC10
 1101 00f0 00000000 		.word	.LC2
 1102 00f4 00000000 		.word	null_provider
ARM GAS  /tmp/ccDcZFx1.s 			page 56


 1103 00f8 1C000000 		.word	.LC20
 1104              	.LBE10:
 1105              	.LBE11:
 1106              		.cfi_endproc
 1107              	.LFE181:
 1108              		.size	test_009_001_execute, .-test_009_001_execute
 1109              		.global	test_sequence_009
 1110 00fc C046C046 		.section	.data.gmp1,"aw",%progbits
 1111              		.align	2
 1112              		.set	.LANCHOR0,. + 0
 1113              		.type	gmp1, %object
 1114              		.size	gmp1, 24
 1115              	gmp1:
 1116 0000 00000000 		.word	gmp1
 1117 0004 00000000 		.word	gmp1
 1118 0008 00000000 		.word	0
 1119 000c 00000000 		.word	0
 1120 0010 04000000 		.word	4
 1121 0014 00000000 		.word	0
 1122              		.section	.rodata.test_sequence_009,"a",%progbits
 1123              		.align	2
 1124              		.type	test_sequence_009, %object
 1125              		.size	test_sequence_009, 16
 1126              	test_sequence_009:
 1127 0000 00000000 		.word	test_009_001
 1128 0004 00000000 		.word	test_009_002
 1129 0008 00000000 		.word	test_009_003
 1130 000c 00000000 		.word	0
 1131              		.section	.bss.objects,"aw",%nobits
 1132              		.align	2
 1133              		.set	.LANCHOR2,. + 0
 1134              		.type	objects, %object
 1135              		.size	objects, 16
 1136              	objects:
 1137 0000 00000000 		.space	16
 1137      00000000 
 1137      00000000 
 1137      00000000 
 1138              		.section	.rodata.test_009_001,"a",%progbits
 1139              		.align	2
 1140              		.type	test_009_001, %object
 1141              		.size	test_009_001, 16
 1142              	test_009_001:
 1143 0000 94000000 		.word	.LC25
 1144 0004 00000000 		.word	test_009_001_setup
 1145 0008 00000000 		.word	0
 1146 000c 00000000 		.word	test_009_001_execute
 1147              		.section	.rodata.test_009_002,"a",%progbits
 1148              		.align	2
 1149              		.type	test_009_002, %object
 1150              		.size	test_009_002, 16
 1151              	test_009_002:
 1152 0000 58000000 		.word	.LC24
 1153 0004 00000000 		.word	test_009_002_setup
 1154 0008 00000000 		.word	0
 1155 000c 00000000 		.word	test_009_002_execute
 1156              		.section	.rodata.test_009_003,"a",%progbits
ARM GAS  /tmp/ccDcZFx1.s 			page 57


 1157              		.align	2
 1158              		.type	test_009_003, %object
 1159              		.size	test_009_003, 16
 1160              	test_009_003:
 1161 0000 38000000 		.word	.LC23
 1162 0004 00000000 		.word	test_009_003_setup
 1163 0008 00000000 		.word	0
 1164 000c 00000000 		.word	test_009_003_execute
 1165              		.section	.rodata.str1.4,"aMS",%progbits,1
 1166              		.align	2
 1167              	.LC2:
 1168 0000 6C697374 		.ascii	"list not empty\000"
 1168      206E6F74 
 1168      20656D70 
 1168      747900
 1169 000f 00       		.space	1
 1170              	.LC10:
 1171 0010 6C697374 		.ascii	"list empty\000"
 1171      20656D70 
 1171      747900
 1172 001b 00       		.space	1
 1173              	.LC20:
 1174 001c 70726F76 		.ascii	"provider returned memory\000"
 1174      69646572 
 1174      20726574 
 1174      75726E65 
 1174      64206D65 
 1175 0035 000000   		.space	3
 1176              	.LC23:
 1177 0038 47756172 		.ascii	"Guarded Memory Pools timeout\000"
 1177      64656420 
 1177      4D656D6F 
 1177      72792050 
 1177      6F6F6C73 
 1178 0055 000000   		.space	3
 1179              	.LC24:
 1180 0058 4C6F6164 		.ascii	"Loading and emptying a guarded memory pool without "
 1180      696E6720 
 1180      616E6420 
 1180      656D7074 
 1180      79696E67 
 1181 008b 77616974 		.ascii	"waiting\000"
 1181      696E6700 
 1182 0093 00       		.space	1
 1183              	.LC25:
 1184 0094 4C6F6164 		.ascii	"Loading and emptying a memory pool\000"
 1184      696E6720 
 1184      616E6420 
 1184      656D7074 
 1184      79696E67 
 1185 00b7 00       		.section	.data.mp1,"aw",%progbits
 1186              		.align	2
 1187              		.set	.LANCHOR1,. + 0
 1188              		.type	mp1, %object
 1189              		.size	mp1, 12
 1190              	mp1:
 1191 0000 00000000 		.word	0
ARM GAS  /tmp/ccDcZFx1.s 			page 58


 1192 0004 04000000 		.word	4
 1193 0008 00000000 		.word	0
 1194              		.text
 1195              	.Letext0:
 1196              		.file 2 "/usr/lib/gcc/arm-none-eabi/4.8/include/stddef.h"
 1197              		.file 3 "/usr/include/newlib/machine/_default_types.h"
 1198              		.file 4 "/usr/include/newlib/stdint.h"
 1199              		.file 5 "../../../os/common/ports/ARMCMx/compilers/GCC/chtypes.h"
 1200              		.file 6 "../../../os/rt/include/chsystypes.h"
 1201              		.file 7 "../../../os/rt/include/chschd.h"
 1202              		.file 8 "../../../os/common/ports/ARMCMx/chcore.h"
 1203              		.file 9 "../../../os/common/ports/ARMCMx/chcore_v6m.h"
 1204              		.file 10 "../../../os/rt/include/chsem.h"
 1205              		.file 11 "../../../os/rt/include/chmtx.h"
 1206              		.file 12 "../../../os/common/oslib/include/chmemcore.h"
 1207              		.file 13 "../../../os/common/oslib/include/chmempools.h"
 1208              		.file 14 "../../../test/lib/ch_test.h"