ARM GAS  /tmp/ccJVc4kl.s 			page 1


   1              		.cpu cortex-m0
   2              		.fpu softvfp
   3              		.eabi_attribute 20, 1
   4              		.eabi_attribute 21, 1
   5              		.eabi_attribute 23, 3
   6              		.eabi_attribute 24, 1
   7              		.eabi_attribute 25, 1
   8              		.eabi_attribute 26, 1
   9              		.eabi_attribute 30, 2
  10              		.eabi_attribute 34, 0
  11              		.eabi_attribute 18, 4
  12              		.code	16
  13              		.file	"test_sequence_003.c"
  14              		.text
  15              	.Ltext0:
  16              		.section	.gnu.lto_.jmpfuncs.60e6e4646cf2006e,"",%progbits
  17 0000 789C6362 		.ascii	"x\234cb`b\300\006L\031\031\030,\2014\013\003\003\023"
  17      6062C006 
  17      4C191918 
  17      2C81340B 
  17      030313
  18 0013 2390CDC0 		.ascii	"#\220\315\300\304T\315\360\253\241\243A \223\221!\227"
  18      C454CDF0 
  18      ABA1A341 
  18      20939121 
  18      97
  19 0024 11AC8629 		.ascii	"\021\254\206)\2021\023,\307\214[\232\351\005;X\036\310"
  19      8231132C 
  19      C78C5B9A 
  19      E9053B58 
  19      1EC8
  20 0036 05299801 		.ascii	"\005)\230\001R\300,\307\3008\267a\206C&#\013D!\262$"
  20      52C02CC7 
  20      C038B761 
  20      86432623 
  20      0B4421B2 
  21 004b AB1C8328 		.ascii	"\253\034\203(D\222\015S\222]\216A\036\"\311\001\226"
  21      44920D53 
  21      925D8E41 
  21      1E22C901 
  21      96
  22 005c 6425208F 		.ascii	"d% \217\337d\\N\376\377\237\031b4\210\307y\202\011\356"
  22      DF645C4E 
  22      FEFF9F19 
  22      623488C7 
  22      798209EE 
  23 0070 7AB05AAE 		.ascii	"z\260Z\256d\250Z\270\301\334r\014\346\020\203y \201"
  23      64A85AB8 
  23      C1DC720C 
  23      E6108379 
  23      2081
  24 0082 279C5F5A 		.ascii	"'\234_Z\242\220\237\246P\222\231\233\252P\236\231\227"
  24      A2909FA6 
  24      5092999B 
  24      AA509E99 
  24      97
  25 0093 925FCEC0 		.ascii	"\222_\316\300\231\227_\242\340\027\352\343\303 ^^\224"
ARM GAS  /tmp/ccJVc4kl.s 			page 2


  25      99975FA2 
  25      E017EAE3 
  25      C3205E5E 
  25      94
  26 00a4 9F97AE50 		.ascii	"\237\227\256P\224ZRZ\224\227\232\242\220\233Z\\\234"
  26      945A525A 
  26      94979AA2 
  26      909B5A5C 
  26      9C
  27 00b5 989ECAC0 		.ascii	"\230\236\312\300\344\310\000\000\234\273N\331"
  27      E4C80000 
  27      9CBB4ED9 
  28              		.text
  29              		.section	.gnu.lto_.inline.60e6e4646cf2006e,"",%progbits
  30 0000 789C6362 		.ascii	"x\234cb`b\300\0066Ai\026 bfd`b\272\300\317\300\266@"
  30      6062C006 
  30      36416916 
  30      20626664 
  30      6062BAC0 
  31 0018 1EAC9889 		.ascii	"\036\254\230\211\201G\015(\304\332\241\316\300\336\241"
  31      81470D28 
  31      C4DAA1CE 
  31      C0DEA1
  32 0027 0E11E266 		.ascii	"\016\021\342f``\234\340\307\310\005d3\363\200\22400"
  32      60609CE0 
  32      C7C80564 
  32      33F38094 
  32      3030
  33 0039 33285A00 		.ascii	"3(Z\000UI]\233\316\010\327\011\226g\341\005\313\263"
  33      55495D9B 
  33      CE08D709 
  33      9667E105 
  33      CBB3
  34 004b F201D54C 		.ascii	"\362\001\325L\360\233\340\007\021\000\322`\215@\232"
  34      F09BE007 
  34      1100D260 
  34      8D409A
  35 005a 9541ED00 		.ascii	"\225A\355\000\003P\253\334\275\263\330\264\"\351\200"
  35      0350ABDC 
  35      BDB3D8B4 
  35      22E980
  36 0069 1AC52E00 		.ascii	"\032\305.\0004\016\310\005\"\006\006\000hZ\022\355"
  36      340EC805 
  36      22060600 
  36      685A12ED 
  37              		.text
  38              		.section	.gnu.lto_.pureconst.60e6e4646cf2006e,"",%progbits
  39 0000 789C6362 		.ascii	"x\234cb`b\340d\200\000\026\006\011&+f+V+\000\003\366"
  39      6062E064 
  39      80001606 
  39      09262B66 
  39      2B562B00 
  40 0016 00E2     		.ascii	"\000\342"
  41              		.text
  42              		.section	.gnu.lto_test_003_001_setup.60e6e4646cf2006e,"",%progbits
  43 0000 789C6362 		.ascii	"x\234cb`b@\007\222@<\001\210\215\201\230\221\231\201"
  43      60624007 
ARM GAS  /tmp/ccJVc4kl.s 			page 3


  43      92403C01 
  43      888D8198 
  43      919981
  44 0013 9169C239 		.ascii	"\221i\3029\006\206F\016&FF\020\203\201\221\241\236\211"
  44      0686460E 
  44      26464610 
  44      838191A1 
  44      9E89
  45 0025 B13E9211 		.ascii	"\261>\222\021\254v=\323\201\007\377\377\257\333\322"
  45      AC763DD3 
  45      8107FFFF 
  45      AFDBD2
  46 0034 B6FC0CE3 		.ascii	"\266\374\014\343L&f\240\010+CKC\303\004\005\006\206"
  46      4C2666A0 
  46      082B434B 
  46      43C30405 
  46      0686
  47 0046 64B08A10 		.ascii	"d\260\212\020 \011\322\026\312\310\004\242\231\3172"
  47      2009D216 
  47      CAC804A2 
  47      99CF32
  48 0055 34EDF8F1 		.ascii	"4\355\370\361\314\"\221q!#+\303l\206Y\215\015\015\002"
  48      CC229171 
  48      21232BC3 
  48      6C86598D 
  48      0D0D02
  49 0068 998C0CD5 		.ascii	"\231\214\014\325\014\277\032:@,\306\\\260\266\010F "
  49      0CBF1A3A 
  49      402CC65C 
  49      B0B60846 
  49      20
  50 0079 9301C602 		.ascii	"\223\001\306\0023.24>\230\243\014\321\010\003!@E@SA"
  50      332E3234 
  50      3E98A30C 
  50      D1080321 
  50      40454053 
  51 008e 7E30D4D3 		.ascii	"~0\324\323\323\207\240\222\324\342\022\375\242\022\375"
  51      D387A092 
  51      D4E212FD 
  51      A212FD
  52 009d E2FCD2A2 		.ascii	"\342\374\322\242\344T\010\027D\304\027\247\026\226\246"
  52      E4540817 
  52      44C417A7 
  52      1696A6
  53 00ac E625A7C6 		.ascii	"\346%\247\306\033\030\030\353%3\000\000\306~7\322"
  53      1B1818EB 
  53      25330000 
  53      C67E37D2 
  54              		.text
  55              		.section	.gnu.lto_thread1.60e6e4646cf2006e,"",%progbits
  56 0000 789C7551 		.ascii	"x\234uQ\277k\024A\024\376\336\\\274\273x\004l\205\220"
  56      BF6B1441 
  56      14FEDE5C 
  56      BCBB7804 
  56      6C8590
  57 0013 A4B4F126 		.ascii	"\244\264\361&\242X\212\222*\3055&\021\255\016y\031r"
  57      A2588A92 
ARM GAS  /tmp/ccJVc4kl.s 			page 4


  57      2AC53526 
  57      11AD0E79 
  57      1972
  58 0025 83EE6DDC 		.ascii	"\203\356m\334\331\223\004\213\354\251\001m$\215\020"
  58      D993048B 
  58      ECA9016D 
  58      248D10
  59 0034 14150B2B 		.ascii	"\024\025\013+A\013-D\021\322(X$A\374\003<\254\004\177"
  59      410B2D44 
  59      11D22858 
  59      2441FC03 
  59      3CAC047F 
  60 0048 805DB030 		.ascii	"\200]\2600\276\331\271\234\207\247\303\276\231\367\343"
  60      BED9B99C 
  60      87A7C3BE 
  60      99F7E3
  61 0057 FBDEBC6F 		.ascii	"\373\336\274oVA\341\357uP\354;\001\233rR\001\244\326"
  61      5641E1EF 
  61      7550EC3B 
  61      019B7252 
  61      01A4D6
  62 006a B6807659 		.ascii	"\266\200vY\021y\007\204\025E+\347(\307>U\033\235\335"
  62      11790784 
  62      15452BE7 
  62      28C73E55 
  62      1B9DDD
  63 007d DD272F1E 		.ascii	"\335'/\036}\272@\225\"E\204\022l^\332\207\353Y\2666"
  63      7DBA4095 
  63      22458412 
  63      6C5EDA87 
  63      EB59B636 
  64 0091 01701ECE 		.ascii	"\001p\036\316\312\356\351s\244\374Y\330B\373\307\327"
  64      CAEEE973 
  64      A4FC59D8 
  64      42FBC7D7 
  65 00a1 FB6FA907 		.ascii	"\373o\251\007\013\316\306\253[\337*\207z\321\263\333"
  65      0BCEC6AB 
  65      5BDF2A87 
  65      7AD1B3DB 
  66 00b1 3B95D15E 		.ascii	";\225\321^tS\003\347\351\241p\230HL\211\025\302\314"
  66      745303E7 
  66      E9A17098 
  66      484C8915 
  66      C2CC
  67 00c3 84E7E2E6 		.ascii	"\204\347\342\346Z\306\360\232\356e\353'-\205\021\261"
  67      5AC6F09A 
  67      EE65EB27 
  67      2D8511B1 
  68 00d3 8DD5CEC7 		.ascii	"\215\325\316\307\023\201\010\\\301\317\354Fv\300\222"
  68      1381085C 
  68      C1CFEC46 
  68      76C092
  69 00e2 621ACAEB 		.ascii	"b\032\312\353>S\266T\210\210\272\240\263d}\315z\177"
  69      3E53B654 
  69      8888BAA0 
  69      B3647DCD 
  69      7A7F
ARM GAS  /tmp/ccJVc4kl.s 			page 5


  70 00f4 1BD73A9F 		.ascii	"\033\327:\237\317\014\260\213\234\307\036T\002r5;#\203"
  70      CF0CB08B 
  70      9CC71E54 
  70      0272353B 
  70      2383
  71 0106 627E55C6 		.ascii	"b~U\306\373\304<\030\031\353{\230n\372\335\261?\252"
  71      FBC43C18 
  71      19EB7B98 
  71      6EFADDB1 
  71      3FAA
  72 0118 8ABE234B 		.ascii	"\212\276#KG\246\362\236\2607\377\025\266\211\253/W\037"
  72      47A6F29E 
  72      B037FF15 
  72      B689AB2F 
  72      571F
  73 012a 7F5081BD 		.ascii	"\177P\201\275@\245\273\270#\223\213W\364\012\272\035"
  73      40A5BBB8 
  73      23938B57 
  73      F40ABA1D 
  74 013a 44C1D0C0 		.ascii	"D\301\320\300\370\303L\303yQX\226\366\003\357\321\356"
  74      F8C34CC3 
  74      79515896 
  74      F603EFD1 
  74      EE
  75 014b 7C517BB8 		.ascii	"|Q{\270\260f\345\"\371W\376\362#\325\252\016_j\\\252"
  75      B066E522 
  75      F957FEF2 
  75      23D5AA0E 
  75      5F6A5CAA 
  76 015f 9354BBB8 		.ascii	"\223T\273\270\225\260\011\241\337\352\316\\j\231&\233"
  76      95B009A1 
  76      DFEACE5C 
  76      6A99269B 
  77 016f FAE4E4D1 		.ascii	"\372\344\344\321*\3671b\2479\216\242\270\251\315R\252"
  77      2AF73162 
  77      A7398EA2 
  77      B8A9CD52 
  77      AA
  78 0180 A76A33D3 		.ascii	"\247j3\3233\3326\371bk\336h\216\234u\365\005\346j\003"
  78      33DA36F9 
  78      626BDE68 
  78      8E9C75F5 
  78      05E66A03 
  79 0194 87FFC158 		.ascii	"\207\377\301X\214\223\324\351S\247kS\265%\315\015\216"
  79      8C93D4E9 
  79      53A76B53 
  79      B525CD0D 
  79      8E
  80 01a5 1353BF7C 		.ascii	"\023S\277|<\022\364x?Z\346\351ul\270e'\3652/:;?aQ\212"
  80      3C12F478 
  80      3F5AE6E9 
  80      756CB865 
  80      27F5322F 
  81 01bf 4C1427CB 		.ascii	"L\024'\313!a$\361\033E\323\271\031"
  81      216124F1 
  81      1B45D3B9 
  81      19
ARM GAS  /tmp/ccJVc4kl.s 			page 6


  82              		.text
  83              		.section	.gnu.lto_test_003_001_execute.part.0.60e6e4646cf2006e,"",%progbits
  84 0000 789C8D54 		.ascii	"x\234\215T[h\034e\024>g.;{I\323\330Z\273\321\272Y\372"
  84      5B681C65 
  84      143E672E 
  84      3B7B49D3 
  84      D85ABBD1 
  85 0017 248899C4 		.ascii	"$\210\231\304\210\370\"(\365%\220\365\301l@\237\226"
  85      88F82228 
  85      F52590F5 
  85      C16C409F 
  85      96
  86 0028 7576BA3B 		.ascii	"uv\272;\220\331\2513\263I\213\017\231\315F\010D\332"
  86      90D9A933 
  86      B3498B0F 
  86      99CD4608 
  86      44DA
  87 003a B0A894AA 		.ascii	"\260\250\224\252\230P\245\326\227\342\005\252\205\342"
  87      9850A5D6 
  87      97E205AA 
  87      85E2
  88 0048 6231586B 		.ascii	"b1Xk\023\372R\251>\270\265`R\254ZEi\025\311z\376\271"
  88      13FA52A9 
  88      3EB8B560 
  88      52AC5A45 
  88      6915C97A 
  89 005e ED1A53CC 		.ascii	"\355\032S\314\260\363\317\234\377\334\276\363}\377,"
  89      B0F3CF9C 
  89      FFDCBEF3 
  89      7DFF2C
  90 006d 071C6CBC 		.ascii	"\007\034l\274\206\351\276,\002\274\212\000(\001F\346"
  90      86E9BE2C 
  90      02BC8A00 
  90      280146E6 
  91 007d 97E92582 		.ascii	"\227\351%\202\234\373\3448\361\262\014N\234?\223\002"
  91      9CFBE438 
  91      F1B20C4E 
  91      9C3F9302 
  92 008d A78BF72D 		.ascii	"\247\213\367-\301\265\004\024YL5*\"\262\027@\230\212"
  92      C1B50414 
  92      594C352A 
  92      22B21740 
  92      988A
  93 009f 70BC20E2 		.ascii	"p\274 \342\324s\310J\213{a\321q\2165?_]\303\243\257"
  93      D473C84A 
  93      8B7B61D1 
  93      718E353F 
  93      5F5DC3A3 
  94 00b4 34A6179C 		.ascii	"4\246\027\234\277[-D\2159\025\204g\351\015{\334\007"
  94      BF5B2D44 
  94      8D391584 
  94      67E90D7B 
  94      DC07
  95 00c6 B7019797 		.ascii	"\267\001\227\227\350|\360\256\023s\223x\015\371vN\332"
  95      E87CF0AE 
  95      13739378 
  95      0DF9764E 
ARM GAS  /tmp/ccJVc4kl.s 			page 7


  95      DA
  96 00d7 CB1136C9 		.ascii	"\313\0216\311\231o\\Zz\271\327Y\230\236w\326\251\227"
  96      996F5C5A 
  96      7AB9D759 
  96      989E77D6 
  96      A997
  97 00e9 8602078F 		.ascii	"\206\002\007\217\340V2\353\215O\227\016'\235\205j\220"
  97      E05632EB 
  97      8D4F970E 
  97      279D856A 
  97      90
  98 00fa 495C3D86 		.ascii	"I\\=\206[\301Yo\334Z\372r\021\235\272S\275\331jm\327"
  98      5BC1596F 
  98      DC5AFA72 
  98      119DBA53 
  98      BDD96A6D 
  99 010f 50E4E0F1 		.ascii	"P\344\340\361\377\353y\212s\232\255\326\237\267\242"
  99      FFEB798A 
  99      739AADD6 
  99      9FB7A2
 100 011e BB10348C 		.ascii	"\273\0204\214p\264\000\017y<\216{A C\022\331\022\241"
 100      70B4000F 
 100      793C8E7B 
 100      41204312 
 100      D912A1
 101 0131 252AD1F6 		.ascii	"%*\321\366\011\332\2162#\306\2268[\030\3010C#\247\363"
 101      09DA8E32 
 101      23C69638 
 101      5B18C130 
 101      4323A7F3 
 102 0145 F80EB9BD 		.ascii	"\370\016\271\275\\\227%\272\262\2642Q\262\030aO~\014"
 102      5C9725BA 
 102      B2B43251 
 102      B218614F 
 102      7E0C
 103 0157 39F7B902 		.ascii	"9\367\271\002\265\346\331s\211<\236D\022\035^\204\277"
 103      B5E6D973 
 103      893C9E44 
 103      121D5E84 
 103      BF
 104 0168 9C59A747 		.ascii	"\234Y\247G\303\230\202n\036U\216\003\\\204\351\217o"
 104      C398826E 
 104      1E558E03 
 104      5C84E98F 
 104      6F
 105 0179 FF96F4A2 		.ascii	"\377\226\364\242^\207cU\207\305$\302\350.\335\015f\203"
 105      5E876355 
 105      87C524C2 
 105      E82EDD0D 
 105      6683
 106 018b 7541F096 		.ascii	"uA\360\226`\344,C\365\375\271k\212\217,\200\3308}\344"
 106      60E42C43 
 106      F5FDB96B 
 106      8A8F2C80 
 106      D8387DE4 
 107 019f A7C403A1 		.ascii	"\247\304\003\241u\352\265\333\211=\241u\341\207\253"
 107      75EAB5DB 
ARM GAS  /tmp/ccJVc4kl.s 			page 8


 107      893DA175 
 107      E187AB
 108 01ae 24AED74B 		.ascii	"$\256\327K!\230\012i\255\240\317\027\30292]\332S\360"
 108      21980A69 
 108      ADA0CF17 
 108      C239325D 
 108      DA53F0
 109 01c1 15BEE91C 		.ascii	"\025\276\351\034}B\303m\236\357\"|\366\315\033?^?Y\307"
 109      7D42C36D 
 109      9EEF227C 
 109      F6CD1B3F 
 109      5E3F59C7 
 110 01d5 8DEDAEBD 		.ascii	"\215\355\256\275\375-\317\207\326\325\023W\244\320\230"
 110      FD2DCF87 
 110      D6D51357 
 110      A4D098
 111 01e4 5B5DECE8 		.ascii	"[]\354\350\306\356\010\335\022\253WD|\020\336sf\252"
 111      C6EE08DD 
 111      12AB5744 
 111      7C10DE73 
 111      66AA
 112 01f6 CD2BCBCB 		.ascii	"\315+\313\313u\0244\354f\263\317\263\211\267\263\011"
 112      751434EC 
 112      66B3CFB3 
 112      89B7B309 
 113 0206 7B687A47 		.ascii	"{hzGp\207\355q\021<\317h\310\343G.\227\214\265\237k"
 113      7087ED71 
 113      113CCF68 
 113      C8E3472E 
 113      978CB59F 
 114 021b DD79FC90 		.ascii	"\335y\374\220\314\"rE\306\350y\230\276\371\375'%\257"
 114      CC227245 
 114      C6E87998 
 114      BEF9FD27 
 114      25AF
 115 022d 9F2714BB 		.ascii	"\237'\024\273V\340\245\346\312\361\210\267]D>d\366."
 115      56E0A5E6 
 115      CAF188B7 
 115      5D443E64 
 115      F62E
 116 023f C5553650 		.ascii	"\305U6P\306\231\322p\207\216\350\353\305:Kk\022\211"
 116      C699D270 
 116      878EE8EB 
 116      C53A4B6B 
 116      1289
 117 0251 B4D32DDD 		.ascii	"\264\323-\335\350\015\0123\355\213\354#!\001~\235\253"
 117      E80D0A33 
 117      ED8BEC23 
 117      21017E9D 
 117      AB
 118 0262 7DF71F4A 		.ascii	"}\367\037JN\037YO\364u(\360\326\266Tx\200\332\344\334"
 118      4E1F594F 
 118      F47528F0 
 118      D6B65478 
 118      80DAE4DC 
 119 0276 A88A6D72 		.ascii	"\250\212mrb\340\036\2478\335\211@\215\257\271;\253Q"
 119      62E01EA7 
ARM GAS  /tmp/ccJVc4kl.s 			page 9


 119      38DD8940 
 119      8DAFB93B 
 119      AB51
 120 0288 9BADAD1E 		.ascii	"\233\255\255\036\026\203\231\004\242\200\341\2055\311"
 120      16839904 
 120      A280E185 
 120      35C9
 121 0296 F7F2814B 		.ascii	"\367\362\201K\014\\\327%\227\213\220\207H\310\303\335"
 121      0C5CD725 
 121      978B9087 
 121      48C8C3DD 
 122 02a6 8A7FB2DC 		.ascii	"\212\177\262\334B\"\333Oj\270+\005M\316\353z\217\017"
 122      4222DB4F 
 122      6AB82B05 
 122      4DCEEB7A 
 122      8F0F
 123 02b8 93B8D80D 		.ascii	"\223\270\330\015\360\005\314\334\300\260\012\253\035"
 123      F005CCDC 
 123      C0B00AAB 
 123      1D
 124 02c5 EDFCDAC6 		.ascii	"\355\374\332\306\210\2313)\236\004:?;\031\204I\341\301"
 124      88993329 
 124      9E043A3F 
 124      3B198449 
 124      E1C1
 125 02d7 4E866D19 		.ascii	"N\206m\031\327\376q\336\001\341\\+!\362(\2451g\322\023"
 125      D7FE71DE 
 125      01E15C2B 
 125      21F228A5 
 125      3167D213 
 126 02eb 311C3616 		.ascii	"1\0346\026V\350U|B(\330G}o\012~\367Q\337\327F\275g\003"
 126      56E8557C 
 126      4228D847 
 126      7D6F0A7E 
 126      F751DFD7 
 127 0303 EAD826A8 		.ascii	"\352\330&\250\005\370%\3013\000\265?\272\203\2708\311"
 127      05F825C1 
 127      3300B53F 
 127      BA83B838 
 127      C9
 128 0314 CC42EF6F 		.ascii	"\314B\357o\005\027Nu`\351\370\246;\240\304}(\251\024"
 128      05174E75 
 128      60E9F8A6 
 128      3BA0C47D 
 128      28A914
 129 0327 ACFB50FA 		.ascii	"\254\373P\372\376\005\305\353'\272\377\021\227\350?"
 129      FE05C5EB 
 129      27BAFF11 
 129      97E83F
 130 0336 BD8D224B 		.ascii	"\275\215\"K\214\320.\023}\260\277_\366~\266j\331\262"
 130      8CD02E13 
 130      7DB0BF5F 
 130      F67EB66A 
 130      D9B2
 131 0348 69CB9651 		.ascii	"i\313\226Q1\025\3253\331\222\263\324\027*jYQs\003\003"
 131      3115D533 
 131      D992B3D4 
ARM GAS  /tmp/ccJVc4kl.s 			page 10


 131      172A6A59 
 131      51730303 
 132 035c 43FD0AF0 		.ascii	"C\375\012\360\272U\024lMWE\333\034\354\037h\0270,Y1"
 132      BA55146C 
 132      4D5745DB 
 132      1CEC1F68 
 132      17302C59 
 133 0371 74DD28CB 		.ascii	"t\335(\313\352A[\336\227\031\035\036\225\265\2622^)"
 133      EA415BDE 
 133      97191D1E 
 133      95B5B232 
 133      5E29
 134 0383 A8B2A25B 		.ascii	"\250\262\242[\232\225+*J\177\011\036\332$\343\200a\332"
 134      9A952B2A 
 134      4A7F091E 
 134      DA24E380 
 134      61DA
 135 0395 96FCE433 		.ascii	"\226\374\3443\231}\231\203\262RR\014S\315M<\252St_g"
 135      997D9983 
 135      B252520C 
 135      53CD4D3C 
 135      AA53745F 
 136 03aa 34C10B2B 		.ascii	"4\301\013+\226\254C\026\371\243\312\001K+\2445\220t"
 136      96AC4316 
 136      F9A3CA01 
 136      4B2BA435 
 136      9074
 137 03bc 5537CC43 		.ascii	"U7\314C0\324\231P\312\217\373\265G\263\231\241\207\345"
 137      30D49950 
 137      CA8FFBB5 
 137      47B399A1 
 137      87E5
 138 03ce 9191A7E4 		.ascii	"\221\221\247\344\354pfb\220yr4\334\370x\201\212\310"
 138      EC706662 
 138      90797234 
 138      DCF87881 
 138      8AC8
 139 03e0 5B84C4C6 		.ascii	"[\204\304\3066)>uGP\023v\200I%L;\215\212\2356\366\247"
 139      36293E75 
 139      47501376 
 139      8049254C 
 139      3B8D8A9D 
 140 03f7 595E7A52 		.ascii	"Y^zR+\027\214I\210\225\015;\375\364\330\310\010\354"
 140      2B178C49 
 140      88950D3B 
 140      FDF4D8C8 
 140      08EC
 141 0409 9E348D72 		.ascii	"\2364\215r1m\252v\305,\253\205\264\256ZV\276\250\302"
 141      316DAA76 
 141      C52CAB85 
 141      B4AE5A56 
 141      BEA8C2
 142 041c 3F0937F0 		.ascii	"?\0117\360)"
 142      29
 143              		.text
 144              		.section	.gnu.lto_test_003_001_execute.60e6e4646cf2006e,"",%progbits
 145 0000 789C8555 		.ascii	"x\234\205U[h\034e\024>g.\233\275\232M\274t\267\306\315"
ARM GAS  /tmp/ccJVc4kl.s 			page 11


 145      5B681C65 
 145      143E672E 
 145      9BBD9A4D 
 145      BC74B7C6 
 146 0015 9A580D48 		.ascii	"\232X\015HwS\024A\037\244\245OB\343\203m@\237\302v2"
 146      77531441 
 146      1FA4A54F 
 146      42E3836D 
 146      409FC276 
 147 002a 6C069CDD 		.ascii	"l\006\234\335:3\321\026\0372\233\215P\254\224E\020\213"
 147      3A33D116 
 147      1F329B8D 
 147      50AC9445 
 147      108B
 148 003c 176CA98A 		.ascii	"\027l\251\212\250X//\265/\006\204\320\0136\344\245-"
 148      A8582F2F 
 148      B52F0684 
 148      D00B36E4 
 148      A52D
 149 004e A5D2B545 		.ascii	"\245\322\265E\020S+\245/A\245\3539\363\317\374\033\323"
 149      10532BA5 
 149      2F41A5EB 
 149      39F3CFFC 
 149      1BD3
 150 0060 04879DFF 		.ascii	"\004\207\235\377z\316w\276\357\234\377\237U@\201\265"
 150      7ACE77BE 
 150      EF9CFF9F 
 150      554081B5 
 151 0070 CF767A87 		.ascii	"\317vz\207c\000[\020\000c\200J\353<@#\256(\372\2052"
 151      63005B10 
 151      0063804A 
 151      EB3C4023 
 151      AE28FA85 
 152 0085 F849F554 		.ascii	"\370I\365T\001\374\264\032\316\264`\246\241\316F\250"
 152      01FCB41A 
 152      CEB460A6 
 152      A1CE46A8 
 153 0095 23720F08 		.ascii	"#r\017\0103\212\252\3518\363\0222\2422\004\307|\377"
 153      338AAAE9 
 153      38F31232 
 153      A23204C7 
 153      7CFF
 154 00a7 EDF6AF37 		.ascii	"\355\366\2577?\313\277yt\266\345\337\351t\320B\212\375"
 154      3FCBBF79 
 154      74B6E5DF 
 154      E974D042 
 154      8AFD
 155 00b9 248281F0 		.ascii	"$\202\201\360\"M\260\030t\212\366_2\201gk~i\341\255"
 155      224DB018 
 155      748AF65F 
 155      3281676B 
 155      7E69E1AD 
 156 00cd BCDFF554 		.ascii	"\274\337\365T\025x\346\377<O(\363\355N\347\306w\355"
 156      1578E6FF 
 156      3C4F28F3 
 156      ED4EE7C6 
 156      77ED
ARM GAS  /tmp/ccJVc4kl.s 			page 12


 157 00df 6B57B16F 		.ascii	"kW\261o@\005\0135\215\032=F\015$\241\202\307q\010\322"
 157      40050B35 
 157      8D1A3D46 
 157      0D24A182 
 157      C77108D2 
 158 00f3 D41FA33E 		.ascii	"\324\037\243>C\213\261^n\262\334\364s\223c\303<5=\204"
 158      438BB15E 
 158      6EB2DCF4 
 158      739363C3 
 158      3C353D84 
 159 0107 A6C31CF1 		.ascii	"\246\303\034\361(\012!\363?,\034\316\371G\033\021\235"
 159      280A21F3 
 159      3F2C1CCE 
 159      F9471B11 
 159      9D
 160 0118 B802CF76 		.ascii	"\270\002\317v\351d\005\2355\211\025\361\200\255\350"
 160      E964059D 
 160      358915F1 
 160      80ADE8
 161 0127 D9432D67 		.ascii	"\331C-gj\034\025\356\325\237`\366\344\311\345\\\005"
 161      6A1C15EE 
 161      D59F60F6 
 161      E4C9E55C 
 161      05
 162 0138 3F411DDE 		.ascii	"?A\035\336\207\367\032\276\237\2650\361:\374\345\037"
 162      87F71ABE 
 162      9FB530F1 
 162      3AFCE51F 
 163 0148 E451D20E 		.ascii	"\344Q\322\016\334\0308\011\321(\301k\344yee\371\222"
 163      DC183809 
 163      D128C16B 
 163      E4796565 
 163      F992
 164 015a 265CABA8 		.ascii	"&\\\253\250n\205/\331#\305(-\036\245\031\345\010\217"
 164      6E852FD9 
 164      23C5282D 
 164      1EA519E5 
 164      088F
 165 016c 323662E8 		.ascii	"26b\350\233\221(\367\254\"I`\227\377\271\366\333\331"
 165      9B9128F7 
 165      AC224960 
 165      97FFB9F6 
 165      DBD9
 166 017e 582837D2 		.ascii	"X(7\322\355\177\361iY\346 \032\314\237\273\270\324\207"
 166      ED7FF169 
 166      59E6201A 
 166      CC9FBBB8 
 166      D487
 167 0190 AC8C231B 		.ascii	"\254\214#\033\0014u\201\356*\346\036\207\317}\337o\277"
 167      01347581 
 167      EE2AE61E 
 167      87CF7DDF 
 167      6FBF
 168 01a2 BB70E163 		.ascii	"\273p\341cT(\223b\356?ma\257\024\230\225\002\373\354"
 168      54289362 
 168      EE3F6D61 
 168      AF149895 
ARM GAS  /tmp/ccJVc4kl.s 			page 13


 168      02FBEC
 169 01b5 C09109F5 		.ascii	"\300\221\011\365\005T\366b\220\264\257\010\232\306("
 169      0554F662 
 169      90B4AF08 
 169      9AC628
 170 01c4 C782E4A5 		.ascii	"\307\202\344\245o7W\360D 8\037\002\273T(\011\334O\004"
 170      6F3757F0 
 170      4420381F 
 170      02BB5428 
 170      09DC4F04 
 171 01d8 180B422C 		.ascii	"\030\013B,\205\375\277\216\374\233\007\177<w\361\233"
 171      85FDBF8E 
 171      FC9B077F 
 171      3C77F19B 
 172 01e8 4494328D 		.ascii	"D\2242\215@\330X\357\320\323K\026\213\220\213\366b\222"
 172      40D858EF 
 172      D0D34B16 
 172      8B908BF6 
 172      6292
 173 01fa E1BD06AA 		.ascii	"\341\275\006\252 \264\251A\366O+\354\313\373q\013\357"
 173      20B4A941 
 173      F64F2BEC 
 173      CBFB710B 
 173      EF
 174 020b 33302C01 		.ascii	"30,\001\360J\316\302\373\013P\375\320?\262\335\302\007"
 174      F04ACEC2 
 174      FB0B50FD 
 174      D03FB2DD 
 174      C207
 175 021d C214D151 		.ascii	"\302\024\321Q\332\024\320?\323J\212\025\256\225\310"
 175      DA14D03F 
 175      D34A8A15 
 175      AE95C8
 176 022c 49B7E839 		.ascii	"I\267\3509\0311o\007\0219X~\235r\0219\200\363\320\270"
 176      19316F07 
 176      1139587E 
 176      9D721139 
 176      80F3D0B8 
 177 0240 75F9FAF5 		.ascii	"u\371\372\365\334\332\332\334~\347\217\324\210\234-"
 177      DCDADADC 
 177      7EE78FD4 
 177      889C2D
 178 024f 7FB0921A 		.ascii	"\177\260\222\032\220\263CW~Q\273e\3437Fo\217@E\370\235"
 178      90B34357 
 178      7E51BB65 
 178      E337466F 
 178      8F4045F8 
 179 0264 A206452C 		.ascii	"\242\006E,\300m\024\0126\213\275Ex\243\375\375\361X"
 179      C06D140A 
 179      368BBD45 
 179      78A3FDFD 
 179      F158
 180 0276 949BA464 		.ascii	"\224\233\244d\372\240\201\361\300B\254\3703\026\016"
 180      FAA081F1 
 180      C042ACF8 
 180      33160E
 181 0285 D832214C 		.ascii	"\3302!L\373\241N\207\257`\001\340\014\314\316\347\305"
ARM GAS  /tmp/ccJVc4kl.s 			page 14


 181      FBA14E87 
 181      AF6001E0 
 181      0CCCCEE7 
 181      C5
 182 0296 8EB81355 		.ascii	"\216\270\023U>\322\201\216\346U\274[\307\235\324\340"
 182      3ED2818E 
 182      E655BC5B 
 182      C79DD4E0 
 183 02a6 2A1D1F65 		.ascii	"*\035\037e\012w\037\304C?7\364\256\240\2048\207IzS\221"
 183      0A771FC4 
 183      433F37F4 
 183      AEA08438 
 183      87497A53 
 184 02bb A6BF37D4 		.ascii	"\246\2777\324\304\345X\2719\022iJ\313:\014Ju,%\314\376"
 184      C4E558B9 
 184      3912694A 
 184      CB3A0C4A 
 184      752C25CC 
 185 02d0 80BC28CD 		.ascii	"\200\274(\315E5\362\311\220\033o\016\212\034\351\321"
 185      4535F2C9 
 185      901B6F0E 
 185      8A1CE9D1 
 186 02e0 7AAF4428 		.ascii	"z\257D(\032\230\016k\226\011\217\307\303\005\230S\004"
 186      1A980E6B 
 186      96098FC7 
 186      C3059853 
 186      04
 187 02f1 93A1EEF9 		.ascii	"\223\241\356\371\030\0068\015s7PB0nl\365wd\234\224\234"
 187      1806380D 
 187      73375042 
 187      306E6CF5 
 187      77649C94 
 188 0306 2AA84CA0 		.ascii	"*\250L\240y+\023\331e)\211l\372\310\032\012\375\353"
 188      792B13D9 
 188      6529896C 
 188      FAC81A0A 
 188      FDEB
 189 0318 51C88614 		.ascii	"Q\310\206\024\266\024\340pH\341\321\215)\364\257CA\203"
 189      B614E070 
 189      48E1D18D 
 189      29F4AF43 
 189      4183
 190 032a 3F53EA22 		.ascii	"?S\352\"4\343\241\027\3100\217\031\341\247\305\302\221"
 190      34E3A117 
 190      C8308F19 
 190      E1A7C5C2 
 190      91
 191 033b C85A0F3E 		.ascii	"\310Z\017>qK\364\037\322\305\330CW\232V\271&\333J\245"
 191      714BF41F 
 191      D2C5D843 
 191      579A56B9 
 191      26DB4AA5 
 192 034f B2F879A6 		.ascii	"\262\370y\246\353\225\035\257\354\326\247\035\303\024"
 192      EB951DAF 
 192      ECD6A71D 
 192      C314
 193 035d 536E265C 		.ascii	"Sn&\\\363\225i\263f\230\023\243\243O\224\014\320=g["
ARM GAS  /tmp/ccJVc4kl.s 			page 15


 193      F39569B3 
 193      669813A3 
 193      A34F940C 
 193      D03D675B 
 194 0371 6954B5DD 		.ascii	"iT\265\335\252\346Y\2669,\001\352.\273[5\343\345\351"
 194      AAE659B6 
 194      392C01EA 
 194      2EBB5B35 
 194      E3E5E9
 195 0384 49B36C4C 		.ascii	"I\263lLyS\216Y\231tKS\240\354X\025\207\314\214\272m"
 195      79538E59 
 195      99744B53 
 195      A0EC5815 
 195      87CC8CBA 
 196 0399 D76B6573 		.ascii	"\327kes\277W\3369\266\373\271\335]'\333\265\334\211"
 196      BF57DE39 
 196      B6FBB9DD 
 196      5D27DBB5 
 196      DC89
 197 03ab AA6190D3 		.ascii	"\252a\220\323\326u<\366\325\035\317-\357xal\347\330"
 197      D6753CF6 
 197      D51DCF2D 
 197      EF78616C 
 197      E7D8
 198 03bd 7E8A60D4 		.ascii	"~\212`\324\035s\342\325\247l\262\036\334\220\206{\200"
 198      1D73E2D5 
 198      A76CB21E 
 198      DC90867B 
 198      80
 199 03ce 29C48D7D 		.ascii	")\304\215}\2565Y\264\240\3076\355\272s@,\230\264\220"
 199      AE3559B4 
 199      A0C736ED 
 199      BA73402C 
 199      98B490
 200 03e1 A8D5BDE2 		.ascii	"\250\325\275\342\363\343\273v\301\246\327\234z\255Z"
 200      F3E3BB76 
 200      C1A6D79C 
 200      7AAD5A
 201 03f0 744C6FDA 		.ascii	"tLo\332\251\231\223E\333t\335J\325\204\177\001\324\223"
 201      A9999345 
 201      DB74DD4A 
 201      D5847F01 
 201      D493
 202 0402 D44F     		.ascii	"\324O"
 203              		.text
 204              		.section	.gnu.lto_.symbol_nodes.60e6e4646cf2006e,"",%progbits
 205 0000 789C4D8C 		.ascii	"x\234M\214KN\002Q\020E\357\255\352j\024T\304\015\260"
 205      4B4E0251 
 205      1045EFAD 
 205      EA6A1454 
 205      C40DB0
 206 0013 1CD7E14A 		.ascii	"\034\327\341J\212\244\023?3\027 \243^\202\342\007P\201"
 206      8AA4133F 
 206      331720A3 
 206      5E82E207 
 206      5081
 207 0025 2690F4C0 		.ascii	"&\220\364\300)S\014S\327`|\2176>krrn\325-\201\340\234"
ARM GAS  /tmp/ccJVc4kl.s 			page 16


 207      29530C53 
 207      D7607C8F 
 207      363E6B72 
 207      726ED52D 
 208 003c 68464674 		.ascii	"hFFt\342\366\003p\277\273\271\260{\"s\225\007:R*5]~"
 208      E2F60370 
 208      BFBBB9B0 
 208      7B227395 
 208      073A522A 
 209 0053 75784D7B 		.ascii	"uxM{!\341\220G\272\376\253\216)!\265%5b\312,\342\231"
 209      21E19047 
 209      BAFEAB8E 
 209      2921B525 
 209      3562CA2C 
 210 0069 66014FCC 		.ascii	"f\001O\314\303[V\364\254i\014\006\344\202n\311\346\364"
 210      C35B56F4 
 210      AC690C06 
 210      E4826EC9 
 210      E6F4
 211 007b 3CD93BBD 		.ascii	"<\331;\275\225\354\225~\220lF?L\366Fo'\233\320;\177"
 211      95EC957E 
 211      906C463F 
 211      4CF6466F 
 211      279BD03B 
 212 0090 A6728C72 		.ascii	"\246r\214r\373\035x\204j\317\016\312\317@\355\241\252"
 212      FB1D7884 
 212      6ACF0ECA 
 212      CF40EDA1 
 212      AA
 213 00a1 3712B95B 		.ascii	"7\022\271[\257r\325S\354.\277\372\252]T\373\375\011"
 213      AF72D553 
 213      EC2EBFFA 
 213      AA5D54FB 
 213      FD09
 214 00b3 8A786F67 		.ascii	"\212xog\315\275uQ\304\275\365P^5,\352\3203\305\"\374"
 214      CDBD7551 
 214      C4BDF550 
 214      5E352CEA 
 214      D033C522 
 215 00c8 C10F6C39 		.ascii	"\301\017l9^\317"
 215      5ECF
 216              		.text
 217              		.section	.gnu.lto_.refs.60e6e4646cf2006e,"",%progbits
 218 0000 789C2588 		.ascii	"x\234%\210\321\025\000\020\014\304.G\025\253\330\177"
 218      D1150010 
 218      0CC42E47 
 218      15ABD87F 
 219 0010 3FF5245F 		.ascii	"?\365$_\211e\035}\020`\323\032\335\025\031t\015e\255"
 219      89651D7D 
 219      1060D31A 
 219      DD151974 
 219      0D65AD
 220 0023 F99AE55D 		.ascii	"\371\232\345]\312\241\013\021\353\000\242"
 220      CAA10B11 
 220      EB00A2
 221              		.text
 222              		.section	.gnu.lto_.decls.60e6e4646cf2006e,"",%progbits
ARM GAS  /tmp/ccJVc4kl.s 			page 17


 223 0000 789CBD5B 		.ascii	"x\234\275[\013t\024U\232\256Gw\222\206\200\200\217e"
 223      0B741455 
 223      9AAE4777 
 223      92868080 
 223      8F65
 224 0012 561DC28C 		.ascii	"V\035\302\214\356\352\270\022\020\327afg\006\234\350"
 224      EEEAB812 
 224      10D76166 
 224      67069CE8 
 225 0022 51CF11D7 		.ascii	"Q\317\021\327\223\340\036\366\331\026\235\202\364\330"
 225      93E01EF6 
 225      D9169D82 
 225      F4D8
 226 0030 E90EDD15 		.ascii	"\351\016\335\025\036\373\030+\001\"2\016\206\000\002"
 226      1EFB182B 
 226      0122320E 
 226      860002
 227 003f 9A600061 		.ascii	"\232`\000a\360\015\341\025\020\245\243\020B@\0022$B"
 227      F00DE115 
 227      10A5A310 
 227      42400232 
 227      2442
 228 0051 068C0822 		.ascii	"\006\214\010\"8\274E\204!\364\376\367\277U\325U\325"
 228      38BC4584 
 228      21F4FEF7 
 228      BF55D555 
 228      D5
 229 0062 55DD5561 		.ascii	"U\335Ua\335:\271\267\353q\357w\377\347\275\377}\204"
 229      DD3AB9B7 
 229      EB71EF77 
 229      FFE7BDFF 
 229      7D84
 230 0074 6338E649 		.ascii	"c8\346I\236a\022p\315|\202a\256\3450\214\227a\230_A"
 230      9E611270 
 230      CD7C8261 
 230      AEE5308C 
 230      9761985F 
 231 0089 EA036909 		.ascii	"\352\003i\011\244,HP\204\371g\226a\376\005\322\277A"
 231      A42C4850 
 231      84F96796 
 231      61FE05D2 
 231      BF41
 232 009b FA77487E 		.ascii	"\372wH~HO\263\264\3748\370\025!\215\207D\256\\H%p_\012"
 232      484FB3B4 
 232      FC38F815 
 232      218D8744 
 232      AE5C4825 
 233 00b2 6922A472 		.ascii	"i\"\244rHS \3757\244\337B\232\006i\006\244\271\220j"
 233      485320FD 
 233      37A4DF42 
 233      9A066906 
 233      A4B9906A 
 234 00c6 212D8194 		.ascii	"!-\201\224\015u\336\205\337\325\220\326@\332\010\351"
 234      0D75DE85 
 234      DFD590D6 
 234      40DA08E9 
 235 00d6 2AA404A4 		.ascii	"*\244\004\244[8\306p\021\\\362j\251B#\271X\345=\253"
ARM GAS  /tmp/ccJVc4kl.s 			page 18


 235      5B38C670 
 235      115CF26A 
 235      A94223B9 
 235      58E53DAB 
 236 00ea E0E82F42 		.ascii	"\340\350/BKo\370=\011)\017*\376\210K\362\366,|\363\301"
 236      4B6FF83D 
 236      09290F2A 
 236      FE884BF2 
 236      F62C7CF3 
 237 00ff 73187E7F 		.ascii	"s\030~\177\014\277w@\232\252\324\357\245\324\275\023"
 237      0CBF7740 
 237      9AAAD4EF 
 237      A5D4BD13 
 238 010f DEDD05E9 		.ascii	"\336\335\005\351\036\216\322O\370\030\012\367\303!="
 238      1E8ED24F 
 238      F8180AF7 
 238      C3213D
 239 011e C051DE08 		.ascii	"\300Q\336\010=\277aS\333&\374\347\301\357\363\360\333"
 239      3DBF6153 
 239      DB26FCE7 
 239      C1EFF3F0 
 239      DB
 240 012f 57914D23 		.ascii	"W\221M#\244\001\360\334\300P\276\211|\347\353\350 2"
 240      A401F0DC 
 240      C050BE89 
 240      7CE7EBE8 
 240      2032
 241 0141 FD394769 		.ascii	"\3759Gi\375\007H\277 \357!E\024\272\253\240L\031\227"
 241      FD0748BF 
 241      20EF2145 
 241      14BAABA0 
 241      4C1997
 242 0154 D4C93C96 		.ascii	"\324\311<\226\312b\"\227\324O\035K\371S\365D\310*\342"
 242      CA622297 
 242      D44F1D4B 
 242      F953F544 
 242      C82AE2
 243 0167 280D1315 		.ascii	"(\015\023\025\035\350\371\212B\232Dx\347\250n\364\374"
 243      1DE8F98A 
 243      429A4478 
 243      E7A86EF4 
 243      FC
 244 0178 A97A223C 		.ascii	"\251z\"<\256\266\340\221\350\367n\206\362\243\362H\370"
 244      AEB6E091 
 244      E8F76E86 
 244      F2A3F248 
 244      F8
 245 0189 1BA9F047 		.ascii	"\033\251\360GxkTd\240\362\266\016\356\327\022Y\302\275"
 245      786B5464 
 245      A0F2B60E 
 245      EED71259 
 245      C2BD
 246 019b 07DE35C1 		.ascii	"\007\3365\301\375&H\377\003\317\313\340\371\267\234"
 246      FD2648FF 
 246      03CFCBE0 
 246      F9B79C
 247 01aa D1AE9642 		.ascii	"\321\256\226B\352\206\364\254\"\027U\026\274\"\217L"
ARM GAS  /tmp/ccJVc4kl.s 			page 19


 247      EA86F4AC 
 247      22175516 
 247      BC228F4C 
 248 01ba FCCB8447 		.ascii	"\374\313\204G\226\226\217\303\357.H\033\024z\011\375"
 248      96968FC3 
 248      EF2E481B 
 248      147A09FD 
 249 01ca 15846F8E 		.ascii	"\025\204o\216\332\242Y\347fy\324*v\355eR\355\325,\233"
 249      DAA259E7 
 249      6679D42A 
 249      76ED6552 
 249      EDD52C9B 
 250 01de DECC2C59 		.ascii	"\336\314,Y\256\224\353\253\344G[\372\032\036\0060sd"
 250      AE94EBAB 
 250      E4475BFA 
 250      1A1E0630 
 250      7364
 251 01f0 B8F25A80 		.ascii	"\270\362Z\200\204\261\254\300\366\3651\365\036\274\313"
 251      84B1ACC0 
 251      F6F531F5 
 251      1EBCCB
 252 01ff F5310F41 		.ascii	"\3651\017A\325;\231\327d\271\272\353\330\253\267\313"
 252      D53B99D7 
 252      64B9BAEB 
 252      D8ABB7CB 
 253 020f 1E815DC6 		.ascii	"\036\201]\306\016\000\005\374-\313\374\204y\035\252"
 253      0E0005FC 
 253      2DCBFC84 
 253      791DAA
 254 021e 5503D05F 		.ascii	"U\003\320_3\251WFT\216\371)\313\010\354\037\000N`W\260"
 254      33A95746 
 254      548EF929 
 254      CB08EC1F 
 254      004E6057 
 255 0233 3FA1CDC8 		.ascii	"?\241\315\310]s\253\016U\262\025\262\314\322o\214\362"
 255      5D73AB0E 
 255      55B215B2 
 255      CCD26F8C 
 255      F2
 256 0244 D5E21ACC 		.ascii	"\325\342\032\314\324C\205\370\245\326ZV\256\377\220"
 256      D44385F8 
 256      A5D65A56 
 256      AEFF90
 257 0253 B5687194 		.ascii	"\265hq\224\332`N\222\215\031'[<\262\234#\260o\"#\343"
 257      DA604E92 
 257      8D19275B 
 257      3CB29C23 
 257      B06F2223 
 258 0268 5843030A 		.ascii	"XC\003\012H\375(;\024\216hO`\337I!\273\271M%\373\035"
 258      48FD283B 
 258      148E684F 
 258      60DF4921 
 258      BBB94D25 
 259 027e 076457C6 		.ascii	"\007dW\306\367\316\252\373\001!\333\240\013*^\245\335"
 259      F7CEAAFB 
 259      0121DBA0 
 259      0B2A5EA5 
ARM GAS  /tmp/ccJVc4kl.s 			page 20


 259      DD
 260 028f 3CB55D0F 		.ascii	"<\265]\017\326\023\330\006(\254\203\345\300yTZ\254\252"
 260      D613D806 
 260      28AC83E5 
 260      C079545A 
 260      ACAA
 261 02a1 28B7F452 		.ascii	"(\267\364R\012\030i\370\2445\267Z\240\270\0343\3235"
 261      0A1869F8 
 261      A435B75A 
 261      A0B81C33 
 261      D335
 262 02b3 589E157B 		.ascii	"X\236\025{\214BlRB\002\273\212\275\023\362\325\354`"
 262      8C426C52 
 262      4202BB8A 
 262      BD13F2D5 
 262      EC60
 263 02c5 C8D742AE 		.ascii	"\310\327B\256]\034\363{V\265\002+igf\341rk-\212\321"
 263      5D1CF37B 
 263      56B5022B 
 263      696766E1 
 263      726B2D8A 
 264 02da C7CC4C8A 		.ascii	"\307\314L\212\221\261dA1\200\216Y[\367\262\323PS\215"
 264      91B16441 
 264      31808E59 
 264      5BF7B2D3 
 264      50538D
 265 02ed 508D0317 		.ascii	"P\215\003\0274\332\200s\250\003\263\2675\261\225\010"
 265      34DA8073 
 265      A803B3B7 
 265      35B19508 
 266 02fd F51E429D 		.ascii	"\365\036B\235\3571\324\245\266\255s\024\252>@\250\327"
 266      EF31D4A5 
 266      B6AD7314 
 266      AA3E40A8 
 266      D7
 267 030e 392394C0 		.ascii	"9#\224\300fk\274k\317j\001\202\207\237\225\0332\222"
 267      666BBC6B 
 267      CF6A0182 
 267      879F951B 
 267      3292
 268 0320 DEC07CCF 		.ascii	"\336\300|\317\3059f-gR\236\225\311\344\330)O\356\252"
 268      C539662D 
 268      67529E95 
 268      C9E4D829 
 268      4FEEAA
 269 0333 693ECC2D 		.ascii	"i>\314-\222\343\323y\325\355\262\354\244\3041\033\261"
 269      92E3D379 
 269      D5EDB2EC 
 269      A4C4311B 
 269      B1
 270 0344 AD8FCC7E 		.ascii	"\255\217\314~W\327\276K\365\273\217\034\371\335\272"
 270      57D7BE4B 
 270      F5BB8F1C 
 270      F9DDBA
 271 0353 D605A97E 		.ascii	"\326\005\251~g\325[qj\373w`\373g\261\375\026s\373\227"
 271      67D55B71 
 271      6AFB7760 
ARM GAS  /tmp/ccJVc4kl.s 			page 21


 271      FB67B1FD 
 271      1673FB97 
 272 0367 3BB64D53 		.ascii	";\266MS\332oq\324\376\242\335\363\254\374\376W7\247"
 272      DA6F71D4 
 272      FEA2DDF3 
 272      ACFCFE57 
 272      37A7
 273 0379 B38EBAF6 		.ascii	"\263\216\272\366/\317)\255\354Bg}\2037[\307\310\336"
 273      2FCF29AD 
 273      EC42677D 
 273      83375BC7 
 273      C8DE
 274 038b 46FD8D34 		.ascii	"F\375\2154\365\025kx\225\376\036\365\025\300h\363\\"
 274      F5156B78 
 274      95FE1EF5 
 274      15C068F3 
 274      5C
 275 039c B6669ADC 		.ascii	"\266f\232\3342T\245a\275k\304<\203$jwc\357C\3016:\001"
 275      3254A561 
 275      BD6BC43C 
 275      83246A77 
 275      63EF43C1 
 276 03b3 B335A5CA 		.ascii	"\2635\245\312\370b=\330\373\256\301\214\224\255\322"
 276      F8623DD8 
 276      FBAEC18C 
 276      94ADD2
 277 03c2 83353901 		.ascii	"\20359\001\353gOY\203\036l\253k0#ek\365`\333\235\200"
 277      EB674F59 
 277      831E6CAB 
 277      6B302365 
 277      6BF560DB 
 278 03d8 0DB4A76C 		.ascii	"\015\264\247l\275\036\254\3255\230\221\262F=\330\307"
 278      BD1EACD5 
 278      359891B2 
 278      463DD8C7 
 279 03e8 4EC0F22C 		.ascii	"N\300\362,(\323.\2731p;\253\3319\307\354\341\325>\301"
 279      28D32EBB 
 279      31703BAB 
 279      D939C7EC 
 279      E1D53EC1 
 280 03fc A54D3349 		.ascii	"\245M3I\214}\274\333>\314\3007\014\374\237-e\347R\277"
 280      8C7DBCDB 
 280      3ECCC037 
 280      0CFC9F2D 
 280      65E752BF 
 281 0410 A0036987 		.ascii	"\240\003i\207\023\3044\006S\275S7*\037r\015fT\313b\002"
 281      13C43406 
 281      53BD5337 
 281      2A1F720D 
 281      6654CB62 
 282 0425 66E86B94 		.ascii	"f\350k\2241\251ky|\340\302dw\227\243b\221\270\221\366"
 282      31A96B79 
 282      7CE0C264 
 282      7797A362 
 282      91B891F6 
 283 0439 6D10DA71 		.ascii	"m\020\332qZay\340@\353\262\002{\002G\367\223\254O\243"
 283      5A6179E0 
ARM GAS  /tmp/ccJVc4kl.s 			page 22


 283      40EBB202 
 283      7B0247F7 
 283      93AC4FA3 
 284 044d 82DEAB77 		.ascii	"\202\336\253w\011\014\331\277\340M\021\251ze\252jg\011"
 284      090CD9BF 
 284      E04D11A9 
 284      7A65AA6A 
 284      6709
 285 045f C7F596F0 		.ascii	"\307\365\226\360\225\0231\245q\205=vb\212W\3113\331"
 285      951331A5 
 285      71853D76 
 285      628A57C9 
 285      33D9
 286 0471 8AD5B7A5 		.ascii	"\212\325\267\245\215)\353\332O/Q\342\20038x\237\342"
 286      8D29EBDA 
 286      4F2F51E2 
 286      80333878 
 286      9FE2
 287 0483 2DE30047 		.ascii	"-\343\000G`\007f\267\251A\305y\004\373\356:\300.\265"
 287      600766B7 
 287      A941C579 
 287      04FBEE3A 
 287      C02EB5
 288 0496 1D52C38A 		.ascii	"\035R\303\212\213\010V\3411\017\034>SX\3413\016\374"
 288      8B0856E1 
 288      310F1C3E 
 288      5358E133 
 288      0EFC
 289 04a8 3E5FF226 		.ascii	">_\362&\241^FU~\257u\354\324\177Z\257\376\027<n\325"
 289      A15E4655 
 289      7EAF75EC 
 289      D47F5AAF 
 289      FE173C6E 
 290 04bd 6FF01208 		.ascii	"o\360\022\010D\276\345\026\310\361\012^g\357i\235\003"
 290      44BEE516 
 290      C8F10A5E 
 290      67EF699D 
 290      03
 291 04ce C2C8D60F 		.ascii	"\302\310\326\017~\211\363\210+(\327\271\036K%9\000:"
 291      7E89F388 
 291      2B28D7B9 
 291      1E4B2539 
 291      003A
 292 04e0 30FBED7B 		.ascii	"0\373\355{\020\250\033\201j{\014t\251m\361\010\004\""
 292      10A81B81 
 292      6A7B0C74 
 292      A96DF108 
 292      0422
 293 04f2 6ECB31AF 		.ascii	"n\3131\257\245h\2325i\2325j@\363<\305\361\276\257\262"
 293      A5689A35 
 293      699A356A 
 293      40F33CC5 
 293      F1BEAFB2 
 294 0506 1CF38E59 		.ascii	"\034\363\216Y]\006v\322\014\017Z\237{\265\206\275P)"
 294      5D0676D2 
 294      0C0F5A9F 
 294      7BB586BD 
ARM GAS  /tmp/ccJVc4kl.s 			page 23


 294      5029
 295 0518 2F1CEA42 		.ascii	"/\034\352B_\263\024}\315@\351\254M\221N\267K\361p\314"
 295      5FB3147D 
 295      CD40E9AC 
 295      4D914EB7 
 295      4BF170CC 
 296 052c 66D76CE4 		.ascii	"f\327l\344\030\331\250J\364\200\215-\224\215Y\310\306"
 296      18D9A84A 
 296      F4808D2D 
 296      948D59C8 
 296      C6
 297 053d 87FF076C 		.ascii	"\207\377\007l\264\272f\243\237\216\015\234\372\316\243"
 297      B4BA66A3 
 297      9F8E0D9C 
 297      FACEA3
 298 054c 23E08D4C 		.ascii	"#\340\215LM\3720\236\320\363\"w\243!\204\216\357\337"
 298      4DFA309E 
 298      D0F32277 
 298      A321848E 
 298      EFDF
 299 055e CDE6D1D7 		.ascii	"\315\346\321\327\231'\373\027v\353\246{\262\243\351"
 299      9927FB17 
 299      76EBA67B 
 299      B2A3E9
 300 056d 5EAB36DD 		.ascii	"^\2536\335\253A\221\265Y9\230\023\250\372\003\273o&"
 300      AB4191B5 
 300      59399813 
 300      A8FA03BB 
 300      6F26
 301 057f 2B20F311 		.ascii	"+ \363\021f\177Oa\300O\267P?]\210@\207RT\230e\322`\226"
 301      667F4F61 
 301      C04FB750 
 301      3F5D8840 
 301      87525498 
 302 0597 5183F048 		.ascii	"Q\203\360HZ\372\016;\310g\2257\344!\233\371\177\257"
 302      5AFA0E3B 
 302      C8679537 
 302      E4219BF9 
 302      7FAF
 303 05a9 C731C791 		.ascii	"\3071\307\221|\242=\2271\230j=UG\347\252\361\023U\320"
 303      7CA23D97 
 303      31986A3D 
 303      5547E7AA 
 303      F11355D0 
 304 05bd E9EB42AC 		.ascii	"\351\353B\254\214\277\372\"]Y\3019\020\307\\\272N\270"
 304      8CBFFA22 
 304      5D59C139 
 304      10C75CBA 
 304      4EB8
 305 05cf CD6D188E 		.ascii	"\315m\030\216-\301p\354\332\365q\033\357h\253Uh\243"
 305      2DC170EC 
 305      DAF5711B 
 305      EF68AB55 
 305      68A3
 306 05e1 BC4EF75E 		.ascii	"\274N\367^\037q\227_\264XE\262\230\315>\255b\2215Q\030"
 306      1F71975F 
 306      B45845B2 
ARM GAS  /tmp/ccJVc4kl.s 			page 24


 306      98CD3EAD 
 306      62913551 
 307 05f6 2FB1D915 		.ascii	"/\261\331\025\234i2{\341dW\225\022z\220o\231\335\261"
 307      9C69327B 
 307      E1645795 
 307      127A906F 
 307      99DDB1
 308 0609 F3984FAE 		.ascii	"\363\230O\256\311\245ki\002\273\236\345\024T\253\210"
 308      C9A56B69 
 308      02BB9EE5 
 308      1454AB88 
 309 0619 24B3700E 		.ascii	"$\263p\016\213-C\3358v\263\352\330o\242,7z\315\216D"
 309      8B2D43DD 
 309      3876B3EA 
 309      D86FA22C 
 309      377ACD8E 
 310 062e 3CB5E796 		.ascii	"<\265\347\226\275E\023\222\323\231\201\371\262\353\002"
 310      BD451392 
 310      D39981F9 
 310      B2EB02
 311 063d 9773BAD8 		.ascii	"\227s\272\330\345\243\3533\001\350~\233_\243\016\224"
 311      E5A3EB33 
 311      01E87E9B 
 311      5FA30E94 
 312 064d C9086456 		.ascii	"\311\010dV?a\200\216\037[n0[A\307\351\226\347\224\305"
 312      3F61808E 
 312      1F5B6E30 
 312      5B41C7E9 
 312      96E794C5 
 313 0661 86064756 		.ascii	"\206\006GVp\321\302\012\032zh\005`\322'v\260\010G'@"
 313      70D1C20A 
 313      1A7A6805 
 313      60D22776 
 313      B0084727 
 314 0676 1734225D 		.ascii	"\0274\"]jA\201\273*\272\025\014\265\257\370\201cdX\332"
 314      6A4181BB 
 314      2ABA150C 
 314      B5AFF881 
 314      636458DA 
 315 068a C49155E2 		.ascii	"\304\221U\342\313)\246E%\2433\255\244\030\005v-GfD\353"
 315      CB29A645 
 315      25A333AD 
 315      A4180576 
 315      2D476644 
 316 069f 38B2DEB9 		.ascii	"8\262\336\271\036\363FN\267\352ig\026\033\223f!\260"
 316      1EF3464E 
 316      B7EA6967 
 316      161B9366 
 316      21B0
 317 06b1 6BCC6274 		.ascii	"k\314bt:/\315\330\314j\275\365Ud]\237\365\3254\357\366"
 317      3A2FCDD8 
 317      CC6ABDF5 
 317      55645D9F 
 317      F5D534EF 
 318 06c6 E0129E8B 		.ascii	"\340\022\236\213\005\330\326m\252\343nA\307\235\231"
 318      05D8D66D 
 318      AAE36E41 
ARM GAS  /tmp/ccJVc4kl.s 			page 25


 318      C79D99
 319 06d5 6596EE7B 		.ascii	"e\226\356{\346 \306\311j\344\274\236\262\242]\034\363"
 319      E620C6C9 
 319      6AE4BC9E 
 319      B2A25D1C 
 319      F3
 320 06e6 4A968389 		.ascii	"J\226\203\211D\236\205\324\265\321\254]\211\2052.i*"
 320      449E85D4 
 320      B5D1AC5D 
 320      8985322E 
 320      692A
 321 06f8 D258FE65 		.ascii	"\322X\376e\234\356GlCK\2533\311\302\301\312\350[X\245"
 321      9CEE476C 
 321      434BAB33 
 321      C9C2C1CA 
 321      E85B58A5 
 322 070c C5ECC673 		.ascii	"\305\354\306s\253\264\225\321\026\007n\\\031_3K\035"
 322      ABB495D1 
 322      16076E5C 
 322      195F334B 
 322      1D
 323 071d 37E94603 		.ascii	"7\351F\003\265\300\226\364\026\230V\236\006\025\266"
 323      B5C096F4 
 323      1698569E 
 323      0615B6
 324 072c E81CA415 		.ascii	"\350\034\244\025\035d\247\336) \234v\"\373\273\354L"
 324      1D64A7DE 
 324      29209C76 
 324      22FBBBEC 
 324      4C
 325 073d 11BAA14F 		.ascii	"\021\272\241O\350F\220\272\265\263\325\214g\325\021"
 325      E84690BA 
 325      B5B3D58C 
 325      67D511
 326 074c 19F0F4BA 		.ascii	"\031\360\364\272\254\214W\357\303\201\237\332\350\307"
 326      AC8C57EF 
 326      C3819FDA 
 326      E8C7
 327 075a 4E881B6A 		.ascii	"N\210\033j\017\366\352\\U\270\304\3758\246\335\011\336"
 327      0FF6EA5C 
 327      55B8C4FD 
 327      38A6DD09 
 327      DE
 328 076b 083B662B 		.ascii	"\010;f+\343\033\366\251\201\004\335\3048\354\032\317"
 328      E31BF6A9 
 328      8104DDC4 
 328      38EC1ACF 
 329 077b 48DFFEB9 		.ascii	"H\337\376\271\206\240\351\270\023\270Q\216u\237\334"
 329      86A0E9B8 
 329      13B8518E 
 329      759FDC
 330 078a E513D8D7 		.ascii	"\345\023\330\327q\271\350\015\334\014\332\200\371\207"
 330      71B9E80D 
 330      DC0CDA80 
 330      F987
 331 0798 981FC1FC 		.ascii	"\230\037\301\374(\346_b~\012\363\313\230O\307n\364y"
 331      28E65F62 
ARM GAS  /tmp/ccJVc4kl.s 			page 26


 331      7E0AF3CB 
 331      984FC76E 
 331      F479
 332 07aa CC6763BE 		.ascii	"\314gc\276\025\363\2171o\303|/\346\3730\337\237\251"
 332      15F38F31 
 332      6FC37C2F 
 332      E6FB30DF 
 332      9FA9
 333 07bc C355B703 		.ascii	"\303U\267\003\277\350\342\320\375\226\342hs*\245+j`"
 333      BFE8E2D0 
 333      FD96E268 
 333      732AA52B 
 333      6A60
 334 07ce 4D0B     		.ascii	"M\013"
 335 07d0 EBA65D38 		.ascii	"\353\246]8\273^vI\262\236a\370\351\317T\343\360\263"
 335      BB5E7649 
 335      B29E61F8 
 335      E9CF54E3 
 335      F0B3
 336 07e2 B02F5DE2 		.ascii	"\260/]\342R\352/\324\206\240\033\025\200\203\\\177\274"
 336      52EA2FD4 
 336      86A01B15 
 336      80835C7F 
 336      BC
 337 07f3 33444458 		.ascii	"3DDX\302\256\311N.\271\216\226\353K\336\250#\225]\275"
 337      C2AEC94E 
 337      2EB98E96 
 337      EB4BDEA8 
 337      23955DBD 
 338 0807 039C2B52 		.ascii	"\003\234+R\037U\353\373\224\372\207\\Sz\330\206\322"
 338      1F55EBFB 
 338      94FA875C 
 338      537AD886 
 338      D2
 339 0818 9C0C94FE 		.ascii	"\234\014\224\376\311\035\245\215\232P\377J\001\350r"
 339      C91DA58D 
 339      9A50FF4A 
 339      01E872
 340 0827 4DEAE736 		.ascii	"M\352\3476\244\336\222\201\324\317lH\275\205\231\257"
 340      A4DE9281 
 340      D4CF6C48 
 340      BD8599AF 
 341 0837 B42CB392 		.ascii	"\264,\263\222\355\276\017A\370\202\243m\360x\340\201"
 341      EDBE0F41 
 341      F882A36D 
 341      F078E081 
 342 0847 51B6749E 		.ascii	"Q\266t\236\342\323\2325)w\2043X\250\225\244\352G\231"
 342      E2D39A35 
 342      29778433 
 342      58A895A4 
 342      EA4799
 343 085a 44D54F05 		.ascii	"D\325O\005\341\024\220/]K\352\270\215\244\330\014\344"
 343      E114902F 
 343      5D4BEAB8 
 343      8DA4D80C 
 343      E4
 344 086b 1E4B4A6A 		.ascii	"\036KJj\020\263X\216\237\355\232s\245k\006;\007FQ\371"
ARM GAS  /tmp/ccJVc4kl.s 			page 27


 344      10B3588E 
 344      9FED9A73 
 344      A56B063B 
 344      074651F9 
 345 087f 2C19DBA9 		.ascii	",\031\333\251(8\246!\333\350\234w0\313d\271Fn\220e\237"
 345      2838A621 
 345      DBE89C77 
 345      30CB64B9 
 345      466E9065 
 346 0894 D26D6DC2 		.ascii	"\322mm\302\022_q\203,\033S7\311\376\206YNX\222W\312"
 346      125F7183 
 346      2C1B5337 
 346      C9FE8659 
 346      4E589257 
 347 08a9 3C2A8051 		.ascii	"<*\200Q\352\350.\201=\301\031N\373P\312\342\353\232"
 347      EAE82E81 
 347      3DC1194E 
 347      FB50CAE2 
 347      EB9A
 348 08bb 67433759 		.ascii	"gC7Y\031O$F2\3165yZ\321dR{0\332\231\230\261&\353\224"
 348      194F2446 
 348      32CE3579 
 348      5AD16452 
 348      7B30DA99 
 349 08d4 99AC3396 		.ascii	"\231\2543\226dmn~!\247\272\242+\221\030\344\234\250"
 349      646D6E7E 
 349      21A7BAA2 
 349      2B9118E4 
 349      9CA8
 350 08e6 F31644B5 		.ascii	"\363\026D\265Y\023Um$\352\234\231\250\013VD\241^d\010"
 350      5913556D 
 350      24EA9C99 
 350      A80B5644 
 350      A15E6408 
 351 08fa CE648E4A 		.ascii	"\316d\216J\200c\276v\304\363E3\374\267\251\360]\325"
 351      8063BE76 
 351      C4F34533 
 351      FCB7A9F0 
 351      5DD5
 352 090c 5D73969E 		.ascii	"]s\226\236\273wa\203<\375y\371Z\342Y\3269\337\227\315"
 352      BB776183 
 352      3CFD79F9 
 352      5AE259D6 
 352      39DF97CD 
 353 0920 6E751257 		.ascii	"nu\022W\310t~\005QX\216\231PZ\364/\226\224\3244\037"
 353      C8747E05 
 353      51588E99 
 353      505AF42F 
 353      9694D434 
 354 0935 CD5E247F 		.ascii	"\315^$\1778\035\230}\226Qy}\333\006\242\333\022\342"
 354      381D987D 
 354      9651797D 
 354      DB06A2DB 
 354      12E2
 355 0947 EAB2BD23 		.ascii	"\352\262\275#5\010\347\274$\314\274\220QG{\250\241\016"
 355      3508E7BC 
 355      24CCBC90 
ARM GAS  /tmp/ccJVc4kl.s 			page 28


 355      51477BA8 
 355      A10E
 356 0959 69E2ED88 		.ascii	"i\342\355\210\015a\225\274\025a[\376p\342\326\227\246"
 356      0D6195BC 
 356      15615BFE 
 356      70E2D697 
 356      A6
 357 096a D56B9E48 		.ascii	"\325k\236H\231[\344\263\306\230n\211\321\275l\307\310"
 357      995BE4B3 
 357      C6986E89 
 357      D1BD6CC7 
 357      C8
 358 097b 45769A22 		.ascii	"Ev\232\"D\332\261W\305\333\263\247\3147\344*\371\256"
 358      44DAB157 
 358      C5DBB3A7 
 358      CC37E42A 
 358      F9AE
 359 098d 95C9D0D8 		.ascii	"\225\311\320\330\320\215\251\021\366+\270l\367<O\336"
 359      D08DA911 
 359      F62BB86C 
 359      F73C4FDE 
 360 099d BE69A2DC 		.ascii	"\276i\242\3349\314\201\331\033\376\016#\205\027\020"
 360      39CC81D9 
 360      1BFE0E23 
 360      851710
 361 09ac 685D8F81 		.ascii	"h]\217\201.\265\275\3753\004z\021\201>\360\231C\016"
 361      2EB5BDFD 
 361      33047A11 
 361      813EF099 
 361      430E
 362 09be DE34F9E1 		.ascii	"\3364\371\341\215\223\037\336\227\274I$x\346\373-l\262"
 362      8D931FDE 
 362      97BC4924 
 362      78E6FB2D 
 362      6CB2
 363 09d0 9E1D369A 		.ascii	"\236\0356\232\257\261\324\374\234\245Mv>\232\303<\207"
 363      AFB1D4FC 
 363      9CA54D76 
 363      3E9AC33C 
 363      87
 364 09e1 4BDE33E4 		.ascii	"K\3363\344\012v\242&/\233mH\201\235\317\347\220(\327"
 364      0A76A226 
 364      2F9B6D48 
 364      819DCFE7 
 364      9028D7
 365 09f4 67BB8948 		.ascii	"g\273\211H\0120\012\371\364^\275K\263\2114\317l`\304"
 365      0A300AF9 
 365      F45EBD4B 
 365      B38934CF 
 365      6C60C4
 366 0a07 480C0FFA 		.ascii	"H\014\017\372\217\312\216\243I\"Gm$\362\212\225D\342"
 366      8FCA8EA3 
 366      4922476D 
 366      24F28A95 
 366      44E2
 367 0a19 B53B5F90 		.ascii	"\265;_\220Y\313\256\232\220jGg\235\231NR8\003]\3356"
 367      59CBAE9A 
ARM GAS  /tmp/ccJVc4kl.s 			page 29


 367      906A4767 
 367      9D994E52 
 367      38035DDD 
 368 0a2e 74D5DBF8 		.ascii	"t\325\333\370\350\336_\326\331\371(\011y\355H[j&m\244"
 368      E8DE5FD6 
 368      D9F92809 
 368      79ED485B 
 368      6A266DA4 
 369 0a42 D9451D2C 		.ascii	"\331E\035,\011\254k\370\374\347\357\312r?\201]\216>"
 369      09AC6BF8 
 369      FCE7EFCA 
 369      723F815D 
 369      8E3E
 370 0a54 F15E2FB3 		.ascii	"\361^/\263OxM>\3415Z\256\327\227\274I\236f\322hjd\365"
 370      4F784D3E 
 370      E1355AAE 
 370      D797BC49 
 370      9E66D268 
 371 0a6b 9A341DBD 		.ascii	"\2324\035\275!\301E\032\332\272\2275\015\\\211\264\275"
 371      21C1451A 
 371      DABA9735 
 371      0D5C89B4 
 371      BD
 372 0a7c C19318E3 		.ascii	"\301\223\030\343\303\024\332\216p\246)\202)\0003I'U"
 372      C314DA8E 
 372      70A62982 
 372      29003349 
 372      2755
 373 0a8e 55ADBDAC 		.ascii	"U\255\275\254U\365\216QU?b\226\310\361O :\332\263\016"
 373      55F58E51 
 373      553F6296 
 373      C8F14F20 
 373      3ADAB30E 
 374 0aa2 D71860CE 		.ascii	"\327\030`\316\233H\260\203\324\271\313\2374\024;]\255"
 374      9B48B083 
 374      D4B9CB9F 
 374      34143B5D 
 374      AD
 375 0ab3 4AE211AC 		.ascii	"J\342\021\254\372\0322\210\336\363:\252]\376.\301&x"
 375      FA1A3288 
 375      DEF33AAA 
 375      5DFE2EC1 
 375      2678
 376 0ac5 1420C774 		.ascii	"\024 \307te\204j0B\255\"#\305\336[\033+\223PjL\256;"
 376      65846A30 
 376      42AD2223 
 376      C5DE5B1B 
 376      2B93506A 
 377 0adc 6E1A4F77 		.ascii	"n\032Ow\324)\365\320\222R\252^\213\342o\302\327I`\254"
 377      D429F5D0 
 377      9252AA5E 
 377      8BE26FC2 
 377      D74960AC 
 378 0af0 60534A60 		.ascii	"`SJ`\327\363n#\330\015\274u\004\3531hE-\005r:i\226S"
 378      D7F36E23 
 378      D80DBC75 
 378      04EB3168 
ARM GAS  /tmp/ccJVc4kl.s 			page 30


 378      452D0572 
 379 0b08 2A158D46 		.ascii	"*\025\215FA\201\253\315\255\332\277\235\255\221\353"
 379      4181ABCD 
 379      ADDABF9D 
 379      AD91EB
 380 0b17 55FD592D 		.ascii	"U\375Y-Hf\2530eIC\234qe\017\217\343\306&\236,o\2342"
 380      4866AB30 
 380      6549439C 
 380      71650F8F 
 380      E3C6269E 
 381 0b2f 194D4618 		.ascii	"\031MF\030\216\271\214U\336\347SV\212\016W)+E\344[\346"
 381      8EB98C55 
 381      DEE75356 
 381      8A0E5729 
 381      2B45E45B 
 382 0b44 05DF399D 		.ascii	"\005\3379\235\266Gn\2734\001\334\226\244\374\330\327"
 382      B6476EBB 
 382      3401DC96 
 382      A4FCD8D7 
 383 0b54 6729E54D 		.ascii	"g)\345MH\371\264\336\031)7\302pL5V\331\232J\371\251"
 383      48F9B4DE 
 383      192937C2 
 383      704C3556 
 383      D99A4AF9 
 384 0b69 190AE55B 		.ascii	"\031\012\345[\035Q\276\241C\277F\244.V\223\272i\326"
 384      1D51BEA1 
 384      43BF46A4 
 384      2E5693BA 
 384      69D6
 385 0b7b 880CD6A8 		.ascii	"\210\014\326\250\307\253\2147v\340\032Q#\206\220Mf0"
 385      C7AB8C37 
 385      76E01A51 
 385      2386904D 
 385      6630
 386 0b8d 574BD572 		.ascii	"WK\325r|3\005\243g\034?w\015\226g\240l\337\002\343j"
 386      7C3305A3 
 386      671C3F77 
 386      0D9667A0 
 386      6CDF02E3 
 387 0ba2 DE174EF0 		.ascii	"\336\027N\360\322\234J\372c\207v*\011\246l\256\301\214"
 387      D29C4AFA 
 387      6387762A 
 387      09A66CAE 
 387      C18C
 388 0bb4 C41DECD0 		.ascii	"\304\035\354\320\035qZ\254\3516\015\230\325\331\035"
 388      1D715AAC 
 388      E9360D98 
 388      D5D91D
 389 0bc3 AB4B6F24 		.ascii	"\253Ko$\002\333\314\223\265\246\355<Y\021j\301|\007"
 389      02DBCC93 
 389      B5A6ED3C 
 389      59116AC1 
 389      7C07
 390 0bd5 E6AD98EF 		.ascii	"\346\255\230\357\304|\027oX\205\\\321[\365\021KS\314"
 390      C47C176F 
 390      58855CD1 
 390      5BF5114B 
ARM GAS  /tmp/ccJVc4kl.s 			page 31


 390      53CC
 391 0be7 6412727C 		.ascii	"d\022r|\221\275s<\255V\317M\372\306\266\013q/\372\306"
 391      91BD733C 
 391      AD56CF4D 
 391      FAC6B60B 
 391      712FFAC6 
 392 0bfb 1EF48DB7 		.ascii	"\036\364\215\2672\373\206\001\005\306#\254\261/\305"
 392      32FB8601 
 392      05C623AC 
 392      B12FC5
 393 0c0a 359ADB55 		.ascii	"5\232\333U\327\330\347\3005*\343\207^r\266\225h\354"
 393      D7D8E7C0 
 393      352AE387 
 393      5E72B695 
 393      68EC
 394 0c1c E2D418FB 		.ascii	"\342\324\030\373\274r\252\376S\344\342@f.\2140\034s"
 394      BC72AAFE 
 394      53E4E240 
 394      662E8C30 
 394      1C73
 395 0c2e 02AB74A6 		.ascii	"\002\253t\246\262\321\254\262\321\351\210\215\272\227"
 395      B2D1ACB2 
 395      D1E9888D 
 395      BA97
 396 0c3c 54BBEFE0 		.ascii	"T\273\357\340\223\253\330\235\351\255\313V\235\225\361"
 396      93ABD89D 
 396      E9ADCB56 
 396      9D95F1
 397 0c4b C5ED68AA 		.ascii	"\305\355h\252\024l\235k0\243\335\257n\257\035(\3277"
 397      146C9D6B 
 397      30A3DDAF 
 397      6EAF1D28 
 397      D737
 398 0c5d B1EA6CE4 		.ascii	"\261\352l\344\212\306\264\325|!S\217Q\031oh7\037[\313"
 398      8AC6B4D5 
 398      7C21538F 
 398      51196F68 
 398      371F5BCB 
 399 0c71 18CECC38 		.ascii	"\030\316\3148\023\247\013\236_`4#\347\272\215f8\346"
 399      13A70B9E 
 399      5F603423 
 399      E7BA8D66 
 399      38E6
 400 0c83 F95C36B3 		.ascii	"\371\\6\263\024\322\036\231\374x\271\272\345\217\313"
 400      14D21E99 
 400      FC78B9BA 
 400      E58FCB
 401 0c92 36B39D00 		.ascii	"6\263\235\000Z\365MV\227\336\210\004\366\020\366\000"
 401      5AF54D56 
 401      97DE8804 
 401      F610F600 
 402 0ca2 87D1D33F 		.ascii	"\207\321\323?\303\274\013\363#\230\037\327\373\276]"
 402      C3BC0BF3 
 402      23981FD7 
 402      FBBE5D
 403 0cb1 544054AF 		.ascii	"T@T\257aSs\332\327cs:\233jNn\300\214\346t\321`N0f\360"
 403      615373DA 
ARM GAS  /tmp/ccJVc4kl.s 			page 32


 403      D763733A 
 403      9B6A4E6E 
 403      C08CE674 
 404 0ccb 263C97E6 		.ascii	"&<\227\3464oA\356\236\247U\333\254\311e]\202\365K\247"
 404      346F41EE 
 404      9EA755DB 
 404      ACC9655D 
 404      82F54BA7 
 405 0cdf 947D3AA5 		.ascii	"\224}:\245\354G\245\264\243\012N`~\022\363\257\215]"
 405      EC47A5B4 
 405      A30A4E60 
 405      7E12F3AF 
 405      8D5D
 406 0cf1 F12BB9A6 		.ascii	"\361+\271\246\256\330\320\363Y\015\014z\361\310\361"
 406      AED8D0F3 
 406      590D0C7A 
 406      F1C8F1
 407 0d00 559D206B 		.ascii	"U\235 k\247\373p\307\276\215\323\036\354\014\366`Ks"
 407      A7FB70C7 
 407      BE8DD31E 
 407      EC0CF660 
 407      4B73
 408 0d12 2D7BB074 		.ascii	"-{\260t\373p\253\261\312\371\324\030\345\232\332\203"
 408      FB70ABB1 
 408      CAF9D418 
 408      E59ADA83 
 409 0d22 9DCFDC83 		.ascii	"\235\317\334\203M\237\026_\364\362\212dG<M\363\353\257"
 409      4D9F165F 
 409      F4F28A64 
 409      473C4DF3 
 409      EBAF
 410 0d34 D8344BAF 		.ascii	"\3304K\257\372\303\220M\032\035.M\324Zq\347u\212\373"
 410      FAC3904D 
 410      1A1D2E4D 
 410      D45A71E7 
 410      758AFB
 411 0d47 061577D1 		.ascii	"\006\025w\321\250\246\235f5Y\265\227f\337nc\247\032"
 411      A8A69D66 
 411      3559B597 
 411      66DF6E63 
 411      A71A
 412 0d59 93D1FF2D 		.ascii	"\223\321\377-k3\343\325\033\376q\314\0120/\035\003\357"
 412      6B33E3D5 
 412      1BFE71CC 
 412      0A302F1D 
 412      03EF
 413 0d6b EB18D882 		.ascii	"\353\030\330\202\014\304\321\332\3320?\215\371e#K\007"
 413      0CC4D1DA 
 413      DA303F8D 
 413      F965234B 
 413      07
 414 0d7c 35ED5B46 		.ascii	"5\355[F\322\270\024h\232K\221\011\320\216[\337\260\234"
 414      D2B81468 
 414      9A4B9109 
 414      D08E5BDF 
 414      B09C
 415 0d8e 001966D0 		.ascii	"\000\031f\320\251S\204ne\242b\230Z\0342\223\220Z\357"
ARM GAS  /tmp/ccJVc4kl.s 			page 33


 415      A953846E 
 415      65A26298 
 415      5A1C3293 
 415      905AEF
 416 0da1 9A690E16 		.ascii	"\232i\016\026\207\251\341w\2036U\312\262\211\004\362"
 416      87A9E177 
 416      833655CA 
 416      B28904F2 
 417 0db1 EF6C8649 		.ascii	"\357l\206I\230j\315`\225\031\216A\300\014q\357@\262"
 417      986ACD60 
 417      95198E41 
 417      C00C71EF 
 417      40B2
 418 0dc3 599FF1D8 		.ascii	"Y\237\361\330\204\300N\363\334i9\0131\024#\005gx\214"
 418      84C04EF3 
 418      DC69390B 
 418      31142305 
 418      67788C
 419 0dd6 3E12FF8B 		.ascii	">\022\377\213\230G\337f\036\337\273\273[\350\361\220"
 419      9847DF66 
 419      1EDFBBBB 
 419      5BE8F190 
 420 0de6 E31889FE 		.ascii	"\343\030\211\376\031\273PR\265g\375q\342\004\302\231"
 420      19BB5052 
 420      B567FD71 
 420      E204C299 
 421 0df6 C6D0D336 		.ascii	"\306\320\3236c(\256\012yt\276v\014\265\344\246\371<"
 421      6328AE0A 
 421      7974BE76 
 421      0CB5E4A6 
 421      F93C
 422 0e08 43F3D5CD 		.ascii	"C\363\325\3158\034\020L\216\371\332\011X\232\356\273"
 422      381C104C 
 422      8EF9DA09 
 422      589AEEBB 
 423 0e18 460FF68D 		.ascii	"F\017\366\215k\260\274\024\317\241>S\345!>\363\234\207"
 423      6BB0BC14 
 423      CFA13E53 
 423      E5213EF3 
 423      9C87
 424 0e2a F8C94CCC 		.ascii	"\370\311L\314\177\207\371\357=\006\237\271\232\022I"
 424      7F87F9EF 
 424      3D069FB9 
 424      9A1249
 425 0e39 5085EAF0 		.ascii	"P\205\352\360\222zg2#Z\313\337\244\250J\033\376\010"
 425      927A6732 
 425      235ACBDF 
 425      A4A84A1B 
 425      FE08
 426 0e4b 7EB5C710 		.ascii	"~\265\307\020\310$!G\031\331\3279\011\255d]L`\347xT"
 426      C8242147 
 426      19D9D739 
 426      09AD645D 
 426      4C60E778 
 427 0e60 3F3DAE3F 		.ascii	"?=\256?X\246{\344\230\347\372\230\3346\005\245\306\303"
 427      58A67BE4 
 427      98E7FA98 
ARM GAS  /tmp/ccJVc4kl.s 			page 34


 427      DC3605A5 
 427      C6C3
 428 0e72 313F6416 		.ascii	"1?d\026\365\251\223\351\233\373\2315\362\3148\330\277"
 428      F5A993E9 
 428      9BFB9935 
 428      F2CC38D8 
 428      BF
 429 0e83 0CF09A5E 		.ascii	"\014\360\232^\377\213\271\"/\224\301\241\343w\361\224"
 429      FF8BB922 
 429      2F94C1A1 
 429      E377F194 
 430 0e93 2AE2E27B 		.ascii	"*\342\342{\366\304\367m'\275%\370\370\265D\202\245\002"
 430      F6C4F76D 
 430      27BD25F8 
 430      F8B54482 
 430      A502
 431 0ea5 E09835E6 		.ascii	"\340\2305\346VS}n\201\207\32357\212\326\244J\240m\305"
 431      56537D6E 
 431      8187D335 
 431      378AD6A4 
 431      4AA06DC5 
 432 0eb9 F76F679D 		.ascii	"\367og\235l\252\316\324\3761n\260\002\375\212\307\355"
 432      6CAACED4 
 432      FE316EB0 
 432      02FD8AC7 
 432      ED
 433 0eca 424BADC7 		.ascii	"BK\255\307z\241E5A\273z/'U\372C&\016\"\\8*\331<\265"
 433      7AA14535 
 433      41BB7A2F 
 433      2755FA43 
 433      260E225C 
 434 0ee3 25C2CC4C 		.ascii	"%\302\314L9\336\236M\035A\333B\2436F\360\250\003SkS"
 434      39DE9E4D 
 434      1D41DB42 
 434      A33646F0 
 434      A803536B 
 435 0ef8 4A1FD44A 		.ascii	"J\037\324J\3537\237\024*\250(Uk\262\221\312\010\225"
 435      EB379F14 
 435      2AA82855 
 435      6BB291CA 
 435      0895
 436 0f0a D46C8596 		.ascii	"\324l\205\226z\327BYb#\224,\205\034\223\351'\322\364"
 436      7AD74259 
 436      6223942C 
 436      851C93E9 
 436      27D2F4
 437 0f1d 514B3DD6 		.ascii	"QK=\326\233\317\006\222Sj-\263\255u9M[\257y\314\333"
 437      9BCF0692 
 437      536A2DB3 
 437      AD75394D 
 437      5BAF79CC 
 438 0f32 B7F3CF9C 		.ascii	"\267\363\317\234\373\217\267\032\310(t-\361l\305tV\335"
 438      FB8FB71A 
 438      C828742D 
 438      F16CC574 
 438      56DD
 439 0f44 35AAECEB 		.ascii	"5\252\354\353d\373o\271\307\264\375\267\302c\261\273"
ARM GAS  /tmp/ccJVc4kl.s 			page 35


 439      64FB6FB9 
 439      C7B4FDB7 
 439      C263B1BB 
 440 0f54 D8F55DC7 		.ascii	"\330\365]\307E/9xFv\314\006\253-\274\340\250\205\225"
 440      452F3978 
 440      4676CC06 
 440      AB2DBCE0 
 440      A88595
 441 0f67 E6165EB7 		.ascii	"\346\026^\267l\341\320\371\023\003/'\331\320\032i14"
 441      6CE1D0F9 
 441      13032F27 
 441      D9D01A69 
 441      3134
 442 0f79 822BBB1C 		.ascii	"\202+\273\034\323\336\227M\327\344\233\346&\337\262"
 442      D3DE974D 
 442      D7E49BE6 
 442      26DFB2
 443 0f88 6C72FE99 		.ascii	"lr\376\231\275%V\222;\352\210\257U\346FV[Kn\301\265"
 443      BD255692 
 443      3BEA88AF 
 443      55E64656 
 443      5B4B6EC1 
 444 0f9d 54C99D   		.ascii	"T\311\235"
 445 0fa0 75D4C21A 		.ascii	"u\324\302\032s\013km$\267w\001\273@\335\277\257\237"
 445      730B6B6D 
 445      24B77701 
 445      BB40DDBF 
 445      AF9F
 446 0fb2 A96D005F 		.ascii	"\251m\000_M\025\235\300\276\223\304\260js\275\271\315"
 446      4D159DC0 
 446      BE93C4B0 
 446      6A73BDB9 
 446      CD
 447 0fc3 0DC6364D 		.ascii	"\015\3066M\246\352\265\267\357MIKE\257\234\226vkB`7"
 447      A6EAB5B7 
 447      EF4D494B 
 447      45AF9C96 
 447      766B4260 
 448 0fd8 E349A5CC 		.ascii	"\343I\245\314G\017\255b\236,\025\352iF\013\245\326\\"
 448      470FAD62 
 448      9E2C15EA 
 448      69460BA5 
 448      D65C
 449 0fea 3917A6E7 		.ascii	"9\027\246\347\0367c\257\275\371\206\314+\270\006\034"
 449      1E3763AF 
 449      BDF986CC 
 449      2BB8061C 
 450 0ffa 42D41673 		.ascii	"B\324\026s\3544"
 450      EC34
 451 1000 B733976C 		.ascii	"\2673\227lon\311\034=\301\334b~\247zl\354=\017\231\310"
 451      6F6EC91C 
 451      3DC1DC62 
 451      7EA77A6C 
 451      EC3D0F99 
 452 1015 B520095B 		.ascii	"\265 \011[z\026>\001\336K\235\030rP\260]\256\301\362"
 452      7A163E01 
 452      DE4B9D18 
ARM GAS  /tmp/ccJVc4kl.s 			page 36


 452      7250B05D 
 452      AEC1F2
 453 1028 0C600BF5 		.ascii	"\014`\013\365`{\234\200\331\005C\000\366\262\036l\277"
 453      607B9C80 
 453      D9054300 
 453      F6B21E6C 
 453      BF
 454 1039 6B302365 		.ascii	"k0#e\265z\260\203N\300\354VR\001l\261\036\354\220k0"
 454      B57AB083 
 454      4EC0EC56 
 454      52016CB1 
 454      1EEC906B 
 455 104e 2365ABF4 		.ascii	"#e\253\364`\237;\001\263\373/H\000k\320\203\035w\015"
 455      609F3B01 
 455      B3FB2F48 
 455      006BD083 
 455      1D770D
 456 1061 66A46CAD 		.ascii	"f\244l\255\036\354\224\023\260<{\312\326\353\301\316"
 456      1EEC9413 
 456      B03C7BCA 
 456      D6EBC1CE 
 457 1071 BB063352 		.ascii	"\273\0063R\326\250\007\373\326\011\230\335\354\025\300"
 457      D6A807FB 
 457      D60998DD 
 457      EC15C0
 458 1080 36E9C1AE 		.ascii	"6\351\301\256\270\0063R\266Y\017v\315\011\330P;\312"
 458      B8063352 
 458      B6590F76 
 458      CD09D850 
 458      3BCA
 459 1092 2AE21FFC 		.ascii	"*\342\037\374k\265\240\237\203\022T\233\360\320P\214"
 459      6BB5A09F 
 459      8312549B 
 459      F0D0508C 
 460 10a2 B52D26B0 		.ascii	"\265-&\260\207\\G5\207m\242\032\375Q\204d)\022%\364"
 460      875C4735 
 460      876DA21A 
 460      FD518464 
 460      291225F4 
 461 10b6 33B16DA4 		.ascii	"3\261m\244\302\212o\243\020\367\350\205XeF\263\022\342"
 461      C28A6FA3 
 461      10F7E885 
 461      586546B3 
 461      12E2
 462 10c8 287BB04F 		.ascii	"({\260O\364`\277s\002\366\250\275\255\374Q\017\366\242"
 462      F460BF73 
 462      02F6A8BD 
 462      ADFC510F 
 462      F6A2
 463 10da 6B302365 		.ascii	"k0#e\355z\260yN\300\236\264\247\354S=\330\002\327`z"
 463      ED7AB079 
 463      4EC09EB4 
 463      A7EC533D 
 463      D802D760 
 464 10ef CA2AE207 		.ascii	"\312*\342\007\223\206G'U:\313K7\367\322Y^\312\254\351"
 464      93864727 
 464      553ACB4B 
ARM GAS  /tmp/ccJVc4kl.s 			page 37


 464      37F7D259 
 464      5ECAACE9 
 465 1103 CF0EE65E 		.ascii	"\317\016\346^uf\272\015(\312\355X\013!X]\372\221V`\343"
 465      7566BA0D 
 465      28CAED58 
 465      0B21585D 
 465      FA915660 
 466 1118 38076EC2 		.ascii	"8\007n\302Y\352G\230o\303|;\346;0\337\211\371\307\230"
 466      59EA4798 
 466      6FC37C3B 
 466      E63B30DF 
 466      89F9C798 
 467 112c B761BE17 		.ascii	"\267a\276\027\363}\230\357\307\274\003\363\003\230w"
 467      F37D98EF 
 467      C7BC03F3 
 467      039877
 468 113b 62DE85F9 		.ascii	"b\336\205\371\021\314\217b\376%\346_a~R?#6E:\233\323"
 468      11CC8F62 
 468      FE25E65F 
 468      617E523F 
 468      2336453A 
 469 1151 CC7D4FDB 		.ascii	"\314}O\333\206\362\344L\225]\2553\266\265\346\245\251"
 469      86F2E44C 
 469      955DAD33 
 469      B6B5E6A5 
 469      A9
 470 1162 75D6B656 		.ascii	"u\326\266V]\232Z\347R\246\015\363\226\035\371\205\026"
 470      5D9A5AE7 
 470      52A60DF3 
 470      961DF985 
 470      16
 471 1173 979A4EA0 		.ascii	"\227\232N\240\220%i;\244\013\236\324\203\214M\375,\303"
 471      9025693B 
 471      A40B9ED4 
 471      838C4DFD 
 471      2CC3
 472 1185 D94A79D5 		.ascii	"\331Jy\325J\331\253\236\354\021\330\363\036\355\244"
 472      4AD9AB9E 
 472      EC11D8F3 
 472      1EEDA4
 473 1194 A8E9002C 		.ascii	"\250\351\000,~\376\3062\272\375tE\353\355\272\370\231"
 473      7EFEC632 
 473      BAFD7445 
 473      EBEDBAF8 
 473      99
 474 11a5 34CF31D3 		.ascii	"4\3171\323\373;j\360\333\364\015^\262l\360\354\033\007"
 474      FB3B6AF0 
 474      DBF40D5E 
 474      B26CF0EC 
 474      1B07
 475 11b7 EF4E6970 		.ascii	"\357Nip\227\263\006/\247o\360J\332Xz-\337\337V\352W"
 475      97B3062F 
 475      A76FF04A 
 475      DA587A2D 
 475      DFDF56EA 
 476 11cc 6DB5BEC9 		.ascii	"m\265\276\311f%\030\227:mk-Mc+\327lku\247\2410a[\353"
 476      66251897 
ARM GAS  /tmp/ccJVc4kl.s 			page 38


 476      3A6D6B2D 
 476      4D632BD7 
 476      6C6B75A7 
 477 11e5 7C9AE9AC 		.ascii	"|\232\351\254\3545\333e\367\262\246\307\337MN\312\036"
 477      EC35DB65 
 477      F7B2A6C7 
 477      DF4D4ECA 
 477      1E
 478 11f6 34996663 		.ascii	"4\231fc\232\031u\2457\3254?\263S\\\303Jr\216\231\036"
 478      9A1975A5 
 478      37D5343F 
 478      B3535CC3 
 478      4A728E99 
 479 120b 5512D80A 		.ascii	"U\022\330\012\257\365!f\005o\232\327\352\034p\307'\265"
 479      AFF52166 
 479      056F9AD7 
 479      EA1C70C7 
 479      27B5
 480 121d CAF1E42D 		.ascii	"\312\361\344-\362\340\034\027\247\270\252,\010=\227"
 480      F2E01C17 
 480      A7B8AA2C 
 480      083D97
 481 122c 9E50FA8F 		.ascii	"\236P\372\217\021\002;#=\241\317\031\011e\356\0302$"
 481      11023B23 
 481      3DA1CF19 
 481      0965EE18 
 481      3224
 482 123e 9FFE4562 		.ascii	"\237\376Eb\371Q)?\030\016\204\312\213\305\374@IljL\232"
 482      F951293F 
 482      180E84CA 
 482      8BC5FC40 
 482      496C6A4C 
 483 1253 5A26C686 		.ascii	"Z&\306\206\22409RIT\024\212\375R\326#O<\225W\300\370"
 483      94303952 
 483      4954148A 
 483      FD52D623 
 483      4F3C9557 
 484 1269 02257EFA 		.ascii	"\002%~\372*\317\276z\240\244\030\252\336@\313\305\374"
 484      2ACFBE7A 
 484      A0A418AA 
 484      DE40CBC5 
 484      FC
 485 127a 13CBC572 		.ascii	"\023\313\305r\321/\365\323\252*\257<aq\212\344)\213"
 485      D12FF5D3 
 485      AA2AAF3C 
 485      61718AE4 
 485      298B
 486 128c 8A93BCF8 		.ascii	"\212\223\274\370<B\217\030\210\224\226F\302\371e\221"
 486      3C428F18 
 486      88949646 
 486      C2F96591 
 487 129c A814CB7F 		.ascii	"\250\024\313\177\260pt\301\350)\344]Y0$Fc\371\217\024"
 487      B07074C1 
 487      E829E45D 
 487      59302446 
 487      63F98F14 
 488 12b0 1440432A 		.ascii	"\024@C*\221\331RY4\030\361K\267\347\227\307\242\032"
ARM GAS  /tmp/ccJVc4kl.s 			page 39


 488      91D95259 
 488      3418F14B 
 488      B7E797C7 
 488      A21A
 489 12c2 21617172 		.ascii	"!aqr(8.?&\025\007\303\022a\245\034~\207\337\347\227"
 489      28382E3F 
 489      261507C3 
 489      1261A51C 
 489      7E87DFE7 
 490 12d7 EEB52A56 		.ascii	"\356\265*V*\004J\202a1\337_,\216\027\312C\222_\005\357"
 490      2A044A82 
 490      6131DF5F 
 490      2C8E17CA 
 490      43925F05 
 491 12ec E5F7AB15 		.ascii	"\345\367\253\025=\244\231\\B\222?\020\011K@\375\335"
 491      3DA4995C 
 491      42923F10 
 491      094B40FD 
 491      DD
 492 12fd 19492E09 		.ascii	"\031I.\011D\242\"\300\364\306j\000\024\220\246\334\353"
 492      44A222C0 
 492      F4C66A00 
 492      1490A6DC 
 492      EB
 493 130e AC967FD2 		.ascii	"\254\226\177\322\003\245\204\356\2508A\210\226\372%"
 493      03A584EE 
 493      A8384188 
 493      96FA25
 494 131d 2E3A828B 		.ascii	".:\202\213\376\214\217\016\033\012i\030\027\275\237"
 494      FE8C8F0E 
 494      1B0A6918 
 494      17BD9F
 495 132c 8BFE3D17 		.ascii	"\213\376=\027}\200\213\376\224\013E\271X\031\017\320"
 495      7D808BFE 
 495      940B45B9 
 495      58190FD0 
 496 133c 5E60478C 		.ascii	"^`G\214z#\241b1\352\011\224\010QOX(\025{\305\244g\204"
 496      7A23A162 
 496      31EA0994 
 496      08514F58 
 496      28157BC5 
 497 1353 507042D8 		.ascii	"PpB\330/\241\024\036\270\337/)|\221\333\254\311\302"
 497      2FA1141E 
 497      B8DF2F29 
 497      7C91DBAC 
 497      C9C2
 498 1365 382126E6 		.ascii	"8!&\346H1I\220@S\331\344\303\010\277\344\243E\340\316"
 498      48314990 
 498      4053D9E4 
 498      C308BFE4 
 498      A345E0CE 
 499 1379 8B5FB2A5 		.ascii	"\213_\262\245\322H1|\367\216\017\011\023b\331RT\034"
 499      D248317C 
 499      F78E0F09 
 499      1362D952 
 499      541C
 500 138b 1F03A990 		.ascii	"\037\003\251\220\037oil\002TT\004\005\025\225\273\254"
ARM GAS  /tmp/ccJVc4kl.s 			page 40


 500      1F6F696C 
 500      02545404 
 500      051595BB 
 500      AC
 501 139c 68F154F8 		.ascii	"h\361T\370\224#N\011J\001\250\2345Y\212\214\373M\231"
 501      94234E09 
 501      4A01A89C 
 501      35598A8C 
 501      FB4D99
 502 13af 77B22445 		.ascii	"w\262$E\313\262cbX\202\257\271`\0311\261T(+\001\256"
 502      CBB26362 
 502      5882AFB9 
 502      601931B1 
 502      54282B01 
 503 13c4 07D9DB95 		.ascii	"\007\331\333\225H\304\341\015\204A9<\344\200\005\257"
 503      48C4E10D 
 503      8441393C 
 503      E48005AF 
 504 13d4 CA72A076 		.ascii	"\312r\240vi9h\303\276f\2514\205\324\214L\016\213\321"
 504      693968C3 
 504      BE66A934 
 504      85D48C4C 
 504      0E8BD1
 505 13e7 6C2C4B98 		.ascii	"l,K\230\226\340uYoq\022!B\210=\003\257\304\311\344\206"
 505      96E07559 
 505      6F711221 
 505      42883D03 
 505      AFC4C9E4 
 506 13fc 2DEFABDA 		.ascii	"-\357\253\332i(\030\203\306n\320Y.y\223=Y\010J\301\360"
 506      69281883 
 506      C66ED059 
 506      2E79933D 
 506      59084AC1 
 507 1411 841CA01D 		.ascii	"\204\034\240\035-7G,\023\303`f\023\262\001\222\224\000"
 507      2D37472C 
 507      13C36066 
 507      13B20192 
 507      9400
 508 1423 9D092162 		.ascii	"\235\011!b-\336\322\262H$4@\361\"\220\224\030\025\303"
 508      2DDED2B2 
 508      48243440 
 508      F1229094 
 508      1815C3
 509 1436 0190E130 		.ascii	"\001\220\3410\215XI\214I\204\334X\244<\032\020\351#"
 509      8D58498C 
 509      4984DC58 
 509      A43C1A10 
 509      E923
 510 1448 C9402400 		.ascii	"\311@$\000N\012\017\035:|H\000\254\034A\206\261e\003"
 510      4E0A0F1D 
 510      3A7C4800 
 510      AC1C4186 
 510      B16503
 511 145b F033BC85 		.ascii	"\3603\274\2054\014\212I\345e\267\032^\211S\304\000p"
 511      340C8A49 
 511      E565B71A 
 511      5E8953C4 
ARM GAS  /tmp/ccJVc4kl.s 			page 41


 511      0070
 512 146d 39A44C88 		.ascii	"9\244L\210JC\206\336d\365\3556c\373\304\005\010\227"
 512      4A4386DE 
 512      64F5ED36 
 512      63FBC405 
 512      0897
 513 147f 708FAE4B 		.ascii	"p\217\256Kj\210\245A`>\362\214\030\006\327-\012\224"
 513      6A88A541 
 513      603EF28C 
 513      1806D72D 
 513      0A94
 514 1491 148AE0D9 		.ascii	"\024\212\340\331bqyH,\372\261\255\250\0259\001\010h"
 514      62717948 
 514      2CFAB1AD 
 514      A8153901 
 514      0868
 515 14a3 754C4931 		.ascii	"uLI1T*/\025\037\273;3\273\321H\204\264\335\037\037\210"
 515      542A2F15 
 515      1FBB3B33 
 515      BBD14884 
 515      B4DD1F1F 
 516 14b8 845599FB 		.ascii	"\204U\231\373H\177\024,\025\025\343\035\366\200f\274"
 516      487F142C 
 516      1515E31D 
 516      F68066BC 
 517 14c8 E4F6266C 		.ascii	"\344\366&l\246\250<FT0\006\212E\312\245\"\257\377\327"
 517      A6A83C46 
 517      5430068A 
 517      45CAA522 
 517      AFFFD7
 518 14db 20F681C8 		.ascii	" \366\201\310\217_\210\305D\360=\204\230\034\014\027"
 518      8F5F88C5 
 518      44F03D84 
 518      981C0C17 
 519 14eb 4726E7EA 		.ascii	"G&\347\352?\014\305\356\200\010`B \220\017\236vo8\022"
 519      3F0CC5EE 
 519      80086042 
 519      20900F9E 
 519      766F3812 
 520 14ff 16EF1585 		.ascii	"\026\357\025\205q\301\374\373\207\214\320x\203\216\004"
 520      71C1FCFB 
 520      878CD078 
 520      838E04
 521 150e FA06A030 		.ascii	"\372\006\2400+\026\374O\342%\322\370\362p\300/\365G"
 521      2B16FC4F 
 521      E225D2F8 
 521      F270C02F 
 521      F547
 522 1520 020A8054 		.ascii	"\002\012\200TI,\0027\011\006x):\314GU(\211e\334d\241"
 522      492C0237 
 522      09067829 
 522      3ACC4755 
 522      288965DC 
 523 1536 37317060 		.ascii	"71p`B\004/\366i\367\271\204\273\251\212\215\365\201"
 523      42042FF6 
 523      69F7B984 
 523      BBA98A8D 
ARM GAS  /tmp/ccJVc4kl.s 			page 42


 523      F581
 524 1548 D7C9E7EC 		.ascii	"\327\311\347\354@y\024\014E\362F\311\323\315\223\202"
 524      4079140C 
 524      45F246C9 
 524      D3CD9382 
 525 1558 51A95C08 		.ascii	"Q\251\\\010!\013Q\325*o\201\032\026\037n0\274\243\335"
 525      210B51D5 
 525      2A6F811A 
 525      161F6E30 
 525      BCA3DD
 526 156b AEE195B7 		.ascii	"\256\341\225\267X\014IB\316$\205|\017\371\341\301Rr"
 526      580C4942 
 526      CE24857C 
 526      0FF9E1C1 
 526      5272
 527 157d 42424C22 		.ascii	"BBL\"%\262&I\004\250\257Bq\2618\256|\002u\002\375\033"
 527      25B22649 
 527      04A8AF42 
 527      71B138AE 
 527      7C027502 
 528 1593 5F99100E 		.ascii	"_\231\020\016\006\374\340\002|\361\270\011\275J\005"
 528      06FCE002 
 528      7CF1B809 
 528      BD4A05
 529 15a2 D007EA8B 		.ascii	"\320\007\352\213\013\224(\246\032\363\242m\346H\242"
 529      0B9428A6 
 529      1AF3A26D 
 529      E648A2
 530 15b1 1005A987 		.ascii	"\020\005\251\207\263\025\333\353Ed\023\200\036\007\204"
 530      B315DBEB 
 530      45641380 
 530      1E0784
 531 15c0 9762E93F 		.ascii	"\227b\351?\030\022\215\024\013\2220$\345K\256\336\216"
 531      18128D14 
 531      0B923024 
 531      E54BAEDE 
 531      8E
 532 15d1 072B1ACF 		.ascii	"\007+\032\317\023 Q#\313#\234H\301H\030\272:i*\223\246"
 532      13205123 
 532      CB239C48 
 532      C14818BA 
 532      3A692A93 
 533 15e6 23994AEC 		.ascii	"#\231J\354\023\024Q45\366x$\360\214\017\373\346\020"
 533      13145134 
 533      35F67824 
 533      F08C0FFB 
 533      E610
 534 15f8 DC0DB3E8 		.ascii	"\334\015\263\350\231\241\233\317/\030]\364XQ\022\241"
 534      99A19BCF 
 534      2F185DF4 
 534      585112A1 
 535 1608 34168CF9 		.ascii	"4\026\214\371\301Z\000\245\217\337_\034\214\011\343"
 535      C15A00A5 
 535      8FDF5F1C 
 535      8C09E3
 536 1617 42A23F18 		.ascii	"B\242?\030\235\330G\010M\026\246\306\240\367\013\301"
 536      9DD84708 
ARM GAS  /tmp/ccJVc4kl.s 			page 43


 536      4D16A6C6 
 536      A0F70BC1 
 537 1627 60D21B5B 		.ascii	"`\322\033[x*L\220i\377_\216\367\271~\277\030V\253\334"
 537      782A4C90 
 537      69FF5F8E 
 537      F7B97EBF 
 537      1856ABDC 
 538 163b A76FB244 		.ascii	"\247o\262D\010)#A\321\230\321\303\357\313\177\374\361"
 538      08292341 
 538      D198D1C3 
 538      EFCB7FFC 
 538      F1
 539 164c 87F2C73C 		.ascii	"\207\362\307<6z\3220\260\276R\322\237\006I\027\330["
 539      367AD230 
 539      B0BE52D2 
 539      9F064917 
 539      D85B
 540 165e 7B808EB0 		.ascii	"{\200\216\260\240p\030\244\373<E\243\013\012=\017=\366"
 540      A07018A4 
 540      FB3C45A3 
 540      0B0A3D0F 
 540      3DF6
 541 1670 70215754 		.ascii	"p!WT\310?\374H\241\267\240`t\3410\314\357\363\024\024"
 541      C83FFC48 
 541      A1B7A060 
 541      74E130CC 
 541      EFF31414 
 542 1684 3C5CC817 		.ascii	"<\\\310\027<1\206\177\262\250\200\177\260\260\220/,"
 542      3C31867F 
 542      B2A8807F 
 542      B0B0902F 
 542      2C
 543 1695 8067A8F0 		.ascii	"\200g\250\360\353\207\306\024\362\017\221\232\243\037"
 543      EB87C614 
 543      F20F919A 
 543      A31F
 544 16a3 2CE4FE91 		.ascii	",\344\376\221\326\032\016\345\307\026\376\320V~\223"
 544      D61A0EE5 
 544      C716FED0 
 544      567E93
 545 16b2 889F0E08 		.ascii	"\210\237\016\010\224\374\323\230GD\251\010m\2028\336"
 545      94FCD398 
 545      4744A908 
 545      6D8238DE 
 546 16c2 D87C87E3 		.ascii	"\330|\207\343\032\232!@\334\2102\241v:A\244w\303\235"
 546      1A9A2140 
 546      DC8832A1 
 546      763A41A4 
 546      77C39D
 547 16d5 8903BE80 		.ascii	"\211\003\276\200s\371C!\022i\014\240w\210\021\210\224"
 547      73F94321 
 547      12690CA0 
 547      77881188 
 547      94
 548 16e6 C3C81CA5 		.ascii	"\303\310\034\245N\011\344=\011\235p\024\314al\037\365"
 548      4E09E43D 
 548      099D7014 
ARM GAS  /tmp/ccJVc4kl.s 			page 44


 548      CC616C1F 
 548      F5
 549 16f7 4D91181A 		.ascii	"M\221\030\032?\366\177\001\013\376\306\214"
 549      3FF67F01 
 549      0BFEC68C 
 550              		.text
 551              		.section	.gnu.lto_.symtab.60e6e4646cf2006e,"",%progbits
 552 0000 74657374 		.ascii	"test_sequence_003\000\000\000\000\000\000\000\000\000"
 552      5F736571 
 552      75656E63 
 552      655F3030 
 552      33000000 
 553 001a 000000FF 		.ascii	"\000\000\000\377\001\000\000test_step\000\000\002\000"
 553      01000074 
 553      6573745F 
 553      73746570 
 553      00000200 
 554 002e 00000000 		.ascii	"\000\000\000\000\000\000\000\000\261\001\000\000wa\000"
 554      00000000 
 554      B1010000 
 554      776100
 555 003d 00020000 		.ascii	"\000\002\000\000\000\000\000\000\000\000\000\263\001"
 555      00000000 
 555      000000B3 
 555      01
 556 004a 00006368 		.ascii	"\000\000ch\000\000\002\000\000\000\000\000\000\000\000"
 556      00000200 
 556      00000000 
 556      000000
 557 0059 00B90100 		.ascii	"\000\271\001\000\000threads\000\000\002\000\000\000"
 557      00746872 
 557      65616473 
 557      00000200 
 557      0000
 558 006b 00000000 		.ascii	"\000\000\000\000\000\000\374\001\000\000test_emit_t"
 558      0000FC01 
 558      00007465 
 558      73745F65 
 558      6D69745F 
 559 0080 6F6B656E 		.ascii	"oken\000\000\002\000\000\000\000\000\000\000\000\000"
 559      00000200 
 559      00000000 
 559      00000000 
 560 0090 78010000 		.ascii	"x\001\000\000chSchRescheduleS\000\000\002\000\000\000"
 560      63685363 
 560      68526573 
 560      63686564 
 560      756C6553 
 561 00aa 00000000 		.ascii	"\000\000\000\000\000\000|\001\000\000chThdResumeI\000"
 561      00007C01 
 561      00006368 
 561      54686452 
 561      6573756D 
 562 00c1 00020000 		.ascii	"\000\002\000\000\000\000\000\000\000\000\000~\001\000"
 562      00000000 
 562      0000007E 
 562      0100
ARM GAS  /tmp/ccJVc4kl.s 			page 45


 563 00cf 00746573 		.ascii	"\000test_wait_threads\000\000\002\000\000\000\000\000"
 563      745F7761 
 563      69745F74 
 563      68726561 
 563      64730000 
 564 00e9 00000000 		.ascii	"\000\000\000\000\203\001\000\000chThdSuspendTimeout"
 564      83010000 
 564      63685468 
 564      64537573 
 564      70656E64 
 565 0104 53000002 		.ascii	"S\000\000\002\000\000\000\000\000\000\000\000\000\205"
 565      00000000 
 565      00000000 
 565      0085
 566 0112 0100005F 		.ascii	"\001\000\000_test_assert_time_window\000\000\002\000"
 566      74657374 
 566      5F617373 
 566      6572745F 
 566      74696D65 
 567 0131 00000000 		.ascii	"\000\000\000\000\000\000\000\000\223\001\000\000_te"
 567      00000000 
 567      93010000 
 567      5F7465
 568 0140 73745F61 		.ascii	"st_assert\000\000\002\000\000\000\000\000\000\000\000"
 568      73736572 
 568      74000002 
 568      00000000 
 568      00000000 
 569 0154 009C0100 		.ascii	"\000\234\001\000\000chThdCreateStatic\000\000\002\000"
 569      00636854 
 569      68644372 
 569      65617465 
 569      53746174 
 570 016e 00000000 		.ascii	"\000\000\000\000\000\000\000\000\241\001\000\000"
 570      00000000 
 570      A1010000 
 571              		.text
 572              		.section	.gnu.lto_.opts,"",%progbits
 573 0000 272D6D63 		.ascii	"'-mcpu=cortex-m0' '-mno-thumb-interwork' '-mthumb' "
 573      70753D63 
 573      6F727465 
 573      782D6D30 
 573      2720272D 
 574 0033 272D6767 		.ascii	"'-ggdb' '-O2' '-fomit-frame-pointer' '-falign-funct"
 574      64622720 
 574      272D4F32 
 574      2720272D 
 574      666F6D69 
 575 0066 696F6E73 		.ascii	"ions=16' '-ffunction-sections' '-fdata-sections' '-"
 575      3D313627 
 575      20272D66 
 575      66756E63 
 575      74696F6E 
 576 0099 666E6F2D 		.ascii	"fno-common' '-flto'\000"
 576      636F6D6D 
 576      6F6E2720 
 576      272D666C 
ARM GAS  /tmp/ccJVc4kl.s 			page 46


 576      746F2700 
 577              		.text
 578              		.cfi_sections	.debug_frame
 579              		.section	.text.test_003_001_setup,"ax",%progbits
 580              		.align	2
 581              		.p2align 4,,15
 582              		.code	16
 583              		.thumb_func
 584              		.type	test_003_001_setup, %function
 585              	test_003_001_setup:
 586              	.LFB180:
 587              		.file 1 "../../../test/rt/source/test/test_sequence_003.c"
 588              		.loc 1 74 0
 589              		.cfi_startproc
 590              		.loc 1 75 0
 591 0000 014B     		ldr	r3, .L2
 592 0002 0022     		mov	r2, #0
 593 0004 1A60     		str	r2, [r3]
 594              		.loc 1 76 0
 595              		@ sp needed
 596 0006 7047     		bx	lr
 597              	.L3:
 598              		.align	2
 599              	.L2:
 600 0008 00000000 		.word	.LANCHOR0
 601              		.cfi_endproc
 602              	.LFE180:
 603              		.size	test_003_001_setup, .-test_003_001_setup
 604 000c C046C046 		.section	.text.thread1,"ax",%progbits
 605              		.align	2
 606              		.p2align 4,,15
 607              		.code	16
 608              		.thumb_func
 609              		.type	thread1, %function
 610              	thread1:
 611              	.LFB179:
 612              		.loc 1 44 0
 613              		.cfi_startproc
 614              	.LVL0:
 615 0000 10B5     		push	{r4, lr}
 616              		.cfi_def_cfa_offset 8
 617              		.cfi_offset 4, -8
 618              		.cfi_offset 14, -4
 619              		.loc 1 44 0
 620 0002 041C     		mov	r4, r0
 621              	.LBB87:
 622              	.LBB88:
 623              	.LBB89:
 624              	.LBB90:
 625              		.file 2 "../../../os/common/ext/CMSIS/include/cmsis_gcc.h"
 626              		.loc 2 71 0
 627              	@ 71 "../../../os/common/ext/CMSIS/include/cmsis_gcc.h" 1
 628 0004 72B6     		cpsid i
 629              	@ 0 "" 2
 630              		.code	16
 631              	.LBE90:
 632              	.LBE89:
ARM GAS  /tmp/ccJVc4kl.s 			page 47


 633              	.LBE88:
 634              	.LBE87:
 635              		.loc 1 47 0
 636 0006 0548     		ldr	r0, .L5
 637              	.LVL1:
 638 0008 0021     		mov	r1, #0
 639 000a FFF7FEFF 		bl	chThdResumeI
 640              	.LVL2:
 641              		.loc 1 48 0
 642 000e FFF7FEFF 		bl	chSchRescheduleS
 643              	.LVL3:
 644              	.LBB91:
 645              	.LBB92:
 646              	.LBB93:
 647              	.LBB94:
 648              	.LBB95:
 649              		.loc 2 60 0
 650              	@ 60 "../../../os/common/ext/CMSIS/include/cmsis_gcc.h" 1
 651 0012 62B6     		cpsie i
 652              	@ 0 "" 2
 653              		.code	16
 654              	.LBE95:
 655              	.LBE94:
 656              	.LBE93:
 657              	.LBE92:
 658              	.LBE91:
 659              		.loc 1 50 0
 660 0014 2078     		ldrb	r0, [r4]
 661 0016 FFF7FEFF 		bl	test_emit_token
 662              	.LVL4:
 663              		.loc 1 51 0
 664              		@ sp needed
 665              	.LVL5:
 666 001a 10BD     		pop	{r4, pc}
 667              	.L6:
 668              		.align	2
 669              	.L5:
 670 001c 00000000 		.word	.LANCHOR0
 671              		.cfi_endproc
 672              	.LFE179:
 673              		.size	thread1, .-thread1
 674              		.section	.text.test_003_001_execute,"ax",%progbits
 675              		.align	2
 676              		.p2align 4,,15
 677              		.code	16
 678              		.thumb_func
 679              		.type	test_003_001_execute, %function
 680              	test_003_001_execute:
 681              	.LFB181:
 682              		.loc 1 78 0
 683              		.cfi_startproc
 684 0000 F0B5     		push	{r4, r5, r6, r7, lr}
 685              		.cfi_def_cfa_offset 20
 686              		.cfi_offset 4, -20
 687              		.cfi_offset 5, -16
 688              		.cfi_offset 6, -12
 689              		.cfi_offset 7, -8
ARM GAS  /tmp/ccJVc4kl.s 			page 48


 690              		.cfi_offset 14, -4
 691              		.loc 1 85 0
 692 0002 304D     		ldr	r5, .L13
 693              		.loc 1 78 0
 694 0004 4746     		mov	r7, r8
 695              		.loc 1 85 0
 696 0006 0123     		mov	r3, #1
 697              		.loc 1 78 0
 698 0008 80B4     		push	{r7}
 699              		.cfi_def_cfa_offset 24
 700              		.cfi_offset 8, -24
 701              		.loc 1 85 0
 702 000a 2B60     		str	r3, [r5]
 703              	.LBB137:
 704              	.LBB138:
 705              	.LBB139:
 706              	.LBB140:
 707              		.file 3 "../../../os/rt/include/chthreads.h"
 708              		.loc 3 277 0
 709 000c 2E4B     		ldr	r3, .L13+4
 710              	.LBE140:
 711              	.LBE139:
 712              	.LBE138:
 713              	.LBE137:
 714              		.loc 1 78 0
 715 000e 82B0     		sub	sp, sp, #8
 716              		.cfi_def_cfa_offset 32
 717              	.LBB142:
 718              	.LBB141:
 719              		.loc 3 290 0
 720 0010 9B69     		ldr	r3, [r3, #24]
 721              	.LBE141:
 722              	.LBE142:
 723              		.loc 1 87 0
 724 0012 A421     		mov	r1, #164
 725 0014 9A68     		ldr	r2, [r3, #8]
 726 0016 2D4B     		ldr	r3, .L13+8
 727 0018 013A     		sub	r2, r2, #1
 728 001a 0093     		str	r3, [sp]
 729 001c 2C4B     		ldr	r3, .L13+12
 730 001e 4900     		lsl	r1, r1, #1
 731 0020 1868     		ldr	r0, [r3]
 732 0022 2C4B     		ldr	r3, .L13+16
 733 0024 FFF7FEFF 		bl	chThdCreateStatic
 734              	.LVL6:
 735 0028 2B4B     		ldr	r3, .L13+20
 736 002a 1860     		str	r0, [r3]
 737              	.LBB143:
 738              	.LBB144:
 739              	.LBB145:
 740              	.LBB146:
 741              		.loc 2 71 0
 742              	@ 71 "../../../os/common/ext/CMSIS/include/cmsis_gcc.h" 1
 743 002c 72B6     		cpsid i
 744              	@ 0 "" 2
 745              		.code	16
 746              	.LBE146:
ARM GAS  /tmp/ccJVc4kl.s 			page 49


 747              	.LBE145:
 748              	.LBE144:
 749              	.LBE143:
 750              		.loc 1 89 0
 751 002e 2B4C     		ldr	r4, .L13+24
 752 0030 2B49     		ldr	r1, .L13+28
 753 0032 201C     		mov	r0, r4
 754 0034 FFF7FEFF 		bl	chThdSuspendTimeoutS
 755              	.LVL7:
 756 0038 071C     		mov	r7, r0
 757              	.LVL8:
 758              	.LBB147:
 759              	.LBB148:
 760              	.LBB149:
 761              	.LBB150:
 762              	.LBB151:
 763              		.loc 2 60 0
 764              	@ 60 "../../../os/common/ext/CMSIS/include/cmsis_gcc.h" 1
 765 003a 62B6     		cpsie i
 766              	@ 0 "" 2
 767              		.code	16
 768              	.LBE151:
 769              	.LBE150:
 770              	.LBE149:
 771              	.LBE148:
 772              	.LBE147:
 773              		.loc 1 91 0
 774 003c 2168     		ldr	r1, [r4]
 775 003e 294E     		ldr	r6, .L13+32
 776 0040 4B42     		neg	r3, r1
 777 0042 4B41     		adc	r3, r3, r1
 778 0044 D8B2     		uxtb	r0, r3
 779              	.LVL9:
 780 0046 311C     		mov	r1, r6
 781 0048 FFF7FEFF 		bl	_test_assert
 782              	.LVL10:
 783 004c 0028     		cmp	r0, #0
 784 004e 03D0     		beq	.L12
 785              	.LVL11:
 786              	.L7:
 787              		.loc 1 111 0
 788 0050 02B0     		add	sp, sp, #8
 789              		@ sp needed
 790 0052 04BC     		pop	{r2}
 791 0054 9046     		mov	r8, r2
 792 0056 F0BD     		pop	{r4, r5, r6, r7, pc}
 793              	.LVL12:
 794              	.L12:
 795              		.loc 1 92 0
 796 0058 7842     		neg	r0, r7
 797 005a 7841     		adc	r0, r0, r7
 798              	.LVL13:
 799 005c 224F     		ldr	r7, .L13+36
 800 005e C0B2     		uxtb	r0, r0
 801 0060 391C     		mov	r1, r7
 802 0062 FFF7FEFF 		bl	_test_assert
 803              	.LVL14:
ARM GAS  /tmp/ccJVc4kl.s 			page 50


 804 0066 0028     		cmp	r0, #0
 805 0068 F2D1     		bne	.L7
 806              	.LBB152:
 807              	.LBB153:
 808              		.loc 1 93 0
 809 006a FFF7FEFF 		bl	test_wait_threads
 810              	.LVL15:
 811              		.loc 1 99 0
 812 006e 0223     		mov	r3, #2
 813 0070 2B60     		str	r3, [r5]
 814              	.LBB154:
 815              	.LBB155:
 816              	.LBB156:
 817              	.LBB157:
 818              		.loc 2 71 0
 819              	@ 71 "../../../os/common/ext/CMSIS/include/cmsis_gcc.h" 1
 820 0072 72B6     		cpsid i
 821              	@ 0 "" 2
 822              		.code	16
 823              	.LBE157:
 824              	.LBE156:
 825              	.LBE155:
 826              	.LBE154:
 827              	.LBB158:
 828              	.LBB159:
 829              	.LBB160:
 830              	.LBB161:
 831              		.file 4 "../../../os/hal/ports/STM32/LLD/TIMv1/hal_st_lld.h"
 832              		.loc 4 141 0
 833 0074 1D4B     		ldr	r3, .L13+40
 834              	.LBE161:
 835              	.LBE160:
 836              	.LBE159:
 837              	.LBE158:
 838              		.loc 1 103 0
 839 0076 FA21     		mov	r1, #250
 840 0078 201C     		mov	r0, r4
 841 007a 8900     		lsl	r1, r1, #2
 842              	.LBB168:
 843              	.LBB166:
 844              	.LBB164:
 845              	.LBB162:
 846              		.loc 4 141 0
 847 007c 5D6A     		ldr	r5, [r3, #36]
 848              	.LBE162:
 849              	.LBE164:
 850              	.LBE166:
 851              	.LBE168:
 852              		.loc 1 103 0
 853 007e FFF7FEFF 		bl	chThdSuspendTimeoutS
 854              	.LVL16:
 855              	.LBB169:
 856              	.LBB167:
 857              	.LBB165:
 858              	.LBB163:
 859              		.loc 4 141 0
 860 0082 ADB2     		uxth	r5, r5
ARM GAS  /tmp/ccJVc4kl.s 			page 51


 861              	.LBE163:
 862              	.LBE165:
 863              	.LBE167:
 864              	.LBE169:
 865              		.loc 1 103 0
 866 0084 8046     		mov	r8, r0
 867              	.LVL17:
 868              	.LBB170:
 869              	.LBB171:
 870              	.LBB172:
 871              	.LBB173:
 872              	.LBB174:
 873              		.loc 2 60 0
 874              	@ 60 "../../../os/common/ext/CMSIS/include/cmsis_gcc.h" 1
 875 0086 62B6     		cpsie i
 876              	@ 0 "" 2
 877              		.code	16
 878              	.LBE174:
 879              	.LBE173:
 880              	.LBE172:
 881              	.LBE171:
 882              	.LBE170:
 883              		.loc 1 105 0
 884 0088 1949     		ldr	r1, .L13+44
 885 008a FA23     		mov	r3, #250
 886 008c 9B00     		lsl	r3, r3, #2
 887 008e E818     		add	r0, r5, r3
 888              	.LVL18:
 889 0090 6D18     		add	r5, r5, r1
 890 0092 80B2     		uxth	r0, r0
 891 0094 A9B2     		uxth	r1, r5
 892 0096 174A     		ldr	r2, .L13+48
 893 0098 FFF7FEFF 		bl	_test_assert_time_window
 894              	.LVL19:
 895 009c 0028     		cmp	r0, #0
 896 009e D7D1     		bne	.L7
 897              		.loc 1 108 0
 898 00a0 2068     		ldr	r0, [r4]
 899 00a2 311C     		mov	r1, r6
 900 00a4 4342     		neg	r3, r0
 901 00a6 5841     		adc	r0, r0, r3
 902 00a8 C0B2     		uxtb	r0, r0
 903 00aa FFF7FEFF 		bl	_test_assert
 904              	.LVL20:
 905 00ae 0028     		cmp	r0, #0
 906 00b0 CED1     		bne	.L7
 907              		.loc 1 109 0
 908 00b2 4046     		mov	r0, r8
 909 00b4 0130     		add	r0, r0, #1
 910 00b6 4342     		neg	r3, r0
 911 00b8 5841     		adc	r0, r0, r3
 912 00ba 391C     		mov	r1, r7
 913 00bc C0B2     		uxtb	r0, r0
 914 00be FFF7FEFF 		bl	_test_assert
 915              	.LVL21:
 916 00c2 C5E7     		b	.L7
 917              	.L14:
ARM GAS  /tmp/ccJVc4kl.s 			page 52


 918              		.align	2
 919              	.L13:
 920 00c4 00000000 		.word	test_step
 921 00c8 00000000 		.word	ch
 922 00cc 00000000 		.word	.LC6
 923 00d0 00000000 		.word	wa
 924 00d4 00000000 		.word	thread1
 925 00d8 00000000 		.word	threads
 926 00dc 00000000 		.word	.LANCHOR0
 927 00e0 FFFF0000 		.word	65535
 928 00e4 04000000 		.word	.LC10
 929 00e8 10000000 		.word	.LC12
 930 00ec 00040040 		.word	1073742848
 931 00f0 E9030000 		.word	1001
 932 00f4 28000000 		.word	.LC14
 933              	.LBE153:
 934              	.LBE152:
 935              		.cfi_endproc
 936              	.LFE181:
 937              		.size	test_003_001_execute, .-test_003_001_execute
 938              		.global	test_sequence_003
 939 00f8 C046C046 		.section	.rodata.test_sequence_003,"a",%progbits
 939      C046C046 
 940              		.align	2
 941              		.type	test_sequence_003, %object
 942              		.size	test_sequence_003, 8
 943              	test_sequence_003:
 944 0000 00000000 		.word	test_003_001
 945 0004 00000000 		.word	0
 946              		.section	.bss.tr1,"aw",%nobits
 947              		.align	2
 948              		.set	.LANCHOR0,. + 0
 949              		.type	tr1, %object
 950              		.size	tr1, 4
 951              	tr1:
 952 0000 00000000 		.space	4
 953              		.section	.rodata.test_003_001,"a",%progbits
 954              		.align	2
 955              		.type	test_003_001, %object
 956              		.size	test_003_001, 16
 957              	test_003_001:
 958 0000 3C000000 		.word	.LC16
 959 0004 00000000 		.word	test_003_001_setup
 960 0008 00000000 		.word	0
 961 000c 00000000 		.word	test_003_001_execute
 962              		.section	.rodata.str1.4,"aMS",%progbits,1
 963              		.align	2
 964              	.LC6:
 965 0000 4100     		.ascii	"A\000"
 966 0002 0000     		.space	2
 967              	.LC10:
 968 0004 6E6F7420 		.ascii	"not NULL\000"
 968      4E554C4C 
 968      00
 969 000d 000000   		.space	3
 970              	.LC12:
 971 0010 77726F6E 		.ascii	"wrong returned message\000"
ARM GAS  /tmp/ccJVc4kl.s 			page 53


 971      67207265 
 971      7475726E 
 971      6564206D 
 971      65737361 
 972 0027 00       		.space	1
 973              	.LC14:
 974 0028 6F757420 		.ascii	"out of time window\000"
 974      6F662074 
 974      696D6520 
 974      77696E64 
 974      6F7700
 975 003b 00       		.space	1
 976              	.LC16:
 977 003c 53757370 		.ascii	"Suspend and Resume functionality\000"
 977      656E6420 
 977      616E6420 
 977      52657375 
 977      6D652066 
 978 005d 000000   		.text
 979              	.Letext0:
 980              		.file 5 "/usr/lib/gcc/arm-none-eabi/4.8/include/stddef.h"
 981              		.file 6 "/usr/include/newlib/machine/_default_types.h"
 982              		.file 7 "/usr/include/newlib/stdint.h"
 983              		.file 8 "../../../os/common/ports/ARMCMx/compilers/GCC/chtypes.h"
 984              		.file 9 "../../../os/rt/include/chsystypes.h"
 985              		.file 10 "../../../os/rt/include/chschd.h"
 986              		.file 11 "../../../os/common/ports/ARMCMx/chcore.h"
 987              		.file 12 "../../../os/common/ports/ARMCMx/chcore_v6m.h"
 988              		.file 13 "../../../os/hal/ports/STM32/LLD/TIMv1/stm32_tim.h"
 989              		.file 14 "../../../os/rt/include/chsem.h"
 990              		.file 15 "../../../os/rt/include/chmtx.h"
 991              		.file 16 "../../../test/lib/ch_test.h"
 992              		.file 17 "../../../os/common/ports/ARMCMx/chcore_timer.h"
 993              		.file 18 "../../../os/rt/include/chsys.h"
 994              		.file 19 "../../../os/rt/include/chvt.h"
 995              		.file 20 "../../../test/rt/source/test/test_root.h"